ARM GAS  C:\Users\bamcg3\AppData\Local\Temp\ccfmEsNg.s 			page 1


   1              		.syntax unified
   2              		.cpu cortex-m3
   3              		.fpu softvfp
   4              		.eabi_attribute 20, 1
   5              		.eabi_attribute 21, 1
   6              		.eabi_attribute 23, 3
   7              		.eabi_attribute 24, 1
   8              		.eabi_attribute 25, 1
   9              		.eabi_attribute 26, 1
  10              		.eabi_attribute 30, 1
  11              		.eabi_attribute 34, 1
  12              		.eabi_attribute 18, 4
  13              		.thumb
  14              		.syntax unified
  15              		.file	"colour.c"
  16              		.text
  17              	.Ltext0:
  18              		.cfi_sections	.debug_frame
  19              		.global	__aeabi_i2f
  20              		.section	.text.ColourIntialiseViaHardware,"ax",%progbits
  21              		.align	2
  22              		.global	ColourIntialiseViaHardware
  23              		.thumb
  24              		.thumb_func
  25              		.type	ColourIntialiseViaHardware, %function
  26              	ColourIntialiseViaHardware:
  27              	.LFB64:
  28              		.file 1 "colour.c"
   1:colour.c      **** /* ========================================
   2:colour.c      ****  *
   3:colour.c      ****  * Copyright YOUR COMPANY, THE YEAR
   4:colour.c      ****  * All Rights Reserved
   5:colour.c      ****  * UNPUBLISHED, LICENSED SOFTWARE.
   6:colour.c      ****  *
   7:colour.c      ****  * CONFIDENTIAL AND PROPRIETARY INFORMATION
   8:colour.c      ****  * WHICH IS THE PROPERTY OF your company.
   9:colour.c      ****  *
  10:colour.c      ****  * ========================================
  11:colour.c      **** */
  12:colour.c      **** 
  13:colour.c      **** #include "colour.h"
  14:colour.c      **** #include "project.h"
  15:colour.c      **** 
  16:colour.c      **** // * C LIBRARIES * // 
  17:colour.c      **** #include <stdio.h>
  18:colour.c      **** #include <math.h>
  19:colour.c      **** 
  20:colour.c      **** 
  21:colour.c      **** 
  22:colour.c      **** // * CONSTANT VALUES * //
  23:colour.c      ****                                             // Note: make sure to update these values, if you chang
  24:colour.c      **** const float trans = 120000;    // 20k ogms
  25:colour.c      **** 
  26:colour.c      ****                     
  27:colour.c      **** // * VARIABLES * //
  28:colour.c      **** 
  29:colour.c      **** // Colour Sensing: 
ARM GAS  C:\Users\bamcg3\AppData\Local\Temp\ccfmEsNg.s 			page 2


  30:colour.c      **** float pd_voltage;
  31:colour.c      **** float input_current;
  32:colour.c      **** float stored[9];            
  33:colour.c      **** float sum = 0;
  34:colour.c      **** char output[32];
  35:colour.c      **** float ambient_current;      // used to remove the ambient light from the photo diode measurements 
  36:colour.c      **** 
  37:colour.c      **** 
  38:colour.c      **** float ambient_white;        // ambient values when white LED on (no puck)
  39:colour.c      **** float ambient_red;          // ambient values when red LED on   (no puck)
  40:colour.c      **** float ambient_green;        // ambient values when green LED on (no puck)
  41:colour.c      **** float ambient_blue;         // ambient values when blue LED on  (no puck)
  42:colour.c      **** 
  43:colour.c      **** float test_white;           
  44:colour.c      **** float test_red;
  45:colour.c      **** float test_green;
  46:colour.c      **** float test_blue;
  47:colour.c      **** 
  48:colour.c      **** extern int colour_flag;     // determines which flag needs to be outputted 
  49:colour.c      **** 
  50:colour.c      **** int puck_all[4] = {0,0,0,0};          
  51:colour.c      ****                             // no puck detection = puck_all[0]
  52:colour.c      ****                             // red puck detection = puck_all[1]
  53:colour.c      ****                             // green puck detection = puck_all[2]
  54:colour.c      ****                             // blue puck detection = puck_all[3]
  55:colour.c      **** int puck_output = 0;        // detects the overall amount of times a puck has been detected
  56:colour.c      **** 
  57:colour.c      **** float colour_output;
  58:colour.c      **** 
  59:colour.c      **** // RED DECTECTION:
  60:colour.c      **** //int red_flag = 0;       // starts off as no red detected
  61:colour.c      **** 
  62:colour.c      **** 
  63:colour.c      **** // LOGICAL STEPS OF COLOUR SENSING: 
  64:colour.c      **** /*
  65:colour.c      **** 1. Initialise against the black wall, or white ground.
  66:colour.c      **** 2. perhaps initialise both sensors initially. 
  67:colour.c      **** 
  68:colour.c      **** 
  69:colour.c      **** 3. Need some failsafe to determine if the colours have been initialised correctly? 
  70:colour.c      **** 4. Can we determine somehow that the colour sensing isn't working as intended? 
  71:colour.c      **** 
  72:colour.c      **** 
  73:colour.c      **** Writing these values to control_led_Write(x):
  74:colour.c      ****     x = 0: BLANK
  75:colour.c      ****     x = 1: RED
  76:colour.c      ****     x = 2: GREEN
  77:colour.c      ****     x = 3: BLUE
  78:colour.c      **** 
  79:colour.c      **** 
  80:colour.c      **** 
  81:colour.c      **** */
  82:colour.c      **** 
  83:colour.c      **** 
  84:colour.c      **** 
  85:colour.c      **** void ColourIntialiseViaHardware (void)
  86:colour.c      **** {
ARM GAS  C:\Users\bamcg3\AppData\Local\Temp\ccfmEsNg.s 			page 3


  29              		.loc 1 86 0
  30              		.cfi_startproc
  31              		@ args = 0, pretend = 0, frame = 16
  32              		@ frame_needed = 0, uses_anonymous_args = 0
  33 0000 30B5     		push	{r4, r5, lr}
  34              		.cfi_def_cfa_offset 12
  35              		.cfi_offset 4, -12
  36              		.cfi_offset 5, -8
  37              		.cfi_offset 14, -4
  38 0002 85B0     		sub	sp, sp, #20
  39              		.cfi_def_cfa_offset 32
  87:colour.c      ****     control_photodiode_Write(colour_flag);       // Drives photodiode 2
  40              		.loc 1 87 0
  41 0004 284B     		ldr	r3, .L5
  42 0006 1878     		ldrb	r0, [r3]	@ zero_extendqisi2
  43 0008 FFF7FEFF 		bl	control_photodiode_Write
  44              	.LVL0:
  88:colour.c      ****     PWM_colour_Wakeup();                    // Wakes PWM up from sleep
  45              		.loc 1 88 0
  46 000c FFF7FEFF 		bl	PWM_colour_Wakeup
  47              	.LVL1:
  89:colour.c      ****     PWM_colour_WriteCompare(255);           // ensures the PWM is driving a continuous pulse
  48              		.loc 1 89 0
  49 0010 FF20     		movs	r0, #255
  50 0012 FFF7FEFF 		bl	PWM_colour_WriteCompare
  51              	.LVL2:
  90:colour.c      ****     
  91:colour.c      ****     
  92:colour.c      ****     // TO ENSURE THE PINS ARE IN THE CORRECT ORDER: 
  93:colour.c      ****     // Will flash RED -> GREEN -> BLUE for one second each
  94:colour.c      ****     control_led_Write(1);   CyDelay(1000);
  52              		.loc 1 94 0
  53 0016 0120     		movs	r0, #1
  54 0018 FFF7FEFF 		bl	control_led_Write
  55              	.LVL3:
  56 001c 4FF47A70 		mov	r0, #1000
  57 0020 FFF7FEFF 		bl	CyDelay
  58              	.LVL4:
  95:colour.c      ****     control_led_Write(2);   CyDelay(1000);
  59              		.loc 1 95 0
  60 0024 0220     		movs	r0, #2
  61 0026 FFF7FEFF 		bl	control_led_Write
  62              	.LVL5:
  63 002a 4FF47A70 		mov	r0, #1000
  64 002e FFF7FEFF 		bl	CyDelay
  65              	.LVL6:
  96:colour.c      ****     control_led_Write(3);   CyDelay(1000);  
  66              		.loc 1 96 0
  67 0032 0320     		movs	r0, #3
  68 0034 FFF7FEFF 		bl	control_led_Write
  69              	.LVL7:
  70 0038 4FF47A70 		mov	r0, #1000
  71 003c FFF7FEFF 		bl	CyDelay
  72              	.LVL8:
  97:colour.c      ****     
  98:colour.c      ****     float test[4] = {0, 0, 0, 0};           // resets the test array to 0
  73              		.loc 1 98 0
ARM GAS  C:\Users\bamcg3\AppData\Local\Temp\ccfmEsNg.s 			page 4


  74 0040 0024     		movs	r4, #0
  75 0042 0094     		str	r4, [sp]
  76 0044 0194     		str	r4, [sp, #4]
  77 0046 0294     		str	r4, [sp, #8]
  78 0048 0394     		str	r4, [sp, #12]
  79              	.LVL9:
  80              	.LBB2:
  99:colour.c      ****    
 100:colour.c      ****     for (int i = 0; i < 4; i++) 
  81              		.loc 1 100 0
  82 004a 18E0     		b	.L2
  83              	.LVL10:
  84              	.L3:
 101:colour.c      ****     {
 102:colour.c      ****         CyDelay(10);
  85              		.loc 1 102 0 discriminator 3
  86 004c 0A20     		movs	r0, #10
  87 004e FFF7FEFF 		bl	CyDelay
  88              	.LVL11:
 103:colour.c      ****         control_led_Write(i);
  89              		.loc 1 103 0 discriminator 3
  90 0052 E0B2     		uxtb	r0, r4
  91 0054 FFF7FEFF 		bl	control_led_Write
  92              	.LVL12:
 104:colour.c      ****         test[i] = ADC_Read32();             // Grabs the value and places it in the test array
  93              		.loc 1 104 0 discriminator 3
  94 0058 FFF7FEFF 		bl	ADC_Read32
  95              	.LVL13:
  96 005c 04AB     		add	r3, sp, #16
  97 005e 03EB8405 		add	r5, r3, r4, lsl #2
  98 0062 FFF7FEFF 		bl	__aeabi_i2f
  99              	.LVL14:
 100 0066 45F8100C 		str	r0, [r5, #-16]	@ float
 105:colour.c      ****         CyDelay(10);
 101              		.loc 1 105 0 discriminator 3
 102 006a 0A20     		movs	r0, #10
 103 006c FFF7FEFF 		bl	CyDelay
 104              	.LVL15:
 106:colour.c      ****         control_led_Write(0);            // Turns the LED off
 105              		.loc 1 106 0 discriminator 3
 106 0070 0020     		movs	r0, #0
 107 0072 FFF7FEFF 		bl	control_led_Write
 108              	.LVL16:
 107:colour.c      ****         CyDelay(20);
 109              		.loc 1 107 0 discriminator 3
 110 0076 1420     		movs	r0, #20
 111 0078 FFF7FEFF 		bl	CyDelay
 112              	.LVL17:
 100:colour.c      ****     {
 113              		.loc 1 100 0 discriminator 3
 114 007c 0134     		adds	r4, r4, #1
 115              	.LVL18:
 116              	.L2:
 100:colour.c      ****     {
 117              		.loc 1 100 0 is_stmt 0 discriminator 1
 118 007e 032C     		cmp	r4, #3
 119 0080 E4DD     		ble	.L3
ARM GAS  C:\Users\bamcg3\AppData\Local\Temp\ccfmEsNg.s 			page 5


 120              	.LBE2:
 108:colour.c      ****     }
 109:colour.c      ****     ambient_white = test[0];
 121              		.loc 1 109 0 is_stmt 1
 122 0082 0A4B     		ldr	r3, .L5+4
 123 0084 009A     		ldr	r2, [sp]	@ float
 124 0086 1A60     		str	r2, [r3]	@ float
 110:colour.c      ****     ambient_red = test[1];
 125              		.loc 1 110 0
 126 0088 094B     		ldr	r3, .L5+8
 127 008a 019A     		ldr	r2, [sp, #4]	@ float
 128 008c 1A60     		str	r2, [r3]	@ float
 111:colour.c      ****     ambient_green = test[2];
 129              		.loc 1 111 0
 130 008e 094B     		ldr	r3, .L5+12
 131 0090 029A     		ldr	r2, [sp, #8]	@ float
 132 0092 1A60     		str	r2, [r3]	@ float
 112:colour.c      ****     ambient_blue = test[3];   
 133              		.loc 1 112 0
 134 0094 084B     		ldr	r3, .L5+16
 135 0096 039A     		ldr	r2, [sp, #12]	@ float
 136 0098 1A60     		str	r2, [r3]	@ float
 113:colour.c      ****     
 114:colour.c      ****     PWM_colour_WriteCompare(10);            // sets back to initial pulse
 137              		.loc 1 114 0
 138 009a 0A20     		movs	r0, #10
 139 009c FFF7FEFF 		bl	PWM_colour_WriteCompare
 140              	.LVL19:
 115:colour.c      ****     PWM_colour_Sleep();                     // Sets PWM back to sleep
 141              		.loc 1 115 0
 142 00a0 FFF7FEFF 		bl	PWM_colour_Sleep
 143              	.LVL20:
 116:colour.c      **** 
 117:colour.c      **** }
 144              		.loc 1 117 0
 145 00a4 05B0     		add	sp, sp, #20
 146              		.cfi_def_cfa_offset 12
 147              		@ sp needed
 148 00a6 30BD     		pop	{r4, r5, pc}
 149              	.LVL21:
 150              	.L6:
 151              		.align	2
 152              	.L5:
 153 00a8 00000000 		.word	colour_flag
 154 00ac 00000000 		.word	ambient_white
 155 00b0 00000000 		.word	ambient_red
 156 00b4 00000000 		.word	ambient_green
 157 00b8 00000000 		.word	ambient_blue
 158              		.cfi_endproc
 159              	.LFE64:
 160              		.size	ColourIntialiseViaHardware, .-ColourIntialiseViaHardware
 161              		.section	.text.ColourSensingViaHardware,"ax",%progbits
 162              		.align	2
 163              		.global	ColourSensingViaHardware
 164              		.thumb
 165              		.thumb_func
 166              		.type	ColourSensingViaHardware, %function
ARM GAS  C:\Users\bamcg3\AppData\Local\Temp\ccfmEsNg.s 			page 6


 167              	ColourSensingViaHardware:
 168              	.LFB65:
 118:colour.c      **** 
 119:colour.c      **** 
 120:colour.c      **** void ColourSensingViaHardware(void)
 121:colour.c      **** {
 169              		.loc 1 121 0
 170              		.cfi_startproc
 171              		@ args = 0, pretend = 0, frame = 16
 172              		@ frame_needed = 0, uses_anonymous_args = 0
 173 0000 30B5     		push	{r4, r5, lr}
 174              		.cfi_def_cfa_offset 12
 175              		.cfi_offset 4, -12
 176              		.cfi_offset 5, -8
 177              		.cfi_offset 14, -4
 178 0002 85B0     		sub	sp, sp, #20
 179              		.cfi_def_cfa_offset 32
 122:colour.c      ****     float test[4] = {0, 0, 0, 0};           // resets the test array to 0
 180              		.loc 1 122 0
 181 0004 0024     		movs	r4, #0
 182 0006 0094     		str	r4, [sp]
 183 0008 0194     		str	r4, [sp, #4]
 184 000a 0294     		str	r4, [sp, #8]
 185 000c 0394     		str	r4, [sp, #12]
 123:colour.c      ****     
 124:colour.c      ****     PWM_colour_Wakeup();
 186              		.loc 1 124 0
 187 000e FFF7FEFF 		bl	PWM_colour_Wakeup
 188              	.LVL22:
 125:colour.c      ****     PWM_colour_WriteCompare(255);           // ensures the PWM is driving a continuous pulse
 189              		.loc 1 125 0
 190 0012 FF20     		movs	r0, #255
 191 0014 FFF7FEFF 		bl	PWM_colour_WriteCompare
 192              	.LVL23:
 193              	.LBB3:
 126:colour.c      ****     
 127:colour.c      ****     for (int i = 0; i < 4; i++) 
 194              		.loc 1 127 0
 195 0018 18E0     		b	.L8
 196              	.LVL24:
 197              	.L9:
 128:colour.c      ****     {
 129:colour.c      ****         CyDelay(10);
 198              		.loc 1 129 0 discriminator 3
 199 001a 0A20     		movs	r0, #10
 200 001c FFF7FEFF 		bl	CyDelay
 201              	.LVL25:
 130:colour.c      ****         control_led_Write(i);
 202              		.loc 1 130 0 discriminator 3
 203 0020 E0B2     		uxtb	r0, r4
 204 0022 FFF7FEFF 		bl	control_led_Write
 205              	.LVL26:
 131:colour.c      ****         test[i] = ADC_Read32();             // Grabs the value and places it in the test array
 206              		.loc 1 131 0 discriminator 3
 207 0026 FFF7FEFF 		bl	ADC_Read32
 208              	.LVL27:
 209 002a 04AB     		add	r3, sp, #16
ARM GAS  C:\Users\bamcg3\AppData\Local\Temp\ccfmEsNg.s 			page 7


 210 002c 03EB8405 		add	r5, r3, r4, lsl #2
 211 0030 FFF7FEFF 		bl	__aeabi_i2f
 212              	.LVL28:
 213 0034 45F8100C 		str	r0, [r5, #-16]	@ float
 132:colour.c      ****         CyDelay(10);
 214              		.loc 1 132 0 discriminator 3
 215 0038 0A20     		movs	r0, #10
 216 003a FFF7FEFF 		bl	CyDelay
 217              	.LVL29:
 133:colour.c      ****         control_led_Write(0);            // Turns the LED off
 218              		.loc 1 133 0 discriminator 3
 219 003e 0020     		movs	r0, #0
 220 0040 FFF7FEFF 		bl	control_led_Write
 221              	.LVL30:
 134:colour.c      ****         CyDelay(20);
 222              		.loc 1 134 0 discriminator 3
 223 0044 1420     		movs	r0, #20
 224 0046 FFF7FEFF 		bl	CyDelay
 225              	.LVL31:
 127:colour.c      ****     {
 226              		.loc 1 127 0 discriminator 3
 227 004a 0134     		adds	r4, r4, #1
 228              	.LVL32:
 229              	.L8:
 127:colour.c      ****     {
 230              		.loc 1 127 0 is_stmt 0 discriminator 1
 231 004c 032C     		cmp	r4, #3
 232 004e E4DD     		ble	.L9
 233              	.LBE3:
 135:colour.c      ****     }
 136:colour.c      ****     test_white = test[0];   
 234              		.loc 1 136 0 is_stmt 1
 235 0050 094B     		ldr	r3, .L11
 236 0052 009A     		ldr	r2, [sp]	@ float
 237 0054 1A60     		str	r2, [r3]	@ float
 137:colour.c      ****     test_red = test[1];     
 238              		.loc 1 137 0
 239 0056 094B     		ldr	r3, .L11+4
 240 0058 019A     		ldr	r2, [sp, #4]	@ float
 241 005a 1A60     		str	r2, [r3]	@ float
 138:colour.c      ****     test_green = test[2];   
 242              		.loc 1 138 0
 243 005c 084B     		ldr	r3, .L11+8
 244 005e 029A     		ldr	r2, [sp, #8]	@ float
 245 0060 1A60     		str	r2, [r3]	@ float
 139:colour.c      ****     test_blue = test[3];    
 246              		.loc 1 139 0
 247 0062 084B     		ldr	r3, .L11+12
 248 0064 039A     		ldr	r2, [sp, #12]	@ float
 249 0066 1A60     		str	r2, [r3]	@ float
 140:colour.c      ****     
 141:colour.c      ****     PWM_colour_WriteCompare(10);            // sets back to initial pulse
 250              		.loc 1 141 0
 251 0068 0A20     		movs	r0, #10
 252 006a FFF7FEFF 		bl	PWM_colour_WriteCompare
 253              	.LVL33:
 142:colour.c      ****     PWM_colour_Sleep();                     // Sets PWM back to sleep
ARM GAS  C:\Users\bamcg3\AppData\Local\Temp\ccfmEsNg.s 			page 8


 254              		.loc 1 142 0
 255 006e FFF7FEFF 		bl	PWM_colour_Sleep
 256              	.LVL34:
 143:colour.c      ****     
 144:colour.c      **** }
 257              		.loc 1 144 0
 258 0072 05B0     		add	sp, sp, #20
 259              		.cfi_def_cfa_offset 12
 260              		@ sp needed
 261 0074 30BD     		pop	{r4, r5, pc}
 262              	.LVL35:
 263              	.L12:
 264 0076 00BF     		.align	2
 265              	.L11:
 266 0078 00000000 		.word	test_white
 267 007c 00000000 		.word	test_red
 268 0080 00000000 		.word	test_green
 269 0084 00000000 		.word	test_blue
 270              		.cfi_endproc
 271              	.LFE65:
 272              		.size	ColourSensingViaHardware, .-ColourSensingViaHardware
 273              		.section	.text.ColourSensingOutput,"ax",%progbits
 274              		.align	2
 275              		.global	ColourSensingOutput
 276              		.thumb
 277              		.thumb_func
 278              		.type	ColourSensingOutput, %function
 279              	ColourSensingOutput:
 280              	.LFB66:
 145:colour.c      **** 
 146:colour.c      **** 
 147:colour.c      **** int ColourSensingOutput(void)
 148:colour.c      **** {
 281              		.loc 1 148 0
 282              		.cfi_startproc
 283              		@ args = 0, pretend = 0, frame = 0
 284              		@ frame_needed = 0, uses_anonymous_args = 0
 285              		@ link register save eliminated.
 286              	.LVL36:
 149:colour.c      ****     int value = 0;
 150:colour.c      ****     
 151:colour.c      ****     
 152:colour.c      ****     
 153:colour.c      ****     
 154:colour.c      ****     
 155:colour.c      ****     
 156:colour.c      ****     
 157:colour.c      ****     return value;
 158:colour.c      **** }
 287              		.loc 1 158 0
 288 0000 0020     		movs	r0, #0
 289 0002 7047     		bx	lr
 290              		.cfi_endproc
 291              	.LFE66:
 292              		.size	ColourSensingOutput, .-ColourSensingOutput
 293              		.global	__aeabi_f2d
 294              		.section	.text.RGB1Initialise,"ax",%progbits
ARM GAS  C:\Users\bamcg3\AppData\Local\Temp\ccfmEsNg.s 			page 9


 295              		.align	2
 296              		.global	RGB1Initialise
 297              		.thumb
 298              		.thumb_func
 299              		.type	RGB1Initialise, %function
 300              	RGB1Initialise:
 301              	.LFB67:
 159:colour.c      **** 
 160:colour.c      **** 
 161:colour.c      **** 
 162:colour.c      **** 
 163:colour.c      **** void RGB1Initialise(void)
 164:colour.c      **** {
 302              		.loc 1 164 0
 303              		.cfi_startproc
 304              		@ args = 0, pretend = 0, frame = 0
 305              		@ frame_needed = 0, uses_anonymous_args = 0
 306 0000 70B5     		push	{r4, r5, r6, lr}
 307              		.cfi_def_cfa_offset 16
 308              		.cfi_offset 4, -16
 309              		.cfi_offset 5, -12
 310              		.cfi_offset 6, -8
 311              		.cfi_offset 14, -4
 165:colour.c      ****     
 166:colour.c      ****     control_photodiode_Write(0);       // Drives photodiode 1
 312              		.loc 1 166 0
 313 0002 0020     		movs	r0, #0
 314 0004 FFF7FEFF 		bl	control_photodiode_Write
 315              	.LVL37:
 167:colour.c      ****     
 168:colour.c      ****      
 169:colour.c      ****     LED_Red_Write(1);
 316              		.loc 1 169 0
 317 0008 0120     		movs	r0, #1
 318 000a FFF7FEFF 		bl	LED_Red_Write
 319              	.LVL38:
 170:colour.c      ****     CyDelay(10);
 320              		.loc 1 170 0
 321 000e 0A20     		movs	r0, #10
 322 0010 FFF7FEFF 		bl	CyDelay
 323              	.LVL39:
 171:colour.c      ****     ambient_red = ADC_Read32();
 324              		.loc 1 171 0
 325 0014 FFF7FEFF 		bl	ADC_Read32
 326              	.LVL40:
 327 0018 314C     		ldr	r4, .L16
 328 001a FFF7FEFF 		bl	__aeabi_i2f
 329              	.LVL41:
 330 001e 2060     		str	r0, [r4]	@ float
 172:colour.c      ****     CyDelay(10);
 331              		.loc 1 172 0
 332 0020 0A20     		movs	r0, #10
 333 0022 FFF7FEFF 		bl	CyDelay
 334              	.LVL42:
 173:colour.c      ****     LED_Red_Write(0);
 335              		.loc 1 173 0
 336 0026 0020     		movs	r0, #0
ARM GAS  C:\Users\bamcg3\AppData\Local\Temp\ccfmEsNg.s 			page 10


 337 0028 FFF7FEFF 		bl	LED_Red_Write
 338              	.LVL43:
 174:colour.c      ****     
 175:colour.c      ****     CyDelay(20);
 339              		.loc 1 175 0
 340 002c 1420     		movs	r0, #20
 341 002e FFF7FEFF 		bl	CyDelay
 342              	.LVL44:
 176:colour.c      ****     
 177:colour.c      ****     // Blue Light: 
 178:colour.c      ****     LED_Blue_Write(1);
 343              		.loc 1 178 0
 344 0032 0120     		movs	r0, #1
 345 0034 FFF7FEFF 		bl	LED_Blue_Write
 346              	.LVL45:
 179:colour.c      ****     CyDelay(10);
 347              		.loc 1 179 0
 348 0038 0A20     		movs	r0, #10
 349 003a FFF7FEFF 		bl	CyDelay
 350              	.LVL46:
 180:colour.c      ****     ambient_blue = ADC_Read32();
 351              		.loc 1 180 0
 352 003e FFF7FEFF 		bl	ADC_Read32
 353              	.LVL47:
 354 0042 284D     		ldr	r5, .L16+4
 355 0044 FFF7FEFF 		bl	__aeabi_i2f
 356              	.LVL48:
 357 0048 2860     		str	r0, [r5]	@ float
 181:colour.c      ****     CyDelay(10);
 358              		.loc 1 181 0
 359 004a 0A20     		movs	r0, #10
 360 004c FFF7FEFF 		bl	CyDelay
 361              	.LVL49:
 182:colour.c      ****     LED_Blue_Write(0);
 362              		.loc 1 182 0
 363 0050 0020     		movs	r0, #0
 364 0052 FFF7FEFF 		bl	LED_Blue_Write
 365              	.LVL50:
 183:colour.c      ****     
 184:colour.c      ****     CyDelay(20);
 366              		.loc 1 184 0
 367 0056 1420     		movs	r0, #20
 368 0058 FFF7FEFF 		bl	CyDelay
 369              	.LVL51:
 185:colour.c      ****     
 186:colour.c      ****     // Green Light: 
 187:colour.c      ****     LED_Green_Write(1);
 370              		.loc 1 187 0
 371 005c 0120     		movs	r0, #1
 372 005e FFF7FEFF 		bl	LED_Green_Write
 373              	.LVL52:
 188:colour.c      ****     CyDelay(10);
 374              		.loc 1 188 0
 375 0062 0A20     		movs	r0, #10
 376 0064 FFF7FEFF 		bl	CyDelay
 377              	.LVL53:
 189:colour.c      ****     ambient_green = ADC_Read32();
ARM GAS  C:\Users\bamcg3\AppData\Local\Temp\ccfmEsNg.s 			page 11


 378              		.loc 1 189 0
 379 0068 FFF7FEFF 		bl	ADC_Read32
 380              	.LVL54:
 381 006c 1E4E     		ldr	r6, .L16+8
 382 006e FFF7FEFF 		bl	__aeabi_i2f
 383              	.LVL55:
 384 0072 3060     		str	r0, [r6]	@ float
 190:colour.c      ****     CyDelay(10);
 385              		.loc 1 190 0
 386 0074 0A20     		movs	r0, #10
 387 0076 FFF7FEFF 		bl	CyDelay
 388              	.LVL56:
 191:colour.c      ****     LED_Green_Write(0);
 389              		.loc 1 191 0
 390 007a 0020     		movs	r0, #0
 391 007c FFF7FEFF 		bl	LED_Green_Write
 392              	.LVL57:
 192:colour.c      ****     
 193:colour.c      ****     CyDelay(20);
 393              		.loc 1 193 0
 394 0080 1420     		movs	r0, #20
 395 0082 FFF7FEFF 		bl	CyDelay
 396              	.LVL58:
 194:colour.c      ****     
 195:colour.c      ****     sprintf(output, "ambient red = %f \n", round(ambient_red));       
 397              		.loc 1 195 0
 398 0086 2068     		ldr	r0, [r4]	@ float
 399 0088 FFF7FEFF 		bl	__aeabi_f2d
 400              	.LVL59:
 401 008c FFF7FEFF 		bl	round
 402              	.LVL60:
 403 0090 164C     		ldr	r4, .L16+12
 404 0092 0246     		mov	r2, r0
 405 0094 0B46     		mov	r3, r1
 406 0096 1649     		ldr	r1, .L16+16
 407 0098 2046     		mov	r0, r4
 408 009a FFF7FEFF 		bl	sprintf
 409              	.LVL61:
 196:colour.c      ****     UART_1_PutString(output);
 410              		.loc 1 196 0
 411 009e 2046     		mov	r0, r4
 412 00a0 FFF7FEFF 		bl	UART_1_PutString
 413              	.LVL62:
 197:colour.c      ****     
 198:colour.c      ****     sprintf(output, "ambient green = %f \n", round(ambient_green));       
 414              		.loc 1 198 0
 415 00a4 3068     		ldr	r0, [r6]	@ float
 416 00a6 FFF7FEFF 		bl	__aeabi_f2d
 417              	.LVL63:
 418 00aa FFF7FEFF 		bl	round
 419              	.LVL64:
 420 00ae 0246     		mov	r2, r0
 421 00b0 0B46     		mov	r3, r1
 422 00b2 1049     		ldr	r1, .L16+20
 423 00b4 2046     		mov	r0, r4
 424 00b6 FFF7FEFF 		bl	sprintf
 425              	.LVL65:
ARM GAS  C:\Users\bamcg3\AppData\Local\Temp\ccfmEsNg.s 			page 12


 199:colour.c      ****     UART_1_PutString(output);
 426              		.loc 1 199 0
 427 00ba 2046     		mov	r0, r4
 428 00bc FFF7FEFF 		bl	UART_1_PutString
 429              	.LVL66:
 200:colour.c      ****     
 201:colour.c      ****     sprintf(output, "ambient blue = %f\n", round(ambient_blue));       
 430              		.loc 1 201 0
 431 00c0 2868     		ldr	r0, [r5]	@ float
 432 00c2 FFF7FEFF 		bl	__aeabi_f2d
 433              	.LVL67:
 434 00c6 FFF7FEFF 		bl	round
 435              	.LVL68:
 436 00ca 0246     		mov	r2, r0
 437 00cc 0B46     		mov	r3, r1
 438 00ce 0A49     		ldr	r1, .L16+24
 439 00d0 2046     		mov	r0, r4
 440 00d2 FFF7FEFF 		bl	sprintf
 441              	.LVL69:
 202:colour.c      ****     UART_1_PutString(output);
 442              		.loc 1 202 0
 443 00d6 2046     		mov	r0, r4
 444 00d8 FFF7FEFF 		bl	UART_1_PutString
 445              	.LVL70:
 446 00dc 70BD     		pop	{r4, r5, r6, pc}
 447              	.L17:
 448 00de 00BF     		.align	2
 449              	.L16:
 450 00e0 00000000 		.word	ambient_red
 451 00e4 00000000 		.word	ambient_blue
 452 00e8 00000000 		.word	ambient_green
 453 00ec 00000000 		.word	output
 454 00f0 00000000 		.word	.LC0
 455 00f4 14000000 		.word	.LC1
 456 00f8 2C000000 		.word	.LC2
 457              		.cfi_endproc
 458              	.LFE67:
 459              		.size	RGB1Initialise, .-RGB1Initialise
 460              		.section	.text.RGB2Initialise,"ax",%progbits
 461              		.align	2
 462              		.global	RGB2Initialise
 463              		.thumb
 464              		.thumb_func
 465              		.type	RGB2Initialise, %function
 466              	RGB2Initialise:
 467              	.LFB68:
 203:colour.c      ****     
 204:colour.c      ****     
 205:colour.c      **** }
 206:colour.c      **** 
 207:colour.c      **** void RGB2Initialise(void)
 208:colour.c      **** {
 468              		.loc 1 208 0
 469              		.cfi_startproc
 470              		@ args = 0, pretend = 0, frame = 0
 471              		@ frame_needed = 0, uses_anonymous_args = 0
 472 0000 70B5     		push	{r4, r5, r6, lr}
ARM GAS  C:\Users\bamcg3\AppData\Local\Temp\ccfmEsNg.s 			page 13


 473              		.cfi_def_cfa_offset 16
 474              		.cfi_offset 4, -16
 475              		.cfi_offset 5, -12
 476              		.cfi_offset 6, -8
 477              		.cfi_offset 14, -4
 209:colour.c      ****     
 210:colour.c      ****     control_photodiode_Write(1);       // Drives photodiode 2
 478              		.loc 1 210 0
 479 0002 0120     		movs	r0, #1
 480 0004 FFF7FEFF 		bl	control_photodiode_Write
 481              	.LVL71:
 211:colour.c      ****        
 212:colour.c      ****         // Red Light: 
 213:colour.c      ****     RGB_Red_Write(0);
 482              		.loc 1 213 0
 483 0008 0020     		movs	r0, #0
 484 000a FFF7FEFF 		bl	RGB_Red_Write
 485              	.LVL72:
 214:colour.c      ****     CyDelay(10);
 486              		.loc 1 214 0
 487 000e 0A20     		movs	r0, #10
 488 0010 FFF7FEFF 		bl	CyDelay
 489              	.LVL73:
 215:colour.c      ****     ambient_red = ADC_Read32();
 490              		.loc 1 215 0
 491 0014 FFF7FEFF 		bl	ADC_Read32
 492              	.LVL74:
 493 0018 384C     		ldr	r4, .L20
 494 001a FFF7FEFF 		bl	__aeabi_i2f
 495              	.LVL75:
 496 001e 2060     		str	r0, [r4]	@ float
 216:colour.c      ****     CyDelay(10);
 497              		.loc 1 216 0
 498 0020 0A20     		movs	r0, #10
 499 0022 FFF7FEFF 		bl	CyDelay
 500              	.LVL76:
 217:colour.c      ****     RGB_Red_Write(1);
 501              		.loc 1 217 0
 502 0026 0120     		movs	r0, #1
 503 0028 FFF7FEFF 		bl	RGB_Red_Write
 504              	.LVL77:
 218:colour.c      ****     
 219:colour.c      ****     CyDelay(20);
 505              		.loc 1 219 0
 506 002c 1420     		movs	r0, #20
 507 002e FFF7FEFF 		bl	CyDelay
 508              	.LVL78:
 220:colour.c      ****     
 221:colour.c      ****     // Blue Light: 
 222:colour.c      ****     RGB_Blue_Write(0);
 509              		.loc 1 222 0
 510 0032 0020     		movs	r0, #0
 511 0034 FFF7FEFF 		bl	RGB_Blue_Write
 512              	.LVL79:
 223:colour.c      ****     CyDelay(10);
 513              		.loc 1 223 0
 514 0038 0A20     		movs	r0, #10
ARM GAS  C:\Users\bamcg3\AppData\Local\Temp\ccfmEsNg.s 			page 14


 515 003a FFF7FEFF 		bl	CyDelay
 516              	.LVL80:
 224:colour.c      ****     ambient_blue = ADC_Read32();
 517              		.loc 1 224 0
 518 003e FFF7FEFF 		bl	ADC_Read32
 519              	.LVL81:
 520 0042 2F4D     		ldr	r5, .L20+4
 521 0044 FFF7FEFF 		bl	__aeabi_i2f
 522              	.LVL82:
 523 0048 2860     		str	r0, [r5]	@ float
 225:colour.c      ****     CyDelay(10);
 524              		.loc 1 225 0
 525 004a 0A20     		movs	r0, #10
 526 004c FFF7FEFF 		bl	CyDelay
 527              	.LVL83:
 226:colour.c      ****     RGB_Blue_Write(1);
 528              		.loc 1 226 0
 529 0050 0120     		movs	r0, #1
 530 0052 FFF7FEFF 		bl	RGB_Blue_Write
 531              	.LVL84:
 227:colour.c      ****     
 228:colour.c      ****     CyDelay(20);
 532              		.loc 1 228 0
 533 0056 1420     		movs	r0, #20
 534 0058 FFF7FEFF 		bl	CyDelay
 535              	.LVL85:
 229:colour.c      ****     
 230:colour.c      ****     // Green Light: 
 231:colour.c      ****     RGB_Green_Write(0);
 536              		.loc 1 231 0
 537 005c 0020     		movs	r0, #0
 538 005e FFF7FEFF 		bl	RGB_Green_Write
 539              	.LVL86:
 232:colour.c      ****     CyDelay(10);
 540              		.loc 1 232 0
 541 0062 0A20     		movs	r0, #10
 542 0064 FFF7FEFF 		bl	CyDelay
 543              	.LVL87:
 233:colour.c      ****     ambient_green = ADC_Read32();
 544              		.loc 1 233 0
 545 0068 FFF7FEFF 		bl	ADC_Read32
 546              	.LVL88:
 547 006c 254E     		ldr	r6, .L20+8
 548 006e FFF7FEFF 		bl	__aeabi_i2f
 549              	.LVL89:
 550 0072 3060     		str	r0, [r6]	@ float
 234:colour.c      ****     CyDelay(10);
 551              		.loc 1 234 0
 552 0074 0A20     		movs	r0, #10
 553 0076 FFF7FEFF 		bl	CyDelay
 554              	.LVL90:
 235:colour.c      ****     RGB_Green_Write(1);
 555              		.loc 1 235 0
 556 007a 0120     		movs	r0, #1
 557 007c FFF7FEFF 		bl	RGB_Green_Write
 558              	.LVL91:
 236:colour.c      ****     
ARM GAS  C:\Users\bamcg3\AppData\Local\Temp\ccfmEsNg.s 			page 15


 237:colour.c      ****     CyDelay(20);
 559              		.loc 1 237 0
 560 0080 1420     		movs	r0, #20
 561 0082 FFF7FEFF 		bl	CyDelay
 562              	.LVL92:
 238:colour.c      ****     
 239:colour.c      ****     sprintf(output, "ambient red = %f \n", round(ambient_red));       
 563              		.loc 1 239 0
 564 0086 2068     		ldr	r0, [r4]	@ float
 565 0088 FFF7FEFF 		bl	__aeabi_f2d
 566              	.LVL93:
 567 008c FFF7FEFF 		bl	round
 568              	.LVL94:
 569 0090 1D4C     		ldr	r4, .L20+12
 570 0092 0246     		mov	r2, r0
 571 0094 0B46     		mov	r3, r1
 572 0096 1D49     		ldr	r1, .L20+16
 573 0098 2046     		mov	r0, r4
 574 009a FFF7FEFF 		bl	sprintf
 575              	.LVL95:
 240:colour.c      ****     UART_1_PutString(output);
 576              		.loc 1 240 0
 577 009e 2046     		mov	r0, r4
 578 00a0 FFF7FEFF 		bl	UART_1_PutString
 579              	.LVL96:
 241:colour.c      ****     
 242:colour.c      ****     sprintf(output, "ambient green = %f \n", round(ambient_green));       
 580              		.loc 1 242 0
 581 00a4 3068     		ldr	r0, [r6]	@ float
 582 00a6 FFF7FEFF 		bl	__aeabi_f2d
 583              	.LVL97:
 584 00aa FFF7FEFF 		bl	round
 585              	.LVL98:
 586 00ae 0246     		mov	r2, r0
 587 00b0 0B46     		mov	r3, r1
 588 00b2 1749     		ldr	r1, .L20+20
 589 00b4 2046     		mov	r0, r4
 590 00b6 FFF7FEFF 		bl	sprintf
 591              	.LVL99:
 243:colour.c      ****     UART_1_PutString(output);
 592              		.loc 1 243 0
 593 00ba 2046     		mov	r0, r4
 594 00bc FFF7FEFF 		bl	UART_1_PutString
 595              	.LVL100:
 244:colour.c      ****     
 245:colour.c      ****     sprintf(output, "ambient blue = %f\n", round(ambient_blue));       
 596              		.loc 1 245 0
 597 00c0 2868     		ldr	r0, [r5]	@ float
 598 00c2 FFF7FEFF 		bl	__aeabi_f2d
 599              	.LVL101:
 600 00c6 FFF7FEFF 		bl	round
 601              	.LVL102:
 602 00ca 0246     		mov	r2, r0
 603 00cc 0B46     		mov	r3, r1
 604 00ce 1149     		ldr	r1, .L20+24
 605 00d0 2046     		mov	r0, r4
 606 00d2 FFF7FEFF 		bl	sprintf
ARM GAS  C:\Users\bamcg3\AppData\Local\Temp\ccfmEsNg.s 			page 16


 607              	.LVL103:
 246:colour.c      ****     UART_1_PutString(output);
 608              		.loc 1 246 0
 609 00d6 2046     		mov	r0, r4
 610 00d8 FFF7FEFF 		bl	UART_1_PutString
 611              	.LVL104:
 247:colour.c      ****     
 248:colour.c      ****     UART_1_PutString("test no led: \t");
 612              		.loc 1 248 0
 613 00dc 0E48     		ldr	r0, .L20+28
 614 00de FFF7FEFF 		bl	UART_1_PutString
 615              	.LVL105:
 249:colour.c      ****     UART_1_PutString("test red: \t");
 616              		.loc 1 249 0
 617 00e2 0E48     		ldr	r0, .L20+32
 618 00e4 FFF7FEFF 		bl	UART_1_PutString
 619              	.LVL106:
 250:colour.c      ****     UART_1_PutString("test green: \t");
 620              		.loc 1 250 0
 621 00e8 0D48     		ldr	r0, .L20+36
 622 00ea FFF7FEFF 		bl	UART_1_PutString
 623              	.LVL107:
 251:colour.c      ****     UART_1_PutString("test blue: \t");
 624              		.loc 1 251 0
 625 00ee 0D48     		ldr	r0, .L20+40
 626 00f0 FFF7FEFF 		bl	UART_1_PutString
 627              	.LVL108:
 252:colour.c      ****     UART_1_PutString("\n");
 628              		.loc 1 252 0
 629 00f4 0C48     		ldr	r0, .L20+44
 630 00f6 FFF7FEFF 		bl	UART_1_PutString
 631              	.LVL109:
 632 00fa 70BD     		pop	{r4, r5, r6, pc}
 633              	.L21:
 634              		.align	2
 635              	.L20:
 636 00fc 00000000 		.word	ambient_red
 637 0100 00000000 		.word	ambient_blue
 638 0104 00000000 		.word	ambient_green
 639 0108 00000000 		.word	output
 640 010c 00000000 		.word	.LC0
 641 0110 14000000 		.word	.LC1
 642 0114 2C000000 		.word	.LC2
 643 0118 40000000 		.word	.LC3
 644 011c 50000000 		.word	.LC4
 645 0120 5C000000 		.word	.LC5
 646 0124 6C000000 		.word	.LC6
 647 0128 7C000000 		.word	.LC7
 648              		.cfi_endproc
 649              	.LFE68:
 650              		.size	RGB2Initialise, .-RGB2Initialise
 651              		.section	.text.ColourSensingRGB1,"ax",%progbits
 652              		.align	2
 653              		.global	ColourSensingRGB1
 654              		.thumb
 655              		.thumb_func
 656              		.type	ColourSensingRGB1, %function
ARM GAS  C:\Users\bamcg3\AppData\Local\Temp\ccfmEsNg.s 			page 17


 657              	ColourSensingRGB1:
 658              	.LFB69:
 253:colour.c      ****     
 254:colour.c      **** }
 255:colour.c      **** 
 256:colour.c      **** 
 257:colour.c      **** void ColourSensingRGB1(void)
 258:colour.c      **** {
 659              		.loc 1 258 0
 660              		.cfi_startproc
 661              		@ args = 0, pretend = 0, frame = 0
 662              		@ frame_needed = 0, uses_anonymous_args = 0
 663 0000 08B5     		push	{r3, lr}
 664              		.cfi_def_cfa_offset 8
 665              		.cfi_offset 3, -8
 666              		.cfi_offset 14, -4
 259:colour.c      ****         // No Light: 
 260:colour.c      ****     CyDelay(10);
 667              		.loc 1 260 0
 668 0002 0A20     		movs	r0, #10
 669 0004 FFF7FEFF 		bl	CyDelay
 670              	.LVL110:
 261:colour.c      ****     test_white = ADC_Read32();
 671              		.loc 1 261 0
 672 0008 FFF7FEFF 		bl	ADC_Read32
 673              	.LVL111:
 674 000c FFF7FEFF 		bl	__aeabi_i2f
 675              	.LVL112:
 676 0010 224B     		ldr	r3, .L24
 677 0012 1860     		str	r0, [r3]	@ float
 262:colour.c      ****     CyDelay(10);
 678              		.loc 1 262 0
 679 0014 0A20     		movs	r0, #10
 680 0016 FFF7FEFF 		bl	CyDelay
 681              	.LVL113:
 263:colour.c      ****         
 264:colour.c      ****         // Red Light: 
 265:colour.c      ****     LED_Red_Write(1);
 682              		.loc 1 265 0
 683 001a 0120     		movs	r0, #1
 684 001c FFF7FEFF 		bl	LED_Red_Write
 685              	.LVL114:
 266:colour.c      ****     CyDelay(10);
 686              		.loc 1 266 0
 687 0020 0A20     		movs	r0, #10
 688 0022 FFF7FEFF 		bl	CyDelay
 689              	.LVL115:
 267:colour.c      ****     test_red = ADC_Read32();
 690              		.loc 1 267 0
 691 0026 FFF7FEFF 		bl	ADC_Read32
 692              	.LVL116:
 693 002a FFF7FEFF 		bl	__aeabi_i2f
 694              	.LVL117:
 695 002e 1C4B     		ldr	r3, .L24+4
 696 0030 1860     		str	r0, [r3]	@ float
 268:colour.c      ****     CyDelay(10);
 697              		.loc 1 268 0
ARM GAS  C:\Users\bamcg3\AppData\Local\Temp\ccfmEsNg.s 			page 18


 698 0032 0A20     		movs	r0, #10
 699 0034 FFF7FEFF 		bl	CyDelay
 700              	.LVL118:
 269:colour.c      ****     LED_Red_Write(0);
 701              		.loc 1 269 0
 702 0038 0020     		movs	r0, #0
 703 003a FFF7FEFF 		bl	LED_Red_Write
 704              	.LVL119:
 270:colour.c      ****     
 271:colour.c      ****     CyDelay(20);
 705              		.loc 1 271 0
 706 003e 1420     		movs	r0, #20
 707 0040 FFF7FEFF 		bl	CyDelay
 708              	.LVL120:
 272:colour.c      ****     
 273:colour.c      ****     // Blue Light: 
 274:colour.c      ****     LED_Blue_Write(1);
 709              		.loc 1 274 0
 710 0044 0120     		movs	r0, #1
 711 0046 FFF7FEFF 		bl	LED_Blue_Write
 712              	.LVL121:
 275:colour.c      ****     CyDelay(10);
 713              		.loc 1 275 0
 714 004a 0A20     		movs	r0, #10
 715 004c FFF7FEFF 		bl	CyDelay
 716              	.LVL122:
 276:colour.c      ****     test_blue = ADC_Read32();
 717              		.loc 1 276 0
 718 0050 FFF7FEFF 		bl	ADC_Read32
 719              	.LVL123:
 720 0054 FFF7FEFF 		bl	__aeabi_i2f
 721              	.LVL124:
 722 0058 124B     		ldr	r3, .L24+8
 723 005a 1860     		str	r0, [r3]	@ float
 277:colour.c      ****     CyDelay(10);
 724              		.loc 1 277 0
 725 005c 0A20     		movs	r0, #10
 726 005e FFF7FEFF 		bl	CyDelay
 727              	.LVL125:
 278:colour.c      ****     LED_Blue_Write(0);
 728              		.loc 1 278 0
 729 0062 0020     		movs	r0, #0
 730 0064 FFF7FEFF 		bl	LED_Blue_Write
 731              	.LVL126:
 279:colour.c      ****     
 280:colour.c      ****     CyDelay(20);
 732              		.loc 1 280 0
 733 0068 1420     		movs	r0, #20
 734 006a FFF7FEFF 		bl	CyDelay
 735              	.LVL127:
 281:colour.c      ****     
 282:colour.c      ****     // Green Light: 
 283:colour.c      ****     LED_Green_Write(1);
 736              		.loc 1 283 0
 737 006e 0120     		movs	r0, #1
 738 0070 FFF7FEFF 		bl	LED_Green_Write
 739              	.LVL128:
ARM GAS  C:\Users\bamcg3\AppData\Local\Temp\ccfmEsNg.s 			page 19


 284:colour.c      ****     CyDelay(10);
 740              		.loc 1 284 0
 741 0074 0A20     		movs	r0, #10
 742 0076 FFF7FEFF 		bl	CyDelay
 743              	.LVL129:
 285:colour.c      ****     test_green = ADC_Read32();  
 744              		.loc 1 285 0
 745 007a FFF7FEFF 		bl	ADC_Read32
 746              	.LVL130:
 747 007e FFF7FEFF 		bl	__aeabi_i2f
 748              	.LVL131:
 749 0082 094B     		ldr	r3, .L24+12
 750 0084 1860     		str	r0, [r3]	@ float
 286:colour.c      ****     CyDelay(10);
 751              		.loc 1 286 0
 752 0086 0A20     		movs	r0, #10
 753 0088 FFF7FEFF 		bl	CyDelay
 754              	.LVL132:
 287:colour.c      ****     LED_Green_Write(0);
 755              		.loc 1 287 0
 756 008c 0020     		movs	r0, #0
 757 008e FFF7FEFF 		bl	LED_Green_Write
 758              	.LVL133:
 288:colour.c      ****     
 289:colour.c      ****     CyDelay(20);
 759              		.loc 1 289 0
 760 0092 1420     		movs	r0, #20
 761 0094 FFF7FEFF 		bl	CyDelay
 762              	.LVL134:
 763 0098 08BD     		pop	{r3, pc}
 764              	.L25:
 765 009a 00BF     		.align	2
 766              	.L24:
 767 009c 00000000 		.word	test_white
 768 00a0 00000000 		.word	test_red
 769 00a4 00000000 		.word	test_blue
 770 00a8 00000000 		.word	test_green
 771              		.cfi_endproc
 772              	.LFE69:
 773              		.size	ColourSensingRGB1, .-ColourSensingRGB1
 774              		.section	.text.ColourSensingRGB2,"ax",%progbits
 775              		.align	2
 776              		.global	ColourSensingRGB2
 777              		.thumb
 778              		.thumb_func
 779              		.type	ColourSensingRGB2, %function
 780              	ColourSensingRGB2:
 781              	.LFB70:
 290:colour.c      ****     
 291:colour.c      ****     /*
 292:colour.c      ****     sprintf(output, "test red = %f \n", round(test_red));       
 293:colour.c      ****     UART_1_PutString(output);
 294:colour.c      ****     
 295:colour.c      ****     sprintf(output, "test green = %f \n", round(test_green));       
 296:colour.c      ****     UART_1_PutString(output);
 297:colour.c      ****     
 298:colour.c      ****     sprintf(output, "test blue = %f\n", round(test_blue));      
ARM GAS  C:\Users\bamcg3\AppData\Local\Temp\ccfmEsNg.s 			page 20


 299:colour.c      ****     UART_1_PutString(output);
 300:colour.c      ****     */
 301:colour.c      ****     
 302:colour.c      ****     
 303:colour.c      ****     
 304:colour.c      ****     
 305:colour.c      ****     
 306:colour.c      ****     // TEST PRINTING //
 307:colour.c      ****     
 308:colour.c      ****     /*
 309:colour.c      ****     
 310:colour.c      ****     UART_1_PutString("\n");
 311:colour.c      ****     
 312:colour.c      ****     sprintf(output, "test red = %f \n", round(test_red));       
 313:colour.c      ****     UART_1_PutString(output);
 314:colour.c      ****     
 315:colour.c      ****     sprintf(output, "test green = %f \n", round(test_green));       
 316:colour.c      ****     UART_1_PutString(output);
 317:colour.c      ****     
 318:colour.c      ****     sprintf(output, "test blue = %f\n", round(test_blue));       
 319:colour.c      ****     UART_1_PutString(output);
 320:colour.c      ****     
 321:colour.c      ****     */
 322:colour.c      ****     
 323:colour.c      **** }
 324:colour.c      **** 
 325:colour.c      **** 
 326:colour.c      **** void ColourSensingRGB2(void)
 327:colour.c      **** {
 782              		.loc 1 327 0
 783              		.cfi_startproc
 784              		@ args = 0, pretend = 0, frame = 0
 785              		@ frame_needed = 0, uses_anonymous_args = 0
 786 0000 08B5     		push	{r3, lr}
 787              		.cfi_def_cfa_offset 8
 788              		.cfi_offset 3, -8
 789              		.cfi_offset 14, -4
 328:colour.c      ****     // No Light: 
 329:colour.c      ****     CyDelay(10);
 790              		.loc 1 329 0
 791 0002 0A20     		movs	r0, #10
 792 0004 FFF7FEFF 		bl	CyDelay
 793              	.LVL135:
 330:colour.c      ****     test_white = ADC_Read32();
 794              		.loc 1 330 0
 795 0008 FFF7FEFF 		bl	ADC_Read32
 796              	.LVL136:
 797 000c FFF7FEFF 		bl	__aeabi_i2f
 798              	.LVL137:
 799 0010 224B     		ldr	r3, .L28
 800 0012 1860     		str	r0, [r3]	@ float
 331:colour.c      ****     CyDelay(10);
 801              		.loc 1 331 0
 802 0014 0A20     		movs	r0, #10
 803 0016 FFF7FEFF 		bl	CyDelay
 804              	.LVL138:
 332:colour.c      ****         
ARM GAS  C:\Users\bamcg3\AppData\Local\Temp\ccfmEsNg.s 			page 21


 333:colour.c      ****     // Red Light: 
 334:colour.c      ****     RGB_Red_Write(0);
 805              		.loc 1 334 0
 806 001a 0020     		movs	r0, #0
 807 001c FFF7FEFF 		bl	RGB_Red_Write
 808              	.LVL139:
 335:colour.c      ****     CyDelay(10);
 809              		.loc 1 335 0
 810 0020 0A20     		movs	r0, #10
 811 0022 FFF7FEFF 		bl	CyDelay
 812              	.LVL140:
 336:colour.c      ****     test_red = ADC_Read32();
 813              		.loc 1 336 0
 814 0026 FFF7FEFF 		bl	ADC_Read32
 815              	.LVL141:
 816 002a FFF7FEFF 		bl	__aeabi_i2f
 817              	.LVL142:
 818 002e 1C4B     		ldr	r3, .L28+4
 819 0030 1860     		str	r0, [r3]	@ float
 337:colour.c      ****     CyDelay(10);
 820              		.loc 1 337 0
 821 0032 0A20     		movs	r0, #10
 822 0034 FFF7FEFF 		bl	CyDelay
 823              	.LVL143:
 338:colour.c      ****     RGB_Red_Write(1);
 824              		.loc 1 338 0
 825 0038 0120     		movs	r0, #1
 826 003a FFF7FEFF 		bl	RGB_Red_Write
 827              	.LVL144:
 339:colour.c      ****     
 340:colour.c      ****     CyDelay(20);
 828              		.loc 1 340 0
 829 003e 1420     		movs	r0, #20
 830 0040 FFF7FEFF 		bl	CyDelay
 831              	.LVL145:
 341:colour.c      ****     
 342:colour.c      ****     // Blue Light: 
 343:colour.c      ****     RGB_Blue_Write(0);
 832              		.loc 1 343 0
 833 0044 0020     		movs	r0, #0
 834 0046 FFF7FEFF 		bl	RGB_Blue_Write
 835              	.LVL146:
 344:colour.c      ****     CyDelay(10);
 836              		.loc 1 344 0
 837 004a 0A20     		movs	r0, #10
 838 004c FFF7FEFF 		bl	CyDelay
 839              	.LVL147:
 345:colour.c      ****     test_blue = ADC_Read32();
 840              		.loc 1 345 0
 841 0050 FFF7FEFF 		bl	ADC_Read32
 842              	.LVL148:
 843 0054 FFF7FEFF 		bl	__aeabi_i2f
 844              	.LVL149:
 845 0058 124B     		ldr	r3, .L28+8
 846 005a 1860     		str	r0, [r3]	@ float
 346:colour.c      ****     CyDelay(10);
 847              		.loc 1 346 0
ARM GAS  C:\Users\bamcg3\AppData\Local\Temp\ccfmEsNg.s 			page 22


 848 005c 0A20     		movs	r0, #10
 849 005e FFF7FEFF 		bl	CyDelay
 850              	.LVL150:
 347:colour.c      ****     RGB_Blue_Write(1);
 851              		.loc 1 347 0
 852 0062 0120     		movs	r0, #1
 853 0064 FFF7FEFF 		bl	RGB_Blue_Write
 854              	.LVL151:
 348:colour.c      ****     
 349:colour.c      ****     CyDelay(20);
 855              		.loc 1 349 0
 856 0068 1420     		movs	r0, #20
 857 006a FFF7FEFF 		bl	CyDelay
 858              	.LVL152:
 350:colour.c      ****     
 351:colour.c      ****     // Green Light: 
 352:colour.c      ****     RGB_Green_Write(0);
 859              		.loc 1 352 0
 860 006e 0020     		movs	r0, #0
 861 0070 FFF7FEFF 		bl	RGB_Green_Write
 862              	.LVL153:
 353:colour.c      ****     CyDelay(10);
 863              		.loc 1 353 0
 864 0074 0A20     		movs	r0, #10
 865 0076 FFF7FEFF 		bl	CyDelay
 866              	.LVL154:
 354:colour.c      ****     test_green = ADC_Read32();
 867              		.loc 1 354 0
 868 007a FFF7FEFF 		bl	ADC_Read32
 869              	.LVL155:
 870 007e FFF7FEFF 		bl	__aeabi_i2f
 871              	.LVL156:
 872 0082 094B     		ldr	r3, .L28+12
 873 0084 1860     		str	r0, [r3]	@ float
 355:colour.c      ****     CyDelay(10);
 874              		.loc 1 355 0
 875 0086 0A20     		movs	r0, #10
 876 0088 FFF7FEFF 		bl	CyDelay
 877              	.LVL157:
 356:colour.c      ****     RGB_Green_Write(1);
 878              		.loc 1 356 0
 879 008c 0120     		movs	r0, #1
 880 008e FFF7FEFF 		bl	RGB_Green_Write
 881              	.LVL158:
 357:colour.c      ****     
 358:colour.c      ****     CyDelay(20);
 882              		.loc 1 358 0
 883 0092 1420     		movs	r0, #20
 884 0094 FFF7FEFF 		bl	CyDelay
 885              	.LVL159:
 886 0098 08BD     		pop	{r3, pc}
 887              	.L29:
 888 009a 00BF     		.align	2
 889              	.L28:
 890 009c 00000000 		.word	test_white
 891 00a0 00000000 		.word	test_red
 892 00a4 00000000 		.word	test_blue
ARM GAS  C:\Users\bamcg3\AppData\Local\Temp\ccfmEsNg.s 			page 23


 893 00a8 00000000 		.word	test_green
 894              		.cfi_endproc
 895              	.LFE70:
 896              		.size	ColourSensingRGB2, .-ColourSensingRGB2
 897              		.global	__aeabi_fcmpgt
 898              		.global	__aeabi_fcmplt
 899              		.section	.text.ColourOutput,"ax",%progbits
 900              		.align	2
 901              		.global	ColourOutput
 902              		.thumb
 903              		.thumb_func
 904              		.type	ColourOutput, %function
 905              	ColourOutput:
 906              	.LFB71:
 359:colour.c      **** 
 360:colour.c      ****     
 361:colour.c      **** }
 362:colour.c      **** 
 363:colour.c      **** 
 364:colour.c      **** void ColourOutput(void)
 365:colour.c      **** {
 907              		.loc 1 365 0
 908              		.cfi_startproc
 909              		@ args = 0, pretend = 0, frame = 0
 910              		@ frame_needed = 0, uses_anonymous_args = 0
 911 0000 70B5     		push	{r4, r5, r6, lr}
 912              		.cfi_def_cfa_offset 16
 913              		.cfi_offset 4, -16
 914              		.cfi_offset 5, -12
 915              		.cfi_offset 6, -8
 916              		.cfi_offset 14, -4
 366:colour.c      ****     if (test_red > test_blue && test_red > test_green)          // DETERMINING IF IT IS A RED PUCK
 917              		.loc 1 366 0
 918 0002 5E4B     		ldr	r3, .L63
 919 0004 1D68     		ldr	r5, [r3]	@ float
 920 0006 5E4B     		ldr	r3, .L63+4
 921 0008 1C68     		ldr	r4, [r3]	@ float
 922 000a 2146     		mov	r1, r4
 923 000c 2846     		mov	r0, r5
 924 000e FFF7FEFF 		bl	__aeabi_fcmpgt
 925              	.LVL160:
 926 0012 68B1     		cbz	r0, .L31
 927              		.loc 1 366 0 is_stmt 0 discriminator 1
 928 0014 5B4B     		ldr	r3, .L63+8
 929 0016 1968     		ldr	r1, [r3]	@ float
 930 0018 2846     		mov	r0, r5
 931 001a FFF7FEFF 		bl	__aeabi_fcmpgt
 932              	.LVL161:
 933 001e 38B1     		cbz	r0, .L31
 367:colour.c      ****     {
 368:colour.c      ****         UART_1_PutString("R");      // red puck
 934              		.loc 1 368 0 is_stmt 1
 935 0020 5948     		ldr	r0, .L63+12
 936 0022 FFF7FEFF 		bl	UART_1_PutString
 937              	.LVL162:
 369:colour.c      ****         puck_all[1]++;
 938              		.loc 1 369 0
ARM GAS  C:\Users\bamcg3\AppData\Local\Temp\ccfmEsNg.s 			page 24


 939 0026 594A     		ldr	r2, .L63+16
 940 0028 5368     		ldr	r3, [r2, #4]
 941 002a 0133     		adds	r3, r3, #1
 942 002c 5360     		str	r3, [r2, #4]
 943 002e 35E0     		b	.L34
 944              	.L31:
 370:colour.c      ****     }
 371:colour.c      ****     else if (test_green > test_blue && ambient_red > ambient_white && test_green > ambient_green)  
 945              		.loc 1 371 0
 946 0030 544B     		ldr	r3, .L63+8
 947 0032 1E68     		ldr	r6, [r3]	@ float
 948 0034 3146     		mov	r1, r6
 949 0036 2046     		mov	r0, r4
 950 0038 FFF7FEFF 		bl	__aeabi_fcmplt
 951              	.LVL163:
 952 003c A0B1     		cbz	r0, .L35
 953              		.loc 1 371 0 is_stmt 0 discriminator 1
 954 003e 544B     		ldr	r3, .L63+20
 955 0040 1968     		ldr	r1, [r3]	@ float
 956 0042 544B     		ldr	r3, .L63+24
 957 0044 1868     		ldr	r0, [r3]	@ float
 958 0046 FFF7FEFF 		bl	__aeabi_fcmpgt
 959              	.LVL164:
 960 004a 68B1     		cbz	r0, .L35
 961              		.loc 1 371 0 discriminator 2
 962 004c 524B     		ldr	r3, .L63+28
 963 004e 1968     		ldr	r1, [r3]	@ float
 964 0050 3046     		mov	r0, r6
 965 0052 FFF7FEFF 		bl	__aeabi_fcmpgt
 966              	.LVL165:
 967 0056 38B1     		cbz	r0, .L35
 372:colour.c      ****     {                                                           // This isn't full proof
 373:colour.c      ****         UART_1_PutString("G");      // green puck
 968              		.loc 1 373 0 is_stmt 1
 969 0058 5048     		ldr	r0, .L63+32
 970 005a FFF7FEFF 		bl	UART_1_PutString
 971              	.LVL166:
 374:colour.c      ****         puck_all[2]++;
 972              		.loc 1 374 0
 973 005e 4B4A     		ldr	r2, .L63+16
 974 0060 9368     		ldr	r3, [r2, #8]
 975 0062 0133     		adds	r3, r3, #1
 976 0064 9360     		str	r3, [r2, #8]
 977 0066 19E0     		b	.L34
 978              	.L35:
 375:colour.c      ****     }
 376:colour.c      ****     else if (test_blue > test_green && test_red < ambient_red)
 979              		.loc 1 376 0
 980 0068 3146     		mov	r1, r6
 981 006a 2046     		mov	r0, r4
 982 006c FFF7FEFF 		bl	__aeabi_fcmpgt
 983              	.LVL167:
 984 0070 68B1     		cbz	r0, .L39
 985              		.loc 1 376 0 is_stmt 0 discriminator 1
 986 0072 484B     		ldr	r3, .L63+24
 987 0074 1968     		ldr	r1, [r3]	@ float
 988 0076 2846     		mov	r0, r5
ARM GAS  C:\Users\bamcg3\AppData\Local\Temp\ccfmEsNg.s 			page 25


 989 0078 FFF7FEFF 		bl	__aeabi_fcmplt
 990              	.LVL168:
 991 007c 38B1     		cbz	r0, .L39
 377:colour.c      ****     {
 378:colour.c      ****         UART_1_PutString("B");      // BLUE puck
 992              		.loc 1 378 0 is_stmt 1
 993 007e 4848     		ldr	r0, .L63+36
 994 0080 FFF7FEFF 		bl	UART_1_PutString
 995              	.LVL169:
 379:colour.c      ****         puck_all[3]++;
 996              		.loc 1 379 0
 997 0084 414A     		ldr	r2, .L63+16
 998 0086 D368     		ldr	r3, [r2, #12]
 999 0088 0133     		adds	r3, r3, #1
 1000 008a D360     		str	r3, [r2, #12]
 1001 008c 06E0     		b	.L34
 1002              	.L39:
 380:colour.c      ****     }
 381:colour.c      ****     else 
 382:colour.c      ****     {
 383:colour.c      ****         UART_1_PutString("N");
 1003              		.loc 1 383 0
 1004 008e 4548     		ldr	r0, .L63+40
 1005 0090 FFF7FEFF 		bl	UART_1_PutString
 1006              	.LVL170:
 384:colour.c      ****         puck_all[0]++;
 1007              		.loc 1 384 0
 1008 0094 3D4A     		ldr	r2, .L63+16
 1009 0096 1368     		ldr	r3, [r2]
 1010 0098 0133     		adds	r3, r3, #1
 1011 009a 1360     		str	r3, [r2]
 1012              	.L34:
 385:colour.c      ****     }
 386:colour.c      ****     
 387:colour.c      ****     puck_output++;
 1013              		.loc 1 387 0
 1014 009c 3B4C     		ldr	r4, .L63+16
 1015 009e 2269     		ldr	r2, [r4, #16]
 1016 00a0 0132     		adds	r2, r2, #1
 1017 00a2 2261     		str	r2, [r4, #16]
 388:colour.c      ****     sprintf(output, "%i\t", puck_output);      
 1018              		.loc 1 388 0
 1019 00a4 404D     		ldr	r5, .L63+44
 1020 00a6 4149     		ldr	r1, .L63+48
 1021 00a8 2846     		mov	r0, r5
 1022 00aa FFF7FEFF 		bl	sprintf
 1023              	.LVL171:
 389:colour.c      ****     UART_1_PutString(output);
 1024              		.loc 1 389 0
 1025 00ae 2846     		mov	r0, r5
 1026 00b0 FFF7FEFF 		bl	UART_1_PutString
 1027              	.LVL172:
 390:colour.c      ****     
 391:colour.c      ****     if (puck_output == 11)
 1028              		.loc 1 391 0
 1029 00b4 2369     		ldr	r3, [r4, #16]
 1030 00b6 0B2B     		cmp	r3, #11
ARM GAS  C:\Users\bamcg3\AppData\Local\Temp\ccfmEsNg.s 			page 26


 1031 00b8 5ED1     		bne	.L30
 1032              	.LBB4:
 392:colour.c      ****     {
 393:colour.c      ****         UART_1_PutString("\nPuck detected: ");
 1033              		.loc 1 393 0
 1034 00ba 3D48     		ldr	r0, .L63+52
 1035 00bc FFF7FEFF 		bl	UART_1_PutString
 1036              	.LVL173:
 1037              	.LBB5:
 394:colour.c      ****         int max = 0;
 395:colour.c      ****         int colour = 0;
 396:colour.c      ****         for (int i = 0; i < 4; i++)             // Finds the puck that was detected the most (so we
 1038              		.loc 1 396 0
 1039 00c0 0023     		movs	r3, #0
 1040              	.LBE5:
 395:colour.c      ****         for (int i = 0; i < 4; i++)             // Finds the puck that was detected the most (so we
 1041              		.loc 1 395 0
 1042 00c2 1C46     		mov	r4, r3
 394:colour.c      ****         int max = 0;
 1043              		.loc 1 394 0
 1044 00c4 1946     		mov	r1, r3
 1045              	.LBB6:
 1046              		.loc 1 396 0
 1047 00c6 07E0     		b	.L43
 1048              	.LVL174:
 1049              	.L45:
 397:colour.c      ****         {
 398:colour.c      ****             if (puck_all[i] > max)
 1050              		.loc 1 398 0
 1051 00c8 304A     		ldr	r2, .L63+16
 1052 00ca 52F82320 		ldr	r2, [r2, r3, lsl #2]
 1053 00ce 9142     		cmp	r1, r2
 1054 00d0 01DA     		bge	.L44
 399:colour.c      ****             {
 400:colour.c      ****                 max = puck_all[i];
 401:colour.c      ****                 colour = i;
 1055              		.loc 1 401 0
 1056 00d2 1C46     		mov	r4, r3
 1057              	.LVL175:
 400:colour.c      ****                 colour = i;
 1058              		.loc 1 400 0
 1059 00d4 1146     		mov	r1, r2
 1060              	.LVL176:
 1061              	.L44:
 396:colour.c      ****         {
 1062              		.loc 1 396 0 discriminator 2
 1063 00d6 0133     		adds	r3, r3, #1
 1064              	.LVL177:
 1065              	.L43:
 396:colour.c      ****         {
 1066              		.loc 1 396 0 is_stmt 0 discriminator 1
 1067 00d8 032B     		cmp	r3, #3
 1068 00da F5DD     		ble	.L45
 1069              	.LBE6:
 402:colour.c      ****                                 
 403:colour.c      ****             }           
 404:colour.c      ****         }
ARM GAS  C:\Users\bamcg3\AppData\Local\Temp\ccfmEsNg.s 			page 27


 405:colour.c      ****         
 406:colour.c      ****         switch(colour)
 1070              		.loc 1 406 0 is_stmt 1
 1071 00dc 032C     		cmp	r4, #3
 1072 00de 2CD8     		bhi	.L46
 1073 00e0 DFE804F0 		tbb	[pc, r4]
 1074              	.LVL178:
 1075              	.L48:
 1076 00e4 02       		.byte	(.L47-.L48)/2
 1077 00e5 06       		.byte	(.L49-.L48)/2
 1078 00e6 19       		.byte	(.L50-.L48)/2
 1079 00e7 2D       		.byte	(.L51-.L48)/2
 1080              		.p2align 1
 1081              	.L47:
 407:colour.c      ****         {
 408:colour.c      ****             case 0: UART_1_PutString("\n"); break;
 1082              		.loc 1 408 0
 1083 00e8 3248     		ldr	r0, .L63+56
 1084 00ea FFF7FEFF 		bl	UART_1_PutString
 1085              	.LVL179:
 1086 00ee 24E0     		b	.L46
 1087              	.LVL180:
 1088              	.L49:
 409:colour.c      ****             case 1: 
 410:colour.c      ****                 UART_1_PutString("Red \n");
 1089              		.loc 1 410 0
 1090 00f0 3148     		ldr	r0, .L63+60
 1091 00f2 FFF7FEFF 		bl	UART_1_PutString
 1092              	.LVL181:
 411:colour.c      ****                 control_led_Write(colour);
 1093              		.loc 1 411 0
 1094 00f6 E0B2     		uxtb	r0, r4
 1095 00f8 FFF7FEFF 		bl	control_led_Write
 1096              	.LVL182:
 412:colour.c      ****                 PWM_colour_Wakeup();
 1097              		.loc 1 412 0
 1098 00fc FFF7FEFF 		bl	PWM_colour_Wakeup
 1099              	.LVL183:
 413:colour.c      ****                 CyDelay(2000);
 1100              		.loc 1 413 0
 1101 0100 4FF4FA60 		mov	r0, #2000
 1102 0104 FFF7FEFF 		bl	CyDelay
 1103              	.LVL184:
 414:colour.c      ****                 PWM_colour_Sleep();
 1104              		.loc 1 414 0
 1105 0108 FFF7FEFF 		bl	PWM_colour_Sleep
 1106              	.LVL185:
 415:colour.c      ****                 CyDelay(1000);
 1107              		.loc 1 415 0
 1108 010c 4FF47A70 		mov	r0, #1000
 1109 0110 FFF7FEFF 		bl	CyDelay
 1110              	.LVL186:
 416:colour.c      ****                 break;
 1111              		.loc 1 416 0
 1112 0114 11E0     		b	.L46
 1113              	.LVL187:
 1114              	.L50:
ARM GAS  C:\Users\bamcg3\AppData\Local\Temp\ccfmEsNg.s 			page 28


 417:colour.c      ****             case 2:
 418:colour.c      ****                 UART_1_PutString("Green \n");
 1115              		.loc 1 418 0
 1116 0116 2948     		ldr	r0, .L63+64
 1117 0118 FFF7FEFF 		bl	UART_1_PutString
 1118              	.LVL188:
 419:colour.c      ****                 control_led_Write(colour);
 1119              		.loc 1 419 0
 1120 011c E0B2     		uxtb	r0, r4
 1121 011e FFF7FEFF 		bl	control_led_Write
 1122              	.LVL189:
 420:colour.c      ****                 PWM_colour_Wakeup();
 1123              		.loc 1 420 0
 1124 0122 FFF7FEFF 		bl	PWM_colour_Wakeup
 1125              	.LVL190:
 421:colour.c      ****                 CyDelay(2000);
 1126              		.loc 1 421 0
 1127 0126 4FF4FA60 		mov	r0, #2000
 1128 012a FFF7FEFF 		bl	CyDelay
 1129              	.LVL191:
 422:colour.c      ****                 PWM_colour_Sleep();
 1130              		.loc 1 422 0
 1131 012e FFF7FEFF 		bl	PWM_colour_Sleep
 1132              	.LVL192:
 423:colour.c      ****                 CyDelay(1000);
 1133              		.loc 1 423 0
 1134 0132 4FF47A70 		mov	r0, #1000
 1135 0136 FFF7FEFF 		bl	CyDelay
 1136              	.LVL193:
 1137              	.L46:
 394:colour.c      ****         int colour = 0;
 1138              		.loc 1 394 0 discriminator 1
 1139 013a 0023     		movs	r3, #0
 1140 013c 17E0     		b	.L52
 1141              	.LVL194:
 1142              	.L51:
 424:colour.c      ****                 break;
 425:colour.c      ****             case 3:
 426:colour.c      ****                 UART_1_PutString("Blue \n");
 1143              		.loc 1 426 0
 1144 013e 2048     		ldr	r0, .L63+68
 1145 0140 FFF7FEFF 		bl	UART_1_PutString
 1146              	.LVL195:
 427:colour.c      ****                 control_led_Write(colour);
 1147              		.loc 1 427 0
 1148 0144 E0B2     		uxtb	r0, r4
 1149 0146 FFF7FEFF 		bl	control_led_Write
 1150              	.LVL196:
 428:colour.c      ****                 PWM_colour_Wakeup();
 1151              		.loc 1 428 0
 1152 014a FFF7FEFF 		bl	PWM_colour_Wakeup
 1153              	.LVL197:
 429:colour.c      ****                 CyDelay(2000);
 1154              		.loc 1 429 0
 1155 014e 4FF4FA60 		mov	r0, #2000
 1156 0152 FFF7FEFF 		bl	CyDelay
 1157              	.LVL198:
ARM GAS  C:\Users\bamcg3\AppData\Local\Temp\ccfmEsNg.s 			page 29


 430:colour.c      ****                 PWM_colour_Sleep();
 1158              		.loc 1 430 0
 1159 0156 FFF7FEFF 		bl	PWM_colour_Sleep
 1160              	.LVL199:
 431:colour.c      ****                 CyDelay(1000);
 1161              		.loc 1 431 0
 1162 015a 4FF47A70 		mov	r0, #1000
 1163 015e FFF7FEFF 		bl	CyDelay
 1164              	.LVL200:
 432:colour.c      ****                 break;
 1165              		.loc 1 432 0
 1166 0162 EAE7     		b	.L46
 1167              	.LVL201:
 1168              	.L53:
 1169              	.LBB7:
 433:colour.c      ****             default: break;
 434:colour.c      ****         }
 435:colour.c      ****         
 436:colour.c      ****         for (int i = 0; i < 4; i++) 
 437:colour.c      ****         {
 438:colour.c      ****             puck_all[i] = 0;                    // resets all the puck counts
 1170              		.loc 1 438 0 discriminator 3
 1171 0164 0021     		movs	r1, #0
 1172 0166 094A     		ldr	r2, .L63+16
 1173 0168 42F82310 		str	r1, [r2, r3, lsl #2]
 436:colour.c      ****         {
 1174              		.loc 1 436 0 discriminator 3
 1175 016c 0133     		adds	r3, r3, #1
 1176              	.LVL202:
 1177              	.L52:
 436:colour.c      ****         {
 1178              		.loc 1 436 0 is_stmt 0 discriminator 1
 1179 016e 032B     		cmp	r3, #3
 1180 0170 F8DD     		ble	.L53
 1181              	.LBE7:
 439:colour.c      ****         }
 440:colour.c      ****         puck_output = 0;
 1182              		.loc 1 440 0 is_stmt 1
 1183 0172 0022     		movs	r2, #0
 1184 0174 054B     		ldr	r3, .L63+16
 1185              	.LVL203:
 1186 0176 1A61     		str	r2, [r3, #16]
 1187              	.LVL204:
 1188              	.L30:
 1189 0178 70BD     		pop	{r4, r5, r6, pc}
 1190              	.L64:
 1191 017a 00BF     		.align	2
 1192              	.L63:
 1193 017c 00000000 		.word	test_red
 1194 0180 00000000 		.word	test_blue
 1195 0184 00000000 		.word	test_green
 1196 0188 80000000 		.word	.LC8
 1197 018c 00000000 		.word	.LANCHOR0
 1198 0190 00000000 		.word	ambient_white
 1199 0194 00000000 		.word	ambient_red
 1200 0198 00000000 		.word	ambient_green
 1201 019c 84000000 		.word	.LC9
ARM GAS  C:\Users\bamcg3\AppData\Local\Temp\ccfmEsNg.s 			page 30


 1202 01a0 88000000 		.word	.LC10
 1203 01a4 8C000000 		.word	.LC11
 1204 01a8 00000000 		.word	output
 1205 01ac 90000000 		.word	.LC12
 1206 01b0 94000000 		.word	.LC13
 1207 01b4 7C000000 		.word	.LC7
 1208 01b8 A8000000 		.word	.LC14
 1209 01bc B0000000 		.word	.LC15
 1210 01c0 B8000000 		.word	.LC16
 1211              	.LBE4:
 1212              		.cfi_endproc
 1213              	.LFE71:
 1214              		.size	ColourOutput, .-ColourOutput
 1215              		.section	.text.ColourDebug,"ax",%progbits
 1216              		.align	2
 1217              		.global	ColourDebug
 1218              		.thumb
 1219              		.thumb_func
 1220              		.type	ColourDebug, %function
 1221              	ColourDebug:
 1222              	.LFB72:
 441:colour.c      ****         
 442:colour.c      ****     }
 443:colour.c      ****     
 444:colour.c      **** }
 445:colour.c      **** 
 446:colour.c      **** void ColourDebug(void){
 1223              		.loc 1 446 0
 1224              		.cfi_startproc
 1225              		@ args = 0, pretend = 0, frame = 0
 1226              		@ frame_needed = 0, uses_anonymous_args = 0
 1227 0000 70B5     		push	{r4, r5, r6, lr}
 1228              		.cfi_def_cfa_offset 16
 1229              		.cfi_offset 4, -16
 1230              		.cfi_offset 5, -12
 1231              		.cfi_offset 6, -8
 1232              		.cfi_offset 14, -4
 447:colour.c      ****     
 448:colour.c      ****     // FINAL PRINTING //
 449:colour.c      ****     
 450:colour.c      ****     if (test_red > test_blue && test_red > test_green)          // DETERMINING IF IT IS A RED PUCK
 1233              		.loc 1 450 0
 1234 0002 384B     		ldr	r3, .L88
 1235 0004 1D68     		ldr	r5, [r3]	@ float
 1236 0006 384B     		ldr	r3, .L88+4
 1237 0008 1C68     		ldr	r4, [r3]	@ float
 1238 000a 2146     		mov	r1, r4
 1239 000c 2846     		mov	r0, r5
 1240 000e FFF7FEFF 		bl	__aeabi_fcmpgt
 1241              	.LVL205:
 1242 0012 68B1     		cbz	r0, .L66
 1243              		.loc 1 450 0 is_stmt 0 discriminator 1
 1244 0014 354B     		ldr	r3, .L88+8
 1245 0016 1968     		ldr	r1, [r3]	@ float
 1246 0018 2846     		mov	r0, r5
 1247 001a FFF7FEFF 		bl	__aeabi_fcmpgt
 1248              	.LVL206:
ARM GAS  C:\Users\bamcg3\AppData\Local\Temp\ccfmEsNg.s 			page 31


 1249 001e 38B1     		cbz	r0, .L66
 451:colour.c      ****     {
 452:colour.c      ****         UART_1_PutString("R");       // RED puck                   
 1250              		.loc 1 452 0 is_stmt 1
 1251 0020 3348     		ldr	r0, .L88+12
 1252 0022 FFF7FEFF 		bl	UART_1_PutString
 1253              	.LVL207:
 453:colour.c      ****         puck_all[1]++;
 1254              		.loc 1 453 0
 1255 0026 334A     		ldr	r2, .L88+16
 1256 0028 5368     		ldr	r3, [r2, #4]
 1257 002a 0133     		adds	r3, r3, #1
 1258 002c 5360     		str	r3, [r2, #4]
 1259 002e 35E0     		b	.L69
 1260              	.L66:
 454:colour.c      ****     }
 455:colour.c      ****     else if (test_green > test_blue && ambient_red > ambient_white && test_green > ambient_green)  
 1261              		.loc 1 455 0
 1262 0030 2E4B     		ldr	r3, .L88+8
 1263 0032 1E68     		ldr	r6, [r3]	@ float
 1264 0034 3146     		mov	r1, r6
 1265 0036 2046     		mov	r0, r4
 1266 0038 FFF7FEFF 		bl	__aeabi_fcmplt
 1267              	.LVL208:
 1268 003c A0B1     		cbz	r0, .L70
 1269              		.loc 1 455 0 is_stmt 0 discriminator 1
 1270 003e 2E4B     		ldr	r3, .L88+20
 1271 0040 1968     		ldr	r1, [r3]	@ float
 1272 0042 2E4B     		ldr	r3, .L88+24
 1273 0044 1868     		ldr	r0, [r3]	@ float
 1274 0046 FFF7FEFF 		bl	__aeabi_fcmpgt
 1275              	.LVL209:
 1276 004a 68B1     		cbz	r0, .L70
 1277              		.loc 1 455 0 discriminator 2
 1278 004c 2C4B     		ldr	r3, .L88+28
 1279 004e 1968     		ldr	r1, [r3]	@ float
 1280 0050 3046     		mov	r0, r6
 1281 0052 FFF7FEFF 		bl	__aeabi_fcmpgt
 1282              	.LVL210:
 1283 0056 38B1     		cbz	r0, .L70
 456:colour.c      ****     {                                                           // This isn't full proof
 457:colour.c      ****         UART_1_PutString("G");      // GREEN puck
 1284              		.loc 1 457 0 is_stmt 1
 1285 0058 2A48     		ldr	r0, .L88+32
 1286 005a FFF7FEFF 		bl	UART_1_PutString
 1287              	.LVL211:
 458:colour.c      ****         puck_all[2]++;
 1288              		.loc 1 458 0
 1289 005e 254A     		ldr	r2, .L88+16
 1290 0060 9368     		ldr	r3, [r2, #8]
 1291 0062 0133     		adds	r3, r3, #1
 1292 0064 9360     		str	r3, [r2, #8]
 1293 0066 19E0     		b	.L69
 1294              	.L70:
 459:colour.c      ****     }
 460:colour.c      ****     else if (test_blue > test_green && test_red < ambient_red)
 1295              		.loc 1 460 0
ARM GAS  C:\Users\bamcg3\AppData\Local\Temp\ccfmEsNg.s 			page 32


 1296 0068 3146     		mov	r1, r6
 1297 006a 2046     		mov	r0, r4
 1298 006c FFF7FEFF 		bl	__aeabi_fcmpgt
 1299              	.LVL212:
 1300 0070 68B1     		cbz	r0, .L74
 1301              		.loc 1 460 0 is_stmt 0 discriminator 1
 1302 0072 224B     		ldr	r3, .L88+24
 1303 0074 1968     		ldr	r1, [r3]	@ float
 1304 0076 2846     		mov	r0, r5
 1305 0078 FFF7FEFF 		bl	__aeabi_fcmplt
 1306              	.LVL213:
 1307 007c 38B1     		cbz	r0, .L74
 461:colour.c      ****     {
 462:colour.c      ****         UART_1_PutString("B");      // BLUE puck
 1308              		.loc 1 462 0 is_stmt 1
 1309 007e 2248     		ldr	r0, .L88+36
 1310 0080 FFF7FEFF 		bl	UART_1_PutString
 1311              	.LVL214:
 463:colour.c      ****         puck_all[3]++;
 1312              		.loc 1 463 0
 1313 0084 1B4A     		ldr	r2, .L88+16
 1314 0086 D368     		ldr	r3, [r2, #12]
 1315 0088 0133     		adds	r3, r3, #1
 1316 008a D360     		str	r3, [r2, #12]
 1317 008c 06E0     		b	.L69
 1318              	.L74:
 464:colour.c      ****     }
 465:colour.c      ****     else 
 466:colour.c      ****     {
 467:colour.c      ****         UART_1_PutString("N");
 1319              		.loc 1 467 0
 1320 008e 1F48     		ldr	r0, .L88+40
 1321 0090 FFF7FEFF 		bl	UART_1_PutString
 1322              	.LVL215:
 468:colour.c      ****         puck_all[0]++;
 1323              		.loc 1 468 0
 1324 0094 174A     		ldr	r2, .L88+16
 1325 0096 1368     		ldr	r3, [r2]
 1326 0098 0133     		adds	r3, r3, #1
 1327 009a 1360     		str	r3, [r2]
 1328              	.L69:
 469:colour.c      ****     }
 470:colour.c      ****     
 471:colour.c      ****     puck_output++;
 1329              		.loc 1 471 0
 1330 009c 154A     		ldr	r2, .L88+16
 1331 009e 1369     		ldr	r3, [r2, #16]
 1332 00a0 0133     		adds	r3, r3, #1
 1333 00a2 1361     		str	r3, [r2, #16]
 472:colour.c      ****     
 473:colour.c      ****     // This next part outputs the number of times a certain puck was detected over the previous 10 
 474:colour.c      ****     if (puck_output == 10)
 1334              		.loc 1 474 0
 1335 00a4 0A2B     		cmp	r3, #10
 1336 00a6 1BD1     		bne	.L65
 475:colour.c      ****     {
 476:colour.c      ****         UART_1_PutString("\n");
ARM GAS  C:\Users\bamcg3\AppData\Local\Temp\ccfmEsNg.s 			page 33


 1337              		.loc 1 476 0
 1338 00a8 1948     		ldr	r0, .L88+44
 1339 00aa FFF7FEFF 		bl	UART_1_PutString
 1340              	.LVL216:
 1341              	.LBB8:
 477:colour.c      ****         for(int i = 0; i < 4; i++)
 1342              		.loc 1 477 0
 1343 00ae 0024     		movs	r4, #0
 1344 00b0 0EE0     		b	.L78
 1345              	.LVL217:
 1346              	.L79:
 478:colour.c      ****         {
 479:colour.c      ****             sprintf(output, "%i\t", puck_all[i]);      
 1347              		.loc 1 479 0 discriminator 3
 1348 00b2 104D     		ldr	r5, .L88+16
 1349 00b4 174E     		ldr	r6, .L88+48
 1350 00b6 55F82420 		ldr	r2, [r5, r4, lsl #2]
 1351 00ba 1749     		ldr	r1, .L88+52
 1352 00bc 3046     		mov	r0, r6
 1353 00be FFF7FEFF 		bl	sprintf
 1354              	.LVL218:
 480:colour.c      ****             UART_1_PutString(output);
 1355              		.loc 1 480 0 discriminator 3
 1356 00c2 3046     		mov	r0, r6
 1357 00c4 FFF7FEFF 		bl	UART_1_PutString
 1358              	.LVL219:
 481:colour.c      ****             puck_all[i] = 0;
 1359              		.loc 1 481 0 discriminator 3
 1360 00c8 0023     		movs	r3, #0
 1361 00ca 45F82430 		str	r3, [r5, r4, lsl #2]
 477:colour.c      ****         {
 1362              		.loc 1 477 0 discriminator 3
 1363 00ce 0134     		adds	r4, r4, #1
 1364              	.LVL220:
 1365              	.L78:
 477:colour.c      ****         {
 1366              		.loc 1 477 0 is_stmt 0 discriminator 1
 1367 00d0 032C     		cmp	r4, #3
 1368 00d2 EEDD     		ble	.L79
 1369              	.LBE8:
 482:colour.c      ****         }
 483:colour.c      ****         UART_1_PutString("\n");
 1370              		.loc 1 483 0 is_stmt 1
 1371 00d4 0E48     		ldr	r0, .L88+44
 1372 00d6 FFF7FEFF 		bl	UART_1_PutString
 1373              	.LVL221:
 484:colour.c      ****         puck_output = 0;
 1374              		.loc 1 484 0
 1375 00da 0022     		movs	r2, #0
 1376 00dc 054B     		ldr	r3, .L88+16
 1377 00de 1A61     		str	r2, [r3, #16]
 1378              	.LVL222:
 1379              	.L65:
 1380 00e0 70BD     		pop	{r4, r5, r6, pc}
 1381              	.L89:
 1382 00e2 00BF     		.align	2
 1383              	.L88:
ARM GAS  C:\Users\bamcg3\AppData\Local\Temp\ccfmEsNg.s 			page 34


 1384 00e4 00000000 		.word	test_red
 1385 00e8 00000000 		.word	test_blue
 1386 00ec 00000000 		.word	test_green
 1387 00f0 80000000 		.word	.LC8
 1388 00f4 00000000 		.word	.LANCHOR0
 1389 00f8 00000000 		.word	ambient_white
 1390 00fc 00000000 		.word	ambient_red
 1391 0100 00000000 		.word	ambient_green
 1392 0104 84000000 		.word	.LC9
 1393 0108 88000000 		.word	.LC10
 1394 010c 8C000000 		.word	.LC11
 1395 0110 7C000000 		.word	.LC7
 1396 0114 00000000 		.word	output
 1397 0118 90000000 		.word	.LC12
 1398              		.cfi_endproc
 1399              	.LFE72:
 1400              		.size	ColourDebug, .-ColourDebug
 1401              		.global	__aeabi_fadd
 1402              		.global	__aeabi_fdiv
 1403              		.section	.text.ColourSensingCalibrationRGB1,"ax",%progbits
 1404              		.align	2
 1405              		.global	ColourSensingCalibrationRGB1
 1406              		.thumb
 1407              		.thumb_func
 1408              		.type	ColourSensingCalibrationRGB1, %function
 1409              	ColourSensingCalibrationRGB1:
 1410              	.LFB73:
 485:colour.c      ****     }
 486:colour.c      ****     
 487:colour.c      ****     /*
 488:colour.c      ****     
 489:colour.c      ****     if (puck_output == 20)
 490:colour.c      ****     {
 491:colour.c      ****         int max = 0;
 492:colour.c      ****         int colour = 0;
 493:colour.c      ****         for (int i = 0; i < 4; i++)
 494:colour.c      ****         {
 495:colour.c      ****             if (puck_all[i] > max)
 496:colour.c      ****             {
 497:colour.c      ****                 max = puck_all[i];
 498:colour.c      ****                 colour = i;
 499:colour.c      ****                 sprintf(output, "%i\t", puck_all[i]);      
 500:colour.c      ****                 UART_1_PutString(output);
 501:colour.c      ****                 UART_1_PutString("\n");
 502:colour.c      ****                 
 503:colour.c      ****             }           
 504:colour.c      ****         }
 505:colour.c      ****         if (colour == 0)
 506:colour.c      ****         {
 507:colour.c      ****             UART_1_PutString("No puck detected\n");
 508:colour.c      ****         }
 509:colour.c      ****         else if (colour == 1)
 510:colour.c      ****         {
 511:colour.c      ****             UART_1_PutString("Red puck\n");    
 512:colour.c      ****         }
 513:colour.c      ****         else if (colour == 2)
 514:colour.c      ****         {
ARM GAS  C:\Users\bamcg3\AppData\Local\Temp\ccfmEsNg.s 			page 35


 515:colour.c      ****             UART_1_PutString("Green puck\n");    
 516:colour.c      ****         }
 517:colour.c      ****         else if (colour == 3)
 518:colour.c      ****         {
 519:colour.c      ****             UART_1_PutString("Blue puck\n");    
 520:colour.c      ****         }
 521:colour.c      ****         
 522:colour.c      ****         for (int i = 0; i < 4; i++) 
 523:colour.c      ****         {
 524:colour.c      ****             puck_all[i] = 0;                    // resets all the puck counts
 525:colour.c      ****         }
 526:colour.c      ****     }
 527:colour.c      ****     
 528:colour.c      ****     */
 529:colour.c      ****     
 530:colour.c      **** }
 531:colour.c      **** 
 532:colour.c      **** void ColourSensingCalibrationRGB1(void)
 533:colour.c      **** {
 1411              		.loc 1 533 0
 1412              		.cfi_startproc
 1413              		@ args = 0, pretend = 0, frame = 0
 1414              		@ frame_needed = 0, uses_anonymous_args = 0
 1415 0000 70B5     		push	{r4, r5, r6, lr}
 1416              		.cfi_def_cfa_offset 16
 1417              		.cfi_offset 4, -16
 1418              		.cfi_offset 5, -12
 1419              		.cfi_offset 6, -8
 1420              		.cfi_offset 14, -4
 534:colour.c      ****     // * Initialisation * //
 535:colour.c      ****     
 536:colour.c      ****     // Ambient Light:
 537:colour.c      ****     sum = 0;
 1421              		.loc 1 537 0
 1422 0002 0022     		movs	r2, #0
 1423 0004 654B     		ldr	r3, .L100
 1424 0006 5A61     		str	r2, [r3, #20]	@ float
 1425              	.LVL223:
 1426              	.LBB9:
 538:colour.c      ****         for(int i = 0; i < 10; i++)
 1427              		.loc 1 538 0
 1428 0008 0024     		movs	r4, #0
 1429 000a 0FE0     		b	.L91
 1430              	.LVL224:
 1431              	.L92:
 539:colour.c      ****             {
 540:colour.c      ****             stored[i] = ADC_Read32();
 1432              		.loc 1 540 0 discriminator 3
 1433 000c FFF7FEFF 		bl	ADC_Read32
 1434              	.LVL225:
 1435 0010 FFF7FEFF 		bl	__aeabi_i2f
 1436              	.LVL226:
 1437 0014 624B     		ldr	r3, .L100+4
 1438 0016 43F82400 		str	r0, [r3, r4, lsl #2]	@ float
 541:colour.c      ****             sum = sum + stored[i];
 1439              		.loc 1 541 0 discriminator 3
 1440 001a 604D     		ldr	r5, .L100
ARM GAS  C:\Users\bamcg3\AppData\Local\Temp\ccfmEsNg.s 			page 36


 1441 001c 6969     		ldr	r1, [r5, #20]	@ float
 1442 001e FFF7FEFF 		bl	__aeabi_fadd
 1443              	.LVL227:
 1444 0022 6861     		str	r0, [r5, #20]	@ float
 542:colour.c      ****             CyDelay(10);
 1445              		.loc 1 542 0 discriminator 3
 1446 0024 0A20     		movs	r0, #10
 1447 0026 FFF7FEFF 		bl	CyDelay
 1448              	.LVL228:
 538:colour.c      ****             {
 1449              		.loc 1 538 0 discriminator 3
 1450 002a 0134     		adds	r4, r4, #1
 1451              	.LVL229:
 1452              	.L91:
 538:colour.c      ****             {
 1453              		.loc 1 538 0 is_stmt 0 discriminator 1
 1454 002c 092C     		cmp	r4, #9
 1455 002e EDDD     		ble	.L92
 1456              	.LBE9:
 543:colour.c      ****             }
 544:colour.c      ****         ambient_white = sum/10;                    // will be the average of the ambient light volt
 1457              		.loc 1 544 0 is_stmt 1
 1458 0030 5A4C     		ldr	r4, .L100
 1459              	.LVL230:
 1460 0032 5C49     		ldr	r1, .L100+8
 1461 0034 6069     		ldr	r0, [r4, #20]	@ float
 1462 0036 FFF7FEFF 		bl	__aeabi_fdiv
 1463              	.LVL231:
 1464 003a 5B4B     		ldr	r3, .L100+12
 1465 003c 1860     		str	r0, [r3]	@ float
 545:colour.c      ****     
 546:colour.c      ****     CyDelay(20);
 1466              		.loc 1 546 0
 1467 003e 1420     		movs	r0, #20
 1468 0040 FFF7FEFF 		bl	CyDelay
 1469              	.LVL232:
 547:colour.c      ****     
 548:colour.c      ****     // Blue LED: 
 549:colour.c      ****     LED_Blue_Write(1);
 1470              		.loc 1 549 0
 1471 0044 0120     		movs	r0, #1
 1472 0046 FFF7FEFF 		bl	LED_Blue_Write
 1473              	.LVL233:
 550:colour.c      ****     sum = 0; 
 1474              		.loc 1 550 0
 1475 004a 0023     		movs	r3, #0
 1476 004c 6361     		str	r3, [r4, #20]	@ float
 1477              	.LVL234:
 1478              	.LBB10:
 551:colour.c      ****     for(int i = 0; i < 10; i++)
 1479              		.loc 1 551 0
 1480 004e 0024     		movs	r4, #0
 1481 0050 0FE0     		b	.L93
 1482              	.LVL235:
 1483              	.L94:
 552:colour.c      ****         {
 553:colour.c      ****         stored[i] = ADC_Read32();
ARM GAS  C:\Users\bamcg3\AppData\Local\Temp\ccfmEsNg.s 			page 37


 1484              		.loc 1 553 0 discriminator 3
 1485 0052 FFF7FEFF 		bl	ADC_Read32
 1486              	.LVL236:
 1487 0056 FFF7FEFF 		bl	__aeabi_i2f
 1488              	.LVL237:
 1489 005a 514B     		ldr	r3, .L100+4
 1490 005c 43F82400 		str	r0, [r3, r4, lsl #2]	@ float
 554:colour.c      ****         sum = sum + stored[i];
 1491              		.loc 1 554 0 discriminator 3
 1492 0060 4E4D     		ldr	r5, .L100
 1493 0062 6969     		ldr	r1, [r5, #20]	@ float
 1494 0064 FFF7FEFF 		bl	__aeabi_fadd
 1495              	.LVL238:
 1496 0068 6861     		str	r0, [r5, #20]	@ float
 555:colour.c      ****         CyDelay(10);
 1497              		.loc 1 555 0 discriminator 3
 1498 006a 0A20     		movs	r0, #10
 1499 006c FFF7FEFF 		bl	CyDelay
 1500              	.LVL239:
 551:colour.c      ****         {
 1501              		.loc 1 551 0 discriminator 3
 1502 0070 0134     		adds	r4, r4, #1
 1503              	.LVL240:
 1504              	.L93:
 551:colour.c      ****         {
 1505              		.loc 1 551 0 is_stmt 0 discriminator 1
 1506 0072 092C     		cmp	r4, #9
 1507 0074 EDDD     		ble	.L94
 1508              	.LBE10:
 556:colour.c      ****         }
 557:colour.c      ****     ambient_blue = sum/10;                    // will be the average of the ambient light voltages 
 1509              		.loc 1 557 0 is_stmt 1
 1510 0076 494C     		ldr	r4, .L100
 1511              	.LVL241:
 1512 0078 4A49     		ldr	r1, .L100+8
 1513 007a 6069     		ldr	r0, [r4, #20]	@ float
 1514 007c FFF7FEFF 		bl	__aeabi_fdiv
 1515              	.LVL242:
 1516 0080 4A4B     		ldr	r3, .L100+16
 1517 0082 1860     		str	r0, [r3]	@ float
 558:colour.c      ****     LED_Blue_Write(0);
 1518              		.loc 1 558 0
 1519 0084 0020     		movs	r0, #0
 1520 0086 FFF7FEFF 		bl	LED_Blue_Write
 1521              	.LVL243:
 559:colour.c      ****     
 560:colour.c      ****     CyDelay(20);
 1522              		.loc 1 560 0
 1523 008a 1420     		movs	r0, #20
 1524 008c FFF7FEFF 		bl	CyDelay
 1525              	.LVL244:
 561:colour.c      ****             
 562:colour.c      ****     // Red LED: 
 563:colour.c      ****     LED_Red_Write(1);
 1526              		.loc 1 563 0
 1527 0090 0120     		movs	r0, #1
 1528 0092 FFF7FEFF 		bl	LED_Red_Write
ARM GAS  C:\Users\bamcg3\AppData\Local\Temp\ccfmEsNg.s 			page 38


 1529              	.LVL245:
 564:colour.c      ****     sum = 0; 
 1530              		.loc 1 564 0
 1531 0096 0023     		movs	r3, #0
 1532 0098 6361     		str	r3, [r4, #20]	@ float
 1533              	.LVL246:
 1534              	.LBB11:
 565:colour.c      ****     for(int i = 0; i < 10; i++)
 1535              		.loc 1 565 0
 1536 009a 0024     		movs	r4, #0
 1537 009c 0FE0     		b	.L95
 1538              	.LVL247:
 1539              	.L96:
 566:colour.c      ****         {
 567:colour.c      ****         stored[i] = ADC_Read32();
 1540              		.loc 1 567 0 discriminator 3
 1541 009e FFF7FEFF 		bl	ADC_Read32
 1542              	.LVL248:
 1543 00a2 FFF7FEFF 		bl	__aeabi_i2f
 1544              	.LVL249:
 1545 00a6 3E4B     		ldr	r3, .L100+4
 1546 00a8 43F82400 		str	r0, [r3, r4, lsl #2]	@ float
 568:colour.c      ****         sum = sum + stored[i];
 1547              		.loc 1 568 0 discriminator 3
 1548 00ac 3B4D     		ldr	r5, .L100
 1549 00ae 6969     		ldr	r1, [r5, #20]	@ float
 1550 00b0 FFF7FEFF 		bl	__aeabi_fadd
 1551              	.LVL250:
 1552 00b4 6861     		str	r0, [r5, #20]	@ float
 569:colour.c      ****         CyDelay(10);
 1553              		.loc 1 569 0 discriminator 3
 1554 00b6 0A20     		movs	r0, #10
 1555 00b8 FFF7FEFF 		bl	CyDelay
 1556              	.LVL251:
 565:colour.c      ****         {
 1557              		.loc 1 565 0 discriminator 3
 1558 00bc 0134     		adds	r4, r4, #1
 1559              	.LVL252:
 1560              	.L95:
 565:colour.c      ****         {
 1561              		.loc 1 565 0 is_stmt 0 discriminator 1
 1562 00be 092C     		cmp	r4, #9
 1563 00c0 EDDD     		ble	.L96
 1564              	.LBE11:
 570:colour.c      ****         }
 571:colour.c      ****     ambient_red = sum/10;                    // will be the average of the ambient light voltages t
 1565              		.loc 1 571 0 is_stmt 1
 1566 00c2 364C     		ldr	r4, .L100
 1567              	.LVL253:
 1568 00c4 3749     		ldr	r1, .L100+8
 1569 00c6 6069     		ldr	r0, [r4, #20]	@ float
 1570 00c8 FFF7FEFF 		bl	__aeabi_fdiv
 1571              	.LVL254:
 1572 00cc 384B     		ldr	r3, .L100+20
 1573 00ce 1860     		str	r0, [r3]	@ float
 572:colour.c      ****     LED_Red_Write(0);
 1574              		.loc 1 572 0
ARM GAS  C:\Users\bamcg3\AppData\Local\Temp\ccfmEsNg.s 			page 39


 1575 00d0 0020     		movs	r0, #0
 1576 00d2 FFF7FEFF 		bl	LED_Red_Write
 1577              	.LVL255:
 573:colour.c      ****     
 574:colour.c      ****     CyDelay(20);        
 1578              		.loc 1 574 0
 1579 00d6 1420     		movs	r0, #20
 1580 00d8 FFF7FEFF 		bl	CyDelay
 1581              	.LVL256:
 575:colour.c      ****     
 576:colour.c      ****     // Green LED: 
 577:colour.c      ****     LED_Green_Write(1);
 1582              		.loc 1 577 0
 1583 00dc 0120     		movs	r0, #1
 1584 00de FFF7FEFF 		bl	LED_Green_Write
 1585              	.LVL257:
 578:colour.c      ****     sum = 0; 
 1586              		.loc 1 578 0
 1587 00e2 0023     		movs	r3, #0
 1588 00e4 6361     		str	r3, [r4, #20]	@ float
 1589              	.LVL258:
 1590              	.LBB12:
 579:colour.c      ****     for(int i = 0; i < 10; i++)
 1591              		.loc 1 579 0
 1592 00e6 0024     		movs	r4, #0
 1593 00e8 0FE0     		b	.L97
 1594              	.LVL259:
 1595              	.L98:
 580:colour.c      ****         {
 581:colour.c      ****         stored[i] = ADC_Read32();
 1596              		.loc 1 581 0 discriminator 3
 1597 00ea FFF7FEFF 		bl	ADC_Read32
 1598              	.LVL260:
 1599 00ee FFF7FEFF 		bl	__aeabi_i2f
 1600              	.LVL261:
 1601 00f2 2B4B     		ldr	r3, .L100+4
 1602 00f4 43F82400 		str	r0, [r3, r4, lsl #2]	@ float
 582:colour.c      ****         sum = sum + stored[i];
 1603              		.loc 1 582 0 discriminator 3
 1604 00f8 284D     		ldr	r5, .L100
 1605 00fa 6969     		ldr	r1, [r5, #20]	@ float
 1606 00fc FFF7FEFF 		bl	__aeabi_fadd
 1607              	.LVL262:
 1608 0100 6861     		str	r0, [r5, #20]	@ float
 583:colour.c      ****         CyDelay(10);
 1609              		.loc 1 583 0 discriminator 3
 1610 0102 0A20     		movs	r0, #10
 1611 0104 FFF7FEFF 		bl	CyDelay
 1612              	.LVL263:
 579:colour.c      ****         {
 1613              		.loc 1 579 0 discriminator 3
 1614 0108 0134     		adds	r4, r4, #1
 1615              	.LVL264:
 1616              	.L97:
 579:colour.c      ****         {
 1617              		.loc 1 579 0 is_stmt 0 discriminator 1
 1618 010a 092C     		cmp	r4, #9
ARM GAS  C:\Users\bamcg3\AppData\Local\Temp\ccfmEsNg.s 			page 40


 1619 010c EDDD     		ble	.L98
 1620              	.LBE12:
 584:colour.c      ****         }
 585:colour.c      ****     ambient_green = sum/10;                    // will be the average of the ambient light voltages
 1621              		.loc 1 585 0 is_stmt 1
 1622 010e 2549     		ldr	r1, .L100+8
 1623 0110 224B     		ldr	r3, .L100
 1624 0112 5869     		ldr	r0, [r3, #20]	@ float
 1625 0114 FFF7FEFF 		bl	__aeabi_fdiv
 1626              	.LVL265:
 1627 0118 264E     		ldr	r6, .L100+24
 1628 011a 3060     		str	r0, [r6]	@ float
 586:colour.c      ****     LED_Green_Write(0);
 1629              		.loc 1 586 0
 1630 011c 0020     		movs	r0, #0
 1631 011e FFF7FEFF 		bl	LED_Green_Write
 1632              	.LVL266:
 587:colour.c      ****     
 588:colour.c      ****     CyDelay(20);
 1633              		.loc 1 588 0
 1634 0122 1420     		movs	r0, #20
 1635 0124 FFF7FEFF 		bl	CyDelay
 1636              	.LVL267:
 589:colour.c      ****         
 590:colour.c      ****     
 591:colour.c      ****     // printing ambient colours:
 592:colour.c      ****     
 593:colour.c      ****     sprintf(output, "%f \t", ambient_white);       
 1637              		.loc 1 593 0
 1638 0128 1F4B     		ldr	r3, .L100+12
 1639 012a 1868     		ldr	r0, [r3]	@ float
 1640 012c FFF7FEFF 		bl	__aeabi_f2d
 1641              	.LVL268:
 1642 0130 214D     		ldr	r5, .L100+28
 1643 0132 224C     		ldr	r4, .L100+32
 1644              	.LVL269:
 1645 0134 0246     		mov	r2, r0
 1646 0136 0B46     		mov	r3, r1
 1647 0138 2946     		mov	r1, r5
 1648 013a 2046     		mov	r0, r4
 1649 013c FFF7FEFF 		bl	sprintf
 1650              	.LVL270:
 594:colour.c      ****     UART_1_PutString(output);
 1651              		.loc 1 594 0
 1652 0140 2046     		mov	r0, r4
 1653 0142 FFF7FEFF 		bl	UART_1_PutString
 1654              	.LVL271:
 595:colour.c      ****     
 596:colour.c      ****     
 597:colour.c      ****     sprintf(output, "%f \t", ambient_red);       
 1655              		.loc 1 597 0
 1656 0146 1A4B     		ldr	r3, .L100+20
 1657 0148 1868     		ldr	r0, [r3]	@ float
 1658 014a FFF7FEFF 		bl	__aeabi_f2d
 1659              	.LVL272:
 1660 014e 0246     		mov	r2, r0
 1661 0150 0B46     		mov	r3, r1
ARM GAS  C:\Users\bamcg3\AppData\Local\Temp\ccfmEsNg.s 			page 41


 1662 0152 2946     		mov	r1, r5
 1663 0154 2046     		mov	r0, r4
 1664 0156 FFF7FEFF 		bl	sprintf
 1665              	.LVL273:
 598:colour.c      ****     UART_1_PutString(output);
 1666              		.loc 1 598 0
 1667 015a 2046     		mov	r0, r4
 1668 015c FFF7FEFF 		bl	UART_1_PutString
 1669              	.LVL274:
 599:colour.c      ****     
 600:colour.c      ****     
 601:colour.c      ****     sprintf(output, "%f \t", ambient_green);       
 1670              		.loc 1 601 0
 1671 0160 3068     		ldr	r0, [r6]	@ float
 1672 0162 FFF7FEFF 		bl	__aeabi_f2d
 1673              	.LVL275:
 1674 0166 0246     		mov	r2, r0
 1675 0168 0B46     		mov	r3, r1
 1676 016a 2946     		mov	r1, r5
 1677 016c 2046     		mov	r0, r4
 1678 016e FFF7FEFF 		bl	sprintf
 1679              	.LVL276:
 602:colour.c      ****     UART_1_PutString(output);
 1680              		.loc 1 602 0
 1681 0172 2046     		mov	r0, r4
 1682 0174 FFF7FEFF 		bl	UART_1_PutString
 1683              	.LVL277:
 603:colour.c      ****     
 604:colour.c      ****     sprintf(output, "%f\t", ambient_blue);       
 1684              		.loc 1 604 0
 1685 0178 0C4B     		ldr	r3, .L100+16
 1686 017a 1868     		ldr	r0, [r3]	@ float
 1687 017c FFF7FEFF 		bl	__aeabi_f2d
 1688              	.LVL278:
 1689 0180 0246     		mov	r2, r0
 1690 0182 0B46     		mov	r3, r1
 1691 0184 0E49     		ldr	r1, .L100+36
 1692 0186 2046     		mov	r0, r4
 1693 0188 FFF7FEFF 		bl	sprintf
 1694              	.LVL279:
 605:colour.c      ****     UART_1_PutString(output);
 1695              		.loc 1 605 0
 1696 018c 2046     		mov	r0, r4
 1697 018e FFF7FEFF 		bl	UART_1_PutString
 1698              	.LVL280:
 606:colour.c      ****     UART_1_PutString("\n");
 1699              		.loc 1 606 0
 1700 0192 0C48     		ldr	r0, .L100+40
 1701 0194 FFF7FEFF 		bl	UART_1_PutString
 1702              	.LVL281:
 1703 0198 70BD     		pop	{r4, r5, r6, pc}
 1704              	.L101:
 1705 019a 00BF     		.align	2
 1706              	.L100:
 1707 019c 00000000 		.word	.LANCHOR0
 1708 01a0 00000000 		.word	stored
 1709 01a4 00002041 		.word	1092616192
ARM GAS  C:\Users\bamcg3\AppData\Local\Temp\ccfmEsNg.s 			page 42


 1710 01a8 00000000 		.word	ambient_white
 1711 01ac 00000000 		.word	ambient_blue
 1712 01b0 00000000 		.word	ambient_red
 1713 01b4 00000000 		.word	ambient_green
 1714 01b8 C0000000 		.word	.LC17
 1715 01bc 00000000 		.word	output
 1716 01c0 C8000000 		.word	.LC18
 1717 01c4 7C000000 		.word	.LC7
 1718              		.cfi_endproc
 1719              	.LFE73:
 1720              		.size	ColourSensingCalibrationRGB1, .-ColourSensingCalibrationRGB1
 1721              		.section	.text.ColourSensingCalibrationRGB2,"ax",%progbits
 1722              		.align	2
 1723              		.global	ColourSensingCalibrationRGB2
 1724              		.thumb
 1725              		.thumb_func
 1726              		.type	ColourSensingCalibrationRGB2, %function
 1727              	ColourSensingCalibrationRGB2:
 1728              	.LFB74:
 607:colour.c      ****     
 608:colour.c      ****     //UART_1_PutString("\n\n");
 609:colour.c      ****     
 610:colour.c      ****     
 611:colour.c      ****     
 612:colour.c      **** }
 613:colour.c      **** 
 614:colour.c      **** void ColourSensingCalibrationRGB2(void)
 615:colour.c      **** {
 1729              		.loc 1 615 0
 1730              		.cfi_startproc
 1731              		@ args = 0, pretend = 0, frame = 0
 1732              		@ frame_needed = 0, uses_anonymous_args = 0
 1733 0000 70B5     		push	{r4, r5, r6, lr}
 1734              		.cfi_def_cfa_offset 16
 1735              		.cfi_offset 4, -16
 1736              		.cfi_offset 5, -12
 1737              		.cfi_offset 6, -8
 1738              		.cfi_offset 14, -4
 616:colour.c      ****     // * Initialisation * //
 617:colour.c      ****     
 618:colour.c      ****     // Ambient Light:
 619:colour.c      ****     sum = 0;
 1739              		.loc 1 619 0
 1740 0002 0022     		movs	r2, #0
 1741 0004 654B     		ldr	r3, .L112
 1742 0006 5A61     		str	r2, [r3, #20]	@ float
 1743              	.LVL282:
 1744              	.LBB13:
 620:colour.c      ****         for(int i = 0; i < 10; i++)
 1745              		.loc 1 620 0
 1746 0008 0024     		movs	r4, #0
 1747 000a 0FE0     		b	.L103
 1748              	.LVL283:
 1749              	.L104:
 621:colour.c      ****             {
 622:colour.c      ****             stored[i] = ADC_Read32();
 1750              		.loc 1 622 0 discriminator 3
ARM GAS  C:\Users\bamcg3\AppData\Local\Temp\ccfmEsNg.s 			page 43


 1751 000c FFF7FEFF 		bl	ADC_Read32
 1752              	.LVL284:
 1753 0010 FFF7FEFF 		bl	__aeabi_i2f
 1754              	.LVL285:
 1755 0014 624B     		ldr	r3, .L112+4
 1756 0016 43F82400 		str	r0, [r3, r4, lsl #2]	@ float
 623:colour.c      ****             sum = sum + stored[i];
 1757              		.loc 1 623 0 discriminator 3
 1758 001a 604D     		ldr	r5, .L112
 1759 001c 6969     		ldr	r1, [r5, #20]	@ float
 1760 001e FFF7FEFF 		bl	__aeabi_fadd
 1761              	.LVL286:
 1762 0022 6861     		str	r0, [r5, #20]	@ float
 624:colour.c      ****             CyDelay(10);
 1763              		.loc 1 624 0 discriminator 3
 1764 0024 0A20     		movs	r0, #10
 1765 0026 FFF7FEFF 		bl	CyDelay
 1766              	.LVL287:
 620:colour.c      ****             {
 1767              		.loc 1 620 0 discriminator 3
 1768 002a 0134     		adds	r4, r4, #1
 1769              	.LVL288:
 1770              	.L103:
 620:colour.c      ****             {
 1771              		.loc 1 620 0 is_stmt 0 discriminator 1
 1772 002c 092C     		cmp	r4, #9
 1773 002e EDDD     		ble	.L104
 1774              	.LBE13:
 625:colour.c      ****             }
 626:colour.c      ****         ambient_white = sum/10;                    // will be the average of the ambient light volt
 1775              		.loc 1 626 0 is_stmt 1
 1776 0030 5A4C     		ldr	r4, .L112
 1777              	.LVL289:
 1778 0032 5C49     		ldr	r1, .L112+8
 1779 0034 6069     		ldr	r0, [r4, #20]	@ float
 1780 0036 FFF7FEFF 		bl	__aeabi_fdiv
 1781              	.LVL290:
 1782 003a 5B4B     		ldr	r3, .L112+12
 1783 003c 1860     		str	r0, [r3]	@ float
 627:colour.c      ****     
 628:colour.c      ****     CyDelay(20);
 1784              		.loc 1 628 0
 1785 003e 1420     		movs	r0, #20
 1786 0040 FFF7FEFF 		bl	CyDelay
 1787              	.LVL291:
 629:colour.c      ****     
 630:colour.c      ****     // Blue LED: 
 631:colour.c      ****     RGB_Blue_Write(0);
 1788              		.loc 1 631 0
 1789 0044 0020     		movs	r0, #0
 1790 0046 FFF7FEFF 		bl	RGB_Blue_Write
 1791              	.LVL292:
 632:colour.c      ****     sum = 0; 
 1792              		.loc 1 632 0
 1793 004a 0023     		movs	r3, #0
 1794 004c 6361     		str	r3, [r4, #20]	@ float
 1795              	.LVL293:
ARM GAS  C:\Users\bamcg3\AppData\Local\Temp\ccfmEsNg.s 			page 44


 1796              	.LBB14:
 633:colour.c      ****     for(int i = 0; i < 10; i++)
 1797              		.loc 1 633 0
 1798 004e 0024     		movs	r4, #0
 1799 0050 0FE0     		b	.L105
 1800              	.LVL294:
 1801              	.L106:
 634:colour.c      ****         {
 635:colour.c      ****         stored[i] = ADC_Read32();
 1802              		.loc 1 635 0 discriminator 3
 1803 0052 FFF7FEFF 		bl	ADC_Read32
 1804              	.LVL295:
 1805 0056 FFF7FEFF 		bl	__aeabi_i2f
 1806              	.LVL296:
 1807 005a 514B     		ldr	r3, .L112+4
 1808 005c 43F82400 		str	r0, [r3, r4, lsl #2]	@ float
 636:colour.c      ****         sum = sum + stored[i];
 1809              		.loc 1 636 0 discriminator 3
 1810 0060 4E4D     		ldr	r5, .L112
 1811 0062 6969     		ldr	r1, [r5, #20]	@ float
 1812 0064 FFF7FEFF 		bl	__aeabi_fadd
 1813              	.LVL297:
 1814 0068 6861     		str	r0, [r5, #20]	@ float
 637:colour.c      ****         CyDelay(10);
 1815              		.loc 1 637 0 discriminator 3
 1816 006a 0A20     		movs	r0, #10
 1817 006c FFF7FEFF 		bl	CyDelay
 1818              	.LVL298:
 633:colour.c      ****         {
 1819              		.loc 1 633 0 discriminator 3
 1820 0070 0134     		adds	r4, r4, #1
 1821              	.LVL299:
 1822              	.L105:
 633:colour.c      ****         {
 1823              		.loc 1 633 0 is_stmt 0 discriminator 1
 1824 0072 092C     		cmp	r4, #9
 1825 0074 EDDD     		ble	.L106
 1826              	.LBE14:
 638:colour.c      ****         }
 639:colour.c      ****     ambient_blue = sum/10;                    // will be the average of the ambient light voltages 
 1827              		.loc 1 639 0 is_stmt 1
 1828 0076 494C     		ldr	r4, .L112
 1829              	.LVL300:
 1830 0078 4A49     		ldr	r1, .L112+8
 1831 007a 6069     		ldr	r0, [r4, #20]	@ float
 1832 007c FFF7FEFF 		bl	__aeabi_fdiv
 1833              	.LVL301:
 1834 0080 4A4B     		ldr	r3, .L112+16
 1835 0082 1860     		str	r0, [r3]	@ float
 640:colour.c      ****     RGB_Blue_Write(1);
 1836              		.loc 1 640 0
 1837 0084 0120     		movs	r0, #1
 1838 0086 FFF7FEFF 		bl	RGB_Blue_Write
 1839              	.LVL302:
 641:colour.c      ****     
 642:colour.c      ****     CyDelay(20);
 1840              		.loc 1 642 0
ARM GAS  C:\Users\bamcg3\AppData\Local\Temp\ccfmEsNg.s 			page 45


 1841 008a 1420     		movs	r0, #20
 1842 008c FFF7FEFF 		bl	CyDelay
 1843              	.LVL303:
 643:colour.c      ****             
 644:colour.c      ****     // Red LED: 
 645:colour.c      ****     RGB_Red_Write(0);
 1844              		.loc 1 645 0
 1845 0090 0020     		movs	r0, #0
 1846 0092 FFF7FEFF 		bl	RGB_Red_Write
 1847              	.LVL304:
 646:colour.c      ****     sum = 0; 
 1848              		.loc 1 646 0
 1849 0096 0023     		movs	r3, #0
 1850 0098 6361     		str	r3, [r4, #20]	@ float
 1851              	.LVL305:
 1852              	.LBB15:
 647:colour.c      ****     for(int i = 0; i < 10; i++)
 1853              		.loc 1 647 0
 1854 009a 0024     		movs	r4, #0
 1855 009c 0FE0     		b	.L107
 1856              	.LVL306:
 1857              	.L108:
 648:colour.c      ****         {
 649:colour.c      ****         stored[i] = ADC_Read32();
 1858              		.loc 1 649 0 discriminator 3
 1859 009e FFF7FEFF 		bl	ADC_Read32
 1860              	.LVL307:
 1861 00a2 FFF7FEFF 		bl	__aeabi_i2f
 1862              	.LVL308:
 1863 00a6 3E4B     		ldr	r3, .L112+4
 1864 00a8 43F82400 		str	r0, [r3, r4, lsl #2]	@ float
 650:colour.c      ****         sum = sum + stored[i];
 1865              		.loc 1 650 0 discriminator 3
 1866 00ac 3B4D     		ldr	r5, .L112
 1867 00ae 6969     		ldr	r1, [r5, #20]	@ float
 1868 00b0 FFF7FEFF 		bl	__aeabi_fadd
 1869              	.LVL309:
 1870 00b4 6861     		str	r0, [r5, #20]	@ float
 651:colour.c      ****         CyDelay(10);
 1871              		.loc 1 651 0 discriminator 3
 1872 00b6 0A20     		movs	r0, #10
 1873 00b8 FFF7FEFF 		bl	CyDelay
 1874              	.LVL310:
 647:colour.c      ****         {
 1875              		.loc 1 647 0 discriminator 3
 1876 00bc 0134     		adds	r4, r4, #1
 1877              	.LVL311:
 1878              	.L107:
 647:colour.c      ****         {
 1879              		.loc 1 647 0 is_stmt 0 discriminator 1
 1880 00be 092C     		cmp	r4, #9
 1881 00c0 EDDD     		ble	.L108
 1882              	.LBE15:
 652:colour.c      ****         }
 653:colour.c      ****     ambient_red = sum/10;                    // will be the average of the ambient light voltages t
 1883              		.loc 1 653 0 is_stmt 1
 1884 00c2 364C     		ldr	r4, .L112
ARM GAS  C:\Users\bamcg3\AppData\Local\Temp\ccfmEsNg.s 			page 46


 1885              	.LVL312:
 1886 00c4 3749     		ldr	r1, .L112+8
 1887 00c6 6069     		ldr	r0, [r4, #20]	@ float
 1888 00c8 FFF7FEFF 		bl	__aeabi_fdiv
 1889              	.LVL313:
 1890 00cc 384B     		ldr	r3, .L112+20
 1891 00ce 1860     		str	r0, [r3]	@ float
 654:colour.c      ****     RGB_Red_Write(1);
 1892              		.loc 1 654 0
 1893 00d0 0120     		movs	r0, #1
 1894 00d2 FFF7FEFF 		bl	RGB_Red_Write
 1895              	.LVL314:
 655:colour.c      ****     
 656:colour.c      ****     CyDelay(20);        
 1896              		.loc 1 656 0
 1897 00d6 1420     		movs	r0, #20
 1898 00d8 FFF7FEFF 		bl	CyDelay
 1899              	.LVL315:
 657:colour.c      ****     
 658:colour.c      ****     // Green LED: 
 659:colour.c      ****     RGB_Green_Write(0);
 1900              		.loc 1 659 0
 1901 00dc 0020     		movs	r0, #0
 1902 00de FFF7FEFF 		bl	RGB_Green_Write
 1903              	.LVL316:
 660:colour.c      ****     sum = 0; 
 1904              		.loc 1 660 0
 1905 00e2 0023     		movs	r3, #0
 1906 00e4 6361     		str	r3, [r4, #20]	@ float
 1907              	.LVL317:
 1908              	.LBB16:
 661:colour.c      ****     for(int i = 0; i < 10; i++)
 1909              		.loc 1 661 0
 1910 00e6 0024     		movs	r4, #0
 1911 00e8 0FE0     		b	.L109
 1912              	.LVL318:
 1913              	.L110:
 662:colour.c      ****         {
 663:colour.c      ****         stored[i] = ADC_Read32();
 1914              		.loc 1 663 0 discriminator 3
 1915 00ea FFF7FEFF 		bl	ADC_Read32
 1916              	.LVL319:
 1917 00ee FFF7FEFF 		bl	__aeabi_i2f
 1918              	.LVL320:
 1919 00f2 2B4B     		ldr	r3, .L112+4
 1920 00f4 43F82400 		str	r0, [r3, r4, lsl #2]	@ float
 664:colour.c      ****         sum = sum + stored[i];
 1921              		.loc 1 664 0 discriminator 3
 1922 00f8 284D     		ldr	r5, .L112
 1923 00fa 6969     		ldr	r1, [r5, #20]	@ float
 1924 00fc FFF7FEFF 		bl	__aeabi_fadd
 1925              	.LVL321:
 1926 0100 6861     		str	r0, [r5, #20]	@ float
 665:colour.c      ****         CyDelay(10);
 1927              		.loc 1 665 0 discriminator 3
 1928 0102 0A20     		movs	r0, #10
 1929 0104 FFF7FEFF 		bl	CyDelay
ARM GAS  C:\Users\bamcg3\AppData\Local\Temp\ccfmEsNg.s 			page 47


 1930              	.LVL322:
 661:colour.c      ****         {
 1931              		.loc 1 661 0 discriminator 3
 1932 0108 0134     		adds	r4, r4, #1
 1933              	.LVL323:
 1934              	.L109:
 661:colour.c      ****         {
 1935              		.loc 1 661 0 is_stmt 0 discriminator 1
 1936 010a 092C     		cmp	r4, #9
 1937 010c EDDD     		ble	.L110
 1938              	.LBE16:
 666:colour.c      ****         }
 667:colour.c      ****     ambient_green = sum/10;                    // will be the average of the ambient light voltages
 1939              		.loc 1 667 0 is_stmt 1
 1940 010e 2549     		ldr	r1, .L112+8
 1941 0110 224B     		ldr	r3, .L112
 1942 0112 5869     		ldr	r0, [r3, #20]	@ float
 1943 0114 FFF7FEFF 		bl	__aeabi_fdiv
 1944              	.LVL324:
 1945 0118 264E     		ldr	r6, .L112+24
 1946 011a 3060     		str	r0, [r6]	@ float
 668:colour.c      ****     RGB_Green_Write(1);
 1947              		.loc 1 668 0
 1948 011c 0120     		movs	r0, #1
 1949 011e FFF7FEFF 		bl	RGB_Green_Write
 1950              	.LVL325:
 669:colour.c      ****     
 670:colour.c      ****     CyDelay(20);
 1951              		.loc 1 670 0
 1952 0122 1420     		movs	r0, #20
 1953 0124 FFF7FEFF 		bl	CyDelay
 1954              	.LVL326:
 671:colour.c      ****         
 672:colour.c      ****     
 673:colour.c      ****     // printing ambient colours:
 674:colour.c      ****     
 675:colour.c      ****     sprintf(output, "%f \t", ambient_white);       
 1955              		.loc 1 675 0
 1956 0128 1F4B     		ldr	r3, .L112+12
 1957 012a 1868     		ldr	r0, [r3]	@ float
 1958 012c FFF7FEFF 		bl	__aeabi_f2d
 1959              	.LVL327:
 1960 0130 214D     		ldr	r5, .L112+28
 1961 0132 224C     		ldr	r4, .L112+32
 1962              	.LVL328:
 1963 0134 0246     		mov	r2, r0
 1964 0136 0B46     		mov	r3, r1
 1965 0138 2946     		mov	r1, r5
 1966 013a 2046     		mov	r0, r4
 1967 013c FFF7FEFF 		bl	sprintf
 1968              	.LVL329:
 676:colour.c      ****     UART_1_PutString(output);
 1969              		.loc 1 676 0
 1970 0140 2046     		mov	r0, r4
 1971 0142 FFF7FEFF 		bl	UART_1_PutString
 1972              	.LVL330:
 677:colour.c      ****     
ARM GAS  C:\Users\bamcg3\AppData\Local\Temp\ccfmEsNg.s 			page 48


 678:colour.c      ****     
 679:colour.c      ****     sprintf(output, "%f \t", ambient_red);       
 1973              		.loc 1 679 0
 1974 0146 1A4B     		ldr	r3, .L112+20
 1975 0148 1868     		ldr	r0, [r3]	@ float
 1976 014a FFF7FEFF 		bl	__aeabi_f2d
 1977              	.LVL331:
 1978 014e 0246     		mov	r2, r0
 1979 0150 0B46     		mov	r3, r1
 1980 0152 2946     		mov	r1, r5
 1981 0154 2046     		mov	r0, r4
 1982 0156 FFF7FEFF 		bl	sprintf
 1983              	.LVL332:
 680:colour.c      ****     UART_1_PutString(output);
 1984              		.loc 1 680 0
 1985 015a 2046     		mov	r0, r4
 1986 015c FFF7FEFF 		bl	UART_1_PutString
 1987              	.LVL333:
 681:colour.c      ****     
 682:colour.c      ****     
 683:colour.c      ****     sprintf(output, "%f \t", ambient_green);       
 1988              		.loc 1 683 0
 1989 0160 3068     		ldr	r0, [r6]	@ float
 1990 0162 FFF7FEFF 		bl	__aeabi_f2d
 1991              	.LVL334:
 1992 0166 0246     		mov	r2, r0
 1993 0168 0B46     		mov	r3, r1
 1994 016a 2946     		mov	r1, r5
 1995 016c 2046     		mov	r0, r4
 1996 016e FFF7FEFF 		bl	sprintf
 1997              	.LVL335:
 684:colour.c      ****     UART_1_PutString(output);
 1998              		.loc 1 684 0
 1999 0172 2046     		mov	r0, r4
 2000 0174 FFF7FEFF 		bl	UART_1_PutString
 2001              	.LVL336:
 685:colour.c      ****     
 686:colour.c      ****     sprintf(output, "%f\t", ambient_blue);       
 2002              		.loc 1 686 0
 2003 0178 0C4B     		ldr	r3, .L112+16
 2004 017a 1868     		ldr	r0, [r3]	@ float
 2005 017c FFF7FEFF 		bl	__aeabi_f2d
 2006              	.LVL337:
 2007 0180 0246     		mov	r2, r0
 2008 0182 0B46     		mov	r3, r1
 2009 0184 0E49     		ldr	r1, .L112+36
 2010 0186 2046     		mov	r0, r4
 2011 0188 FFF7FEFF 		bl	sprintf
 2012              	.LVL338:
 687:colour.c      ****     UART_1_PutString(output);
 2013              		.loc 1 687 0
 2014 018c 2046     		mov	r0, r4
 2015 018e FFF7FEFF 		bl	UART_1_PutString
 2016              	.LVL339:
 688:colour.c      ****     UART_1_PutString("\n");
 2017              		.loc 1 688 0
 2018 0192 0C48     		ldr	r0, .L112+40
ARM GAS  C:\Users\bamcg3\AppData\Local\Temp\ccfmEsNg.s 			page 49


 2019 0194 FFF7FEFF 		bl	UART_1_PutString
 2020              	.LVL340:
 2021 0198 70BD     		pop	{r4, r5, r6, pc}
 2022              	.L113:
 2023 019a 00BF     		.align	2
 2024              	.L112:
 2025 019c 00000000 		.word	.LANCHOR0
 2026 01a0 00000000 		.word	stored
 2027 01a4 00002041 		.word	1092616192
 2028 01a8 00000000 		.word	ambient_white
 2029 01ac 00000000 		.word	ambient_blue
 2030 01b0 00000000 		.word	ambient_red
 2031 01b4 00000000 		.word	ambient_green
 2032 01b8 C0000000 		.word	.LC17
 2033 01bc 00000000 		.word	output
 2034 01c0 C8000000 		.word	.LC18
 2035 01c4 7C000000 		.word	.LC7
 2036              		.cfi_endproc
 2037              	.LFE74:
 2038              		.size	ColourSensingCalibrationRGB2, .-ColourSensingCalibrationRGB2
 2039              		.section	.text.redDetection,"ax",%progbits
 2040              		.align	2
 2041              		.global	redDetection
 2042              		.thumb
 2043              		.thumb_func
 2044              		.type	redDetection, %function
 2045              	redDetection:
 2046              	.LFB75:
 689:colour.c      ****     
 690:colour.c      ****     //UART_1_PutString("\n\n");
 691:colour.c      ****     
 692:colour.c      ****     
 693:colour.c      ****     
 694:colour.c      **** }
 695:colour.c      **** 
 696:colour.c      **** int redDetection(void)
 697:colour.c      **** {
 2047              		.loc 1 697 0
 2048              		.cfi_startproc
 2049              		@ args = 0, pretend = 0, frame = 16
 2050              		@ frame_needed = 0, uses_anonymous_args = 0
 2051 0000 30B5     		push	{r4, r5, lr}
 2052              		.cfi_def_cfa_offset 12
 2053              		.cfi_offset 4, -12
 2054              		.cfi_offset 5, -8
 2055              		.cfi_offset 14, -4
 2056 0002 85B0     		sub	sp, sp, #20
 2057              		.cfi_def_cfa_offset 32
 698:colour.c      ****     
 699:colour.c      ****     PWM_colour_Wakeup();                    // Wakes PWM up from sleep
 2058              		.loc 1 699 0
 2059 0004 FFF7FEFF 		bl	PWM_colour_Wakeup
 2060              	.LVL341:
 700:colour.c      ****     PWM_colour_WriteCompare(255);           // ensures the PWM is driving a continuous pulse
 2061              		.loc 1 700 0
 2062 0008 FF20     		movs	r0, #255
 2063 000a FFF7FEFF 		bl	PWM_colour_WriteCompare
ARM GAS  C:\Users\bamcg3\AppData\Local\Temp\ccfmEsNg.s 			page 50


 2064              	.LVL342:
 701:colour.c      ****     
 702:colour.c      ****     float test[4] = {0, 0, 0, 0};           // resets the test array to 0
 2065              		.loc 1 702 0
 2066 000e 0024     		movs	r4, #0
 2067 0010 0094     		str	r4, [sp]
 2068 0012 0194     		str	r4, [sp, #4]
 2069 0014 0294     		str	r4, [sp, #8]
 2070 0016 0394     		str	r4, [sp, #12]
 2071              	.LVL343:
 2072              	.LBB17:
 703:colour.c      ****                                             // this may not be necessary 
 704:colour.c      ****    
 705:colour.c      ****     for (int i = 0; i < 4; i++) 
 2073              		.loc 1 705 0
 2074 0018 18E0     		b	.L115
 2075              	.LVL344:
 2076              	.L116:
 706:colour.c      ****     {
 707:colour.c      ****         CyDelay(10);
 2077              		.loc 1 707 0 discriminator 3
 2078 001a 0A20     		movs	r0, #10
 2079 001c FFF7FEFF 		bl	CyDelay
 2080              	.LVL345:
 708:colour.c      ****         control_led_Write(i);
 2081              		.loc 1 708 0 discriminator 3
 2082 0020 E0B2     		uxtb	r0, r4
 2083 0022 FFF7FEFF 		bl	control_led_Write
 2084              	.LVL346:
 709:colour.c      ****         test[i] = ADC_Read32();             // Grabs the value and places it in the test array
 2085              		.loc 1 709 0 discriminator 3
 2086 0026 FFF7FEFF 		bl	ADC_Read32
 2087              	.LVL347:
 2088 002a 04AB     		add	r3, sp, #16
 2089 002c 03EB8405 		add	r5, r3, r4, lsl #2
 2090 0030 FFF7FEFF 		bl	__aeabi_i2f
 2091              	.LVL348:
 2092 0034 45F8100C 		str	r0, [r5, #-16]	@ float
 710:colour.c      ****         CyDelay(10);
 2093              		.loc 1 710 0 discriminator 3
 2094 0038 0A20     		movs	r0, #10
 2095 003a FFF7FEFF 		bl	CyDelay
 2096              	.LVL349:
 711:colour.c      ****         control_led_Write(0);            // Turns the LED off
 2097              		.loc 1 711 0 discriminator 3
 2098 003e 0020     		movs	r0, #0
 2099 0040 FFF7FEFF 		bl	control_led_Write
 2100              	.LVL350:
 712:colour.c      ****         CyDelay(20);
 2101              		.loc 1 712 0 discriminator 3
 2102 0044 1420     		movs	r0, #20
 2103 0046 FFF7FEFF 		bl	CyDelay
 2104              	.LVL351:
 705:colour.c      ****     {
 2105              		.loc 1 705 0 discriminator 3
 2106 004a 0134     		adds	r4, r4, #1
 2107              	.LVL352:
ARM GAS  C:\Users\bamcg3\AppData\Local\Temp\ccfmEsNg.s 			page 51


 2108              	.L115:
 705:colour.c      ****     {
 2109              		.loc 1 705 0 is_stmt 0 discriminator 1
 2110 004c 032C     		cmp	r4, #3
 2111 004e E4DD     		ble	.L116
 2112              	.LBE17:
 713:colour.c      ****     }
 714:colour.c      ****     
 715:colour.c      ****     test_white = test[0];
 2113              		.loc 1 715 0 is_stmt 1
 2114 0050 114B     		ldr	r3, .L124
 2115 0052 009A     		ldr	r2, [sp]	@ float
 2116 0054 1A60     		str	r2, [r3]	@ float
 716:colour.c      ****     test_red = test[1];
 2117              		.loc 1 716 0
 2118 0056 114D     		ldr	r5, .L124+4
 2119 0058 019B     		ldr	r3, [sp, #4]	@ float
 2120 005a 2B60     		str	r3, [r5]	@ float
 717:colour.c      ****     test_green = test[2];
 2121              		.loc 1 717 0
 2122 005c 104B     		ldr	r3, .L124+8
 2123 005e 029A     		ldr	r2, [sp, #8]	@ float
 2124 0060 1A60     		str	r2, [r3]	@ float
 718:colour.c      ****     test_blue = test[3];   
 2125              		.loc 1 718 0
 2126 0062 104C     		ldr	r4, .L124+12
 2127              	.LVL353:
 2128 0064 039B     		ldr	r3, [sp, #12]	@ float
 2129 0066 2360     		str	r3, [r4]	@ float
 719:colour.c      ****     
 720:colour.c      ****     PWM_colour_WriteCompare(10);            // sets back to initial pulse
 2130              		.loc 1 720 0
 2131 0068 0A20     		movs	r0, #10
 2132 006a FFF7FEFF 		bl	PWM_colour_WriteCompare
 2133              	.LVL354:
 721:colour.c      ****     PWM_colour_Sleep();                     // Sets PWM back to sleep
 2134              		.loc 1 721 0
 2135 006e FFF7FEFF 		bl	PWM_colour_Sleep
 2136              	.LVL355:
 722:colour.c      ****     
 723:colour.c      ****     if (test_red > test_blue && test_red > test_green)          // DETERMINING IF IT IS A RED PUCK
 2137              		.loc 1 723 0
 2138 0072 2D68     		ldr	r5, [r5]	@ float
 2139 0074 2168     		ldr	r1, [r4]	@ float
 2140 0076 2846     		mov	r0, r5
 2141 0078 FFF7FEFF 		bl	__aeabi_fcmpgt
 2142              	.LVL356:
 2143 007c 30B1     		cbz	r0, .L122
 2144              		.loc 1 723 0 is_stmt 0 discriminator 1
 2145 007e 084B     		ldr	r3, .L124+8
 2146 0080 1968     		ldr	r1, [r3]	@ float
 2147 0082 2846     		mov	r0, r5
 2148 0084 FFF7FEFF 		bl	__aeabi_fcmpgt
 2149              	.LVL357:
 2150 0088 10B9     		cbnz	r0, .L120
 2151 008a 02E0     		b	.L117
 2152              	.L122:
ARM GAS  C:\Users\bamcg3\AppData\Local\Temp\ccfmEsNg.s 			page 52


 724:colour.c      ****     {
 725:colour.c      ****         return 1;       
 726:colour.c      ****     }    
 727:colour.c      ****     return 0; 
 2153              		.loc 1 727 0 is_stmt 1
 2154 008c 0020     		movs	r0, #0
 2155 008e 00E0     		b	.L117
 2156              	.L120:
 725:colour.c      ****     }    
 2157              		.loc 1 725 0
 2158 0090 0120     		movs	r0, #1
 2159              	.L117:
 728:colour.c      **** }
 2160              		.loc 1 728 0
 2161 0092 05B0     		add	sp, sp, #20
 2162              		.cfi_def_cfa_offset 12
 2163              		@ sp needed
 2164 0094 30BD     		pop	{r4, r5, pc}
 2165              	.L125:
 2166 0096 00BF     		.align	2
 2167              	.L124:
 2168 0098 00000000 		.word	test_white
 2169 009c 00000000 		.word	test_red
 2170 00a0 00000000 		.word	test_green
 2171 00a4 00000000 		.word	test_blue
 2172              		.cfi_endproc
 2173              	.LFE75:
 2174              		.size	redDetection, .-redDetection
 2175              		.comm	colour_output,4,4
 2176              		.global	puck_output
 2177              		.global	puck_all
 2178              		.comm	test_blue,4,4
 2179              		.comm	test_green,4,4
 2180              		.comm	test_red,4,4
 2181              		.comm	test_white,4,4
 2182              		.comm	ambient_blue,4,4
 2183              		.comm	ambient_green,4,4
 2184              		.comm	ambient_red,4,4
 2185              		.comm	ambient_white,4,4
 2186              		.comm	ambient_current,4,4
 2187              		.comm	output,32,4
 2188              		.global	sum
 2189              		.comm	stored,36,4
 2190              		.comm	input_current,4,4
 2191              		.comm	pd_voltage,4,4
 2192              		.global	trans
 2193              		.section	.rodata
 2194              		.align	2
 2195              		.type	trans, %object
 2196              		.size	trans, 4
 2197              	trans:
 2198 0000 0060EA47 		.word	1206542336
 2199              		.section	.rodata.str1.4,"aMS",%progbits,1
 2200              		.align	2
 2201              	.LC0:
 2202 0000 616D6269 		.ascii	"ambient red = %f \012\000"
 2202      656E7420 
ARM GAS  C:\Users\bamcg3\AppData\Local\Temp\ccfmEsNg.s 			page 53


 2202      72656420 
 2202      3D202566 
 2202      200A00
 2203 0013 00       		.space	1
 2204              	.LC1:
 2205 0014 616D6269 		.ascii	"ambient green = %f \012\000"
 2205      656E7420 
 2205      67726565 
 2205      6E203D20 
 2205      2566200A 
 2206 0029 000000   		.space	3
 2207              	.LC2:
 2208 002c 616D6269 		.ascii	"ambient blue = %f\012\000"
 2208      656E7420 
 2208      626C7565 
 2208      203D2025 
 2208      660A00
 2209 003f 00       		.space	1
 2210              	.LC3:
 2211 0040 74657374 		.ascii	"test no led: \011\000"
 2211      206E6F20 
 2211      6C65643A 
 2211      200900
 2212 004f 00       		.space	1
 2213              	.LC4:
 2214 0050 74657374 		.ascii	"test red: \011\000"
 2214      20726564 
 2214      3A200900 
 2215              	.LC5:
 2216 005c 74657374 		.ascii	"test green: \011\000"
 2216      20677265 
 2216      656E3A20 
 2216      0900
 2217 006a 0000     		.space	2
 2218              	.LC6:
 2219 006c 74657374 		.ascii	"test blue: \011\000"
 2219      20626C75 
 2219      653A2009 
 2219      00
 2220 0079 000000   		.space	3
 2221              	.LC7:
 2222 007c 0A00     		.ascii	"\012\000"
 2223 007e 0000     		.space	2
 2224              	.LC8:
 2225 0080 5200     		.ascii	"R\000"
 2226 0082 0000     		.space	2
 2227              	.LC9:
 2228 0084 4700     		.ascii	"G\000"
 2229 0086 0000     		.space	2
 2230              	.LC10:
 2231 0088 4200     		.ascii	"B\000"
 2232 008a 0000     		.space	2
 2233              	.LC11:
 2234 008c 4E00     		.ascii	"N\000"
 2235 008e 0000     		.space	2
 2236              	.LC12:
 2237 0090 25690900 		.ascii	"%i\011\000"
ARM GAS  C:\Users\bamcg3\AppData\Local\Temp\ccfmEsNg.s 			page 54


 2238              	.LC13:
 2239 0094 0A507563 		.ascii	"\012Puck detected: \000"
 2239      6B206465 
 2239      74656374 
 2239      65643A20 
 2239      00
 2240 00a5 000000   		.space	3
 2241              	.LC14:
 2242 00a8 52656420 		.ascii	"Red \012\000"
 2242      0A00
 2243 00ae 0000     		.space	2
 2244              	.LC15:
 2245 00b0 47726565 		.ascii	"Green \012\000"
 2245      6E200A00 
 2246              	.LC16:
 2247 00b8 426C7565 		.ascii	"Blue \012\000"
 2247      200A00
 2248 00bf 00       		.space	1
 2249              	.LC17:
 2250 00c0 25662009 		.ascii	"%f \011\000"
 2250      00
 2251 00c5 000000   		.space	3
 2252              	.LC18:
 2253 00c8 25660900 		.ascii	"%f\011\000"
 2254              		.bss
 2255              		.align	2
 2256              		.set	.LANCHOR0,. + 0
 2257              		.type	puck_all, %object
 2258              		.size	puck_all, 16
 2259              	puck_all:
 2260 0000 00000000 		.space	16
 2260      00000000 
 2260      00000000 
 2260      00000000 
 2261              		.type	puck_output, %object
 2262              		.size	puck_output, 4
 2263              	puck_output:
 2264 0010 00000000 		.space	4
 2265              		.type	sum, %object
 2266              		.size	sum, 4
 2267              	sum:
 2268 0014 00000000 		.space	4
 2269              		.text
 2270              	.Letext0:
 2271              		.file 2 "c:\\program files (x86)\\cypress\\psoc creator\\4.2\\psoc creator\\import\\gnu\\arm\\5.4.
 2272              		.file 3 "c:\\program files (x86)\\cypress\\psoc creator\\4.2\\psoc creator\\import\\gnu\\arm\\5.4.
 2273              		.file 4 "Generated_Source\\PSoC5/core_cm3.h"
 2274              		.file 5 "Generated_Source\\PSoC5/CyLib.h"
 2275              		.file 6 "Generated_Source\\PSoC5/control_led.h"
 2276              		.file 7 "Generated_Source\\PSoC5/ADC.h"
 2277              		.file 8 "Generated_Source\\PSoC5/control_photodiode.h"
 2278              		.file 9 "Generated_Source\\PSoC5/PWM_colour.h"
 2279              		.file 10 "Generated_Source\\PSoC5/LED_Red.h"
 2280              		.file 11 "Generated_Source\\PSoC5/LED_Blue.h"
 2281              		.file 12 "Generated_Source\\PSoC5/LED_Green.h"
 2282              		.file 13 "c:\\program files (x86)\\cypress\\psoc creator\\4.2\\psoc creator\\import\\gnu\\arm\\5.4
 2283              		.file 14 "c:\\program files (x86)\\cypress\\psoc creator\\4.2\\psoc creator\\import\\gnu\\arm\\5.4
ARM GAS  C:\Users\bamcg3\AppData\Local\Temp\ccfmEsNg.s 			page 55


 2284              		.file 15 "Generated_Source\\PSoC5/UART_1.h"
 2285              		.file 16 "Generated_Source\\PSoC5/RGB_Red.h"
 2286              		.file 17 "Generated_Source\\PSoC5/RGB_Blue.h"
 2287              		.file 18 "Generated_Source\\PSoC5/RGB_Green.h"
 2288              		.section	.debug_info,"",%progbits
 2289              	.Ldebug_info0:
 2290 0000 D4150000 		.4byte	0x15d4
 2291 0004 0400     		.2byte	0x4
 2292 0006 00000000 		.4byte	.Ldebug_abbrev0
 2293 000a 04       		.byte	0x4
 2294 000b 01       		.uleb128 0x1
 2295 000c C3030000 		.4byte	.LASF66
 2296 0010 0C       		.byte	0xc
 2297 0011 9F030000 		.4byte	.LASF67
 2298 0015 93010000 		.4byte	.LASF68
 2299 0019 18000000 		.4byte	.Ldebug_ranges0+0x18
 2300 001d 00000000 		.4byte	0
 2301 0021 00000000 		.4byte	.Ldebug_line0
 2302 0025 02       		.uleb128 0x2
 2303 0026 01       		.byte	0x1
 2304 0027 06       		.byte	0x6
 2305 0028 FC010000 		.4byte	.LASF0
 2306 002c 02       		.uleb128 0x2
 2307 002d 01       		.byte	0x1
 2308 002e 08       		.byte	0x8
 2309 002f 7D010000 		.4byte	.LASF1
 2310 0033 02       		.uleb128 0x2
 2311 0034 02       		.byte	0x2
 2312 0035 05       		.byte	0x5
 2313 0036 39000000 		.4byte	.LASF2
 2314 003a 02       		.uleb128 0x2
 2315 003b 02       		.byte	0x2
 2316 003c 07       		.byte	0x7
 2317 003d 87020000 		.4byte	.LASF3
 2318 0041 03       		.uleb128 0x3
 2319 0042 87030000 		.4byte	.LASF9
 2320 0046 02       		.byte	0x2
 2321 0047 3F       		.byte	0x3f
 2322 0048 4C000000 		.4byte	0x4c
 2323 004c 02       		.uleb128 0x2
 2324 004d 04       		.byte	0x4
 2325 004e 05       		.byte	0x5
 2326 004f 12010000 		.4byte	.LASF4
 2327 0053 02       		.uleb128 0x2
 2328 0054 04       		.byte	0x4
 2329 0055 07       		.byte	0x7
 2330 0056 39030000 		.4byte	.LASF5
 2331 005a 02       		.uleb128 0x2
 2332 005b 08       		.byte	0x8
 2333 005c 05       		.byte	0x5
 2334 005d F7000000 		.4byte	.LASF6
 2335 0061 02       		.uleb128 0x2
 2336 0062 08       		.byte	0x8
 2337 0063 07       		.byte	0x7
 2338 0064 11020000 		.4byte	.LASF7
 2339 0068 04       		.uleb128 0x4
 2340 0069 04       		.byte	0x4
ARM GAS  C:\Users\bamcg3\AppData\Local\Temp\ccfmEsNg.s 			page 56


 2341 006a 05       		.byte	0x5
 2342 006b 696E7400 		.ascii	"int\000"
 2343 006f 02       		.uleb128 0x2
 2344 0070 04       		.byte	0x4
 2345 0071 07       		.byte	0x7
 2346 0072 48020000 		.4byte	.LASF8
 2347 0076 03       		.uleb128 0x3
 2348 0077 2C010000 		.4byte	.LASF10
 2349 007b 03       		.byte	0x3
 2350 007c 2C       		.byte	0x2c
 2351 007d 41000000 		.4byte	0x41
 2352 0081 02       		.uleb128 0x2
 2353 0082 04       		.byte	0x4
 2354 0083 04       		.byte	0x4
 2355 0084 D9000000 		.4byte	.LASF11
 2356 0088 02       		.uleb128 0x2
 2357 0089 08       		.byte	0x8
 2358 008a 04       		.byte	0x4
 2359 008b 4B030000 		.4byte	.LASF12
 2360 008f 02       		.uleb128 0x2
 2361 0090 01       		.byte	0x1
 2362 0091 08       		.byte	0x8
 2363 0092 A9020000 		.4byte	.LASF13
 2364 0096 02       		.uleb128 0x2
 2365 0097 08       		.byte	0x8
 2366 0098 04       		.byte	0x4
 2367 0099 63010000 		.4byte	.LASF14
 2368 009d 02       		.uleb128 0x2
 2369 009e 04       		.byte	0x4
 2370 009f 07       		.byte	0x7
 2371 00a0 43000000 		.4byte	.LASF15
 2372 00a4 05       		.uleb128 0x5
 2373 00a5 59040000 		.4byte	.LASF17
 2374 00a9 01       		.byte	0x1
 2375 00aa 55       		.byte	0x55
 2376 00ab 00000000 		.4byte	.LFB64
 2377 00af BC000000 		.4byte	.LFE64-.LFB64
 2378 00b3 01       		.uleb128 0x1
 2379 00b4 9C       		.byte	0x9c
 2380 00b5 02020000 		.4byte	0x202
 2381 00b9 06       		.uleb128 0x6
 2382 00ba 25030000 		.4byte	.LASF16
 2383 00be 01       		.byte	0x1
 2384 00bf 62       		.byte	0x62
 2385 00c0 02020000 		.4byte	0x202
 2386 00c4 02       		.uleb128 0x2
 2387 00c5 91       		.byte	0x91
 2388 00c6 60       		.sleb128 -32
 2389 00c7 07       		.uleb128 0x7
 2390 00c8 4A000000 		.4byte	.LBB2
 2391 00cc 38000000 		.4byte	.LBE2-.LBB2
 2392 00d0 47010000 		.4byte	0x147
 2393 00d4 08       		.uleb128 0x8
 2394 00d5 6900     		.ascii	"i\000"
 2395 00d7 01       		.byte	0x1
 2396 00d8 64       		.byte	0x64
 2397 00d9 68000000 		.4byte	0x68
ARM GAS  C:\Users\bamcg3\AppData\Local\Temp\ccfmEsNg.s 			page 57


 2398 00dd 00000000 		.4byte	.LLST0
 2399 00e1 09       		.uleb128 0x9
 2400 00e2 52000000 		.4byte	.LVL11
 2401 00e6 26150000 		.4byte	0x1526
 2402 00ea F4000000 		.4byte	0xf4
 2403 00ee 0A       		.uleb128 0xa
 2404 00ef 01       		.uleb128 0x1
 2405 00f0 50       		.byte	0x50
 2406 00f1 01       		.uleb128 0x1
 2407 00f2 3A       		.byte	0x3a
 2408 00f3 00       		.byte	0
 2409 00f4 09       		.uleb128 0x9
 2410 00f5 58000000 		.4byte	.LVL12
 2411 00f9 31150000 		.4byte	0x1531
 2412 00fd 08010000 		.4byte	0x108
 2413 0101 0A       		.uleb128 0xa
 2414 0102 01       		.uleb128 0x1
 2415 0103 50       		.byte	0x50
 2416 0104 02       		.uleb128 0x2
 2417 0105 74       		.byte	0x74
 2418 0106 00       		.sleb128 0
 2419 0107 00       		.byte	0
 2420 0108 0B       		.uleb128 0xb
 2421 0109 5C000000 		.4byte	.LVL13
 2422 010d 3C150000 		.4byte	0x153c
 2423 0111 09       		.uleb128 0x9
 2424 0112 70000000 		.4byte	.LVL15
 2425 0116 26150000 		.4byte	0x1526
 2426 011a 24010000 		.4byte	0x124
 2427 011e 0A       		.uleb128 0xa
 2428 011f 01       		.uleb128 0x1
 2429 0120 50       		.byte	0x50
 2430 0121 01       		.uleb128 0x1
 2431 0122 3A       		.byte	0x3a
 2432 0123 00       		.byte	0
 2433 0124 09       		.uleb128 0x9
 2434 0125 76000000 		.4byte	.LVL16
 2435 0129 31150000 		.4byte	0x1531
 2436 012d 37010000 		.4byte	0x137
 2437 0131 0A       		.uleb128 0xa
 2438 0132 01       		.uleb128 0x1
 2439 0133 50       		.byte	0x50
 2440 0134 01       		.uleb128 0x1
 2441 0135 30       		.byte	0x30
 2442 0136 00       		.byte	0
 2443 0137 0C       		.uleb128 0xc
 2444 0138 7C000000 		.4byte	.LVL17
 2445 013c 26150000 		.4byte	0x1526
 2446 0140 0A       		.uleb128 0xa
 2447 0141 01       		.uleb128 0x1
 2448 0142 50       		.byte	0x50
 2449 0143 01       		.uleb128 0x1
 2450 0144 44       		.byte	0x44
 2451 0145 00       		.byte	0
 2452 0146 00       		.byte	0
 2453 0147 0B       		.uleb128 0xb
 2454 0148 0C000000 		.4byte	.LVL0
ARM GAS  C:\Users\bamcg3\AppData\Local\Temp\ccfmEsNg.s 			page 58


 2455 014c 47150000 		.4byte	0x1547
 2456 0150 0B       		.uleb128 0xb
 2457 0151 10000000 		.4byte	.LVL1
 2458 0155 52150000 		.4byte	0x1552
 2459 0159 09       		.uleb128 0x9
 2460 015a 16000000 		.4byte	.LVL2
 2461 015e 5D150000 		.4byte	0x155d
 2462 0162 6D010000 		.4byte	0x16d
 2463 0166 0A       		.uleb128 0xa
 2464 0167 01       		.uleb128 0x1
 2465 0168 50       		.byte	0x50
 2466 0169 02       		.uleb128 0x2
 2467 016a 09       		.byte	0x9
 2468 016b FF       		.byte	0xff
 2469 016c 00       		.byte	0
 2470 016d 09       		.uleb128 0x9
 2471 016e 1C000000 		.4byte	.LVL3
 2472 0172 31150000 		.4byte	0x1531
 2473 0176 80010000 		.4byte	0x180
 2474 017a 0A       		.uleb128 0xa
 2475 017b 01       		.uleb128 0x1
 2476 017c 50       		.byte	0x50
 2477 017d 01       		.uleb128 0x1
 2478 017e 31       		.byte	0x31
 2479 017f 00       		.byte	0
 2480 0180 09       		.uleb128 0x9
 2481 0181 24000000 		.4byte	.LVL4
 2482 0185 26150000 		.4byte	0x1526
 2483 0189 95010000 		.4byte	0x195
 2484 018d 0A       		.uleb128 0xa
 2485 018e 01       		.uleb128 0x1
 2486 018f 50       		.byte	0x50
 2487 0190 03       		.uleb128 0x3
 2488 0191 0A       		.byte	0xa
 2489 0192 E803     		.2byte	0x3e8
 2490 0194 00       		.byte	0
 2491 0195 09       		.uleb128 0x9
 2492 0196 2A000000 		.4byte	.LVL5
 2493 019a 31150000 		.4byte	0x1531
 2494 019e A8010000 		.4byte	0x1a8
 2495 01a2 0A       		.uleb128 0xa
 2496 01a3 01       		.uleb128 0x1
 2497 01a4 50       		.byte	0x50
 2498 01a5 01       		.uleb128 0x1
 2499 01a6 32       		.byte	0x32
 2500 01a7 00       		.byte	0
 2501 01a8 09       		.uleb128 0x9
 2502 01a9 32000000 		.4byte	.LVL6
 2503 01ad 26150000 		.4byte	0x1526
 2504 01b1 BD010000 		.4byte	0x1bd
 2505 01b5 0A       		.uleb128 0xa
 2506 01b6 01       		.uleb128 0x1
 2507 01b7 50       		.byte	0x50
 2508 01b8 03       		.uleb128 0x3
 2509 01b9 0A       		.byte	0xa
 2510 01ba E803     		.2byte	0x3e8
 2511 01bc 00       		.byte	0
ARM GAS  C:\Users\bamcg3\AppData\Local\Temp\ccfmEsNg.s 			page 59


 2512 01bd 09       		.uleb128 0x9
 2513 01be 38000000 		.4byte	.LVL7
 2514 01c2 31150000 		.4byte	0x1531
 2515 01c6 D0010000 		.4byte	0x1d0
 2516 01ca 0A       		.uleb128 0xa
 2517 01cb 01       		.uleb128 0x1
 2518 01cc 50       		.byte	0x50
 2519 01cd 01       		.uleb128 0x1
 2520 01ce 33       		.byte	0x33
 2521 01cf 00       		.byte	0
 2522 01d0 09       		.uleb128 0x9
 2523 01d1 40000000 		.4byte	.LVL8
 2524 01d5 26150000 		.4byte	0x1526
 2525 01d9 E5010000 		.4byte	0x1e5
 2526 01dd 0A       		.uleb128 0xa
 2527 01de 01       		.uleb128 0x1
 2528 01df 50       		.byte	0x50
 2529 01e0 03       		.uleb128 0x3
 2530 01e1 0A       		.byte	0xa
 2531 01e2 E803     		.2byte	0x3e8
 2532 01e4 00       		.byte	0
 2533 01e5 09       		.uleb128 0x9
 2534 01e6 A0000000 		.4byte	.LVL19
 2535 01ea 5D150000 		.4byte	0x155d
 2536 01ee F8010000 		.4byte	0x1f8
 2537 01f2 0A       		.uleb128 0xa
 2538 01f3 01       		.uleb128 0x1
 2539 01f4 50       		.byte	0x50
 2540 01f5 01       		.uleb128 0x1
 2541 01f6 3A       		.byte	0x3a
 2542 01f7 00       		.byte	0
 2543 01f8 0B       		.uleb128 0xb
 2544 01f9 A4000000 		.4byte	.LVL20
 2545 01fd 68150000 		.4byte	0x1568
 2546 0201 00       		.byte	0
 2547 0202 0D       		.uleb128 0xd
 2548 0203 81000000 		.4byte	0x81
 2549 0207 12020000 		.4byte	0x212
 2550 020b 0E       		.uleb128 0xe
 2551 020c 9D000000 		.4byte	0x9d
 2552 0210 03       		.byte	0x3
 2553 0211 00       		.byte	0
 2554 0212 05       		.uleb128 0x5
 2555 0213 0E000000 		.4byte	.LASF18
 2556 0217 01       		.byte	0x1
 2557 0218 78       		.byte	0x78
 2558 0219 00000000 		.4byte	.LFB65
 2559 021d 88000000 		.4byte	.LFE65-.LFB65
 2560 0221 01       		.uleb128 0x1
 2561 0222 9C       		.byte	0x9c
 2562 0223 EF020000 		.4byte	0x2ef
 2563 0227 06       		.uleb128 0x6
 2564 0228 25030000 		.4byte	.LASF16
 2565 022c 01       		.byte	0x1
 2566 022d 7A       		.byte	0x7a
 2567 022e 02020000 		.4byte	0x202
 2568 0232 02       		.uleb128 0x2
ARM GAS  C:\Users\bamcg3\AppData\Local\Temp\ccfmEsNg.s 			page 60


 2569 0233 91       		.byte	0x91
 2570 0234 60       		.sleb128 -32
 2571 0235 07       		.uleb128 0x7
 2572 0236 18000000 		.4byte	.LBB3
 2573 023a 38000000 		.4byte	.LBE3-.LBB3
 2574 023e B5020000 		.4byte	0x2b5
 2575 0242 08       		.uleb128 0x8
 2576 0243 6900     		.ascii	"i\000"
 2577 0245 01       		.byte	0x1
 2578 0246 7F       		.byte	0x7f
 2579 0247 68000000 		.4byte	0x68
 2580 024b 1F000000 		.4byte	.LLST1
 2581 024f 09       		.uleb128 0x9
 2582 0250 20000000 		.4byte	.LVL25
 2583 0254 26150000 		.4byte	0x1526
 2584 0258 62020000 		.4byte	0x262
 2585 025c 0A       		.uleb128 0xa
 2586 025d 01       		.uleb128 0x1
 2587 025e 50       		.byte	0x50
 2588 025f 01       		.uleb128 0x1
 2589 0260 3A       		.byte	0x3a
 2590 0261 00       		.byte	0
 2591 0262 09       		.uleb128 0x9
 2592 0263 26000000 		.4byte	.LVL26
 2593 0267 31150000 		.4byte	0x1531
 2594 026b 76020000 		.4byte	0x276
 2595 026f 0A       		.uleb128 0xa
 2596 0270 01       		.uleb128 0x1
 2597 0271 50       		.byte	0x50
 2598 0272 02       		.uleb128 0x2
 2599 0273 74       		.byte	0x74
 2600 0274 00       		.sleb128 0
 2601 0275 00       		.byte	0
 2602 0276 0B       		.uleb128 0xb
 2603 0277 2A000000 		.4byte	.LVL27
 2604 027b 3C150000 		.4byte	0x153c
 2605 027f 09       		.uleb128 0x9
 2606 0280 3E000000 		.4byte	.LVL29
 2607 0284 26150000 		.4byte	0x1526
 2608 0288 92020000 		.4byte	0x292
 2609 028c 0A       		.uleb128 0xa
 2610 028d 01       		.uleb128 0x1
 2611 028e 50       		.byte	0x50
 2612 028f 01       		.uleb128 0x1
 2613 0290 3A       		.byte	0x3a
 2614 0291 00       		.byte	0
 2615 0292 09       		.uleb128 0x9
 2616 0293 44000000 		.4byte	.LVL30
 2617 0297 31150000 		.4byte	0x1531
 2618 029b A5020000 		.4byte	0x2a5
 2619 029f 0A       		.uleb128 0xa
 2620 02a0 01       		.uleb128 0x1
 2621 02a1 50       		.byte	0x50
 2622 02a2 01       		.uleb128 0x1
 2623 02a3 30       		.byte	0x30
 2624 02a4 00       		.byte	0
 2625 02a5 0C       		.uleb128 0xc
ARM GAS  C:\Users\bamcg3\AppData\Local\Temp\ccfmEsNg.s 			page 61


 2626 02a6 4A000000 		.4byte	.LVL31
 2627 02aa 26150000 		.4byte	0x1526
 2628 02ae 0A       		.uleb128 0xa
 2629 02af 01       		.uleb128 0x1
 2630 02b0 50       		.byte	0x50
 2631 02b1 01       		.uleb128 0x1
 2632 02b2 44       		.byte	0x44
 2633 02b3 00       		.byte	0
 2634 02b4 00       		.byte	0
 2635 02b5 0B       		.uleb128 0xb
 2636 02b6 12000000 		.4byte	.LVL22
 2637 02ba 52150000 		.4byte	0x1552
 2638 02be 09       		.uleb128 0x9
 2639 02bf 18000000 		.4byte	.LVL23
 2640 02c3 5D150000 		.4byte	0x155d
 2641 02c7 D2020000 		.4byte	0x2d2
 2642 02cb 0A       		.uleb128 0xa
 2643 02cc 01       		.uleb128 0x1
 2644 02cd 50       		.byte	0x50
 2645 02ce 02       		.uleb128 0x2
 2646 02cf 09       		.byte	0x9
 2647 02d0 FF       		.byte	0xff
 2648 02d1 00       		.byte	0
 2649 02d2 09       		.uleb128 0x9
 2650 02d3 6E000000 		.4byte	.LVL33
 2651 02d7 5D150000 		.4byte	0x155d
 2652 02db E5020000 		.4byte	0x2e5
 2653 02df 0A       		.uleb128 0xa
 2654 02e0 01       		.uleb128 0x1
 2655 02e1 50       		.byte	0x50
 2656 02e2 01       		.uleb128 0x1
 2657 02e3 3A       		.byte	0x3a
 2658 02e4 00       		.byte	0
 2659 02e5 0B       		.uleb128 0xb
 2660 02e6 72000000 		.4byte	.LVL34
 2661 02ea 68150000 		.4byte	0x1568
 2662 02ee 00       		.byte	0
 2663 02ef 0F       		.uleb128 0xf
 2664 02f0 11030000 		.4byte	.LASF29
 2665 02f4 01       		.byte	0x1
 2666 02f5 93       		.byte	0x93
 2667 02f6 68000000 		.4byte	0x68
 2668 02fa 00000000 		.4byte	.LFB66
 2669 02fe 04000000 		.4byte	.LFE66-.LFB66
 2670 0302 01       		.uleb128 0x1
 2671 0303 9C       		.byte	0x9c
 2672 0304 15030000 		.4byte	0x315
 2673 0308 10       		.uleb128 0x10
 2674 0309 85000000 		.4byte	.LASF19
 2675 030d 01       		.byte	0x1
 2676 030e 95       		.byte	0x95
 2677 030f 68000000 		.4byte	0x68
 2678 0313 00       		.byte	0
 2679 0314 00       		.byte	0
 2680 0315 05       		.uleb128 0x5
 2681 0316 9A020000 		.4byte	.LASF20
 2682 031a 01       		.byte	0x1
ARM GAS  C:\Users\bamcg3\AppData\Local\Temp\ccfmEsNg.s 			page 62


 2683 031b A3       		.byte	0xa3
 2684 031c 00000000 		.4byte	.LFB67
 2685 0320 FC000000 		.4byte	.LFE67-.LFB67
 2686 0324 01       		.uleb128 0x1
 2687 0325 9C       		.byte	0x9c
 2688 0326 20050000 		.4byte	0x520
 2689 032a 09       		.uleb128 0x9
 2690 032b 08000000 		.4byte	.LVL37
 2691 032f 47150000 		.4byte	0x1547
 2692 0333 3D030000 		.4byte	0x33d
 2693 0337 0A       		.uleb128 0xa
 2694 0338 01       		.uleb128 0x1
 2695 0339 50       		.byte	0x50
 2696 033a 01       		.uleb128 0x1
 2697 033b 30       		.byte	0x30
 2698 033c 00       		.byte	0
 2699 033d 09       		.uleb128 0x9
 2700 033e 0E000000 		.4byte	.LVL38
 2701 0342 73150000 		.4byte	0x1573
 2702 0346 50030000 		.4byte	0x350
 2703 034a 0A       		.uleb128 0xa
 2704 034b 01       		.uleb128 0x1
 2705 034c 50       		.byte	0x50
 2706 034d 01       		.uleb128 0x1
 2707 034e 31       		.byte	0x31
 2708 034f 00       		.byte	0
 2709 0350 09       		.uleb128 0x9
 2710 0351 14000000 		.4byte	.LVL39
 2711 0355 26150000 		.4byte	0x1526
 2712 0359 63030000 		.4byte	0x363
 2713 035d 0A       		.uleb128 0xa
 2714 035e 01       		.uleb128 0x1
 2715 035f 50       		.byte	0x50
 2716 0360 01       		.uleb128 0x1
 2717 0361 3A       		.byte	0x3a
 2718 0362 00       		.byte	0
 2719 0363 0B       		.uleb128 0xb
 2720 0364 18000000 		.4byte	.LVL40
 2721 0368 3C150000 		.4byte	0x153c
 2722 036c 09       		.uleb128 0x9
 2723 036d 26000000 		.4byte	.LVL42
 2724 0371 26150000 		.4byte	0x1526
 2725 0375 7F030000 		.4byte	0x37f
 2726 0379 0A       		.uleb128 0xa
 2727 037a 01       		.uleb128 0x1
 2728 037b 50       		.byte	0x50
 2729 037c 01       		.uleb128 0x1
 2730 037d 3A       		.byte	0x3a
 2731 037e 00       		.byte	0
 2732 037f 09       		.uleb128 0x9
 2733 0380 2C000000 		.4byte	.LVL43
 2734 0384 73150000 		.4byte	0x1573
 2735 0388 92030000 		.4byte	0x392
 2736 038c 0A       		.uleb128 0xa
 2737 038d 01       		.uleb128 0x1
 2738 038e 50       		.byte	0x50
 2739 038f 01       		.uleb128 0x1
ARM GAS  C:\Users\bamcg3\AppData\Local\Temp\ccfmEsNg.s 			page 63


 2740 0390 30       		.byte	0x30
 2741 0391 00       		.byte	0
 2742 0392 09       		.uleb128 0x9
 2743 0393 32000000 		.4byte	.LVL44
 2744 0397 26150000 		.4byte	0x1526
 2745 039b A5030000 		.4byte	0x3a5
 2746 039f 0A       		.uleb128 0xa
 2747 03a0 01       		.uleb128 0x1
 2748 03a1 50       		.byte	0x50
 2749 03a2 01       		.uleb128 0x1
 2750 03a3 44       		.byte	0x44
 2751 03a4 00       		.byte	0
 2752 03a5 09       		.uleb128 0x9
 2753 03a6 38000000 		.4byte	.LVL45
 2754 03aa 7E150000 		.4byte	0x157e
 2755 03ae B8030000 		.4byte	0x3b8
 2756 03b2 0A       		.uleb128 0xa
 2757 03b3 01       		.uleb128 0x1
 2758 03b4 50       		.byte	0x50
 2759 03b5 01       		.uleb128 0x1
 2760 03b6 31       		.byte	0x31
 2761 03b7 00       		.byte	0
 2762 03b8 09       		.uleb128 0x9
 2763 03b9 3E000000 		.4byte	.LVL46
 2764 03bd 26150000 		.4byte	0x1526
 2765 03c1 CB030000 		.4byte	0x3cb
 2766 03c5 0A       		.uleb128 0xa
 2767 03c6 01       		.uleb128 0x1
 2768 03c7 50       		.byte	0x50
 2769 03c8 01       		.uleb128 0x1
 2770 03c9 3A       		.byte	0x3a
 2771 03ca 00       		.byte	0
 2772 03cb 0B       		.uleb128 0xb
 2773 03cc 42000000 		.4byte	.LVL47
 2774 03d0 3C150000 		.4byte	0x153c
 2775 03d4 09       		.uleb128 0x9
 2776 03d5 50000000 		.4byte	.LVL49
 2777 03d9 26150000 		.4byte	0x1526
 2778 03dd E7030000 		.4byte	0x3e7
 2779 03e1 0A       		.uleb128 0xa
 2780 03e2 01       		.uleb128 0x1
 2781 03e3 50       		.byte	0x50
 2782 03e4 01       		.uleb128 0x1
 2783 03e5 3A       		.byte	0x3a
 2784 03e6 00       		.byte	0
 2785 03e7 09       		.uleb128 0x9
 2786 03e8 56000000 		.4byte	.LVL50
 2787 03ec 7E150000 		.4byte	0x157e
 2788 03f0 FA030000 		.4byte	0x3fa
 2789 03f4 0A       		.uleb128 0xa
 2790 03f5 01       		.uleb128 0x1
 2791 03f6 50       		.byte	0x50
 2792 03f7 01       		.uleb128 0x1
 2793 03f8 30       		.byte	0x30
 2794 03f9 00       		.byte	0
 2795 03fa 09       		.uleb128 0x9
 2796 03fb 5C000000 		.4byte	.LVL51
ARM GAS  C:\Users\bamcg3\AppData\Local\Temp\ccfmEsNg.s 			page 64


 2797 03ff 26150000 		.4byte	0x1526
 2798 0403 0D040000 		.4byte	0x40d
 2799 0407 0A       		.uleb128 0xa
 2800 0408 01       		.uleb128 0x1
 2801 0409 50       		.byte	0x50
 2802 040a 01       		.uleb128 0x1
 2803 040b 44       		.byte	0x44
 2804 040c 00       		.byte	0
 2805 040d 09       		.uleb128 0x9
 2806 040e 62000000 		.4byte	.LVL52
 2807 0412 89150000 		.4byte	0x1589
 2808 0416 20040000 		.4byte	0x420
 2809 041a 0A       		.uleb128 0xa
 2810 041b 01       		.uleb128 0x1
 2811 041c 50       		.byte	0x50
 2812 041d 01       		.uleb128 0x1
 2813 041e 31       		.byte	0x31
 2814 041f 00       		.byte	0
 2815 0420 09       		.uleb128 0x9
 2816 0421 68000000 		.4byte	.LVL53
 2817 0425 26150000 		.4byte	0x1526
 2818 0429 33040000 		.4byte	0x433
 2819 042d 0A       		.uleb128 0xa
 2820 042e 01       		.uleb128 0x1
 2821 042f 50       		.byte	0x50
 2822 0430 01       		.uleb128 0x1
 2823 0431 3A       		.byte	0x3a
 2824 0432 00       		.byte	0
 2825 0433 0B       		.uleb128 0xb
 2826 0434 6C000000 		.4byte	.LVL54
 2827 0438 3C150000 		.4byte	0x153c
 2828 043c 09       		.uleb128 0x9
 2829 043d 7A000000 		.4byte	.LVL56
 2830 0441 26150000 		.4byte	0x1526
 2831 0445 4F040000 		.4byte	0x44f
 2832 0449 0A       		.uleb128 0xa
 2833 044a 01       		.uleb128 0x1
 2834 044b 50       		.byte	0x50
 2835 044c 01       		.uleb128 0x1
 2836 044d 3A       		.byte	0x3a
 2837 044e 00       		.byte	0
 2838 044f 09       		.uleb128 0x9
 2839 0450 80000000 		.4byte	.LVL57
 2840 0454 89150000 		.4byte	0x1589
 2841 0458 62040000 		.4byte	0x462
 2842 045c 0A       		.uleb128 0xa
 2843 045d 01       		.uleb128 0x1
 2844 045e 50       		.byte	0x50
 2845 045f 01       		.uleb128 0x1
 2846 0460 30       		.byte	0x30
 2847 0461 00       		.byte	0
 2848 0462 09       		.uleb128 0x9
 2849 0463 86000000 		.4byte	.LVL58
 2850 0467 26150000 		.4byte	0x1526
 2851 046b 75040000 		.4byte	0x475
 2852 046f 0A       		.uleb128 0xa
 2853 0470 01       		.uleb128 0x1
ARM GAS  C:\Users\bamcg3\AppData\Local\Temp\ccfmEsNg.s 			page 65


 2854 0471 50       		.byte	0x50
 2855 0472 01       		.uleb128 0x1
 2856 0473 44       		.byte	0x44
 2857 0474 00       		.byte	0
 2858 0475 0B       		.uleb128 0xb
 2859 0476 90000000 		.4byte	.LVL60
 2860 047a 94150000 		.4byte	0x1594
 2861 047e 09       		.uleb128 0x9
 2862 047f 9E000000 		.4byte	.LVL61
 2863 0483 A0150000 		.4byte	0x15a0
 2864 0487 9B040000 		.4byte	0x49b
 2865 048b 0A       		.uleb128 0xa
 2866 048c 01       		.uleb128 0x1
 2867 048d 50       		.byte	0x50
 2868 048e 02       		.uleb128 0x2
 2869 048f 74       		.byte	0x74
 2870 0490 00       		.sleb128 0
 2871 0491 0A       		.uleb128 0xa
 2872 0492 01       		.uleb128 0x1
 2873 0493 51       		.byte	0x51
 2874 0494 05       		.uleb128 0x5
 2875 0495 03       		.byte	0x3
 2876 0496 00000000 		.4byte	.LC0
 2877 049a 00       		.byte	0
 2878 049b 09       		.uleb128 0x9
 2879 049c A4000000 		.4byte	.LVL62
 2880 04a0 AB150000 		.4byte	0x15ab
 2881 04a4 AF040000 		.4byte	0x4af
 2882 04a8 0A       		.uleb128 0xa
 2883 04a9 01       		.uleb128 0x1
 2884 04aa 50       		.byte	0x50
 2885 04ab 02       		.uleb128 0x2
 2886 04ac 74       		.byte	0x74
 2887 04ad 00       		.sleb128 0
 2888 04ae 00       		.byte	0
 2889 04af 0B       		.uleb128 0xb
 2890 04b0 AE000000 		.4byte	.LVL64
 2891 04b4 94150000 		.4byte	0x1594
 2892 04b8 09       		.uleb128 0x9
 2893 04b9 BA000000 		.4byte	.LVL65
 2894 04bd A0150000 		.4byte	0x15a0
 2895 04c1 D5040000 		.4byte	0x4d5
 2896 04c5 0A       		.uleb128 0xa
 2897 04c6 01       		.uleb128 0x1
 2898 04c7 50       		.byte	0x50
 2899 04c8 02       		.uleb128 0x2
 2900 04c9 74       		.byte	0x74
 2901 04ca 00       		.sleb128 0
 2902 04cb 0A       		.uleb128 0xa
 2903 04cc 01       		.uleb128 0x1
 2904 04cd 51       		.byte	0x51
 2905 04ce 05       		.uleb128 0x5
 2906 04cf 03       		.byte	0x3
 2907 04d0 14000000 		.4byte	.LC1
 2908 04d4 00       		.byte	0
 2909 04d5 09       		.uleb128 0x9
 2910 04d6 C0000000 		.4byte	.LVL66
ARM GAS  C:\Users\bamcg3\AppData\Local\Temp\ccfmEsNg.s 			page 66


 2911 04da AB150000 		.4byte	0x15ab
 2912 04de E9040000 		.4byte	0x4e9
 2913 04e2 0A       		.uleb128 0xa
 2914 04e3 01       		.uleb128 0x1
 2915 04e4 50       		.byte	0x50
 2916 04e5 02       		.uleb128 0x2
 2917 04e6 74       		.byte	0x74
 2918 04e7 00       		.sleb128 0
 2919 04e8 00       		.byte	0
 2920 04e9 0B       		.uleb128 0xb
 2921 04ea CA000000 		.4byte	.LVL68
 2922 04ee 94150000 		.4byte	0x1594
 2923 04f2 09       		.uleb128 0x9
 2924 04f3 D6000000 		.4byte	.LVL69
 2925 04f7 A0150000 		.4byte	0x15a0
 2926 04fb 0F050000 		.4byte	0x50f
 2927 04ff 0A       		.uleb128 0xa
 2928 0500 01       		.uleb128 0x1
 2929 0501 50       		.byte	0x50
 2930 0502 02       		.uleb128 0x2
 2931 0503 74       		.byte	0x74
 2932 0504 00       		.sleb128 0
 2933 0505 0A       		.uleb128 0xa
 2934 0506 01       		.uleb128 0x1
 2935 0507 51       		.byte	0x51
 2936 0508 05       		.uleb128 0x5
 2937 0509 03       		.byte	0x3
 2938 050a 2C000000 		.4byte	.LC2
 2939 050e 00       		.byte	0
 2940 050f 0C       		.uleb128 0xc
 2941 0510 DC000000 		.4byte	.LVL70
 2942 0514 AB150000 		.4byte	0x15ab
 2943 0518 0A       		.uleb128 0xa
 2944 0519 01       		.uleb128 0x1
 2945 051a 50       		.byte	0x50
 2946 051b 02       		.uleb128 0x2
 2947 051c 74       		.byte	0x74
 2948 051d 00       		.sleb128 0
 2949 051e 00       		.byte	0
 2950 051f 00       		.byte	0
 2951 0520 05       		.uleb128 0x5
 2952 0521 65020000 		.4byte	.LASF21
 2953 0525 01       		.byte	0x1
 2954 0526 CF       		.byte	0xcf
 2955 0527 00000000 		.4byte	.LFB68
 2956 052b 2C010000 		.4byte	.LFE68-.LFB68
 2957 052f 01       		.uleb128 0x1
 2958 0530 9C       		.byte	0x9c
 2959 0531 9E070000 		.4byte	0x79e
 2960 0535 09       		.uleb128 0x9
 2961 0536 08000000 		.4byte	.LVL71
 2962 053a 47150000 		.4byte	0x1547
 2963 053e 48050000 		.4byte	0x548
 2964 0542 0A       		.uleb128 0xa
 2965 0543 01       		.uleb128 0x1
 2966 0544 50       		.byte	0x50
 2967 0545 01       		.uleb128 0x1
ARM GAS  C:\Users\bamcg3\AppData\Local\Temp\ccfmEsNg.s 			page 67


 2968 0546 31       		.byte	0x31
 2969 0547 00       		.byte	0
 2970 0548 09       		.uleb128 0x9
 2971 0549 0E000000 		.4byte	.LVL72
 2972 054d B6150000 		.4byte	0x15b6
 2973 0551 5B050000 		.4byte	0x55b
 2974 0555 0A       		.uleb128 0xa
 2975 0556 01       		.uleb128 0x1
 2976 0557 50       		.byte	0x50
 2977 0558 01       		.uleb128 0x1
 2978 0559 30       		.byte	0x30
 2979 055a 00       		.byte	0
 2980 055b 09       		.uleb128 0x9
 2981 055c 14000000 		.4byte	.LVL73
 2982 0560 26150000 		.4byte	0x1526
 2983 0564 6E050000 		.4byte	0x56e
 2984 0568 0A       		.uleb128 0xa
 2985 0569 01       		.uleb128 0x1
 2986 056a 50       		.byte	0x50
 2987 056b 01       		.uleb128 0x1
 2988 056c 3A       		.byte	0x3a
 2989 056d 00       		.byte	0
 2990 056e 0B       		.uleb128 0xb
 2991 056f 18000000 		.4byte	.LVL74
 2992 0573 3C150000 		.4byte	0x153c
 2993 0577 09       		.uleb128 0x9
 2994 0578 26000000 		.4byte	.LVL76
 2995 057c 26150000 		.4byte	0x1526
 2996 0580 8A050000 		.4byte	0x58a
 2997 0584 0A       		.uleb128 0xa
 2998 0585 01       		.uleb128 0x1
 2999 0586 50       		.byte	0x50
 3000 0587 01       		.uleb128 0x1
 3001 0588 3A       		.byte	0x3a
 3002 0589 00       		.byte	0
 3003 058a 09       		.uleb128 0x9
 3004 058b 2C000000 		.4byte	.LVL77
 3005 058f B6150000 		.4byte	0x15b6
 3006 0593 9D050000 		.4byte	0x59d
 3007 0597 0A       		.uleb128 0xa
 3008 0598 01       		.uleb128 0x1
 3009 0599 50       		.byte	0x50
 3010 059a 01       		.uleb128 0x1
 3011 059b 31       		.byte	0x31
 3012 059c 00       		.byte	0
 3013 059d 09       		.uleb128 0x9
 3014 059e 32000000 		.4byte	.LVL78
 3015 05a2 26150000 		.4byte	0x1526
 3016 05a6 B0050000 		.4byte	0x5b0
 3017 05aa 0A       		.uleb128 0xa
 3018 05ab 01       		.uleb128 0x1
 3019 05ac 50       		.byte	0x50
 3020 05ad 01       		.uleb128 0x1
 3021 05ae 44       		.byte	0x44
 3022 05af 00       		.byte	0
 3023 05b0 09       		.uleb128 0x9
 3024 05b1 38000000 		.4byte	.LVL79
ARM GAS  C:\Users\bamcg3\AppData\Local\Temp\ccfmEsNg.s 			page 68


 3025 05b5 C1150000 		.4byte	0x15c1
 3026 05b9 C3050000 		.4byte	0x5c3
 3027 05bd 0A       		.uleb128 0xa
 3028 05be 01       		.uleb128 0x1
 3029 05bf 50       		.byte	0x50
 3030 05c0 01       		.uleb128 0x1
 3031 05c1 30       		.byte	0x30
 3032 05c2 00       		.byte	0
 3033 05c3 09       		.uleb128 0x9
 3034 05c4 3E000000 		.4byte	.LVL80
 3035 05c8 26150000 		.4byte	0x1526
 3036 05cc D6050000 		.4byte	0x5d6
 3037 05d0 0A       		.uleb128 0xa
 3038 05d1 01       		.uleb128 0x1
 3039 05d2 50       		.byte	0x50
 3040 05d3 01       		.uleb128 0x1
 3041 05d4 3A       		.byte	0x3a
 3042 05d5 00       		.byte	0
 3043 05d6 0B       		.uleb128 0xb
 3044 05d7 42000000 		.4byte	.LVL81
 3045 05db 3C150000 		.4byte	0x153c
 3046 05df 09       		.uleb128 0x9
 3047 05e0 50000000 		.4byte	.LVL83
 3048 05e4 26150000 		.4byte	0x1526
 3049 05e8 F2050000 		.4byte	0x5f2
 3050 05ec 0A       		.uleb128 0xa
 3051 05ed 01       		.uleb128 0x1
 3052 05ee 50       		.byte	0x50
 3053 05ef 01       		.uleb128 0x1
 3054 05f0 3A       		.byte	0x3a
 3055 05f1 00       		.byte	0
 3056 05f2 09       		.uleb128 0x9
 3057 05f3 56000000 		.4byte	.LVL84
 3058 05f7 C1150000 		.4byte	0x15c1
 3059 05fb 05060000 		.4byte	0x605
 3060 05ff 0A       		.uleb128 0xa
 3061 0600 01       		.uleb128 0x1
 3062 0601 50       		.byte	0x50
 3063 0602 01       		.uleb128 0x1
 3064 0603 31       		.byte	0x31
 3065 0604 00       		.byte	0
 3066 0605 09       		.uleb128 0x9
 3067 0606 5C000000 		.4byte	.LVL85
 3068 060a 26150000 		.4byte	0x1526
 3069 060e 18060000 		.4byte	0x618
 3070 0612 0A       		.uleb128 0xa
 3071 0613 01       		.uleb128 0x1
 3072 0614 50       		.byte	0x50
 3073 0615 01       		.uleb128 0x1
 3074 0616 44       		.byte	0x44
 3075 0617 00       		.byte	0
 3076 0618 09       		.uleb128 0x9
 3077 0619 62000000 		.4byte	.LVL86
 3078 061d CC150000 		.4byte	0x15cc
 3079 0621 2B060000 		.4byte	0x62b
 3080 0625 0A       		.uleb128 0xa
 3081 0626 01       		.uleb128 0x1
ARM GAS  C:\Users\bamcg3\AppData\Local\Temp\ccfmEsNg.s 			page 69


 3082 0627 50       		.byte	0x50
 3083 0628 01       		.uleb128 0x1
 3084 0629 30       		.byte	0x30
 3085 062a 00       		.byte	0
 3086 062b 09       		.uleb128 0x9
 3087 062c 68000000 		.4byte	.LVL87
 3088 0630 26150000 		.4byte	0x1526
 3089 0634 3E060000 		.4byte	0x63e
 3090 0638 0A       		.uleb128 0xa
 3091 0639 01       		.uleb128 0x1
 3092 063a 50       		.byte	0x50
 3093 063b 01       		.uleb128 0x1
 3094 063c 3A       		.byte	0x3a
 3095 063d 00       		.byte	0
 3096 063e 0B       		.uleb128 0xb
 3097 063f 6C000000 		.4byte	.LVL88
 3098 0643 3C150000 		.4byte	0x153c
 3099 0647 09       		.uleb128 0x9
 3100 0648 7A000000 		.4byte	.LVL90
 3101 064c 26150000 		.4byte	0x1526
 3102 0650 5A060000 		.4byte	0x65a
 3103 0654 0A       		.uleb128 0xa
 3104 0655 01       		.uleb128 0x1
 3105 0656 50       		.byte	0x50
 3106 0657 01       		.uleb128 0x1
 3107 0658 3A       		.byte	0x3a
 3108 0659 00       		.byte	0
 3109 065a 09       		.uleb128 0x9
 3110 065b 80000000 		.4byte	.LVL91
 3111 065f CC150000 		.4byte	0x15cc
 3112 0663 6D060000 		.4byte	0x66d
 3113 0667 0A       		.uleb128 0xa
 3114 0668 01       		.uleb128 0x1
 3115 0669 50       		.byte	0x50
 3116 066a 01       		.uleb128 0x1
 3117 066b 31       		.byte	0x31
 3118 066c 00       		.byte	0
 3119 066d 09       		.uleb128 0x9
 3120 066e 86000000 		.4byte	.LVL92
 3121 0672 26150000 		.4byte	0x1526
 3122 0676 80060000 		.4byte	0x680
 3123 067a 0A       		.uleb128 0xa
 3124 067b 01       		.uleb128 0x1
 3125 067c 50       		.byte	0x50
 3126 067d 01       		.uleb128 0x1
 3127 067e 44       		.byte	0x44
 3128 067f 00       		.byte	0
 3129 0680 0B       		.uleb128 0xb
 3130 0681 90000000 		.4byte	.LVL94
 3131 0685 94150000 		.4byte	0x1594
 3132 0689 09       		.uleb128 0x9
 3133 068a 9E000000 		.4byte	.LVL95
 3134 068e A0150000 		.4byte	0x15a0
 3135 0692 A6060000 		.4byte	0x6a6
 3136 0696 0A       		.uleb128 0xa
 3137 0697 01       		.uleb128 0x1
 3138 0698 50       		.byte	0x50
ARM GAS  C:\Users\bamcg3\AppData\Local\Temp\ccfmEsNg.s 			page 70


 3139 0699 02       		.uleb128 0x2
 3140 069a 74       		.byte	0x74
 3141 069b 00       		.sleb128 0
 3142 069c 0A       		.uleb128 0xa
 3143 069d 01       		.uleb128 0x1
 3144 069e 51       		.byte	0x51
 3145 069f 05       		.uleb128 0x5
 3146 06a0 03       		.byte	0x3
 3147 06a1 00000000 		.4byte	.LC0
 3148 06a5 00       		.byte	0
 3149 06a6 09       		.uleb128 0x9
 3150 06a7 A4000000 		.4byte	.LVL96
 3151 06ab AB150000 		.4byte	0x15ab
 3152 06af BA060000 		.4byte	0x6ba
 3153 06b3 0A       		.uleb128 0xa
 3154 06b4 01       		.uleb128 0x1
 3155 06b5 50       		.byte	0x50
 3156 06b6 02       		.uleb128 0x2
 3157 06b7 74       		.byte	0x74
 3158 06b8 00       		.sleb128 0
 3159 06b9 00       		.byte	0
 3160 06ba 0B       		.uleb128 0xb
 3161 06bb AE000000 		.4byte	.LVL98
 3162 06bf 94150000 		.4byte	0x1594
 3163 06c3 09       		.uleb128 0x9
 3164 06c4 BA000000 		.4byte	.LVL99
 3165 06c8 A0150000 		.4byte	0x15a0
 3166 06cc E0060000 		.4byte	0x6e0
 3167 06d0 0A       		.uleb128 0xa
 3168 06d1 01       		.uleb128 0x1
 3169 06d2 50       		.byte	0x50
 3170 06d3 02       		.uleb128 0x2
 3171 06d4 74       		.byte	0x74
 3172 06d5 00       		.sleb128 0
 3173 06d6 0A       		.uleb128 0xa
 3174 06d7 01       		.uleb128 0x1
 3175 06d8 51       		.byte	0x51
 3176 06d9 05       		.uleb128 0x5
 3177 06da 03       		.byte	0x3
 3178 06db 14000000 		.4byte	.LC1
 3179 06df 00       		.byte	0
 3180 06e0 09       		.uleb128 0x9
 3181 06e1 C0000000 		.4byte	.LVL100
 3182 06e5 AB150000 		.4byte	0x15ab
 3183 06e9 F4060000 		.4byte	0x6f4
 3184 06ed 0A       		.uleb128 0xa
 3185 06ee 01       		.uleb128 0x1
 3186 06ef 50       		.byte	0x50
 3187 06f0 02       		.uleb128 0x2
 3188 06f1 74       		.byte	0x74
 3189 06f2 00       		.sleb128 0
 3190 06f3 00       		.byte	0
 3191 06f4 0B       		.uleb128 0xb
 3192 06f5 CA000000 		.4byte	.LVL102
 3193 06f9 94150000 		.4byte	0x1594
 3194 06fd 09       		.uleb128 0x9
 3195 06fe D6000000 		.4byte	.LVL103
ARM GAS  C:\Users\bamcg3\AppData\Local\Temp\ccfmEsNg.s 			page 71


 3196 0702 A0150000 		.4byte	0x15a0
 3197 0706 1A070000 		.4byte	0x71a
 3198 070a 0A       		.uleb128 0xa
 3199 070b 01       		.uleb128 0x1
 3200 070c 50       		.byte	0x50
 3201 070d 02       		.uleb128 0x2
 3202 070e 74       		.byte	0x74
 3203 070f 00       		.sleb128 0
 3204 0710 0A       		.uleb128 0xa
 3205 0711 01       		.uleb128 0x1
 3206 0712 51       		.byte	0x51
 3207 0713 05       		.uleb128 0x5
 3208 0714 03       		.byte	0x3
 3209 0715 2C000000 		.4byte	.LC2
 3210 0719 00       		.byte	0
 3211 071a 09       		.uleb128 0x9
 3212 071b DC000000 		.4byte	.LVL104
 3213 071f AB150000 		.4byte	0x15ab
 3214 0723 2E070000 		.4byte	0x72e
 3215 0727 0A       		.uleb128 0xa
 3216 0728 01       		.uleb128 0x1
 3217 0729 50       		.byte	0x50
 3218 072a 02       		.uleb128 0x2
 3219 072b 74       		.byte	0x74
 3220 072c 00       		.sleb128 0
 3221 072d 00       		.byte	0
 3222 072e 09       		.uleb128 0x9
 3223 072f E2000000 		.4byte	.LVL105
 3224 0733 AB150000 		.4byte	0x15ab
 3225 0737 45070000 		.4byte	0x745
 3226 073b 0A       		.uleb128 0xa
 3227 073c 01       		.uleb128 0x1
 3228 073d 50       		.byte	0x50
 3229 073e 05       		.uleb128 0x5
 3230 073f 03       		.byte	0x3
 3231 0740 40000000 		.4byte	.LC3
 3232 0744 00       		.byte	0
 3233 0745 09       		.uleb128 0x9
 3234 0746 E8000000 		.4byte	.LVL106
 3235 074a AB150000 		.4byte	0x15ab
 3236 074e 5C070000 		.4byte	0x75c
 3237 0752 0A       		.uleb128 0xa
 3238 0753 01       		.uleb128 0x1
 3239 0754 50       		.byte	0x50
 3240 0755 05       		.uleb128 0x5
 3241 0756 03       		.byte	0x3
 3242 0757 50000000 		.4byte	.LC4
 3243 075b 00       		.byte	0
 3244 075c 09       		.uleb128 0x9
 3245 075d EE000000 		.4byte	.LVL107
 3246 0761 AB150000 		.4byte	0x15ab
 3247 0765 73070000 		.4byte	0x773
 3248 0769 0A       		.uleb128 0xa
 3249 076a 01       		.uleb128 0x1
 3250 076b 50       		.byte	0x50
 3251 076c 05       		.uleb128 0x5
 3252 076d 03       		.byte	0x3
ARM GAS  C:\Users\bamcg3\AppData\Local\Temp\ccfmEsNg.s 			page 72


 3253 076e 5C000000 		.4byte	.LC5
 3254 0772 00       		.byte	0
 3255 0773 09       		.uleb128 0x9
 3256 0774 F4000000 		.4byte	.LVL108
 3257 0778 AB150000 		.4byte	0x15ab
 3258 077c 8A070000 		.4byte	0x78a
 3259 0780 0A       		.uleb128 0xa
 3260 0781 01       		.uleb128 0x1
 3261 0782 50       		.byte	0x50
 3262 0783 05       		.uleb128 0x5
 3263 0784 03       		.byte	0x3
 3264 0785 6C000000 		.4byte	.LC6
 3265 0789 00       		.byte	0
 3266 078a 0C       		.uleb128 0xc
 3267 078b FA000000 		.4byte	.LVL109
 3268 078f AB150000 		.4byte	0x15ab
 3269 0793 0A       		.uleb128 0xa
 3270 0794 01       		.uleb128 0x1
 3271 0795 50       		.byte	0x50
 3272 0796 05       		.uleb128 0x5
 3273 0797 03       		.byte	0x3
 3274 0798 7C000000 		.4byte	.LC7
 3275 079c 00       		.byte	0
 3276 079d 00       		.byte	0
 3277 079e 11       		.uleb128 0x11
 3278 079f 8B000000 		.4byte	.LASF22
 3279 07a3 01       		.byte	0x1
 3280 07a4 0101     		.2byte	0x101
 3281 07a6 00000000 		.4byte	.LFB69
 3282 07aa AC000000 		.4byte	.LFE69-.LFB69
 3283 07ae 01       		.uleb128 0x1
 3284 07af 9C       		.byte	0x9c
 3285 07b0 18090000 		.4byte	0x918
 3286 07b4 09       		.uleb128 0x9
 3287 07b5 08000000 		.4byte	.LVL110
 3288 07b9 26150000 		.4byte	0x1526
 3289 07bd C7070000 		.4byte	0x7c7
 3290 07c1 0A       		.uleb128 0xa
 3291 07c2 01       		.uleb128 0x1
 3292 07c3 50       		.byte	0x50
 3293 07c4 01       		.uleb128 0x1
 3294 07c5 3A       		.byte	0x3a
 3295 07c6 00       		.byte	0
 3296 07c7 0B       		.uleb128 0xb
 3297 07c8 0C000000 		.4byte	.LVL111
 3298 07cc 3C150000 		.4byte	0x153c
 3299 07d0 09       		.uleb128 0x9
 3300 07d1 1A000000 		.4byte	.LVL113
 3301 07d5 26150000 		.4byte	0x1526
 3302 07d9 E3070000 		.4byte	0x7e3
 3303 07dd 0A       		.uleb128 0xa
 3304 07de 01       		.uleb128 0x1
 3305 07df 50       		.byte	0x50
 3306 07e0 01       		.uleb128 0x1
 3307 07e1 3A       		.byte	0x3a
 3308 07e2 00       		.byte	0
 3309 07e3 09       		.uleb128 0x9
ARM GAS  C:\Users\bamcg3\AppData\Local\Temp\ccfmEsNg.s 			page 73


 3310 07e4 20000000 		.4byte	.LVL114
 3311 07e8 73150000 		.4byte	0x1573
 3312 07ec F6070000 		.4byte	0x7f6
 3313 07f0 0A       		.uleb128 0xa
 3314 07f1 01       		.uleb128 0x1
 3315 07f2 50       		.byte	0x50
 3316 07f3 01       		.uleb128 0x1
 3317 07f4 31       		.byte	0x31
 3318 07f5 00       		.byte	0
 3319 07f6 09       		.uleb128 0x9
 3320 07f7 26000000 		.4byte	.LVL115
 3321 07fb 26150000 		.4byte	0x1526
 3322 07ff 09080000 		.4byte	0x809
 3323 0803 0A       		.uleb128 0xa
 3324 0804 01       		.uleb128 0x1
 3325 0805 50       		.byte	0x50
 3326 0806 01       		.uleb128 0x1
 3327 0807 3A       		.byte	0x3a
 3328 0808 00       		.byte	0
 3329 0809 0B       		.uleb128 0xb
 3330 080a 2A000000 		.4byte	.LVL116
 3331 080e 3C150000 		.4byte	0x153c
 3332 0812 09       		.uleb128 0x9
 3333 0813 38000000 		.4byte	.LVL118
 3334 0817 26150000 		.4byte	0x1526
 3335 081b 25080000 		.4byte	0x825
 3336 081f 0A       		.uleb128 0xa
 3337 0820 01       		.uleb128 0x1
 3338 0821 50       		.byte	0x50
 3339 0822 01       		.uleb128 0x1
 3340 0823 3A       		.byte	0x3a
 3341 0824 00       		.byte	0
 3342 0825 09       		.uleb128 0x9
 3343 0826 3E000000 		.4byte	.LVL119
 3344 082a 73150000 		.4byte	0x1573
 3345 082e 38080000 		.4byte	0x838
 3346 0832 0A       		.uleb128 0xa
 3347 0833 01       		.uleb128 0x1
 3348 0834 50       		.byte	0x50
 3349 0835 01       		.uleb128 0x1
 3350 0836 30       		.byte	0x30
 3351 0837 00       		.byte	0
 3352 0838 09       		.uleb128 0x9
 3353 0839 44000000 		.4byte	.LVL120
 3354 083d 26150000 		.4byte	0x1526
 3355 0841 4B080000 		.4byte	0x84b
 3356 0845 0A       		.uleb128 0xa
 3357 0846 01       		.uleb128 0x1
 3358 0847 50       		.byte	0x50
 3359 0848 01       		.uleb128 0x1
 3360 0849 44       		.byte	0x44
 3361 084a 00       		.byte	0
 3362 084b 09       		.uleb128 0x9
 3363 084c 4A000000 		.4byte	.LVL121
 3364 0850 7E150000 		.4byte	0x157e
 3365 0854 5E080000 		.4byte	0x85e
 3366 0858 0A       		.uleb128 0xa
ARM GAS  C:\Users\bamcg3\AppData\Local\Temp\ccfmEsNg.s 			page 74


 3367 0859 01       		.uleb128 0x1
 3368 085a 50       		.byte	0x50
 3369 085b 01       		.uleb128 0x1
 3370 085c 31       		.byte	0x31
 3371 085d 00       		.byte	0
 3372 085e 09       		.uleb128 0x9
 3373 085f 50000000 		.4byte	.LVL122
 3374 0863 26150000 		.4byte	0x1526
 3375 0867 71080000 		.4byte	0x871
 3376 086b 0A       		.uleb128 0xa
 3377 086c 01       		.uleb128 0x1
 3378 086d 50       		.byte	0x50
 3379 086e 01       		.uleb128 0x1
 3380 086f 3A       		.byte	0x3a
 3381 0870 00       		.byte	0
 3382 0871 0B       		.uleb128 0xb
 3383 0872 54000000 		.4byte	.LVL123
 3384 0876 3C150000 		.4byte	0x153c
 3385 087a 09       		.uleb128 0x9
 3386 087b 62000000 		.4byte	.LVL125
 3387 087f 26150000 		.4byte	0x1526
 3388 0883 8D080000 		.4byte	0x88d
 3389 0887 0A       		.uleb128 0xa
 3390 0888 01       		.uleb128 0x1
 3391 0889 50       		.byte	0x50
 3392 088a 01       		.uleb128 0x1
 3393 088b 3A       		.byte	0x3a
 3394 088c 00       		.byte	0
 3395 088d 09       		.uleb128 0x9
 3396 088e 68000000 		.4byte	.LVL126
 3397 0892 7E150000 		.4byte	0x157e
 3398 0896 A0080000 		.4byte	0x8a0
 3399 089a 0A       		.uleb128 0xa
 3400 089b 01       		.uleb128 0x1
 3401 089c 50       		.byte	0x50
 3402 089d 01       		.uleb128 0x1
 3403 089e 30       		.byte	0x30
 3404 089f 00       		.byte	0
 3405 08a0 09       		.uleb128 0x9
 3406 08a1 6E000000 		.4byte	.LVL127
 3407 08a5 26150000 		.4byte	0x1526
 3408 08a9 B3080000 		.4byte	0x8b3
 3409 08ad 0A       		.uleb128 0xa
 3410 08ae 01       		.uleb128 0x1
 3411 08af 50       		.byte	0x50
 3412 08b0 01       		.uleb128 0x1
 3413 08b1 44       		.byte	0x44
 3414 08b2 00       		.byte	0
 3415 08b3 09       		.uleb128 0x9
 3416 08b4 74000000 		.4byte	.LVL128
 3417 08b8 89150000 		.4byte	0x1589
 3418 08bc C6080000 		.4byte	0x8c6
 3419 08c0 0A       		.uleb128 0xa
 3420 08c1 01       		.uleb128 0x1
 3421 08c2 50       		.byte	0x50
 3422 08c3 01       		.uleb128 0x1
 3423 08c4 31       		.byte	0x31
ARM GAS  C:\Users\bamcg3\AppData\Local\Temp\ccfmEsNg.s 			page 75


 3424 08c5 00       		.byte	0
 3425 08c6 09       		.uleb128 0x9
 3426 08c7 7A000000 		.4byte	.LVL129
 3427 08cb 26150000 		.4byte	0x1526
 3428 08cf D9080000 		.4byte	0x8d9
 3429 08d3 0A       		.uleb128 0xa
 3430 08d4 01       		.uleb128 0x1
 3431 08d5 50       		.byte	0x50
 3432 08d6 01       		.uleb128 0x1
 3433 08d7 3A       		.byte	0x3a
 3434 08d8 00       		.byte	0
 3435 08d9 0B       		.uleb128 0xb
 3436 08da 7E000000 		.4byte	.LVL130
 3437 08de 3C150000 		.4byte	0x153c
 3438 08e2 09       		.uleb128 0x9
 3439 08e3 8C000000 		.4byte	.LVL132
 3440 08e7 26150000 		.4byte	0x1526
 3441 08eb F5080000 		.4byte	0x8f5
 3442 08ef 0A       		.uleb128 0xa
 3443 08f0 01       		.uleb128 0x1
 3444 08f1 50       		.byte	0x50
 3445 08f2 01       		.uleb128 0x1
 3446 08f3 3A       		.byte	0x3a
 3447 08f4 00       		.byte	0
 3448 08f5 09       		.uleb128 0x9
 3449 08f6 92000000 		.4byte	.LVL133
 3450 08fa 89150000 		.4byte	0x1589
 3451 08fe 08090000 		.4byte	0x908
 3452 0902 0A       		.uleb128 0xa
 3453 0903 01       		.uleb128 0x1
 3454 0904 50       		.byte	0x50
 3455 0905 01       		.uleb128 0x1
 3456 0906 30       		.byte	0x30
 3457 0907 00       		.byte	0
 3458 0908 0C       		.uleb128 0xc
 3459 0909 98000000 		.4byte	.LVL134
 3460 090d 26150000 		.4byte	0x1526
 3461 0911 0A       		.uleb128 0xa
 3462 0912 01       		.uleb128 0x1
 3463 0913 50       		.byte	0x50
 3464 0914 01       		.uleb128 0x1
 3465 0915 44       		.byte	0x44
 3466 0916 00       		.byte	0
 3467 0917 00       		.byte	0
 3468 0918 11       		.uleb128 0x11
 3469 0919 9D000000 		.4byte	.LASF23
 3470 091d 01       		.byte	0x1
 3471 091e 4601     		.2byte	0x146
 3472 0920 00000000 		.4byte	.LFB70
 3473 0924 AC000000 		.4byte	.LFE70-.LFB70
 3474 0928 01       		.uleb128 0x1
 3475 0929 9C       		.byte	0x9c
 3476 092a 920A0000 		.4byte	0xa92
 3477 092e 09       		.uleb128 0x9
 3478 092f 08000000 		.4byte	.LVL135
 3479 0933 26150000 		.4byte	0x1526
 3480 0937 41090000 		.4byte	0x941
ARM GAS  C:\Users\bamcg3\AppData\Local\Temp\ccfmEsNg.s 			page 76


 3481 093b 0A       		.uleb128 0xa
 3482 093c 01       		.uleb128 0x1
 3483 093d 50       		.byte	0x50
 3484 093e 01       		.uleb128 0x1
 3485 093f 3A       		.byte	0x3a
 3486 0940 00       		.byte	0
 3487 0941 0B       		.uleb128 0xb
 3488 0942 0C000000 		.4byte	.LVL136
 3489 0946 3C150000 		.4byte	0x153c
 3490 094a 09       		.uleb128 0x9
 3491 094b 1A000000 		.4byte	.LVL138
 3492 094f 26150000 		.4byte	0x1526
 3493 0953 5D090000 		.4byte	0x95d
 3494 0957 0A       		.uleb128 0xa
 3495 0958 01       		.uleb128 0x1
 3496 0959 50       		.byte	0x50
 3497 095a 01       		.uleb128 0x1
 3498 095b 3A       		.byte	0x3a
 3499 095c 00       		.byte	0
 3500 095d 09       		.uleb128 0x9
 3501 095e 20000000 		.4byte	.LVL139
 3502 0962 B6150000 		.4byte	0x15b6
 3503 0966 70090000 		.4byte	0x970
 3504 096a 0A       		.uleb128 0xa
 3505 096b 01       		.uleb128 0x1
 3506 096c 50       		.byte	0x50
 3507 096d 01       		.uleb128 0x1
 3508 096e 30       		.byte	0x30
 3509 096f 00       		.byte	0
 3510 0970 09       		.uleb128 0x9
 3511 0971 26000000 		.4byte	.LVL140
 3512 0975 26150000 		.4byte	0x1526
 3513 0979 83090000 		.4byte	0x983
 3514 097d 0A       		.uleb128 0xa
 3515 097e 01       		.uleb128 0x1
 3516 097f 50       		.byte	0x50
 3517 0980 01       		.uleb128 0x1
 3518 0981 3A       		.byte	0x3a
 3519 0982 00       		.byte	0
 3520 0983 0B       		.uleb128 0xb
 3521 0984 2A000000 		.4byte	.LVL141
 3522 0988 3C150000 		.4byte	0x153c
 3523 098c 09       		.uleb128 0x9
 3524 098d 38000000 		.4byte	.LVL143
 3525 0991 26150000 		.4byte	0x1526
 3526 0995 9F090000 		.4byte	0x99f
 3527 0999 0A       		.uleb128 0xa
 3528 099a 01       		.uleb128 0x1
 3529 099b 50       		.byte	0x50
 3530 099c 01       		.uleb128 0x1
 3531 099d 3A       		.byte	0x3a
 3532 099e 00       		.byte	0
 3533 099f 09       		.uleb128 0x9
 3534 09a0 3E000000 		.4byte	.LVL144
 3535 09a4 B6150000 		.4byte	0x15b6
 3536 09a8 B2090000 		.4byte	0x9b2
 3537 09ac 0A       		.uleb128 0xa
ARM GAS  C:\Users\bamcg3\AppData\Local\Temp\ccfmEsNg.s 			page 77


 3538 09ad 01       		.uleb128 0x1
 3539 09ae 50       		.byte	0x50
 3540 09af 01       		.uleb128 0x1
 3541 09b0 31       		.byte	0x31
 3542 09b1 00       		.byte	0
 3543 09b2 09       		.uleb128 0x9
 3544 09b3 44000000 		.4byte	.LVL145
 3545 09b7 26150000 		.4byte	0x1526
 3546 09bb C5090000 		.4byte	0x9c5
 3547 09bf 0A       		.uleb128 0xa
 3548 09c0 01       		.uleb128 0x1
 3549 09c1 50       		.byte	0x50
 3550 09c2 01       		.uleb128 0x1
 3551 09c3 44       		.byte	0x44
 3552 09c4 00       		.byte	0
 3553 09c5 09       		.uleb128 0x9
 3554 09c6 4A000000 		.4byte	.LVL146
 3555 09ca C1150000 		.4byte	0x15c1
 3556 09ce D8090000 		.4byte	0x9d8
 3557 09d2 0A       		.uleb128 0xa
 3558 09d3 01       		.uleb128 0x1
 3559 09d4 50       		.byte	0x50
 3560 09d5 01       		.uleb128 0x1
 3561 09d6 30       		.byte	0x30
 3562 09d7 00       		.byte	0
 3563 09d8 09       		.uleb128 0x9
 3564 09d9 50000000 		.4byte	.LVL147
 3565 09dd 26150000 		.4byte	0x1526
 3566 09e1 EB090000 		.4byte	0x9eb
 3567 09e5 0A       		.uleb128 0xa
 3568 09e6 01       		.uleb128 0x1
 3569 09e7 50       		.byte	0x50
 3570 09e8 01       		.uleb128 0x1
 3571 09e9 3A       		.byte	0x3a
 3572 09ea 00       		.byte	0
 3573 09eb 0B       		.uleb128 0xb
 3574 09ec 54000000 		.4byte	.LVL148
 3575 09f0 3C150000 		.4byte	0x153c
 3576 09f4 09       		.uleb128 0x9
 3577 09f5 62000000 		.4byte	.LVL150
 3578 09f9 26150000 		.4byte	0x1526
 3579 09fd 070A0000 		.4byte	0xa07
 3580 0a01 0A       		.uleb128 0xa
 3581 0a02 01       		.uleb128 0x1
 3582 0a03 50       		.byte	0x50
 3583 0a04 01       		.uleb128 0x1
 3584 0a05 3A       		.byte	0x3a
 3585 0a06 00       		.byte	0
 3586 0a07 09       		.uleb128 0x9
 3587 0a08 68000000 		.4byte	.LVL151
 3588 0a0c C1150000 		.4byte	0x15c1
 3589 0a10 1A0A0000 		.4byte	0xa1a
 3590 0a14 0A       		.uleb128 0xa
 3591 0a15 01       		.uleb128 0x1
 3592 0a16 50       		.byte	0x50
 3593 0a17 01       		.uleb128 0x1
 3594 0a18 31       		.byte	0x31
ARM GAS  C:\Users\bamcg3\AppData\Local\Temp\ccfmEsNg.s 			page 78


 3595 0a19 00       		.byte	0
 3596 0a1a 09       		.uleb128 0x9
 3597 0a1b 6E000000 		.4byte	.LVL152
 3598 0a1f 26150000 		.4byte	0x1526
 3599 0a23 2D0A0000 		.4byte	0xa2d
 3600 0a27 0A       		.uleb128 0xa
 3601 0a28 01       		.uleb128 0x1
 3602 0a29 50       		.byte	0x50
 3603 0a2a 01       		.uleb128 0x1
 3604 0a2b 44       		.byte	0x44
 3605 0a2c 00       		.byte	0
 3606 0a2d 09       		.uleb128 0x9
 3607 0a2e 74000000 		.4byte	.LVL153
 3608 0a32 CC150000 		.4byte	0x15cc
 3609 0a36 400A0000 		.4byte	0xa40
 3610 0a3a 0A       		.uleb128 0xa
 3611 0a3b 01       		.uleb128 0x1
 3612 0a3c 50       		.byte	0x50
 3613 0a3d 01       		.uleb128 0x1
 3614 0a3e 30       		.byte	0x30
 3615 0a3f 00       		.byte	0
 3616 0a40 09       		.uleb128 0x9
 3617 0a41 7A000000 		.4byte	.LVL154
 3618 0a45 26150000 		.4byte	0x1526
 3619 0a49 530A0000 		.4byte	0xa53
 3620 0a4d 0A       		.uleb128 0xa
 3621 0a4e 01       		.uleb128 0x1
 3622 0a4f 50       		.byte	0x50
 3623 0a50 01       		.uleb128 0x1
 3624 0a51 3A       		.byte	0x3a
 3625 0a52 00       		.byte	0
 3626 0a53 0B       		.uleb128 0xb
 3627 0a54 7E000000 		.4byte	.LVL155
 3628 0a58 3C150000 		.4byte	0x153c
 3629 0a5c 09       		.uleb128 0x9
 3630 0a5d 8C000000 		.4byte	.LVL157
 3631 0a61 26150000 		.4byte	0x1526
 3632 0a65 6F0A0000 		.4byte	0xa6f
 3633 0a69 0A       		.uleb128 0xa
 3634 0a6a 01       		.uleb128 0x1
 3635 0a6b 50       		.byte	0x50
 3636 0a6c 01       		.uleb128 0x1
 3637 0a6d 3A       		.byte	0x3a
 3638 0a6e 00       		.byte	0
 3639 0a6f 09       		.uleb128 0x9
 3640 0a70 92000000 		.4byte	.LVL158
 3641 0a74 CC150000 		.4byte	0x15cc
 3642 0a78 820A0000 		.4byte	0xa82
 3643 0a7c 0A       		.uleb128 0xa
 3644 0a7d 01       		.uleb128 0x1
 3645 0a7e 50       		.byte	0x50
 3646 0a7f 01       		.uleb128 0x1
 3647 0a80 31       		.byte	0x31
 3648 0a81 00       		.byte	0
 3649 0a82 0C       		.uleb128 0xc
 3650 0a83 98000000 		.4byte	.LVL159
 3651 0a87 26150000 		.4byte	0x1526
ARM GAS  C:\Users\bamcg3\AppData\Local\Temp\ccfmEsNg.s 			page 79


 3652 0a8b 0A       		.uleb128 0xa
 3653 0a8c 01       		.uleb128 0x1
 3654 0a8d 50       		.byte	0x50
 3655 0a8e 01       		.uleb128 0x1
 3656 0a8f 44       		.byte	0x44
 3657 0a90 00       		.byte	0
 3658 0a91 00       		.byte	0
 3659 0a92 11       		.uleb128 0x11
 3660 0a93 74020000 		.4byte	.LASF24
 3661 0a97 01       		.byte	0x1
 3662 0a98 6C01     		.2byte	0x16c
 3663 0a9a 00000000 		.4byte	.LFB71
 3664 0a9e C4010000 		.4byte	.LFE71-.LFB71
 3665 0aa2 01       		.uleb128 0x1
 3666 0aa3 9C       		.byte	0x9c
 3667 0aa4 F30C0000 		.4byte	0xcf3
 3668 0aa8 07       		.uleb128 0x7
 3669 0aa9 BA000000 		.4byte	.LBB4
 3670 0aad 0A010000 		.4byte	.LBE4-.LBB4
 3671 0ab1 690C0000 		.4byte	0xc69
 3672 0ab5 12       		.uleb128 0x12
 3673 0ab6 6D617800 		.ascii	"max\000"
 3674 0aba 01       		.byte	0x1
 3675 0abb 8A01     		.2byte	0x18a
 3676 0abd 68000000 		.4byte	0x68
 3677 0ac1 3E000000 		.4byte	.LLST2
 3678 0ac5 13       		.uleb128 0x13
 3679 0ac6 98030000 		.4byte	.LASF25
 3680 0aca 01       		.byte	0x1
 3681 0acb 8B01     		.2byte	0x18b
 3682 0acd 68000000 		.4byte	0x68
 3683 0ad1 7E000000 		.4byte	.LLST3
 3684 0ad5 14       		.uleb128 0x14
 3685 0ad6 00000000 		.4byte	.Ldebug_ranges0+0
 3686 0ada ED0A0000 		.4byte	0xaed
 3687 0ade 12       		.uleb128 0x12
 3688 0adf 6900     		.ascii	"i\000"
 3689 0ae1 01       		.byte	0x1
 3690 0ae2 8C01     		.2byte	0x18c
 3691 0ae4 68000000 		.4byte	0x68
 3692 0ae8 A8000000 		.4byte	.LLST4
 3693 0aec 00       		.byte	0
 3694 0aed 07       		.uleb128 0x7
 3695 0aee 64010000 		.4byte	.LBB7
 3696 0af2 0E000000 		.4byte	.LBE7-.LBB7
 3697 0af6 090B0000 		.4byte	0xb09
 3698 0afa 12       		.uleb128 0x12
 3699 0afb 6900     		.ascii	"i\000"
 3700 0afd 01       		.byte	0x1
 3701 0afe B401     		.2byte	0x1b4
 3702 0b00 68000000 		.4byte	0x68
 3703 0b04 C7000000 		.4byte	.LLST5
 3704 0b08 00       		.byte	0
 3705 0b09 09       		.uleb128 0x9
 3706 0b0a C0000000 		.4byte	.LVL173
 3707 0b0e AB150000 		.4byte	0x15ab
 3708 0b12 200B0000 		.4byte	0xb20
ARM GAS  C:\Users\bamcg3\AppData\Local\Temp\ccfmEsNg.s 			page 80


 3709 0b16 0A       		.uleb128 0xa
 3710 0b17 01       		.uleb128 0x1
 3711 0b18 50       		.byte	0x50
 3712 0b19 05       		.uleb128 0x5
 3713 0b1a 03       		.byte	0x3
 3714 0b1b 94000000 		.4byte	.LC13
 3715 0b1f 00       		.byte	0
 3716 0b20 09       		.uleb128 0x9
 3717 0b21 EE000000 		.4byte	.LVL179
 3718 0b25 AB150000 		.4byte	0x15ab
 3719 0b29 370B0000 		.4byte	0xb37
 3720 0b2d 0A       		.uleb128 0xa
 3721 0b2e 01       		.uleb128 0x1
 3722 0b2f 50       		.byte	0x50
 3723 0b30 05       		.uleb128 0x5
 3724 0b31 03       		.byte	0x3
 3725 0b32 7C000000 		.4byte	.LC7
 3726 0b36 00       		.byte	0
 3727 0b37 09       		.uleb128 0x9
 3728 0b38 F6000000 		.4byte	.LVL181
 3729 0b3c AB150000 		.4byte	0x15ab
 3730 0b40 4E0B0000 		.4byte	0xb4e
 3731 0b44 0A       		.uleb128 0xa
 3732 0b45 01       		.uleb128 0x1
 3733 0b46 50       		.byte	0x50
 3734 0b47 05       		.uleb128 0x5
 3735 0b48 03       		.byte	0x3
 3736 0b49 A8000000 		.4byte	.LC14
 3737 0b4d 00       		.byte	0
 3738 0b4e 09       		.uleb128 0x9
 3739 0b4f FC000000 		.4byte	.LVL182
 3740 0b53 31150000 		.4byte	0x1531
 3741 0b57 620B0000 		.4byte	0xb62
 3742 0b5b 0A       		.uleb128 0xa
 3743 0b5c 01       		.uleb128 0x1
 3744 0b5d 50       		.byte	0x50
 3745 0b5e 02       		.uleb128 0x2
 3746 0b5f 74       		.byte	0x74
 3747 0b60 00       		.sleb128 0
 3748 0b61 00       		.byte	0
 3749 0b62 0B       		.uleb128 0xb
 3750 0b63 00010000 		.4byte	.LVL183
 3751 0b67 52150000 		.4byte	0x1552
 3752 0b6b 09       		.uleb128 0x9
 3753 0b6c 08010000 		.4byte	.LVL184
 3754 0b70 26150000 		.4byte	0x1526
 3755 0b74 800B0000 		.4byte	0xb80
 3756 0b78 0A       		.uleb128 0xa
 3757 0b79 01       		.uleb128 0x1
 3758 0b7a 50       		.byte	0x50
 3759 0b7b 03       		.uleb128 0x3
 3760 0b7c 0A       		.byte	0xa
 3761 0b7d D007     		.2byte	0x7d0
 3762 0b7f 00       		.byte	0
 3763 0b80 0B       		.uleb128 0xb
 3764 0b81 0C010000 		.4byte	.LVL185
 3765 0b85 68150000 		.4byte	0x1568
ARM GAS  C:\Users\bamcg3\AppData\Local\Temp\ccfmEsNg.s 			page 81


 3766 0b89 09       		.uleb128 0x9
 3767 0b8a 14010000 		.4byte	.LVL186
 3768 0b8e 26150000 		.4byte	0x1526
 3769 0b92 9E0B0000 		.4byte	0xb9e
 3770 0b96 0A       		.uleb128 0xa
 3771 0b97 01       		.uleb128 0x1
 3772 0b98 50       		.byte	0x50
 3773 0b99 03       		.uleb128 0x3
 3774 0b9a 0A       		.byte	0xa
 3775 0b9b E803     		.2byte	0x3e8
 3776 0b9d 00       		.byte	0
 3777 0b9e 09       		.uleb128 0x9
 3778 0b9f 1C010000 		.4byte	.LVL188
 3779 0ba3 AB150000 		.4byte	0x15ab
 3780 0ba7 B50B0000 		.4byte	0xbb5
 3781 0bab 0A       		.uleb128 0xa
 3782 0bac 01       		.uleb128 0x1
 3783 0bad 50       		.byte	0x50
 3784 0bae 05       		.uleb128 0x5
 3785 0baf 03       		.byte	0x3
 3786 0bb0 B0000000 		.4byte	.LC15
 3787 0bb4 00       		.byte	0
 3788 0bb5 09       		.uleb128 0x9
 3789 0bb6 22010000 		.4byte	.LVL189
 3790 0bba 31150000 		.4byte	0x1531
 3791 0bbe C90B0000 		.4byte	0xbc9
 3792 0bc2 0A       		.uleb128 0xa
 3793 0bc3 01       		.uleb128 0x1
 3794 0bc4 50       		.byte	0x50
 3795 0bc5 02       		.uleb128 0x2
 3796 0bc6 74       		.byte	0x74
 3797 0bc7 00       		.sleb128 0
 3798 0bc8 00       		.byte	0
 3799 0bc9 0B       		.uleb128 0xb
 3800 0bca 26010000 		.4byte	.LVL190
 3801 0bce 52150000 		.4byte	0x1552
 3802 0bd2 09       		.uleb128 0x9
 3803 0bd3 2E010000 		.4byte	.LVL191
 3804 0bd7 26150000 		.4byte	0x1526
 3805 0bdb E70B0000 		.4byte	0xbe7
 3806 0bdf 0A       		.uleb128 0xa
 3807 0be0 01       		.uleb128 0x1
 3808 0be1 50       		.byte	0x50
 3809 0be2 03       		.uleb128 0x3
 3810 0be3 0A       		.byte	0xa
 3811 0be4 D007     		.2byte	0x7d0
 3812 0be6 00       		.byte	0
 3813 0be7 0B       		.uleb128 0xb
 3814 0be8 32010000 		.4byte	.LVL192
 3815 0bec 68150000 		.4byte	0x1568
 3816 0bf0 09       		.uleb128 0x9
 3817 0bf1 3A010000 		.4byte	.LVL193
 3818 0bf5 26150000 		.4byte	0x1526
 3819 0bf9 050C0000 		.4byte	0xc05
 3820 0bfd 0A       		.uleb128 0xa
 3821 0bfe 01       		.uleb128 0x1
 3822 0bff 50       		.byte	0x50
ARM GAS  C:\Users\bamcg3\AppData\Local\Temp\ccfmEsNg.s 			page 82


 3823 0c00 03       		.uleb128 0x3
 3824 0c01 0A       		.byte	0xa
 3825 0c02 E803     		.2byte	0x3e8
 3826 0c04 00       		.byte	0
 3827 0c05 09       		.uleb128 0x9
 3828 0c06 44010000 		.4byte	.LVL195
 3829 0c0a AB150000 		.4byte	0x15ab
 3830 0c0e 1C0C0000 		.4byte	0xc1c
 3831 0c12 0A       		.uleb128 0xa
 3832 0c13 01       		.uleb128 0x1
 3833 0c14 50       		.byte	0x50
 3834 0c15 05       		.uleb128 0x5
 3835 0c16 03       		.byte	0x3
 3836 0c17 B8000000 		.4byte	.LC16
 3837 0c1b 00       		.byte	0
 3838 0c1c 09       		.uleb128 0x9
 3839 0c1d 4A010000 		.4byte	.LVL196
 3840 0c21 31150000 		.4byte	0x1531
 3841 0c25 300C0000 		.4byte	0xc30
 3842 0c29 0A       		.uleb128 0xa
 3843 0c2a 01       		.uleb128 0x1
 3844 0c2b 50       		.byte	0x50
 3845 0c2c 02       		.uleb128 0x2
 3846 0c2d 74       		.byte	0x74
 3847 0c2e 00       		.sleb128 0
 3848 0c2f 00       		.byte	0
 3849 0c30 0B       		.uleb128 0xb
 3850 0c31 4E010000 		.4byte	.LVL197
 3851 0c35 52150000 		.4byte	0x1552
 3852 0c39 09       		.uleb128 0x9
 3853 0c3a 56010000 		.4byte	.LVL198
 3854 0c3e 26150000 		.4byte	0x1526
 3855 0c42 4E0C0000 		.4byte	0xc4e
 3856 0c46 0A       		.uleb128 0xa
 3857 0c47 01       		.uleb128 0x1
 3858 0c48 50       		.byte	0x50
 3859 0c49 03       		.uleb128 0x3
 3860 0c4a 0A       		.byte	0xa
 3861 0c4b D007     		.2byte	0x7d0
 3862 0c4d 00       		.byte	0
 3863 0c4e 0B       		.uleb128 0xb
 3864 0c4f 5A010000 		.4byte	.LVL199
 3865 0c53 68150000 		.4byte	0x1568
 3866 0c57 0C       		.uleb128 0xc
 3867 0c58 62010000 		.4byte	.LVL200
 3868 0c5c 26150000 		.4byte	0x1526
 3869 0c60 0A       		.uleb128 0xa
 3870 0c61 01       		.uleb128 0x1
 3871 0c62 50       		.byte	0x50
 3872 0c63 03       		.uleb128 0x3
 3873 0c64 0A       		.byte	0xa
 3874 0c65 E803     		.2byte	0x3e8
 3875 0c67 00       		.byte	0
 3876 0c68 00       		.byte	0
 3877 0c69 09       		.uleb128 0x9
 3878 0c6a 26000000 		.4byte	.LVL162
 3879 0c6e AB150000 		.4byte	0x15ab
ARM GAS  C:\Users\bamcg3\AppData\Local\Temp\ccfmEsNg.s 			page 83


 3880 0c72 800C0000 		.4byte	0xc80
 3881 0c76 0A       		.uleb128 0xa
 3882 0c77 01       		.uleb128 0x1
 3883 0c78 50       		.byte	0x50
 3884 0c79 05       		.uleb128 0x5
 3885 0c7a 03       		.byte	0x3
 3886 0c7b 80000000 		.4byte	.LC8
 3887 0c7f 00       		.byte	0
 3888 0c80 09       		.uleb128 0x9
 3889 0c81 5E000000 		.4byte	.LVL166
 3890 0c85 AB150000 		.4byte	0x15ab
 3891 0c89 970C0000 		.4byte	0xc97
 3892 0c8d 0A       		.uleb128 0xa
 3893 0c8e 01       		.uleb128 0x1
 3894 0c8f 50       		.byte	0x50
 3895 0c90 05       		.uleb128 0x5
 3896 0c91 03       		.byte	0x3
 3897 0c92 84000000 		.4byte	.LC9
 3898 0c96 00       		.byte	0
 3899 0c97 09       		.uleb128 0x9
 3900 0c98 84000000 		.4byte	.LVL169
 3901 0c9c AB150000 		.4byte	0x15ab
 3902 0ca0 AE0C0000 		.4byte	0xcae
 3903 0ca4 0A       		.uleb128 0xa
 3904 0ca5 01       		.uleb128 0x1
 3905 0ca6 50       		.byte	0x50
 3906 0ca7 05       		.uleb128 0x5
 3907 0ca8 03       		.byte	0x3
 3908 0ca9 88000000 		.4byte	.LC10
 3909 0cad 00       		.byte	0
 3910 0cae 09       		.uleb128 0x9
 3911 0caf 94000000 		.4byte	.LVL170
 3912 0cb3 AB150000 		.4byte	0x15ab
 3913 0cb7 C50C0000 		.4byte	0xcc5
 3914 0cbb 0A       		.uleb128 0xa
 3915 0cbc 01       		.uleb128 0x1
 3916 0cbd 50       		.byte	0x50
 3917 0cbe 05       		.uleb128 0x5
 3918 0cbf 03       		.byte	0x3
 3919 0cc0 8C000000 		.4byte	.LC11
 3920 0cc4 00       		.byte	0
 3921 0cc5 09       		.uleb128 0x9
 3922 0cc6 AE000000 		.4byte	.LVL171
 3923 0cca A0150000 		.4byte	0x15a0
 3924 0cce E20C0000 		.4byte	0xce2
 3925 0cd2 0A       		.uleb128 0xa
 3926 0cd3 01       		.uleb128 0x1
 3927 0cd4 50       		.byte	0x50
 3928 0cd5 02       		.uleb128 0x2
 3929 0cd6 75       		.byte	0x75
 3930 0cd7 00       		.sleb128 0
 3931 0cd8 0A       		.uleb128 0xa
 3932 0cd9 01       		.uleb128 0x1
 3933 0cda 51       		.byte	0x51
 3934 0cdb 05       		.uleb128 0x5
 3935 0cdc 03       		.byte	0x3
 3936 0cdd 90000000 		.4byte	.LC12
ARM GAS  C:\Users\bamcg3\AppData\Local\Temp\ccfmEsNg.s 			page 84


 3937 0ce1 00       		.byte	0
 3938 0ce2 0C       		.uleb128 0xc
 3939 0ce3 B4000000 		.4byte	.LVL172
 3940 0ce7 AB150000 		.4byte	0x15ab
 3941 0ceb 0A       		.uleb128 0xa
 3942 0cec 01       		.uleb128 0x1
 3943 0ced 50       		.byte	0x50
 3944 0cee 02       		.uleb128 0x2
 3945 0cef 75       		.byte	0x75
 3946 0cf0 00       		.sleb128 0
 3947 0cf1 00       		.byte	0
 3948 0cf2 00       		.byte	0
 3949 0cf3 11       		.uleb128 0x11
 3950 0cf4 CD000000 		.4byte	.LASF26
 3951 0cf8 01       		.byte	0x1
 3952 0cf9 BE01     		.2byte	0x1be
 3953 0cfb 00000000 		.4byte	.LFB72
 3954 0cff 1C010000 		.4byte	.LFE72-.LFB72
 3955 0d03 01       		.uleb128 0x1
 3956 0d04 9C       		.byte	0x9c
 3957 0d05 D90D0000 		.4byte	0xdd9
 3958 0d09 07       		.uleb128 0x7
 3959 0d0a AE000000 		.4byte	.LBB8
 3960 0d0e 26000000 		.4byte	.LBE8-.LBB8
 3961 0d12 520D0000 		.4byte	0xd52
 3962 0d16 12       		.uleb128 0x12
 3963 0d17 6900     		.ascii	"i\000"
 3964 0d19 01       		.byte	0x1
 3965 0d1a DD01     		.2byte	0x1dd
 3966 0d1c 68000000 		.4byte	0x68
 3967 0d20 DA000000 		.4byte	.LLST6
 3968 0d24 09       		.uleb128 0x9
 3969 0d25 C2000000 		.4byte	.LVL218
 3970 0d29 A0150000 		.4byte	0x15a0
 3971 0d2d 410D0000 		.4byte	0xd41
 3972 0d31 0A       		.uleb128 0xa
 3973 0d32 01       		.uleb128 0x1
 3974 0d33 50       		.byte	0x50
 3975 0d34 02       		.uleb128 0x2
 3976 0d35 76       		.byte	0x76
 3977 0d36 00       		.sleb128 0
 3978 0d37 0A       		.uleb128 0xa
 3979 0d38 01       		.uleb128 0x1
 3980 0d39 51       		.byte	0x51
 3981 0d3a 05       		.uleb128 0x5
 3982 0d3b 03       		.byte	0x3
 3983 0d3c 90000000 		.4byte	.LC12
 3984 0d40 00       		.byte	0
 3985 0d41 0C       		.uleb128 0xc
 3986 0d42 C8000000 		.4byte	.LVL219
 3987 0d46 AB150000 		.4byte	0x15ab
 3988 0d4a 0A       		.uleb128 0xa
 3989 0d4b 01       		.uleb128 0x1
 3990 0d4c 50       		.byte	0x50
 3991 0d4d 02       		.uleb128 0x2
 3992 0d4e 76       		.byte	0x76
 3993 0d4f 00       		.sleb128 0
ARM GAS  C:\Users\bamcg3\AppData\Local\Temp\ccfmEsNg.s 			page 85


 3994 0d50 00       		.byte	0
 3995 0d51 00       		.byte	0
 3996 0d52 09       		.uleb128 0x9
 3997 0d53 26000000 		.4byte	.LVL207
 3998 0d57 AB150000 		.4byte	0x15ab
 3999 0d5b 690D0000 		.4byte	0xd69
 4000 0d5f 0A       		.uleb128 0xa
 4001 0d60 01       		.uleb128 0x1
 4002 0d61 50       		.byte	0x50
 4003 0d62 05       		.uleb128 0x5
 4004 0d63 03       		.byte	0x3
 4005 0d64 80000000 		.4byte	.LC8
 4006 0d68 00       		.byte	0
 4007 0d69 09       		.uleb128 0x9
 4008 0d6a 5E000000 		.4byte	.LVL211
 4009 0d6e AB150000 		.4byte	0x15ab
 4010 0d72 800D0000 		.4byte	0xd80
 4011 0d76 0A       		.uleb128 0xa
 4012 0d77 01       		.uleb128 0x1
 4013 0d78 50       		.byte	0x50
 4014 0d79 05       		.uleb128 0x5
 4015 0d7a 03       		.byte	0x3
 4016 0d7b 84000000 		.4byte	.LC9
 4017 0d7f 00       		.byte	0
 4018 0d80 09       		.uleb128 0x9
 4019 0d81 84000000 		.4byte	.LVL214
 4020 0d85 AB150000 		.4byte	0x15ab
 4021 0d89 970D0000 		.4byte	0xd97
 4022 0d8d 0A       		.uleb128 0xa
 4023 0d8e 01       		.uleb128 0x1
 4024 0d8f 50       		.byte	0x50
 4025 0d90 05       		.uleb128 0x5
 4026 0d91 03       		.byte	0x3
 4027 0d92 88000000 		.4byte	.LC10
 4028 0d96 00       		.byte	0
 4029 0d97 09       		.uleb128 0x9
 4030 0d98 94000000 		.4byte	.LVL215
 4031 0d9c AB150000 		.4byte	0x15ab
 4032 0da0 AE0D0000 		.4byte	0xdae
 4033 0da4 0A       		.uleb128 0xa
 4034 0da5 01       		.uleb128 0x1
 4035 0da6 50       		.byte	0x50
 4036 0da7 05       		.uleb128 0x5
 4037 0da8 03       		.byte	0x3
 4038 0da9 8C000000 		.4byte	.LC11
 4039 0dad 00       		.byte	0
 4040 0dae 09       		.uleb128 0x9
 4041 0daf AE000000 		.4byte	.LVL216
 4042 0db3 AB150000 		.4byte	0x15ab
 4043 0db7 C50D0000 		.4byte	0xdc5
 4044 0dbb 0A       		.uleb128 0xa
 4045 0dbc 01       		.uleb128 0x1
 4046 0dbd 50       		.byte	0x50
 4047 0dbe 05       		.uleb128 0x5
 4048 0dbf 03       		.byte	0x3
 4049 0dc0 7C000000 		.4byte	.LC7
 4050 0dc4 00       		.byte	0
ARM GAS  C:\Users\bamcg3\AppData\Local\Temp\ccfmEsNg.s 			page 86


 4051 0dc5 0C       		.uleb128 0xc
 4052 0dc6 DA000000 		.4byte	.LVL221
 4053 0dca AB150000 		.4byte	0x15ab
 4054 0dce 0A       		.uleb128 0xa
 4055 0dcf 01       		.uleb128 0x1
 4056 0dd0 50       		.byte	0x50
 4057 0dd1 05       		.uleb128 0x5
 4058 0dd2 03       		.byte	0x3
 4059 0dd3 7C000000 		.4byte	.LC7
 4060 0dd7 00       		.byte	0
 4061 0dd8 00       		.byte	0
 4062 0dd9 11       		.uleb128 0x11
 4063 0dda B9020000 		.4byte	.LASF27
 4064 0dde 01       		.byte	0x1
 4065 0ddf 1402     		.2byte	0x214
 4066 0de1 00000000 		.4byte	.LFB73
 4067 0de5 C8010000 		.4byte	.LFE73-.LFB73
 4068 0de9 01       		.uleb128 0x1
 4069 0dea 9C       		.byte	0x9c
 4070 0deb 4C100000 		.4byte	0x104c
 4071 0def 07       		.uleb128 0x7
 4072 0df0 08000000 		.4byte	.LBB9
 4073 0df4 28000000 		.4byte	.LBE9-.LBB9
 4074 0df8 230E0000 		.4byte	0xe23
 4075 0dfc 12       		.uleb128 0x12
 4076 0dfd 6900     		.ascii	"i\000"
 4077 0dff 01       		.byte	0x1
 4078 0e00 1A02     		.2byte	0x21a
 4079 0e02 68000000 		.4byte	0x68
 4080 0e06 F9000000 		.4byte	.LLST7
 4081 0e0a 0B       		.uleb128 0xb
 4082 0e0b 10000000 		.4byte	.LVL225
 4083 0e0f 3C150000 		.4byte	0x153c
 4084 0e13 0C       		.uleb128 0xc
 4085 0e14 2A000000 		.4byte	.LVL228
 4086 0e18 26150000 		.4byte	0x1526
 4087 0e1c 0A       		.uleb128 0xa
 4088 0e1d 01       		.uleb128 0x1
 4089 0e1e 50       		.byte	0x50
 4090 0e1f 01       		.uleb128 0x1
 4091 0e20 3A       		.byte	0x3a
 4092 0e21 00       		.byte	0
 4093 0e22 00       		.byte	0
 4094 0e23 07       		.uleb128 0x7
 4095 0e24 4E000000 		.4byte	.LBB10
 4096 0e28 28000000 		.4byte	.LBE10-.LBB10
 4097 0e2c 570E0000 		.4byte	0xe57
 4098 0e30 12       		.uleb128 0x12
 4099 0e31 6900     		.ascii	"i\000"
 4100 0e33 01       		.byte	0x1
 4101 0e34 2702     		.2byte	0x227
 4102 0e36 68000000 		.4byte	0x68
 4103 0e3a 18010000 		.4byte	.LLST8
 4104 0e3e 0B       		.uleb128 0xb
 4105 0e3f 56000000 		.4byte	.LVL236
 4106 0e43 3C150000 		.4byte	0x153c
 4107 0e47 0C       		.uleb128 0xc
ARM GAS  C:\Users\bamcg3\AppData\Local\Temp\ccfmEsNg.s 			page 87


 4108 0e48 70000000 		.4byte	.LVL239
 4109 0e4c 26150000 		.4byte	0x1526
 4110 0e50 0A       		.uleb128 0xa
 4111 0e51 01       		.uleb128 0x1
 4112 0e52 50       		.byte	0x50
 4113 0e53 01       		.uleb128 0x1
 4114 0e54 3A       		.byte	0x3a
 4115 0e55 00       		.byte	0
 4116 0e56 00       		.byte	0
 4117 0e57 07       		.uleb128 0x7
 4118 0e58 9A000000 		.4byte	.LBB11
 4119 0e5c 28000000 		.4byte	.LBE11-.LBB11
 4120 0e60 8B0E0000 		.4byte	0xe8b
 4121 0e64 12       		.uleb128 0x12
 4122 0e65 6900     		.ascii	"i\000"
 4123 0e67 01       		.byte	0x1
 4124 0e68 3502     		.2byte	0x235
 4125 0e6a 68000000 		.4byte	0x68
 4126 0e6e 37010000 		.4byte	.LLST9
 4127 0e72 0B       		.uleb128 0xb
 4128 0e73 A2000000 		.4byte	.LVL248
 4129 0e77 3C150000 		.4byte	0x153c
 4130 0e7b 0C       		.uleb128 0xc
 4131 0e7c BC000000 		.4byte	.LVL251
 4132 0e80 26150000 		.4byte	0x1526
 4133 0e84 0A       		.uleb128 0xa
 4134 0e85 01       		.uleb128 0x1
 4135 0e86 50       		.byte	0x50
 4136 0e87 01       		.uleb128 0x1
 4137 0e88 3A       		.byte	0x3a
 4138 0e89 00       		.byte	0
 4139 0e8a 00       		.byte	0
 4140 0e8b 07       		.uleb128 0x7
 4141 0e8c E6000000 		.4byte	.LBB12
 4142 0e90 28000000 		.4byte	.LBE12-.LBB12
 4143 0e94 BF0E0000 		.4byte	0xebf
 4144 0e98 12       		.uleb128 0x12
 4145 0e99 6900     		.ascii	"i\000"
 4146 0e9b 01       		.byte	0x1
 4147 0e9c 4302     		.2byte	0x243
 4148 0e9e 68000000 		.4byte	0x68
 4149 0ea2 56010000 		.4byte	.LLST10
 4150 0ea6 0B       		.uleb128 0xb
 4151 0ea7 EE000000 		.4byte	.LVL260
 4152 0eab 3C150000 		.4byte	0x153c
 4153 0eaf 0C       		.uleb128 0xc
 4154 0eb0 08010000 		.4byte	.LVL263
 4155 0eb4 26150000 		.4byte	0x1526
 4156 0eb8 0A       		.uleb128 0xa
 4157 0eb9 01       		.uleb128 0x1
 4158 0eba 50       		.byte	0x50
 4159 0ebb 01       		.uleb128 0x1
 4160 0ebc 3A       		.byte	0x3a
 4161 0ebd 00       		.byte	0
 4162 0ebe 00       		.byte	0
 4163 0ebf 09       		.uleb128 0x9
 4164 0ec0 44000000 		.4byte	.LVL232
ARM GAS  C:\Users\bamcg3\AppData\Local\Temp\ccfmEsNg.s 			page 88


 4165 0ec4 26150000 		.4byte	0x1526
 4166 0ec8 D20E0000 		.4byte	0xed2
 4167 0ecc 0A       		.uleb128 0xa
 4168 0ecd 01       		.uleb128 0x1
 4169 0ece 50       		.byte	0x50
 4170 0ecf 01       		.uleb128 0x1
 4171 0ed0 44       		.byte	0x44
 4172 0ed1 00       		.byte	0
 4173 0ed2 09       		.uleb128 0x9
 4174 0ed3 4A000000 		.4byte	.LVL233
 4175 0ed7 7E150000 		.4byte	0x157e
 4176 0edb E50E0000 		.4byte	0xee5
 4177 0edf 0A       		.uleb128 0xa
 4178 0ee0 01       		.uleb128 0x1
 4179 0ee1 50       		.byte	0x50
 4180 0ee2 01       		.uleb128 0x1
 4181 0ee3 31       		.byte	0x31
 4182 0ee4 00       		.byte	0
 4183 0ee5 09       		.uleb128 0x9
 4184 0ee6 8A000000 		.4byte	.LVL243
 4185 0eea 7E150000 		.4byte	0x157e
 4186 0eee F80E0000 		.4byte	0xef8
 4187 0ef2 0A       		.uleb128 0xa
 4188 0ef3 01       		.uleb128 0x1
 4189 0ef4 50       		.byte	0x50
 4190 0ef5 01       		.uleb128 0x1
 4191 0ef6 30       		.byte	0x30
 4192 0ef7 00       		.byte	0
 4193 0ef8 09       		.uleb128 0x9
 4194 0ef9 90000000 		.4byte	.LVL244
 4195 0efd 26150000 		.4byte	0x1526
 4196 0f01 0B0F0000 		.4byte	0xf0b
 4197 0f05 0A       		.uleb128 0xa
 4198 0f06 01       		.uleb128 0x1
 4199 0f07 50       		.byte	0x50
 4200 0f08 01       		.uleb128 0x1
 4201 0f09 44       		.byte	0x44
 4202 0f0a 00       		.byte	0
 4203 0f0b 09       		.uleb128 0x9
 4204 0f0c 96000000 		.4byte	.LVL245
 4205 0f10 73150000 		.4byte	0x1573
 4206 0f14 1E0F0000 		.4byte	0xf1e
 4207 0f18 0A       		.uleb128 0xa
 4208 0f19 01       		.uleb128 0x1
 4209 0f1a 50       		.byte	0x50
 4210 0f1b 01       		.uleb128 0x1
 4211 0f1c 31       		.byte	0x31
 4212 0f1d 00       		.byte	0
 4213 0f1e 09       		.uleb128 0x9
 4214 0f1f D6000000 		.4byte	.LVL255
 4215 0f23 73150000 		.4byte	0x1573
 4216 0f27 310F0000 		.4byte	0xf31
 4217 0f2b 0A       		.uleb128 0xa
 4218 0f2c 01       		.uleb128 0x1
 4219 0f2d 50       		.byte	0x50
 4220 0f2e 01       		.uleb128 0x1
 4221 0f2f 30       		.byte	0x30
ARM GAS  C:\Users\bamcg3\AppData\Local\Temp\ccfmEsNg.s 			page 89


 4222 0f30 00       		.byte	0
 4223 0f31 09       		.uleb128 0x9
 4224 0f32 DC000000 		.4byte	.LVL256
 4225 0f36 26150000 		.4byte	0x1526
 4226 0f3a 440F0000 		.4byte	0xf44
 4227 0f3e 0A       		.uleb128 0xa
 4228 0f3f 01       		.uleb128 0x1
 4229 0f40 50       		.byte	0x50
 4230 0f41 01       		.uleb128 0x1
 4231 0f42 44       		.byte	0x44
 4232 0f43 00       		.byte	0
 4233 0f44 09       		.uleb128 0x9
 4234 0f45 E2000000 		.4byte	.LVL257
 4235 0f49 89150000 		.4byte	0x1589
 4236 0f4d 570F0000 		.4byte	0xf57
 4237 0f51 0A       		.uleb128 0xa
 4238 0f52 01       		.uleb128 0x1
 4239 0f53 50       		.byte	0x50
 4240 0f54 01       		.uleb128 0x1
 4241 0f55 31       		.byte	0x31
 4242 0f56 00       		.byte	0
 4243 0f57 09       		.uleb128 0x9
 4244 0f58 22010000 		.4byte	.LVL266
 4245 0f5c 89150000 		.4byte	0x1589
 4246 0f60 6A0F0000 		.4byte	0xf6a
 4247 0f64 0A       		.uleb128 0xa
 4248 0f65 01       		.uleb128 0x1
 4249 0f66 50       		.byte	0x50
 4250 0f67 01       		.uleb128 0x1
 4251 0f68 30       		.byte	0x30
 4252 0f69 00       		.byte	0
 4253 0f6a 09       		.uleb128 0x9
 4254 0f6b 28010000 		.4byte	.LVL267
 4255 0f6f 26150000 		.4byte	0x1526
 4256 0f73 7D0F0000 		.4byte	0xf7d
 4257 0f77 0A       		.uleb128 0xa
 4258 0f78 01       		.uleb128 0x1
 4259 0f79 50       		.byte	0x50
 4260 0f7a 01       		.uleb128 0x1
 4261 0f7b 44       		.byte	0x44
 4262 0f7c 00       		.byte	0
 4263 0f7d 09       		.uleb128 0x9
 4264 0f7e 40010000 		.4byte	.LVL270
 4265 0f82 A0150000 		.4byte	0x15a0
 4266 0f86 970F0000 		.4byte	0xf97
 4267 0f8a 0A       		.uleb128 0xa
 4268 0f8b 01       		.uleb128 0x1
 4269 0f8c 50       		.byte	0x50
 4270 0f8d 02       		.uleb128 0x2
 4271 0f8e 74       		.byte	0x74
 4272 0f8f 00       		.sleb128 0
 4273 0f90 0A       		.uleb128 0xa
 4274 0f91 01       		.uleb128 0x1
 4275 0f92 51       		.byte	0x51
 4276 0f93 02       		.uleb128 0x2
 4277 0f94 75       		.byte	0x75
 4278 0f95 00       		.sleb128 0
ARM GAS  C:\Users\bamcg3\AppData\Local\Temp\ccfmEsNg.s 			page 90


 4279 0f96 00       		.byte	0
 4280 0f97 09       		.uleb128 0x9
 4281 0f98 46010000 		.4byte	.LVL271
 4282 0f9c AB150000 		.4byte	0x15ab
 4283 0fa0 AB0F0000 		.4byte	0xfab
 4284 0fa4 0A       		.uleb128 0xa
 4285 0fa5 01       		.uleb128 0x1
 4286 0fa6 50       		.byte	0x50
 4287 0fa7 02       		.uleb128 0x2
 4288 0fa8 74       		.byte	0x74
 4289 0fa9 00       		.sleb128 0
 4290 0faa 00       		.byte	0
 4291 0fab 09       		.uleb128 0x9
 4292 0fac 5A010000 		.4byte	.LVL273
 4293 0fb0 A0150000 		.4byte	0x15a0
 4294 0fb4 C50F0000 		.4byte	0xfc5
 4295 0fb8 0A       		.uleb128 0xa
 4296 0fb9 01       		.uleb128 0x1
 4297 0fba 50       		.byte	0x50
 4298 0fbb 02       		.uleb128 0x2
 4299 0fbc 74       		.byte	0x74
 4300 0fbd 00       		.sleb128 0
 4301 0fbe 0A       		.uleb128 0xa
 4302 0fbf 01       		.uleb128 0x1
 4303 0fc0 51       		.byte	0x51
 4304 0fc1 02       		.uleb128 0x2
 4305 0fc2 75       		.byte	0x75
 4306 0fc3 00       		.sleb128 0
 4307 0fc4 00       		.byte	0
 4308 0fc5 09       		.uleb128 0x9
 4309 0fc6 60010000 		.4byte	.LVL274
 4310 0fca AB150000 		.4byte	0x15ab
 4311 0fce D90F0000 		.4byte	0xfd9
 4312 0fd2 0A       		.uleb128 0xa
 4313 0fd3 01       		.uleb128 0x1
 4314 0fd4 50       		.byte	0x50
 4315 0fd5 02       		.uleb128 0x2
 4316 0fd6 74       		.byte	0x74
 4317 0fd7 00       		.sleb128 0
 4318 0fd8 00       		.byte	0
 4319 0fd9 09       		.uleb128 0x9
 4320 0fda 72010000 		.4byte	.LVL276
 4321 0fde A0150000 		.4byte	0x15a0
 4322 0fe2 F30F0000 		.4byte	0xff3
 4323 0fe6 0A       		.uleb128 0xa
 4324 0fe7 01       		.uleb128 0x1
 4325 0fe8 50       		.byte	0x50
 4326 0fe9 02       		.uleb128 0x2
 4327 0fea 74       		.byte	0x74
 4328 0feb 00       		.sleb128 0
 4329 0fec 0A       		.uleb128 0xa
 4330 0fed 01       		.uleb128 0x1
 4331 0fee 51       		.byte	0x51
 4332 0fef 02       		.uleb128 0x2
 4333 0ff0 75       		.byte	0x75
 4334 0ff1 00       		.sleb128 0
 4335 0ff2 00       		.byte	0
ARM GAS  C:\Users\bamcg3\AppData\Local\Temp\ccfmEsNg.s 			page 91


 4336 0ff3 09       		.uleb128 0x9
 4337 0ff4 78010000 		.4byte	.LVL277
 4338 0ff8 AB150000 		.4byte	0x15ab
 4339 0ffc 07100000 		.4byte	0x1007
 4340 1000 0A       		.uleb128 0xa
 4341 1001 01       		.uleb128 0x1
 4342 1002 50       		.byte	0x50
 4343 1003 02       		.uleb128 0x2
 4344 1004 74       		.byte	0x74
 4345 1005 00       		.sleb128 0
 4346 1006 00       		.byte	0
 4347 1007 09       		.uleb128 0x9
 4348 1008 8C010000 		.4byte	.LVL279
 4349 100c A0150000 		.4byte	0x15a0
 4350 1010 24100000 		.4byte	0x1024
 4351 1014 0A       		.uleb128 0xa
 4352 1015 01       		.uleb128 0x1
 4353 1016 50       		.byte	0x50
 4354 1017 02       		.uleb128 0x2
 4355 1018 74       		.byte	0x74
 4356 1019 00       		.sleb128 0
 4357 101a 0A       		.uleb128 0xa
 4358 101b 01       		.uleb128 0x1
 4359 101c 51       		.byte	0x51
 4360 101d 05       		.uleb128 0x5
 4361 101e 03       		.byte	0x3
 4362 101f C8000000 		.4byte	.LC18
 4363 1023 00       		.byte	0
 4364 1024 09       		.uleb128 0x9
 4365 1025 92010000 		.4byte	.LVL280
 4366 1029 AB150000 		.4byte	0x15ab
 4367 102d 38100000 		.4byte	0x1038
 4368 1031 0A       		.uleb128 0xa
 4369 1032 01       		.uleb128 0x1
 4370 1033 50       		.byte	0x50
 4371 1034 02       		.uleb128 0x2
 4372 1035 74       		.byte	0x74
 4373 1036 00       		.sleb128 0
 4374 1037 00       		.byte	0
 4375 1038 0C       		.uleb128 0xc
 4376 1039 98010000 		.4byte	.LVL281
 4377 103d AB150000 		.4byte	0x15ab
 4378 1041 0A       		.uleb128 0xa
 4379 1042 01       		.uleb128 0x1
 4380 1043 50       		.byte	0x50
 4381 1044 05       		.uleb128 0x5
 4382 1045 03       		.byte	0x3
 4383 1046 7C000000 		.4byte	.LC7
 4384 104a 00       		.byte	0
 4385 104b 00       		.byte	0
 4386 104c 11       		.uleb128 0x11
 4387 104d D6020000 		.4byte	.LASF28
 4388 1051 01       		.byte	0x1
 4389 1052 6602     		.2byte	0x266
 4390 1054 00000000 		.4byte	.LFB74
 4391 1058 C8010000 		.4byte	.LFE74-.LFB74
 4392 105c 01       		.uleb128 0x1
ARM GAS  C:\Users\bamcg3\AppData\Local\Temp\ccfmEsNg.s 			page 92


 4393 105d 9C       		.byte	0x9c
 4394 105e BF120000 		.4byte	0x12bf
 4395 1062 07       		.uleb128 0x7
 4396 1063 08000000 		.4byte	.LBB13
 4397 1067 28000000 		.4byte	.LBE13-.LBB13
 4398 106b 96100000 		.4byte	0x1096
 4399 106f 12       		.uleb128 0x12
 4400 1070 6900     		.ascii	"i\000"
 4401 1072 01       		.byte	0x1
 4402 1073 6C02     		.2byte	0x26c
 4403 1075 68000000 		.4byte	0x68
 4404 1079 75010000 		.4byte	.LLST11
 4405 107d 0B       		.uleb128 0xb
 4406 107e 10000000 		.4byte	.LVL284
 4407 1082 3C150000 		.4byte	0x153c
 4408 1086 0C       		.uleb128 0xc
 4409 1087 2A000000 		.4byte	.LVL287
 4410 108b 26150000 		.4byte	0x1526
 4411 108f 0A       		.uleb128 0xa
 4412 1090 01       		.uleb128 0x1
 4413 1091 50       		.byte	0x50
 4414 1092 01       		.uleb128 0x1
 4415 1093 3A       		.byte	0x3a
 4416 1094 00       		.byte	0
 4417 1095 00       		.byte	0
 4418 1096 07       		.uleb128 0x7
 4419 1097 4E000000 		.4byte	.LBB14
 4420 109b 28000000 		.4byte	.LBE14-.LBB14
 4421 109f CA100000 		.4byte	0x10ca
 4422 10a3 12       		.uleb128 0x12
 4423 10a4 6900     		.ascii	"i\000"
 4424 10a6 01       		.byte	0x1
 4425 10a7 7902     		.2byte	0x279
 4426 10a9 68000000 		.4byte	0x68
 4427 10ad 94010000 		.4byte	.LLST12
 4428 10b1 0B       		.uleb128 0xb
 4429 10b2 56000000 		.4byte	.LVL295
 4430 10b6 3C150000 		.4byte	0x153c
 4431 10ba 0C       		.uleb128 0xc
 4432 10bb 70000000 		.4byte	.LVL298
 4433 10bf 26150000 		.4byte	0x1526
 4434 10c3 0A       		.uleb128 0xa
 4435 10c4 01       		.uleb128 0x1
 4436 10c5 50       		.byte	0x50
 4437 10c6 01       		.uleb128 0x1
 4438 10c7 3A       		.byte	0x3a
 4439 10c8 00       		.byte	0
 4440 10c9 00       		.byte	0
 4441 10ca 07       		.uleb128 0x7
 4442 10cb 9A000000 		.4byte	.LBB15
 4443 10cf 28000000 		.4byte	.LBE15-.LBB15
 4444 10d3 FE100000 		.4byte	0x10fe
 4445 10d7 12       		.uleb128 0x12
 4446 10d8 6900     		.ascii	"i\000"
 4447 10da 01       		.byte	0x1
 4448 10db 8702     		.2byte	0x287
 4449 10dd 68000000 		.4byte	0x68
ARM GAS  C:\Users\bamcg3\AppData\Local\Temp\ccfmEsNg.s 			page 93


 4450 10e1 B3010000 		.4byte	.LLST13
 4451 10e5 0B       		.uleb128 0xb
 4452 10e6 A2000000 		.4byte	.LVL307
 4453 10ea 3C150000 		.4byte	0x153c
 4454 10ee 0C       		.uleb128 0xc
 4455 10ef BC000000 		.4byte	.LVL310
 4456 10f3 26150000 		.4byte	0x1526
 4457 10f7 0A       		.uleb128 0xa
 4458 10f8 01       		.uleb128 0x1
 4459 10f9 50       		.byte	0x50
 4460 10fa 01       		.uleb128 0x1
 4461 10fb 3A       		.byte	0x3a
 4462 10fc 00       		.byte	0
 4463 10fd 00       		.byte	0
 4464 10fe 07       		.uleb128 0x7
 4465 10ff E6000000 		.4byte	.LBB16
 4466 1103 28000000 		.4byte	.LBE16-.LBB16
 4467 1107 32110000 		.4byte	0x1132
 4468 110b 12       		.uleb128 0x12
 4469 110c 6900     		.ascii	"i\000"
 4470 110e 01       		.byte	0x1
 4471 110f 9502     		.2byte	0x295
 4472 1111 68000000 		.4byte	0x68
 4473 1115 D2010000 		.4byte	.LLST14
 4474 1119 0B       		.uleb128 0xb
 4475 111a EE000000 		.4byte	.LVL319
 4476 111e 3C150000 		.4byte	0x153c
 4477 1122 0C       		.uleb128 0xc
 4478 1123 08010000 		.4byte	.LVL322
 4479 1127 26150000 		.4byte	0x1526
 4480 112b 0A       		.uleb128 0xa
 4481 112c 01       		.uleb128 0x1
 4482 112d 50       		.byte	0x50
 4483 112e 01       		.uleb128 0x1
 4484 112f 3A       		.byte	0x3a
 4485 1130 00       		.byte	0
 4486 1131 00       		.byte	0
 4487 1132 09       		.uleb128 0x9
 4488 1133 44000000 		.4byte	.LVL291
 4489 1137 26150000 		.4byte	0x1526
 4490 113b 45110000 		.4byte	0x1145
 4491 113f 0A       		.uleb128 0xa
 4492 1140 01       		.uleb128 0x1
 4493 1141 50       		.byte	0x50
 4494 1142 01       		.uleb128 0x1
 4495 1143 44       		.byte	0x44
 4496 1144 00       		.byte	0
 4497 1145 09       		.uleb128 0x9
 4498 1146 4A000000 		.4byte	.LVL292
 4499 114a C1150000 		.4byte	0x15c1
 4500 114e 58110000 		.4byte	0x1158
 4501 1152 0A       		.uleb128 0xa
 4502 1153 01       		.uleb128 0x1
 4503 1154 50       		.byte	0x50
 4504 1155 01       		.uleb128 0x1
 4505 1156 30       		.byte	0x30
 4506 1157 00       		.byte	0
ARM GAS  C:\Users\bamcg3\AppData\Local\Temp\ccfmEsNg.s 			page 94


 4507 1158 09       		.uleb128 0x9
 4508 1159 8A000000 		.4byte	.LVL302
 4509 115d C1150000 		.4byte	0x15c1
 4510 1161 6B110000 		.4byte	0x116b
 4511 1165 0A       		.uleb128 0xa
 4512 1166 01       		.uleb128 0x1
 4513 1167 50       		.byte	0x50
 4514 1168 01       		.uleb128 0x1
 4515 1169 31       		.byte	0x31
 4516 116a 00       		.byte	0
 4517 116b 09       		.uleb128 0x9
 4518 116c 90000000 		.4byte	.LVL303
 4519 1170 26150000 		.4byte	0x1526
 4520 1174 7E110000 		.4byte	0x117e
 4521 1178 0A       		.uleb128 0xa
 4522 1179 01       		.uleb128 0x1
 4523 117a 50       		.byte	0x50
 4524 117b 01       		.uleb128 0x1
 4525 117c 44       		.byte	0x44
 4526 117d 00       		.byte	0
 4527 117e 09       		.uleb128 0x9
 4528 117f 96000000 		.4byte	.LVL304
 4529 1183 B6150000 		.4byte	0x15b6
 4530 1187 91110000 		.4byte	0x1191
 4531 118b 0A       		.uleb128 0xa
 4532 118c 01       		.uleb128 0x1
 4533 118d 50       		.byte	0x50
 4534 118e 01       		.uleb128 0x1
 4535 118f 30       		.byte	0x30
 4536 1190 00       		.byte	0
 4537 1191 09       		.uleb128 0x9
 4538 1192 D6000000 		.4byte	.LVL314
 4539 1196 B6150000 		.4byte	0x15b6
 4540 119a A4110000 		.4byte	0x11a4
 4541 119e 0A       		.uleb128 0xa
 4542 119f 01       		.uleb128 0x1
 4543 11a0 50       		.byte	0x50
 4544 11a1 01       		.uleb128 0x1
 4545 11a2 31       		.byte	0x31
 4546 11a3 00       		.byte	0
 4547 11a4 09       		.uleb128 0x9
 4548 11a5 DC000000 		.4byte	.LVL315
 4549 11a9 26150000 		.4byte	0x1526
 4550 11ad B7110000 		.4byte	0x11b7
 4551 11b1 0A       		.uleb128 0xa
 4552 11b2 01       		.uleb128 0x1
 4553 11b3 50       		.byte	0x50
 4554 11b4 01       		.uleb128 0x1
 4555 11b5 44       		.byte	0x44
 4556 11b6 00       		.byte	0
 4557 11b7 09       		.uleb128 0x9
 4558 11b8 E2000000 		.4byte	.LVL316
 4559 11bc CC150000 		.4byte	0x15cc
 4560 11c0 CA110000 		.4byte	0x11ca
 4561 11c4 0A       		.uleb128 0xa
 4562 11c5 01       		.uleb128 0x1
 4563 11c6 50       		.byte	0x50
ARM GAS  C:\Users\bamcg3\AppData\Local\Temp\ccfmEsNg.s 			page 95


 4564 11c7 01       		.uleb128 0x1
 4565 11c8 30       		.byte	0x30
 4566 11c9 00       		.byte	0
 4567 11ca 09       		.uleb128 0x9
 4568 11cb 22010000 		.4byte	.LVL325
 4569 11cf CC150000 		.4byte	0x15cc
 4570 11d3 DD110000 		.4byte	0x11dd
 4571 11d7 0A       		.uleb128 0xa
 4572 11d8 01       		.uleb128 0x1
 4573 11d9 50       		.byte	0x50
 4574 11da 01       		.uleb128 0x1
 4575 11db 31       		.byte	0x31
 4576 11dc 00       		.byte	0
 4577 11dd 09       		.uleb128 0x9
 4578 11de 28010000 		.4byte	.LVL326
 4579 11e2 26150000 		.4byte	0x1526
 4580 11e6 F0110000 		.4byte	0x11f0
 4581 11ea 0A       		.uleb128 0xa
 4582 11eb 01       		.uleb128 0x1
 4583 11ec 50       		.byte	0x50
 4584 11ed 01       		.uleb128 0x1
 4585 11ee 44       		.byte	0x44
 4586 11ef 00       		.byte	0
 4587 11f0 09       		.uleb128 0x9
 4588 11f1 40010000 		.4byte	.LVL329
 4589 11f5 A0150000 		.4byte	0x15a0
 4590 11f9 0A120000 		.4byte	0x120a
 4591 11fd 0A       		.uleb128 0xa
 4592 11fe 01       		.uleb128 0x1
 4593 11ff 50       		.byte	0x50
 4594 1200 02       		.uleb128 0x2
 4595 1201 74       		.byte	0x74
 4596 1202 00       		.sleb128 0
 4597 1203 0A       		.uleb128 0xa
 4598 1204 01       		.uleb128 0x1
 4599 1205 51       		.byte	0x51
 4600 1206 02       		.uleb128 0x2
 4601 1207 75       		.byte	0x75
 4602 1208 00       		.sleb128 0
 4603 1209 00       		.byte	0
 4604 120a 09       		.uleb128 0x9
 4605 120b 46010000 		.4byte	.LVL330
 4606 120f AB150000 		.4byte	0x15ab
 4607 1213 1E120000 		.4byte	0x121e
 4608 1217 0A       		.uleb128 0xa
 4609 1218 01       		.uleb128 0x1
 4610 1219 50       		.byte	0x50
 4611 121a 02       		.uleb128 0x2
 4612 121b 74       		.byte	0x74
 4613 121c 00       		.sleb128 0
 4614 121d 00       		.byte	0
 4615 121e 09       		.uleb128 0x9
 4616 121f 5A010000 		.4byte	.LVL332
 4617 1223 A0150000 		.4byte	0x15a0
 4618 1227 38120000 		.4byte	0x1238
 4619 122b 0A       		.uleb128 0xa
 4620 122c 01       		.uleb128 0x1
ARM GAS  C:\Users\bamcg3\AppData\Local\Temp\ccfmEsNg.s 			page 96


 4621 122d 50       		.byte	0x50
 4622 122e 02       		.uleb128 0x2
 4623 122f 74       		.byte	0x74
 4624 1230 00       		.sleb128 0
 4625 1231 0A       		.uleb128 0xa
 4626 1232 01       		.uleb128 0x1
 4627 1233 51       		.byte	0x51
 4628 1234 02       		.uleb128 0x2
 4629 1235 75       		.byte	0x75
 4630 1236 00       		.sleb128 0
 4631 1237 00       		.byte	0
 4632 1238 09       		.uleb128 0x9
 4633 1239 60010000 		.4byte	.LVL333
 4634 123d AB150000 		.4byte	0x15ab
 4635 1241 4C120000 		.4byte	0x124c
 4636 1245 0A       		.uleb128 0xa
 4637 1246 01       		.uleb128 0x1
 4638 1247 50       		.byte	0x50
 4639 1248 02       		.uleb128 0x2
 4640 1249 74       		.byte	0x74
 4641 124a 00       		.sleb128 0
 4642 124b 00       		.byte	0
 4643 124c 09       		.uleb128 0x9
 4644 124d 72010000 		.4byte	.LVL335
 4645 1251 A0150000 		.4byte	0x15a0
 4646 1255 66120000 		.4byte	0x1266
 4647 1259 0A       		.uleb128 0xa
 4648 125a 01       		.uleb128 0x1
 4649 125b 50       		.byte	0x50
 4650 125c 02       		.uleb128 0x2
 4651 125d 74       		.byte	0x74
 4652 125e 00       		.sleb128 0
 4653 125f 0A       		.uleb128 0xa
 4654 1260 01       		.uleb128 0x1
 4655 1261 51       		.byte	0x51
 4656 1262 02       		.uleb128 0x2
 4657 1263 75       		.byte	0x75
 4658 1264 00       		.sleb128 0
 4659 1265 00       		.byte	0
 4660 1266 09       		.uleb128 0x9
 4661 1267 78010000 		.4byte	.LVL336
 4662 126b AB150000 		.4byte	0x15ab
 4663 126f 7A120000 		.4byte	0x127a
 4664 1273 0A       		.uleb128 0xa
 4665 1274 01       		.uleb128 0x1
 4666 1275 50       		.byte	0x50
 4667 1276 02       		.uleb128 0x2
 4668 1277 74       		.byte	0x74
 4669 1278 00       		.sleb128 0
 4670 1279 00       		.byte	0
 4671 127a 09       		.uleb128 0x9
 4672 127b 8C010000 		.4byte	.LVL338
 4673 127f A0150000 		.4byte	0x15a0
 4674 1283 97120000 		.4byte	0x1297
 4675 1287 0A       		.uleb128 0xa
 4676 1288 01       		.uleb128 0x1
 4677 1289 50       		.byte	0x50
ARM GAS  C:\Users\bamcg3\AppData\Local\Temp\ccfmEsNg.s 			page 97


 4678 128a 02       		.uleb128 0x2
 4679 128b 74       		.byte	0x74
 4680 128c 00       		.sleb128 0
 4681 128d 0A       		.uleb128 0xa
 4682 128e 01       		.uleb128 0x1
 4683 128f 51       		.byte	0x51
 4684 1290 05       		.uleb128 0x5
 4685 1291 03       		.byte	0x3
 4686 1292 C8000000 		.4byte	.LC18
 4687 1296 00       		.byte	0
 4688 1297 09       		.uleb128 0x9
 4689 1298 92010000 		.4byte	.LVL339
 4690 129c AB150000 		.4byte	0x15ab
 4691 12a0 AB120000 		.4byte	0x12ab
 4692 12a4 0A       		.uleb128 0xa
 4693 12a5 01       		.uleb128 0x1
 4694 12a6 50       		.byte	0x50
 4695 12a7 02       		.uleb128 0x2
 4696 12a8 74       		.byte	0x74
 4697 12a9 00       		.sleb128 0
 4698 12aa 00       		.byte	0
 4699 12ab 0C       		.uleb128 0xc
 4700 12ac 98010000 		.4byte	.LVL340
 4701 12b0 AB150000 		.4byte	0x15ab
 4702 12b4 0A       		.uleb128 0xa
 4703 12b5 01       		.uleb128 0x1
 4704 12b6 50       		.byte	0x50
 4705 12b7 05       		.uleb128 0x5
 4706 12b8 03       		.byte	0x3
 4707 12b9 7C000000 		.4byte	.LC7
 4708 12bd 00       		.byte	0
 4709 12be 00       		.byte	0
 4710 12bf 15       		.uleb128 0x15
 4711 12c0 05010000 		.4byte	.LASF30
 4712 12c4 01       		.byte	0x1
 4713 12c5 B802     		.2byte	0x2b8
 4714 12c7 68000000 		.4byte	0x68
 4715 12cb 00000000 		.4byte	.LFB75
 4716 12cf A8000000 		.4byte	.LFE75-.LFB75
 4717 12d3 01       		.uleb128 0x1
 4718 12d4 9C       		.byte	0x9c
 4719 12d5 A3130000 		.4byte	0x13a3
 4720 12d9 16       		.uleb128 0x16
 4721 12da 25030000 		.4byte	.LASF16
 4722 12de 01       		.byte	0x1
 4723 12df BE02     		.2byte	0x2be
 4724 12e1 02020000 		.4byte	0x202
 4725 12e5 02       		.uleb128 0x2
 4726 12e6 91       		.byte	0x91
 4727 12e7 60       		.sleb128 -32
 4728 12e8 07       		.uleb128 0x7
 4729 12e9 18000000 		.4byte	.LBB17
 4730 12ed 38000000 		.4byte	.LBE17-.LBB17
 4731 12f1 69130000 		.4byte	0x1369
 4732 12f5 12       		.uleb128 0x12
 4733 12f6 6900     		.ascii	"i\000"
 4734 12f8 01       		.byte	0x1
ARM GAS  C:\Users\bamcg3\AppData\Local\Temp\ccfmEsNg.s 			page 98


 4735 12f9 C102     		.2byte	0x2c1
 4736 12fb 68000000 		.4byte	0x68
 4737 12ff F1010000 		.4byte	.LLST15
 4738 1303 09       		.uleb128 0x9
 4739 1304 20000000 		.4byte	.LVL345
 4740 1308 26150000 		.4byte	0x1526
 4741 130c 16130000 		.4byte	0x1316
 4742 1310 0A       		.uleb128 0xa
 4743 1311 01       		.uleb128 0x1
 4744 1312 50       		.byte	0x50
 4745 1313 01       		.uleb128 0x1
 4746 1314 3A       		.byte	0x3a
 4747 1315 00       		.byte	0
 4748 1316 09       		.uleb128 0x9
 4749 1317 26000000 		.4byte	.LVL346
 4750 131b 31150000 		.4byte	0x1531
 4751 131f 2A130000 		.4byte	0x132a
 4752 1323 0A       		.uleb128 0xa
 4753 1324 01       		.uleb128 0x1
 4754 1325 50       		.byte	0x50
 4755 1326 02       		.uleb128 0x2
 4756 1327 74       		.byte	0x74
 4757 1328 00       		.sleb128 0
 4758 1329 00       		.byte	0
 4759 132a 0B       		.uleb128 0xb
 4760 132b 2A000000 		.4byte	.LVL347
 4761 132f 3C150000 		.4byte	0x153c
 4762 1333 09       		.uleb128 0x9
 4763 1334 3E000000 		.4byte	.LVL349
 4764 1338 26150000 		.4byte	0x1526
 4765 133c 46130000 		.4byte	0x1346
 4766 1340 0A       		.uleb128 0xa
 4767 1341 01       		.uleb128 0x1
 4768 1342 50       		.byte	0x50
 4769 1343 01       		.uleb128 0x1
 4770 1344 3A       		.byte	0x3a
 4771 1345 00       		.byte	0
 4772 1346 09       		.uleb128 0x9
 4773 1347 44000000 		.4byte	.LVL350
 4774 134b 31150000 		.4byte	0x1531
 4775 134f 59130000 		.4byte	0x1359
 4776 1353 0A       		.uleb128 0xa
 4777 1354 01       		.uleb128 0x1
 4778 1355 50       		.byte	0x50
 4779 1356 01       		.uleb128 0x1
 4780 1357 30       		.byte	0x30
 4781 1358 00       		.byte	0
 4782 1359 0C       		.uleb128 0xc
 4783 135a 4A000000 		.4byte	.LVL351
 4784 135e 26150000 		.4byte	0x1526
 4785 1362 0A       		.uleb128 0xa
 4786 1363 01       		.uleb128 0x1
 4787 1364 50       		.byte	0x50
 4788 1365 01       		.uleb128 0x1
 4789 1366 44       		.byte	0x44
 4790 1367 00       		.byte	0
 4791 1368 00       		.byte	0
ARM GAS  C:\Users\bamcg3\AppData\Local\Temp\ccfmEsNg.s 			page 99


 4792 1369 0B       		.uleb128 0xb
 4793 136a 08000000 		.4byte	.LVL341
 4794 136e 52150000 		.4byte	0x1552
 4795 1372 09       		.uleb128 0x9
 4796 1373 0E000000 		.4byte	.LVL342
 4797 1377 5D150000 		.4byte	0x155d
 4798 137b 86130000 		.4byte	0x1386
 4799 137f 0A       		.uleb128 0xa
 4800 1380 01       		.uleb128 0x1
 4801 1381 50       		.byte	0x50
 4802 1382 02       		.uleb128 0x2
 4803 1383 09       		.byte	0x9
 4804 1384 FF       		.byte	0xff
 4805 1385 00       		.byte	0
 4806 1386 09       		.uleb128 0x9
 4807 1387 6E000000 		.4byte	.LVL354
 4808 138b 5D150000 		.4byte	0x155d
 4809 138f 99130000 		.4byte	0x1399
 4810 1393 0A       		.uleb128 0xa
 4811 1394 01       		.uleb128 0x1
 4812 1395 50       		.byte	0x50
 4813 1396 01       		.uleb128 0x1
 4814 1397 3A       		.byte	0x3a
 4815 1398 00       		.byte	0
 4816 1399 0B       		.uleb128 0xb
 4817 139a 72000000 		.4byte	.LVL355
 4818 139e 68150000 		.4byte	0x1568
 4819 13a2 00       		.byte	0
 4820 13a3 17       		.uleb128 0x17
 4821 13a4 B6030000 		.4byte	.LASF31
 4822 13a8 04       		.byte	0x4
 4823 13a9 1207     		.2byte	0x712
 4824 13ab AF130000 		.4byte	0x13af
 4825 13af 18       		.uleb128 0x18
 4826 13b0 76000000 		.4byte	0x76
 4827 13b4 19       		.uleb128 0x19
 4828 13b5 81020000 		.4byte	.LASF32
 4829 13b9 01       		.byte	0x1
 4830 13ba 18       		.byte	0x18
 4831 13bb C5130000 		.4byte	0x13c5
 4832 13bf 05       		.uleb128 0x5
 4833 13c0 03       		.byte	0x3
 4834 13c1 00000000 		.4byte	trans
 4835 13c5 1A       		.uleb128 0x1a
 4836 13c6 81000000 		.4byte	0x81
 4837 13ca 19       		.uleb128 0x19
 4838 13cb DF000000 		.4byte	.LASF33
 4839 13cf 01       		.byte	0x1
 4840 13d0 1E       		.byte	0x1e
 4841 13d1 81000000 		.4byte	0x81
 4842 13d5 05       		.uleb128 0x5
 4843 13d6 03       		.byte	0x3
 4844 13d7 00000000 		.4byte	pd_voltage
 4845 13db 19       		.uleb128 0x19
 4846 13dc 6F010000 		.4byte	.LASF34
 4847 13e0 01       		.byte	0x1
 4848 13e1 1F       		.byte	0x1f
ARM GAS  C:\Users\bamcg3\AppData\Local\Temp\ccfmEsNg.s 			page 100


 4849 13e2 81000000 		.4byte	0x81
 4850 13e6 05       		.uleb128 0x5
 4851 13e7 03       		.byte	0x3
 4852 13e8 00000000 		.4byte	input_current
 4853 13ec 0D       		.uleb128 0xd
 4854 13ed 81000000 		.4byte	0x81
 4855 13f1 FC130000 		.4byte	0x13fc
 4856 13f5 0E       		.uleb128 0xe
 4857 13f6 9D000000 		.4byte	0x9d
 4858 13fa 08       		.byte	0x8
 4859 13fb 00       		.byte	0
 4860 13fc 19       		.uleb128 0x19
 4861 13fd 27000000 		.4byte	.LASF35
 4862 1401 01       		.byte	0x1
 4863 1402 20       		.byte	0x20
 4864 1403 EC130000 		.4byte	0x13ec
 4865 1407 05       		.uleb128 0x5
 4866 1408 03       		.byte	0x3
 4867 1409 00000000 		.4byte	stored
 4868 140d 1B       		.uleb128 0x1b
 4869 140e 73756D00 		.ascii	"sum\000"
 4870 1412 01       		.byte	0x1
 4871 1413 21       		.byte	0x21
 4872 1414 81000000 		.4byte	0x81
 4873 1418 05       		.uleb128 0x5
 4874 1419 03       		.byte	0x3
 4875 141a 00000000 		.4byte	sum
 4876 141e 0D       		.uleb128 0xd
 4877 141f 8F000000 		.4byte	0x8f
 4878 1423 2E140000 		.4byte	0x142e
 4879 1427 0E       		.uleb128 0xe
 4880 1428 9D000000 		.4byte	0x9d
 4881 142c 1F       		.byte	0x1f
 4882 142d 00       		.byte	0
 4883 142e 19       		.uleb128 0x19
 4884 142f 91030000 		.4byte	.LASF36
 4885 1433 01       		.byte	0x1
 4886 1434 22       		.byte	0x22
 4887 1435 1E140000 		.4byte	0x141e
 4888 1439 05       		.uleb128 0x5
 4889 143a 03       		.byte	0x3
 4890 143b 00000000 		.4byte	output
 4891 143f 19       		.uleb128 0x19
 4892 1440 6F000000 		.4byte	.LASF37
 4893 1444 01       		.byte	0x1
 4894 1445 23       		.byte	0x23
 4895 1446 81000000 		.4byte	0x81
 4896 144a 05       		.uleb128 0x5
 4897 144b 03       		.byte	0x3
 4898 144c 00000000 		.4byte	ambient_current
 4899 1450 19       		.uleb128 0x19
 4900 1451 00000000 		.4byte	.LASF38
 4901 1455 01       		.byte	0x1
 4902 1456 26       		.byte	0x26
 4903 1457 81000000 		.4byte	0x81
 4904 145b 05       		.uleb128 0x5
 4905 145c 03       		.byte	0x3
ARM GAS  C:\Users\bamcg3\AppData\Local\Temp\ccfmEsNg.s 			page 101


 4906 145d 00000000 		.4byte	ambient_white
 4907 1461 19       		.uleb128 0x19
 4908 1462 F3020000 		.4byte	.LASF39
 4909 1466 01       		.byte	0x1
 4910 1467 27       		.byte	0x27
 4911 1468 81000000 		.4byte	0x81
 4912 146c 05       		.uleb128 0x5
 4913 146d 03       		.byte	0x3
 4914 146e 00000000 		.4byte	ambient_red
 4915 1472 19       		.uleb128 0x19
 4916 1473 3A020000 		.4byte	.LASF40
 4917 1477 01       		.byte	0x1
 4918 1478 28       		.byte	0x28
 4919 1479 81000000 		.4byte	0x81
 4920 147d 05       		.uleb128 0x5
 4921 147e 03       		.byte	0x3
 4922 147f 00000000 		.4byte	ambient_green
 4923 1483 19       		.uleb128 0x19
 4924 1484 EA000000 		.4byte	.LASF41
 4925 1488 01       		.byte	0x1
 4926 1489 29       		.byte	0x29
 4927 148a 81000000 		.4byte	0x81
 4928 148e 05       		.uleb128 0x5
 4929 148f 03       		.byte	0x3
 4930 1490 00000000 		.4byte	ambient_blue
 4931 1494 19       		.uleb128 0x19
 4932 1495 AE020000 		.4byte	.LASF42
 4933 1499 01       		.byte	0x1
 4934 149a 2B       		.byte	0x2b
 4935 149b 81000000 		.4byte	0x81
 4936 149f 05       		.uleb128 0x5
 4937 14a0 03       		.byte	0x3
 4938 14a1 00000000 		.4byte	test_white
 4939 14a5 19       		.uleb128 0x19
 4940 14a6 08020000 		.4byte	.LASF43
 4941 14aa 01       		.byte	0x1
 4942 14ab 2C       		.byte	0x2c
 4943 14ac 81000000 		.4byte	0x81
 4944 14b0 05       		.uleb128 0x5
 4945 14b1 03       		.byte	0x3
 4946 14b2 00000000 		.4byte	test_red
 4947 14b6 19       		.uleb128 0x19
 4948 14b7 5B000000 		.4byte	.LASF44
 4949 14bb 01       		.byte	0x1
 4950 14bc 2D       		.byte	0x2d
 4951 14bd 81000000 		.4byte	0x81
 4952 14c1 05       		.uleb128 0x5
 4953 14c2 03       		.byte	0x3
 4954 14c3 00000000 		.4byte	test_green
 4955 14c7 19       		.uleb128 0x19
 4956 14c8 4D010000 		.4byte	.LASF45
 4957 14cc 01       		.byte	0x1
 4958 14cd 2E       		.byte	0x2e
 4959 14ce 81000000 		.4byte	0x81
 4960 14d2 05       		.uleb128 0x5
 4961 14d3 03       		.byte	0x3
 4962 14d4 00000000 		.4byte	test_blue
ARM GAS  C:\Users\bamcg3\AppData\Local\Temp\ccfmEsNg.s 			page 102


 4963 14d8 1C       		.uleb128 0x1c
 4964 14d9 57010000 		.4byte	.LASF46
 4965 14dd 01       		.byte	0x1
 4966 14de 30       		.byte	0x30
 4967 14df 68000000 		.4byte	0x68
 4968 14e3 0D       		.uleb128 0xd
 4969 14e4 68000000 		.4byte	0x68
 4970 14e8 F3140000 		.4byte	0x14f3
 4971 14ec 0E       		.uleb128 0xe
 4972 14ed 9D000000 		.4byte	0x9d
 4973 14f1 03       		.byte	0x3
 4974 14f2 00       		.byte	0
 4975 14f3 19       		.uleb128 0x19
 4976 14f4 66000000 		.4byte	.LASF47
 4977 14f8 01       		.byte	0x1
 4978 14f9 32       		.byte	0x32
 4979 14fa E3140000 		.4byte	0x14e3
 4980 14fe 05       		.uleb128 0x5
 4981 14ff 03       		.byte	0x3
 4982 1500 00000000 		.4byte	puck_all
 4983 1504 19       		.uleb128 0x19
 4984 1505 63030000 		.4byte	.LASF48
 4985 1509 01       		.byte	0x1
 4986 150a 37       		.byte	0x37
 4987 150b 68000000 		.4byte	0x68
 4988 150f 05       		.uleb128 0x5
 4989 1510 03       		.byte	0x3
 4990 1511 00000000 		.4byte	puck_output
 4991 1515 19       		.uleb128 0x19
 4992 1516 74040000 		.4byte	.LASF49
 4993 151a 01       		.byte	0x1
 4994 151b 39       		.byte	0x39
 4995 151c 81000000 		.4byte	0x81
 4996 1520 05       		.uleb128 0x5
 4997 1521 03       		.byte	0x3
 4998 1522 00000000 		.4byte	colour_output
 4999 1526 1D       		.uleb128 0x1d
 5000 1527 51040000 		.4byte	.LASF50
 5001 152b 51040000 		.4byte	.LASF50
 5002 152f 05       		.byte	0x5
 5003 1530 76       		.byte	0x76
 5004 1531 1D       		.uleb128 0x1d
 5005 1532 28020000 		.4byte	.LASF51
 5006 1536 28020000 		.4byte	.LASF51
 5007 153a 06       		.byte	0x6
 5008 153b 2F       		.byte	0x2f
 5009 153c 1D       		.uleb128 0x1d
 5010 153d 2E000000 		.4byte	.LASF52
 5011 1541 2E000000 		.4byte	.LASF52
 5012 1545 07       		.byte	0x7
 5013 1546 56       		.byte	0x56
 5014 1547 1D       		.uleb128 0x1d
 5015 1548 34010000 		.4byte	.LASF53
 5016 154c 34010000 		.4byte	.LASF53
 5017 1550 08       		.byte	0x8
 5018 1551 2F       		.byte	0x2f
 5019 1552 1D       		.uleb128 0x1d
ARM GAS  C:\Users\bamcg3\AppData\Local\Temp\ccfmEsNg.s 			page 103


 5020 1553 FF020000 		.4byte	.LASF54
 5021 1557 FF020000 		.4byte	.LASF54
 5022 155b 09       		.byte	0x9
 5023 155c DD       		.byte	0xdd
 5024 155d 1D       		.uleb128 0x1d
 5025 155e 6F030000 		.4byte	.LASF55
 5026 1562 6F030000 		.4byte	.LASF55
 5027 1566 09       		.byte	0x9
 5028 1567 C3       		.byte	0xc3
 5029 1568 1D       		.uleb128 0x1d
 5030 1569 1B010000 		.4byte	.LASF56
 5031 156d 1B010000 		.4byte	.LASF56
 5032 1571 09       		.byte	0x9
 5033 1572 DC       		.byte	0xdc
 5034 1573 1D       		.uleb128 0x1d
 5035 1574 A8030000 		.4byte	.LASF57
 5036 1578 A8030000 		.4byte	.LASF57
 5037 157c 0A       		.byte	0xa
 5038 157d 26       		.byte	0x26
 5039 157e 1D       		.uleb128 0x1d
 5040 157f 4C000000 		.4byte	.LASF58
 5041 1583 4C000000 		.4byte	.LASF58
 5042 1587 0B       		.byte	0xb
 5043 1588 26       		.byte	0x26
 5044 1589 1D       		.uleb128 0x1d
 5045 158a 55020000 		.4byte	.LASF59
 5046 158e 55020000 		.4byte	.LASF59
 5047 1592 0C       		.byte	0xc
 5048 1593 26       		.byte	0x26
 5049 1594 1E       		.uleb128 0x1e
 5050 1595 7F000000 		.4byte	.LASF60
 5051 1599 7F000000 		.4byte	.LASF60
 5052 159d 0D       		.byte	0xd
 5053 159e 4B01     		.2byte	0x14b
 5054 15a0 1D       		.uleb128 0x1d
 5055 15a1 8B010000 		.4byte	.LASF61
 5056 15a5 8B010000 		.4byte	.LASF61
 5057 15a9 0E       		.byte	0xe
 5058 15aa E7       		.byte	0xe7
 5059 15ab 1D       		.uleb128 0x1d
 5060 15ac 52030000 		.4byte	.LASF62
 5061 15b0 52030000 		.4byte	.LASF62
 5062 15b4 0F       		.byte	0xf
 5063 15b5 8B       		.byte	0x8b
 5064 15b6 1D       		.uleb128 0x1d
 5065 15b7 AF000000 		.4byte	.LASF63
 5066 15bb AF000000 		.4byte	.LASF63
 5067 15bf 10       		.byte	0x10
 5068 15c0 26       		.byte	0x26
 5069 15c1 1D       		.uleb128 0x1d
 5070 15c2 2A030000 		.4byte	.LASF64
 5071 15c6 2A030000 		.4byte	.LASF64
 5072 15ca 11       		.byte	0x11
 5073 15cb 26       		.byte	0x26
 5074 15cc 1D       		.uleb128 0x1d
 5075 15cd BD000000 		.4byte	.LASF65
 5076 15d1 BD000000 		.4byte	.LASF65
ARM GAS  C:\Users\bamcg3\AppData\Local\Temp\ccfmEsNg.s 			page 104


 5077 15d5 12       		.byte	0x12
 5078 15d6 26       		.byte	0x26
 5079 15d7 00       		.byte	0
 5080              		.section	.debug_abbrev,"",%progbits
 5081              	.Ldebug_abbrev0:
 5082 0000 01       		.uleb128 0x1
 5083 0001 11       		.uleb128 0x11
 5084 0002 01       		.byte	0x1
 5085 0003 25       		.uleb128 0x25
 5086 0004 0E       		.uleb128 0xe
 5087 0005 13       		.uleb128 0x13
 5088 0006 0B       		.uleb128 0xb
 5089 0007 03       		.uleb128 0x3
 5090 0008 0E       		.uleb128 0xe
 5091 0009 1B       		.uleb128 0x1b
 5092 000a 0E       		.uleb128 0xe
 5093 000b 55       		.uleb128 0x55
 5094 000c 17       		.uleb128 0x17
 5095 000d 11       		.uleb128 0x11
 5096 000e 01       		.uleb128 0x1
 5097 000f 10       		.uleb128 0x10
 5098 0010 17       		.uleb128 0x17
 5099 0011 00       		.byte	0
 5100 0012 00       		.byte	0
 5101 0013 02       		.uleb128 0x2
 5102 0014 24       		.uleb128 0x24
 5103 0015 00       		.byte	0
 5104 0016 0B       		.uleb128 0xb
 5105 0017 0B       		.uleb128 0xb
 5106 0018 3E       		.uleb128 0x3e
 5107 0019 0B       		.uleb128 0xb
 5108 001a 03       		.uleb128 0x3
 5109 001b 0E       		.uleb128 0xe
 5110 001c 00       		.byte	0
 5111 001d 00       		.byte	0
 5112 001e 03       		.uleb128 0x3
 5113 001f 16       		.uleb128 0x16
 5114 0020 00       		.byte	0
 5115 0021 03       		.uleb128 0x3
 5116 0022 0E       		.uleb128 0xe
 5117 0023 3A       		.uleb128 0x3a
 5118 0024 0B       		.uleb128 0xb
 5119 0025 3B       		.uleb128 0x3b
 5120 0026 0B       		.uleb128 0xb
 5121 0027 49       		.uleb128 0x49
 5122 0028 13       		.uleb128 0x13
 5123 0029 00       		.byte	0
 5124 002a 00       		.byte	0
 5125 002b 04       		.uleb128 0x4
 5126 002c 24       		.uleb128 0x24
 5127 002d 00       		.byte	0
 5128 002e 0B       		.uleb128 0xb
 5129 002f 0B       		.uleb128 0xb
 5130 0030 3E       		.uleb128 0x3e
 5131 0031 0B       		.uleb128 0xb
 5132 0032 03       		.uleb128 0x3
 5133 0033 08       		.uleb128 0x8
ARM GAS  C:\Users\bamcg3\AppData\Local\Temp\ccfmEsNg.s 			page 105


 5134 0034 00       		.byte	0
 5135 0035 00       		.byte	0
 5136 0036 05       		.uleb128 0x5
 5137 0037 2E       		.uleb128 0x2e
 5138 0038 01       		.byte	0x1
 5139 0039 3F       		.uleb128 0x3f
 5140 003a 19       		.uleb128 0x19
 5141 003b 03       		.uleb128 0x3
 5142 003c 0E       		.uleb128 0xe
 5143 003d 3A       		.uleb128 0x3a
 5144 003e 0B       		.uleb128 0xb
 5145 003f 3B       		.uleb128 0x3b
 5146 0040 0B       		.uleb128 0xb
 5147 0041 27       		.uleb128 0x27
 5148 0042 19       		.uleb128 0x19
 5149 0043 11       		.uleb128 0x11
 5150 0044 01       		.uleb128 0x1
 5151 0045 12       		.uleb128 0x12
 5152 0046 06       		.uleb128 0x6
 5153 0047 40       		.uleb128 0x40
 5154 0048 18       		.uleb128 0x18
 5155 0049 9642     		.uleb128 0x2116
 5156 004b 19       		.uleb128 0x19
 5157 004c 01       		.uleb128 0x1
 5158 004d 13       		.uleb128 0x13
 5159 004e 00       		.byte	0
 5160 004f 00       		.byte	0
 5161 0050 06       		.uleb128 0x6
 5162 0051 34       		.uleb128 0x34
 5163 0052 00       		.byte	0
 5164 0053 03       		.uleb128 0x3
 5165 0054 0E       		.uleb128 0xe
 5166 0055 3A       		.uleb128 0x3a
 5167 0056 0B       		.uleb128 0xb
 5168 0057 3B       		.uleb128 0x3b
 5169 0058 0B       		.uleb128 0xb
 5170 0059 49       		.uleb128 0x49
 5171 005a 13       		.uleb128 0x13
 5172 005b 02       		.uleb128 0x2
 5173 005c 18       		.uleb128 0x18
 5174 005d 00       		.byte	0
 5175 005e 00       		.byte	0
 5176 005f 07       		.uleb128 0x7
 5177 0060 0B       		.uleb128 0xb
 5178 0061 01       		.byte	0x1
 5179 0062 11       		.uleb128 0x11
 5180 0063 01       		.uleb128 0x1
 5181 0064 12       		.uleb128 0x12
 5182 0065 06       		.uleb128 0x6
 5183 0066 01       		.uleb128 0x1
 5184 0067 13       		.uleb128 0x13
 5185 0068 00       		.byte	0
 5186 0069 00       		.byte	0
 5187 006a 08       		.uleb128 0x8
 5188 006b 34       		.uleb128 0x34
 5189 006c 00       		.byte	0
 5190 006d 03       		.uleb128 0x3
ARM GAS  C:\Users\bamcg3\AppData\Local\Temp\ccfmEsNg.s 			page 106


 5191 006e 08       		.uleb128 0x8
 5192 006f 3A       		.uleb128 0x3a
 5193 0070 0B       		.uleb128 0xb
 5194 0071 3B       		.uleb128 0x3b
 5195 0072 0B       		.uleb128 0xb
 5196 0073 49       		.uleb128 0x49
 5197 0074 13       		.uleb128 0x13
 5198 0075 02       		.uleb128 0x2
 5199 0076 17       		.uleb128 0x17
 5200 0077 00       		.byte	0
 5201 0078 00       		.byte	0
 5202 0079 09       		.uleb128 0x9
 5203 007a 898201   		.uleb128 0x4109
 5204 007d 01       		.byte	0x1
 5205 007e 11       		.uleb128 0x11
 5206 007f 01       		.uleb128 0x1
 5207 0080 31       		.uleb128 0x31
 5208 0081 13       		.uleb128 0x13
 5209 0082 01       		.uleb128 0x1
 5210 0083 13       		.uleb128 0x13
 5211 0084 00       		.byte	0
 5212 0085 00       		.byte	0
 5213 0086 0A       		.uleb128 0xa
 5214 0087 8A8201   		.uleb128 0x410a
 5215 008a 00       		.byte	0
 5216 008b 02       		.uleb128 0x2
 5217 008c 18       		.uleb128 0x18
 5218 008d 9142     		.uleb128 0x2111
 5219 008f 18       		.uleb128 0x18
 5220 0090 00       		.byte	0
 5221 0091 00       		.byte	0
 5222 0092 0B       		.uleb128 0xb
 5223 0093 898201   		.uleb128 0x4109
 5224 0096 00       		.byte	0
 5225 0097 11       		.uleb128 0x11
 5226 0098 01       		.uleb128 0x1
 5227 0099 31       		.uleb128 0x31
 5228 009a 13       		.uleb128 0x13
 5229 009b 00       		.byte	0
 5230 009c 00       		.byte	0
 5231 009d 0C       		.uleb128 0xc
 5232 009e 898201   		.uleb128 0x4109
 5233 00a1 01       		.byte	0x1
 5234 00a2 11       		.uleb128 0x11
 5235 00a3 01       		.uleb128 0x1
 5236 00a4 31       		.uleb128 0x31
 5237 00a5 13       		.uleb128 0x13
 5238 00a6 00       		.byte	0
 5239 00a7 00       		.byte	0
 5240 00a8 0D       		.uleb128 0xd
 5241 00a9 01       		.uleb128 0x1
 5242 00aa 01       		.byte	0x1
 5243 00ab 49       		.uleb128 0x49
 5244 00ac 13       		.uleb128 0x13
 5245 00ad 01       		.uleb128 0x1
 5246 00ae 13       		.uleb128 0x13
 5247 00af 00       		.byte	0
ARM GAS  C:\Users\bamcg3\AppData\Local\Temp\ccfmEsNg.s 			page 107


 5248 00b0 00       		.byte	0
 5249 00b1 0E       		.uleb128 0xe
 5250 00b2 21       		.uleb128 0x21
 5251 00b3 00       		.byte	0
 5252 00b4 49       		.uleb128 0x49
 5253 00b5 13       		.uleb128 0x13
 5254 00b6 2F       		.uleb128 0x2f
 5255 00b7 0B       		.uleb128 0xb
 5256 00b8 00       		.byte	0
 5257 00b9 00       		.byte	0
 5258 00ba 0F       		.uleb128 0xf
 5259 00bb 2E       		.uleb128 0x2e
 5260 00bc 01       		.byte	0x1
 5261 00bd 3F       		.uleb128 0x3f
 5262 00be 19       		.uleb128 0x19
 5263 00bf 03       		.uleb128 0x3
 5264 00c0 0E       		.uleb128 0xe
 5265 00c1 3A       		.uleb128 0x3a
 5266 00c2 0B       		.uleb128 0xb
 5267 00c3 3B       		.uleb128 0x3b
 5268 00c4 0B       		.uleb128 0xb
 5269 00c5 27       		.uleb128 0x27
 5270 00c6 19       		.uleb128 0x19
 5271 00c7 49       		.uleb128 0x49
 5272 00c8 13       		.uleb128 0x13
 5273 00c9 11       		.uleb128 0x11
 5274 00ca 01       		.uleb128 0x1
 5275 00cb 12       		.uleb128 0x12
 5276 00cc 06       		.uleb128 0x6
 5277 00cd 40       		.uleb128 0x40
 5278 00ce 18       		.uleb128 0x18
 5279 00cf 9742     		.uleb128 0x2117
 5280 00d1 19       		.uleb128 0x19
 5281 00d2 01       		.uleb128 0x1
 5282 00d3 13       		.uleb128 0x13
 5283 00d4 00       		.byte	0
 5284 00d5 00       		.byte	0
 5285 00d6 10       		.uleb128 0x10
 5286 00d7 34       		.uleb128 0x34
 5287 00d8 00       		.byte	0
 5288 00d9 03       		.uleb128 0x3
 5289 00da 0E       		.uleb128 0xe
 5290 00db 3A       		.uleb128 0x3a
 5291 00dc 0B       		.uleb128 0xb
 5292 00dd 3B       		.uleb128 0x3b
 5293 00de 0B       		.uleb128 0xb
 5294 00df 49       		.uleb128 0x49
 5295 00e0 13       		.uleb128 0x13
 5296 00e1 1C       		.uleb128 0x1c
 5297 00e2 0B       		.uleb128 0xb
 5298 00e3 00       		.byte	0
 5299 00e4 00       		.byte	0
 5300 00e5 11       		.uleb128 0x11
 5301 00e6 2E       		.uleb128 0x2e
 5302 00e7 01       		.byte	0x1
 5303 00e8 3F       		.uleb128 0x3f
 5304 00e9 19       		.uleb128 0x19
ARM GAS  C:\Users\bamcg3\AppData\Local\Temp\ccfmEsNg.s 			page 108


 5305 00ea 03       		.uleb128 0x3
 5306 00eb 0E       		.uleb128 0xe
 5307 00ec 3A       		.uleb128 0x3a
 5308 00ed 0B       		.uleb128 0xb
 5309 00ee 3B       		.uleb128 0x3b
 5310 00ef 05       		.uleb128 0x5
 5311 00f0 27       		.uleb128 0x27
 5312 00f1 19       		.uleb128 0x19
 5313 00f2 11       		.uleb128 0x11
 5314 00f3 01       		.uleb128 0x1
 5315 00f4 12       		.uleb128 0x12
 5316 00f5 06       		.uleb128 0x6
 5317 00f6 40       		.uleb128 0x40
 5318 00f7 18       		.uleb128 0x18
 5319 00f8 9642     		.uleb128 0x2116
 5320 00fa 19       		.uleb128 0x19
 5321 00fb 01       		.uleb128 0x1
 5322 00fc 13       		.uleb128 0x13
 5323 00fd 00       		.byte	0
 5324 00fe 00       		.byte	0
 5325 00ff 12       		.uleb128 0x12
 5326 0100 34       		.uleb128 0x34
 5327 0101 00       		.byte	0
 5328 0102 03       		.uleb128 0x3
 5329 0103 08       		.uleb128 0x8
 5330 0104 3A       		.uleb128 0x3a
 5331 0105 0B       		.uleb128 0xb
 5332 0106 3B       		.uleb128 0x3b
 5333 0107 05       		.uleb128 0x5
 5334 0108 49       		.uleb128 0x49
 5335 0109 13       		.uleb128 0x13
 5336 010a 02       		.uleb128 0x2
 5337 010b 17       		.uleb128 0x17
 5338 010c 00       		.byte	0
 5339 010d 00       		.byte	0
 5340 010e 13       		.uleb128 0x13
 5341 010f 34       		.uleb128 0x34
 5342 0110 00       		.byte	0
 5343 0111 03       		.uleb128 0x3
 5344 0112 0E       		.uleb128 0xe
 5345 0113 3A       		.uleb128 0x3a
 5346 0114 0B       		.uleb128 0xb
 5347 0115 3B       		.uleb128 0x3b
 5348 0116 05       		.uleb128 0x5
 5349 0117 49       		.uleb128 0x49
 5350 0118 13       		.uleb128 0x13
 5351 0119 02       		.uleb128 0x2
 5352 011a 17       		.uleb128 0x17
 5353 011b 00       		.byte	0
 5354 011c 00       		.byte	0
 5355 011d 14       		.uleb128 0x14
 5356 011e 0B       		.uleb128 0xb
 5357 011f 01       		.byte	0x1
 5358 0120 55       		.uleb128 0x55
 5359 0121 17       		.uleb128 0x17
 5360 0122 01       		.uleb128 0x1
 5361 0123 13       		.uleb128 0x13
ARM GAS  C:\Users\bamcg3\AppData\Local\Temp\ccfmEsNg.s 			page 109


 5362 0124 00       		.byte	0
 5363 0125 00       		.byte	0
 5364 0126 15       		.uleb128 0x15
 5365 0127 2E       		.uleb128 0x2e
 5366 0128 01       		.byte	0x1
 5367 0129 3F       		.uleb128 0x3f
 5368 012a 19       		.uleb128 0x19
 5369 012b 03       		.uleb128 0x3
 5370 012c 0E       		.uleb128 0xe
 5371 012d 3A       		.uleb128 0x3a
 5372 012e 0B       		.uleb128 0xb
 5373 012f 3B       		.uleb128 0x3b
 5374 0130 05       		.uleb128 0x5
 5375 0131 27       		.uleb128 0x27
 5376 0132 19       		.uleb128 0x19
 5377 0133 49       		.uleb128 0x49
 5378 0134 13       		.uleb128 0x13
 5379 0135 11       		.uleb128 0x11
 5380 0136 01       		.uleb128 0x1
 5381 0137 12       		.uleb128 0x12
 5382 0138 06       		.uleb128 0x6
 5383 0139 40       		.uleb128 0x40
 5384 013a 18       		.uleb128 0x18
 5385 013b 9642     		.uleb128 0x2116
 5386 013d 19       		.uleb128 0x19
 5387 013e 01       		.uleb128 0x1
 5388 013f 13       		.uleb128 0x13
 5389 0140 00       		.byte	0
 5390 0141 00       		.byte	0
 5391 0142 16       		.uleb128 0x16
 5392 0143 34       		.uleb128 0x34
 5393 0144 00       		.byte	0
 5394 0145 03       		.uleb128 0x3
 5395 0146 0E       		.uleb128 0xe
 5396 0147 3A       		.uleb128 0x3a
 5397 0148 0B       		.uleb128 0xb
 5398 0149 3B       		.uleb128 0x3b
 5399 014a 05       		.uleb128 0x5
 5400 014b 49       		.uleb128 0x49
 5401 014c 13       		.uleb128 0x13
 5402 014d 02       		.uleb128 0x2
 5403 014e 18       		.uleb128 0x18
 5404 014f 00       		.byte	0
 5405 0150 00       		.byte	0
 5406 0151 17       		.uleb128 0x17
 5407 0152 34       		.uleb128 0x34
 5408 0153 00       		.byte	0
 5409 0154 03       		.uleb128 0x3
 5410 0155 0E       		.uleb128 0xe
 5411 0156 3A       		.uleb128 0x3a
 5412 0157 0B       		.uleb128 0xb
 5413 0158 3B       		.uleb128 0x3b
 5414 0159 05       		.uleb128 0x5
 5415 015a 49       		.uleb128 0x49
 5416 015b 13       		.uleb128 0x13
 5417 015c 3F       		.uleb128 0x3f
 5418 015d 19       		.uleb128 0x19
ARM GAS  C:\Users\bamcg3\AppData\Local\Temp\ccfmEsNg.s 			page 110


 5419 015e 3C       		.uleb128 0x3c
 5420 015f 19       		.uleb128 0x19
 5421 0160 00       		.byte	0
 5422 0161 00       		.byte	0
 5423 0162 18       		.uleb128 0x18
 5424 0163 35       		.uleb128 0x35
 5425 0164 00       		.byte	0
 5426 0165 49       		.uleb128 0x49
 5427 0166 13       		.uleb128 0x13
 5428 0167 00       		.byte	0
 5429 0168 00       		.byte	0
 5430 0169 19       		.uleb128 0x19
 5431 016a 34       		.uleb128 0x34
 5432 016b 00       		.byte	0
 5433 016c 03       		.uleb128 0x3
 5434 016d 0E       		.uleb128 0xe
 5435 016e 3A       		.uleb128 0x3a
 5436 016f 0B       		.uleb128 0xb
 5437 0170 3B       		.uleb128 0x3b
 5438 0171 0B       		.uleb128 0xb
 5439 0172 49       		.uleb128 0x49
 5440 0173 13       		.uleb128 0x13
 5441 0174 3F       		.uleb128 0x3f
 5442 0175 19       		.uleb128 0x19
 5443 0176 02       		.uleb128 0x2
 5444 0177 18       		.uleb128 0x18
 5445 0178 00       		.byte	0
 5446 0179 00       		.byte	0
 5447 017a 1A       		.uleb128 0x1a
 5448 017b 26       		.uleb128 0x26
 5449 017c 00       		.byte	0
 5450 017d 49       		.uleb128 0x49
 5451 017e 13       		.uleb128 0x13
 5452 017f 00       		.byte	0
 5453 0180 00       		.byte	0
 5454 0181 1B       		.uleb128 0x1b
 5455 0182 34       		.uleb128 0x34
 5456 0183 00       		.byte	0
 5457 0184 03       		.uleb128 0x3
 5458 0185 08       		.uleb128 0x8
 5459 0186 3A       		.uleb128 0x3a
 5460 0187 0B       		.uleb128 0xb
 5461 0188 3B       		.uleb128 0x3b
 5462 0189 0B       		.uleb128 0xb
 5463 018a 49       		.uleb128 0x49
 5464 018b 13       		.uleb128 0x13
 5465 018c 3F       		.uleb128 0x3f
 5466 018d 19       		.uleb128 0x19
 5467 018e 02       		.uleb128 0x2
 5468 018f 18       		.uleb128 0x18
 5469 0190 00       		.byte	0
 5470 0191 00       		.byte	0
 5471 0192 1C       		.uleb128 0x1c
 5472 0193 34       		.uleb128 0x34
 5473 0194 00       		.byte	0
 5474 0195 03       		.uleb128 0x3
 5475 0196 0E       		.uleb128 0xe
ARM GAS  C:\Users\bamcg3\AppData\Local\Temp\ccfmEsNg.s 			page 111


 5476 0197 3A       		.uleb128 0x3a
 5477 0198 0B       		.uleb128 0xb
 5478 0199 3B       		.uleb128 0x3b
 5479 019a 0B       		.uleb128 0xb
 5480 019b 49       		.uleb128 0x49
 5481 019c 13       		.uleb128 0x13
 5482 019d 3F       		.uleb128 0x3f
 5483 019e 19       		.uleb128 0x19
 5484 019f 3C       		.uleb128 0x3c
 5485 01a0 19       		.uleb128 0x19
 5486 01a1 00       		.byte	0
 5487 01a2 00       		.byte	0
 5488 01a3 1D       		.uleb128 0x1d
 5489 01a4 2E       		.uleb128 0x2e
 5490 01a5 00       		.byte	0
 5491 01a6 3F       		.uleb128 0x3f
 5492 01a7 19       		.uleb128 0x19
 5493 01a8 3C       		.uleb128 0x3c
 5494 01a9 19       		.uleb128 0x19
 5495 01aa 6E       		.uleb128 0x6e
 5496 01ab 0E       		.uleb128 0xe
 5497 01ac 03       		.uleb128 0x3
 5498 01ad 0E       		.uleb128 0xe
 5499 01ae 3A       		.uleb128 0x3a
 5500 01af 0B       		.uleb128 0xb
 5501 01b0 3B       		.uleb128 0x3b
 5502 01b1 0B       		.uleb128 0xb
 5503 01b2 00       		.byte	0
 5504 01b3 00       		.byte	0
 5505 01b4 1E       		.uleb128 0x1e
 5506 01b5 2E       		.uleb128 0x2e
 5507 01b6 00       		.byte	0
 5508 01b7 3F       		.uleb128 0x3f
 5509 01b8 19       		.uleb128 0x19
 5510 01b9 3C       		.uleb128 0x3c
 5511 01ba 19       		.uleb128 0x19
 5512 01bb 6E       		.uleb128 0x6e
 5513 01bc 0E       		.uleb128 0xe
 5514 01bd 03       		.uleb128 0x3
 5515 01be 0E       		.uleb128 0xe
 5516 01bf 3A       		.uleb128 0x3a
 5517 01c0 0B       		.uleb128 0xb
 5518 01c1 3B       		.uleb128 0x3b
 5519 01c2 05       		.uleb128 0x5
 5520 01c3 00       		.byte	0
 5521 01c4 00       		.byte	0
 5522 01c5 00       		.byte	0
 5523              		.section	.debug_loc,"",%progbits
 5524              	.Ldebug_loc0:
 5525              	.LLST0:
 5526 0000 4A000000 		.4byte	.LVL9
 5527 0004 4C000000 		.4byte	.LVL10
 5528 0008 0200     		.2byte	0x2
 5529 000a 30       		.byte	0x30
 5530 000b 9F       		.byte	0x9f
 5531 000c 4C000000 		.4byte	.LVL10
 5532 0010 A8000000 		.4byte	.LVL21
ARM GAS  C:\Users\bamcg3\AppData\Local\Temp\ccfmEsNg.s 			page 112


 5533 0014 0100     		.2byte	0x1
 5534 0016 54       		.byte	0x54
 5535 0017 00000000 		.4byte	0
 5536 001b 00000000 		.4byte	0
 5537              	.LLST1:
 5538 001f 18000000 		.4byte	.LVL23
 5539 0023 1A000000 		.4byte	.LVL24
 5540 0027 0200     		.2byte	0x2
 5541 0029 30       		.byte	0x30
 5542 002a 9F       		.byte	0x9f
 5543 002b 1A000000 		.4byte	.LVL24
 5544 002f 76000000 		.4byte	.LVL35
 5545 0033 0100     		.2byte	0x1
 5546 0035 54       		.byte	0x54
 5547 0036 00000000 		.4byte	0
 5548 003a 00000000 		.4byte	0
 5549              	.LLST2:
 5550 003e C0000000 		.4byte	.LVL173
 5551 0042 C8000000 		.4byte	.LVL174
 5552 0046 0200     		.2byte	0x2
 5553 0048 30       		.byte	0x30
 5554 0049 9F       		.byte	0x9f
 5555 004a C8000000 		.4byte	.LVL174
 5556 004e ED000000 		.4byte	.LVL179-1
 5557 0052 0100     		.2byte	0x1
 5558 0054 51       		.byte	0x51
 5559 0055 F0000000 		.4byte	.LVL180
 5560 0059 F5000000 		.4byte	.LVL181-1
 5561 005d 0100     		.2byte	0x1
 5562 005f 51       		.byte	0x51
 5563 0060 16010000 		.4byte	.LVL187
 5564 0064 1B010000 		.4byte	.LVL188-1
 5565 0068 0100     		.2byte	0x1
 5566 006a 51       		.byte	0x51
 5567 006b 3E010000 		.4byte	.LVL194
 5568 006f 43010000 		.4byte	.LVL195-1
 5569 0073 0100     		.2byte	0x1
 5570 0075 51       		.byte	0x51
 5571 0076 00000000 		.4byte	0
 5572 007a 00000000 		.4byte	0
 5573              	.LLST3:
 5574 007e C0000000 		.4byte	.LVL173
 5575 0082 C8000000 		.4byte	.LVL174
 5576 0086 0200     		.2byte	0x2
 5577 0088 30       		.byte	0x30
 5578 0089 9F       		.byte	0x9f
 5579 008a C8000000 		.4byte	.LVL174
 5580 008e D4000000 		.4byte	.LVL175
 5581 0092 0100     		.2byte	0x1
 5582 0094 54       		.byte	0x54
 5583 0095 D6000000 		.4byte	.LVL176
 5584 0099 78010000 		.4byte	.LVL204
 5585 009d 0100     		.2byte	0x1
 5586 009f 54       		.byte	0x54
 5587 00a0 00000000 		.4byte	0
 5588 00a4 00000000 		.4byte	0
 5589              	.LLST4:
ARM GAS  C:\Users\bamcg3\AppData\Local\Temp\ccfmEsNg.s 			page 113


 5590 00a8 C0000000 		.4byte	.LVL173
 5591 00ac C8000000 		.4byte	.LVL174
 5592 00b0 0200     		.2byte	0x2
 5593 00b2 30       		.byte	0x30
 5594 00b3 9F       		.byte	0x9f
 5595 00b4 C8000000 		.4byte	.LVL174
 5596 00b8 E4000000 		.4byte	.LVL178
 5597 00bc 0100     		.2byte	0x1
 5598 00be 53       		.byte	0x53
 5599 00bf 00000000 		.4byte	0
 5600 00c3 00000000 		.4byte	0
 5601              	.LLST5:
 5602 00c7 64010000 		.4byte	.LVL201
 5603 00cb 76010000 		.4byte	.LVL203
 5604 00cf 0100     		.2byte	0x1
 5605 00d1 53       		.byte	0x53
 5606 00d2 00000000 		.4byte	0
 5607 00d6 00000000 		.4byte	0
 5608              	.LLST6:
 5609 00da AE000000 		.4byte	.LVL216
 5610 00de B2000000 		.4byte	.LVL217
 5611 00e2 0200     		.2byte	0x2
 5612 00e4 30       		.byte	0x30
 5613 00e5 9F       		.byte	0x9f
 5614 00e6 B2000000 		.4byte	.LVL217
 5615 00ea E0000000 		.4byte	.LVL222
 5616 00ee 0100     		.2byte	0x1
 5617 00f0 54       		.byte	0x54
 5618 00f1 00000000 		.4byte	0
 5619 00f5 00000000 		.4byte	0
 5620              	.LLST7:
 5621 00f9 08000000 		.4byte	.LVL223
 5622 00fd 0C000000 		.4byte	.LVL224
 5623 0101 0200     		.2byte	0x2
 5624 0103 30       		.byte	0x30
 5625 0104 9F       		.byte	0x9f
 5626 0105 0C000000 		.4byte	.LVL224
 5627 0109 32000000 		.4byte	.LVL230
 5628 010d 0100     		.2byte	0x1
 5629 010f 54       		.byte	0x54
 5630 0110 00000000 		.4byte	0
 5631 0114 00000000 		.4byte	0
 5632              	.LLST8:
 5633 0118 4E000000 		.4byte	.LVL234
 5634 011c 52000000 		.4byte	.LVL235
 5635 0120 0200     		.2byte	0x2
 5636 0122 30       		.byte	0x30
 5637 0123 9F       		.byte	0x9f
 5638 0124 52000000 		.4byte	.LVL235
 5639 0128 78000000 		.4byte	.LVL241
 5640 012c 0100     		.2byte	0x1
 5641 012e 54       		.byte	0x54
 5642 012f 00000000 		.4byte	0
 5643 0133 00000000 		.4byte	0
 5644              	.LLST9:
 5645 0137 9A000000 		.4byte	.LVL246
 5646 013b 9E000000 		.4byte	.LVL247
ARM GAS  C:\Users\bamcg3\AppData\Local\Temp\ccfmEsNg.s 			page 114


 5647 013f 0200     		.2byte	0x2
 5648 0141 30       		.byte	0x30
 5649 0142 9F       		.byte	0x9f
 5650 0143 9E000000 		.4byte	.LVL247
 5651 0147 C4000000 		.4byte	.LVL253
 5652 014b 0100     		.2byte	0x1
 5653 014d 54       		.byte	0x54
 5654 014e 00000000 		.4byte	0
 5655 0152 00000000 		.4byte	0
 5656              	.LLST10:
 5657 0156 E6000000 		.4byte	.LVL258
 5658 015a EA000000 		.4byte	.LVL259
 5659 015e 0200     		.2byte	0x2
 5660 0160 30       		.byte	0x30
 5661 0161 9F       		.byte	0x9f
 5662 0162 EA000000 		.4byte	.LVL259
 5663 0166 34010000 		.4byte	.LVL269
 5664 016a 0100     		.2byte	0x1
 5665 016c 54       		.byte	0x54
 5666 016d 00000000 		.4byte	0
 5667 0171 00000000 		.4byte	0
 5668              	.LLST11:
 5669 0175 08000000 		.4byte	.LVL282
 5670 0179 0C000000 		.4byte	.LVL283
 5671 017d 0200     		.2byte	0x2
 5672 017f 30       		.byte	0x30
 5673 0180 9F       		.byte	0x9f
 5674 0181 0C000000 		.4byte	.LVL283
 5675 0185 32000000 		.4byte	.LVL289
 5676 0189 0100     		.2byte	0x1
 5677 018b 54       		.byte	0x54
 5678 018c 00000000 		.4byte	0
 5679 0190 00000000 		.4byte	0
 5680              	.LLST12:
 5681 0194 4E000000 		.4byte	.LVL293
 5682 0198 52000000 		.4byte	.LVL294
 5683 019c 0200     		.2byte	0x2
 5684 019e 30       		.byte	0x30
 5685 019f 9F       		.byte	0x9f
 5686 01a0 52000000 		.4byte	.LVL294
 5687 01a4 78000000 		.4byte	.LVL300
 5688 01a8 0100     		.2byte	0x1
 5689 01aa 54       		.byte	0x54
 5690 01ab 00000000 		.4byte	0
 5691 01af 00000000 		.4byte	0
 5692              	.LLST13:
 5693 01b3 9A000000 		.4byte	.LVL305
 5694 01b7 9E000000 		.4byte	.LVL306
 5695 01bb 0200     		.2byte	0x2
 5696 01bd 30       		.byte	0x30
 5697 01be 9F       		.byte	0x9f
 5698 01bf 9E000000 		.4byte	.LVL306
 5699 01c3 C4000000 		.4byte	.LVL312
 5700 01c7 0100     		.2byte	0x1
 5701 01c9 54       		.byte	0x54
 5702 01ca 00000000 		.4byte	0
 5703 01ce 00000000 		.4byte	0
ARM GAS  C:\Users\bamcg3\AppData\Local\Temp\ccfmEsNg.s 			page 115


 5704              	.LLST14:
 5705 01d2 E6000000 		.4byte	.LVL317
 5706 01d6 EA000000 		.4byte	.LVL318
 5707 01da 0200     		.2byte	0x2
 5708 01dc 30       		.byte	0x30
 5709 01dd 9F       		.byte	0x9f
 5710 01de EA000000 		.4byte	.LVL318
 5711 01e2 34010000 		.4byte	.LVL328
 5712 01e6 0100     		.2byte	0x1
 5713 01e8 54       		.byte	0x54
 5714 01e9 00000000 		.4byte	0
 5715 01ed 00000000 		.4byte	0
 5716              	.LLST15:
 5717 01f1 18000000 		.4byte	.LVL343
 5718 01f5 1A000000 		.4byte	.LVL344
 5719 01f9 0200     		.2byte	0x2
 5720 01fb 30       		.byte	0x30
 5721 01fc 9F       		.byte	0x9f
 5722 01fd 1A000000 		.4byte	.LVL344
 5723 0201 64000000 		.4byte	.LVL353
 5724 0205 0100     		.2byte	0x1
 5725 0207 54       		.byte	0x54
 5726 0208 00000000 		.4byte	0
 5727 020c 00000000 		.4byte	0
 5728              		.section	.debug_aranges,"",%progbits
 5729 0000 74000000 		.4byte	0x74
 5730 0004 0200     		.2byte	0x2
 5731 0006 00000000 		.4byte	.Ldebug_info0
 5732 000a 04       		.byte	0x4
 5733 000b 00       		.byte	0
 5734 000c 0000     		.2byte	0
 5735 000e 0000     		.2byte	0
 5736 0010 00000000 		.4byte	.LFB64
 5737 0014 BC000000 		.4byte	.LFE64-.LFB64
 5738 0018 00000000 		.4byte	.LFB65
 5739 001c 88000000 		.4byte	.LFE65-.LFB65
 5740 0020 00000000 		.4byte	.LFB66
 5741 0024 04000000 		.4byte	.LFE66-.LFB66
 5742 0028 00000000 		.4byte	.LFB67
 5743 002c FC000000 		.4byte	.LFE67-.LFB67
 5744 0030 00000000 		.4byte	.LFB68
 5745 0034 2C010000 		.4byte	.LFE68-.LFB68
 5746 0038 00000000 		.4byte	.LFB69
 5747 003c AC000000 		.4byte	.LFE69-.LFB69
 5748 0040 00000000 		.4byte	.LFB70
 5749 0044 AC000000 		.4byte	.LFE70-.LFB70
 5750 0048 00000000 		.4byte	.LFB71
 5751 004c C4010000 		.4byte	.LFE71-.LFB71
 5752 0050 00000000 		.4byte	.LFB72
 5753 0054 1C010000 		.4byte	.LFE72-.LFB72
 5754 0058 00000000 		.4byte	.LFB73
 5755 005c C8010000 		.4byte	.LFE73-.LFB73
 5756 0060 00000000 		.4byte	.LFB74
 5757 0064 C8010000 		.4byte	.LFE74-.LFB74
 5758 0068 00000000 		.4byte	.LFB75
 5759 006c A8000000 		.4byte	.LFE75-.LFB75
 5760 0070 00000000 		.4byte	0
ARM GAS  C:\Users\bamcg3\AppData\Local\Temp\ccfmEsNg.s 			page 116


 5761 0074 00000000 		.4byte	0
 5762              		.section	.debug_ranges,"",%progbits
 5763              	.Ldebug_ranges0:
 5764 0000 C0000000 		.4byte	.LBB5
 5765 0004 C2000000 		.4byte	.LBE5
 5766 0008 C6000000 		.4byte	.LBB6
 5767 000c DC000000 		.4byte	.LBE6
 5768 0010 00000000 		.4byte	0
 5769 0014 00000000 		.4byte	0
 5770 0018 00000000 		.4byte	.LFB64
 5771 001c BC000000 		.4byte	.LFE64
 5772 0020 00000000 		.4byte	.LFB65
 5773 0024 88000000 		.4byte	.LFE65
 5774 0028 00000000 		.4byte	.LFB66
 5775 002c 04000000 		.4byte	.LFE66
 5776 0030 00000000 		.4byte	.LFB67
 5777 0034 FC000000 		.4byte	.LFE67
 5778 0038 00000000 		.4byte	.LFB68
 5779 003c 2C010000 		.4byte	.LFE68
 5780 0040 00000000 		.4byte	.LFB69
 5781 0044 AC000000 		.4byte	.LFE69
 5782 0048 00000000 		.4byte	.LFB70
 5783 004c AC000000 		.4byte	.LFE70
 5784 0050 00000000 		.4byte	.LFB71
 5785 0054 C4010000 		.4byte	.LFE71
 5786 0058 00000000 		.4byte	.LFB72
 5787 005c 1C010000 		.4byte	.LFE72
 5788 0060 00000000 		.4byte	.LFB73
 5789 0064 C8010000 		.4byte	.LFE73
 5790 0068 00000000 		.4byte	.LFB74
 5791 006c C8010000 		.4byte	.LFE74
 5792 0070 00000000 		.4byte	.LFB75
 5793 0074 A8000000 		.4byte	.LFE75
 5794 0078 00000000 		.4byte	0
 5795 007c 00000000 		.4byte	0
 5796              		.section	.debug_line,"",%progbits
 5797              	.Ldebug_line0:
 5798 0000 1A060000 		.section	.debug_str,"MS",%progbits,1
 5798      02006B02 
 5798      00000201 
 5798      FB0E0D00 
 5798      01010101 
 5799              	.LASF38:
 5800 0000 616D6269 		.ascii	"ambient_white\000"
 5800      656E745F 
 5800      77686974 
 5800      6500
 5801              	.LASF18:
 5802 000e 436F6C6F 		.ascii	"ColourSensingViaHardware\000"
 5802      75725365 
 5802      6E73696E 
 5802      67566961 
 5802      48617264 
 5803              	.LASF35:
 5804 0027 73746F72 		.ascii	"stored\000"
 5804      656400
 5805              	.LASF52:
ARM GAS  C:\Users\bamcg3\AppData\Local\Temp\ccfmEsNg.s 			page 117


 5806 002e 4144435F 		.ascii	"ADC_Read32\000"
 5806      52656164 
 5806      333200
 5807              	.LASF2:
 5808 0039 73686F72 		.ascii	"short int\000"
 5808      7420696E 
 5808      7400
 5809              	.LASF15:
 5810 0043 73697A65 		.ascii	"sizetype\000"
 5810      74797065 
 5810      00
 5811              	.LASF58:
 5812 004c 4C45445F 		.ascii	"LED_Blue_Write\000"
 5812      426C7565 
 5812      5F577269 
 5812      746500
 5813              	.LASF44:
 5814 005b 74657374 		.ascii	"test_green\000"
 5814      5F677265 
 5814      656E00
 5815              	.LASF47:
 5816 0066 7075636B 		.ascii	"puck_all\000"
 5816      5F616C6C 
 5816      00
 5817              	.LASF37:
 5818 006f 616D6269 		.ascii	"ambient_current\000"
 5818      656E745F 
 5818      63757272 
 5818      656E7400 
 5819              	.LASF60:
 5820 007f 726F756E 		.ascii	"round\000"
 5820      6400
 5821              	.LASF19:
 5822 0085 76616C75 		.ascii	"value\000"
 5822      6500
 5823              	.LASF22:
 5824 008b 436F6C6F 		.ascii	"ColourSensingRGB1\000"
 5824      75725365 
 5824      6E73696E 
 5824      67524742 
 5824      3100
 5825              	.LASF23:
 5826 009d 436F6C6F 		.ascii	"ColourSensingRGB2\000"
 5826      75725365 
 5826      6E73696E 
 5826      67524742 
 5826      3200
 5827              	.LASF63:
 5828 00af 5247425F 		.ascii	"RGB_Red_Write\000"
 5828      5265645F 
 5828      57726974 
 5828      6500
 5829              	.LASF65:
 5830 00bd 5247425F 		.ascii	"RGB_Green_Write\000"
 5830      47726565 
 5830      6E5F5772 
 5830      69746500 
ARM GAS  C:\Users\bamcg3\AppData\Local\Temp\ccfmEsNg.s 			page 118


 5831              	.LASF26:
 5832 00cd 436F6C6F 		.ascii	"ColourDebug\000"
 5832      75724465 
 5832      62756700 
 5833              	.LASF11:
 5834 00d9 666C6F61 		.ascii	"float\000"
 5834      7400
 5835              	.LASF33:
 5836 00df 70645F76 		.ascii	"pd_voltage\000"
 5836      6F6C7461 
 5836      676500
 5837              	.LASF41:
 5838 00ea 616D6269 		.ascii	"ambient_blue\000"
 5838      656E745F 
 5838      626C7565 
 5838      00
 5839              	.LASF6:
 5840 00f7 6C6F6E67 		.ascii	"long long int\000"
 5840      206C6F6E 
 5840      6720696E 
 5840      7400
 5841              	.LASF30:
 5842 0105 72656444 		.ascii	"redDetection\000"
 5842      65746563 
 5842      74696F6E 
 5842      00
 5843              	.LASF4:
 5844 0112 6C6F6E67 		.ascii	"long int\000"
 5844      20696E74 
 5844      00
 5845              	.LASF56:
 5846 011b 50574D5F 		.ascii	"PWM_colour_Sleep\000"
 5846      636F6C6F 
 5846      75725F53 
 5846      6C656570 
 5846      00
 5847              	.LASF10:
 5848 012c 696E7433 		.ascii	"int32_t\000"
 5848      325F7400 
 5849              	.LASF53:
 5850 0134 636F6E74 		.ascii	"control_photodiode_Write\000"
 5850      726F6C5F 
 5850      70686F74 
 5850      6F64696F 
 5850      64655F57 
 5851              	.LASF45:
 5852 014d 74657374 		.ascii	"test_blue\000"
 5852      5F626C75 
 5852      6500
 5853              	.LASF46:
 5854 0157 636F6C6F 		.ascii	"colour_flag\000"
 5854      75725F66 
 5854      6C616700 
 5855              	.LASF14:
 5856 0163 6C6F6E67 		.ascii	"long double\000"
 5856      20646F75 
 5856      626C6500 
ARM GAS  C:\Users\bamcg3\AppData\Local\Temp\ccfmEsNg.s 			page 119


 5857              	.LASF34:
 5858 016f 696E7075 		.ascii	"input_current\000"
 5858      745F6375 
 5858      7272656E 
 5858      7400
 5859              	.LASF1:
 5860 017d 756E7369 		.ascii	"unsigned char\000"
 5860      676E6564 
 5860      20636861 
 5860      7200
 5861              	.LASF61:
 5862 018b 73707269 		.ascii	"sprintf\000"
 5862      6E746600 
 5863              	.LASF68:
 5864 0193 5C5C6164 		.ascii	"\\\\ad.monash.edu\\home\\User026\\bamcg3\\Documents"
 5864      2E6D6F6E 
 5864      6173682E 
 5864      6564755C 
 5864      686F6D65 
 5865 01c0 5C476974 		.ascii	"\\GitHub\\ECE3091_Group17\\Group17RobotReal\\Group1"
 5865      4875625C 
 5865      45434533 
 5865      3039315F 
 5865      47726F75 
 5866 01ef 37526F62 		.ascii	"7Robot.cydsn\000"
 5866      6F742E63 
 5866      7964736E 
 5866      00
 5867              	.LASF0:
 5868 01fc 7369676E 		.ascii	"signed char\000"
 5868      65642063 
 5868      68617200 
 5869              	.LASF43:
 5870 0208 74657374 		.ascii	"test_red\000"
 5870      5F726564 
 5870      00
 5871              	.LASF7:
 5872 0211 6C6F6E67 		.ascii	"long long unsigned int\000"
 5872      206C6F6E 
 5872      6720756E 
 5872      7369676E 
 5872      65642069 
 5873              	.LASF51:
 5874 0228 636F6E74 		.ascii	"control_led_Write\000"
 5874      726F6C5F 
 5874      6C65645F 
 5874      57726974 
 5874      6500
 5875              	.LASF40:
 5876 023a 616D6269 		.ascii	"ambient_green\000"
 5876      656E745F 
 5876      67726565 
 5876      6E00
 5877              	.LASF8:
 5878 0248 756E7369 		.ascii	"unsigned int\000"
 5878      676E6564 
 5878      20696E74 
ARM GAS  C:\Users\bamcg3\AppData\Local\Temp\ccfmEsNg.s 			page 120


 5878      00
 5879              	.LASF59:
 5880 0255 4C45445F 		.ascii	"LED_Green_Write\000"
 5880      47726565 
 5880      6E5F5772 
 5880      69746500 
 5881              	.LASF21:
 5882 0265 52474232 		.ascii	"RGB2Initialise\000"
 5882      496E6974 
 5882      69616C69 
 5882      736500
 5883              	.LASF24:
 5884 0274 436F6C6F 		.ascii	"ColourOutput\000"
 5884      75724F75 
 5884      74707574 
 5884      00
 5885              	.LASF32:
 5886 0281 7472616E 		.ascii	"trans\000"
 5886      7300
 5887              	.LASF3:
 5888 0287 73686F72 		.ascii	"short unsigned int\000"
 5888      7420756E 
 5888      7369676E 
 5888      65642069 
 5888      6E7400
 5889              	.LASF20:
 5890 029a 52474231 		.ascii	"RGB1Initialise\000"
 5890      496E6974 
 5890      69616C69 
 5890      736500
 5891              	.LASF13:
 5892 02a9 63686172 		.ascii	"char\000"
 5892      00
 5893              	.LASF42:
 5894 02ae 74657374 		.ascii	"test_white\000"
 5894      5F776869 
 5894      746500
 5895              	.LASF27:
 5896 02b9 436F6C6F 		.ascii	"ColourSensingCalibrationRGB1\000"
 5896      75725365 
 5896      6E73696E 
 5896      6743616C 
 5896      69627261 
 5897              	.LASF28:
 5898 02d6 436F6C6F 		.ascii	"ColourSensingCalibrationRGB2\000"
 5898      75725365 
 5898      6E73696E 
 5898      6743616C 
 5898      69627261 
 5899              	.LASF39:
 5900 02f3 616D6269 		.ascii	"ambient_red\000"
 5900      656E745F 
 5900      72656400 
 5901              	.LASF54:
 5902 02ff 50574D5F 		.ascii	"PWM_colour_Wakeup\000"
 5902      636F6C6F 
 5902      75725F57 
ARM GAS  C:\Users\bamcg3\AppData\Local\Temp\ccfmEsNg.s 			page 121


 5902      616B6575 
 5902      7000
 5903              	.LASF29:
 5904 0311 436F6C6F 		.ascii	"ColourSensingOutput\000"
 5904      75725365 
 5904      6E73696E 
 5904      674F7574 
 5904      70757400 
 5905              	.LASF16:
 5906 0325 74657374 		.ascii	"test\000"
 5906      00
 5907              	.LASF64:
 5908 032a 5247425F 		.ascii	"RGB_Blue_Write\000"
 5908      426C7565 
 5908      5F577269 
 5908      746500
 5909              	.LASF5:
 5910 0339 6C6F6E67 		.ascii	"long unsigned int\000"
 5910      20756E73 
 5910      69676E65 
 5910      6420696E 
 5910      7400
 5911              	.LASF12:
 5912 034b 646F7562 		.ascii	"double\000"
 5912      6C6500
 5913              	.LASF62:
 5914 0352 55415254 		.ascii	"UART_1_PutString\000"
 5914      5F315F50 
 5914      75745374 
 5914      72696E67 
 5914      00
 5915              	.LASF48:
 5916 0363 7075636B 		.ascii	"puck_output\000"
 5916      5F6F7574 
 5916      70757400 
 5917              	.LASF55:
 5918 036f 50574D5F 		.ascii	"PWM_colour_WriteCompare\000"
 5918      636F6C6F 
 5918      75725F57 
 5918      72697465 
 5918      436F6D70 
 5919              	.LASF9:
 5920 0387 5F5F696E 		.ascii	"__int32_t\000"
 5920      7433325F 
 5920      7400
 5921              	.LASF36:
 5922 0391 6F757470 		.ascii	"output\000"
 5922      757400
 5923              	.LASF25:
 5924 0398 636F6C6F 		.ascii	"colour\000"
 5924      757200
 5925              	.LASF67:
 5926 039f 636F6C6F 		.ascii	"colour.c\000"
 5926      75722E63 
 5926      00
 5927              	.LASF57:
 5928 03a8 4C45445F 		.ascii	"LED_Red_Write\000"
ARM GAS  C:\Users\bamcg3\AppData\Local\Temp\ccfmEsNg.s 			page 122


 5928      5265645F 
 5928      57726974 
 5928      6500
 5929              	.LASF31:
 5930 03b6 49544D5F 		.ascii	"ITM_RxBuffer\000"
 5930      52784275 
 5930      66666572 
 5930      00
 5931              	.LASF66:
 5932 03c3 474E5520 		.ascii	"GNU C11 5.4.1 20160609 (release) [ARM/embedded-5-br"
 5932      43313120 
 5932      352E342E 
 5932      31203230 
 5932      31363036 
 5933 03f6 616E6368 		.ascii	"anch revision 237715] -mcpu=cortex-m3 -mthumb -g -O"
 5933      20726576 
 5933      6973696F 
 5933      6E203233 
 5933      37373135 
 5934 0429 67202D66 		.ascii	"g -ffunction-sections -ffat-lto-objects\000"
 5934      66756E63 
 5934      74696F6E 
 5934      2D736563 
 5934      74696F6E 
 5935              	.LASF50:
 5936 0451 43794465 		.ascii	"CyDelay\000"
 5936      6C617900 
 5937              	.LASF17:
 5938 0459 436F6C6F 		.ascii	"ColourIntialiseViaHardware\000"
 5938      7572496E 
 5938      7469616C 
 5938      69736556 
 5938      69614861 
 5939              	.LASF49:
 5940 0474 636F6C6F 		.ascii	"colour_output\000"
 5940      75725F6F 
 5940      75747075 
 5940      7400
 5941              		.ident	"GCC: (GNU Tools for ARM Embedded Processors) 5.4.1 20160609 (release) [ARM/embedded-5-bran
