ARM GAS  C:\Users\Blayke\AppData\Local\Temp\ccrYvLKo.s 			page 1


   1              		.syntax unified
   2              		.cpu cortex-m3
   3              		.fpu softvfp
   4              		.eabi_attribute 20, 1
   5              		.eabi_attribute 21, 1
   6              		.eabi_attribute 23, 3
   7              		.eabi_attribute 24, 1
   8              		.eabi_attribute 25, 1
   9              		.eabi_attribute 26, 1
  10              		.eabi_attribute 30, 1
  11              		.eabi_attribute 34, 1
  12              		.eabi_attribute 18, 4
  13              		.thumb
  14              		.syntax unified
  15              		.file	"cyfitter_cfg.c"
  16              		.text
  17              	.Ltext0:
  18              		.cfi_sections	.debug_frame
  19              		.section	.text.CyClockStartupError,"ax",%progbits
  20              		.align	2
  21              		.thumb
  22              		.thumb_func
  23              		.type	CyClockStartupError, %function
  24              	CyClockStartupError:
  25              	.LFB3:
  26              		.file 1 "Generated_Source\\PSoC5\\cyfitter_cfg.c"
   1:Generated_Source\PSoC5/cyfitter_cfg.c **** 
   2:Generated_Source\PSoC5/cyfitter_cfg.c **** /*******************************************************************************
   3:Generated_Source\PSoC5/cyfitter_cfg.c **** * File Name: cyfitter_cfg.c
   4:Generated_Source\PSoC5/cyfitter_cfg.c **** * 
   5:Generated_Source\PSoC5/cyfitter_cfg.c **** * PSoC Creator  4.2
   6:Generated_Source\PSoC5/cyfitter_cfg.c **** *
   7:Generated_Source\PSoC5/cyfitter_cfg.c **** * Description:
   8:Generated_Source\PSoC5/cyfitter_cfg.c **** * This file contains device initialization code.
   9:Generated_Source\PSoC5/cyfitter_cfg.c **** * Except for the user defined sections in CyClockStartupError(), this file should not be modified.
  10:Generated_Source\PSoC5/cyfitter_cfg.c **** * This file is automatically generated by PSoC Creator.
  11:Generated_Source\PSoC5/cyfitter_cfg.c **** *
  12:Generated_Source\PSoC5/cyfitter_cfg.c **** ********************************************************************************
  13:Generated_Source\PSoC5/cyfitter_cfg.c **** * Copyright (c) 2007-2018 Cypress Semiconductor.  All rights reserved.
  14:Generated_Source\PSoC5/cyfitter_cfg.c **** * You may use this file only in accordance with the license, terms, conditions, 
  15:Generated_Source\PSoC5/cyfitter_cfg.c **** * disclaimers, and limitations in the end user license agreement accompanying 
  16:Generated_Source\PSoC5/cyfitter_cfg.c **** * the software package with which this file was provided.
  17:Generated_Source\PSoC5/cyfitter_cfg.c **** ********************************************************************************/
  18:Generated_Source\PSoC5/cyfitter_cfg.c **** 
  19:Generated_Source\PSoC5/cyfitter_cfg.c **** #include <string.h>
  20:Generated_Source\PSoC5/cyfitter_cfg.c **** #include "cytypes.h"
  21:Generated_Source\PSoC5/cyfitter_cfg.c **** #include "cydevice_trm.h"
  22:Generated_Source\PSoC5/cyfitter_cfg.c **** #include "cyfitter.h"
  23:Generated_Source\PSoC5/cyfitter_cfg.c **** #include "CyLib.h"
  24:Generated_Source\PSoC5/cyfitter_cfg.c **** #include "cyfitter_cfg.h"
  25:Generated_Source\PSoC5/cyfitter_cfg.c **** #include "cyapicallbacks.h"
  26:Generated_Source\PSoC5/cyfitter_cfg.c **** 
  27:Generated_Source\PSoC5/cyfitter_cfg.c **** #define CY_NEED_CYCLOCKSTARTUPERROR 1
  28:Generated_Source\PSoC5/cyfitter_cfg.c **** 
  29:Generated_Source\PSoC5/cyfitter_cfg.c **** 
  30:Generated_Source\PSoC5/cyfitter_cfg.c **** #if defined(__GNUC__) || defined(__ARMCC_VERSION)
  31:Generated_Source\PSoC5/cyfitter_cfg.c ****     #define CYPACKED 
ARM GAS  C:\Users\Blayke\AppData\Local\Temp\ccrYvLKo.s 			page 2


  32:Generated_Source\PSoC5/cyfitter_cfg.c ****     #define CYPACKED_ATTR __attribute__ ((packed))
  33:Generated_Source\PSoC5/cyfitter_cfg.c ****     #define CYALIGNED __attribute__ ((aligned))
  34:Generated_Source\PSoC5/cyfitter_cfg.c ****     #define CY_CFG_UNUSED __attribute__ ((unused))
  35:Generated_Source\PSoC5/cyfitter_cfg.c ****     #ifndef CY_CFG_SECTION
  36:Generated_Source\PSoC5/cyfitter_cfg.c ****         #define CY_CFG_SECTION __attribute__ ((section(".psocinit")))
  37:Generated_Source\PSoC5/cyfitter_cfg.c ****     #endif
  38:Generated_Source\PSoC5/cyfitter_cfg.c ****     
  39:Generated_Source\PSoC5/cyfitter_cfg.c ****     #if defined(__ARMCC_VERSION)
  40:Generated_Source\PSoC5/cyfitter_cfg.c ****         #define CY_CFG_MEMORY_BARRIER() __memory_changed()
  41:Generated_Source\PSoC5/cyfitter_cfg.c ****     #else
  42:Generated_Source\PSoC5/cyfitter_cfg.c ****         #define CY_CFG_MEMORY_BARRIER() __sync_synchronize()
  43:Generated_Source\PSoC5/cyfitter_cfg.c ****     #endif
  44:Generated_Source\PSoC5/cyfitter_cfg.c ****     
  45:Generated_Source\PSoC5/cyfitter_cfg.c **** #elif defined(__ICCARM__)
  46:Generated_Source\PSoC5/cyfitter_cfg.c ****     #include <intrinsics.h>
  47:Generated_Source\PSoC5/cyfitter_cfg.c **** 
  48:Generated_Source\PSoC5/cyfitter_cfg.c ****     #define CYPACKED __packed
  49:Generated_Source\PSoC5/cyfitter_cfg.c ****     #define CYPACKED_ATTR 
  50:Generated_Source\PSoC5/cyfitter_cfg.c ****     #define CYALIGNED _Pragma("data_alignment=4")
  51:Generated_Source\PSoC5/cyfitter_cfg.c ****     #define CY_CFG_UNUSED _Pragma("diag_suppress=Pe177")
  52:Generated_Source\PSoC5/cyfitter_cfg.c ****     #define CY_CFG_SECTION _Pragma("location=\".psocinit\"")
  53:Generated_Source\PSoC5/cyfitter_cfg.c ****     
  54:Generated_Source\PSoC5/cyfitter_cfg.c ****     #define CY_CFG_MEMORY_BARRIER() __DMB()
  55:Generated_Source\PSoC5/cyfitter_cfg.c ****     
  56:Generated_Source\PSoC5/cyfitter_cfg.c **** #else
  57:Generated_Source\PSoC5/cyfitter_cfg.c ****     #error Unsupported toolchain
  58:Generated_Source\PSoC5/cyfitter_cfg.c **** #endif
  59:Generated_Source\PSoC5/cyfitter_cfg.c **** 
  60:Generated_Source\PSoC5/cyfitter_cfg.c **** #ifndef CYCODE
  61:Generated_Source\PSoC5/cyfitter_cfg.c ****     #define CYCODE
  62:Generated_Source\PSoC5/cyfitter_cfg.c **** #endif
  63:Generated_Source\PSoC5/cyfitter_cfg.c **** #ifndef CYDATA
  64:Generated_Source\PSoC5/cyfitter_cfg.c ****     #define CYDATA
  65:Generated_Source\PSoC5/cyfitter_cfg.c **** #endif
  66:Generated_Source\PSoC5/cyfitter_cfg.c **** #ifndef CYFAR
  67:Generated_Source\PSoC5/cyfitter_cfg.c ****     #define CYFAR
  68:Generated_Source\PSoC5/cyfitter_cfg.c **** #endif
  69:Generated_Source\PSoC5/cyfitter_cfg.c **** #ifndef CYXDATA
  70:Generated_Source\PSoC5/cyfitter_cfg.c ****     #define CYXDATA
  71:Generated_Source\PSoC5/cyfitter_cfg.c **** #endif
  72:Generated_Source\PSoC5/cyfitter_cfg.c **** 
  73:Generated_Source\PSoC5/cyfitter_cfg.c **** 
  74:Generated_Source\PSoC5/cyfitter_cfg.c **** CY_CFG_UNUSED
  75:Generated_Source\PSoC5/cyfitter_cfg.c **** static void CYMEMZERO(void *s, size_t n);
  76:Generated_Source\PSoC5/cyfitter_cfg.c **** CY_CFG_UNUSED
  77:Generated_Source\PSoC5/cyfitter_cfg.c **** static void CYMEMZERO(void *s, size_t n)
  78:Generated_Source\PSoC5/cyfitter_cfg.c **** {
  79:Generated_Source\PSoC5/cyfitter_cfg.c **** 	(void)memset(s, 0, n);
  80:Generated_Source\PSoC5/cyfitter_cfg.c **** }
  81:Generated_Source\PSoC5/cyfitter_cfg.c **** CY_CFG_UNUSED
  82:Generated_Source\PSoC5/cyfitter_cfg.c **** static void CYCONFIGCPY(void *dest, const void *src, size_t n);
  83:Generated_Source\PSoC5/cyfitter_cfg.c **** CY_CFG_UNUSED
  84:Generated_Source\PSoC5/cyfitter_cfg.c **** static void CYCONFIGCPY(void *dest, const void *src, size_t n)
  85:Generated_Source\PSoC5/cyfitter_cfg.c **** {
  86:Generated_Source\PSoC5/cyfitter_cfg.c **** 	(void)memcpy(dest, src, n);
  87:Generated_Source\PSoC5/cyfitter_cfg.c **** }
  88:Generated_Source\PSoC5/cyfitter_cfg.c **** CY_CFG_UNUSED
ARM GAS  C:\Users\Blayke\AppData\Local\Temp\ccrYvLKo.s 			page 3


  89:Generated_Source\PSoC5/cyfitter_cfg.c **** static void CYCONFIGCPYCODE(void *dest, const void *src, size_t n);
  90:Generated_Source\PSoC5/cyfitter_cfg.c **** CY_CFG_UNUSED
  91:Generated_Source\PSoC5/cyfitter_cfg.c **** static void CYCONFIGCPYCODE(void *dest, const void *src, size_t n)
  92:Generated_Source\PSoC5/cyfitter_cfg.c **** {
  93:Generated_Source\PSoC5/cyfitter_cfg.c **** 	(void)memcpy(dest, src, n);
  94:Generated_Source\PSoC5/cyfitter_cfg.c **** }
  95:Generated_Source\PSoC5/cyfitter_cfg.c **** 
  96:Generated_Source\PSoC5/cyfitter_cfg.c **** 
  97:Generated_Source\PSoC5/cyfitter_cfg.c **** 
  98:Generated_Source\PSoC5/cyfitter_cfg.c **** 
  99:Generated_Source\PSoC5/cyfitter_cfg.c **** /* Clock startup error codes                                                   */
 100:Generated_Source\PSoC5/cyfitter_cfg.c **** #define CYCLOCKSTART_NO_ERROR    0u
 101:Generated_Source\PSoC5/cyfitter_cfg.c **** #define CYCLOCKSTART_XTAL_ERROR  1u
 102:Generated_Source\PSoC5/cyfitter_cfg.c **** #define CYCLOCKSTART_32KHZ_ERROR 2u
 103:Generated_Source\PSoC5/cyfitter_cfg.c **** #define CYCLOCKSTART_PLL_ERROR   3u
 104:Generated_Source\PSoC5/cyfitter_cfg.c **** #define CYCLOCKSTART_FLL_ERROR   4u
 105:Generated_Source\PSoC5/cyfitter_cfg.c **** #define CYCLOCKSTART_WCO_ERROR   5u
 106:Generated_Source\PSoC5/cyfitter_cfg.c **** 
 107:Generated_Source\PSoC5/cyfitter_cfg.c **** 
 108:Generated_Source\PSoC5/cyfitter_cfg.c **** #ifdef CY_NEED_CYCLOCKSTARTUPERROR
 109:Generated_Source\PSoC5/cyfitter_cfg.c **** /*******************************************************************************
 110:Generated_Source\PSoC5/cyfitter_cfg.c **** * Function Name: CyClockStartupError
 111:Generated_Source\PSoC5/cyfitter_cfg.c **** ********************************************************************************
 112:Generated_Source\PSoC5/cyfitter_cfg.c **** * Summary:
 113:Generated_Source\PSoC5/cyfitter_cfg.c **** *  If an error is encountered during clock configuration (crystal startup error,
 114:Generated_Source\PSoC5/cyfitter_cfg.c **** *  PLL lock error, etc.), the system will end up here.  Unless reimplemented by
 115:Generated_Source\PSoC5/cyfitter_cfg.c **** *  the customer, this function will stop in an infinite loop.
 116:Generated_Source\PSoC5/cyfitter_cfg.c **** *
 117:Generated_Source\PSoC5/cyfitter_cfg.c **** * Parameters:
 118:Generated_Source\PSoC5/cyfitter_cfg.c **** *   void
 119:Generated_Source\PSoC5/cyfitter_cfg.c **** *
 120:Generated_Source\PSoC5/cyfitter_cfg.c **** * Return:
 121:Generated_Source\PSoC5/cyfitter_cfg.c **** *   void
 122:Generated_Source\PSoC5/cyfitter_cfg.c **** *
 123:Generated_Source\PSoC5/cyfitter_cfg.c **** *******************************************************************************/
 124:Generated_Source\PSoC5/cyfitter_cfg.c **** CY_CFG_UNUSED
 125:Generated_Source\PSoC5/cyfitter_cfg.c **** static void CyClockStartupError(uint8 errorCode);
 126:Generated_Source\PSoC5/cyfitter_cfg.c **** CY_CFG_UNUSED
 127:Generated_Source\PSoC5/cyfitter_cfg.c **** static void CyClockStartupError(uint8 errorCode)
 128:Generated_Source\PSoC5/cyfitter_cfg.c **** {
  27              		.loc 1 128 0
  28              		.cfi_startproc
  29              		@ Volatile: function does not return.
  30              		@ args = 0, pretend = 0, frame = 0
  31              		@ frame_needed = 0, uses_anonymous_args = 0
  32              		@ link register save eliminated.
  33              	.LVL0:
  34              	.L2:
  35 0000 FEE7     		b	.L2
  36              		.cfi_endproc
  37              	.LFE3:
  38              		.size	CyClockStartupError, .-CyClockStartupError
  39 0002 00BF     		.section	.text.cfg_write_bytes32,"ax",%progbits
  40              		.align	2
  41              		.thumb
  42              		.thumb_func
  43              		.type	cfg_write_bytes32, %function
ARM GAS  C:\Users\Blayke\AppData\Local\Temp\ccrYvLKo.s 			page 4


  44              	cfg_write_bytes32:
  45              	.LFB4:
 129:Generated_Source\PSoC5/cyfitter_cfg.c ****     /* To remove the compiler warning if errorCode not used.                */
 130:Generated_Source\PSoC5/cyfitter_cfg.c ****     errorCode = errorCode;
 131:Generated_Source\PSoC5/cyfitter_cfg.c **** 
 132:Generated_Source\PSoC5/cyfitter_cfg.c ****     /* If we have a clock startup error (bad MHz crystal, PLL lock, etc.),  */
 133:Generated_Source\PSoC5/cyfitter_cfg.c ****     /* we will end up here to allow the customer to implement something to  */
 134:Generated_Source\PSoC5/cyfitter_cfg.c ****     /* deal with the clock condition.                                       */
 135:Generated_Source\PSoC5/cyfitter_cfg.c **** 
 136:Generated_Source\PSoC5/cyfitter_cfg.c **** #ifdef CY_CFG_CLOCK_STARTUP_ERROR_CALLBACK
 137:Generated_Source\PSoC5/cyfitter_cfg.c ****     CY_CFG_Clock_Startup_ErrorCallback();
 138:Generated_Source\PSoC5/cyfitter_cfg.c **** #else
 139:Generated_Source\PSoC5/cyfitter_cfg.c ****     /*  If not using CY_CFG_CLOCK_STARTUP_ERROR_CALLBACK, place your clock startup code here. */
 140:Generated_Source\PSoC5/cyfitter_cfg.c ****     /* `#START CyClockStartupError` */
 141:Generated_Source\PSoC5/cyfitter_cfg.c **** 
 142:Generated_Source\PSoC5/cyfitter_cfg.c **** 
 143:Generated_Source\PSoC5/cyfitter_cfg.c **** 
 144:Generated_Source\PSoC5/cyfitter_cfg.c ****     /* `#END` */
 145:Generated_Source\PSoC5/cyfitter_cfg.c **** 
 146:Generated_Source\PSoC5/cyfitter_cfg.c ****     while(1) {}
 147:Generated_Source\PSoC5/cyfitter_cfg.c **** #endif /* CY_CFG_CLOCK_STARTUP_ERROR_CALLBACK */
 148:Generated_Source\PSoC5/cyfitter_cfg.c **** }
 149:Generated_Source\PSoC5/cyfitter_cfg.c **** #endif
 150:Generated_Source\PSoC5/cyfitter_cfg.c **** 
 151:Generated_Source\PSoC5/cyfitter_cfg.c **** #define CY_CFG_BASE_ADDR_COUNT 41u
 152:Generated_Source\PSoC5/cyfitter_cfg.c **** CYPACKED typedef struct
 153:Generated_Source\PSoC5/cyfitter_cfg.c **** {
 154:Generated_Source\PSoC5/cyfitter_cfg.c **** 	uint8 offset;
 155:Generated_Source\PSoC5/cyfitter_cfg.c **** 	uint8 value;
 156:Generated_Source\PSoC5/cyfitter_cfg.c **** } CYPACKED_ATTR cy_cfg_addrvalue_t;
 157:Generated_Source\PSoC5/cyfitter_cfg.c **** 
 158:Generated_Source\PSoC5/cyfitter_cfg.c **** #define cy_cfg_addr_table ((const uint32 CYFAR *)0x48000000u)
 159:Generated_Source\PSoC5/cyfitter_cfg.c **** #define cy_cfg_data_table ((const cy_cfg_addrvalue_t CYFAR *)0x480000A4u)
 160:Generated_Source\PSoC5/cyfitter_cfg.c **** 
 161:Generated_Source\PSoC5/cyfitter_cfg.c **** /* IOPORT_7 Address: CYDEV_PRTDSI_PRT12_BASE Size (bytes): 6 */
 162:Generated_Source\PSoC5/cyfitter_cfg.c **** #define BS_IOPORT_7_VAL ((const uint8 CYFAR *)0x4800107Cu)
 163:Generated_Source\PSoC5/cyfitter_cfg.c **** 
 164:Generated_Source\PSoC5/cyfitter_cfg.c **** /* IOPINS0_0 Address: CYREG_PRT0_DM0 Size (bytes): 8 */
 165:Generated_Source\PSoC5/cyfitter_cfg.c **** #define BS_IOPINS0_0_VAL ((const uint8 CYFAR *)0x48001084u)
 166:Generated_Source\PSoC5/cyfitter_cfg.c **** 
 167:Generated_Source\PSoC5/cyfitter_cfg.c **** /* IOPINS0_7 Address: CYREG_PRT12_DR Size (bytes): 10 */
 168:Generated_Source\PSoC5/cyfitter_cfg.c **** #define BS_IOPINS0_7_VAL ((const uint8 CYFAR *)0x4800108Cu)
 169:Generated_Source\PSoC5/cyfitter_cfg.c **** 
 170:Generated_Source\PSoC5/cyfitter_cfg.c **** /* IOPINS0_8 Address: CYREG_PRT15_DM0 Size (bytes): 8 */
 171:Generated_Source\PSoC5/cyfitter_cfg.c **** #define BS_IOPINS0_8_VAL ((const uint8 CYFAR *)0x48001098u)
 172:Generated_Source\PSoC5/cyfitter_cfg.c **** 
 173:Generated_Source\PSoC5/cyfitter_cfg.c **** /* IOPINS0_1 Address: CYREG_PRT1_DR Size (bytes): 10 */
 174:Generated_Source\PSoC5/cyfitter_cfg.c **** #define BS_IOPINS0_1_VAL ((const uint8 CYFAR *)0x480010A0u)
 175:Generated_Source\PSoC5/cyfitter_cfg.c **** 
 176:Generated_Source\PSoC5/cyfitter_cfg.c **** /* IOPINS0_2 Address: CYREG_PRT2_DR Size (bytes): 10 */
 177:Generated_Source\PSoC5/cyfitter_cfg.c **** #define BS_IOPINS0_2_VAL ((const uint8 CYFAR *)0x480010ACu)
 178:Generated_Source\PSoC5/cyfitter_cfg.c **** 
 179:Generated_Source\PSoC5/cyfitter_cfg.c **** /* IOPINS0_3 Address: CYREG_PRT3_DM0 Size (bytes): 8 */
 180:Generated_Source\PSoC5/cyfitter_cfg.c **** #define BS_IOPINS0_3_VAL ((const uint8 CYFAR *)0x480010B8u)
 181:Generated_Source\PSoC5/cyfitter_cfg.c **** 
 182:Generated_Source\PSoC5/cyfitter_cfg.c **** /* CYDEV_CLKDIST_ACFG0_CFG0 Address: CYREG_CLKDIST_ACFG0_CFG0 Size (bytes): 4 */
 183:Generated_Source\PSoC5/cyfitter_cfg.c **** #define BS_CYDEV_CLKDIST_ACFG0_CFG0_VAL ((const uint8 CYFAR *)0x480010C0u)
ARM GAS  C:\Users\Blayke\AppData\Local\Temp\ccrYvLKo.s 			page 5


 184:Generated_Source\PSoC5/cyfitter_cfg.c **** 
 185:Generated_Source\PSoC5/cyfitter_cfg.c **** 
 186:Generated_Source\PSoC5/cyfitter_cfg.c **** /*******************************************************************************
 187:Generated_Source\PSoC5/cyfitter_cfg.c **** * Function Name: cfg_write_bytes32
 188:Generated_Source\PSoC5/cyfitter_cfg.c **** ********************************************************************************
 189:Generated_Source\PSoC5/cyfitter_cfg.c **** * Summary:
 190:Generated_Source\PSoC5/cyfitter_cfg.c **** *  This function is used for setting up the chip configuration areas that
 191:Generated_Source\PSoC5/cyfitter_cfg.c **** *  contain relatively sparse data.
 192:Generated_Source\PSoC5/cyfitter_cfg.c **** *
 193:Generated_Source\PSoC5/cyfitter_cfg.c **** * Parameters:
 194:Generated_Source\PSoC5/cyfitter_cfg.c **** *   void
 195:Generated_Source\PSoC5/cyfitter_cfg.c **** *
 196:Generated_Source\PSoC5/cyfitter_cfg.c **** * Return:
 197:Generated_Source\PSoC5/cyfitter_cfg.c **** *   void
 198:Generated_Source\PSoC5/cyfitter_cfg.c **** *
 199:Generated_Source\PSoC5/cyfitter_cfg.c **** *******************************************************************************/
 200:Generated_Source\PSoC5/cyfitter_cfg.c **** static void cfg_write_bytes32(const uint32 addr_table[], const cy_cfg_addrvalue_t data_table[]);
 201:Generated_Source\PSoC5/cyfitter_cfg.c **** static void cfg_write_bytes32(const uint32 addr_table[], const cy_cfg_addrvalue_t data_table[])
 202:Generated_Source\PSoC5/cyfitter_cfg.c **** {
  46              		.loc 1 202 0
  47              		.cfi_startproc
  48              		@ args = 0, pretend = 0, frame = 0
  49              		@ frame_needed = 0, uses_anonymous_args = 0
  50              		@ link register save eliminated.
  51              	.LVL1:
  52              		.loc 1 202 0
  53 0000 F0B4     		push	{r4, r5, r6, r7}
  54              		.cfi_def_cfa_offset 16
  55              		.cfi_offset 4, -16
  56              		.cfi_offset 5, -12
  57              		.cfi_offset 6, -8
  58              		.cfi_offset 7, -4
  59              	.LVL2:
 203:Generated_Source\PSoC5/cyfitter_cfg.c **** 	/* For 32-bit little-endian architectures */
 204:Generated_Source\PSoC5/cyfitter_cfg.c **** 	uint32 i, j = 0u;
  60              		.loc 1 204 0
  61 0002 0022     		movs	r2, #0
 205:Generated_Source\PSoC5/cyfitter_cfg.c **** 	for (i = 0u; i < CY_CFG_BASE_ADDR_COUNT; i++)
  62              		.loc 1 205 0
  63 0004 1746     		mov	r7, r2
  64 0006 11E0     		b	.L4
  65              	.LVL3:
  66              	.L7:
  67              	.LBB2:
 206:Generated_Source\PSoC5/cyfitter_cfg.c **** 	{
 207:Generated_Source\PSoC5/cyfitter_cfg.c **** 		uint32 baseAddr = addr_table[i];
  68              		.loc 1 207 0
  69 0008 50F82760 		ldr	r6, [r0, r7, lsl #2]
  70              	.LVL4:
 208:Generated_Source\PSoC5/cyfitter_cfg.c **** 		uint8 count = (uint8)baseAddr;
  71              		.loc 1 208 0
  72 000c F3B2     		uxtb	r3, r6
  73              	.LVL5:
 209:Generated_Source\PSoC5/cyfitter_cfg.c **** 		baseAddr &= 0xFFFFFF00u;
  74              		.loc 1 209 0
  75 000e 26F0FF06 		bic	r6, r6, #255
  76              	.LVL6:
ARM GAS  C:\Users\Blayke\AppData\Local\Temp\ccrYvLKo.s 			page 6


 210:Generated_Source\PSoC5/cyfitter_cfg.c **** 		while (count != 0u)
  77              		.loc 1 210 0
  78 0012 08E0     		b	.L5
  79              	.L6:
 211:Generated_Source\PSoC5/cyfitter_cfg.c **** 		{
 212:Generated_Source\PSoC5/cyfitter_cfg.c **** 			CY_SET_REG8((void *)(baseAddr + data_table[j].offset), data_table[j].value);
  80              		.loc 1 212 0
  81 0014 01EB4205 		add	r5, r1, r2, lsl #1
  82 0018 11F81240 		ldrb	r4, [r1, r2, lsl #1]	@ zero_extendqisi2
  83 001c 6D78     		ldrb	r5, [r5, #1]	@ zero_extendqisi2
  84 001e A555     		strb	r5, [r4, r6]
 213:Generated_Source\PSoC5/cyfitter_cfg.c **** 			j++;
  85              		.loc 1 213 0
  86 0020 0132     		adds	r2, r2, #1
  87              	.LVL7:
 214:Generated_Source\PSoC5/cyfitter_cfg.c **** 			count--;
  88              		.loc 1 214 0
  89 0022 013B     		subs	r3, r3, #1
  90              	.LVL8:
  91 0024 DBB2     		uxtb	r3, r3
  92              	.LVL9:
  93              	.L5:
 210:Generated_Source\PSoC5/cyfitter_cfg.c **** 		{
  94              		.loc 1 210 0
  95 0026 002B     		cmp	r3, #0
  96 0028 F4D1     		bne	.L6
  97              	.LBE2:
 205:Generated_Source\PSoC5/cyfitter_cfg.c **** 	{
  98              		.loc 1 205 0 discriminator 2
  99 002a 0137     		adds	r7, r7, #1
 100              	.LVL10:
 101              	.L4:
 205:Generated_Source\PSoC5/cyfitter_cfg.c **** 	{
 102              		.loc 1 205 0 is_stmt 0 discriminator 1
 103 002c 282F     		cmp	r7, #40
 104 002e EBD9     		bls	.L7
 215:Generated_Source\PSoC5/cyfitter_cfg.c **** 		}
 216:Generated_Source\PSoC5/cyfitter_cfg.c **** 	}
 217:Generated_Source\PSoC5/cyfitter_cfg.c **** }
 105              		.loc 1 217 0 is_stmt 1
 106 0030 F0BC     		pop	{r4, r5, r6, r7}
 107              		.cfi_restore 7
 108              		.cfi_restore 6
 109              		.cfi_restore 5
 110              		.cfi_restore 4
 111              		.cfi_def_cfa_offset 0
 112              	.LVL11:
 113 0032 7047     		bx	lr
 114              		.cfi_endproc
 115              	.LFE4:
 116              		.size	cfg_write_bytes32, .-cfg_write_bytes32
 117              		.section	.text.AnalogSetDefault,"ax",%progbits
 118              		.align	2
 119              		.thumb
 120              		.thumb_func
 121              		.type	AnalogSetDefault, %function
 122              	AnalogSetDefault:
ARM GAS  C:\Users\Blayke\AppData\Local\Temp\ccrYvLKo.s 			page 7


 123              	.LFB6:
 218:Generated_Source\PSoC5/cyfitter_cfg.c **** 
 219:Generated_Source\PSoC5/cyfitter_cfg.c **** /*******************************************************************************
 220:Generated_Source\PSoC5/cyfitter_cfg.c **** * Function Name: ClockSetup
 221:Generated_Source\PSoC5/cyfitter_cfg.c **** ********************************************************************************
 222:Generated_Source\PSoC5/cyfitter_cfg.c **** *
 223:Generated_Source\PSoC5/cyfitter_cfg.c **** * Summary:
 224:Generated_Source\PSoC5/cyfitter_cfg.c **** *  Performs the initialization of all of the clocks in the device based on the
 225:Generated_Source\PSoC5/cyfitter_cfg.c **** *  settings in the Clock tab of the DWR.  This includes enabling the requested
 226:Generated_Source\PSoC5/cyfitter_cfg.c **** *  clocks and setting the necessary dividers to produce the desired frequency. 
 227:Generated_Source\PSoC5/cyfitter_cfg.c **** *
 228:Generated_Source\PSoC5/cyfitter_cfg.c **** * Parameters:
 229:Generated_Source\PSoC5/cyfitter_cfg.c **** *  void
 230:Generated_Source\PSoC5/cyfitter_cfg.c **** *
 231:Generated_Source\PSoC5/cyfitter_cfg.c **** * Return:
 232:Generated_Source\PSoC5/cyfitter_cfg.c **** *  void
 233:Generated_Source\PSoC5/cyfitter_cfg.c **** *
 234:Generated_Source\PSoC5/cyfitter_cfg.c **** *******************************************************************************/
 235:Generated_Source\PSoC5/cyfitter_cfg.c **** static void ClockSetup(void);
 236:Generated_Source\PSoC5/cyfitter_cfg.c **** static void ClockSetup(void)
 237:Generated_Source\PSoC5/cyfitter_cfg.c **** {
 238:Generated_Source\PSoC5/cyfitter_cfg.c **** 	uint32 timeout;
 239:Generated_Source\PSoC5/cyfitter_cfg.c **** 	uint8 pllLock;
 240:Generated_Source\PSoC5/cyfitter_cfg.c **** 
 241:Generated_Source\PSoC5/cyfitter_cfg.c **** 
 242:Generated_Source\PSoC5/cyfitter_cfg.c **** 	/* Configure Digital Clocks based on settings from Clock DWR */
 243:Generated_Source\PSoC5/cyfitter_cfg.c **** 	CY_SET_XTND_REG16((void CYFAR *)(CYREG_CLKDIST_DCFG0_CFG0), 0x0000u);
 244:Generated_Source\PSoC5/cyfitter_cfg.c **** 	CY_SET_XTND_REG8((void CYFAR *)(CYREG_CLKDIST_DCFG0_CFG0 + 0x2u), 0x50u);
 245:Generated_Source\PSoC5/cyfitter_cfg.c **** 	CY_SET_XTND_REG16((void CYFAR *)(CYREG_CLKDIST_DCFG1_CFG0), 0x0001u);
 246:Generated_Source\PSoC5/cyfitter_cfg.c **** 	CY_SET_XTND_REG8((void CYFAR *)(CYREG_CLKDIST_DCFG1_CFG0 + 0x2u), 0x18u);
 247:Generated_Source\PSoC5/cyfitter_cfg.c **** 	CY_SET_XTND_REG16((void CYFAR *)(CYREG_CLKDIST_DCFG2_CFG0), 0x0017u);
 248:Generated_Source\PSoC5/cyfitter_cfg.c **** 	CY_SET_XTND_REG8((void CYFAR *)(CYREG_CLKDIST_DCFG2_CFG0 + 0x2u), 0x18u);
 249:Generated_Source\PSoC5/cyfitter_cfg.c **** 	CY_SET_XTND_REG16((void CYFAR *)(CYREG_CLKDIST_DCFG3_CFG0), 0x0033u);
 250:Generated_Source\PSoC5/cyfitter_cfg.c **** 	CY_SET_XTND_REG8((void CYFAR *)(CYREG_CLKDIST_DCFG3_CFG0 + 0x2u), 0x18u);
 251:Generated_Source\PSoC5/cyfitter_cfg.c **** 	CY_SET_XTND_REG16((void CYFAR *)(CYREG_CLKDIST_DCFG4_CFG0), 0x04AFu);
 252:Generated_Source\PSoC5/cyfitter_cfg.c **** 	CY_SET_XTND_REG8((void CYFAR *)(CYREG_CLKDIST_DCFG4_CFG0 + 0x2u), 0x18u);
 253:Generated_Source\PSoC5/cyfitter_cfg.c **** 	CY_SET_XTND_REG16((void CYFAR *)(CYREG_CLKDIST_DCFG5_CFG0), 0x1F3Fu);
 254:Generated_Source\PSoC5/cyfitter_cfg.c **** 	CY_SET_XTND_REG8((void CYFAR *)(CYREG_CLKDIST_DCFG5_CFG0 + 0x2u), 0x18u);
 255:Generated_Source\PSoC5/cyfitter_cfg.c **** 
 256:Generated_Source\PSoC5/cyfitter_cfg.c **** 	/* Configure Analog Clocks based on settings from Clock DWR */
 257:Generated_Source\PSoC5/cyfitter_cfg.c **** 	CYCONFIGCPY((void CYFAR *)(CYREG_CLKDIST_ACFG0_CFG0), (const void CYFAR *)(BS_CYDEV_CLKDIST_ACFG0_
 258:Generated_Source\PSoC5/cyfitter_cfg.c **** 
 259:Generated_Source\PSoC5/cyfitter_cfg.c **** 	/* Configure ILO based on settings from Clock DWR */
 260:Generated_Source\PSoC5/cyfitter_cfg.c **** 	CY_SET_XTND_REG8((void CYFAR *)(CYREG_SLOWCLK_ILO_CR0), 0x02u);
 261:Generated_Source\PSoC5/cyfitter_cfg.c **** 	CY_SET_XTND_REG8((void CYFAR *)(CYREG_CLKDIST_CR), 0x08u);
 262:Generated_Source\PSoC5/cyfitter_cfg.c **** 
 263:Generated_Source\PSoC5/cyfitter_cfg.c **** 	/* Configure IMO based on settings from Clock DWR */
 264:Generated_Source\PSoC5/cyfitter_cfg.c **** 	CY_SET_XTND_REG8((void CYFAR *)(CYREG_FASTCLK_IMO_CR), 0x03u);
 265:Generated_Source\PSoC5/cyfitter_cfg.c **** 	CY_SET_XTND_REG8((void CYFAR *)(CYREG_IMO_TR1), (CY_GET_XTND_REG8((void CYFAR *)CYREG_FLSHID_CUST_
 266:Generated_Source\PSoC5/cyfitter_cfg.c **** 
 267:Generated_Source\PSoC5/cyfitter_cfg.c **** 	/* Configure PLL based on settings from Clock DWR */
 268:Generated_Source\PSoC5/cyfitter_cfg.c **** 	CY_SET_XTND_REG16((void CYFAR *)(CYREG_FASTCLK_PLL_P), 0x0008u);
 269:Generated_Source\PSoC5/cyfitter_cfg.c **** 	CY_SET_XTND_REG16((void CYFAR *)(CYREG_FASTCLK_PLL_CFG0), 0x1251u);
 270:Generated_Source\PSoC5/cyfitter_cfg.c **** 	/* Wait up to 250us for the PLL to lock */
 271:Generated_Source\PSoC5/cyfitter_cfg.c **** 	pllLock = 0u;
 272:Generated_Source\PSoC5/cyfitter_cfg.c **** 	for (timeout = 250u / 10u; (timeout > 0u) && (pllLock != 0x03u); timeout--)
 273:Generated_Source\PSoC5/cyfitter_cfg.c **** 	{ 
ARM GAS  C:\Users\Blayke\AppData\Local\Temp\ccrYvLKo.s 			page 8


 274:Generated_Source\PSoC5/cyfitter_cfg.c **** 		pllLock = 0x03u & ((uint8)((uint8)pllLock << 1) | ((CY_GET_XTND_REG8((void CYFAR *)CYREG_FASTCLK_
 275:Generated_Source\PSoC5/cyfitter_cfg.c **** 		CyDelayCycles(10u * 48u); /* Delay 10us based on 48MHz clock */
 276:Generated_Source\PSoC5/cyfitter_cfg.c **** 	}
 277:Generated_Source\PSoC5/cyfitter_cfg.c **** 	/* If we ran out of time the PLL didn't lock so go to the error function */
 278:Generated_Source\PSoC5/cyfitter_cfg.c **** 	if (timeout == 0u)
 279:Generated_Source\PSoC5/cyfitter_cfg.c **** 	{
 280:Generated_Source\PSoC5/cyfitter_cfg.c **** 		CyClockStartupError(CYCLOCKSTART_PLL_ERROR);
 281:Generated_Source\PSoC5/cyfitter_cfg.c **** 	}
 282:Generated_Source\PSoC5/cyfitter_cfg.c **** 
 283:Generated_Source\PSoC5/cyfitter_cfg.c **** 	/* Configure Bus/Master Clock based on settings from Clock DWR */
 284:Generated_Source\PSoC5/cyfitter_cfg.c **** 	CY_SET_XTND_REG16((void CYFAR *)(CYREG_CLKDIST_MSTR0), 0x0100u);
 285:Generated_Source\PSoC5/cyfitter_cfg.c **** 	CY_SET_XTND_REG8((void CYFAR *)(CYREG_CLKDIST_MSTR0), 0x07u);
 286:Generated_Source\PSoC5/cyfitter_cfg.c **** 	CY_SET_XTND_REG8((void CYFAR *)(CYREG_CLKDIST_BCFG0), 0x00u);
 287:Generated_Source\PSoC5/cyfitter_cfg.c **** 	CY_SET_XTND_REG8((void CYFAR *)(CYREG_CLKDIST_BCFG2), 0x48u);
 288:Generated_Source\PSoC5/cyfitter_cfg.c **** 	CY_SET_XTND_REG8((void CYFAR *)(CYREG_CLKDIST_MSTR0), 0x00u);
 289:Generated_Source\PSoC5/cyfitter_cfg.c **** 	CY_SET_XTND_REG8((void CYFAR *)(CYREG_CLKDIST_LD), 0x02u);
 290:Generated_Source\PSoC5/cyfitter_cfg.c **** 	CY_SET_XTND_REG8((void CYFAR *)(CYREG_CLKDIST_DLY1), 0x04u);
 291:Generated_Source\PSoC5/cyfitter_cfg.c **** 
 292:Generated_Source\PSoC5/cyfitter_cfg.c **** 	CY_SET_XTND_REG8((void CYFAR *)(CYREG_PM_ACT_CFG2), ((CY_GET_XTND_REG8((void CYFAR *)CYREG_PM_ACT_
 293:Generated_Source\PSoC5/cyfitter_cfg.c **** 	CY_SET_XTND_REG8((void CYFAR *)(CYREG_PM_ACT_CFG1), ((CY_GET_XTND_REG8((void CYFAR *)CYREG_PM_ACT_
 294:Generated_Source\PSoC5/cyfitter_cfg.c **** 	CY_SET_XTND_REG8((void CYFAR *)(CYREG_PM_ACT_CFG0), ((CY_GET_XTND_REG8((void CYFAR *)CYREG_PM_ACT_
 295:Generated_Source\PSoC5/cyfitter_cfg.c **** }
 296:Generated_Source\PSoC5/cyfitter_cfg.c **** 
 297:Generated_Source\PSoC5/cyfitter_cfg.c **** 
 298:Generated_Source\PSoC5/cyfitter_cfg.c **** /* Analog API Functions */
 299:Generated_Source\PSoC5/cyfitter_cfg.c **** 
 300:Generated_Source\PSoC5/cyfitter_cfg.c **** 
 301:Generated_Source\PSoC5/cyfitter_cfg.c **** /*******************************************************************************
 302:Generated_Source\PSoC5/cyfitter_cfg.c **** * Function Name: AnalogSetDefault
 303:Generated_Source\PSoC5/cyfitter_cfg.c **** ********************************************************************************
 304:Generated_Source\PSoC5/cyfitter_cfg.c **** *
 305:Generated_Source\PSoC5/cyfitter_cfg.c **** * Summary:
 306:Generated_Source\PSoC5/cyfitter_cfg.c **** *  Sets up the analog portions of the chip to default values based on chip
 307:Generated_Source\PSoC5/cyfitter_cfg.c **** *  configuration options from the project.
 308:Generated_Source\PSoC5/cyfitter_cfg.c **** *
 309:Generated_Source\PSoC5/cyfitter_cfg.c **** * Parameters:
 310:Generated_Source\PSoC5/cyfitter_cfg.c **** *  void
 311:Generated_Source\PSoC5/cyfitter_cfg.c **** *
 312:Generated_Source\PSoC5/cyfitter_cfg.c **** * Return:
 313:Generated_Source\PSoC5/cyfitter_cfg.c **** *  void
 314:Generated_Source\PSoC5/cyfitter_cfg.c **** *
 315:Generated_Source\PSoC5/cyfitter_cfg.c **** *******************************************************************************/
 316:Generated_Source\PSoC5/cyfitter_cfg.c **** static void AnalogSetDefault(void);
 317:Generated_Source\PSoC5/cyfitter_cfg.c **** static void AnalogSetDefault(void)
 318:Generated_Source\PSoC5/cyfitter_cfg.c **** {
 124              		.loc 1 318 0
 125              		.cfi_startproc
 126              		@ args = 0, pretend = 0, frame = 0
 127              		@ frame_needed = 0, uses_anonymous_args = 0
 128              		@ link register save eliminated.
 129 0000 10B4     		push	{r4}
 130              		.cfi_def_cfa_offset 4
 131              		.cfi_offset 4, -4
 319:Generated_Source\PSoC5/cyfitter_cfg.c **** 	uint8 bg_xover_inl_trim = CY_GET_XTND_REG8((void CYFAR *)(CYREG_FLSHID_MFG_CFG_BG_XOVER_INL_TRIM +
 132              		.loc 1 319 0
 133 0002 194B     		ldr	r3, .L11
 134 0004 1B78     		ldrb	r3, [r3]	@ zero_extendqisi2
ARM GAS  C:\Users\Blayke\AppData\Local\Temp\ccrYvLKo.s 			page 9


 135 0006 DBB2     		uxtb	r3, r3
 136              	.LVL12:
 320:Generated_Source\PSoC5/cyfitter_cfg.c **** 	CY_SET_XTND_REG8((void CYFAR *)(CYREG_BG_DFT0), (bg_xover_inl_trim & 0x07u));
 137              		.loc 1 320 0
 138 0008 03F00701 		and	r1, r3, #7
 139 000c 174A     		ldr	r2, .L11+4
 140 000e 1170     		strb	r1, [r2]
 321:Generated_Source\PSoC5/cyfitter_cfg.c **** 	CY_SET_XTND_REG8((void CYFAR *)(CYREG_BG_DFT1), ((bg_xover_inl_trim >> 4) & 0x0Fu));
 141              		.loc 1 321 0
 142 0010 1B09     		lsrs	r3, r3, #4
 143              	.LVL13:
 144 0012 0132     		adds	r2, r2, #1
 145 0014 1370     		strb	r3, [r2]
 322:Generated_Source\PSoC5/cyfitter_cfg.c **** 	CY_SET_XTND_REG8((void CYFAR *)CYREG_CMP2_CR, 0x02u);
 146              		.loc 1 322 0
 147 0016 0223     		movs	r3, #2
 148 0018 2D3A     		subs	r2, r2, #45
 149 001a 1370     		strb	r3, [r2]
 323:Generated_Source\PSoC5/cyfitter_cfg.c **** 	CY_SET_XTND_REG8((void CYFAR *)CYREG_PM_ACT_CFG7, 0x04u);
 150              		.loc 1 323 0
 151 001c 0421     		movs	r1, #4
 152 001e A2F5A452 		sub	r2, r2, #5248
 153 0022 1B3A     		subs	r2, r2, #27
 154 0024 1170     		strb	r1, [r2]
 324:Generated_Source\PSoC5/cyfitter_cfg.c **** 	CY_SET_XTND_REG8((void CYFAR *)CYREG_PRT1_AG, 0x10u);
 155              		.loc 1 324 0
 156 0026 1021     		movs	r1, #16
 157 0028 02F67652 		addw	r2, r2, #3446
 158 002c 1170     		strb	r1, [r2]
 325:Generated_Source\PSoC5/cyfitter_cfg.c **** 	CY_SET_XTND_REG8((void CYFAR *)CYREG_PRT2_AG, 0x02u);
 159              		.loc 1 325 0
 160 002e 1032     		adds	r2, r2, #16
 161 0030 1370     		strb	r3, [r2]
 326:Generated_Source\PSoC5/cyfitter_cfg.c **** 	CY_SET_XTND_REG8((void CYFAR *)CYREG_SC2_SW0, 0x02u);
 162              		.loc 1 326 0
 163 0032 02F6F302 		addw	r2, r2, #2291
 164 0036 1370     		strb	r3, [r2]
 327:Generated_Source\PSoC5/cyfitter_cfg.c **** 	CY_SET_XTND_REG8((void CYFAR *)CYREG_SC2_SW4, 0x80u);
 165              		.loc 1 327 0
 166 0038 8022     		movs	r2, #128
 167 003a 0D48     		ldr	r0, .L11+8
 168 003c 0270     		strb	r2, [r0]
 328:Generated_Source\PSoC5/cyfitter_cfg.c **** 	CY_SET_XTND_REG8((void CYFAR *)CYREG_SC2_SW8, 0x10u);
 169              		.loc 1 328 0
 170 003e 0430     		adds	r0, r0, #4
 171 0040 0170     		strb	r1, [r0]
 329:Generated_Source\PSoC5/cyfitter_cfg.c **** 	CY_SET_XTND_REG8((void CYFAR *)CYREG_DAC1_SW4, 0x03u);
 172              		.loc 1 329 0
 173 0042 0324     		movs	r4, #3
 174 0044 6430     		adds	r0, r0, #100
 175 0046 0470     		strb	r4, [r0]
 330:Generated_Source\PSoC5/cyfitter_cfg.c **** 	CY_SET_XTND_REG8((void CYFAR *)CYREG_CMP2_SW3, 0x20u);
 176              		.loc 1 330 0
 177 0048 2024     		movs	r4, #32
 178 004a 4730     		adds	r0, r0, #71
 179 004c 0470     		strb	r4, [r0]
 331:Generated_Source\PSoC5/cyfitter_cfg.c **** 	CY_SET_XTND_REG8((void CYFAR *)CYREG_CMP2_SW4, 0x80u);
ARM GAS  C:\Users\Blayke\AppData\Local\Temp\ccrYvLKo.s 			page 10


 180              		.loc 1 331 0
 181 004e 0130     		adds	r0, r0, #1
 182 0050 0270     		strb	r2, [r0]
 332:Generated_Source\PSoC5/cyfitter_cfg.c **** 	CY_SET_XTND_REG8((void CYFAR *)CYREG_DSM0_SW0, 0x10u);
 183              		.loc 1 332 0
 184 0052 2C30     		adds	r0, r0, #44
 185 0054 0170     		strb	r1, [r0]
 333:Generated_Source\PSoC5/cyfitter_cfg.c **** 	CY_SET_XTND_REG8((void CYFAR *)CYREG_DSM0_SW4, 0x80u);
 186              		.loc 1 333 0
 187 0056 0749     		ldr	r1, .L11+12
 188 0058 0A70     		strb	r2, [r1]
 334:Generated_Source\PSoC5/cyfitter_cfg.c **** 	CY_SET_XTND_REG8((void CYFAR *)CYREG_BUS_SW0, 0x02u);
 189              		.loc 1 334 0
 190 005a 074A     		ldr	r2, .L11+16
 191 005c 1370     		strb	r3, [r2]
 335:Generated_Source\PSoC5/cyfitter_cfg.c **** 	CY_SET_XTND_REG8((void CYFAR *)CYREG_PUMP_CR0, 0x44u);
 192              		.loc 1 335 0
 193 005e 4422     		movs	r2, #68
 194 0060 064B     		ldr	r3, .L11+20
 195 0062 1A70     		strb	r2, [r3]
 336:Generated_Source\PSoC5/cyfitter_cfg.c **** }
 196              		.loc 1 336 0
 197 0064 10BC     		pop	{r4}
 198              		.cfi_restore 4
 199              		.cfi_def_cfa_offset 0
 200 0066 7047     		bx	lr
 201              	.L12:
 202              		.align	2
 203              	.L11:
 204 0068 CF010049 		.word	1224737231
 205 006c 6E580040 		.word	1073764462
 206 0070 245A0040 		.word	1073764900
 207 0074 045B0040 		.word	1073765124
 208 0078 585B0040 		.word	1073765208
 209 007c 76580040 		.word	1073764470
 210              		.cfi_endproc
 211              	.LFE6:
 212              		.size	AnalogSetDefault, .-AnalogSetDefault
 213              		.section	.text.CYMEMZERO,"ax",%progbits
 214              		.align	2
 215              		.thumb
 216              		.thumb_func
 217              		.type	CYMEMZERO, %function
 218              	CYMEMZERO:
 219              	.LFB0:
  78:Generated_Source\PSoC5/cyfitter_cfg.c **** 	(void)memset(s, 0, n);
 220              		.loc 1 78 0
 221              		.cfi_startproc
 222              		@ args = 0, pretend = 0, frame = 0
 223              		@ frame_needed = 0, uses_anonymous_args = 0
 224              	.LVL14:
 225 0000 08B5     		push	{r3, lr}
 226              		.cfi_def_cfa_offset 8
 227              		.cfi_offset 3, -8
 228              		.cfi_offset 14, -4
  79:Generated_Source\PSoC5/cyfitter_cfg.c **** }
 229              		.loc 1 79 0
ARM GAS  C:\Users\Blayke\AppData\Local\Temp\ccrYvLKo.s 			page 11


 230 0002 0A46     		mov	r2, r1
 231 0004 0021     		movs	r1, #0
 232              	.LVL15:
 233 0006 FFF7FEFF 		bl	memset
 234              	.LVL16:
 235 000a 08BD     		pop	{r3, pc}
 236              		.cfi_endproc
 237              	.LFE0:
 238              		.size	CYMEMZERO, .-CYMEMZERO
 239              		.section	.text.CYCONFIGCPY,"ax",%progbits
 240              		.align	2
 241              		.thumb
 242              		.thumb_func
 243              		.type	CYCONFIGCPY, %function
 244              	CYCONFIGCPY:
 245              	.LFB1:
  85:Generated_Source\PSoC5/cyfitter_cfg.c **** 	(void)memcpy(dest, src, n);
 246              		.loc 1 85 0
 247              		.cfi_startproc
 248              		@ args = 0, pretend = 0, frame = 0
 249              		@ frame_needed = 0, uses_anonymous_args = 0
 250              	.LVL17:
 251 0000 08B5     		push	{r3, lr}
 252              		.cfi_def_cfa_offset 8
 253              		.cfi_offset 3, -8
 254              		.cfi_offset 14, -4
  86:Generated_Source\PSoC5/cyfitter_cfg.c **** }
 255              		.loc 1 86 0
 256 0002 FFF7FEFF 		bl	memcpy
 257              	.LVL18:
 258 0006 08BD     		pop	{r3, pc}
 259              		.cfi_endproc
 260              	.LFE1:
 261              		.size	CYCONFIGCPY, .-CYCONFIGCPY
 262              		.section	.text.ClockSetup,"ax",%progbits
 263              		.align	2
 264              		.thumb
 265              		.thumb_func
 266              		.type	ClockSetup, %function
 267              	ClockSetup:
 268              	.LFB5:
 237:Generated_Source\PSoC5/cyfitter_cfg.c **** 	uint32 timeout;
 269              		.loc 1 237 0
 270              		.cfi_startproc
 271              		@ args = 0, pretend = 0, frame = 0
 272              		@ frame_needed = 0, uses_anonymous_args = 0
 273 0000 38B5     		push	{r3, r4, r5, lr}
 274              		.cfi_def_cfa_offset 16
 275              		.cfi_offset 3, -16
 276              		.cfi_offset 4, -12
 277              		.cfi_offset 5, -8
 278              		.cfi_offset 14, -4
 243:Generated_Source\PSoC5/cyfitter_cfg.c **** 	CY_SET_XTND_REG8((void CYFAR *)(CYREG_CLKDIST_DCFG0_CFG0 + 0x2u), 0x50u);
 279              		.loc 1 243 0
 280 0002 0024     		movs	r4, #0
 281 0004 3A4B     		ldr	r3, .L23
 282 0006 1C80     		strh	r4, [r3]	@ movhi
ARM GAS  C:\Users\Blayke\AppData\Local\Temp\ccrYvLKo.s 			page 12


 244:Generated_Source\PSoC5/cyfitter_cfg.c **** 	CY_SET_XTND_REG16((void CYFAR *)(CYREG_CLKDIST_DCFG1_CFG0), 0x0001u);
 283              		.loc 1 244 0
 284 0008 5022     		movs	r2, #80
 285 000a 0233     		adds	r3, r3, #2
 286 000c 1A70     		strb	r2, [r3]
 245:Generated_Source\PSoC5/cyfitter_cfg.c **** 	CY_SET_XTND_REG8((void CYFAR *)(CYREG_CLKDIST_DCFG1_CFG0 + 0x2u), 0x18u);
 287              		.loc 1 245 0
 288 000e 0122     		movs	r2, #1
 289 0010 0233     		adds	r3, r3, #2
 290 0012 1A80     		strh	r2, [r3]	@ movhi
 246:Generated_Source\PSoC5/cyfitter_cfg.c **** 	CY_SET_XTND_REG16((void CYFAR *)(CYREG_CLKDIST_DCFG2_CFG0), 0x0017u);
 291              		.loc 1 246 0
 292 0014 1823     		movs	r3, #24
 293 0016 374A     		ldr	r2, .L23+4
 294 0018 1370     		strb	r3, [r2]
 247:Generated_Source\PSoC5/cyfitter_cfg.c **** 	CY_SET_XTND_REG8((void CYFAR *)(CYREG_CLKDIST_DCFG2_CFG0 + 0x2u), 0x18u);
 295              		.loc 1 247 0
 296 001a 1721     		movs	r1, #23
 297 001c 0232     		adds	r2, r2, #2
 298 001e 1180     		strh	r1, [r2]	@ movhi
 248:Generated_Source\PSoC5/cyfitter_cfg.c **** 	CY_SET_XTND_REG16((void CYFAR *)(CYREG_CLKDIST_DCFG3_CFG0), 0x0033u);
 299              		.loc 1 248 0
 300 0020 0232     		adds	r2, r2, #2
 301 0022 1370     		strb	r3, [r2]
 249:Generated_Source\PSoC5/cyfitter_cfg.c **** 	CY_SET_XTND_REG8((void CYFAR *)(CYREG_CLKDIST_DCFG3_CFG0 + 0x2u), 0x18u);
 302              		.loc 1 249 0
 303 0024 3321     		movs	r1, #51
 304 0026 0232     		adds	r2, r2, #2
 305 0028 1180     		strh	r1, [r2]	@ movhi
 250:Generated_Source\PSoC5/cyfitter_cfg.c **** 	CY_SET_XTND_REG16((void CYFAR *)(CYREG_CLKDIST_DCFG4_CFG0), 0x04AFu);
 306              		.loc 1 250 0
 307 002a 0232     		adds	r2, r2, #2
 308 002c 1370     		strb	r3, [r2]
 251:Generated_Source\PSoC5/cyfitter_cfg.c **** 	CY_SET_XTND_REG8((void CYFAR *)(CYREG_CLKDIST_DCFG4_CFG0 + 0x2u), 0x18u);
 309              		.loc 1 251 0
 310 002e 40F2AF41 		movw	r1, #1199
 311 0032 0232     		adds	r2, r2, #2
 312 0034 1180     		strh	r1, [r2]	@ movhi
 252:Generated_Source\PSoC5/cyfitter_cfg.c **** 	CY_SET_XTND_REG16((void CYFAR *)(CYREG_CLKDIST_DCFG5_CFG0), 0x1F3Fu);
 313              		.loc 1 252 0
 314 0036 0232     		adds	r2, r2, #2
 315 0038 1370     		strb	r3, [r2]
 253:Generated_Source\PSoC5/cyfitter_cfg.c **** 	CY_SET_XTND_REG8((void CYFAR *)(CYREG_CLKDIST_DCFG5_CFG0 + 0x2u), 0x18u);
 316              		.loc 1 253 0
 317 003a 41F63F71 		movw	r1, #7999
 318 003e 0232     		adds	r2, r2, #2
 319 0040 1180     		strh	r1, [r2]	@ movhi
 254:Generated_Source\PSoC5/cyfitter_cfg.c **** 
 320              		.loc 1 254 0
 321 0042 0232     		adds	r2, r2, #2
 322 0044 1370     		strb	r3, [r2]
 257:Generated_Source\PSoC5/cyfitter_cfg.c **** 
 323              		.loc 1 257 0
 324 0046 0422     		movs	r2, #4
 325 0048 2B49     		ldr	r1, .L23+8
 326 004a 2C48     		ldr	r0, .L23+12
 327 004c FFF7FEFF 		bl	CYCONFIGCPY
ARM GAS  C:\Users\Blayke\AppData\Local\Temp\ccrYvLKo.s 			page 13


 328              	.LVL19:
 260:Generated_Source\PSoC5/cyfitter_cfg.c **** 	CY_SET_XTND_REG8((void CYFAR *)(CYREG_CLKDIST_CR), 0x08u);
 329              		.loc 1 260 0
 330 0050 0222     		movs	r2, #2
 331 0052 2B4B     		ldr	r3, .L23+16
 332 0054 1A70     		strb	r2, [r3]
 261:Generated_Source\PSoC5/cyfitter_cfg.c **** 
 333              		.loc 1 261 0
 334 0056 0822     		movs	r2, #8
 335 0058 4FF04023 		mov	r3, #1073758208
 336 005c 1A70     		strb	r2, [r3]
 264:Generated_Source\PSoC5/cyfitter_cfg.c **** 	CY_SET_XTND_REG8((void CYFAR *)(CYREG_IMO_TR1), (CY_GET_XTND_REG8((void CYFAR *)CYREG_FLSHID_CUST_
 337              		.loc 1 264 0
 338 005e 0321     		movs	r1, #3
 339 0060 03F50073 		add	r3, r3, #512
 340 0064 1970     		strb	r1, [r3]
 265:Generated_Source\PSoC5/cyfitter_cfg.c **** 
 341              		.loc 1 265 0
 342 0066 274B     		ldr	r3, .L23+20
 343 0068 1B78     		ldrb	r3, [r3]	@ zero_extendqisi2
 344 006a DBB2     		uxtb	r3, r3
 345 006c 2649     		ldr	r1, .L23+24
 346 006e 0B70     		strb	r3, [r1]
 268:Generated_Source\PSoC5/cyfitter_cfg.c **** 	CY_SET_XTND_REG16((void CYFAR *)(CYREG_FASTCLK_PLL_CFG0), 0x1251u);
 347              		.loc 1 268 0
 348 0070 264B     		ldr	r3, .L23+28
 349 0072 1A80     		strh	r2, [r3]	@ movhi
 269:Generated_Source\PSoC5/cyfitter_cfg.c **** 	/* Wait up to 250us for the PLL to lock */
 350              		.loc 1 269 0
 351 0074 41F25122 		movw	r2, #4689
 352 0078 023B     		subs	r3, r3, #2
 353 007a 1A80     		strh	r2, [r3]	@ movhi
 354              	.LVL20:
 272:Generated_Source\PSoC5/cyfitter_cfg.c **** 	{ 
 355              		.loc 1 272 0
 356 007c 1925     		movs	r5, #25
 357 007e 0CE0     		b	.L18
 358              	.LVL21:
 359              	.L20:
 274:Generated_Source\PSoC5/cyfitter_cfg.c **** 		CyDelayCycles(10u * 48u); /* Delay 10us based on 48MHz clock */
 360              		.loc 1 274 0 discriminator 4
 361 0080 234B     		ldr	r3, .L23+32
 362 0082 1B78     		ldrb	r3, [r3]	@ zero_extendqisi2
 363 0084 03F00103 		and	r3, r3, #1
 364 0088 43EA4404 		orr	r4, r3, r4, lsl #1
 365              	.LVL22:
 366 008c 04F00304 		and	r4, r4, #3
 367              	.LVL23:
 275:Generated_Source\PSoC5/cyfitter_cfg.c **** 	}
 368              		.loc 1 275 0 discriminator 4
 369 0090 4FF4F070 		mov	r0, #480
 370 0094 FFF7FEFF 		bl	CyDelayCycles
 371              	.LVL24:
 272:Generated_Source\PSoC5/cyfitter_cfg.c **** 	{ 
 372              		.loc 1 272 0 discriminator 4
 373 0098 013D     		subs	r5, r5, #1
 374              	.LVL25:
ARM GAS  C:\Users\Blayke\AppData\Local\Temp\ccrYvLKo.s 			page 14


 375              	.L18:
 272:Generated_Source\PSoC5/cyfitter_cfg.c **** 	{ 
 376              		.loc 1 272 0 is_stmt 0 discriminator 1
 377 009a 0DB1     		cbz	r5, .L19
 272:Generated_Source\PSoC5/cyfitter_cfg.c **** 	{ 
 378              		.loc 1 272 0 discriminator 3
 379 009c 032C     		cmp	r4, #3
 380 009e EFD1     		bne	.L20
 381              	.L19:
 278:Generated_Source\PSoC5/cyfitter_cfg.c **** 	{
 382              		.loc 1 278 0 is_stmt 1
 383 00a0 15B9     		cbnz	r5, .L21
 280:Generated_Source\PSoC5/cyfitter_cfg.c **** 	}
 384              		.loc 1 280 0
 385 00a2 0320     		movs	r0, #3
 386 00a4 FFF7FEFF 		bl	CyClockStartupError
 387              	.LVL26:
 388              	.L21:
 284:Generated_Source\PSoC5/cyfitter_cfg.c **** 	CY_SET_XTND_REG8((void CYFAR *)(CYREG_CLKDIST_MSTR0), 0x07u);
 389              		.loc 1 284 0
 390 00a8 1A4B     		ldr	r3, .L23+36
 391 00aa 4FF48072 		mov	r2, #256
 392 00ae 1A80     		strh	r2, [r3]	@ movhi
 285:Generated_Source\PSoC5/cyfitter_cfg.c **** 	CY_SET_XTND_REG8((void CYFAR *)(CYREG_CLKDIST_BCFG0), 0x00u);
 393              		.loc 1 285 0
 394 00b0 0722     		movs	r2, #7
 395 00b2 1A70     		strb	r2, [r3]
 286:Generated_Source\PSoC5/cyfitter_cfg.c **** 	CY_SET_XTND_REG8((void CYFAR *)(CYREG_CLKDIST_BCFG2), 0x48u);
 396              		.loc 1 286 0
 397 00b4 0022     		movs	r2, #0
 398 00b6 1849     		ldr	r1, .L23+40
 399 00b8 0A70     		strb	r2, [r1]
 287:Generated_Source\PSoC5/cyfitter_cfg.c **** 	CY_SET_XTND_REG8((void CYFAR *)(CYREG_CLKDIST_MSTR0), 0x00u);
 400              		.loc 1 287 0
 401 00ba 4820     		movs	r0, #72
 402 00bc 0231     		adds	r1, r1, #2
 403 00be 0870     		strb	r0, [r1]
 288:Generated_Source\PSoC5/cyfitter_cfg.c **** 	CY_SET_XTND_REG8((void CYFAR *)(CYREG_CLKDIST_LD), 0x02u);
 404              		.loc 1 288 0
 405 00c0 1A70     		strb	r2, [r3]
 289:Generated_Source\PSoC5/cyfitter_cfg.c **** 	CY_SET_XTND_REG8((void CYFAR *)(CYREG_CLKDIST_DLY1), 0x04u);
 406              		.loc 1 289 0
 407 00c2 0222     		movs	r2, #2
 408 00c4 033B     		subs	r3, r3, #3
 409 00c6 1A70     		strb	r2, [r3]
 290:Generated_Source\PSoC5/cyfitter_cfg.c **** 
 410              		.loc 1 290 0
 411 00c8 0422     		movs	r2, #4
 412 00ca 0A33     		adds	r3, r3, #10
 413 00cc 1A70     		strb	r2, [r3]
 292:Generated_Source\PSoC5/cyfitter_cfg.c **** 	CY_SET_XTND_REG8((void CYFAR *)(CYREG_PM_ACT_CFG1), ((CY_GET_XTND_REG8((void CYFAR *)CYREG_PM_ACT_
 414              		.loc 1 292 0
 415 00ce 134A     		ldr	r2, .L23+44
 416 00d0 1378     		ldrb	r3, [r2]	@ zero_extendqisi2
 417 00d2 43F03F03 		orr	r3, r3, #63
 418 00d6 1370     		strb	r3, [r2]
 293:Generated_Source\PSoC5/cyfitter_cfg.c **** 	CY_SET_XTND_REG8((void CYFAR *)(CYREG_PM_ACT_CFG0), ((CY_GET_XTND_REG8((void CYFAR *)CYREG_PM_ACT_
ARM GAS  C:\Users\Blayke\AppData\Local\Temp\ccrYvLKo.s 			page 15


 419              		.loc 1 293 0
 420 00d8 013A     		subs	r2, r2, #1
 421 00da 1378     		ldrb	r3, [r2]	@ zero_extendqisi2
 422 00dc 43F00103 		orr	r3, r3, #1
 423 00e0 1370     		strb	r3, [r2]
 294:Generated_Source\PSoC5/cyfitter_cfg.c **** }
 424              		.loc 1 294 0
 425 00e2 013A     		subs	r2, r2, #1
 426 00e4 1378     		ldrb	r3, [r2]	@ zero_extendqisi2
 427 00e6 43F08003 		orr	r3, r3, #128
 428 00ea 1370     		strb	r3, [r2]
 429 00ec 38BD     		pop	{r3, r4, r5, pc}
 430              	.LVL27:
 431              	.L24:
 432 00ee 00BF     		.align	2
 433              	.L23:
 434 00f0 80400040 		.word	1073758336
 435 00f4 86400040 		.word	1073758342
 436 00f8 C0100048 		.word	1207963840
 437 00fc 00410040 		.word	1073758464
 438 0100 00430040 		.word	1073758976
 439 0104 08010049 		.word	1224737032
 440 0108 A1460040 		.word	1073759905
 441 010c 22420040 		.word	1073758754
 442 0110 25420040 		.word	1073758757
 443 0114 04400040 		.word	1073758212
 444 0118 06400040 		.word	1073758214
 445 011c A2430040 		.word	1073759138
 446              		.cfi_endproc
 447              	.LFE5:
 448              		.size	ClockSetup, .-ClockSetup
 449              		.section	.text.SetAnalogRoutingPumps,"ax",%progbits
 450              		.align	2
 451              		.global	SetAnalogRoutingPumps
 452              		.thumb
 453              		.thumb_func
 454              		.type	SetAnalogRoutingPumps, %function
 455              	SetAnalogRoutingPumps:
 456              	.LFB7:
 337:Generated_Source\PSoC5/cyfitter_cfg.c **** 
 338:Generated_Source\PSoC5/cyfitter_cfg.c **** 
 339:Generated_Source\PSoC5/cyfitter_cfg.c **** /*******************************************************************************
 340:Generated_Source\PSoC5/cyfitter_cfg.c **** * Function Name: SetAnalogRoutingPumps
 341:Generated_Source\PSoC5/cyfitter_cfg.c **** ********************************************************************************
 342:Generated_Source\PSoC5/cyfitter_cfg.c **** *
 343:Generated_Source\PSoC5/cyfitter_cfg.c **** * Summary:
 344:Generated_Source\PSoC5/cyfitter_cfg.c **** * Enables or disables the analog pumps feeding analog routing switches.
 345:Generated_Source\PSoC5/cyfitter_cfg.c **** * Intended to be called at startup, based on the Vdda system configuration;
 346:Generated_Source\PSoC5/cyfitter_cfg.c **** * may be called during operation when the user informs us that the Vdda voltage
 347:Generated_Source\PSoC5/cyfitter_cfg.c **** * crossed the pump threshold.
 348:Generated_Source\PSoC5/cyfitter_cfg.c **** *
 349:Generated_Source\PSoC5/cyfitter_cfg.c **** * Parameters:
 350:Generated_Source\PSoC5/cyfitter_cfg.c **** *  enabled - 1 to enable the pumps, 0 to disable the pumps
 351:Generated_Source\PSoC5/cyfitter_cfg.c **** *
 352:Generated_Source\PSoC5/cyfitter_cfg.c **** * Return:
 353:Generated_Source\PSoC5/cyfitter_cfg.c **** *  void
 354:Generated_Source\PSoC5/cyfitter_cfg.c **** *
ARM GAS  C:\Users\Blayke\AppData\Local\Temp\ccrYvLKo.s 			page 16


 355:Generated_Source\PSoC5/cyfitter_cfg.c **** *******************************************************************************/
 356:Generated_Source\PSoC5/cyfitter_cfg.c **** void SetAnalogRoutingPumps(uint8 enabled)
 357:Generated_Source\PSoC5/cyfitter_cfg.c **** {
 457              		.loc 1 357 0
 458              		.cfi_startproc
 459              		@ args = 0, pretend = 0, frame = 0
 460              		@ frame_needed = 0, uses_anonymous_args = 0
 461              		@ link register save eliminated.
 462              	.LVL28:
 358:Generated_Source\PSoC5/cyfitter_cfg.c **** 	uint8 regValue = CY_GET_XTND_REG8((void CYFAR *)CYREG_PUMP_CR0);
 463              		.loc 1 358 0
 464 0000 054B     		ldr	r3, .L28
 465 0002 1B78     		ldrb	r3, [r3]	@ zero_extendqisi2
 466 0004 DBB2     		uxtb	r3, r3
 467              	.LVL29:
 359:Generated_Source\PSoC5/cyfitter_cfg.c **** 	if (enabled != 0u)
 468              		.loc 1 359 0
 469 0006 10B1     		cbz	r0, .L26
 360:Generated_Source\PSoC5/cyfitter_cfg.c **** 	{
 361:Generated_Source\PSoC5/cyfitter_cfg.c **** 		regValue |= 0x22u;
 470              		.loc 1 361 0
 471 0008 43F02203 		orr	r3, r3, #34
 472              	.LVL30:
 473 000c 01E0     		b	.L27
 474              	.L26:
 362:Generated_Source\PSoC5/cyfitter_cfg.c **** 	}
 363:Generated_Source\PSoC5/cyfitter_cfg.c **** 	else
 364:Generated_Source\PSoC5/cyfitter_cfg.c **** 	{
 365:Generated_Source\PSoC5/cyfitter_cfg.c **** 		regValue &= (uint8)~0x22u;
 475              		.loc 1 365 0
 476 000e 03F0DD03 		and	r3, r3, #221
 477              	.LVL31:
 478              	.L27:
 366:Generated_Source\PSoC5/cyfitter_cfg.c **** 	}
 367:Generated_Source\PSoC5/cyfitter_cfg.c **** 	CY_SET_XTND_REG8((void CYFAR *)CYREG_PUMP_CR0, regValue);
 479              		.loc 1 367 0
 480 0012 014A     		ldr	r2, .L28
 481 0014 1370     		strb	r3, [r2]
 482 0016 7047     		bx	lr
 483              	.L29:
 484              		.align	2
 485              	.L28:
 486 0018 76580040 		.word	1073764470
 487              		.cfi_endproc
 488              	.LFE7:
 489              		.size	SetAnalogRoutingPumps, .-SetAnalogRoutingPumps
 490              		.section	.text.cyfitter_cfg,"ax",%progbits
 491              		.align	2
 492              		.global	cyfitter_cfg
 493              		.thumb
 494              		.thumb_func
 495              		.type	cyfitter_cfg, %function
 496              	cyfitter_cfg:
 497              	.LFB8:
 368:Generated_Source\PSoC5/cyfitter_cfg.c **** }
 369:Generated_Source\PSoC5/cyfitter_cfg.c **** 
 370:Generated_Source\PSoC5/cyfitter_cfg.c **** 
ARM GAS  C:\Users\Blayke\AppData\Local\Temp\ccrYvLKo.s 			page 17


 371:Generated_Source\PSoC5/cyfitter_cfg.c **** #define CY_AMUX_UNUSED CYREG_BOOST_SR
 372:Generated_Source\PSoC5/cyfitter_cfg.c **** 
 373:Generated_Source\PSoC5/cyfitter_cfg.c **** 
 374:Generated_Source\PSoC5/cyfitter_cfg.c **** /*******************************************************************************
 375:Generated_Source\PSoC5/cyfitter_cfg.c **** * Function Name: cyfitter_cfg
 376:Generated_Source\PSoC5/cyfitter_cfg.c **** ********************************************************************************
 377:Generated_Source\PSoC5/cyfitter_cfg.c **** * Summary:
 378:Generated_Source\PSoC5/cyfitter_cfg.c **** *  This function is called by the start-up code for the selected device. It
 379:Generated_Source\PSoC5/cyfitter_cfg.c **** *  performs all of the necessary device configuration based on the design
 380:Generated_Source\PSoC5/cyfitter_cfg.c **** *  settings.  This includes settings from the Design Wide Resources (DWR) such
 381:Generated_Source\PSoC5/cyfitter_cfg.c **** *  as Clocks and Pins as well as any component configuration that is necessary.
 382:Generated_Source\PSoC5/cyfitter_cfg.c **** *
 383:Generated_Source\PSoC5/cyfitter_cfg.c **** * Parameters:
 384:Generated_Source\PSoC5/cyfitter_cfg.c **** *   void
 385:Generated_Source\PSoC5/cyfitter_cfg.c **** *
 386:Generated_Source\PSoC5/cyfitter_cfg.c **** * Return:
 387:Generated_Source\PSoC5/cyfitter_cfg.c **** *   void
 388:Generated_Source\PSoC5/cyfitter_cfg.c **** *
 389:Generated_Source\PSoC5/cyfitter_cfg.c **** *******************************************************************************/
 390:Generated_Source\PSoC5/cyfitter_cfg.c **** 
 391:Generated_Source\PSoC5/cyfitter_cfg.c **** void cyfitter_cfg(void)
 392:Generated_Source\PSoC5/cyfitter_cfg.c **** {
 498              		.loc 1 392 0
 499              		.cfi_startproc
 500              		@ args = 0, pretend = 0, frame = 0
 501              		@ frame_needed = 0, uses_anonymous_args = 0
 502 0000 38B5     		push	{r3, r4, r5, lr}
 503              		.cfi_def_cfa_offset 16
 504              		.cfi_offset 3, -16
 505              		.cfi_offset 4, -12
 506              		.cfi_offset 5, -8
 507              		.cfi_offset 14, -4
 393:Generated_Source\PSoC5/cyfitter_cfg.c **** #ifdef CYGlobalIntDisable
 394:Generated_Source\PSoC5/cyfitter_cfg.c **** 	/* Disable interrupts by default. Let user enable if/when they want. */
 395:Generated_Source\PSoC5/cyfitter_cfg.c **** 	CYGlobalIntDisable
 508              		.loc 1 395 0
 509              		.syntax unified
 510              	@ 395 "Generated_Source\PSoC5\cyfitter_cfg.c" 1
 511 0002 72B6     		CPSID   i
 512              	@ 0 "" 2
 396:Generated_Source\PSoC5/cyfitter_cfg.c **** #endif
 397:Generated_Source\PSoC5/cyfitter_cfg.c **** 
 398:Generated_Source\PSoC5/cyfitter_cfg.c **** 	/* Enable/Disable Debug functionality based on settings from System DWR */
 399:Generated_Source\PSoC5/cyfitter_cfg.c **** 	CY_SET_XTND_REG8((void CYFAR *)CYREG_MLOGIC_DEBUG, (CY_GET_XTND_REG8((void CYFAR *)CYREG_MLOGIC_DE
 513              		.loc 1 399 0
 514              		.thumb
 515              		.syntax unified
 516 0004 454A     		ldr	r2, .L36
 517 0006 1378     		ldrb	r3, [r2]	@ zero_extendqisi2
 518 0008 43F00403 		orr	r3, r3, #4
 519 000c 1370     		strb	r3, [r2]
 520              	.LVL32:
 521              	.LBB3:
 400:Generated_Source\PSoC5/cyfitter_cfg.c **** 
 401:Generated_Source\PSoC5/cyfitter_cfg.c **** 	{
 402:Generated_Source\PSoC5/cyfitter_cfg.c **** 
 403:Generated_Source\PSoC5/cyfitter_cfg.c **** 		CYPACKED typedef struct {
ARM GAS  C:\Users\Blayke\AppData\Local\Temp\ccrYvLKo.s 			page 18


 404:Generated_Source\PSoC5/cyfitter_cfg.c **** 			void CYFAR *address;
 405:Generated_Source\PSoC5/cyfitter_cfg.c **** 			uint16 size;
 406:Generated_Source\PSoC5/cyfitter_cfg.c **** 		} CYPACKED_ATTR cfg_memset_t;
 407:Generated_Source\PSoC5/cyfitter_cfg.c **** 
 408:Generated_Source\PSoC5/cyfitter_cfg.c **** 
 409:Generated_Source\PSoC5/cyfitter_cfg.c **** 		CYPACKED typedef struct {
 410:Generated_Source\PSoC5/cyfitter_cfg.c **** 			void CYFAR *dest;
 411:Generated_Source\PSoC5/cyfitter_cfg.c **** 			const void CYFAR *src;
 412:Generated_Source\PSoC5/cyfitter_cfg.c **** 			uint16 size;
 413:Generated_Source\PSoC5/cyfitter_cfg.c **** 		} CYPACKED_ATTR cfg_memcpy_t;
 414:Generated_Source\PSoC5/cyfitter_cfg.c **** 
 415:Generated_Source\PSoC5/cyfitter_cfg.c **** 		static const cfg_memset_t CYCODE cfg_memset_list[] = {
 416:Generated_Source\PSoC5/cyfitter_cfg.c **** 			/* address, size */
 417:Generated_Source\PSoC5/cyfitter_cfg.c **** 			{(void CYFAR *)(CYREG_TMR0_CFG0), 36u},
 418:Generated_Source\PSoC5/cyfitter_cfg.c **** 			{(void CYFAR *)(CYREG_PRT4_DR), 48u},
 419:Generated_Source\PSoC5/cyfitter_cfg.c **** 			{(void CYFAR *)(CYDEV_UCFG_B0_P0_U0_BASE), 4096u},
 420:Generated_Source\PSoC5/cyfitter_cfg.c **** 			{(void CYFAR *)(CYDEV_UCFG_B1_P2_U0_BASE), 2048u},
 421:Generated_Source\PSoC5/cyfitter_cfg.c **** 			{(void CYFAR *)(CYDEV_UCFG_DSI0_BASE), 2560u},
 422:Generated_Source\PSoC5/cyfitter_cfg.c **** 			{(void CYFAR *)(CYDEV_UCFG_DSI12_BASE), 512u},
 423:Generated_Source\PSoC5/cyfitter_cfg.c **** 			{(void CYFAR *)(CYREG_BCTL0_MDCLK_EN), 32u},
 424:Generated_Source\PSoC5/cyfitter_cfg.c **** 		};
 425:Generated_Source\PSoC5/cyfitter_cfg.c **** 
 426:Generated_Source\PSoC5/cyfitter_cfg.c **** 		static const cfg_memcpy_t CYCODE cfg_memcpy_list [] = {
 427:Generated_Source\PSoC5/cyfitter_cfg.c **** 			/* dest, src, size */
 428:Generated_Source\PSoC5/cyfitter_cfg.c **** 			{(void CYFAR *)(CYDEV_PRTDSI_PRT12_BASE), BS_IOPORT_7_VAL, 6u},
 429:Generated_Source\PSoC5/cyfitter_cfg.c **** 		};
 430:Generated_Source\PSoC5/cyfitter_cfg.c **** 
 431:Generated_Source\PSoC5/cyfitter_cfg.c **** 		uint8 CYDATA i;
 432:Generated_Source\PSoC5/cyfitter_cfg.c **** 
 433:Generated_Source\PSoC5/cyfitter_cfg.c **** 		/* Zero out critical memory blocks before beginning configuration */
 434:Generated_Source\PSoC5/cyfitter_cfg.c **** 		for (i = 0u; i < (sizeof(cfg_memset_list)/sizeof(cfg_memset_list[0])); i++)
 522              		.loc 1 434 0
 523 000e 0024     		movs	r4, #0
 524 0010 0CE0     		b	.L31
 525              	.LVL33:
 526              	.L32:
 527              	.LBB4:
 435:Generated_Source\PSoC5/cyfitter_cfg.c **** 		{
 436:Generated_Source\PSoC5/cyfitter_cfg.c **** 			const cfg_memset_t CYCODE * CYDATA ms = &cfg_memset_list[i];
 437:Generated_Source\PSoC5/cyfitter_cfg.c **** 			CYMEMZERO(ms->address, (size_t)(uint32)(ms->size));
 528              		.loc 1 437 0 discriminator 3
 529 0012 434D     		ldr	r5, .L36+4
 530 0014 6300     		lsls	r3, r4, #1
 531 0016 1919     		adds	r1, r3, r4
 532 0018 4A00     		lsls	r2, r1, #1
 533 001a 1146     		mov	r1, r2
 534 001c 2A44     		add	r2, r2, r5
 535 001e 0846     		mov	r0, r1
 536 0020 9188     		ldrh	r1, [r2, #4]
 537 0022 2858     		ldr	r0, [r5, r0]	@ unaligned
 538 0024 FFF7FEFF 		bl	CYMEMZERO
 539              	.LVL34:
 540              	.LBE4:
 434:Generated_Source\PSoC5/cyfitter_cfg.c **** 		{
 541              		.loc 1 434 0 discriminator 3
 542 0028 0134     		adds	r4, r4, #1
 543              	.LVL35:
ARM GAS  C:\Users\Blayke\AppData\Local\Temp\ccrYvLKo.s 			page 19


 544 002a E4B2     		uxtb	r4, r4
 545              	.LVL36:
 546              	.L31:
 434:Generated_Source\PSoC5/cyfitter_cfg.c **** 		{
 547              		.loc 1 434 0 is_stmt 0 discriminator 1
 548 002c 062C     		cmp	r4, #6
 549 002e F0D9     		bls	.L32
 550 0030 0024     		movs	r4, #0
 551              	.LVL37:
 552 0032 0BE0     		b	.L33
 553              	.LVL38:
 554              	.L34:
 555              	.LBB5:
 438:Generated_Source\PSoC5/cyfitter_cfg.c **** 		}
 439:Generated_Source\PSoC5/cyfitter_cfg.c **** 
 440:Generated_Source\PSoC5/cyfitter_cfg.c **** 		/* Copy device configuration data into registers */
 441:Generated_Source\PSoC5/cyfitter_cfg.c **** 		for (i = 0u; i < (sizeof(cfg_memcpy_list)/sizeof(cfg_memcpy_list[0])); i++)
 442:Generated_Source\PSoC5/cyfitter_cfg.c **** 		{
 443:Generated_Source\PSoC5/cyfitter_cfg.c **** 			const cfg_memcpy_t CYCODE * CYDATA mc = &cfg_memcpy_list[i];
 444:Generated_Source\PSoC5/cyfitter_cfg.c **** 			void * CYDATA destPtr = mc->dest;
 556              		.loc 1 444 0 is_stmt 1 discriminator 3
 557 0034 3A49     		ldr	r1, .L36+4
 558 0036 A300     		lsls	r3, r4, #2
 559 0038 1819     		adds	r0, r3, r4
 560 003a 4200     		lsls	r2, r0, #1
 561 003c 8818     		adds	r0, r1, r2
 562              	.LVL39:
 445:Generated_Source\PSoC5/cyfitter_cfg.c **** 			const void * CYDATA srcPtr = mc->src;
 446:Generated_Source\PSoC5/cyfitter_cfg.c **** 			uint16 CYDATA numBytes = mc->size;
 447:Generated_Source\PSoC5/cyfitter_cfg.c **** 			CYCONFIGCPY(destPtr, srcPtr, numBytes);
 563              		.loc 1 447 0 discriminator 3
 564 003e 0622     		movs	r2, #6
 565 0040 016B     		ldr	r1, [r0, #48]	@ unaligned
 566              	.LVL40:
 567 0042 C06A     		ldr	r0, [r0, #44]	@ unaligned
 568              	.LVL41:
 569 0044 FFF7FEFF 		bl	CYCONFIGCPY
 570              	.LVL42:
 571              	.LBE5:
 441:Generated_Source\PSoC5/cyfitter_cfg.c **** 		{
 572              		.loc 1 441 0 discriminator 3
 573 0048 0134     		adds	r4, r4, #1
 574              	.LVL43:
 575 004a E4B2     		uxtb	r4, r4
 576              	.LVL44:
 577              	.L33:
 441:Generated_Source\PSoC5/cyfitter_cfg.c **** 		{
 578              		.loc 1 441 0 is_stmt 0 discriminator 1
 579 004c 002C     		cmp	r4, #0
 580 004e F1D0     		beq	.L34
 448:Generated_Source\PSoC5/cyfitter_cfg.c **** 		}
 449:Generated_Source\PSoC5/cyfitter_cfg.c **** 
 450:Generated_Source\PSoC5/cyfitter_cfg.c **** 		cfg_write_bytes32(cy_cfg_addr_table, cy_cfg_data_table);
 581              		.loc 1 450 0 is_stmt 1
 582 0050 3449     		ldr	r1, .L36+8
 583 0052 4FF09040 		mov	r0, #1207959552
 584 0056 FFF7FEFF 		bl	cfg_write_bytes32
ARM GAS  C:\Users\Blayke\AppData\Local\Temp\ccrYvLKo.s 			page 20


 585              	.LVL45:
 451:Generated_Source\PSoC5/cyfitter_cfg.c **** 
 452:Generated_Source\PSoC5/cyfitter_cfg.c **** 		/* Perform normal device configuration. Order is not critical for these items. */
 453:Generated_Source\PSoC5/cyfitter_cfg.c **** 		CY_SET_XTND_REG8((void CYFAR *)(CYREG_DSM0_CR3), 0x0Au);
 586              		.loc 1 453 0
 587 005a 0A24     		movs	r4, #10
 588              	.LVL46:
 589 005c 324B     		ldr	r3, .L36+12
 590 005e 1C70     		strb	r4, [r3]
 454:Generated_Source\PSoC5/cyfitter_cfg.c **** 		CY_SET_XTND_REG16((void CYFAR *)(CYREG_LUT2_CR), 0x0203u);
 591              		.loc 1 454 0
 592 0060 40F20322 		movw	r2, #515
 593 0064 373B     		subs	r3, r3, #55
 594 0066 1A80     		strh	r2, [r3]	@ movhi
 455:Generated_Source\PSoC5/cyfitter_cfg.c **** 
 456:Generated_Source\PSoC5/cyfitter_cfg.c **** 		/* B0_P2_U1_CFG24 Starting address: CYDEV_UCFG_B0_P2_U1_CFG24 */
 457:Generated_Source\PSoC5/cyfitter_cfg.c **** 		CY_SET_XTND_REG32((void CYFAR *)(CYREG_B0_P2_U1_CFG24), 0x44040404u);
 595              		.loc 1 457 0
 596 0068 304A     		ldr	r2, .L36+16
 597 006a 03F52C43 		add	r3, r3, #44032
 598 006e 8C33     		adds	r3, r3, #140
 599 0070 1A60     		str	r2, [r3]
 458:Generated_Source\PSoC5/cyfitter_cfg.c **** 
 459:Generated_Source\PSoC5/cyfitter_cfg.c **** 		/* B0_P4_U0_CFG24 Starting address: CYDEV_UCFG_B0_P4_U0_CFG24 */
 460:Generated_Source\PSoC5/cyfitter_cfg.c **** 		CY_SET_XTND_REG32((void CYFAR *)(CYREG_B0_P4_U0_CFG24), 0xC4000404u);
 600              		.loc 1 460 0
 601 0072 2F4A     		ldr	r2, .L36+20
 602 0074 03F56073 		add	r3, r3, #896
 603 0078 1A60     		str	r2, [r3]
 461:Generated_Source\PSoC5/cyfitter_cfg.c **** 
 462:Generated_Source\PSoC5/cyfitter_cfg.c **** 		/* B1_P2_U0_CFG24 Starting address: CYDEV_UCFG_B1_P2_U0_CFG24 */
 463:Generated_Source\PSoC5/cyfitter_cfg.c **** 		CY_SET_XTND_REG32((void CYFAR *)(CYREG_B1_P2_U0_CFG24), 0x44000404u);
 604              		.loc 1 463 0
 605 007a 02F10042 		add	r2, r2, #-2147483648
 606 007e 03F54063 		add	r3, r3, #3072
 607 0082 1A60     		str	r2, [r3]
 464:Generated_Source\PSoC5/cyfitter_cfg.c **** 
 465:Generated_Source\PSoC5/cyfitter_cfg.c **** 		/* Enable digital routing */
 466:Generated_Source\PSoC5/cyfitter_cfg.c **** 		CY_SET_XTND_REG8((void CYFAR *)CYREG_BCTL0_BANK_CTL, CY_GET_XTND_REG8((void CYFAR *)CYREG_BCTL0_B
 608              		.loc 1 466 0
 609 0084 2B4A     		ldr	r2, .L36+24
 610 0086 1378     		ldrb	r3, [r2]	@ zero_extendqisi2
 611 0088 43F00203 		orr	r3, r3, #2
 612 008c 1370     		strb	r3, [r2]
 467:Generated_Source\PSoC5/cyfitter_cfg.c **** 		CY_SET_XTND_REG8((void CYFAR *)CYREG_BCTL1_BANK_CTL, CY_GET_XTND_REG8((void CYFAR *)CYREG_BCTL1_B
 613              		.loc 1 467 0
 614 008e 1032     		adds	r2, r2, #16
 615 0090 1378     		ldrb	r3, [r2]	@ zero_extendqisi2
 616 0092 43F00203 		orr	r3, r3, #2
 617 0096 1370     		strb	r3, [r2]
 468:Generated_Source\PSoC5/cyfitter_cfg.c **** 
 469:Generated_Source\PSoC5/cyfitter_cfg.c **** 		/* Enable UDB array */
 470:Generated_Source\PSoC5/cyfitter_cfg.c **** 		CY_SET_XTND_REG8((void CYFAR *)CYREG_PM_ACT_CFG0, CY_GET_XTND_REG8((void CYFAR *)CYREG_PM_ACT_CFG
 618              		.loc 1 470 0
 619 0098 274D     		ldr	r5, .L36+28
 620 009a 2B78     		ldrb	r3, [r5]	@ zero_extendqisi2
 621 009c 43F04003 		orr	r3, r3, #64
ARM GAS  C:\Users\Blayke\AppData\Local\Temp\ccrYvLKo.s 			page 21


 622 00a0 2B70     		strb	r3, [r5]
 471:Generated_Source\PSoC5/cyfitter_cfg.c **** 		CY_SET_XTND_REG8((void CYFAR *)CYREG_PM_AVAIL_CR2, CY_GET_XTND_REG8((void CYFAR *)CYREG_PM_AVAIL_
 623              		.loc 1 471 0
 624 00a2 A2F58632 		sub	r2, r2, #68608
 625 00a6 513A     		subs	r2, r2, #81
 626 00a8 1378     		ldrb	r3, [r2]	@ zero_extendqisi2
 627 00aa 43F01003 		orr	r3, r3, #16
 628 00ae 1370     		strb	r3, [r2]
 629              	.LBE3:
 472:Generated_Source\PSoC5/cyfitter_cfg.c **** 	}
 473:Generated_Source\PSoC5/cyfitter_cfg.c **** 
 474:Generated_Source\PSoC5/cyfitter_cfg.c **** 
 475:Generated_Source\PSoC5/cyfitter_cfg.c **** 	/* Perform second pass device configuration. These items must be configured in specific order afte
 476:Generated_Source\PSoC5/cyfitter_cfg.c **** 	CYCONFIGCPY((void CYFAR *)(CYREG_PRT0_DM0), (const void CYFAR *)(BS_IOPINS0_0_VAL), 8u);
 630              		.loc 1 476 0
 631 00b0 0822     		movs	r2, #8
 632 00b2 2249     		ldr	r1, .L36+32
 633 00b4 2248     		ldr	r0, .L36+36
 634 00b6 FFF7FEFF 		bl	CYCONFIGCPY
 635              	.LVL47:
 477:Generated_Source\PSoC5/cyfitter_cfg.c **** 	CYCONFIGCPY((void CYFAR *)(CYREG_PRT12_DR), (const void CYFAR *)(BS_IOPINS0_7_VAL), 10u);
 636              		.loc 1 477 0
 637 00ba 2246     		mov	r2, r4
 638 00bc 2149     		ldr	r1, .L36+40
 639 00be 2248     		ldr	r0, .L36+44
 640 00c0 FFF7FEFF 		bl	CYCONFIGCPY
 641              	.LVL48:
 478:Generated_Source\PSoC5/cyfitter_cfg.c **** 	CYCONFIGCPY((void CYFAR *)(CYREG_PRT15_DM0), (const void CYFAR *)(BS_IOPINS0_8_VAL), 8u);
 642              		.loc 1 478 0
 643 00c4 0822     		movs	r2, #8
 644 00c6 2149     		ldr	r1, .L36+48
 645 00c8 2148     		ldr	r0, .L36+52
 646 00ca FFF7FEFF 		bl	CYCONFIGCPY
 647              	.LVL49:
 479:Generated_Source\PSoC5/cyfitter_cfg.c **** 	CYCONFIGCPY((void CYFAR *)(CYREG_PRT1_DR), (const void CYFAR *)(BS_IOPINS0_1_VAL), 10u);
 648              		.loc 1 479 0
 649 00ce 2246     		mov	r2, r4
 650 00d0 2049     		ldr	r1, .L36+56
 651 00d2 2148     		ldr	r0, .L36+60
 652 00d4 FFF7FEFF 		bl	CYCONFIGCPY
 653              	.LVL50:
 480:Generated_Source\PSoC5/cyfitter_cfg.c **** 	CYCONFIGCPY((void CYFAR *)(CYREG_PRT2_DR), (const void CYFAR *)(BS_IOPINS0_2_VAL), 10u);
 654              		.loc 1 480 0
 655 00d8 2246     		mov	r2, r4
 656 00da 2049     		ldr	r1, .L36+64
 657 00dc 2048     		ldr	r0, .L36+68
 658 00de FFF7FEFF 		bl	CYCONFIGCPY
 659              	.LVL51:
 481:Generated_Source\PSoC5/cyfitter_cfg.c **** 	CYCONFIGCPY((void CYFAR *)(CYREG_PRT3_DM0), (const void CYFAR *)(BS_IOPINS0_3_VAL), 8u);
 660              		.loc 1 481 0
 661 00e2 0822     		movs	r2, #8
 662 00e4 1F49     		ldr	r1, .L36+72
 663 00e6 2048     		ldr	r0, .L36+76
 664 00e8 FFF7FEFF 		bl	CYCONFIGCPY
 665              	.LVL52:
 482:Generated_Source\PSoC5/cyfitter_cfg.c **** 	/* Switch Boost to the precision bandgap reference from its internal reference */
 483:Generated_Source\PSoC5/cyfitter_cfg.c **** 	CY_SET_REG8((void CYXDATA *)CYREG_BOOST_CR2, (CY_GET_REG8((void CYXDATA *)CYREG_BOOST_CR2) | 0x08u
ARM GAS  C:\Users\Blayke\AppData\Local\Temp\ccrYvLKo.s 			page 22


 666              		.loc 1 483 0
 667 00ec 1F4A     		ldr	r2, .L36+80
 668 00ee 1378     		ldrb	r3, [r2]	@ zero_extendqisi2
 669 00f0 43F00803 		orr	r3, r3, #8
 670 00f4 1370     		strb	r3, [r2]
 484:Generated_Source\PSoC5/cyfitter_cfg.c **** 
 485:Generated_Source\PSoC5/cyfitter_cfg.c **** 	/* Set Flash Cycles based on max possible frequency in case a glitch occurs during ClockSetup(). *
 486:Generated_Source\PSoC5/cyfitter_cfg.c **** 	CY_SET_XTND_REG8((void CYFAR *)(CYREG_CACHE_CC_CTL), (((CYDEV_INSTRUCT_CACHE_ENABLED) != 0) ? 0x61
 671              		.loc 1 486 0
 672 00f6 1E4C     		ldr	r4, .L36+84
 673 00f8 6123     		movs	r3, #97
 674 00fa 2370     		strb	r3, [r4]
 487:Generated_Source\PSoC5/cyfitter_cfg.c **** 	/* Setup clocks based on selections from Clock DWR */
 488:Generated_Source\PSoC5/cyfitter_cfg.c **** 	ClockSetup();
 675              		.loc 1 488 0
 676 00fc FFF7FEFF 		bl	ClockSetup
 677              	.LVL53:
 489:Generated_Source\PSoC5/cyfitter_cfg.c **** 	/* Set Flash Cycles based on newly configured 24.00MHz Bus Clock. */
 490:Generated_Source\PSoC5/cyfitter_cfg.c **** 	CY_SET_XTND_REG8((void CYFAR *)(CYREG_CACHE_CC_CTL), (((CYDEV_INSTRUCT_CACHE_ENABLED) != 0) ? 0x81
 678              		.loc 1 490 0
 679 0100 8123     		movs	r3, #129
 680 0102 2370     		strb	r3, [r4]
 491:Generated_Source\PSoC5/cyfitter_cfg.c **** 	CY_SET_XTND_REG8((void CYFAR *)(CYREG_PANTHER_WAITPIPE), 0x01u);
 681              		.loc 1 491 0
 682 0104 0122     		movs	r2, #1
 683 0106 1B4B     		ldr	r3, .L36+88
 684 0108 1A70     		strb	r2, [r3]
 492:Generated_Source\PSoC5/cyfitter_cfg.c **** 
 493:Generated_Source\PSoC5/cyfitter_cfg.c **** 	/* Perform basic analog initialization to defaults */
 494:Generated_Source\PSoC5/cyfitter_cfg.c **** 	AnalogSetDefault();
 685              		.loc 1 494 0
 686 010a FFF7FEFF 		bl	AnalogSetDefault
 687              	.LVL54:
 495:Generated_Source\PSoC5/cyfitter_cfg.c **** 
 496:Generated_Source\PSoC5/cyfitter_cfg.c **** 	/* Configure alternate active mode */
 497:Generated_Source\PSoC5/cyfitter_cfg.c **** 	CYCONFIGCPY((void CYFAR *)CYDEV_PM_STBY_BASE, (const void CYFAR *)CYDEV_PM_ACT_BASE, 14u);
 688              		.loc 1 497 0
 689 010e 0E22     		movs	r2, #14
 690 0110 2946     		mov	r1, r5
 691 0112 1948     		ldr	r0, .L36+92
 692 0114 FFF7FEFF 		bl	CYCONFIGCPY
 693              	.LVL55:
 694 0118 38BD     		pop	{r3, r4, r5, pc}
 695              	.L37:
 696 011a 00BF     		.align	2
 697              	.L36:
 698 011c E8460040 		.word	1073759976
 699 0120 00000000 		.word	.LANCHOR0
 700 0124 A4000048 		.word	1207959716
 701 0128 83580040 		.word	1073764483
 702 012c 04040444 		.word	1141113860
 703 0130 040400C4 		.word	-1006631932
 704 0134 03500140 		.word	1073827843
 705 0138 A0430040 		.word	1073759136
 706 013c 84100048 		.word	1207963780
 707 0140 02510040 		.word	1073762562
 708 0144 8C100048 		.word	1207963788
ARM GAS  C:\Users\Blayke\AppData\Local\Temp\ccrYvLKo.s 			page 23


 709 0148 C0510040 		.word	1073762752
 710 014c 98100048 		.word	1207963800
 711 0150 F2510040 		.word	1073762802
 712 0154 A0100048 		.word	1207963808
 713 0158 10510040 		.word	1073762576
 714 015c AC100048 		.word	1207963820
 715 0160 20510040 		.word	1073762592
 716 0164 B8100048 		.word	1207963832
 717 0168 32510040 		.word	1073762610
 718 016c 22430040 		.word	1073759010
 719 0170 00480040 		.word	1073760256
 720 0174 04000840 		.word	1074266116
 721 0178 B0430040 		.word	1073759152
 722              		.cfi_endproc
 723              	.LFE8:
 724              		.size	cyfitter_cfg, .-cyfitter_cfg
 725              		.section	.rodata
 726              		.align	2
 727              		.set	.LANCHOR0,. + 0
 728              		.type	cfg_memset_list.5018, %object
 729              		.size	cfg_memset_list.5018, 42
 730              	cfg_memset_list.5018:
 731 0000 004F0040 		.word	1073762048
 732 0004 2400     		.short	36
 733 0006 40510040 		.4byte	1073762624
 734 000a 3000     		.short	48
 735 000c 00000140 		.word	1073807360
 736 0010 0010     		.short	4096
 737 0012 00140140 		.4byte	1073812480
 738 0016 0008     		.short	2048
 739 0018 00400140 		.word	1073823744
 740 001c 000A     		.short	2560
 741 001e 004C0140 		.4byte	1073826816
 742 0022 0002     		.short	512
 743 0024 00500140 		.word	1073827840
 744 0028 2000     		.short	32
 745 002a 0000     		.space	2
 746              		.type	cfg_memcpy_list.5019, %object
 747              		.size	cfg_memcpy_list.5019, 10
 748              	cfg_memcpy_list.5019:
 749 002c 60520040 		.word	1073762912
 750 0030 7C100048 		.word	1207963772
 751 0034 0600     		.short	6
 752              		.text
 753              	.Letext0:
 754              		.file 2 "d:\\program files (x86)\\cyprus\\psoc creator\\4.2\\psoc creator\\import\\gnu\\arm\\5.4.1
 755              		.file 3 "Generated_Source\\PSoC5\\cytypes.h"
 756              		.file 4 "Generated_Source\\PSoC5\\CyLib.h"