ARM GAS  C:\Users\Misha\AppData\Local\Temp\ccrHJ3zm.s 			page 1


   1              		.syntax unified
   2              		.cpu cortex-m3
   3              		.fpu softvfp
   4              		.eabi_attribute 20, 1
   5              		.eabi_attribute 21, 1
   6              		.eabi_attribute 23, 3
   7              		.eabi_attribute 24, 1
   8              		.eabi_attribute 25, 1
   9              		.eabi_attribute 26, 1
  10              		.eabi_attribute 30, 1
  11              		.eabi_attribute 34, 1
  12              		.eabi_attribute 18, 4
  13              		.thumb
  14              		.syntax unified
  15              		.file	"dcmotor.c"
  16              		.text
  17              	.Ltext0:
  18              		.cfi_sections	.debug_frame
  19              		.global	__aeabi_i2d
  20              		.global	__aeabi_dmul
  21              		.global	__aeabi_ddiv
  22              		.global	__aeabi_d2f
  23              		.global	__aeabi_f2d
  24              		.global	__aeabi_dadd
  25              		.section	.text.positionUpdate,"ax",%progbits
  26              		.align	2
  27              		.global	positionUpdate
  28              		.thumb
  29              		.thumb_func
  30              		.type	positionUpdate, %function
  31              	positionUpdate:
  32              	.LFB64:
  33              		.file 1 "dcmotor.c"
   1:dcmotor.c     **** /* ========================================
   2:dcmotor.c     ****  *
   3:dcmotor.c     ****  * Copyright YOUR COMPANY, THE YEAR
   4:dcmotor.c     ****  * All Rights Reserved
   5:dcmotor.c     ****  * UNPUBLISHED, LICENSED SOFTWARE.
   6:dcmotor.c     ****  *
   7:dcmotor.c     ****  * CONFIDENTIAL AND PROPRIETARY INFORMATION
   8:dcmotor.c     ****  * WHICH IS THE PROPERTY OF your company.
   9:dcmotor.c     ****  *
  10:dcmotor.c     ****  * ========================================
  11:dcmotor.c     **** */
  12:dcmotor.c     **** 
  13:dcmotor.c     **** //Standard C libraries
  14:dcmotor.c     **** #include "project.h"
  15:dcmotor.c     **** #include <stdio.h>
  16:dcmotor.c     **** #include <string.h>
  17:dcmotor.c     **** #include <math.h>
  18:dcmotor.c     **** #include "ultrasonic.h"
  19:dcmotor.c     **** #include "main.h"
  20:dcmotor.c     **** 
  21:dcmotor.c     **** //global variable currentPosition and currentOrientation (in main). Declare as externs in 
  22:dcmotor.c     **** //dcmotor, I guess
  23:dcmotor.c     **** extern float currentPosition[2];
  24:dcmotor.c     **** extern float desiredPosition[2];
ARM GAS  C:\Users\Misha\AppData\Local\Temp\ccrHJ3zm.s 			page 2


  25:dcmotor.c     **** extern int currentOrientation; //in degrees (convert to radians when needed)
  26:dcmotor.c     **** extern int desiredOrientation;
  27:dcmotor.c     **** extern short int motor1Enable; //These two will be on if the motors are on
  28:dcmotor.c     **** extern short int motor2Enable;
  29:dcmotor.c     **** extern int M1_FD; //The four values shown here will be the duty cycles of the motors
  30:dcmotor.c     **** extern int M1_BD; //There are times when parts of the code (such as the driftCorrect function)
  31:dcmotor.c     **** extern int M2_FD; //need to know about the duty cycles. So we make the duty cycles a globally 
  32:dcmotor.c     **** extern int M2_BD; //known variable
  33:dcmotor.c     **** extern int motor1EncoderCounts; //These two variables will allow the entire program to keep 
  34:dcmotor.c     **** extern int motor2EncoderCounts; //track of how many turns the motors have spun 
  35:dcmotor.c     **** extern short int moveNow; //This is a flag that lets the main program tell the moving functions
  36:dcmotor.c     **** //whether we want the robot to be moving or not. For example, when we need to operate servos
  37:dcmotor.c     **** //the main program would set moveNow to FALSE.
  38:dcmotor.c     **** extern float block_location[4]; //This will hold the co-ordinates for the obstacle block. 0,1 will 
  39:dcmotor.c     **** //and xmax, 2,3 will be ymin, ymax.
  40:dcmotor.c     **** extern int state; //The state of the robot as defined in main 
  41:dcmotor.c     **** 
  42:dcmotor.c     **** //The four flags below let the rest of the program know if the robot is trying to drive 
  43:dcmotor.c     **** //forward or back, turn left or right. At the start of every motion, turn these flags on
  44:dcmotor.c     **** //at the end turn them off.
  45:dcmotor.c     **** extern int drivingForwardFlag;
  46:dcmotor.c     **** extern int drivingBackwardFlag;
  47:dcmotor.c     **** extern int turningLeftFlag;
  48:dcmotor.c     **** extern int turningRightFlag;
  49:dcmotor.c     **** 
  50:dcmotor.c     **** //These flags will be used by the main program to allow the robot to move in certain directions
  51:dcmotor.c     **** extern short int moveLeftAllowed;
  52:dcmotor.c     **** extern short int moveRightAllowed;
  53:dcmotor.c     **** extern short int moveForwardAllowed;
  54:dcmotor.c     **** extern short int moveBackwardAllowed;
  55:dcmotor.c     **** 
  56:dcmotor.c     **** extern char output[32]; //for the UART
  57:dcmotor.c     **** 
  58:dcmotor.c     **** //This function takes a number of counts from the encoder and, assuming that the number of 
  59:dcmotor.c     **** //counts has been moved in the currentOrientation direction, updates the current position. 
  60:dcmotor.c     **** //Current position can only be updated from within this function
  61:dcmotor.c     **** void positionUpdate(int counts, int drivingForwardFlag, int drivingBackwardFlag){
  34              		.loc 1 61 0
  35              		.cfi_startproc
  36              		@ args = 0, pretend = 0, frame = 0
  37              		@ frame_needed = 0, uses_anonymous_args = 0
  38              	.LVL0:
  39 0000 2DE9F047 		push	{r4, r5, r6, r7, r8, r9, r10, lr}
  40              		.cfi_def_cfa_offset 32
  41              		.cfi_offset 4, -32
  42              		.cfi_offset 5, -28
  43              		.cfi_offset 6, -24
  44              		.cfi_offset 7, -20
  45              		.cfi_offset 8, -16
  46              		.cfi_offset 9, -12
  47              		.cfi_offset 10, -8
  48              		.cfi_offset 14, -4
  49 0004 0746     		mov	r7, r0
  50 0006 0C46     		mov	r4, r1
  51 0008 1546     		mov	r5, r2
  62:dcmotor.c     ****     float currentOrientation_Radians = (M_PI*currentOrientation/180);
  52              		.loc 1 62 0
ARM GAS  C:\Users\Misha\AppData\Local\Temp\ccrHJ3zm.s 			page 3


  53 000a 514B     		ldr	r3, .L5+16
  54 000c 1868     		ldr	r0, [r3]
  55              	.LVL1:
  56 000e FFF7FEFF 		bl	__aeabi_i2d
  57              	.LVL2:
  58 0012 4BA3     		adr	r3, .L5
  59 0014 D3E90023 		ldrd	r2, [r3]
  60 0018 FFF7FEFF 		bl	__aeabi_dmul
  61              	.LVL3:
  62 001c 0022     		movs	r2, #0
  63 001e 4D4B     		ldr	r3, .L5+20
  64 0020 FFF7FEFF 		bl	__aeabi_ddiv
  65              	.LVL4:
  66 0024 FFF7FEFF 		bl	__aeabi_d2f
  67              	.LVL5:
  68 0028 0646     		mov	r6, r0
  69              	.LVL6:
  63:dcmotor.c     ****     if (drivingForwardFlag == TRUE){
  70              		.loc 1 63 0
  71 002a 012C     		cmp	r4, #1
  72 002c 40D1     		bne	.L2
  64:dcmotor.c     ****         //When we update position, be aware that we measure orientation as 0 degres facing
  65:dcmotor.c     ****         //to the east of the arena and increasing counterclockwise
  66:dcmotor.c     ****         currentPosition[0] += CM_PER_COUNT*counts*cos(currentOrientation_Radians);
  73              		.loc 1 66 0
  74 002e 3846     		mov	r0, r7
  75              	.LVL7:
  76 0030 FFF7FEFF 		bl	__aeabi_i2d
  77              	.LVL8:
  78 0034 44A3     		adr	r3, .L5+8
  79 0036 D3E90023 		ldrd	r2, [r3]
  80 003a FFF7FEFF 		bl	__aeabi_dmul
  81              	.LVL9:
  82 003e 0446     		mov	r4, r0
  83              	.LVL10:
  84 0040 0D46     		mov	r5, r1
  85              	.LVL11:
  86 0042 3046     		mov	r0, r6
  87 0044 FFF7FEFF 		bl	__aeabi_f2d
  88              	.LVL12:
  89 0048 0646     		mov	r6, r0
  90              	.LVL13:
  91 004a 0F46     		mov	r7, r1
  92              	.LVL14:
  93 004c FFF7FEFF 		bl	cos
  94              	.LVL15:
  95 0050 0246     		mov	r2, r0
  96 0052 0B46     		mov	r3, r1
  97 0054 2046     		mov	r0, r4
  98 0056 2946     		mov	r1, r5
  99 0058 FFF7FEFF 		bl	__aeabi_dmul
 100              	.LVL16:
 101 005c 8046     		mov	r8, r0
 102 005e 8946     		mov	r9, r1
 103 0060 DFF8F4A0 		ldr	r10, .L5+24
 104 0064 DAF80000 		ldr	r0, [r10]	@ float
 105 0068 FFF7FEFF 		bl	__aeabi_f2d
ARM GAS  C:\Users\Misha\AppData\Local\Temp\ccrHJ3zm.s 			page 4


 106              	.LVL17:
 107 006c 4246     		mov	r2, r8
 108 006e 4B46     		mov	r3, r9
 109 0070 FFF7FEFF 		bl	__aeabi_dadd
 110              	.LVL18:
 111 0074 FFF7FEFF 		bl	__aeabi_d2f
 112              	.LVL19:
 113 0078 CAF80000 		str	r0, [r10]	@ float
  67:dcmotor.c     ****         currentPosition[1] += CM_PER_COUNT*counts*sin(currentOrientation_Radians);
 114              		.loc 1 67 0
 115 007c 3046     		mov	r0, r6
 116 007e 3946     		mov	r1, r7
 117 0080 FFF7FEFF 		bl	sin
 118              	.LVL20:
 119 0084 0246     		mov	r2, r0
 120 0086 0B46     		mov	r3, r1
 121 0088 2046     		mov	r0, r4
 122 008a 2946     		mov	r1, r5
 123 008c FFF7FEFF 		bl	__aeabi_dmul
 124              	.LVL21:
 125 0090 0446     		mov	r4, r0
 126 0092 0D46     		mov	r5, r1
 127 0094 DAF80400 		ldr	r0, [r10, #4]	@ float
 128 0098 FFF7FEFF 		bl	__aeabi_f2d
 129              	.LVL22:
 130 009c 2246     		mov	r2, r4
 131 009e 2B46     		mov	r3, r5
 132 00a0 FFF7FEFF 		bl	__aeabi_dadd
 133              	.LVL23:
 134 00a4 FFF7FEFF 		bl	__aeabi_d2f
 135              	.LVL24:
 136 00a8 CAF80400 		str	r0, [r10, #4]	@ float
 137 00ac BDE8F087 		pop	{r4, r5, r6, r7, r8, r9, r10, pc}
 138              	.LVL25:
 139              	.L2:
  68:dcmotor.c     ****     }else if (drivingBackwardFlag == TRUE){
 140              		.loc 1 68 0
 141 00b0 012D     		cmp	r5, #1
 142 00b2 43D1     		bne	.L1
  69:dcmotor.c     ****         currentPosition[0] += CM_PER_COUNT*counts*cos(currentOrientation_Radians + M_PI); 
 143              		.loc 1 69 0
 144 00b4 3846     		mov	r0, r7
 145              	.LVL26:
 146 00b6 FFF7FEFF 		bl	__aeabi_i2d
 147              	.LVL27:
 148 00ba 23A3     		adr	r3, .L5+8
 149 00bc D3E90023 		ldrd	r2, [r3]
 150 00c0 FFF7FEFF 		bl	__aeabi_dmul
 151              	.LVL28:
 152 00c4 0446     		mov	r4, r0
 153              	.LVL29:
 154 00c6 0D46     		mov	r5, r1
 155              	.LVL30:
 156 00c8 3046     		mov	r0, r6
 157 00ca FFF7FEFF 		bl	__aeabi_f2d
 158              	.LVL31:
 159 00ce 1CA3     		adr	r3, .L5
ARM GAS  C:\Users\Misha\AppData\Local\Temp\ccrHJ3zm.s 			page 5


 160 00d0 D3E90023 		ldrd	r2, [r3]
 161 00d4 FFF7FEFF 		bl	__aeabi_dadd
 162              	.LVL32:
 163 00d8 0646     		mov	r6, r0
 164              	.LVL33:
 165 00da 0F46     		mov	r7, r1
 166              	.LVL34:
 167 00dc FFF7FEFF 		bl	cos
 168              	.LVL35:
 169 00e0 0246     		mov	r2, r0
 170 00e2 0B46     		mov	r3, r1
 171 00e4 2046     		mov	r0, r4
 172 00e6 2946     		mov	r1, r5
 173 00e8 FFF7FEFF 		bl	__aeabi_dmul
 174              	.LVL36:
 175 00ec 8046     		mov	r8, r0
 176 00ee 8946     		mov	r9, r1
 177 00f0 DFF864A0 		ldr	r10, .L5+24
 178 00f4 DAF80000 		ldr	r0, [r10]	@ float
 179 00f8 FFF7FEFF 		bl	__aeabi_f2d
 180              	.LVL37:
 181 00fc 4246     		mov	r2, r8
 182 00fe 4B46     		mov	r3, r9
 183 0100 FFF7FEFF 		bl	__aeabi_dadd
 184              	.LVL38:
 185 0104 FFF7FEFF 		bl	__aeabi_d2f
 186              	.LVL39:
 187 0108 CAF80000 		str	r0, [r10]	@ float
  70:dcmotor.c     ****         currentPosition[1] += CM_PER_COUNT*counts*sin(currentOrientation_Radians + M_PI);
 188              		.loc 1 70 0
 189 010c 3046     		mov	r0, r6
 190 010e 3946     		mov	r1, r7
 191 0110 FFF7FEFF 		bl	sin
 192              	.LVL40:
 193 0114 0246     		mov	r2, r0
 194 0116 0B46     		mov	r3, r1
 195 0118 2046     		mov	r0, r4
 196 011a 2946     		mov	r1, r5
 197 011c FFF7FEFF 		bl	__aeabi_dmul
 198              	.LVL41:
 199 0120 0446     		mov	r4, r0
 200 0122 0D46     		mov	r5, r1
 201 0124 DAF80400 		ldr	r0, [r10, #4]	@ float
 202 0128 FFF7FEFF 		bl	__aeabi_f2d
 203              	.LVL42:
 204 012c 2246     		mov	r2, r4
 205 012e 2B46     		mov	r3, r5
 206 0130 FFF7FEFF 		bl	__aeabi_dadd
 207              	.LVL43:
 208 0134 FFF7FEFF 		bl	__aeabi_d2f
 209              	.LVL44:
 210 0138 CAF80400 		str	r0, [r10, #4]	@ float
 211              	.L1:
 212 013c BDE8F087 		pop	{r4, r5, r6, r7, r8, r9, r10, pc}
 213              	.L6:
 214              		.align	3
 215              	.L5:
ARM GAS  C:\Users\Misha\AppData\Local\Temp\ccrHJ3zm.s 			page 6


 216 0140 182D4454 		.word	1413754136
 217 0144 FB210940 		.word	1074340347
 218 0148 12A5BDC1 		.word	-1044536046
 219 014c 1726933F 		.word	1066608151
 220 0150 00000000 		.word	currentOrientation
 221 0154 00806640 		.word	1080459264
 222 0158 00000000 		.word	currentPosition
 223              		.cfi_endproc
 224              	.LFE64:
 225              		.size	positionUpdate, .-positionUpdate
 226              		.global	__aeabi_d2iz
 227              		.section	.text.orientationUpdate,"ax",%progbits
 228              		.align	2
 229              		.global	orientationUpdate
 230              		.thumb
 231              		.thumb_func
 232              		.type	orientationUpdate, %function
 233              	orientationUpdate:
 234              	.LFB65:
  71:dcmotor.c     ****     }
  72:dcmotor.c     **** }
  73:dcmotor.c     **** 
  74:dcmotor.c     **** //This function takes a number of counts from the encoder, and based on whether we are 
  75:dcmotor.c     **** //turning left or right, updates the current orientation. Current orientation can only
  76:dcmotor.c     **** //be updated from within this function
  77:dcmotor.c     **** void orientationUpdate(int counts,int turningLeftFlag, int turningRightFlag){
 235              		.loc 1 77 0
 236              		.cfi_startproc
 237              		@ args = 0, pretend = 0, frame = 0
 238              		@ frame_needed = 0, uses_anonymous_args = 0
 239              	.LVL45:
 240 0000 38B5     		push	{r3, r4, r5, lr}
 241              		.cfi_def_cfa_offset 16
 242              		.cfi_offset 3, -16
 243              		.cfi_offset 4, -12
 244              		.cfi_offset 5, -8
 245              		.cfi_offset 14, -4
 246 0002 0C46     		mov	r4, r1
 247 0004 1546     		mov	r5, r2
  78:dcmotor.c     ****     int degreesMoved = counts*DEGREES_PER_COUNT;
 248              		.loc 1 78 0
 249 0006 FFF7FEFF 		bl	__aeabi_i2d
 250              	.LVL46:
 251 000a 17A3     		adr	r3, .L11
 252 000c D3E90023 		ldrd	r2, [r3]
 253 0010 FFF7FEFF 		bl	__aeabi_dmul
 254              	.LVL47:
 255 0014 FFF7FEFF 		bl	__aeabi_d2iz
 256              	.LVL48:
  79:dcmotor.c     ****     if (turningLeftFlag == TRUE){
 257              		.loc 1 79 0
 258 0018 012C     		cmp	r4, #1
 259 001a 0FD1     		bne	.L8
  80:dcmotor.c     ****         currentOrientation += degreesMoved;
 260              		.loc 1 80 0
 261 001c 1449     		ldr	r1, .L11+8
 262 001e 0B68     		ldr	r3, [r1]
ARM GAS  C:\Users\Misha\AppData\Local\Temp\ccrHJ3zm.s 			page 7


 263 0020 1844     		add	r0, r0, r3
 264              	.LVL49:
  81:dcmotor.c     ****         currentOrientation = currentOrientation%360;
 265              		.loc 1 81 0
 266 0022 144A     		ldr	r2, .L11+12
 267 0024 80FB0223 		smull	r2, r3, r0, r2
 268 0028 C218     		adds	r2, r0, r3
 269 002a C317     		asrs	r3, r0, #31
 270 002c C3EB2223 		rsb	r3, r3, r2, asr #8
 271 0030 4FF4B472 		mov	r2, #360
 272 0034 02FB1303 		mls	r3, r2, r3, r0
 273 0038 0B60     		str	r3, [r1]
 274 003a 38BD     		pop	{r3, r4, r5, pc}
 275              	.LVL50:
 276              	.L8:
  82:dcmotor.c     ****     }else if (turningRightFlag == TRUE){
 277              		.loc 1 82 0
 278 003c 012D     		cmp	r5, #1
 279 003e 12D1     		bne	.L7
  83:dcmotor.c     ****         currentOrientation -= degreesMoved;
 280              		.loc 1 83 0
 281 0040 0B49     		ldr	r1, .L11+8
 282 0042 0B68     		ldr	r3, [r1]
 283 0044 181A     		subs	r0, r3, r0
 284              	.LVL51:
  84:dcmotor.c     ****         currentOrientation = currentOrientation%360;
 285              		.loc 1 84 0
 286 0046 0B4A     		ldr	r2, .L11+12
 287 0048 80FB0223 		smull	r2, r3, r0, r2
 288 004c C218     		adds	r2, r0, r3
 289 004e C317     		asrs	r3, r0, #31
 290 0050 C3EB2223 		rsb	r3, r3, r2, asr #8
 291 0054 4FF4B472 		mov	r2, #360
 292 0058 02FB1303 		mls	r3, r2, r3, r0
 293 005c 0B60     		str	r3, [r1]
  85:dcmotor.c     ****         if (currentOrientation < 0){
 294              		.loc 1 85 0
 295 005e 002B     		cmp	r3, #0
 296 0060 01DA     		bge	.L7
  86:dcmotor.c     ****             currentOrientation += 360;
 297              		.loc 1 86 0
 298 0062 1344     		add	r3, r3, r2
 299 0064 0B60     		str	r3, [r1]
 300              	.L7:
 301 0066 38BD     		pop	{r3, r4, r5, pc}
 302              	.LVL52:
 303              	.L12:
 304              		.align	3
 305              	.L11:
 306 0068 E17A14AE 		.word	-1374389535
 307 006c 47E1BA3F 		.word	1069211975
 308 0070 00000000 		.word	currentOrientation
 309 0074 B7600BB6 		.word	-1240768329
 310              		.cfi_endproc
 311              	.LFE65:
 312              		.size	orientationUpdate, .-orientationUpdate
 313              		.section	.text.stopMotion,"ax",%progbits
ARM GAS  C:\Users\Misha\AppData\Local\Temp\ccrHJ3zm.s 			page 8


 314              		.align	2
 315              		.global	stopMotion
 316              		.thumb
 317              		.thumb_func
 318              		.type	stopMotion, %function
 319              	stopMotion:
 320              	.LFB66:
  87:dcmotor.c     ****         }
  88:dcmotor.c     ****     }
  89:dcmotor.c     **** }
  90:dcmotor.c     **** 
  91:dcmotor.c     **** //This function will be called once the ultrasonics or the encoders decide that it is time
  92:dcmotor.c     **** //to stop moving. 
  93:dcmotor.c     **** void stopMotion(void){
 321              		.loc 1 93 0
 322              		.cfi_startproc
 323              		@ args = 0, pretend = 0, frame = 0
 324              		@ frame_needed = 0, uses_anonymous_args = 0
 325 0000 08B5     		push	{r3, lr}
 326              		.cfi_def_cfa_offset 8
 327              		.cfi_offset 3, -8
 328              		.cfi_offset 14, -4
  94:dcmotor.c     ****     if ((motor1Enable == FALSE) && (motor2Enable == FALSE)){
 329              		.loc 1 94 0
 330 0002 244B     		ldr	r3, .L20
 331 0004 B3F90030 		ldrsh	r3, [r3]
 332 0008 002B     		cmp	r3, #0
 333 000a 41D1     		bne	.L13
 334              		.loc 1 94 0 is_stmt 0 discriminator 1
 335 000c 224B     		ldr	r3, .L20+4
 336 000e B3F90030 		ldrsh	r3, [r3]
 337 0012 002B     		cmp	r3, #0
 338 0014 3CD1     		bne	.L13
 339              	.LBB2:
  95:dcmotor.c     ****         //Update the driving permission flags
  96:dcmotor.c     ****         //Read encoder counts and update from previous position
  97:dcmotor.c     ****         int completedCounts;
  98:dcmotor.c     ****         if ((drivingForwardFlag == TRUE)||(drivingBackwardFlag == TRUE)){
 340              		.loc 1 98 0 is_stmt 1
 341 0016 214B     		ldr	r3, .L20+8
 342 0018 1B68     		ldr	r3, [r3]
 343 001a 012B     		cmp	r3, #1
 344 001c 03D0     		beq	.L15
 345              		.loc 1 98 0 is_stmt 0 discriminator 1
 346 001e 204B     		ldr	r3, .L20+12
 347 0020 1B68     		ldr	r3, [r3]
 348 0022 012B     		cmp	r3, #1
 349 0024 08D1     		bne	.L16
 350              	.L15:
  99:dcmotor.c     ****             //We assume that the two counter will have identical counts
 100:dcmotor.c     ****             completedCounts = Motor_1_Encoder_Counts_ReadCounter();
 351              		.loc 1 100 0 is_stmt 1
 352 0026 FFF7FEFF 		bl	Motor_1_Encoder_Counts_ReadCounter
 353              	.LVL53:
 101:dcmotor.c     ****             positionUpdate(completedCounts,drivingForwardFlag,drivingBackwardFlag);
 354              		.loc 1 101 0
 355 002a 1D4B     		ldr	r3, .L20+12
ARM GAS  C:\Users\Misha\AppData\Local\Temp\ccrHJ3zm.s 			page 9


 356 002c 1A68     		ldr	r2, [r3]
 357 002e 1B4B     		ldr	r3, .L20+8
 358 0030 1968     		ldr	r1, [r3]
 359 0032 FFF7FEFF 		bl	positionUpdate
 360              	.LVL54:
 361 0036 18E0     		b	.L17
 362              	.L16:
 102:dcmotor.c     ****         }else if (turningLeftFlag == TRUE){
 363              		.loc 1 102 0
 364 0038 1A4B     		ldr	r3, .L20+16
 365 003a 1B68     		ldr	r3, [r3]
 366 003c 012B     		cmp	r3, #1
 367 003e 08D1     		bne	.L18
 103:dcmotor.c     ****             completedCounts = Motor_2_Encoder_Counts_ReadCounter();
 368              		.loc 1 103 0
 369 0040 FFF7FEFF 		bl	Motor_2_Encoder_Counts_ReadCounter
 370              	.LVL55:
 104:dcmotor.c     ****             orientationUpdate(completedCounts,turningLeftFlag,turningRightFlag);
 371              		.loc 1 104 0
 372 0044 184B     		ldr	r3, .L20+20
 373 0046 1A68     		ldr	r2, [r3]
 374 0048 164B     		ldr	r3, .L20+16
 375 004a 1968     		ldr	r1, [r3]
 376 004c FFF7FEFF 		bl	orientationUpdate
 377              	.LVL56:
 378 0050 0BE0     		b	.L17
 379              	.L18:
 105:dcmotor.c     ****         }else if (turningRightFlag == TRUE){
 380              		.loc 1 105 0
 381 0052 154B     		ldr	r3, .L20+20
 382 0054 1B68     		ldr	r3, [r3]
 383 0056 012B     		cmp	r3, #1
 384 0058 07D1     		bne	.L17
 106:dcmotor.c     ****             completedCounts = Motor_1_Encoder_Counts_ReadCounter();
 385              		.loc 1 106 0
 386 005a FFF7FEFF 		bl	Motor_1_Encoder_Counts_ReadCounter
 387              	.LVL57:
 107:dcmotor.c     ****             orientationUpdate(completedCounts,turningLeftFlag,turningRightFlag);
 388              		.loc 1 107 0
 389 005e 124B     		ldr	r3, .L20+20
 390 0060 1A68     		ldr	r2, [r3]
 391 0062 104B     		ldr	r3, .L20+16
 392 0064 1968     		ldr	r1, [r3]
 393 0066 FFF7FEFF 		bl	orientationUpdate
 394              	.LVL58:
 395              	.L17:
 108:dcmotor.c     ****         }
 109:dcmotor.c     ****                 
 110:dcmotor.c     ****         //Clear encoder counts
 111:dcmotor.c     ****         Motor_1_Encoder_Counts_WriteCounter(0);
 396              		.loc 1 111 0
 397 006a 0020     		movs	r0, #0
 398 006c FFF7FEFF 		bl	Motor_1_Encoder_Counts_WriteCounter
 399              	.LVL59:
 112:dcmotor.c     ****         Motor_2_Encoder_Counts_WriteCounter(0);
 400              		.loc 1 112 0
 401 0070 0020     		movs	r0, #0
ARM GAS  C:\Users\Misha\AppData\Local\Temp\ccrHJ3zm.s 			page 10


 402 0072 FFF7FEFF 		bl	Motor_2_Encoder_Counts_WriteCounter
 403              	.LVL60:
 113:dcmotor.c     ****         
 114:dcmotor.c     ****         motor1EncoderCounts = 0;
 404              		.loc 1 114 0
 405 0076 0023     		movs	r3, #0
 406 0078 0C4A     		ldr	r2, .L20+24
 407 007a 1360     		str	r3, [r2]
 115:dcmotor.c     ****         motor2EncoderCounts = 0;
 408              		.loc 1 115 0
 409 007c 0C4A     		ldr	r2, .L20+28
 410 007e 1360     		str	r3, [r2]
 116:dcmotor.c     ****         
 117:dcmotor.c     ****         //Just for now, we are going to update driving flags by turning all of them off
 118:dcmotor.c     ****         drivingForwardFlag = FALSE;
 411              		.loc 1 118 0
 412 0080 064A     		ldr	r2, .L20+8
 413 0082 1360     		str	r3, [r2]
 119:dcmotor.c     ****         drivingBackwardFlag = FALSE;
 414              		.loc 1 119 0
 415 0084 064A     		ldr	r2, .L20+12
 416 0086 1360     		str	r3, [r2]
 120:dcmotor.c     ****         turningLeftFlag = FALSE;
 417              		.loc 1 120 0
 418 0088 064A     		ldr	r2, .L20+16
 419 008a 1360     		str	r3, [r2]
 121:dcmotor.c     ****         turningRightFlag = FALSE;
 420              		.loc 1 121 0
 421 008c 064A     		ldr	r2, .L20+20
 422 008e 1360     		str	r3, [r2]
 423              	.L13:
 424 0090 08BD     		pop	{r3, pc}
 425              	.L21:
 426 0092 00BF     		.align	2
 427              	.L20:
 428 0094 00000000 		.word	motor1Enable
 429 0098 00000000 		.word	motor2Enable
 430 009c 00000000 		.word	drivingForwardFlag
 431 00a0 00000000 		.word	drivingBackwardFlag
 432 00a4 00000000 		.word	turningLeftFlag
 433 00a8 00000000 		.word	turningRightFlag
 434 00ac 00000000 		.word	motor1EncoderCounts
 435 00b0 00000000 		.word	motor2EncoderCounts
 436              	.LBE2:
 437              		.cfi_endproc
 438              	.LFE66:
 439              		.size	stopMotion, .-stopMotion
 440              		.global	__aeabi_fdiv
 441              		.global	__aeabi_fmul
 442              		.global	__aeabi_f2uiz
 443              		.section	.text.motorDutyCycleUpdate,"ax",%progbits
 444              		.align	2
 445              		.global	motorDutyCycleUpdate
 446              		.thumb
 447              		.thumb_func
 448              		.type	motorDutyCycleUpdate, %function
 449              	motorDutyCycleUpdate:
ARM GAS  C:\Users\Misha\AppData\Local\Temp\ccrHJ3zm.s 			page 11


 450              	.LFB67:
 122:dcmotor.c     ****         
 123:dcmotor.c     ****         //Have code here to plan the route which should also update the driving flags
 124:dcmotor.c     ****         
 125:dcmotor.c     ****     }
 126:dcmotor.c     **** }
 127:dcmotor.c     **** 
 128:dcmotor.c     **** //Takes the duty cycles must be expressed as a percentage and runs the motors at those duty
 129:dcmotor.c     **** //cycles
 130:dcmotor.c     **** void motorDutyCycleUpdate(float M1_FD, float M1_BD, float M2_FD, float M2_BD){
 451              		.loc 1 130 0
 452              		.cfi_startproc
 453              		@ args = 0, pretend = 0, frame = 0
 454              		@ frame_needed = 0, uses_anonymous_args = 0
 455              	.LVL61:
 456 0000 70B5     		push	{r4, r5, r6, lr}
 457              		.cfi_def_cfa_offset 16
 458              		.cfi_offset 4, -16
 459              		.cfi_offset 5, -12
 460              		.cfi_offset 6, -8
 461              		.cfi_offset 14, -4
 462 0002 0D46     		mov	r5, r1
 463 0004 1646     		mov	r6, r2
 464 0006 1C46     		mov	r4, r3
 131:dcmotor.c     ****     Motor_1_driver_WriteCompare1((M1_FD/NUM_TO_PERCENT_CONVERTER)*DCMOTOR_PWM_PERIOD);
 465              		.loc 1 131 0
 466 0008 1749     		ldr	r1, .L24
 467              	.LVL62:
 468 000a FFF7FEFF 		bl	__aeabi_fdiv
 469              	.LVL63:
 470 000e 1749     		ldr	r1, .L24+4
 471 0010 FFF7FEFF 		bl	__aeabi_fmul
 472              	.LVL64:
 473 0014 FFF7FEFF 		bl	__aeabi_f2uiz
 474              	.LVL65:
 475 0018 80B2     		uxth	r0, r0
 476 001a FFF7FEFF 		bl	Motor_1_driver_WriteCompare1
 477              	.LVL66:
 132:dcmotor.c     ****     Motor_2_driver_WriteCompare1((M2_FD/NUM_TO_PERCENT_CONVERTER)*DCMOTOR_PWM_PERIOD);
 478              		.loc 1 132 0
 479 001e 1249     		ldr	r1, .L24
 480 0020 3046     		mov	r0, r6
 481 0022 FFF7FEFF 		bl	__aeabi_fdiv
 482              	.LVL67:
 483 0026 1149     		ldr	r1, .L24+4
 484 0028 FFF7FEFF 		bl	__aeabi_fmul
 485              	.LVL68:
 486 002c FFF7FEFF 		bl	__aeabi_f2uiz
 487              	.LVL69:
 488 0030 80B2     		uxth	r0, r0
 489 0032 FFF7FEFF 		bl	Motor_2_driver_WriteCompare1
 490              	.LVL70:
 133:dcmotor.c     ****     Motor_1_driver_WriteCompare2((M1_BD/NUM_TO_PERCENT_CONVERTER)*DCMOTOR_PWM_PERIOD);
 491              		.loc 1 133 0
 492 0036 0C49     		ldr	r1, .L24
 493 0038 2846     		mov	r0, r5
 494 003a FFF7FEFF 		bl	__aeabi_fdiv
ARM GAS  C:\Users\Misha\AppData\Local\Temp\ccrHJ3zm.s 			page 12


 495              	.LVL71:
 496 003e 0B49     		ldr	r1, .L24+4
 497 0040 FFF7FEFF 		bl	__aeabi_fmul
 498              	.LVL72:
 499 0044 FFF7FEFF 		bl	__aeabi_f2uiz
 500              	.LVL73:
 501 0048 80B2     		uxth	r0, r0
 502 004a FFF7FEFF 		bl	Motor_1_driver_WriteCompare2
 503              	.LVL74:
 134:dcmotor.c     ****     Motor_2_driver_WriteCompare2((M2_BD/NUM_TO_PERCENT_CONVERTER)*DCMOTOR_PWM_PERIOD);
 504              		.loc 1 134 0
 505 004e 0649     		ldr	r1, .L24
 506 0050 2046     		mov	r0, r4
 507 0052 FFF7FEFF 		bl	__aeabi_fdiv
 508              	.LVL75:
 509 0056 0549     		ldr	r1, .L24+4
 510 0058 FFF7FEFF 		bl	__aeabi_fmul
 511              	.LVL76:
 512 005c FFF7FEFF 		bl	__aeabi_f2uiz
 513              	.LVL77:
 514 0060 80B2     		uxth	r0, r0
 515 0062 FFF7FEFF 		bl	Motor_2_driver_WriteCompare2
 516              	.LVL78:
 517 0066 70BD     		pop	{r4, r5, r6, pc}
 518              	.LVL79:
 519              	.L25:
 520              		.align	2
 521              	.L24:
 522 0068 0000C842 		.word	1120403456
 523 006c 00009643 		.word	1133903872
 524              		.cfi_endproc
 525              	.LFE67:
 526              		.size	motorDutyCycleUpdate, .-motorDutyCycleUpdate
 527              		.global	__aeabi_i2f
 528              		.section	.text.driftCorrect,"ax",%progbits
 529              		.align	2
 530              		.global	driftCorrect
 531              		.thumb
 532              		.thumb_func
 533              		.type	driftCorrect, %function
 534              	driftCorrect:
 535              	.LFB68:
 135:dcmotor.c     **** }
 136:dcmotor.c     **** 
 137:dcmotor.c     **** //This function will be responsible for adjusting any drift. It will read and modify 
 138:dcmotor.c     **** //global variables M1_FD,M1_BD,M2_FD and M2_BD to do so.
 139:dcmotor.c     **** void driftCorrect(void){
 536              		.loc 1 139 0
 537              		.cfi_startproc
 538              		@ args = 0, pretend = 0, frame = 0
 539              		@ frame_needed = 0, uses_anonymous_args = 0
 540 0000 70B5     		push	{r4, r5, r6, lr}
 541              		.cfi_def_cfa_offset 16
 542              		.cfi_offset 4, -16
 543              		.cfi_offset 5, -12
 544              		.cfi_offset 6, -8
 545              		.cfi_offset 14, -4
ARM GAS  C:\Users\Misha\AppData\Local\Temp\ccrHJ3zm.s 			page 13


 140:dcmotor.c     ****     int temp; //allows us to swap motor encoders' speeds
 141:dcmotor.c     ****     if (motor1EncoderCounts > motor2EncoderCounts){
 546              		.loc 1 141 0
 547 0002 5D4B     		ldr	r3, .L44
 548 0004 1A68     		ldr	r2, [r3]
 549 0006 5D4B     		ldr	r3, .L44+4
 550 0008 1B68     		ldr	r3, [r3]
 551 000a 9A42     		cmp	r2, r3
 552 000c 4BDD     		ble	.L27
 142:dcmotor.c     ****         if (drivingForwardFlag == TRUE){
 553              		.loc 1 142 0
 554 000e 5C4B     		ldr	r3, .L44+8
 555 0010 1B68     		ldr	r3, [r3]
 556 0012 012B     		cmp	r3, #1
 557 0014 0ED1     		bne	.L28
 143:dcmotor.c     ****             if (M1_FD == M2_FD){
 558              		.loc 1 143 0
 559 0016 5B4B     		ldr	r3, .L44+12
 560 0018 1A68     		ldr	r2, [r3]
 561 001a 5B4B     		ldr	r3, .L44+16
 562 001c 1B68     		ldr	r3, [r3]
 563 001e 9A42     		cmp	r2, r3
 564 0020 03D1     		bne	.L29
 144:dcmotor.c     ****                 M1_FD = M2_FD - 1;
 565              		.loc 1 144 0
 566 0022 013B     		subs	r3, r3, #1
 567 0024 574A     		ldr	r2, .L44+12
 568 0026 1360     		str	r3, [r2]
 569 0028 8AE0     		b	.L30
 570              	.L29:
 571              	.LVL80:
 145:dcmotor.c     ****             }else{
 146:dcmotor.c     ****                 temp = M1_FD;
 147:dcmotor.c     ****                 M1_FD = M2_FD;
 572              		.loc 1 147 0
 573 002a 5649     		ldr	r1, .L44+12
 574 002c 0B60     		str	r3, [r1]
 148:dcmotor.c     ****                 M2_FD = temp;
 575              		.loc 1 148 0
 576 002e 564B     		ldr	r3, .L44+16
 577 0030 1A60     		str	r2, [r3]
 578 0032 85E0     		b	.L30
 579              	.LVL81:
 580              	.L28:
 149:dcmotor.c     ****             }
 150:dcmotor.c     ****         }
 151:dcmotor.c     ****         else if (drivingBackwardFlag == TRUE){
 581              		.loc 1 151 0
 582 0034 554B     		ldr	r3, .L44+20
 583 0036 1B68     		ldr	r3, [r3]
 584 0038 012B     		cmp	r3, #1
 585 003a 0ED1     		bne	.L31
 152:dcmotor.c     ****             if (M1_BD == M2_BD){
 586              		.loc 1 152 0
 587 003c 544B     		ldr	r3, .L44+24
 588 003e 1A68     		ldr	r2, [r3]
 589 0040 544B     		ldr	r3, .L44+28
ARM GAS  C:\Users\Misha\AppData\Local\Temp\ccrHJ3zm.s 			page 14


 590 0042 1B68     		ldr	r3, [r3]
 591 0044 9A42     		cmp	r2, r3
 592 0046 03D1     		bne	.L32
 153:dcmotor.c     ****                 M1_BD = M2_BD - 1;
 593              		.loc 1 153 0
 594 0048 013B     		subs	r3, r3, #1
 595 004a 514A     		ldr	r2, .L44+24
 596 004c 1360     		str	r3, [r2]
 597 004e 77E0     		b	.L30
 598              	.L32:
 599              	.LVL82:
 154:dcmotor.c     ****             }else{
 155:dcmotor.c     ****                 temp = M1_BD;
 156:dcmotor.c     ****                 M1_BD = M2_BD;
 600              		.loc 1 156 0
 601 0050 4F49     		ldr	r1, .L44+24
 602 0052 0B60     		str	r3, [r1]
 157:dcmotor.c     ****                 M2_BD = temp;
 603              		.loc 1 157 0
 604 0054 4F4B     		ldr	r3, .L44+28
 605 0056 1A60     		str	r2, [r3]
 606 0058 72E0     		b	.L30
 607              	.LVL83:
 608              	.L31:
 158:dcmotor.c     ****             }
 159:dcmotor.c     ****         }else if (turningLeftFlag == TRUE){
 609              		.loc 1 159 0
 610 005a 4F4B     		ldr	r3, .L44+32
 611 005c 1B68     		ldr	r3, [r3]
 612 005e 012B     		cmp	r3, #1
 613 0060 0ED1     		bne	.L33
 160:dcmotor.c     ****             if (M1_BD == M2_FD){
 614              		.loc 1 160 0
 615 0062 4B4B     		ldr	r3, .L44+24
 616 0064 1A68     		ldr	r2, [r3]
 617 0066 484B     		ldr	r3, .L44+16
 618 0068 1B68     		ldr	r3, [r3]
 619 006a 9A42     		cmp	r2, r3
 620 006c 03D1     		bne	.L34
 161:dcmotor.c     ****                 M1_BD = M2_FD - 1;
 621              		.loc 1 161 0
 622 006e 013B     		subs	r3, r3, #1
 623 0070 474A     		ldr	r2, .L44+24
 624 0072 1360     		str	r3, [r2]
 625 0074 64E0     		b	.L30
 626              	.L34:
 627              	.LVL84:
 162:dcmotor.c     ****             }else{
 163:dcmotor.c     ****                 temp = M1_BD;
 164:dcmotor.c     ****                 M1_BD = M2_FD;
 628              		.loc 1 164 0
 629 0076 4649     		ldr	r1, .L44+24
 630 0078 0B60     		str	r3, [r1]
 165:dcmotor.c     ****                 M2_FD = temp;
 631              		.loc 1 165 0
 632 007a 434B     		ldr	r3, .L44+16
 633 007c 1A60     		str	r2, [r3]
ARM GAS  C:\Users\Misha\AppData\Local\Temp\ccrHJ3zm.s 			page 15


 634 007e 5FE0     		b	.L30
 635              	.LVL85:
 636              	.L33:
 166:dcmotor.c     ****             }
 167:dcmotor.c     ****         }else if (turningRightFlag == TRUE){
 637              		.loc 1 167 0
 638 0080 464B     		ldr	r3, .L44+36
 639 0082 1B68     		ldr	r3, [r3]
 640 0084 012B     		cmp	r3, #1
 641 0086 5BD1     		bne	.L30
 168:dcmotor.c     ****             if (M1_FD == M2_BD){
 642              		.loc 1 168 0
 643 0088 3E4B     		ldr	r3, .L44+12
 644 008a 1A68     		ldr	r2, [r3]
 645 008c 414B     		ldr	r3, .L44+28
 646 008e 1B68     		ldr	r3, [r3]
 647 0090 9A42     		cmp	r2, r3
 648 0092 03D1     		bne	.L35
 169:dcmotor.c     ****                 M1_FD = M2_BD - 1;
 649              		.loc 1 169 0
 650 0094 013B     		subs	r3, r3, #1
 651 0096 3B4A     		ldr	r2, .L44+12
 652 0098 1360     		str	r3, [r2]
 653 009a 51E0     		b	.L30
 654              	.L35:
 655              	.LVL86:
 170:dcmotor.c     ****             }else{
 171:dcmotor.c     ****                 temp = M1_FD;
 172:dcmotor.c     ****                 M1_FD = M2_BD;
 656              		.loc 1 172 0
 657 009c 3949     		ldr	r1, .L44+12
 658 009e 0B60     		str	r3, [r1]
 173:dcmotor.c     ****                 M2_BD = temp;
 659              		.loc 1 173 0
 660 00a0 3C4B     		ldr	r3, .L44+28
 661 00a2 1A60     		str	r2, [r3]
 662 00a4 4CE0     		b	.L30
 663              	.LVL87:
 664              	.L27:
 174:dcmotor.c     ****             }
 175:dcmotor.c     ****         }
 176:dcmotor.c     ****     }else if (motor2EncoderCounts > motor1EncoderCounts){
 665              		.loc 1 176 0
 666 00a6 9A42     		cmp	r2, r3
 667 00a8 4ADA     		bge	.L30
 177:dcmotor.c     ****         if (drivingForwardFlag == TRUE){
 668              		.loc 1 177 0
 669 00aa 354B     		ldr	r3, .L44+8
 670 00ac 1B68     		ldr	r3, [r3]
 671 00ae 012B     		cmp	r3, #1
 672 00b0 0ED1     		bne	.L36
 178:dcmotor.c     ****             if (M1_FD == M2_FD){
 673              		.loc 1 178 0
 674 00b2 344B     		ldr	r3, .L44+12
 675 00b4 1B68     		ldr	r3, [r3]
 676 00b6 344A     		ldr	r2, .L44+16
 677 00b8 1268     		ldr	r2, [r2]
ARM GAS  C:\Users\Misha\AppData\Local\Temp\ccrHJ3zm.s 			page 16


 678 00ba 9342     		cmp	r3, r2
 679 00bc 03D1     		bne	.L37
 179:dcmotor.c     ****                 M2_FD = M1_FD - 1 ;
 680              		.loc 1 179 0
 681 00be 013B     		subs	r3, r3, #1
 682 00c0 314A     		ldr	r2, .L44+16
 683 00c2 1360     		str	r3, [r2]
 684 00c4 3CE0     		b	.L30
 685              	.L37:
 686              	.LVL88:
 180:dcmotor.c     ****             }else{
 181:dcmotor.c     ****                 temp = M1_FD;
 182:dcmotor.c     ****                 M1_FD = M2_FD;
 687              		.loc 1 182 0
 688 00c6 2F49     		ldr	r1, .L44+12
 689 00c8 0A60     		str	r2, [r1]
 183:dcmotor.c     ****                 M2_FD = temp;
 690              		.loc 1 183 0
 691 00ca 2F4A     		ldr	r2, .L44+16
 692 00cc 1360     		str	r3, [r2]
 693 00ce 37E0     		b	.L30
 694              	.LVL89:
 695              	.L36:
 184:dcmotor.c     ****             }
 185:dcmotor.c     ****         }
 186:dcmotor.c     ****         else if (drivingBackwardFlag == TRUE){
 696              		.loc 1 186 0
 697 00d0 2E4B     		ldr	r3, .L44+20
 698 00d2 1B68     		ldr	r3, [r3]
 699 00d4 012B     		cmp	r3, #1
 700 00d6 0ED1     		bne	.L38
 187:dcmotor.c     ****             if (M1_BD == M2_BD){
 701              		.loc 1 187 0
 702 00d8 2D4B     		ldr	r3, .L44+24
 703 00da 1B68     		ldr	r3, [r3]
 704 00dc 2D4A     		ldr	r2, .L44+28
 705 00de 1268     		ldr	r2, [r2]
 706 00e0 9342     		cmp	r3, r2
 707 00e2 03D1     		bne	.L39
 188:dcmotor.c     ****                 M2_BD = M1_BD - 1;
 708              		.loc 1 188 0
 709 00e4 013B     		subs	r3, r3, #1
 710 00e6 2B4A     		ldr	r2, .L44+28
 711 00e8 1360     		str	r3, [r2]
 712 00ea 29E0     		b	.L30
 713              	.L39:
 714              	.LVL90:
 189:dcmotor.c     ****             }else{
 190:dcmotor.c     ****                 temp = M1_BD;
 191:dcmotor.c     ****                 M1_BD = M2_BD;
 715              		.loc 1 191 0
 716 00ec 2849     		ldr	r1, .L44+24
 717 00ee 0A60     		str	r2, [r1]
 192:dcmotor.c     ****                 M2_BD = temp;
 718              		.loc 1 192 0
 719 00f0 284A     		ldr	r2, .L44+28
 720 00f2 1360     		str	r3, [r2]
ARM GAS  C:\Users\Misha\AppData\Local\Temp\ccrHJ3zm.s 			page 17


 721 00f4 24E0     		b	.L30
 722              	.LVL91:
 723              	.L38:
 193:dcmotor.c     ****             }
 194:dcmotor.c     ****         }else if (turningLeftFlag == TRUE){
 724              		.loc 1 194 0
 725 00f6 284B     		ldr	r3, .L44+32
 726 00f8 1B68     		ldr	r3, [r3]
 727 00fa 012B     		cmp	r3, #1
 728 00fc 0ED1     		bne	.L40
 195:dcmotor.c     ****             if (M1_BD == M2_FD){
 729              		.loc 1 195 0
 730 00fe 244B     		ldr	r3, .L44+24
 731 0100 1A68     		ldr	r2, [r3]
 732 0102 214B     		ldr	r3, .L44+16
 733 0104 1B68     		ldr	r3, [r3]
 734 0106 9A42     		cmp	r2, r3
 735 0108 03D1     		bne	.L41
 196:dcmotor.c     ****                 M1_BD = M2_FD - 1;
 736              		.loc 1 196 0
 737 010a 013B     		subs	r3, r3, #1
 738 010c 204A     		ldr	r2, .L44+24
 739 010e 1360     		str	r3, [r2]
 740 0110 16E0     		b	.L30
 741              	.L41:
 742              	.LVL92:
 197:dcmotor.c     ****             }else{
 198:dcmotor.c     ****                 temp = M1_BD;
 199:dcmotor.c     ****                 M1_BD = M2_FD;
 743              		.loc 1 199 0
 744 0112 1F49     		ldr	r1, .L44+24
 745 0114 0B60     		str	r3, [r1]
 200:dcmotor.c     ****                 M2_FD = temp;
 746              		.loc 1 200 0
 747 0116 1C4B     		ldr	r3, .L44+16
 748 0118 1A60     		str	r2, [r3]
 749 011a 11E0     		b	.L30
 750              	.LVL93:
 751              	.L40:
 201:dcmotor.c     ****             }
 202:dcmotor.c     ****         }else if (turningRightFlag == TRUE){
 752              		.loc 1 202 0
 753 011c 1F4B     		ldr	r3, .L44+36
 754 011e 1B68     		ldr	r3, [r3]
 755 0120 012B     		cmp	r3, #1
 756 0122 0DD1     		bne	.L30
 203:dcmotor.c     ****             if (M1_FD == M2_BD){
 757              		.loc 1 203 0
 758 0124 174B     		ldr	r3, .L44+12
 759 0126 1A68     		ldr	r2, [r3]
 760 0128 1A4B     		ldr	r3, .L44+28
 761 012a 1B68     		ldr	r3, [r3]
 762 012c 9A42     		cmp	r2, r3
 763 012e 03D1     		bne	.L42
 204:dcmotor.c     ****                 M1_FD = M2_BD - 1;
 764              		.loc 1 204 0
 765 0130 013B     		subs	r3, r3, #1
ARM GAS  C:\Users\Misha\AppData\Local\Temp\ccrHJ3zm.s 			page 18


 766 0132 144A     		ldr	r2, .L44+12
 767 0134 1360     		str	r3, [r2]
 768 0136 03E0     		b	.L30
 769              	.L42:
 770              	.LVL94:
 205:dcmotor.c     ****             }else{
 206:dcmotor.c     ****                 temp = M1_FD;
 207:dcmotor.c     ****                 M1_FD = M2_BD;
 771              		.loc 1 207 0
 772 0138 1249     		ldr	r1, .L44+12
 773 013a 0B60     		str	r3, [r1]
 208:dcmotor.c     ****                 M2_BD = temp;
 774              		.loc 1 208 0
 775 013c 154B     		ldr	r3, .L44+28
 776 013e 1A60     		str	r2, [r3]
 777              	.LVL95:
 778              	.L30:
 209:dcmotor.c     ****             }
 210:dcmotor.c     ****         }
 211:dcmotor.c     ****     }
 212:dcmotor.c     ****     motorDutyCycleUpdate(M1_FD,M1_BD,M2_FD,M2_BD);
 779              		.loc 1 212 0
 780 0140 144B     		ldr	r3, .L44+28
 781 0142 1868     		ldr	r0, [r3]
 782 0144 FFF7FEFF 		bl	__aeabi_i2f
 783              	.LVL96:
 784 0148 0646     		mov	r6, r0
 785 014a 0F4B     		ldr	r3, .L44+16
 786 014c 1868     		ldr	r0, [r3]
 787 014e FFF7FEFF 		bl	__aeabi_i2f
 788              	.LVL97:
 789 0152 0546     		mov	r5, r0
 790 0154 0E4B     		ldr	r3, .L44+24
 791 0156 1868     		ldr	r0, [r3]
 792 0158 FFF7FEFF 		bl	__aeabi_i2f
 793              	.LVL98:
 794 015c 0446     		mov	r4, r0
 795 015e 094B     		ldr	r3, .L44+12
 796 0160 1868     		ldr	r0, [r3]
 797 0162 FFF7FEFF 		bl	__aeabi_i2f
 798              	.LVL99:
 799 0166 3346     		mov	r3, r6
 800 0168 2A46     		mov	r2, r5
 801 016a 2146     		mov	r1, r4
 802 016c FFF7FEFF 		bl	motorDutyCycleUpdate
 803              	.LVL100:
 213:dcmotor.c     ****     Drift_Check_Timer_Start(); 
 804              		.loc 1 213 0
 805 0170 FFF7FEFF 		bl	Drift_Check_Timer_Start
 806              	.LVL101:
 807 0174 70BD     		pop	{r4, r5, r6, pc}
 808              	.L45:
 809 0176 00BF     		.align	2
 810              	.L44:
 811 0178 00000000 		.word	motor1EncoderCounts
 812 017c 00000000 		.word	motor2EncoderCounts
 813 0180 00000000 		.word	drivingForwardFlag
ARM GAS  C:\Users\Misha\AppData\Local\Temp\ccrHJ3zm.s 			page 19


 814 0184 00000000 		.word	M1_FD
 815 0188 00000000 		.word	M2_FD
 816 018c 00000000 		.word	drivingBackwardFlag
 817 0190 00000000 		.word	M1_BD
 818 0194 00000000 		.word	M2_BD
 819 0198 00000000 		.word	turningLeftFlag
 820 019c 00000000 		.word	turningRightFlag
 821              		.cfi_endproc
 822              	.LFE68:
 823              		.size	driftCorrect, .-driftCorrect
 824              		.section	.text.counterInitialise,"ax",%progbits
 825              		.align	2
 826              		.global	counterInitialise
 827              		.thumb
 828              		.thumb_func
 829              		.type	counterInitialise, %function
 830              	counterInitialise:
 831              	.LFB69:
 214:dcmotor.c     **** }
 215:dcmotor.c     **** 
 216:dcmotor.c     **** //Takes two integers count1 and count2, and sets the counters up so that they will start counting 
 217:dcmotor.c     **** //at zero and interrupt when their counts equal the count values specified
 218:dcmotor.c     **** void counterInitialise(int count1, int count2){
 832              		.loc 1 218 0
 833              		.cfi_startproc
 834              		@ args = 0, pretend = 0, frame = 0
 835              		@ frame_needed = 0, uses_anonymous_args = 0
 836              	.LVL102:
 837 0000 38B5     		push	{r3, r4, r5, lr}
 838              		.cfi_def_cfa_offset 16
 839              		.cfi_offset 3, -16
 840              		.cfi_offset 4, -12
 841              		.cfi_offset 5, -8
 842              		.cfi_offset 14, -4
 843 0002 0546     		mov	r5, r0
 844 0004 0C46     		mov	r4, r1
 219:dcmotor.c     ****     Motor_1_Encoder_Counts_WriteCounter(0); //Start the counters from 0
 845              		.loc 1 219 0
 846 0006 0020     		movs	r0, #0
 847              	.LVL103:
 848 0008 FFF7FEFF 		bl	Motor_1_Encoder_Counts_WriteCounter
 849              	.LVL104:
 220:dcmotor.c     ****     Motor_2_Encoder_Counts_WriteCounter(0); //Start the counters from 0
 850              		.loc 1 220 0
 851 000c 0020     		movs	r0, #0
 852 000e FFF7FEFF 		bl	Motor_2_Encoder_Counts_WriteCounter
 853              	.LVL105:
 221:dcmotor.c     ****     Motor_1_Encoder_Counts_WritePeriod(count1);
 854              		.loc 1 221 0
 855 0012 A8B2     		uxth	r0, r5
 856 0014 FFF7FEFF 		bl	Motor_1_Encoder_Counts_WritePeriod
 857              	.LVL106:
 222:dcmotor.c     ****     Motor_2_Encoder_Counts_WritePeriod(count2);
 858              		.loc 1 222 0
 859 0018 A0B2     		uxth	r0, r4
 860 001a FFF7FEFF 		bl	Motor_2_Encoder_Counts_WritePeriod
 861              	.LVL107:
ARM GAS  C:\Users\Misha\AppData\Local\Temp\ccrHJ3zm.s 			page 20


 862 001e 38BD     		pop	{r3, r4, r5, pc}
 863              		.cfi_endproc
 864              	.LFE69:
 865              		.size	counterInitialise, .-counterInitialise
 866              		.section	.text.moveForward,"ax",%progbits
 867              		.align	2
 868              		.global	moveForward
 869              		.thumb
 870              		.thumb_func
 871              		.type	moveForward, %function
 872              	moveForward:
 873              	.LFB70:
 223:dcmotor.c     **** }
 224:dcmotor.c     **** 
 225:dcmotor.c     **** //Takes a distance to move in cm and moves. Blocking (sadly)
 226:dcmotor.c     **** void moveForward(float amount){
 874              		.loc 1 226 0
 875              		.cfi_startproc
 876              		@ args = 0, pretend = 0, frame = 0
 877              		@ frame_needed = 0, uses_anonymous_args = 0
 878              	.LVL108:
 879 0000 2DE9F041 		push	{r4, r5, r6, r7, r8, lr}
 880              		.cfi_def_cfa_offset 24
 881              		.cfi_offset 4, -24
 882              		.cfi_offset 5, -20
 883              		.cfi_offset 6, -16
 884              		.cfi_offset 7, -12
 885              		.cfi_offset 8, -8
 886              		.cfi_offset 14, -4
 227:dcmotor.c     ****     int counts = amount/CM_PER_COUNT;
 887              		.loc 1 227 0
 888 0004 FFF7FEFF 		bl	__aeabi_f2d
 889              	.LVL109:
 890 0008 23A3     		adr	r3, .L52
 891 000a D3E90023 		ldrd	r2, [r3]
 892 000e FFF7FEFF 		bl	__aeabi_ddiv
 893              	.LVL110:
 894 0012 FFF7FEFF 		bl	__aeabi_d2iz
 895              	.LVL111:
 228:dcmotor.c     ****     motor1Enable = TRUE;
 896              		.loc 1 228 0
 897 0016 0123     		movs	r3, #1
 898 0018 214A     		ldr	r2, .L52+8
 899 001a 1380     		strh	r3, [r2]	@ movhi
 229:dcmotor.c     ****     motor2Enable = TRUE;
 900              		.loc 1 229 0
 901 001c 214A     		ldr	r2, .L52+12
 902 001e 1380     		strh	r3, [r2]	@ movhi
 230:dcmotor.c     ****     drivingForwardFlag = TRUE;
 903              		.loc 1 230 0
 904 0020 214A     		ldr	r2, .L52+16
 905 0022 1360     		str	r3, [r2]
 231:dcmotor.c     ****     motor1EncoderCounts = 0;
 906              		.loc 1 231 0
 907 0024 0024     		movs	r4, #0
 908 0026 214B     		ldr	r3, .L52+20
 909 0028 1C60     		str	r4, [r3]
ARM GAS  C:\Users\Misha\AppData\Local\Temp\ccrHJ3zm.s 			page 21


 232:dcmotor.c     ****     motor2EncoderCounts = 0;
 910              		.loc 1 232 0
 911 002a 214B     		ldr	r3, .L52+24
 912 002c 1C60     		str	r4, [r3]
 233:dcmotor.c     ****     counterInitialise(counts,counts); //Sets up counters to interrupt at right time
 913              		.loc 1 233 0
 914 002e 0146     		mov	r1, r0
 915 0030 FFF7FEFF 		bl	counterInitialise
 916              	.LVL112:
 234:dcmotor.c     ****     M1_FD = DCMOTOR_IDEAL_DUTY_CYCLE;
 917              		.loc 1 234 0
 918 0034 1F4D     		ldr	r5, .L52+28
 919 0036 5023     		movs	r3, #80
 920 0038 2B60     		str	r3, [r5]
 235:dcmotor.c     ****     M1_BD = 0;
 921              		.loc 1 235 0
 922 003a 1F4E     		ldr	r6, .L52+32
 923 003c 3460     		str	r4, [r6]
 236:dcmotor.c     ****     M2_FD =  DCMOTOR_IDEAL_DUTY_CYCLE;
 924              		.loc 1 236 0
 925 003e 1F4F     		ldr	r7, .L52+36
 926 0040 3B60     		str	r3, [r7]
 237:dcmotor.c     ****     M2_BD = 0;
 927              		.loc 1 237 0
 928 0042 DFF87C80 		ldr	r8, .L52+40
 929 0046 C8F80040 		str	r4, [r8]
 238:dcmotor.c     ****     Motor_1_Encoder_Counts_Start();
 930              		.loc 1 238 0
 931 004a FFF7FEFF 		bl	Motor_1_Encoder_Counts_Start
 932              	.LVL113:
 239:dcmotor.c     ****     Motor_2_Encoder_Counts_Start();
 933              		.loc 1 239 0
 934 004e FFF7FEFF 		bl	Motor_2_Encoder_Counts_Start
 935              	.LVL114:
 240:dcmotor.c     ****     Drift_Check_Timer_Start();
 936              		.loc 1 240 0
 937 0052 FFF7FEFF 		bl	Drift_Check_Timer_Start
 938              	.LVL115:
 241:dcmotor.c     ****     motorDutyCycleUpdate(M1_FD,M1_BD,M2_FD,M2_BD);//This gets the motors going
 939              		.loc 1 241 0
 940 0056 D8F80000 		ldr	r0, [r8]
 941 005a FFF7FEFF 		bl	__aeabi_i2f
 942              	.LVL116:
 943 005e 8046     		mov	r8, r0
 944 0060 3868     		ldr	r0, [r7]
 945 0062 FFF7FEFF 		bl	__aeabi_i2f
 946              	.LVL117:
 947 0066 0746     		mov	r7, r0
 948 0068 3068     		ldr	r0, [r6]
 949 006a FFF7FEFF 		bl	__aeabi_i2f
 950              	.LVL118:
 951 006e 0446     		mov	r4, r0
 952 0070 2868     		ldr	r0, [r5]
 953 0072 FFF7FEFF 		bl	__aeabi_i2f
 954              	.LVL119:
 955 0076 4346     		mov	r3, r8
 956 0078 3A46     		mov	r2, r7
ARM GAS  C:\Users\Misha\AppData\Local\Temp\ccrHJ3zm.s 			page 22


 957 007a 2146     		mov	r1, r4
 958 007c FFF7FEFF 		bl	motorDutyCycleUpdate
 959              	.LVL120:
 960              	.L49:
 242:dcmotor.c     ****     //The below line just traps execution here until the motion is completed
 243:dcmotor.c     ****     while ((motor1Enable == TRUE)||(motor2Enable == TRUE)){
 961              		.loc 1 243 0 discriminator 3
 962 0080 074B     		ldr	r3, .L52+8
 963 0082 B3F90030 		ldrsh	r3, [r3]
 964 0086 012B     		cmp	r3, #1
 965 0088 FAD0     		beq	.L49
 966              		.loc 1 243 0 is_stmt 0 discriminator 2
 967 008a 064B     		ldr	r3, .L52+12
 968 008c B3F90030 		ldrsh	r3, [r3]
 969 0090 012B     		cmp	r3, #1
 970 0092 F5D0     		beq	.L49
 244:dcmotor.c     ****     
 245:dcmotor.c     ****     }
 246:dcmotor.c     **** }
 971              		.loc 1 246 0 is_stmt 1
 972 0094 BDE8F081 		pop	{r4, r5, r6, r7, r8, pc}
 973              	.L53:
 974              		.align	3
 975              	.L52:
 976 0098 12A5BDC1 		.word	-1044536046
 977 009c 1726933F 		.word	1066608151
 978 00a0 00000000 		.word	motor1Enable
 979 00a4 00000000 		.word	motor2Enable
 980 00a8 00000000 		.word	drivingForwardFlag
 981 00ac 00000000 		.word	motor1EncoderCounts
 982 00b0 00000000 		.word	motor2EncoderCounts
 983 00b4 00000000 		.word	M1_FD
 984 00b8 00000000 		.word	M1_BD
 985 00bc 00000000 		.word	M2_FD
 986 00c0 00000000 		.word	M2_BD
 987              		.cfi_endproc
 988              	.LFE70:
 989              		.size	moveForward, .-moveForward
 990              		.section	.text.moveForwardIndefinitely,"ax",%progbits
 991              		.align	2
 992              		.global	moveForwardIndefinitely
 993              		.thumb
 994              		.thumb_func
 995              		.type	moveForwardIndefinitely, %function
 996              	moveForwardIndefinitely:
 997              	.LFB71:
 247:dcmotor.c     **** 
 248:dcmotor.c     **** //Non-blocking move function. It will be called and will cause the robot to move forward until 
 249:dcmotor.c     **** //interrupted out by ultrasonics
 250:dcmotor.c     **** void moveForwardIndefinitely(void){
 998              		.loc 1 250 0
 999              		.cfi_startproc
 1000              		@ args = 0, pretend = 0, frame = 0
 1001              		@ frame_needed = 0, uses_anonymous_args = 0
 1002 0000 2DE9F041 		push	{r4, r5, r6, r7, r8, lr}
 1003              		.cfi_def_cfa_offset 24
 1004              		.cfi_offset 4, -24
ARM GAS  C:\Users\Misha\AppData\Local\Temp\ccrHJ3zm.s 			page 23


 1005              		.cfi_offset 5, -20
 1006              		.cfi_offset 6, -16
 1007              		.cfi_offset 7, -12
 1008              		.cfi_offset 8, -8
 1009              		.cfi_offset 14, -4
 1010              	.LVL121:
 251:dcmotor.c     ****     int counts = ENCODER_COUNTS_MAX;
 252:dcmotor.c     ****     motor1Enable = TRUE;
 1011              		.loc 1 252 0
 1012 0004 0123     		movs	r3, #1
 1013 0006 1C4A     		ldr	r2, .L56
 1014 0008 1380     		strh	r3, [r2]	@ movhi
 253:dcmotor.c     ****     motor2Enable = TRUE;
 1015              		.loc 1 253 0
 1016 000a 1C4A     		ldr	r2, .L56+4
 1017 000c 1380     		strh	r3, [r2]	@ movhi
 254:dcmotor.c     ****     drivingForwardFlag = TRUE;
 1018              		.loc 1 254 0
 1019 000e 1C4A     		ldr	r2, .L56+8
 1020 0010 1360     		str	r3, [r2]
 255:dcmotor.c     ****     motor1EncoderCounts = 0;
 1021              		.loc 1 255 0
 1022 0012 0024     		movs	r4, #0
 1023 0014 1B4B     		ldr	r3, .L56+12
 1024 0016 1C60     		str	r4, [r3]
 256:dcmotor.c     ****     motor2EncoderCounts = 0;
 1025              		.loc 1 256 0
 1026 0018 1B4B     		ldr	r3, .L56+16
 1027 001a 1C60     		str	r4, [r3]
 257:dcmotor.c     ****     counterInitialise(counts,counts); //Sets up counters to interrupt at right time
 1028              		.loc 1 257 0
 1029 001c 4FF6DC71 		movw	r1, #65500
 1030 0020 0846     		mov	r0, r1
 1031 0022 FFF7FEFF 		bl	counterInitialise
 1032              	.LVL122:
 258:dcmotor.c     ****     M1_FD = DCMOTOR_IDEAL_DUTY_CYCLE;
 1033              		.loc 1 258 0
 1034 0026 194D     		ldr	r5, .L56+20
 1035 0028 5023     		movs	r3, #80
 1036 002a 2B60     		str	r3, [r5]
 259:dcmotor.c     ****     M1_BD = 0;
 1037              		.loc 1 259 0
 1038 002c 184E     		ldr	r6, .L56+24
 1039 002e 3460     		str	r4, [r6]
 260:dcmotor.c     ****     M2_FD =  DCMOTOR_IDEAL_DUTY_CYCLE;
 1040              		.loc 1 260 0
 1041 0030 184F     		ldr	r7, .L56+28
 1042 0032 3B60     		str	r3, [r7]
 261:dcmotor.c     ****     M2_BD = 0;
 1043              		.loc 1 261 0
 1044 0034 DFF86080 		ldr	r8, .L56+32
 1045 0038 C8F80040 		str	r4, [r8]
 262:dcmotor.c     ****     Motor_1_Encoder_Counts_Start();
 1046              		.loc 1 262 0
 1047 003c FFF7FEFF 		bl	Motor_1_Encoder_Counts_Start
 1048              	.LVL123:
 263:dcmotor.c     ****     Motor_2_Encoder_Counts_Start();
ARM GAS  C:\Users\Misha\AppData\Local\Temp\ccrHJ3zm.s 			page 24


 1049              		.loc 1 263 0
 1050 0040 FFF7FEFF 		bl	Motor_2_Encoder_Counts_Start
 1051              	.LVL124:
 264:dcmotor.c     ****     Drift_Check_Timer_Start();
 1052              		.loc 1 264 0
 1053 0044 FFF7FEFF 		bl	Drift_Check_Timer_Start
 1054              	.LVL125:
 265:dcmotor.c     ****     motorDutyCycleUpdate(M1_FD,M1_BD,M2_FD,M2_BD);//This gets the motors going
 1055              		.loc 1 265 0
 1056 0048 D8F80000 		ldr	r0, [r8]
 1057 004c FFF7FEFF 		bl	__aeabi_i2f
 1058              	.LVL126:
 1059 0050 8046     		mov	r8, r0
 1060 0052 3868     		ldr	r0, [r7]
 1061 0054 FFF7FEFF 		bl	__aeabi_i2f
 1062              	.LVL127:
 1063 0058 0746     		mov	r7, r0
 1064 005a 3068     		ldr	r0, [r6]
 1065 005c FFF7FEFF 		bl	__aeabi_i2f
 1066              	.LVL128:
 1067 0060 0446     		mov	r4, r0
 1068 0062 2868     		ldr	r0, [r5]
 1069 0064 FFF7FEFF 		bl	__aeabi_i2f
 1070              	.LVL129:
 1071 0068 4346     		mov	r3, r8
 1072 006a 3A46     		mov	r2, r7
 1073 006c 2146     		mov	r1, r4
 1074 006e FFF7FEFF 		bl	motorDutyCycleUpdate
 1075              	.LVL130:
 1076 0072 BDE8F081 		pop	{r4, r5, r6, r7, r8, pc}
 1077              	.L57:
 1078 0076 00BF     		.align	2
 1079              	.L56:
 1080 0078 00000000 		.word	motor1Enable
 1081 007c 00000000 		.word	motor2Enable
 1082 0080 00000000 		.word	drivingForwardFlag
 1083 0084 00000000 		.word	motor1EncoderCounts
 1084 0088 00000000 		.word	motor2EncoderCounts
 1085 008c 00000000 		.word	M1_FD
 1086 0090 00000000 		.word	M1_BD
 1087 0094 00000000 		.word	M2_FD
 1088 0098 00000000 		.word	M2_BD
 1089              		.cfi_endproc
 1090              	.LFE71:
 1091              		.size	moveForwardIndefinitely, .-moveForwardIndefinitely
 1092              		.section	.text.moveBackward,"ax",%progbits
 1093              		.align	2
 1094              		.global	moveBackward
 1095              		.thumb
 1096              		.thumb_func
 1097              		.type	moveBackward, %function
 1098              	moveBackward:
 1099              	.LFB72:
 266:dcmotor.c     ****     //The below line just traps execution here until the motion is completed
 267:dcmotor.c     **** }
 268:dcmotor.c     **** //Takes a distance to move in cm and moves. Blocking (sadly)
 269:dcmotor.c     **** void moveBackward(float amount){
ARM GAS  C:\Users\Misha\AppData\Local\Temp\ccrHJ3zm.s 			page 25


 1100              		.loc 1 269 0
 1101              		.cfi_startproc
 1102              		@ args = 0, pretend = 0, frame = 0
 1103              		@ frame_needed = 0, uses_anonymous_args = 0
 1104              	.LVL131:
 1105 0000 2DE9F041 		push	{r4, r5, r6, r7, r8, lr}
 1106              		.cfi_def_cfa_offset 24
 1107              		.cfi_offset 4, -24
 1108              		.cfi_offset 5, -20
 1109              		.cfi_offset 6, -16
 1110              		.cfi_offset 7, -12
 1111              		.cfi_offset 8, -8
 1112              		.cfi_offset 14, -4
 270:dcmotor.c     ****     int counts = amount/CM_PER_COUNT;
 1113              		.loc 1 270 0
 1114 0004 FFF7FEFF 		bl	__aeabi_f2d
 1115              	.LVL132:
 1116 0008 23A3     		adr	r3, .L62
 1117 000a D3E90023 		ldrd	r2, [r3]
 1118 000e FFF7FEFF 		bl	__aeabi_ddiv
 1119              	.LVL133:
 1120 0012 FFF7FEFF 		bl	__aeabi_d2iz
 1121              	.LVL134:
 271:dcmotor.c     ****     motor1Enable = TRUE;
 1122              		.loc 1 271 0
 1123 0016 0123     		movs	r3, #1
 1124 0018 214A     		ldr	r2, .L62+8
 1125 001a 1380     		strh	r3, [r2]	@ movhi
 272:dcmotor.c     ****     motor2Enable = TRUE;
 1126              		.loc 1 272 0
 1127 001c 214A     		ldr	r2, .L62+12
 1128 001e 1380     		strh	r3, [r2]	@ movhi
 273:dcmotor.c     ****     drivingBackwardFlag = TRUE;
 1129              		.loc 1 273 0
 1130 0020 214A     		ldr	r2, .L62+16
 1131 0022 1360     		str	r3, [r2]
 274:dcmotor.c     ****     motor1EncoderCounts = 0;
 1132              		.loc 1 274 0
 1133 0024 0024     		movs	r4, #0
 1134 0026 214B     		ldr	r3, .L62+20
 1135 0028 1C60     		str	r4, [r3]
 275:dcmotor.c     ****     motor2EncoderCounts = 0;
 1136              		.loc 1 275 0
 1137 002a 214B     		ldr	r3, .L62+24
 1138 002c 1C60     		str	r4, [r3]
 276:dcmotor.c     ****     counterInitialise(counts,counts); //Sets up counters to interrupt at right time
 1139              		.loc 1 276 0
 1140 002e 0146     		mov	r1, r0
 1141 0030 FFF7FEFF 		bl	counterInitialise
 1142              	.LVL135:
 277:dcmotor.c     ****     M1_FD = 0;
 1143              		.loc 1 277 0
 1144 0034 1F4D     		ldr	r5, .L62+28
 1145 0036 2C60     		str	r4, [r5]
 278:dcmotor.c     ****     M1_BD = DCMOTOR_IDEAL_DUTY_CYCLE;
 1146              		.loc 1 278 0
 1147 0038 1F4E     		ldr	r6, .L62+32
ARM GAS  C:\Users\Misha\AppData\Local\Temp\ccrHJ3zm.s 			page 26


 1148 003a 5023     		movs	r3, #80
 1149 003c 3360     		str	r3, [r6]
 279:dcmotor.c     ****     M2_FD =  0;
 1150              		.loc 1 279 0
 1151 003e 1F4F     		ldr	r7, .L62+36
 1152 0040 3C60     		str	r4, [r7]
 280:dcmotor.c     ****     M2_BD = DCMOTOR_IDEAL_DUTY_CYCLE;
 1153              		.loc 1 280 0
 1154 0042 1F4C     		ldr	r4, .L62+40
 1155 0044 2360     		str	r3, [r4]
 281:dcmotor.c     ****     Motor_1_Encoder_Counts_Start();
 1156              		.loc 1 281 0
 1157 0046 FFF7FEFF 		bl	Motor_1_Encoder_Counts_Start
 1158              	.LVL136:
 282:dcmotor.c     ****     Motor_2_Encoder_Counts_Start();
 1159              		.loc 1 282 0
 1160 004a FFF7FEFF 		bl	Motor_2_Encoder_Counts_Start
 1161              	.LVL137:
 283:dcmotor.c     ****     Drift_Check_Timer_Start();
 1162              		.loc 1 283 0
 1163 004e FFF7FEFF 		bl	Drift_Check_Timer_Start
 1164              	.LVL138:
 284:dcmotor.c     ****     motorDutyCycleUpdate(M1_FD,M1_BD,M2_FD,M2_BD);//This gets the motors going
 1165              		.loc 1 284 0
 1166 0052 2068     		ldr	r0, [r4]
 1167 0054 FFF7FEFF 		bl	__aeabi_i2f
 1168              	.LVL139:
 1169 0058 8046     		mov	r8, r0
 1170 005a 3868     		ldr	r0, [r7]
 1171 005c FFF7FEFF 		bl	__aeabi_i2f
 1172              	.LVL140:
 1173 0060 0746     		mov	r7, r0
 1174 0062 3068     		ldr	r0, [r6]
 1175 0064 FFF7FEFF 		bl	__aeabi_i2f
 1176              	.LVL141:
 1177 0068 0446     		mov	r4, r0
 1178 006a 2868     		ldr	r0, [r5]
 1179 006c FFF7FEFF 		bl	__aeabi_i2f
 1180              	.LVL142:
 1181 0070 4346     		mov	r3, r8
 1182 0072 3A46     		mov	r2, r7
 1183 0074 2146     		mov	r1, r4
 1184 0076 FFF7FEFF 		bl	motorDutyCycleUpdate
 1185              	.LVL143:
 1186              	.L59:
 285:dcmotor.c     ****     //The below line just traps execution here until the motion is completed
 286:dcmotor.c     ****     while ((motor1Enable == TRUE)||(motor2Enable == TRUE)){
 1187              		.loc 1 286 0 discriminator 3
 1188 007a 094B     		ldr	r3, .L62+8
 1189 007c B3F90030 		ldrsh	r3, [r3]
 1190 0080 012B     		cmp	r3, #1
 1191 0082 FAD0     		beq	.L59
 1192              		.loc 1 286 0 is_stmt 0 discriminator 2
 1193 0084 074B     		ldr	r3, .L62+12
 1194 0086 B3F90030 		ldrsh	r3, [r3]
 1195 008a 012B     		cmp	r3, #1
 1196 008c F5D0     		beq	.L59
ARM GAS  C:\Users\Misha\AppData\Local\Temp\ccrHJ3zm.s 			page 27


 287:dcmotor.c     ****     
 288:dcmotor.c     ****     }
 289:dcmotor.c     **** }
 1197              		.loc 1 289 0 is_stmt 1
 1198 008e BDE8F081 		pop	{r4, r5, r6, r7, r8, pc}
 1199              	.L63:
 1200 0092 00BFAFF3 		.align	3
 1200      0080
 1201              	.L62:
 1202 0098 12A5BDC1 		.word	-1044536046
 1203 009c 1726933F 		.word	1066608151
 1204 00a0 00000000 		.word	motor1Enable
 1205 00a4 00000000 		.word	motor2Enable
 1206 00a8 00000000 		.word	drivingBackwardFlag
 1207 00ac 00000000 		.word	motor1EncoderCounts
 1208 00b0 00000000 		.word	motor2EncoderCounts
 1209 00b4 00000000 		.word	M1_FD
 1210 00b8 00000000 		.word	M1_BD
 1211 00bc 00000000 		.word	M2_FD
 1212 00c0 00000000 		.word	M2_BD
 1213              		.cfi_endproc
 1214              	.LFE72:
 1215              		.size	moveBackward, .-moveBackward
 1216              		.section	.text.moveBackwardIndefinitely,"ax",%progbits
 1217              		.align	2
 1218              		.global	moveBackwardIndefinitely
 1219              		.thumb
 1220              		.thumb_func
 1221              		.type	moveBackwardIndefinitely, %function
 1222              	moveBackwardIndefinitely:
 1223              	.LFB73:
 290:dcmotor.c     **** 
 291:dcmotor.c     **** //Allows the robot to move backward indefinitely until interrupted out by ultrasonics
 292:dcmotor.c     **** void moveBackwardIndefinitely(void){
 1224              		.loc 1 292 0
 1225              		.cfi_startproc
 1226              		@ args = 0, pretend = 0, frame = 0
 1227              		@ frame_needed = 0, uses_anonymous_args = 0
 1228 0000 2DE9F041 		push	{r4, r5, r6, r7, r8, lr}
 1229              		.cfi_def_cfa_offset 24
 1230              		.cfi_offset 4, -24
 1231              		.cfi_offset 5, -20
 1232              		.cfi_offset 6, -16
 1233              		.cfi_offset 7, -12
 1234              		.cfi_offset 8, -8
 1235              		.cfi_offset 14, -4
 1236              	.LVL144:
 293:dcmotor.c     ****     int counts = ENCODER_COUNTS_MAX;
 294:dcmotor.c     ****     motor1Enable = TRUE;
 1237              		.loc 1 294 0
 1238 0004 0123     		movs	r3, #1
 1239 0006 1A4A     		ldr	r2, .L66
 1240 0008 1380     		strh	r3, [r2]	@ movhi
 295:dcmotor.c     ****     motor2Enable = TRUE;
 1241              		.loc 1 295 0
 1242 000a 1A4A     		ldr	r2, .L66+4
 1243 000c 1380     		strh	r3, [r2]	@ movhi
ARM GAS  C:\Users\Misha\AppData\Local\Temp\ccrHJ3zm.s 			page 28


 296:dcmotor.c     ****     drivingBackwardFlag = TRUE;
 1244              		.loc 1 296 0
 1245 000e 1A4A     		ldr	r2, .L66+8
 1246 0010 1360     		str	r3, [r2]
 297:dcmotor.c     ****     motor1EncoderCounts = 0;
 1247              		.loc 1 297 0
 1248 0012 0024     		movs	r4, #0
 1249 0014 194B     		ldr	r3, .L66+12
 1250 0016 1C60     		str	r4, [r3]
 298:dcmotor.c     ****     motor2EncoderCounts = 0;
 1251              		.loc 1 298 0
 1252 0018 194B     		ldr	r3, .L66+16
 1253 001a 1C60     		str	r4, [r3]
 299:dcmotor.c     ****     counterInitialise(counts,counts); //Sets up counters to interrupt at right time
 1254              		.loc 1 299 0
 1255 001c 4FF6DC71 		movw	r1, #65500
 1256 0020 0846     		mov	r0, r1
 1257 0022 FFF7FEFF 		bl	counterInitialise
 1258              	.LVL145:
 300:dcmotor.c     ****     M1_FD = 0;
 1259              		.loc 1 300 0
 1260 0026 174D     		ldr	r5, .L66+20
 1261 0028 2C60     		str	r4, [r5]
 301:dcmotor.c     ****     M1_BD = DCMOTOR_IDEAL_DUTY_CYCLE;
 1262              		.loc 1 301 0
 1263 002a 174E     		ldr	r6, .L66+24
 1264 002c 5023     		movs	r3, #80
 1265 002e 3360     		str	r3, [r6]
 302:dcmotor.c     ****     M2_FD =  0;
 1266              		.loc 1 302 0
 1267 0030 164F     		ldr	r7, .L66+28
 1268 0032 3C60     		str	r4, [r7]
 303:dcmotor.c     ****     M2_BD = DCMOTOR_IDEAL_DUTY_CYCLE;
 1269              		.loc 1 303 0
 1270 0034 164C     		ldr	r4, .L66+32
 1271 0036 2360     		str	r3, [r4]
 304:dcmotor.c     ****     Motor_1_Encoder_Counts_Start();
 1272              		.loc 1 304 0
 1273 0038 FFF7FEFF 		bl	Motor_1_Encoder_Counts_Start
 1274              	.LVL146:
 305:dcmotor.c     ****     Motor_2_Encoder_Counts_Start();
 1275              		.loc 1 305 0
 1276 003c FFF7FEFF 		bl	Motor_2_Encoder_Counts_Start
 1277              	.LVL147:
 306:dcmotor.c     ****     Drift_Check_Timer_Start();
 1278              		.loc 1 306 0
 1279 0040 FFF7FEFF 		bl	Drift_Check_Timer_Start
 1280              	.LVL148:
 307:dcmotor.c     ****     motorDutyCycleUpdate(M1_FD,M1_BD,M2_FD,M2_BD);//This gets the motors going
 1281              		.loc 1 307 0
 1282 0044 2068     		ldr	r0, [r4]
 1283 0046 FFF7FEFF 		bl	__aeabi_i2f
 1284              	.LVL149:
 1285 004a 8046     		mov	r8, r0
 1286 004c 3868     		ldr	r0, [r7]
 1287 004e FFF7FEFF 		bl	__aeabi_i2f
 1288              	.LVL150:
ARM GAS  C:\Users\Misha\AppData\Local\Temp\ccrHJ3zm.s 			page 29


 1289 0052 0746     		mov	r7, r0
 1290 0054 3068     		ldr	r0, [r6]
 1291 0056 FFF7FEFF 		bl	__aeabi_i2f
 1292              	.LVL151:
 1293 005a 0446     		mov	r4, r0
 1294 005c 2868     		ldr	r0, [r5]
 1295 005e FFF7FEFF 		bl	__aeabi_i2f
 1296              	.LVL152:
 1297 0062 4346     		mov	r3, r8
 1298 0064 3A46     		mov	r2, r7
 1299 0066 2146     		mov	r1, r4
 1300 0068 FFF7FEFF 		bl	motorDutyCycleUpdate
 1301              	.LVL153:
 1302 006c BDE8F081 		pop	{r4, r5, r6, r7, r8, pc}
 1303              	.L67:
 1304              		.align	2
 1305              	.L66:
 1306 0070 00000000 		.word	motor1Enable
 1307 0074 00000000 		.word	motor2Enable
 1308 0078 00000000 		.word	drivingBackwardFlag
 1309 007c 00000000 		.word	motor1EncoderCounts
 1310 0080 00000000 		.word	motor2EncoderCounts
 1311 0084 00000000 		.word	M1_FD
 1312 0088 00000000 		.word	M1_BD
 1313 008c 00000000 		.word	M2_FD
 1314 0090 00000000 		.word	M2_BD
 1315              		.cfi_endproc
 1316              	.LFE73:
 1317              		.size	moveBackwardIndefinitely, .-moveBackwardIndefinitely
 1318              		.section	.text.turnLeft,"ax",%progbits
 1319              		.align	2
 1320              		.global	turnLeft
 1321              		.thumb
 1322              		.thumb_func
 1323              		.type	turnLeft, %function
 1324              	turnLeft:
 1325              	.LFB74:
 308:dcmotor.c     **** }
 309:dcmotor.c     **** 
 310:dcmotor.c     **** //Takes an angle to turn in degrees and turns left that much
 311:dcmotor.c     **** void turnLeft(float amount){
 1326              		.loc 1 311 0
 1327              		.cfi_startproc
 1328              		@ args = 0, pretend = 0, frame = 0
 1329              		@ frame_needed = 0, uses_anonymous_args = 0
 1330              	.LVL154:
 1331 0000 2DE9F041 		push	{r4, r5, r6, r7, r8, lr}
 1332              		.cfi_def_cfa_offset 24
 1333              		.cfi_offset 4, -24
 1334              		.cfi_offset 5, -20
 1335              		.cfi_offset 6, -16
 1336              		.cfi_offset 7, -12
 1337              		.cfi_offset 8, -8
 1338              		.cfi_offset 14, -4
 312:dcmotor.c     ****     //We need to make sure that the timers are disabled when we are doing turning motions
 313:dcmotor.c     ****     //Otherwise they will try and correct the turning
 314:dcmotor.c     ****     int counts = round(amount/DEGREES_PER_COUNT);
ARM GAS  C:\Users\Misha\AppData\Local\Temp\ccrHJ3zm.s 			page 30


 1339              		.loc 1 314 0
 1340 0004 FFF7FEFF 		bl	__aeabi_f2d
 1341              	.LVL155:
 1342 0008 25A3     		adr	r3, .L72
 1343 000a D3E90023 		ldrd	r2, [r3]
 1344 000e FFF7FEFF 		bl	__aeabi_ddiv
 1345              	.LVL156:
 1346 0012 FFF7FEFF 		bl	round
 1347              	.LVL157:
 1348 0016 FFF7FEFF 		bl	__aeabi_d2iz
 1349              	.LVL158:
 315:dcmotor.c     ****     motor1Enable = TRUE;
 1350              		.loc 1 315 0
 1351 001a 0123     		movs	r3, #1
 1352 001c 224A     		ldr	r2, .L72+8
 1353 001e 1380     		strh	r3, [r2]	@ movhi
 316:dcmotor.c     ****     motor2Enable = TRUE;
 1354              		.loc 1 316 0
 1355 0020 224A     		ldr	r2, .L72+12
 1356 0022 1380     		strh	r3, [r2]	@ movhi
 317:dcmotor.c     ****     turningLeftFlag = TRUE;
 1357              		.loc 1 317 0
 1358 0024 224A     		ldr	r2, .L72+16
 1359 0026 1360     		str	r3, [r2]
 318:dcmotor.c     ****     motor1EncoderCounts = 0;
 1360              		.loc 1 318 0
 1361 0028 0024     		movs	r4, #0
 1362 002a 224B     		ldr	r3, .L72+20
 1363 002c 1C60     		str	r4, [r3]
 319:dcmotor.c     ****     motor2EncoderCounts = 0;
 1364              		.loc 1 319 0
 1365 002e 224B     		ldr	r3, .L72+24
 1366 0030 1C60     		str	r4, [r3]
 320:dcmotor.c     ****     counterInitialise(counts,counts); //Sets up counters to interrupt at right time
 1367              		.loc 1 320 0
 1368 0032 0146     		mov	r1, r0
 1369 0034 FFF7FEFF 		bl	counterInitialise
 1370              	.LVL159:
 321:dcmotor.c     ****     M1_FD = 0;
 1371              		.loc 1 321 0
 1372 0038 204D     		ldr	r5, .L72+28
 1373 003a 2C60     		str	r4, [r5]
 322:dcmotor.c     ****     M1_BD = DCMOTOR_IDEAL_DUTY_CYCLE;
 1374              		.loc 1 322 0
 1375 003c 204E     		ldr	r6, .L72+32
 1376 003e 5023     		movs	r3, #80
 1377 0040 3360     		str	r3, [r6]
 323:dcmotor.c     ****     M2_FD = DCMOTOR_IDEAL_DUTY_CYCLE;
 1378              		.loc 1 323 0
 1379 0042 204F     		ldr	r7, .L72+36
 1380 0044 3B60     		str	r3, [r7]
 324:dcmotor.c     ****     M2_BD = 0;
 1381              		.loc 1 324 0
 1382 0046 DFF88080 		ldr	r8, .L72+40
 1383 004a C8F80040 		str	r4, [r8]
 325:dcmotor.c     ****     Motor_1_Encoder_Counts_Start();
 1384              		.loc 1 325 0
ARM GAS  C:\Users\Misha\AppData\Local\Temp\ccrHJ3zm.s 			page 31


 1385 004e FFF7FEFF 		bl	Motor_1_Encoder_Counts_Start
 1386              	.LVL160:
 326:dcmotor.c     ****     Motor_2_Encoder_Counts_Start();
 1387              		.loc 1 326 0
 1388 0052 FFF7FEFF 		bl	Motor_2_Encoder_Counts_Start
 1389              	.LVL161:
 327:dcmotor.c     ****     Drift_Check_Timer_Start();
 1390              		.loc 1 327 0
 1391 0056 FFF7FEFF 		bl	Drift_Check_Timer_Start
 1392              	.LVL162:
 328:dcmotor.c     ****     motorDutyCycleUpdate(M1_FD,M1_BD,M2_FD,M2_BD);//This gets the motors going
 1393              		.loc 1 328 0
 1394 005a D8F80000 		ldr	r0, [r8]
 1395 005e FFF7FEFF 		bl	__aeabi_i2f
 1396              	.LVL163:
 1397 0062 8046     		mov	r8, r0
 1398 0064 3868     		ldr	r0, [r7]
 1399 0066 FFF7FEFF 		bl	__aeabi_i2f
 1400              	.LVL164:
 1401 006a 0746     		mov	r7, r0
 1402 006c 3068     		ldr	r0, [r6]
 1403 006e FFF7FEFF 		bl	__aeabi_i2f
 1404              	.LVL165:
 1405 0072 0446     		mov	r4, r0
 1406 0074 2868     		ldr	r0, [r5]
 1407 0076 FFF7FEFF 		bl	__aeabi_i2f
 1408              	.LVL166:
 1409 007a 4346     		mov	r3, r8
 1410 007c 3A46     		mov	r2, r7
 1411 007e 2146     		mov	r1, r4
 1412 0080 FFF7FEFF 		bl	motorDutyCycleUpdate
 1413              	.LVL167:
 1414              	.L69:
 329:dcmotor.c     ****     //The below line just traps execution here until the motion is completed
 330:dcmotor.c     ****     while ((motor1Enable == TRUE)||(motor2Enable == TRUE)){
 1415              		.loc 1 330 0 discriminator 3
 1416 0084 084B     		ldr	r3, .L72+8
 1417 0086 B3F90030 		ldrsh	r3, [r3]
 1418 008a 012B     		cmp	r3, #1
 1419 008c FAD0     		beq	.L69
 1420              		.loc 1 330 0 is_stmt 0 discriminator 2
 1421 008e 074B     		ldr	r3, .L72+12
 1422 0090 B3F90030 		ldrsh	r3, [r3]
 1423 0094 012B     		cmp	r3, #1
 1424 0096 F5D0     		beq	.L69
 331:dcmotor.c     ****     
 332:dcmotor.c     ****     }
 333:dcmotor.c     **** }
 1425              		.loc 1 333 0 is_stmt 1
 1426 0098 BDE8F081 		pop	{r4, r5, r6, r7, r8, pc}
 1427              	.L73:
 1428 009c AFF30080 		.align	3
 1429              	.L72:
 1430 00a0 E17A14AE 		.word	-1374389535
 1431 00a4 47E1BA3F 		.word	1069211975
 1432 00a8 00000000 		.word	motor1Enable
 1433 00ac 00000000 		.word	motor2Enable
ARM GAS  C:\Users\Misha\AppData\Local\Temp\ccrHJ3zm.s 			page 32


 1434 00b0 00000000 		.word	turningLeftFlag
 1435 00b4 00000000 		.word	motor1EncoderCounts
 1436 00b8 00000000 		.word	motor2EncoderCounts
 1437 00bc 00000000 		.word	M1_FD
 1438 00c0 00000000 		.word	M1_BD
 1439 00c4 00000000 		.word	M2_FD
 1440 00c8 00000000 		.word	M2_BD
 1441              		.cfi_endproc
 1442              	.LFE74:
 1443              		.size	turnLeft, .-turnLeft
 1444              		.section	.text.turnRight,"ax",%progbits
 1445              		.align	2
 1446              		.global	turnRight
 1447              		.thumb
 1448              		.thumb_func
 1449              		.type	turnRight, %function
 1450              	turnRight:
 1451              	.LFB75:
 334:dcmotor.c     **** 
 335:dcmotor.c     **** void turnRight(float amount){
 1452              		.loc 1 335 0
 1453              		.cfi_startproc
 1454              		@ args = 0, pretend = 0, frame = 0
 1455              		@ frame_needed = 0, uses_anonymous_args = 0
 1456              	.LVL168:
 1457 0000 2DE9F041 		push	{r4, r5, r6, r7, r8, lr}
 1458              		.cfi_def_cfa_offset 24
 1459              		.cfi_offset 4, -24
 1460              		.cfi_offset 5, -20
 1461              		.cfi_offset 6, -16
 1462              		.cfi_offset 7, -12
 1463              		.cfi_offset 8, -8
 1464              		.cfi_offset 14, -4
 336:dcmotor.c     ****     int counts = round(amount/DEGREES_PER_COUNT);
 1465              		.loc 1 336 0
 1466 0004 FFF7FEFF 		bl	__aeabi_f2d
 1467              	.LVL169:
 1468 0008 23A3     		adr	r3, .L78
 1469 000a D3E90023 		ldrd	r2, [r3]
 1470 000e FFF7FEFF 		bl	__aeabi_ddiv
 1471              	.LVL170:
 1472 0012 FFF7FEFF 		bl	round
 1473              	.LVL171:
 1474 0016 FFF7FEFF 		bl	__aeabi_d2iz
 1475              	.LVL172:
 337:dcmotor.c     ****     motor1Enable = TRUE;
 1476              		.loc 1 337 0
 1477 001a 0123     		movs	r3, #1
 1478 001c 204A     		ldr	r2, .L78+8
 1479 001e 1380     		strh	r3, [r2]	@ movhi
 338:dcmotor.c     ****     motor2Enable = TRUE;
 1480              		.loc 1 338 0
 1481 0020 204A     		ldr	r2, .L78+12
 1482 0022 1380     		strh	r3, [r2]	@ movhi
 339:dcmotor.c     ****     turningRightFlag = TRUE;
 1483              		.loc 1 339 0
 1484 0024 204A     		ldr	r2, .L78+16
ARM GAS  C:\Users\Misha\AppData\Local\Temp\ccrHJ3zm.s 			page 33


 1485 0026 1360     		str	r3, [r2]
 340:dcmotor.c     ****     motor1EncoderCounts = 0;
 1486              		.loc 1 340 0
 1487 0028 0024     		movs	r4, #0
 1488 002a 204B     		ldr	r3, .L78+20
 1489 002c 1C60     		str	r4, [r3]
 341:dcmotor.c     ****     motor2EncoderCounts = 0;
 1490              		.loc 1 341 0
 1491 002e 204B     		ldr	r3, .L78+24
 1492 0030 1C60     		str	r4, [r3]
 342:dcmotor.c     ****     counterInitialise(counts,counts); //Sets up counters to interrupt at right time
 1493              		.loc 1 342 0
 1494 0032 0146     		mov	r1, r0
 1495 0034 FFF7FEFF 		bl	counterInitialise
 1496              	.LVL173:
 343:dcmotor.c     ****     M1_FD = DCMOTOR_IDEAL_DUTY_CYCLE;
 1497              		.loc 1 343 0
 1498 0038 1E4D     		ldr	r5, .L78+28
 1499 003a 5023     		movs	r3, #80
 1500 003c 2B60     		str	r3, [r5]
 344:dcmotor.c     ****     M1_BD = 0;
 1501              		.loc 1 344 0
 1502 003e 1E4E     		ldr	r6, .L78+32
 1503 0040 3460     		str	r4, [r6]
 345:dcmotor.c     ****     M2_FD = 0;
 1504              		.loc 1 345 0
 1505 0042 1E4F     		ldr	r7, .L78+36
 1506 0044 3C60     		str	r4, [r7]
 346:dcmotor.c     ****     M2_BD = DCMOTOR_IDEAL_DUTY_CYCLE;
 1507              		.loc 1 346 0
 1508 0046 1E4C     		ldr	r4, .L78+40
 1509 0048 2360     		str	r3, [r4]
 347:dcmotor.c     ****     Motor_1_Encoder_Counts_Start();
 1510              		.loc 1 347 0
 1511 004a FFF7FEFF 		bl	Motor_1_Encoder_Counts_Start
 1512              	.LVL174:
 348:dcmotor.c     ****     Motor_2_Encoder_Counts_Start();
 1513              		.loc 1 348 0
 1514 004e FFF7FEFF 		bl	Motor_2_Encoder_Counts_Start
 1515              	.LVL175:
 349:dcmotor.c     ****     Drift_Check_Timer_Start();
 1516              		.loc 1 349 0
 1517 0052 FFF7FEFF 		bl	Drift_Check_Timer_Start
 1518              	.LVL176:
 350:dcmotor.c     ****     motorDutyCycleUpdate(M1_FD,M1_BD,M2_FD,M2_BD);//This gets the motors going
 1519              		.loc 1 350 0
 1520 0056 2068     		ldr	r0, [r4]
 1521 0058 FFF7FEFF 		bl	__aeabi_i2f
 1522              	.LVL177:
 1523 005c 8046     		mov	r8, r0
 1524 005e 3868     		ldr	r0, [r7]
 1525 0060 FFF7FEFF 		bl	__aeabi_i2f
 1526              	.LVL178:
 1527 0064 0746     		mov	r7, r0
 1528 0066 3068     		ldr	r0, [r6]
 1529 0068 FFF7FEFF 		bl	__aeabi_i2f
 1530              	.LVL179:
ARM GAS  C:\Users\Misha\AppData\Local\Temp\ccrHJ3zm.s 			page 34


 1531 006c 0446     		mov	r4, r0
 1532 006e 2868     		ldr	r0, [r5]
 1533 0070 FFF7FEFF 		bl	__aeabi_i2f
 1534              	.LVL180:
 1535 0074 4346     		mov	r3, r8
 1536 0076 3A46     		mov	r2, r7
 1537 0078 2146     		mov	r1, r4
 1538 007a FFF7FEFF 		bl	motorDutyCycleUpdate
 1539              	.LVL181:
 1540              	.L75:
 351:dcmotor.c     ****     //The below line just traps execution here until the motion is completed
 352:dcmotor.c     ****     while ((motor1Enable == TRUE)||(motor2Enable == TRUE)){
 1541              		.loc 1 352 0 discriminator 3
 1542 007e 084B     		ldr	r3, .L78+8
 1543 0080 B3F90030 		ldrsh	r3, [r3]
 1544 0084 012B     		cmp	r3, #1
 1545 0086 FAD0     		beq	.L75
 1546              		.loc 1 352 0 is_stmt 0 discriminator 2
 1547 0088 064B     		ldr	r3, .L78+12
 1548 008a B3F90030 		ldrsh	r3, [r3]
 1549 008e 012B     		cmp	r3, #1
 1550 0090 F5D0     		beq	.L75
 353:dcmotor.c     ****     
 354:dcmotor.c     ****     }
 355:dcmotor.c     **** }
 1551              		.loc 1 355 0 is_stmt 1
 1552 0092 BDE8F081 		pop	{r4, r5, r6, r7, r8, pc}
 1553              	.L79:
 1554 0096 00BF     		.align	3
 1555              	.L78:
 1556 0098 E17A14AE 		.word	-1374389535
 1557 009c 47E1BA3F 		.word	1069211975
 1558 00a0 00000000 		.word	motor1Enable
 1559 00a4 00000000 		.word	motor2Enable
 1560 00a8 00000000 		.word	turningRightFlag
 1561 00ac 00000000 		.word	motor1EncoderCounts
 1562 00b0 00000000 		.word	motor2EncoderCounts
 1563 00b4 00000000 		.word	M1_FD
 1564 00b8 00000000 		.word	M1_BD
 1565 00bc 00000000 		.word	M2_FD
 1566 00c0 00000000 		.word	M2_BD
 1567              		.cfi_endproc
 1568              	.LFE75:
 1569              		.size	turnRight, .-turnRight
 1570              		.section	.text.displaceLeft,"ax",%progbits
 1571              		.align	2
 1572              		.global	displaceLeft
 1573              		.thumb
 1574              		.thumb_func
 1575              		.type	displaceLeft, %function
 1576              	displaceLeft:
 1577              	.LFB76:
 356:dcmotor.c     **** 
 357:dcmotor.c     **** //The displaceLeft and displaceRight functions should let us slide left and right. 
 358:dcmotor.c     **** //We should ensure that these are only called when we are not close enough to the walls
 359:dcmotor.c     **** //to create issues otherwise we could get stuck in these functions permanently
 360:dcmotor.c     **** void displaceLeft(int amount,int degrees){
ARM GAS  C:\Users\Misha\AppData\Local\Temp\ccrHJ3zm.s 			page 35


 1578              		.loc 1 360 0
 1579              		.cfi_startproc
 1580              		@ args = 0, pretend = 0, frame = 0
 1581              		@ frame_needed = 0, uses_anonymous_args = 0
 1582              	.LVL182:
 1583 0000 2DE9F041 		push	{r4, r5, r6, r7, r8, lr}
 1584              		.cfi_def_cfa_offset 24
 1585              		.cfi_offset 4, -24
 1586              		.cfi_offset 5, -20
 1587              		.cfi_offset 6, -16
 1588              		.cfi_offset 7, -12
 1589              		.cfi_offset 8, -8
 1590              		.cfi_offset 14, -4
 1591 0004 0446     		mov	r4, r0
 1592 0006 0E46     		mov	r6, r1
 361:dcmotor.c     ****     turnRight(degrees);
 1593              		.loc 1 361 0
 1594 0008 0846     		mov	r0, r1
 1595              	.LVL183:
 1596 000a FFF7FEFF 		bl	__aeabi_i2f
 1597              	.LVL184:
 1598 000e 8046     		mov	r8, r0
 1599 0010 FFF7FEFF 		bl	turnRight
 1600              	.LVL185:
 362:dcmotor.c     ****     float temp = amount/sin((M_PI/180)*degrees);
 1601              		.loc 1 362 0
 1602 0014 2046     		mov	r0, r4
 1603 0016 FFF7FEFF 		bl	__aeabi_i2d
 1604              	.LVL186:
 1605 001a 0446     		mov	r4, r0
 1606              	.LVL187:
 1607 001c 0D46     		mov	r5, r1
 1608 001e 3046     		mov	r0, r6
 1609 0020 FFF7FEFF 		bl	__aeabi_i2d
 1610              	.LVL188:
 1611 0024 12A3     		adr	r3, .L82
 1612 0026 D3E90023 		ldrd	r2, [r3]
 1613 002a FFF7FEFF 		bl	__aeabi_dmul
 1614              	.LVL189:
 1615 002e 0646     		mov	r6, r0
 1616              	.LVL190:
 1617 0030 0F46     		mov	r7, r1
 1618 0032 FFF7FEFF 		bl	sin
 1619              	.LVL191:
 1620 0036 0246     		mov	r2, r0
 1621 0038 0B46     		mov	r3, r1
 1622 003a 2046     		mov	r0, r4
 1623 003c 2946     		mov	r1, r5
 1624 003e FFF7FEFF 		bl	__aeabi_ddiv
 1625              	.LVL192:
 363:dcmotor.c     ****     moveBackward(amount/sin((M_PI/180)*degrees));
 1626              		.loc 1 363 0
 1627 0042 FFF7FEFF 		bl	__aeabi_d2f
 1628              	.LVL193:
 1629 0046 FFF7FEFF 		bl	moveBackward
 1630              	.LVL194:
 364:dcmotor.c     ****     turnLeft(degrees);
ARM GAS  C:\Users\Misha\AppData\Local\Temp\ccrHJ3zm.s 			page 36


 1631              		.loc 1 364 0
 1632 004a 4046     		mov	r0, r8
 1633 004c FFF7FEFF 		bl	turnLeft
 1634              	.LVL195:
 365:dcmotor.c     ****     temp = amount/tan((M_PI/180)*degrees);
 1635              		.loc 1 365 0
 1636 0050 3046     		mov	r0, r6
 1637 0052 3946     		mov	r1, r7
 1638 0054 FFF7FEFF 		bl	tan
 1639              	.LVL196:
 1640 0058 0246     		mov	r2, r0
 1641 005a 0B46     		mov	r3, r1
 1642 005c 2046     		mov	r0, r4
 1643 005e 2946     		mov	r1, r5
 1644 0060 FFF7FEFF 		bl	__aeabi_ddiv
 1645              	.LVL197:
 366:dcmotor.c     ****     moveForward(amount/tan((M_PI/180)*degrees));
 1646              		.loc 1 366 0
 1647 0064 FFF7FEFF 		bl	__aeabi_d2f
 1648              	.LVL198:
 1649 0068 FFF7FEFF 		bl	moveForward
 1650              	.LVL199:
 1651 006c BDE8F081 		pop	{r4, r5, r6, r7, r8, pc}
 1652              	.L83:
 1653              		.align	3
 1654              	.L82:
 1655 0070 399D52A2 		.word	-1571644103
 1656 0074 46DF913F 		.word	1066524486
 1657              		.cfi_endproc
 1658              	.LFE76:
 1659              		.size	displaceLeft, .-displaceLeft
 1660              		.section	.text.displaceRight,"ax",%progbits
 1661              		.align	2
 1662              		.global	displaceRight
 1663              		.thumb
 1664              		.thumb_func
 1665              		.type	displaceRight, %function
 1666              	displaceRight:
 1667              	.LFB77:
 367:dcmotor.c     **** }
 368:dcmotor.c     **** 
 369:dcmotor.c     **** //The displaceLeft and displaceRight functions should let us slide left and right. 
 370:dcmotor.c     **** //We should ensure that these are only called when we are not close enough to the walls
 371:dcmotor.c     **** //to create issues otherwise we could get stuck in these functions permanently
 372:dcmotor.c     **** void displaceRight(int amount,int degrees){
 1668              		.loc 1 372 0
 1669              		.cfi_startproc
 1670              		@ args = 0, pretend = 0, frame = 0
 1671              		@ frame_needed = 0, uses_anonymous_args = 0
 1672              	.LVL200:
 1673 0000 2DE9F041 		push	{r4, r5, r6, r7, r8, lr}
 1674              		.cfi_def_cfa_offset 24
 1675              		.cfi_offset 4, -24
 1676              		.cfi_offset 5, -20
 1677              		.cfi_offset 6, -16
 1678              		.cfi_offset 7, -12
 1679              		.cfi_offset 8, -8
ARM GAS  C:\Users\Misha\AppData\Local\Temp\ccrHJ3zm.s 			page 37


 1680              		.cfi_offset 14, -4
 1681 0004 0446     		mov	r4, r0
 1682 0006 0E46     		mov	r6, r1
 373:dcmotor.c     ****     turnLeft(degrees);
 1683              		.loc 1 373 0
 1684 0008 0846     		mov	r0, r1
 1685              	.LVL201:
 1686 000a FFF7FEFF 		bl	__aeabi_i2f
 1687              	.LVL202:
 1688 000e 8046     		mov	r8, r0
 1689 0010 FFF7FEFF 		bl	turnLeft
 1690              	.LVL203:
 374:dcmotor.c     ****     float temp = amount/sin((M_PI/180)*degrees);
 1691              		.loc 1 374 0
 1692 0014 2046     		mov	r0, r4
 1693 0016 FFF7FEFF 		bl	__aeabi_i2d
 1694              	.LVL204:
 1695 001a 0446     		mov	r4, r0
 1696              	.LVL205:
 1697 001c 0D46     		mov	r5, r1
 1698 001e 3046     		mov	r0, r6
 1699 0020 FFF7FEFF 		bl	__aeabi_i2d
 1700              	.LVL206:
 1701 0024 12A3     		adr	r3, .L86
 1702 0026 D3E90023 		ldrd	r2, [r3]
 1703 002a FFF7FEFF 		bl	__aeabi_dmul
 1704              	.LVL207:
 1705 002e 0646     		mov	r6, r0
 1706              	.LVL208:
 1707 0030 0F46     		mov	r7, r1
 1708 0032 FFF7FEFF 		bl	sin
 1709              	.LVL209:
 1710 0036 0246     		mov	r2, r0
 1711 0038 0B46     		mov	r3, r1
 1712 003a 2046     		mov	r0, r4
 1713 003c 2946     		mov	r1, r5
 1714 003e FFF7FEFF 		bl	__aeabi_ddiv
 1715              	.LVL210:
 375:dcmotor.c     ****     moveBackward(amount/sin((M_PI/180)*degrees));
 1716              		.loc 1 375 0
 1717 0042 FFF7FEFF 		bl	__aeabi_d2f
 1718              	.LVL211:
 1719 0046 FFF7FEFF 		bl	moveBackward
 1720              	.LVL212:
 376:dcmotor.c     ****     turnRight(degrees);
 1721              		.loc 1 376 0
 1722 004a 4046     		mov	r0, r8
 1723 004c FFF7FEFF 		bl	turnRight
 1724              	.LVL213:
 377:dcmotor.c     ****     temp = amount/tan((M_PI/180)*degrees);
 1725              		.loc 1 377 0
 1726 0050 3046     		mov	r0, r6
 1727 0052 3946     		mov	r1, r7
 1728 0054 FFF7FEFF 		bl	tan
 1729              	.LVL214:
 1730 0058 0246     		mov	r2, r0
 1731 005a 0B46     		mov	r3, r1
ARM GAS  C:\Users\Misha\AppData\Local\Temp\ccrHJ3zm.s 			page 38


 1732 005c 2046     		mov	r0, r4
 1733 005e 2946     		mov	r1, r5
 1734 0060 FFF7FEFF 		bl	__aeabi_ddiv
 1735              	.LVL215:
 378:dcmotor.c     ****     moveForward(amount/tan((M_PI/180)*degrees));
 1736              		.loc 1 378 0
 1737 0064 FFF7FEFF 		bl	__aeabi_d2f
 1738              	.LVL216:
 1739 0068 FFF7FEFF 		bl	moveForward
 1740              	.LVL217:
 1741 006c BDE8F081 		pop	{r4, r5, r6, r7, r8, pc}
 1742              	.L87:
 1743              		.align	3
 1744              	.L86:
 1745 0070 399D52A2 		.word	-1571644103
 1746 0074 46DF913F 		.word	1066524486
 1747              		.cfi_endproc
 1748              	.LFE77:
 1749              		.size	displaceRight, .-displaceRight
 1750              		.global	__aeabi_fcmplt
 1751              		.global	__aeabi_fsub
 1752              		.section	.text.nextMotion,"ax",%progbits
 1753              		.align	2
 1754              		.global	nextMotion
 1755              		.thumb
 1756              		.thumb_func
 1757              		.type	nextMotion, %function
 1758              	nextMotion:
 1759              	.LFB78:
 379:dcmotor.c     **** }
 380:dcmotor.c     **** 
 381:dcmotor.c     **** //Looks at the current position, desired position and the location of the block, 
 382:dcmotor.c     **** //and plans a route, executing the next motion in that route if the main program 
 383:dcmotor.c     **** //permits (via having the moveNow flag set to TRUE)
 384:dcmotor.c     **** void nextMotion(int * desiredPosition){
 1760              		.loc 1 384 0
 1761              		.cfi_startproc
 1762              		@ args = 0, pretend = 0, frame = 0
 1763              		@ frame_needed = 0, uses_anonymous_args = 0
 1764              	.LVL218:
 1765 0000 38B5     		push	{r3, r4, r5, lr}
 1766              		.cfi_def_cfa_offset 16
 1767              		.cfi_offset 3, -16
 1768              		.cfi_offset 4, -12
 1769              		.cfi_offset 5, -8
 1770              		.cfi_offset 14, -4
 1771 0002 0546     		mov	r5, r0
 385:dcmotor.c     ****     //Check that we have already acquired the block's location (by checking we aren't in 
 386:dcmotor.c     ****     //the scanning for block state)
 387:dcmotor.c     ****     //Check what motions are available to us from the flags
 388:dcmotor.c     ****     //Check what motions are available to us from our location compared to obstacle
 389:dcmotor.c     ****     if (block_location[0] < currentPosition[0] < block_location[1]){
 1772              		.loc 1 389 0
 1773 0004 154B     		ldr	r3, .L100
 1774 0006 1C68     		ldr	r4, [r3]	@ float
 1775 0008 2146     		mov	r1, r4
 1776 000a 154B     		ldr	r3, .L100+4
ARM GAS  C:\Users\Misha\AppData\Local\Temp\ccrHJ3zm.s 			page 39


 1777 000c 1868     		ldr	r0, [r3]	@ float
 1778              	.LVL219:
 1779 000e FFF7FEFF 		bl	__aeabi_fcmplt
 1780              	.LVL220:
 1781 0012 10B1     		cbz	r0, .L98
 1782 0014 4FF07E50 		mov	r0, #1065353216
 1783 0018 00E0     		b	.L89
 1784              	.L98:
 1785 001a 0020     		movs	r0, #0
 1786              	.L89:
 1787              		.loc 1 389 0 is_stmt 0 discriminator 4
 1788 001c 104B     		ldr	r3, .L100+4
 1789 001e 5968     		ldr	r1, [r3, #4]	@ float
 1790 0020 FFF7FEFF 		bl	__aeabi_fcmplt
 1791              	.LVL221:
 1792 0024 C0B1     		cbz	r0, .L88
 1793              	.LBB3:
 390:dcmotor.c     ****         float xToMove = desiredPosition[0] - currentPosition[0];
 1794              		.loc 1 390 0 is_stmt 1
 1795 0026 2868     		ldr	r0, [r5]
 1796 0028 FFF7FEFF 		bl	__aeabi_i2f
 1797              	.LVL222:
 1798 002c 2146     		mov	r1, r4
 1799 002e FFF7FEFF 		bl	__aeabi_fsub
 1800              	.LVL223:
 391:dcmotor.c     ****         if ((xToMove <0) && (moveLeftAllowed == TRUE)){
 1801              		.loc 1 391 0
 1802 0032 0021     		movs	r1, #0
 1803 0034 FFF7FEFF 		bl	__aeabi_fcmplt
 1804              	.LVL224:
 1805 0038 70B1     		cbz	r0, .L88
 1806              		.loc 1 391 0 is_stmt 0 discriminator 1
 1807 003a 0A4B     		ldr	r3, .L100+8
 1808 003c B3F90030 		ldrsh	r3, [r3]
 1809 0040 012B     		cmp	r3, #1
 1810 0042 09D1     		bne	.L88
 392:dcmotor.c     ****             if (currentOrientation != 180){
 1811              		.loc 1 392 0 is_stmt 1
 1812 0044 084B     		ldr	r3, .L100+12
 1813 0046 1868     		ldr	r0, [r3]
 1814 0048 B428     		cmp	r0, #180
 1815 004a 05D0     		beq	.L88
 393:dcmotor.c     ****                 turnLeft(180 - currentOrientation);
 1816              		.loc 1 393 0
 1817 004c C0F1B400 		rsb	r0, r0, #180
 1818 0050 FFF7FEFF 		bl	__aeabi_i2f
 1819              	.LVL225:
 1820 0054 FFF7FEFF 		bl	turnLeft
 1821              	.LVL226:
 1822              	.L88:
 1823 0058 38BD     		pop	{r3, r4, r5, pc}
 1824              	.LVL227:
 1825              	.L101:
 1826 005a 00BF     		.align	2
 1827              	.L100:
 1828 005c 00000000 		.word	currentPosition
 1829 0060 00000000 		.word	block_location
ARM GAS  C:\Users\Misha\AppData\Local\Temp\ccrHJ3zm.s 			page 40


 1830 0064 00000000 		.word	moveLeftAllowed
 1831 0068 00000000 		.word	currentOrientation
 1832              	.LBE3:
 1833              		.cfi_endproc
 1834              	.LFE78:
 1835              		.size	nextMotion, .-nextMotion
 1836              		.section	.text.stopMotor1AndUpdate,"ax",%progbits
 1837              		.align	2
 1838              		.global	stopMotor1AndUpdate
 1839              		.thumb
 1840              		.thumb_func
 1841              		.type	stopMotor1AndUpdate, %function
 1842              	stopMotor1AndUpdate:
 1843              	.LFB79:
 394:dcmotor.c     ****             }
 395:dcmotor.c     ****         }
 396:dcmotor.c     ****     }
 397:dcmotor.c     **** }
 398:dcmotor.c     **** 
 399:dcmotor.c     **** void stopMotor1AndUpdate(void){
 1844              		.loc 1 399 0
 1845              		.cfi_startproc
 1846              		@ args = 0, pretend = 0, frame = 0
 1847              		@ frame_needed = 0, uses_anonymous_args = 0
 1848 0000 10B5     		push	{r4, lr}
 1849              		.cfi_def_cfa_offset 8
 1850              		.cfi_offset 4, -8
 1851              		.cfi_offset 14, -4
 400:dcmotor.c     ****     Motor_1_driver_WriteCompare1(0);
 1852              		.loc 1 400 0
 1853 0002 0020     		movs	r0, #0
 1854 0004 FFF7FEFF 		bl	Motor_1_driver_WriteCompare1
 1855              	.LVL228:
 401:dcmotor.c     ****     Motor_1_driver_WriteCompare2(0);
 1856              		.loc 1 401 0
 1857 0008 0020     		movs	r0, #0
 1858 000a FFF7FEFF 		bl	Motor_1_driver_WriteCompare2
 1859              	.LVL229:
 402:dcmotor.c     ****     Motor_1_Encoder_Counts_Stop();
 1860              		.loc 1 402 0
 1861 000e FFF7FEFF 		bl	Motor_1_Encoder_Counts_Stop
 1862              	.LVL230:
 403:dcmotor.c     ****     M1_FD = 0;
 1863              		.loc 1 403 0
 1864 0012 0024     		movs	r4, #0
 1865 0014 064B     		ldr	r3, .L104
 1866 0016 1C60     		str	r4, [r3]
 404:dcmotor.c     ****     M1_BD = 0;
 1867              		.loc 1 404 0
 1868 0018 064B     		ldr	r3, .L104+4
 1869 001a 1C60     		str	r4, [r3]
 405:dcmotor.c     ****     UART_1_PutString("Counter 1 interrupt \n");
 1870              		.loc 1 405 0
 1871 001c 0648     		ldr	r0, .L104+8
 1872 001e FFF7FEFF 		bl	UART_1_PutString
 1873              	.LVL231:
 406:dcmotor.c     ****     motor1Enable = FALSE;
ARM GAS  C:\Users\Misha\AppData\Local\Temp\ccrHJ3zm.s 			page 41


 1874              		.loc 1 406 0
 1875 0022 064B     		ldr	r3, .L104+12
 1876 0024 1C80     		strh	r4, [r3]	@ movhi
 407:dcmotor.c     ****     stopMotion();
 1877              		.loc 1 407 0
 1878 0026 FFF7FEFF 		bl	stopMotion
 1879              	.LVL232:
 408:dcmotor.c     ****     Motor_1_Encoder_Counts_ReadStatusRegister(); //Clears the interrupt
 1880              		.loc 1 408 0
 1881 002a FFF7FEFF 		bl	Motor_1_Encoder_Counts_ReadStatusRegister
 1882              	.LVL233:
 1883 002e 10BD     		pop	{r4, pc}
 1884              	.L105:
 1885              		.align	2
 1886              	.L104:
 1887 0030 00000000 		.word	M1_FD
 1888 0034 00000000 		.word	M1_BD
 1889 0038 00000000 		.word	.LC0
 1890 003c 00000000 		.word	motor1Enable
 1891              		.cfi_endproc
 1892              	.LFE79:
 1893              		.size	stopMotor1AndUpdate, .-stopMotor1AndUpdate
 1894              		.section	.text.stopMotor2AndUpdate,"ax",%progbits
 1895              		.align	2
 1896              		.global	stopMotor2AndUpdate
 1897              		.thumb
 1898              		.thumb_func
 1899              		.type	stopMotor2AndUpdate, %function
 1900              	stopMotor2AndUpdate:
 1901              	.LFB80:
 409:dcmotor.c     **** }
 410:dcmotor.c     **** 
 411:dcmotor.c     **** void stopMotor2AndUpdate(void){
 1902              		.loc 1 411 0
 1903              		.cfi_startproc
 1904              		@ args = 0, pretend = 0, frame = 0
 1905              		@ frame_needed = 0, uses_anonymous_args = 0
 1906 0000 10B5     		push	{r4, lr}
 1907              		.cfi_def_cfa_offset 8
 1908              		.cfi_offset 4, -8
 1909              		.cfi_offset 14, -4
 412:dcmotor.c     ****     Motor_2_driver_WriteCompare1(0);
 1910              		.loc 1 412 0
 1911 0002 0020     		movs	r0, #0
 1912 0004 FFF7FEFF 		bl	Motor_2_driver_WriteCompare1
 1913              	.LVL234:
 413:dcmotor.c     ****     Motor_2_driver_WriteCompare2(0);
 1914              		.loc 1 413 0
 1915 0008 0020     		movs	r0, #0
 1916 000a FFF7FEFF 		bl	Motor_2_driver_WriteCompare2
 1917              	.LVL235:
 414:dcmotor.c     ****     Motor_2_Encoder_Counts_Stop();
 1918              		.loc 1 414 0
 1919 000e FFF7FEFF 		bl	Motor_2_Encoder_Counts_Stop
 1920              	.LVL236:
 415:dcmotor.c     ****     M2_FD = 0;
 1921              		.loc 1 415 0
ARM GAS  C:\Users\Misha\AppData\Local\Temp\ccrHJ3zm.s 			page 42


 1922 0012 0024     		movs	r4, #0
 1923 0014 064B     		ldr	r3, .L108
 1924 0016 1C60     		str	r4, [r3]
 416:dcmotor.c     ****     M2_BD = 0;
 1925              		.loc 1 416 0
 1926 0018 064B     		ldr	r3, .L108+4
 1927 001a 1C60     		str	r4, [r3]
 417:dcmotor.c     ****     UART_1_PutString("Counter 2 interrupt \n");
 1928              		.loc 1 417 0
 1929 001c 0648     		ldr	r0, .L108+8
 1930 001e FFF7FEFF 		bl	UART_1_PutString
 1931              	.LVL237:
 418:dcmotor.c     ****     motor2Enable = FALSE;   
 1932              		.loc 1 418 0
 1933 0022 064B     		ldr	r3, .L108+12
 1934 0024 1C80     		strh	r4, [r3]	@ movhi
 419:dcmotor.c     ****     stopMotion();
 1935              		.loc 1 419 0
 1936 0026 FFF7FEFF 		bl	stopMotion
 1937              	.LVL238:
 420:dcmotor.c     ****     Motor_2_Encoder_Counts_ReadStatusRegister(); //Clears the interrupt
 1938              		.loc 1 420 0
 1939 002a FFF7FEFF 		bl	Motor_2_Encoder_Counts_ReadStatusRegister
 1940              	.LVL239:
 1941 002e 10BD     		pop	{r4, pc}
 1942              	.L109:
 1943              		.align	2
 1944              	.L108:
 1945 0030 00000000 		.word	M2_FD
 1946 0034 00000000 		.word	M2_BD
 1947 0038 18000000 		.word	.LC1
 1948 003c 00000000 		.word	motor2Enable
 1949              		.cfi_endproc
 1950              	.LFE80:
 1951              		.size	stopMotor2AndUpdate, .-stopMotor2AndUpdate
 1952              		.comm	puckPileLocation,4,4
 1953              		.comm	block_edge_location,16,4
 1954              		.comm	sweeping,4,4
 1955              		.comm	puckRackOffsetsFromWest,20,4
 1956              		.comm	puckRackColours,20,4
 1957              		.comm	currentPuckRackScanningIndex,4,4
 1958              		.comm	driveStraightEnable,4,4
 1959              		.section	.rodata.str1.4,"aMS",%progbits,1
 1960              		.align	2
 1961              	.LC0:
 1962 0000 436F756E 		.ascii	"Counter 1 interrupt \012\000"
 1962      74657220 
 1962      3120696E 
 1962      74657272 
 1962      75707420 
 1963 0016 0000     		.space	2
 1964              	.LC1:
 1965 0018 436F756E 		.ascii	"Counter 2 interrupt \012\000"
 1965      74657220 
 1965      3220696E 
 1965      74657272 
 1965      75707420 
ARM GAS  C:\Users\Misha\AppData\Local\Temp\ccrHJ3zm.s 			page 43


 1966              		.text
 1967              	.Letext0:
 1968              		.file 2 "c:\\program files (x86)\\cypress\\psoc creator\\4.2\\psoc creator\\import\\gnu\\arm\\5.4.
 1969              		.file 3 "c:\\program files (x86)\\cypress\\psoc creator\\4.2\\psoc creator\\import\\gnu\\arm\\5.4.
 1970              		.file 4 "Generated_Source\\PSoC5/core_cm3.h"
 1971              		.file 5 "main.h"
 1972              		.file 6 "c:\\program files (x86)\\cypress\\psoc creator\\4.2\\psoc creator\\import\\gnu\\arm\\5.4.
 1973              		.file 7 "Generated_Source\\PSoC5/Motor_1_Encoder_Counts.h"
 1974              		.file 8 "Generated_Source\\PSoC5/Motor_2_Encoder_Counts.h"
 1975              		.file 9 "Generated_Source\\PSoC5/Motor_1_driver.h"
 1976              		.file 10 "Generated_Source\\PSoC5/Motor_2_driver.h"
 1977              		.file 11 "Generated_Source\\PSoC5/Drift_Check_Timer.h"
 1978              		.file 12 "Generated_Source\\PSoC5/UART_1.h"