ARM GAS  C:\Users\Misha\AppData\Local\Temp\ccMQJMN8.s 			page 1


   1              		.syntax unified
   2              		.cpu cortex-m3
   3              		.fpu softvfp
   4              		.eabi_attribute 20, 1
   5              		.eabi_attribute 21, 1
   6              		.eabi_attribute 23, 3
   7              		.eabi_attribute 24, 1
   8              		.eabi_attribute 25, 1
   9              		.eabi_attribute 26, 1
  10              		.eabi_attribute 30, 1
  11              		.eabi_attribute 34, 1
  12              		.eabi_attribute 18, 4
  13              		.thumb
  14              		.syntax unified
  15              		.file	"debugging.c"
  16              		.text
  17              	.Ltext0:
  18              		.cfi_sections	.debug_frame
  19              		.section	.text.ultimateDebugging,"ax",%progbits
  20              		.align	2
  21              		.global	ultimateDebugging
  22              		.thumb
  23              		.thumb_func
  24              		.type	ultimateDebugging, %function
  25              	ultimateDebugging:
  26              	.LFB64:
  27              		.file 1 "debugging.c"
   1:debugging.c   **** 
   2:debugging.c   **** /* ========================================
   3:debugging.c   ****  *
   4:debugging.c   ****  * Copyright Group 17, 2019
   5:debugging.c   ****  * All Rights Reserved
   6:debugging.c   ****  * UNPUBLISHED, LICENSED SOFTWARE.
   7:debugging.c   ****  *
   8:debugging.c   ****  * CONFIDENTIAL AND PROPRIETAR INFORMATION
   9:debugging.c   ****  * WHICH IS THE PROPERTY OF Blayke, Misha, Nidhin.
  10:debugging.c   ****  *
  11:debugging.c   ****  * ========================================
  12:debugging.c   **** */
  13:debugging.c   **** 
  14:debugging.c   **** // * PSOC LIBRARY * //
  15:debugging.c   **** #include "project.h"
  16:debugging.c   **** 
  17:debugging.c   **** // * C LIBRARIES * // 
  18:debugging.c   **** #include <stdlib.h>
  19:debugging.c   **** #include <stdio.h>
  20:debugging.c   **** #include <math.h>
  21:debugging.c   **** 
  22:debugging.c   **** // * OUR LIBRARIES * //
  23:debugging.c   **** #include "main.h"
  24:debugging.c   **** #include "colour.h"
  25:debugging.c   **** #include "ultrasonic.h" 
  26:debugging.c   **** #include "servo.h"
  27:debugging.c   **** #include "motor.h"
  28:debugging.c   **** #include "customMath.h"
  29:debugging.c   **** #include "navigation.h"
  30:debugging.c   **** #include "debugging.h"
ARM GAS  C:\Users\Misha\AppData\Local\Temp\ccMQJMN8.s 			page 2


  31:debugging.c   **** 
  32:debugging.c   **** // Set which debugging you want to do:
  33:debugging.c   **** int colour_calibration = FALSE;             // Do we want to calibrate the sensor? 
  34:debugging.c   **** int servo_testing = FALSE;                  // Do the servos need to be tested?      
  35:debugging.c   **** int motor_testing = TRUE;
  36:debugging.c   **** int ultrasonic_testing = FALSE;  
  37:debugging.c   **** 
  38:debugging.c   **** 
  39:debugging.c   **** void ultimateDebugging(void){
  28              		.loc 1 39 0
  29              		.cfi_startproc
  30              		@ args = 0, pretend = 0, frame = 0
  31              		@ frame_needed = 0, uses_anonymous_args = 0
  32 0000 38B5     		push	{r3, r4, r5, lr}
  33              		.cfi_def_cfa_offset 16
  34              		.cfi_offset 3, -16
  35              		.cfi_offset 4, -12
  36              		.cfi_offset 5, -8
  37              		.cfi_offset 14, -4
  40:debugging.c   ****     // Colour Calibration: 
  41:debugging.c   ****         if (colour_calibration)
  38              		.loc 1 41 0
  39 0002 384B     		ldr	r3, .L18
  40 0004 1B68     		ldr	r3, [r3]
  41 0006 6BB3     		cbz	r3, .L2
  42 0008 0023     		movs	r3, #0
  43              	.L8:
  44              	.LVL0:
  45              	.LBB2:
  42:debugging.c   ****         {
  43:debugging.c   ****             int lock = FALSE;   
  44:debugging.c   ****             do 
  45:debugging.c   ****                 {   
  46:debugging.c   ****                     if (lock == FALSE) 
  46              		.loc 1 46 0
  47 000a 4BBB     		cbnz	r3, .L3
  47:debugging.c   ****                     {
  48:debugging.c   ****                         
  49:debugging.c   ****                         control_photodiode_Write(CLAW_SENSING); 
  48              		.loc 1 49 0
  49 000c 0120     		movs	r0, #1
  50 000e FFF7FEFF 		bl	control_photodiode_Write
  51              	.LVL1:
  50:debugging.c   ****                         changeHeightToPuck(0, NEITHER);
  52              		.loc 1 50 0
  53 0012 0221     		movs	r1, #2
  54 0014 0020     		movs	r0, #0
  55 0016 FFF7FEFF 		bl	changeHeightToPuck
  56              	.LVL2:
  57              	.LBB3:
  51:debugging.c   ****                         
  52:debugging.c   ****                         for (int i = 0; i < 4; i++) 
  58              		.loc 1 52 0
  59 001a 0024     		movs	r4, #0
  60 001c 07E0     		b	.L4
  61              	.LVL3:
  62              	.L5:
ARM GAS  C:\Users\Misha\AppData\Local\Temp\ccMQJMN8.s 			page 3


  53:debugging.c   ****                         {
  54:debugging.c   ****                             control_led_Write(i);
  63              		.loc 1 54 0 discriminator 3
  64 001e E0B2     		uxtb	r0, r4
  65 0020 FFF7FEFF 		bl	control_led_Write
  66              	.LVL4:
  55:debugging.c   ****                             CyDelay(500);
  67              		.loc 1 55 0 discriminator 3
  68 0024 4FF4FA70 		mov	r0, #500
  69 0028 FFF7FEFF 		bl	CyDelay
  70              	.LVL5:
  52:debugging.c   ****                         {
  71              		.loc 1 52 0 discriminator 3
  72 002c 0134     		adds	r4, r4, #1
  73              	.LVL6:
  74              	.L4:
  52:debugging.c   ****                         {
  75              		.loc 1 52 0 is_stmt 0 discriminator 1
  76 002e 032C     		cmp	r4, #3
  77 0030 F5DD     		ble	.L5
  78              	.LBE3:
  56:debugging.c   ****                         }
  57:debugging.c   **** 
  58:debugging.c   ****                         UART_1_PutString("Count \t BLANK \t RED \t GREEN \t BLUE \t \n");
  79              		.loc 1 58 0 is_stmt 1
  80 0032 2D48     		ldr	r0, .L18+4
  81 0034 FFF7FEFF 		bl	UART_1_PutString
  82              	.LVL7:
  83              	.LBB4:
  59:debugging.c   ****                         for (int i = 0; i < 50; i++)
  84              		.loc 1 59 0
  85 0038 0024     		movs	r4, #0
  86              	.LVL8:
  87 003a 0EE0     		b	.L6
  88              	.LVL9:
  89              	.L7:
  60:debugging.c   ****                         {
  61:debugging.c   ****                         sprintf(output, "%d \t", i);
  90              		.loc 1 61 0 discriminator 3
  91 003c 2B4D     		ldr	r5, .L18+8
  92 003e 2246     		mov	r2, r4
  93 0040 2B49     		ldr	r1, .L18+12
  94 0042 2846     		mov	r0, r5
  95 0044 FFF7FEFF 		bl	sprintf
  96              	.LVL10:
  62:debugging.c   ****                         UART_1_PutString(output);
  97              		.loc 1 62 0 discriminator 3
  98 0048 2846     		mov	r0, r5
  99 004a FFF7FEFF 		bl	UART_1_PutString
 100              	.LVL11:
  63:debugging.c   ****                         colourSensingCalibration(); 
 101              		.loc 1 63 0 discriminator 3
 102 004e FFF7FEFF 		bl	colourSensingCalibration
 103              	.LVL12:
  64:debugging.c   ****                         UART_1_PutString("\n");
 104              		.loc 1 64 0 discriminator 3
 105 0052 2848     		ldr	r0, .L18+16
ARM GAS  C:\Users\Misha\AppData\Local\Temp\ccMQJMN8.s 			page 4


 106 0054 FFF7FEFF 		bl	UART_1_PutString
 107              	.LVL13:
  59:debugging.c   ****                         {
 108              		.loc 1 59 0 discriminator 3
 109 0058 0134     		adds	r4, r4, #1
 110              	.LVL14:
 111              	.L6:
  59:debugging.c   ****                         {
 112              		.loc 1 59 0 is_stmt 0 discriminator 1
 113 005a 312C     		cmp	r4, #49
 114 005c EEDD     		ble	.L7
 115              	.LBE4:
  65:debugging.c   ****                         }         
  66:debugging.c   ****                         lock = TRUE;    
 116              		.loc 1 66 0 is_stmt 1
 117 005e 0123     		movs	r3, #1
 118              	.LVL15:
 119              	.L3:
  67:debugging.c   ****                     }
  68:debugging.c   ****             } while (lock == TRUE);    
 120              		.loc 1 68 0
 121 0060 002B     		cmp	r3, #0
 122 0062 D2D1     		bne	.L8
 123              	.LVL16:
 124              	.L2:
 125              	.LBE2:
  69:debugging.c   ****         }
  70:debugging.c   ****         
  71:debugging.c   ****         // Servo Testing:
  72:debugging.c   ****         if (servo_testing) 
 126              		.loc 1 72 0
 127 0064 1F4B     		ldr	r3, .L18
 128 0066 5B68     		ldr	r3, [r3, #4]
 129 0068 3BB1     		cbz	r3, .L9
 130 006a 0023     		movs	r3, #0
 131              	.L11:
 132              	.LVL17:
 133              	.LBB5:
  73:debugging.c   ****         {
  74:debugging.c   ****             int lock = FALSE;
  75:debugging.c   ****             do 
  76:debugging.c   ****                 {   
  77:debugging.c   ****                     if (lock == FALSE) 
 134              		.loc 1 77 0
 135 006c 1BB9     		cbnz	r3, .L10
  78:debugging.c   ****                     {
  79:debugging.c   ****                         UART_1_PutString("Servo Testing: ");
 136              		.loc 1 79 0
 137 006e 2248     		ldr	r0, .L18+20
 138 0070 FFF7FEFF 		bl	UART_1_PutString
 139              	.LVL18:
  80:debugging.c   ****                         
  81:debugging.c   ****                         //armMoving();
  82:debugging.c   ****                         
  83:debugging.c   ****                         /*
  84:debugging.c   ****                         changeHeightToPuck(GROUND, NEITHER);
  85:debugging.c   ****                         CyDelay(1000);
ARM GAS  C:\Users\Misha\AppData\Local\Temp\ccMQJMN8.s 			page 5


  86:debugging.c   ****                         changeHeightToPuck(ABOVE_1_PUCK, NEITHER);
  87:debugging.c   ****                         CyDelay(1000);
  88:debugging.c   ****                         changeHeightToPuck(ABOVE_2_PUCK, NEITHER);
  89:debugging.c   ****                         CyDelay(1000);
  90:debugging.c   ****                         changeHeightToPuck(ABOVE_3_PUCK, NEITHER);
  91:debugging.c   ****                         CyDelay(1000);
  92:debugging.c   ****                         */
  93:debugging.c   ****                         //for(int i = 0; i < 4; i++)
  94:debugging.c   ****                         //{
  95:debugging.c   ****                         //    changeHeightToPuck(i, NEITHER);
  96:debugging.c   ****                         //    CyDelay(1000);
  97:debugging.c   ****                         //}
  98:debugging.c   ****                         
  99:debugging.c   ****                   
 100:debugging.c   ****                         //armClose();
 101:debugging.c   ****                         //CyDelay(2000);
 102:debugging.c   ****                         //armOpen();
 103:debugging.c   ****                         //CyDelay(2000);
 104:debugging.c   ****                         
 105:debugging.c   ****                         lock = TRUE;    
 140              		.loc 1 105 0
 141 0074 0123     		movs	r3, #1
 142              	.LVL19:
 143              	.L10:
 106:debugging.c   ****                     }
 107:debugging.c   ****             } while (lock == TRUE);    
 144              		.loc 1 107 0
 145 0076 002B     		cmp	r3, #0
 146 0078 F8D1     		bne	.L11
 147              	.LVL20:
 148              	.L9:
 149              	.LBE5:
 108:debugging.c   ****         }    
 109:debugging.c   ****                 
 110:debugging.c   ****         // Motor Testing: 
 111:debugging.c   ****         if (motor_testing)
 150              		.loc 1 111 0
 151 007a 204B     		ldr	r3, .L18+24
 152 007c 1B68     		ldr	r3, [r3]
 153 007e 7BB1     		cbz	r3, .L12
 154 0080 0023     		movs	r3, #0
 155              	.L14:
 156              	.LVL21:
 157              	.LBB6:
 112:debugging.c   ****         {
 113:debugging.c   ****             int lock = FALSE;
 114:debugging.c   ****             do 
 115:debugging.c   ****                 {   
 116:debugging.c   ****                     if (lock == FALSE) 
 158              		.loc 1 116 0
 159 0082 5BB9     		cbnz	r3, .L13
 160              	.LBB7:
 117:debugging.c   ****                     {
 118:debugging.c   ****                         UART_1_PutString("Motor Testing: \n");
 161              		.loc 1 118 0
 162 0084 1E48     		ldr	r0, .L18+28
 163 0086 FFF7FEFF 		bl	UART_1_PutString
ARM GAS  C:\Users\Misha\AppData\Local\Temp\ccMQJMN8.s 			page 6


 164              	.LVL22:
 119:debugging.c   ****                         moveSwivel(360, SPEED, TRUE);
 165              		.loc 1 119 0
 166 008a 0122     		movs	r2, #1
 167 008c C821     		movs	r1, #200
 168 008e 4FF4B470 		mov	r0, #360
 169 0092 FFF7FEFF 		bl	moveSwivel
 170              	.LVL23:
 120:debugging.c   ****                       
 121:debugging.c   ****                         //moveForwardThenBackward(200, LESS_THAN, FRONT_MIDDLE, SPEED_LOW, TRUE);
 122:debugging.c   ****                         //translateUntil(150, LEFT, GREATER_THAN, SIDE_RIGHT, SPEED);
 123:debugging.c   ****                         
 124:debugging.c   ****                        //straightAdjustSensor(FRONT_MIDDLE);
 125:debugging.c   ****                         //straightAdjustBack();
 126:debugging.c   ****                         
 127:debugging.c   ****                         //straightAdjust(BACK_SENSORS);
 128:debugging.c   ****                         //straightAdjust(FRONT_SENSORS);
 129:debugging.c   ****                         
 130:debugging.c   ****                         while(0) {
 131:debugging.c   ****                             straightAdjust(FRONT_SENSORS);
 132:debugging.c   ****                             blinkLED(GREEN, 1000);
 133:debugging.c   ****                         }
 134:debugging.c   ****                         
 135:debugging.c   ****                         
 136:debugging.c   ****                         
 137:debugging.c   ****                         while(0){
 138:debugging.c   ****                         moveUntil(120, FORWARD, LESS_THAN, FRONT_LEFT, SPEED, TRUE);
 139:debugging.c   ****                         CyDelay(2000);
 140:debugging.c   ****                         }
 141:debugging.c   ****                         
 142:debugging.c   ****                         while(0) {
 143:debugging.c   ****                         straightAdjust(BACK_SENSORS);
 144:debugging.c   ****                         blinkLED(GREEN, 1000);
 145:debugging.c   ****                         }
 146:debugging.c   ****                         
 147:debugging.c   ****                         int timer;
 148:debugging.c   ****                         
 149:debugging.c   ****                         Timer_straight_adjust_Start();
 171              		.loc 1 149 0
 172 0096 FFF7FEFF 		bl	Timer_straight_adjust_Start
 173              	.LVL24:
 150:debugging.c   ****                         
 151:debugging.c   ****                         while(0) {
 152:debugging.c   ****                         timer = Timer_straight_adjust_ReadCounter();
 153:debugging.c   ****                         sprintf(output, "%d \t", timer);      
 154:debugging.c   ****                         UART_1_PutString(output); 
 155:debugging.c   ****                         CyDelay(100);
 156:debugging.c   ****         
 157:debugging.c   ****                         }
 158:debugging.c   ****                         
 159:debugging.c   ****                         //moveDynamic(-300);
 160:debugging.c   ****                         
 161:debugging.c   ****                         //moveSwivel(360, SPEED, TRUE);
 162:debugging.c   ****                         
 163:debugging.c   ****                         
 164:debugging.c   ****                         
 165:debugging.c   ****                         //moveUntil(200, BACKWARD, GREATER_THAN, FRONT_LEFT, SPEED, TRUE);
ARM GAS  C:\Users\Misha\AppData\Local\Temp\ccMQJMN8.s 			page 7


 166:debugging.c   ****                         
 167:debugging.c   ****                         /*
 168:debugging.c   ****                         changeOrientation(WEST, SPEED);
 169:debugging.c   ****                         CyDelay(1000);
 170:debugging.c   ****                         changeOrientation(SOUTH, SPEED);
 171:debugging.c   ****                         CyDelay(1000);
 172:debugging.c   ****                         changeOrientation(WEST, SPEED);
 173:debugging.c   ****                         CyDelay(1000);
 174:debugging.c   ****                         changeOrientation(NORTH, SPEED);
 175:debugging.c   ****                         CyDelay(1000);
 176:debugging.c   ****                         
 177:debugging.c   ****                         
 178:debugging.c   ****                         
 179:debugging.c   ****                         
 180:debugging.c   ****                         moveUntil(150,FORWARD,LESS_THAN,FRONT_LEFT,SPEED,TRUE);
 181:debugging.c   ****                         straightAdjust();
 182:debugging.c   ****                         
 183:debugging.c   ****                         
 184:debugging.c   ****                         
 185:debugging.c   ****                         
 186:debugging.c   ****                         
 187:debugging.c   ****                         int move = 400;
 188:debugging.c   ****                         moveDynamic(move,SPEED,TRUE);
 189:debugging.c   ****                         moveDynamic(-move,SPEED,TRUE);
 190:debugging.c   ****                         distanceSensor(BACK);
 191:debugging.c   ****                         CyDelay(50);
 192:debugging.c   ****                         
 193:debugging.c   ****                         sprintf(output, "measure: %d\n", sensor_distances[BACK]);      
 194:debugging.c   ****                             UART_1_PutString(output); 
 195:debugging.c   ****         
 196:debugging.c   **** 
 197:debugging.c   ****                         */
 198:debugging.c   ****                         
 199:debugging.c   ****   
 200:debugging.c   ****                         lock = TRUE;    
 174              		.loc 1 200 0
 175 009a 0123     		movs	r3, #1
 176              	.LVL25:
 177              	.L13:
 178              	.LBE7:
 201:debugging.c   ****                     }
 202:debugging.c   ****             } while (lock == TRUE);    
 179              		.loc 1 202 0
 180 009c 002B     		cmp	r3, #0
 181 009e F0D1     		bne	.L14
 182              	.LVL26:
 183              	.L12:
 184              	.LBE6:
 203:debugging.c   ****         }    
 204:debugging.c   ****         
 205:debugging.c   ****         // Ultrasonic Testing:
 206:debugging.c   ****         
 207:debugging.c   ****         if (ultrasonic_testing) 
 185              		.loc 1 207 0
 186 00a0 104B     		ldr	r3, .L18
 187 00a2 9B68     		ldr	r3, [r3, #8]
 188 00a4 EBB1     		cbz	r3, .L1
ARM GAS  C:\Users\Misha\AppData\Local\Temp\ccMQJMN8.s 			page 8


 189              	.LBB8:
 190              	.LBB9:
 208:debugging.c   ****         {
 209:debugging.c   ****             int lock = FALSE;
 210:debugging.c   ****             do 
 211:debugging.c   ****                 {   
 212:debugging.c   ****                     if (lock == FALSE) 
 213:debugging.c   ****                     {
 214:debugging.c   ****                         UART_1_PutString("Ultrasonic Testing: \n");
 191              		.loc 1 214 0
 192 00a6 1748     		ldr	r0, .L18+32
 193 00a8 FFF7FEFF 		bl	UART_1_PutString
 194              	.LVL27:
 195              	.L16:
 215:debugging.c   ****                         
 216:debugging.c   ****                         //armMoving();
 217:debugging.c   ****                         //straightAdjust();
 218:debugging.c   ****                         
 219:debugging.c   ****                         int dick = 2;
 220:debugging.c   ****                         while(0) {
 221:debugging.c   ****                             distanceSensor(BACK_LEFT);
 222:debugging.c   ****                             CyDelay(500);
 223:debugging.c   ****                             sprintf(output, "%d \t %d \t %d \t %d \t %d \n", sensor_distances[0], 
 224:debugging.c   ****                                                      sensor_distances[1],
 225:debugging.c   ****                                                      sensor_distances[2],
 226:debugging.c   ****                                                         sensor_distances[3],
 227:debugging.c   ****                                                         sensor_distances[4]);
 228:debugging.c   ****                             UART_1_PutString(output);
 229:debugging.c   ****                         }
 230:debugging.c   ****                         // 0 gave front left    // front left
 231:debugging.c   ****                         // 1 gave front right   // front right 
 232:debugging.c   ****                         // 2 gave back sensor   // side left now??? 
 233:debugging.c   ****                         // 3 gave side right    // side right 
 234:debugging.c   ****                         // 4 gave back sensor   // back sensor
 235:debugging.c   ****                         
 236:debugging.c   ****                         while(0) {
 237:debugging.c   ****                             for (int i = 0; i < 7; i++)
 238:debugging.c   ****                             {
 239:debugging.c   ****                                 distanceSensor(i);
 240:debugging.c   ****                                 CyDelay(100);
 241:debugging.c   ****                                 sprintf(output, "%d \t", sensor_distances[i]);
 242:debugging.c   ****                                 UART_1_PutString(output);
 243:debugging.c   ****                             }
 244:debugging.c   ****                             UART_1_PutString("\n");
 245:debugging.c   ****                         }
 246:debugging.c   ****                         
 247:debugging.c   ****                         // FRONT_LEFT   0
 248:debugging.c   ****                         // FRONT_ RIGHT 1
 249:debugging.c   ****                         // SIDE_LEFT 2
 250:debugging.c   ****                         // SIDE_RIGHT 3
 251:debugging.c   ****                         // BACK_LEFT 4
 252:debugging.c   ****                         // BACK_RIGHT 6
 253:debugging.c   ****                         
 254:debugging.c   ****                         while(1) {
 255:debugging.c   ****                             distanceSensor(BACK_LEFT);
 196              		.loc 1 255 0 discriminator 1
 197 00ac 0620     		movs	r0, #6
ARM GAS  C:\Users\Misha\AppData\Local\Temp\ccMQJMN8.s 			page 9


 198 00ae FFF7FEFF 		bl	distanceSensor
 199              	.LVL28:
 256:debugging.c   ****                             CyDelay(50);
 200              		.loc 1 256 0 discriminator 1
 201 00b2 3220     		movs	r0, #50
 202 00b4 FFF7FEFF 		bl	CyDelay
 203              	.LVL29:
 257:debugging.c   ****                             distanceSensor(BACK_RIGHT);
 204              		.loc 1 257 0 discriminator 1
 205 00b8 0420     		movs	r0, #4
 206 00ba FFF7FEFF 		bl	distanceSensor
 207              	.LVL30:
 258:debugging.c   ****                             CyDelay(50);
 208              		.loc 1 258 0 discriminator 1
 209 00be 3220     		movs	r0, #50
 210 00c0 FFF7FEFF 		bl	CyDelay
 211              	.LVL31:
 259:debugging.c   ****                             sprintf(output, "%d , %d \n", sensor_distances[BACK_LEFT], sensor_dista
 212              		.loc 1 259 0 discriminator 1
 213 00c4 104A     		ldr	r2, .L18+36
 214 00c6 094C     		ldr	r4, .L18+8
 215 00c8 1369     		ldr	r3, [r2, #16]
 216 00ca 9269     		ldr	r2, [r2, #24]
 217 00cc 0F49     		ldr	r1, .L18+40
 218 00ce 2046     		mov	r0, r4
 219 00d0 FFF7FEFF 		bl	sprintf
 220              	.LVL32:
 260:debugging.c   ****                             UART_1_PutString(output);
 221              		.loc 1 260 0 discriminator 1
 222 00d4 2046     		mov	r0, r4
 223 00d6 FFF7FEFF 		bl	UART_1_PutString
 224              	.LVL33:
 261:debugging.c   ****                             CyDelay(100);
 225              		.loc 1 261 0 discriminator 1
 226 00da 6420     		movs	r0, #100
 227 00dc FFF7FEFF 		bl	CyDelay
 228              	.LVL34:
 229 00e0 E4E7     		b	.L16
 230              	.LVL35:
 231              	.L1:
 232 00e2 38BD     		pop	{r3, r4, r5, pc}
 233              	.L19:
 234              		.align	2
 235              	.L18:
 236 00e4 00000000 		.word	.LANCHOR0
 237 00e8 00000000 		.word	.LC0
 238 00ec 00000000 		.word	output
 239 00f0 28000000 		.word	.LC1
 240 00f4 30000000 		.word	.LC2
 241 00f8 34000000 		.word	.LC3
 242 00fc 00000000 		.word	.LANCHOR1
 243 0100 44000000 		.word	.LC4
 244 0104 58000000 		.word	.LC5
 245 0108 00000000 		.word	sensor_distances
 246 010c 70000000 		.word	.LC6
 247              	.LBE9:
 248              	.LBE8:
ARM GAS  C:\Users\Misha\AppData\Local\Temp\ccMQJMN8.s 			page 10


 249              		.cfi_endproc
 250              	.LFE64:
 251              		.size	ultimateDebugging, .-ultimateDebugging
 252              		.global	ultrasonic_testing
 253              		.global	motor_testing
 254              		.global	servo_testing
 255              		.global	colour_calibration
 256              		.comm	ultrasonic_flag,4,4
 257              		.comm	initialisation,4,4
 258              		.comm	set_path,4,4
 259              		.comm	initial_tolerance,4,4
 260              		.comm	preferential_route,4,4
 261              		.comm	global_distance,4,4
 262              		.comm	global_encoder,4,4
 263              		.comm	output,32,4
 264              		.comm	block_edge_location,16,4
 265              		.comm	puck_rack_west_offsets,20,4
 266              		.comm	puck_rack_scans,20,4
 267              		.comm	internal_orientation,4,4
 268              		.data
 269              		.align	2
 270              		.set	.LANCHOR1,. + 0
 271              		.type	motor_testing, %object
 272              		.size	motor_testing, 4
 273              	motor_testing:
 274 0000 01000000 		.word	1
 275              		.section	.rodata.str1.4,"aMS",%progbits,1
 276              		.align	2
 277              	.LC0:
 278 0000 436F756E 		.ascii	"Count \011 BLANK \011 RED \011 GREEN \011 BLUE \011"
 278      74200920 
 278      424C414E 
 278      4B200920 
 278      52454420 
 279 0024 200A00   		.ascii	" \012\000"
 280 0027 00       		.space	1
 281              	.LC1:
 282 0028 25642009 		.ascii	"%d \011\000"
 282      00
 283 002d 000000   		.space	3
 284              	.LC2:
 285 0030 0A00     		.ascii	"\012\000"
 286 0032 0000     		.space	2
 287              	.LC3:
 288 0034 53657276 		.ascii	"Servo Testing: \000"
 288      6F205465 
 288      7374696E 
 288      673A2000 
 289              	.LC4:
 290 0044 4D6F746F 		.ascii	"Motor Testing: \012\000"
 290      72205465 
 290      7374696E 
 290      673A200A 
 290      00
 291 0055 000000   		.space	3
 292              	.LC5:
 293 0058 556C7472 		.ascii	"Ultrasonic Testing: \012\000"
ARM GAS  C:\Users\Misha\AppData\Local\Temp\ccMQJMN8.s 			page 11


 293      61736F6E 
 293      69632054 
 293      65737469 
 293      6E673A20 
 294 006e 0000     		.space	2
 295              	.LC6:
 296 0070 2564202C 		.ascii	"%d , %d \012\000"
 296      20256420 
 296      0A00
 297              		.bss
 298              		.align	2
 299              		.set	.LANCHOR0,. + 0
 300              		.type	colour_calibration, %object
 301              		.size	colour_calibration, 4
 302              	colour_calibration:
 303 0000 00000000 		.space	4
 304              		.type	servo_testing, %object
 305              		.size	servo_testing, 4
 306              	servo_testing:
 307 0004 00000000 		.space	4
 308              		.type	ultrasonic_testing, %object
 309              		.size	ultrasonic_testing, 4
 310              	ultrasonic_testing:
 311 0008 00000000 		.space	4
 312              		.text
 313              	.Letext0:
 314              		.file 2 "c:\\program files (x86)\\cypress\\psoc creator\\4.2\\psoc creator\\import\\gnu\\arm\\5.4.
 315              		.file 3 "c:\\program files (x86)\\cypress\\psoc creator\\4.2\\psoc creator\\import\\gnu\\arm\\5.4.
 316              		.file 4 "Generated_Source\\PSoC5/core_cm3.h"
 317              		.file 5 "navigation.h"
 318              		.file 6 "ultrasonic.h"
 319              		.file 7 "main.h"
 320              		.file 8 "Generated_Source\\PSoC5/control_led.h"
 321              		.file 9 "Generated_Source\\PSoC5/CyLib.h"
 322              		.file 10 "c:\\program files (x86)\\cypress\\psoc creator\\4.2\\psoc creator\\import\\gnu\\arm\\5.4
 323              		.file 11 "Generated_Source\\PSoC5/UART_1.h"
 324              		.file 12 "colour.h"
 325              		.file 13 "Generated_Source\\PSoC5/control_photodiode.h"
 326              		.file 14 "servo.h"
 327              		.file 15 "motor.h"
 328              		.file 16 "Generated_Source\\PSoC5/Timer_straight_adjust.h"