ARM GAS  C:\Users\Misha\AppData\Local\Temp\ccIfQyo5.s 			page 1


   1              		.syntax unified
   2              		.cpu cortex-m3
   3              		.fpu softvfp
   4              		.eabi_attribute 20, 1
   5              		.eabi_attribute 21, 1
   6              		.eabi_attribute 23, 3
   7              		.eabi_attribute 24, 1
   8              		.eabi_attribute 25, 1
   9              		.eabi_attribute 26, 1
  10              		.eabi_attribute 30, 1
  11              		.eabi_attribute 34, 1
  12              		.eabi_attribute 18, 4
  13              		.thumb
  14              		.syntax unified
  15              		.file	"main.c"
  16              		.text
  17              	.Ltext0:
  18              		.cfi_sections	.debug_frame
  19              		.section	.text.TIH,"ax",%progbits
  20              		.align	2
  21              		.global	TIH
  22              		.thumb
  23              		.thumb_func
  24              		.type	TIH, %function
  25              	TIH:
  26              	.LFB64:
  27              		.file 1 "main.c"
   1:main.c        ****  
   2:main.c        **** /* ========================================
   3:main.c        ****  *
   4:main.c        ****  * Copyright Group 17, 2019
   5:main.c        ****  * All Rights Reserved
   6:main.c        ****  * UNPUBLISHED, LICENSED SOFTWARE.
   7:main.c        ****  *
   8:main.c        ****  * CONFIDENTIAL AND PROPRIETARY INFORMATION
   9:main.c        ****  * WHICH IS THE PROPERTY OF Blayke, Misha, Nidhin.
  10:main.c        ****  *
  11:main.c        ****  * ========================================
  12:main.c        **** */
  13:main.c        **** 
  14:main.c        **** // * PSOC LIBRARY * //
  15:main.c        **** #include "project.h"
  16:main.c        **** 
  17:main.c        **** // * C LIBRARIES * // 
  18:main.c        **** #include <stdlib.h>
  19:main.c        **** #include <stdio.h>
  20:main.c        **** #include <math.h>
  21:main.c        **** 
  22:main.c        **** // * OUR LIBRARIES * //
  23:main.c        **** #include "main.h"
  24:main.c        **** #include "colour.h"
  25:main.c        **** #include "ultrasonic.h" 
  26:main.c        **** #include "servo.h"
  27:main.c        **** #include "motor.h"
  28:main.c        **** #include "customMath.h"
  29:main.c        **** #include "navigation.h"
  30:main.c        **** #include "debugging.h"
ARM GAS  C:\Users\Misha\AppData\Local\Temp\ccIfQyo5.s 			page 2


  31:main.c        **** 
  32:main.c        **** 
  33:main.c        **** extern char output[32];   
  34:main.c        **** 
  35:main.c        **** // * STATE VARIABLES * //
  36:main.c        **** int state = STATE_PRE_RUN;
  37:main.c        **** float block_edge_location[4] = {0,0,0,0}; // N E S W edge positions respectively
  38:main.c        **** 
  39:main.c        **** // * PUCK CONSTRUCTION VARIABLES * //
  40:main.c        **** int current_puck_stack_size = 0; // How many pucks are currently on the construction plate
  41:main.c        **** int puck_rack_scans[5] = {BLANK,BLANK,BLANK,BLANK,BLANK}; // 5 slots in puck rack.
  42:main.c        **** int puck_construction_plan[3] = {BLANK,BLANK,BLANK};
  43:main.c        **** int puck_rack_west_offsets[5] = {PUCK_RACK_0_WEST_DISTANCE,
  44:main.c        ****                                 PUCK_RACK_1_WEST_DISTANCE,
  45:main.c        ****                                 PUCK_RACK_2_WEST_DISTANCE,
  46:main.c        ****                                 PUCK_RACK_3_WEST_DISTANCE,
  47:main.c        ****                                 PUCK_RACK_4_WEST_DISTANCE };
  48:main.c        **** 
  49:main.c        **** int puck_temp_pile[2] = {BLANK,BLANK}; // Index 0 refers to east home base edge, 1 refers to west h
  50:main.c        **** 
  51:main.c        **** // * NAVIGATION AND POSITION VARIABLES * //
  52:main.c        **** 
  53:main.c        **** int begin_navigation = 0; // Allow us to break out of the intial phase when powered up
  54:main.c        **** int block_location[4] = {0,0,0,0};      // The block location values
  55:main.c        ****                                         //#define NORTH 0
  56:main.c        ****                                         //#define EAST 1
  57:main.c        ****                                         //#define SOUTH 2
  58:main.c        ****                                         //#define WEST 3
  59:main.c        **** int puck_location[4] = {0,0,0,0};       // The block location values
  60:main.c        ****                                         //#define NORTH 0
  61:main.c        ****                                         //#define EAST 1
  62:main.c        ****                                         //#define SOUTH 2
  63:main.c        ****                                         //#define WEST 3
  64:main.c        **** 
  65:main.c        **** int safety_override = FALSE;            
  66:main.c        **** 
  67:main.c        **** // These block clearance variables are only true if we have enough room either side of the block to
  68:main.c        **** // And only true for the puck clearance variables if there is enough room to be able to turn at the
  69:main.c        **** short int block_east_clearance = 0;
  70:main.c        **** short int block_west_clearance = 0;
  71:main.c        **** short int puck_east_clearance = 0;
  72:main.c        **** short int puck_west_clearance = 0;
  73:main.c        **** 
  74:main.c        **** // * COLOUR VARIABLES * //
  75:main.c        **** 
  76:main.c        **** int idac_value = 0;  
  77:main.c        **** int colour_flag = 1;                    // sets which photodiode to use 
  78:main.c        **** int colour_sensing_algorithm = 0;      // Determines which colour sensing algorithm to use:
  79:main.c        ****                                                 // 0: Wall algorithm
  80:main.c        ****                                             // 1: Claw algorithm
  81:main.c        ****                                                 // 2: old algorithm
  82:main.c        **** 
  83:main.c        **** int moving = 0; // Temp to stop while loop from repeated runs of scanning plan code
  84:main.c        **** 
  85:main.c        **** const int PLAN_SCAN_VERTICAL = 10; // Set to ultrasonic distance at the home base 
  86:main.c        **** 
  87:main.c        **** int current_stage = 1;      // There are 3 stages, we start at 1
ARM GAS  C:\Users\Misha\AppData\Local\Temp\ccIfQyo5.s 			page 3


  88:main.c        **** 
  89:main.c        **** 
  90:main.c        **** // GLOBAL VARIABLE
  91:main.c        **** int distance_returned_global;
  92:main.c        **** 
  93:main.c        **** 
  94:main.c        **** // * INTERRUPT HANDLING * // 
  95:main.c        **** CY_ISR(TIH)                             // Ultrasonic ISR Definition
  96:main.c        **** {
  28              		.loc 1 96 0
  29              		.cfi_startproc
  30              		@ args = 0, pretend = 0, frame = 0
  31              		@ frame_needed = 0, uses_anonymous_args = 0
  32 0000 08B5     		push	{r3, lr}
  33              		.cfi_def_cfa_offset 8
  34              		.cfi_offset 3, -8
  35              		.cfi_offset 14, -4
  97:main.c        ****     ultrasonicInterruptHandler();
  36              		.loc 1 97 0
  37 0002 FFF7FEFF 		bl	ultrasonicInterruptHandler
  38              	.LVL0:
  39 0006 08BD     		pop	{r3, pc}
  40              		.cfi_endproc
  41              	.LFE64:
  42              		.size	TIH, .-TIH
  43              		.section	.text.StartIH,"ax",%progbits
  44              		.align	2
  45              		.global	StartIH
  46              		.thumb
  47              		.thumb_func
  48              		.type	StartIH, %function
  49              	StartIH:
  50              	.LFB65:
  98:main.c        **** }
  99:main.c        **** 
 100:main.c        **** CY_ISR(StartIH)                             // Ultrasonic ISR Definition
 101:main.c        **** {
  51              		.loc 1 101 0
  52              		.cfi_startproc
  53              		@ args = 0, pretend = 0, frame = 0
  54              		@ frame_needed = 0, uses_anonymous_args = 0
  55 0000 08B5     		push	{r3, lr}
  56              		.cfi_def_cfa_offset 8
  57              		.cfi_offset 3, -8
  58              		.cfi_offset 14, -4
 102:main.c        ****     CyDelay(100);
  59              		.loc 1 102 0
  60 0002 6420     		movs	r0, #100
  61 0004 FFF7FEFF 		bl	CyDelay
  62              	.LVL1:
 103:main.c        ****     if (begin_navigation){
  63              		.loc 1 103 0
  64 0008 044B     		ldr	r3, .L6
  65 000a 1B68     		ldr	r3, [r3]
  66 000c 2BB1     		cbz	r3, .L3
 104:main.c        ****         UART_1_PutString("Beginning Navigation \n");
  67              		.loc 1 104 0
ARM GAS  C:\Users\Misha\AppData\Local\Temp\ccIfQyo5.s 			page 4


  68 000e 0448     		ldr	r0, .L6+4
  69 0010 FFF7FEFF 		bl	UART_1_PutString
  70              	.LVL2:
 105:main.c        ****         //state = STATE_SCAN_PLAN; // Put to this for competition
 106:main.c        ****         state = STATE_LOCATE_BLOCK_AND_PUCKS;
  71              		.loc 1 106 0
  72 0014 0222     		movs	r2, #2
  73 0016 014B     		ldr	r3, .L6
  74 0018 5A60     		str	r2, [r3, #4]
  75              	.L3:
  76 001a 08BD     		pop	{r3, pc}
  77              	.L7:
  78              		.align	2
  79              	.L6:
  80 001c 00000000 		.word	.LANCHOR0
  81 0020 00000000 		.word	.LC0
  82              		.cfi_endproc
  83              	.LFE65:
  84              		.size	StartIH, .-StartIH
  85              		.section	.text.SAIH,"ax",%progbits
  86              		.align	2
  87              		.global	SAIH
  88              		.thumb
  89              		.thumb_func
  90              		.type	SAIH, %function
  91              	SAIH:
  92              	.LFB66:
 107:main.c        ****     }
 108:main.c        **** }
 109:main.c        **** 
 110:main.c        **** CY_ISR(SAIH)                             // 
 111:main.c        **** {
  93              		.loc 1 111 0
  94              		.cfi_startproc
  95              		@ args = 0, pretend = 0, frame = 0
  96              		@ frame_needed = 0, uses_anonymous_args = 0
  97 0000 08B5     		push	{r3, lr}
  98              		.cfi_def_cfa_offset 8
  99              		.cfi_offset 3, -8
 100              		.cfi_offset 14, -4
 112:main.c        ****     // Set a global variable 
 113:main.c        ****     Motor_Left_Driver_Sleep();                  // puts it back to sleep
 101              		.loc 1 113 0
 102 0002 FFF7FEFF 		bl	Motor_Left_Driver_Sleep
 103              	.LVL3:
 114:main.c        ****     Motor_Right_Driver_Sleep();
 104              		.loc 1 114 0
 105 0006 FFF7FEFF 		bl	Motor_Right_Driver_Sleep
 106              	.LVL4:
 115:main.c        ****     moveDynamic(-20,SPEED,TRUE);                // calls movedynamic
 107              		.loc 1 115 0
 108 000a 0122     		movs	r2, #1
 109 000c C821     		movs	r1, #200
 110 000e 6FF01300 		mvn	r0, #19
 111 0012 FFF7FEFF 		bl	moveDynamic
 112              	.LVL5:
 116:main.c        ****     moveDynamic(20, SPEED,TRUE);      
ARM GAS  C:\Users\Misha\AppData\Local\Temp\ccIfQyo5.s 			page 5


 113              		.loc 1 116 0
 114 0016 0122     		movs	r2, #1
 115 0018 C821     		movs	r1, #200
 116 001a 1420     		movs	r0, #20
 117 001c FFF7FEFF 		bl	moveDynamic
 118              	.LVL6:
 117:main.c        ****     Motor_Left_Driver_Wakeup();
 119              		.loc 1 117 0
 120 0020 FFF7FEFF 		bl	Motor_Left_Driver_Wakeup
 121              	.LVL7:
 118:main.c        ****     Motor_Left_Driver_WriteCompare(SPEED); // brings it back to continue the while loop
 122              		.loc 1 118 0
 123 0024 C820     		movs	r0, #200
 124 0026 FFF7FEFF 		bl	Motor_Left_Driver_WriteCompare
 125              	.LVL8:
 119:main.c        ****     Motor_Right_Driver_Wakeup();
 126              		.loc 1 119 0
 127 002a FFF7FEFF 		bl	Motor_Right_Driver_Wakeup
 128              	.LVL9:
 120:main.c        ****     Motor_Right_Driver_WriteCompare(SPEED);
 129              		.loc 1 120 0
 130 002e C820     		movs	r0, #200
 131 0030 FFF7FEFF 		bl	Motor_Right_Driver_WriteCompare
 132              	.LVL10:
 133 0034 08BD     		pop	{r3, pc}
 134              		.cfi_endproc
 135              	.LFE66:
 136              		.size	SAIH, .-SAIH
 137              		.global	__aeabi_i2d
 138              		.global	__aeabi_dmul
 139              		.global	__aeabi_d2iz
 140 0036 00BF     		.section	.text.main,"ax",%progbits
 141              		.align	2
 142              		.global	main
 143              		.thumb
 144              		.thumb_func
 145              		.type	main, %function
 146              	main:
 147              	.LFB67:
 121:main.c        **** }
 122:main.c        ****  
 123:main.c        **** 
 124:main.c        **** int main(void)
 125:main.c        **** {
 148              		.loc 1 125 0
 149              		.cfi_startproc
 150              		@ args = 0, pretend = 0, frame = 0
 151              		@ frame_needed = 0, uses_anonymous_args = 0
 152 0000 2DE9F047 		push	{r4, r5, r6, r7, r8, r9, r10, lr}
 153              		.cfi_def_cfa_offset 32
 154              		.cfi_offset 4, -32
 155              		.cfi_offset 5, -28
 156              		.cfi_offset 6, -24
 157              		.cfi_offset 7, -20
 158              		.cfi_offset 8, -16
 159              		.cfi_offset 9, -12
 160              		.cfi_offset 10, -8
ARM GAS  C:\Users\Misha\AppData\Local\Temp\ccIfQyo5.s 			page 6


 161              		.cfi_offset 14, -4
 162 0004 82B0     		sub	sp, sp, #8
 163              		.cfi_def_cfa_offset 40
 126:main.c        ****     CyGlobalIntEnable; /* Enable global interrupts. */
 164              		.loc 1 126 0
 165              		.syntax unified
 166              	@ 126 "main.c" 1
 167 0006 62B6     		CPSIE   i
 168              	@ 0 "" 2
 127:main.c        **** 
 128:main.c        ****     
 129:main.c        ****     TIA_1_Start();
 169              		.loc 1 129 0
 170              		.thumb
 171              		.syntax unified
 172 0008 FFF7FEFF 		bl	TIA_1_Start
 173              	.LVL11:
 130:main.c        ****     UART_1_Start();
 174              		.loc 1 130 0
 175 000c FFF7FEFF 		bl	UART_1_Start
 176              	.LVL12:
 131:main.c        ****     UART_1_PutString("UART commencing... \n");
 177              		.loc 1 131 0
 178 0010 8E48     		ldr	r0, .L49
 179 0012 FFF7FEFF 		bl	UART_1_PutString
 180              	.LVL13:
 132:main.c        ****     ADC_Start();
 181              		.loc 1 132 0
 182 0016 FFF7FEFF 		bl	ADC_Start
 183              	.LVL14:
 133:main.c        ****     IDAC8_1_Start();
 184              		.loc 1 133 0
 185 001a FFF7FEFF 		bl	IDAC8_1_Start
 186              	.LVL15:
 134:main.c        ****     
 135:main.c        ****     // DEBUGGING:
 136:main.c        ****         // Moved to debugging.c file, set it there
 137:main.c        ****     
 138:main.c        ****     
 139:main.c        ****     // IDAC initialisation: 
 140:main.c        ****     IDAC8_1_SetRange(IDAC8_1_RANGE_32uA);       // Sets the range between 0 and 32uA
 187              		.loc 1 140 0
 188 001e 0020     		movs	r0, #0
 189 0020 FFF7FEFF 		bl	IDAC8_1_SetRange
 190              	.LVL16:
 141:main.c        ****     IDAC8_1_SetValue(idac_value);               // set a value between 0 and 255
 191              		.loc 1 141 0
 192 0024 8A4C     		ldr	r4, .L49+4
 193 0026 207A     		ldrb	r0, [r4, #8]	@ zero_extendqisi2
 194 0028 FFF7FEFF 		bl	IDAC8_1_SetValue
 195              	.LVL17:
 142:main.c        ****     
 143:main.c        ****     // Colour Sensing Initialisation & Debugging:
 144:main.c        ****     colour_sensing_algorithm = 0;
 196              		.loc 1 144 0
 197 002c 0025     		movs	r5, #0
 198 002e E560     		str	r5, [r4, #12]
ARM GAS  C:\Users\Misha\AppData\Local\Temp\ccIfQyo5.s 			page 7


 145:main.c        ****     control_photodiode_Write(colour_sensing_algorithm);            // controls which photodiode is 
 199              		.loc 1 145 0
 200 0030 2846     		mov	r0, r5
 201 0032 FFF7FEFF 		bl	control_photodiode_Write
 202              	.LVL18:
 146:main.c        ****                                                 // 0: wall
 147:main.c        ****                                                 // 1: claw
 148:main.c        ****     control_led_Write(1);   CyDelay(500);  // Ensures all the RGBs are working
 203              		.loc 1 148 0
 204 0036 0120     		movs	r0, #1
 205 0038 FFF7FEFF 		bl	control_led_Write
 206              	.LVL19:
 207 003c 4FF4FA70 		mov	r0, #500
 208 0040 FFF7FEFF 		bl	CyDelay
 209              	.LVL20:
 149:main.c        ****     control_led_Write(2);   CyDelay(500);
 210              		.loc 1 149 0
 211 0044 0220     		movs	r0, #2
 212 0046 FFF7FEFF 		bl	control_led_Write
 213              	.LVL21:
 214 004a 4FF4FA70 		mov	r0, #500
 215 004e FFF7FEFF 		bl	CyDelay
 216              	.LVL22:
 150:main.c        ****     control_led_Write(3);   CyDelay(500);
 217              		.loc 1 150 0
 218 0052 0320     		movs	r0, #3
 219 0054 FFF7FEFF 		bl	control_led_Write
 220              	.LVL23:
 221 0058 4FF4FA70 		mov	r0, #500
 222 005c FFF7FEFF 		bl	CyDelay
 223              	.LVL24:
 151:main.c        ****     control_led_Write(0);   CyDelay(500);
 224              		.loc 1 151 0
 225 0060 2846     		mov	r0, r5
 226 0062 FFF7FEFF 		bl	control_led_Write
 227              	.LVL25:
 228 0066 4FF4FA70 		mov	r0, #500
 229 006a FFF7FEFF 		bl	CyDelay
 230              	.LVL26:
 152:main.c        ****     colourSensingInitialise();                  // Initialises the colour sensor
 231              		.loc 1 152 0
 232 006e FFF7FEFF 		bl	colourSensingInitialise
 233              	.LVL27:
 153:main.c        ****     
 154:main.c        **** 
 155:main.c        ****     //Servos for the arm instatination
 156:main.c        ****     Rack_Servo_PWM_Start();
 234              		.loc 1 156 0
 235 0072 FFF7FEFF 		bl	Rack_Servo_PWM_Start
 236              	.LVL28:
 157:main.c        ****     Rack_Servo_PWM_WriteCompare(1000);          // BRINGs rack to highest position, so not to mess 
 237              		.loc 1 157 0
 238 0076 4FF47A70 		mov	r0, #1000
 239 007a FFF7FEFF 		bl	Rack_Servo_PWM_WriteCompare
 240              	.LVL29:
 158:main.c        ****     CyDelay(500);
 241              		.loc 1 158 0
ARM GAS  C:\Users\Misha\AppData\Local\Temp\ccIfQyo5.s 			page 8


 242 007e 4FF4FA70 		mov	r0, #500
 243 0082 FFF7FEFF 		bl	CyDelay
 244              	.LVL30:
 159:main.c        ****     Rack_Servo_PWM_Sleep();
 245              		.loc 1 159 0
 246 0086 FFF7FEFF 		bl	Rack_Servo_PWM_Sleep
 247              	.LVL31:
 160:main.c        ****     
 161:main.c        ****     Gripper_Servo_PWM_Start();
 248              		.loc 1 161 0
 249 008a FFF7FEFF 		bl	Gripper_Servo_PWM_Start
 250              	.LVL32:
 162:main.c        ****     Gripper_Servo_PWM_WriteCompare(1120);       //This is the open gripper position
 251              		.loc 1 162 0
 252 008e 4FF48C60 		mov	r0, #1120
 253 0092 FFF7FEFF 		bl	Gripper_Servo_PWM_WriteCompare
 254              	.LVL33:
 163:main.c        ****     CyDelay(500);
 255              		.loc 1 163 0
 256 0096 4FF4FA70 		mov	r0, #500
 257 009a FFF7FEFF 		bl	CyDelay
 258              	.LVL34:
 164:main.c        ****     Gripper_Servo_PWM_Sleep();
 259              		.loc 1 164 0
 260 009e FFF7FEFF 		bl	Gripper_Servo_PWM_Sleep
 261              	.LVL35:
 165:main.c        ****     
 166:main.c        ****     // Motors Initialisation:
 167:main.c        ****     Motor_Left_Driver_Start();
 262              		.loc 1 167 0
 263 00a2 FFF7FEFF 		bl	Motor_Left_Driver_Start
 264              	.LVL36:
 168:main.c        ****     Motor_Right_Driver_Start();
 265              		.loc 1 168 0
 266 00a6 FFF7FEFF 		bl	Motor_Right_Driver_Start
 267              	.LVL37:
 169:main.c        ****     Motor_Left_Driver_WriteCompare(0);          // sets the motors to 0 so it will be smooth next t
 268              		.loc 1 169 0
 269 00aa 2846     		mov	r0, r5
 270 00ac FFF7FEFF 		bl	Motor_Left_Driver_WriteCompare
 271              	.LVL38:
 170:main.c        ****     Motor_Right_Driver_WriteCompare(0);
 272              		.loc 1 170 0
 273 00b0 2846     		mov	r0, r5
 274 00b2 FFF7FEFF 		bl	Motor_Right_Driver_WriteCompare
 275              	.LVL39:
 171:main.c        ****     Motor_Left_Driver_Sleep();                  // Puts motor to sleep
 276              		.loc 1 171 0
 277 00b6 FFF7FEFF 		bl	Motor_Left_Driver_Sleep
 278              	.LVL40:
 172:main.c        ****     Motor_Right_Driver_Sleep();                 // Puts motor to sleep
 279              		.loc 1 172 0
 280 00ba FFF7FEFF 		bl	Motor_Right_Driver_Sleep
 281              	.LVL41:
 173:main.c        ****     
 174:main.c        ****     Motor_Left_Decoder_Start();
 282              		.loc 1 174 0
ARM GAS  C:\Users\Misha\AppData\Local\Temp\ccIfQyo5.s 			page 9


 283 00be FFF7FEFF 		bl	Motor_Left_Decoder_Start
 284              	.LVL42:
 175:main.c        ****     Motor_Right_Decoder_Start();
 285              		.loc 1 175 0
 286 00c2 FFF7FEFF 		bl	Motor_Right_Decoder_Start
 287              	.LVL43:
 176:main.c        ****     
 177:main.c        ****     internal_orientation = WEST;                // robot initial starts in the West direction
 288              		.loc 1 177 0
 289 00c6 0326     		movs	r6, #3
 290 00c8 624B     		ldr	r3, .L49+8
 291 00ca 1E60     		str	r6, [r3]
 178:main.c        ****     
 179:main.c        ****     // Timer and ISR instantiation
 180:main.c        ****     Timer_1_Start();                
 292              		.loc 1 180 0
 293 00cc FFF7FEFF 		bl	Timer_1_Start
 294              	.LVL44:
 181:main.c        ****     Timer_1_ReadStatusRegister();
 295              		.loc 1 181 0
 296 00d0 FFF7FEFF 		bl	Timer_1_ReadStatusRegister
 297              	.LVL45:
 182:main.c        ****     Sonic_StartEx(TIH);
 298              		.loc 1 182 0
 299 00d4 6048     		ldr	r0, .L49+12
 300 00d6 FFF7FEFF 		bl	Sonic_StartEx
 301              	.LVL46:
 183:main.c        ****     Start_StartEx(StartIH);
 302              		.loc 1 183 0
 303 00da 6048     		ldr	r0, .L49+16
 304 00dc FFF7FEFF 		bl	Start_StartEx
 305              	.LVL47:
 184:main.c        ****     Straight_StartEx(SAIH);
 306              		.loc 1 184 0
 307 00e0 5F48     		ldr	r0, .L49+20
 308 00e2 FFF7FEFF 		bl	Straight_StartEx
 309              	.LVL48:
 185:main.c        ****     begin_navigation = 1; // Set to true after it has run ISR at least once
 310              		.loc 1 185 0
 311 00e6 0127     		movs	r7, #1
 312 00e8 2760     		str	r7, [r4]
 186:main.c        ****     
 187:main.c        ****     // Ultrasonic Initialisation & Calibration:
 188:main.c        ****     // The ultrasonics take several test measurements to ensure they are working
 189:main.c        ****         
 190:main.c        ****     UART_1_PutString("Ultrasonic Calibration tests: \n");
 313              		.loc 1 190 0
 314 00ea 5E48     		ldr	r0, .L49+24
 315 00ec FFF7FEFF 		bl	UART_1_PutString
 316              	.LVL49:
 191:main.c        ****     safetyDistanceCheck();
 317              		.loc 1 191 0
 318 00f0 FFF7FEFF 		bl	safetyDistanceCheck
 319              	.LVL50:
 192:main.c        ****     safetyDistanceCheck();
 320              		.loc 1 192 0
 321 00f4 FFF7FEFF 		bl	safetyDistanceCheck
ARM GAS  C:\Users\Misha\AppData\Local\Temp\ccIfQyo5.s 			page 10


 322              	.LVL51:
 193:main.c        ****     safetyDistanceCheck();
 323              		.loc 1 193 0
 324 00f8 FFF7FEFF 		bl	safetyDistanceCheck
 325              	.LVL52:
 194:main.c        ****     
 195:main.c        ****     // Straight adjust timer: 
 196:main.c        ****     Timer_straight_adjust_Start();              
 326              		.loc 1 196 0
 327 00fc FFF7FEFF 		bl	Timer_straight_adjust_Start
 328              	.LVL53:
 197:main.c        ****     Timer_straight_adjust_ReadStatusRegister();
 329              		.loc 1 197 0
 330 0100 FFF7FEFF 		bl	Timer_straight_adjust_ReadStatusRegister
 331              	.LVL54:
 198:main.c        ****     //Control_Reset_Straight_Write(0);
 199:main.c        ****     
 200:main.c        ****     // FORCING STATE:
 201:main.c        ****     // Manual state set for testing
 202:main.c        ****     state = STATE_PRE_RUN;
 332              		.loc 1 202 0
 333 0104 6560     		str	r5, [r4, #4]
 203:main.c        ****     puck_construction_plan[0] = RED;
 334              		.loc 1 203 0
 335 0106 2761     		str	r7, [r4, #16]
 204:main.c        ****     puck_construction_plan[1] = GREEN;
 336              		.loc 1 204 0
 337 0108 0223     		movs	r3, #2
 338 010a 6361     		str	r3, [r4, #20]
 205:main.c        ****     puck_construction_plan[2] = BLUE;
 339              		.loc 1 205 0
 340 010c A661     		str	r6, [r4, #24]
 341              	.LVL55:
 342              	.L44:
 206:main.c        ****     int block_and_puck_edge_midpoint = 0;
 207:main.c        ****     
 208:main.c        **** 
 209:main.c        ****     // Main Loop for States
 210:main.c        ****     
 211:main.c        ****     //while(1){}
 212:main.c        ****     
 213:main.c        ****     for(;;)
 214:main.c        ****     {
 215:main.c        **** 
 216:main.c        ****         if (state == STATE_PRE_RUN){
 217:main.c        ****         
 218:main.c        ****         }
 219:main.c        **** 
 220:main.c        ****         while(0){
 221:main.c        ****             distanceSensor(SIDE_LEFT);
 222:main.c        ****             CyDelay(60);
 223:main.c        ****             sprintf(output, "%d \t", sensor_distances[SIDE_LEFT]);
 224:main.c        ****             UART_1_PutString(output);
 225:main.c        ****         }
 226:main.c        **** 
 227:main.c        **** // *** 1. STATE SCAN PLAN: *** // 
 228:main.c        **** //
ARM GAS  C:\Users\Misha\AppData\Local\Temp\ccIfQyo5.s 			page 11


 229:main.c        ****         
 230:main.c        ****       
 231:main.c        ****         if (state == STATE_SCAN_PLAN) {              // colour sensing, while switch has not been p
 343              		.loc 1 231 0
 344 010e 504B     		ldr	r3, .L49+4
 345 0110 5B68     		ldr	r3, [r3, #4]
 346 0112 012B     		cmp	r3, #1
 347 0114 78D1     		bne	.L11
 348              	.LBB2:
 232:main.c        **** 
 233:main.c        **** 
 234:main.c        ****             // Debugging: 
 235:main.c        **** 
 236:main.c        ****             ultimateDebugging();        // If any of the debugging flags are activated, this will b
 349              		.loc 1 236 0
 350 0116 FFF7FEFF 		bl	ultimateDebugging
 351              	.LVL56:
 237:main.c        ****             
 238:main.c        **** 
 239:main.c        ****             straightAdjust(FRONT_SENSORS);
 352              		.loc 1 239 0
 353 011a 0720     		movs	r0, #7
 354 011c FFF7FEFF 		bl	straightAdjust
 355              	.LVL57:
 240:main.c        ****             moveUntil(-100, BACKWARD, LESS_THAN, BACK_RIGHT, SPEED, TRUE);
 356              		.loc 1 240 0
 357 0120 0124     		movs	r4, #1
 358 0122 0194     		str	r4, [sp, #4]
 359 0124 C825     		movs	r5, #200
 360 0126 0095     		str	r5, [sp]
 361 0128 0423     		movs	r3, #4
 362 012a 2246     		mov	r2, r4
 363 012c 0021     		movs	r1, #0
 364 012e 6FF06300 		mvn	r0, #99
 365 0132 FFF7FEFF 		bl	moveUntil
 366              	.LVL58:
 241:main.c        ****             moveUntil(400, FORWARD, LESS_THAN, FRONT_LEFT, SPEED, TRUE);
 367              		.loc 1 241 0
 368 0136 0194     		str	r4, [sp, #4]
 369 0138 0095     		str	r5, [sp]
 370 013a 0023     		movs	r3, #0
 371 013c 2246     		mov	r2, r4
 372 013e 2146     		mov	r1, r4
 373 0140 4FF4C870 		mov	r0, #400
 374 0144 FFF7FEFF 		bl	moveUntil
 375              	.LVL59:
 242:main.c        ****             moveDynamic(-450, SPEED, TRUE);
 376              		.loc 1 242 0
 377 0148 2246     		mov	r2, r4
 378 014a 2946     		mov	r1, r5
 379 014c 4648     		ldr	r0, .L49+28
 380 014e FFF7FEFF 		bl	moveDynamic
 381              	.LVL60:
 243:main.c        ****             CyDelay(500);   
 382              		.loc 1 243 0
 383 0152 4FF4FA70 		mov	r0, #500
 384 0156 FFF7FEFF 		bl	CyDelay
ARM GAS  C:\Users\Misha\AppData\Local\Temp\ccIfQyo5.s 			page 12


 385              	.LVL61:
 244:main.c        ****             colourSensingInitialise();      // Initialises wall colour sensor against the black wal
 386              		.loc 1 244 0
 387 015a FFF7FEFF 		bl	colourSensingInitialise
 388              	.LVL62:
 245:main.c        ****             CyDelay(500);
 389              		.loc 1 245 0
 390 015e 4FF4FA70 		mov	r0, #500
 391 0162 FFF7FEFF 		bl	CyDelay
 392              	.LVL63:
 246:main.c        ****             moveDynamic(170, SPEED, TRUE);
 393              		.loc 1 246 0
 394 0166 2246     		mov	r2, r4
 395 0168 2946     		mov	r1, r5
 396 016a AA20     		movs	r0, #170
 397 016c FFF7FEFF 		bl	moveDynamic
 398              	.LVL64:
 247:main.c        ****             CyDelay(500);
 399              		.loc 1 247 0
 400 0170 4FF4FA70 		mov	r0, #500
 401 0174 FFF7FEFF 		bl	CyDelay
 402              	.LVL65:
 403              	.LBB3:
 248:main.c        **** 
 249:main.c        ****             for (int i = 0; i < 5; i++) {                       // scan each of the pucks 
 404              		.loc 1 249 0
 405 0178 0024     		movs	r4, #0
 406 017a 14E0     		b	.L12
 407              	.LVL66:
 408              	.L13:
 250:main.c        ****                 puck_rack_scans[i] = colourSensingOutput();
 409              		.loc 1 250 0 discriminator 3
 410 017c FFF7FEFF 		bl	colourSensingOutput
 411              	.LVL67:
 412 0180 334D     		ldr	r5, .L49+4
 413 0182 05EB8405 		add	r5, r5, r4, lsl #2
 414 0186 E861     		str	r0, [r5, #28]
 251:main.c        ****                 CyDelay(500);
 415              		.loc 1 251 0 discriminator 3
 416 0188 4FF4FA70 		mov	r0, #500
 417 018c FFF7FEFF 		bl	CyDelay
 418              	.LVL68:
 252:main.c        ****                 moveDynamic(61, SPEED, TRUE);
 419              		.loc 1 252 0 discriminator 3
 420 0190 0122     		movs	r2, #1
 421 0192 C821     		movs	r1, #200
 422 0194 3D20     		movs	r0, #61
 423 0196 FFF7FEFF 		bl	moveDynamic
 424              	.LVL69:
 253:main.c        ****                 blinkLED(puck_rack_scans[i],500);   // Will show us which coloured puck it thinks i
 425              		.loc 1 253 0 discriminator 3
 426 019a 4FF4FA71 		mov	r1, #500
 427 019e E869     		ldr	r0, [r5, #28]
 428 01a0 FFF7FEFF 		bl	blinkLED
 429              	.LVL70:
 249:main.c        ****                 puck_rack_scans[i] = colourSensingOutput();
 430              		.loc 1 249 0 discriminator 3
ARM GAS  C:\Users\Misha\AppData\Local\Temp\ccIfQyo5.s 			page 13


 431 01a4 0134     		adds	r4, r4, #1
 432              	.LVL71:
 433              	.L12:
 249:main.c        ****                 puck_rack_scans[i] = colourSensingOutput();
 434              		.loc 1 249 0 is_stmt 0 discriminator 1
 435 01a6 042C     		cmp	r4, #4
 436 01a8 E8DD     		ble	.L13
 437              	.LBE3:
 254:main.c        ****             }
 255:main.c        ****             
 256:main.c        ****             //straightAdjust(FRONT_SENSORS);
 257:main.c        ****             //moveUntil(-100, BACKWARD, LESS_THAN, BACK, SPEED, TRUE);
 258:main.c        ****             //colourSensingInitialise();      // Initialises wall colour sensor against the black w
 259:main.c        ****                           
 260:main.c        ****             UART_1_PutString("Found Colours: \n");
 438              		.loc 1 260 0 is_stmt 1
 439 01aa 3048     		ldr	r0, .L49+32
 440 01ac FFF7FEFF 		bl	UART_1_PutString
 441              	.LVL72:
 442              	.LBB4:
 261:main.c        ****             for (int i = 0; i < 5; i++) 
 443              		.loc 1 261 0
 444 01b0 0024     		movs	r4, #0
 445              	.LVL73:
 446 01b2 0CE0     		b	.L14
 447              	.LVL74:
 448              	.L15:
 262:main.c        ****             {
 263:main.c        ****                 sprintf(output, "%i \n", puck_rack_scans[i]);    // updates UART showing values of 
 449              		.loc 1 263 0 discriminator 3
 450 01b4 264B     		ldr	r3, .L49+4
 451 01b6 03EB8403 		add	r3, r3, r4, lsl #2
 452 01ba 2D4D     		ldr	r5, .L49+36
 453 01bc DA69     		ldr	r2, [r3, #28]
 454 01be 2D49     		ldr	r1, .L49+40
 455 01c0 2846     		mov	r0, r5
 456 01c2 FFF7FEFF 		bl	sprintf
 457              	.LVL75:
 264:main.c        ****                 UART_1_PutString(output);
 458              		.loc 1 264 0 discriminator 3
 459 01c6 2846     		mov	r0, r5
 460 01c8 FFF7FEFF 		bl	UART_1_PutString
 461              	.LVL76:
 261:main.c        ****             for (int i = 0; i < 5; i++) 
 462              		.loc 1 261 0 discriminator 3
 463 01cc 0134     		adds	r4, r4, #1
 464              	.LVL77:
 465              	.L14:
 261:main.c        ****             for (int i = 0; i < 5; i++) 
 466              		.loc 1 261 0 is_stmt 0 discriminator 1
 467 01ce 042C     		cmp	r4, #4
 468 01d0 F0DD     		ble	.L15
 469              	.LBE4:
 265:main.c        ****             }
 266:main.c        ****             
 267:main.c        ****             
 268:main.c        ****             control_photodiode_Write(CLAW_SENSING);    // changes to claw photodiode
ARM GAS  C:\Users\Misha\AppData\Local\Temp\ccIfQyo5.s 			page 14


 470              		.loc 1 268 0 is_stmt 1
 471 01d2 0120     		movs	r0, #1
 472 01d4 FFF7FEFF 		bl	control_photodiode_Write
 473              	.LVL78:
 269:main.c        ****             colour_sensing_algorithm = CLAW_1_ALGORITHM;   // changes it to claw algorithm
 474              		.loc 1 269 0
 475 01d8 0122     		movs	r2, #1
 476 01da 1D4B     		ldr	r3, .L49+4
 477 01dc DA60     		str	r2, [r3, #12]
 478              	.LVL79:
 479              	.LBB5:
 270:main.c        ****                                  
 271:main.c        ****             // THEN WE FILTER THE NO PUCK VALUES:
 272:main.c        ****             int puck_construction_plan_index = 0; // Will be used to iterate through the 3 puck col
 273:main.c        ****             
 274:main.c        ****             // Iterate over all 5 rack slots and place the 3 colours into puck_construction_plan.
 275:main.c        ****             for (int puck_rack_index = 0; puck_rack_index < 5; puck_rack_index++){
 480              		.loc 1 275 0
 481 01de 0023     		movs	r3, #0
 482              	.LBE5:
 272:main.c        ****             
 483              		.loc 1 272 0
 484 01e0 1A46     		mov	r2, r3
 485              	.LBB6:
 486              		.loc 1 275 0
 487 01e2 0CE0     		b	.L16
 488              	.LVL80:
 489              	.L18:
 276:main.c        ****                 if (puck_rack_scans[puck_rack_index] != BLANK && puck_construction_plan_index != 3)
 490              		.loc 1 276 0
 491 01e4 1A49     		ldr	r1, .L49+4
 492 01e6 01EB8301 		add	r1, r1, r3, lsl #2
 493 01ea C869     		ldr	r0, [r1, #28]
 494 01ec 30B1     		cbz	r0, .L17
 495              		.loc 1 276 0 is_stmt 0 discriminator 1
 496 01ee 032A     		cmp	r2, #3
 497 01f0 04D0     		beq	.L17
 277:main.c        ****                     puck_construction_plan[puck_construction_plan_index] = puck_rack_scans[puck_rac
 498              		.loc 1 277 0 is_stmt 1
 499 01f2 1749     		ldr	r1, .L49+4
 500 01f4 01EB8201 		add	r1, r1, r2, lsl #2
 501 01f8 0861     		str	r0, [r1, #16]
 278:main.c        ****                     puck_construction_plan_index++;
 502              		.loc 1 278 0
 503 01fa 0132     		adds	r2, r2, #1
 504              	.LVL81:
 505              	.L17:
 275:main.c        ****                 if (puck_rack_scans[puck_rack_index] != BLANK && puck_construction_plan_index != 3)
 506              		.loc 1 275 0 discriminator 2
 507 01fc 0133     		adds	r3, r3, #1
 508              	.LVL82:
 509              	.L16:
 275:main.c        ****                 if (puck_rack_scans[puck_rack_index] != BLANK && puck_construction_plan_index != 3)
 510              		.loc 1 275 0 is_stmt 0 discriminator 1
 511 01fe 042B     		cmp	r3, #4
 512 0200 F0DD     		ble	.L18
 513              	.LBE6:
ARM GAS  C:\Users\Misha\AppData\Local\Temp\ccIfQyo5.s 			page 15


 279:main.c        ****                 }
 280:main.c        ****             }
 281:main.c        ****                     
 282:main.c        ****             // MOVE into the next state: 
 283:main.c        ****             state = STATE_LOCATE_BLOCK_AND_PUCKS;
 514              		.loc 1 283 0 is_stmt 1
 515 0202 0222     		movs	r2, #2
 516              	.LVL83:
 517 0204 124B     		ldr	r3, .L49+4
 518              	.LVL84:
 519 0206 5A60     		str	r2, [r3, #4]
 520              	.LVL85:
 521              	.L11:
 522              	.LBE2:
 284:main.c        **** 
 285:main.c        ****         }
 286:main.c        **** 
 287:main.c        **** //
 288:main.c        **** // *** 2. STATE LOCATE BLOCKS AND PUCKS: *** // 
 289:main.c        **** //
 290:main.c        ****         
 291:main.c        ****     	if (state == STATE_LOCATE_BLOCK_AND_PUCKS){
 523              		.loc 1 291 0
 524 0208 114B     		ldr	r3, .L49+4
 525 020a 5B68     		ldr	r3, [r3, #4]
 526 020c 022B     		cmp	r3, #2
 527 020e 40F06082 		bne	.L19
 528              	.LBB7:
 292:main.c        ****             
 293:main.c        ****             ultimateDebugging();   
 529              		.loc 1 293 0
 530 0212 FFF7FEFF 		bl	ultimateDebugging
 531              	.LVL86:
 294:main.c        **** 
 295:main.c        ****             // move away from home base:
 296:main.c        ****             
 297:main.c        ****             translateMoveDynamic(35, -35, 100, FALSE);
 532              		.loc 1 297 0
 533 0216 0023     		movs	r3, #0
 534 0218 6422     		movs	r2, #100
 535 021a 6FF02201 		mvn	r1, #34
 536 021e 1648     		ldr	r0, .L49+44
 537 0220 FFF7FEFF 		bl	translateMoveDynamic
 538              	.LVL87:
 298:main.c        ****             //straightAdjust(FRONT_SENSORS);
 299:main.c        ****     
 300:main.c        ****             // Move until construction zone            
 301:main.c        ****             moveUntil(130, FORWARD, LESS_THAN, FRONT_LEFT, SPEED, TRUE);  // Move to west wall
 539              		.loc 1 301 0
 540 0224 0121     		movs	r1, #1
 541 0226 0191     		str	r1, [sp, #4]
 542 0228 C823     		movs	r3, #200
 543 022a 0093     		str	r3, [sp]
 544 022c 0023     		movs	r3, #0
 545 022e 0A46     		mov	r2, r1
 546 0230 8220     		movs	r0, #130
 547 0232 FFF7FEFF 		bl	moveUntil
ARM GAS  C:\Users\Misha\AppData\Local\Temp\ccIfQyo5.s 			page 16


 548              	.LVL88:
 302:main.c        ****             straightAdjust(FRONT_SENSORS);                                      // straighten again
 549              		.loc 1 302 0
 550 0236 0720     		movs	r0, #7
 551 0238 FFF7FEFF 		bl	straightAdjust
 552              	.LVL89:
 303:main.c        ****             
 304:main.c        ****             
 305:main.c        ****             distanceSensor(SIDE_LEFT);  // takes how far we are away from home base wall
 553              		.loc 1 305 0
 554 023c 0220     		movs	r0, #2
 555 023e FFF7FEFF 		bl	distanceSensor
 556              	.LVL90:
 306:main.c        ****             CyDelay(50);
 557              		.loc 1 306 0
 558 0242 3220     		movs	r0, #50
 559 0244 FFF7FEFF 		bl	CyDelay
 560              	.LVL91:
 307:main.c        ****             while (sensor_distances[SIDE_LEFT] > (BLOCK_ZONE_SOUTH - WIDTH_SENSOR_TO_SENSOR)) {
 561              		.loc 1 307 0
 562 0248 1EE0     		b	.L20
 563              	.L50:
 564 024a 00BF     		.align	2
 565              	.L49:
 566 024c 18000000 		.word	.LC1
 567 0250 00000000 		.word	.LANCHOR0
 568 0254 00000000 		.word	internal_orientation
 569 0258 00000000 		.word	TIH
 570 025c 00000000 		.word	StartIH
 571 0260 00000000 		.word	SAIH
 572 0264 30000000 		.word	.LC2
 573 0268 3EFEFFFF 		.word	-450
 574 026c 50000000 		.word	.LC3
 575 0270 00000000 		.word	output
 576 0274 64000000 		.word	.LC4
 577 0278 00000C42 		.word	1108082688
 578              	.L21:
 308:main.c        ****                 // stays in while loop until side left value taken is appropriate
 309:main.c        ****                 // E.g. the side left value should be less than BLOCK_ZONE_SOUTH - WIDTH_SENSOR_TO_
 310:main.c        ****                 // So, it should be less than 500mm - 220mm = 280mm
 311:main.c        ****                 distanceSensor(SIDE_LEFT);
 579              		.loc 1 311 0
 580 027c 0220     		movs	r0, #2
 581 027e FFF7FEFF 		bl	distanceSensor
 582              	.LVL92:
 312:main.c        ****                 CyDelay(50);
 583              		.loc 1 312 0
 584 0282 3220     		movs	r0, #50
 585 0284 FFF7FEFF 		bl	CyDelay
 586              	.LVL93:
 587              	.L20:
 307:main.c        ****             while (sensor_distances[SIDE_LEFT] > (BLOCK_ZONE_SOUTH - WIDTH_SENSOR_TO_SENSOR)) {
 588              		.loc 1 307 0
 589 0288 794B     		ldr	r3, .L51+8
 590 028a 9C68     		ldr	r4, [r3, #8]
 591 028c B4F58C7F 		cmp	r4, #280
 592 0290 F4DC     		bgt	.L21
ARM GAS  C:\Users\Misha\AppData\Local\Temp\ccIfQyo5.s 			page 17


 313:main.c        ****                 } 
 314:main.c        ****             
 315:main.c        ****             int block_threshold = BLOCK_ZONE_NORTH - sensor_distances[SIDE_LEFT] - WIDTH_SENSOR_TO_
 593              		.loc 1 315 0
 594 0292 C4F50375 		rsb	r5, r4, #524
 595 0296 0135     		adds	r5, r5, #1
 596              	.LVL94:
 316:main.c        ****             int puck_threshold = ARENA_LENGTH - (PUCK_GRID_FROM_NORTH/2) - sensor_distances[SIDE_LE
 597              		.loc 1 316 0
 598 0298 C4F55274 		rsb	r4, r4, #840
 599 029c 0334     		adds	r4, r4, #3
 600              	.LVL95:
 317:main.c        ****             
 318:main.c        ****             // SCAN FOR BLOCKS OR PUCKS:
 319:main.c        ****             
 320:main.c        ****             sprintf(output, "block threshold: %d \n", block_threshold);
 601              		.loc 1 320 0
 602 029e 754E     		ldr	r6, .L51+12
 603 02a0 2A46     		mov	r2, r5
 604 02a2 7549     		ldr	r1, .L51+16
 605 02a4 3046     		mov	r0, r6
 606 02a6 FFF7FEFF 		bl	sprintf
 607              	.LVL96:
 321:main.c        ****             UART_1_PutString(output);
 608              		.loc 1 321 0
 609 02aa 3046     		mov	r0, r6
 610 02ac FFF7FEFF 		bl	UART_1_PutString
 611              	.LVL97:
 322:main.c        ****             
 323:main.c        ****             sprintf(output, "puck threshold: %d \n", puck_threshold);
 612              		.loc 1 323 0
 613 02b0 2246     		mov	r2, r4
 614 02b2 7249     		ldr	r1, .L51+20
 615 02b4 3046     		mov	r0, r6
 616 02b6 FFF7FEFF 		bl	sprintf
 617              	.LVL98:
 324:main.c        ****             UART_1_PutString(output);
 618              		.loc 1 324 0
 619 02ba 3046     		mov	r0, r6
 620 02bc FFF7FEFF 		bl	UART_1_PutString
 621              	.LVL99:
 325:main.c        ****             
 326:main.c        ****             // Check if we hit the puck or the blocks: 
 327:main.c        ****             moveUntil(puck_threshold, BACKWARD, LESS_THAN, SIDE_RIGHT, SPEED, TRUE);   
 622              		.loc 1 327 0
 623 02c0 0122     		movs	r2, #1
 624 02c2 0192     		str	r2, [sp, #4]
 625 02c4 C823     		movs	r3, #200
 626 02c6 0093     		str	r3, [sp]
 627 02c8 0323     		movs	r3, #3
 628 02ca 0021     		movs	r1, #0
 629 02cc 2046     		mov	r0, r4
 630 02ce FFF7FEFF 		bl	moveUntil
 631              	.LVL100:
 328:main.c        ****             
 329:main.c        ****     // HIT THE BLOCK FIRST
 330:main.c        ****             if (sensor_distances[SIDE_RIGHT] < block_threshold) {
ARM GAS  C:\Users\Misha\AppData\Local\Temp\ccIfQyo5.s 			page 18


 632              		.loc 1 330 0
 633 02d2 674B     		ldr	r3, .L51+8
 634 02d4 DB68     		ldr	r3, [r3, #12]
 635 02d6 9D42     		cmp	r5, r3
 636 02d8 40F3DE80 		ble	.L22
 637              	.LBB8:
 331:main.c        ****                 // We have hit the west side of the block
 332:main.c        ****                 //UART_1_PutString("BLOCK FIRST");
 333:main.c        ****                 
 334:main.c        ****                 blinkLED(GREEN,1000);   
 638              		.loc 1 334 0
 639 02dc 4FF47A71 		mov	r1, #1000
 640 02e0 0220     		movs	r0, #2
 641 02e2 FFF7FEFF 		bl	blinkLED
 642              	.LVL101:
 335:main.c        ****                 
 336:main.c        ****                 // Find the WEST clearance of the block: 
 337:main.c        ****                 distanceSensor(FRONT_LEFT); // Use front_right instead? 
 643              		.loc 1 337 0
 644 02e6 0020     		movs	r0, #0
 645 02e8 FFF7FEFF 		bl	distanceSensor
 646              	.LVL102:
 338:main.c        ****                 CyDelay(DELAY);
 647              		.loc 1 338 0
 648 02ec 3C20     		movs	r0, #60
 649 02ee FFF7FEFF 		bl	CyDelay
 650              	.LVL103:
 339:main.c        ****                 
 340:main.c        ****                 block_location[WEST] = sensor_distances[FRONT_LEFT] + DISTANCE_FRONT_SENSOR_TO_SIDE
 651              		.loc 1 340 0
 652 02f2 5F4E     		ldr	r6, .L51+8
 653 02f4 3268     		ldr	r2, [r6]
 654 02f6 02F19603 		add	r3, r2, #150
 655 02fa DFF890A1 		ldr	r10, .L51+36
 656 02fe CAF83C30 		str	r3, [r10, #60]
 341:main.c        ****                 sprintf(output, "west block front sensor: %d, \n", sensor_distances[FRONT_LEFT] ); 
 657              		.loc 1 341 0
 658 0302 DFF87081 		ldr	r8, .L51+12
 659 0306 5E49     		ldr	r1, .L51+24
 660 0308 4046     		mov	r0, r8
 661 030a FFF7FEFF 		bl	sprintf
 662              	.LVL104:
 342:main.c        ****                 UART_1_PutString(output);
 663              		.loc 1 342 0
 664 030e 4046     		mov	r0, r8
 665 0310 FFF7FEFF 		bl	UART_1_PutString
 666              	.LVL105:
 343:main.c        ****                 
 344:main.c        ****                 // Stopping at the East side of the block:
 345:main.c        ****                 moveDynamic(-BLOCK_WIDTH/2,SPEED,TRUE);
 667              		.loc 1 345 0
 668 0314 0122     		movs	r2, #1
 669 0316 C821     		movs	r1, #200
 670 0318 6FF02C00 		mvn	r0, #44
 671 031c FFF7FEFF 		bl	moveDynamic
 672              	.LVL106:
 346:main.c        ****                 moveUntil(block_threshold, BACKWARD, GREATER_THAN, SIDE_RIGHT, SPEED, TRUE);  
ARM GAS  C:\Users\Misha\AppData\Local\Temp\ccIfQyo5.s 			page 19


 673              		.loc 1 346 0
 674 0320 0127     		movs	r7, #1
 675 0322 0197     		str	r7, [sp, #4]
 676 0324 4FF0C809 		mov	r9, #200
 677 0328 CDF80090 		str	r9, [sp]
 678 032c 0323     		movs	r3, #3
 679 032e 4FF0FF32 		mov	r2, #-1
 680 0332 0021     		movs	r1, #0
 681 0334 2846     		mov	r0, r5
 682 0336 FFF7FEFF 		bl	moveUntil
 683              	.LVL107:
 347:main.c        ****                                     // this will move backwards until no longer hitting the block, 
 348:main.c        ****                 blinkLED(GREEN,1000);      // To show it ended at the correct spot
 684              		.loc 1 348 0
 685 033a 4FF47A71 		mov	r1, #1000
 686 033e 0220     		movs	r0, #2
 687 0340 FFF7FEFF 		bl	blinkLED
 688              	.LVL108:
 349:main.c        ****                 
 350:main.c        ****                 // Updating the East Clearance:
 351:main.c        ****                 //distanceSensor(FRONT_LEFT);     // checks how far we have travelled
 352:main.c        ****                 //CyDelay(50);
 353:main.c        ****                 
 354:main.c        ****                 //block_location[EAST] = ARENA_WIDTH - sensor_distances[FRONT_LEFT] - DISTANCE_BACK
 355:main.c        ****                                                             // double check the distance back senso
 356:main.c        ****                  
 357:main.c        ****                 
 358:main.c        ****                 distanceSensor(BACK_RIGHT);
 689              		.loc 1 358 0
 690 0344 0420     		movs	r0, #4
 691 0346 FFF7FEFF 		bl	distanceSensor
 692              	.LVL109:
 359:main.c        ****                 CyDelay(50);
 693              		.loc 1 359 0
 694 034a 3220     		movs	r0, #50
 695 034c FFF7FEFF 		bl	CyDelay
 696              	.LVL110:
 360:main.c        ****                 block_location[EAST] = sensor_distances[BACK_RIGHT] + DISTANCE_BACK_SENSOR_TO_SIDE_
 697              		.loc 1 360 0
 698 0350 3369     		ldr	r3, [r6, #16]
 699 0352 6433     		adds	r3, r3, #100
 700 0354 CAF83430 		str	r3, [r10, #52]
 361:main.c        ****                 
 362:main.c        ****                 
 363:main.c        ****                 
 364:main.c        ****                 
 365:main.c        ****                 
 366:main.c        ****                 sprintf(output, "east block front sensor: %d, \n", sensor_distances[FRONT_LEFT] ); 
 701              		.loc 1 366 0
 702 0358 3268     		ldr	r2, [r6]
 703 035a 4A49     		ldr	r1, .L51+28
 704 035c 4046     		mov	r0, r8
 705 035e FFF7FEFF 		bl	sprintf
 706              	.LVL111:
 367:main.c        ****                 UART_1_PutString(output);
 707              		.loc 1 367 0
 708 0362 4046     		mov	r0, r8
ARM GAS  C:\Users\Misha\AppData\Local\Temp\ccIfQyo5.s 			page 20


 709 0364 FFF7FEFF 		bl	UART_1_PutString
 710              	.LVL112:
 368:main.c        ****                 
 369:main.c        ****                 // Find where the pucks are: 
 370:main.c        ****                 moveDynamic(-BLOCK_WIDTH/2,SPEED,TRUE);
 711              		.loc 1 370 0
 712 0368 3A46     		mov	r2, r7
 713 036a 4946     		mov	r1, r9
 714 036c 6FF02C00 		mvn	r0, #44
 715 0370 FFF7FEFF 		bl	moveDynamic
 716              	.LVL113:
 371:main.c        ****                 moveUntil(puck_threshold, BACKWARD, LESS_THAN, SIDE_RIGHT, SPEED, TRUE);  
 717              		.loc 1 371 0
 718 0374 0197     		str	r7, [sp, #4]
 719 0376 CDF80090 		str	r9, [sp]
 720 037a 0323     		movs	r3, #3
 721 037c 3A46     		mov	r2, r7
 722 037e 0021     		movs	r1, #0
 723 0380 2046     		mov	r0, r4
 724 0382 FFF7FEFF 		bl	moveUntil
 725              	.LVL114:
 372:main.c        ****                 
 373:main.c        ****                 distanceSensor(FRONT_LEFT);
 726              		.loc 1 373 0
 727 0386 0020     		movs	r0, #0
 728 0388 FFF7FEFF 		bl	distanceSensor
 729              	.LVL115:
 374:main.c        ****                 CyDelay(50);
 730              		.loc 1 374 0
 731 038c 3220     		movs	r0, #50
 732 038e FFF7FEFF 		bl	CyDelay
 733              	.LVL116:
 375:main.c        ****                 
 376:main.c        ****                 int offset = sensor_distances[SIDE_RIGHT]*sin(18*M_PI/180);
 734              		.loc 1 376 0
 735 0392 F068     		ldr	r0, [r6, #12]
 736 0394 FFF7FEFF 		bl	__aeabi_i2d
 737              	.LVL117:
 738 0398 33A3     		adr	r3, .L51
 739 039a D3E90023 		ldrd	r2, [r3]
 740 039e FFF7FEFF 		bl	__aeabi_dmul
 741              	.LVL118:
 742 03a2 FFF7FEFF 		bl	__aeabi_d2iz
 743              	.LVL119:
 744 03a6 0746     		mov	r7, r0
 745              	.LVL120:
 377:main.c        ****                 if (sensor_distances[FRONT_LEFT] < 300) { offset = 0; }      // set the offset to 0
 746              		.loc 1 377 0
 747 03a8 3368     		ldr	r3, [r6]
 748 03aa B3F5967F 		cmp	r3, #300
 749 03ae 00DA     		bge	.L23
 750 03b0 0027     		movs	r7, #0
 751              	.L23:
 752              	.LVL121:
 378:main.c        ****                 // puck detected
 379:main.c        ****                 // puck detectedDISTANCE_FRONT_SENSOR_TO_SIDE_SENSOR\\\\
 380:main.c        ****                 
ARM GAS  C:\Users\Misha\AppData\Local\Temp\ccIfQyo5.s 			page 21


 381:main.c        ****                 sprintf(output, "offset: %d, \n", offset);       
 753              		.loc 1 381 0
 754 03b2 DFF8C080 		ldr	r8, .L51+12
 755 03b6 3A46     		mov	r2, r7
 756 03b8 3349     		ldr	r1, .L51+32
 757 03ba 4046     		mov	r0, r8
 758 03bc FFF7FEFF 		bl	sprintf
 759              	.LVL122:
 382:main.c        ****                 UART_1_PutString(output);
 760              		.loc 1 382 0
 761 03c0 4046     		mov	r0, r8
 762 03c2 FFF7FEFF 		bl	UART_1_PutString
 763              	.LVL123:
 383:main.c        ****                 
 384:main.c        ****                 puck_location[WEST] = sensor_distances[FRONT_LEFT] + DISTANCE_FRONT_SENSOR_TO_SIDE_
 764              		.loc 1 384 0
 765 03c6 2A4D     		ldr	r5, .L51+8
 766              	.LVL124:
 767 03c8 2A68     		ldr	r2, [r5]
 768 03ca 02F19603 		add	r3, r2, #150
 769 03ce 3B44     		add	r3, r3, r7
 770 03d0 2E4E     		ldr	r6, .L51+36
 771 03d2 F364     		str	r3, [r6, #76]
 385:main.c        ****                 puck_location[EAST] = ARENA_WIDTH - puck_location[WEST] - PUCK_GRID_WIDTH;
 772              		.loc 1 385 0
 773 03d4 40F2A237 		movw	r7, #930
 774              	.LVL125:
 775 03d8 FB1A     		subs	r3, r7, r3
 776 03da 7364     		str	r3, [r6, #68]
 386:main.c        ****                 
 387:main.c        ****                 sprintf(output, "west puck front sensor: %d, \n", sensor_distances[FRONT_LEFT] );  
 777              		.loc 1 387 0
 778 03dc 2C49     		ldr	r1, .L51+40
 779 03de 4046     		mov	r0, r8
 780 03e0 FFF7FEFF 		bl	sprintf
 781              	.LVL126:
 388:main.c        ****                 UART_1_PutString(output);
 782              		.loc 1 388 0
 783 03e4 4046     		mov	r0, r8
 784 03e6 FFF7FEFF 		bl	UART_1_PutString
 785              	.LVL127:
 389:main.c        ****                 
 390:main.c        ****                 blinkLED(BLUE,1000);   // puck location was succesfully found    
 786              		.loc 1 390 0
 787 03ea 4FF47A71 		mov	r1, #1000
 788 03ee 0320     		movs	r0, #3
 789 03f0 FFF7FEFF 		bl	blinkLED
 790              	.LVL128:
 391:main.c        ****                 
 392:main.c        ****                 
 393:main.c        ****                 // New stuff (HOPEFULLY BETTER):
 394:main.c        ****                 moveUntil(puck_threshold, BACKWARD, GREATER_THAN, SIDE_RIGHT, SPEED, TRUE);  
 791              		.loc 1 394 0
 792 03f4 0123     		movs	r3, #1
 793 03f6 0193     		str	r3, [sp, #4]
 794 03f8 C823     		movs	r3, #200
 795 03fa 0093     		str	r3, [sp]
ARM GAS  C:\Users\Misha\AppData\Local\Temp\ccIfQyo5.s 			page 22


 796 03fc 0323     		movs	r3, #3
 797 03fe 4FF0FF32 		mov	r2, #-1
 798 0402 0021     		movs	r1, #0
 799 0404 2046     		mov	r0, r4
 800 0406 FFF7FEFF 		bl	moveUntil
 801              	.LVL129:
 395:main.c        ****                 blinkLED(BLUE,1000);   // puck location was succesfully found    
 802              		.loc 1 395 0
 803 040a 4FF47A71 		mov	r1, #1000
 804 040e 0320     		movs	r0, #3
 805 0410 FFF7FEFF 		bl	blinkLED
 806              	.LVL130:
 396:main.c        ****                 
 397:main.c        ****                 distanceSensor(BACK_LEFT);  // changing this to front sensor might work better
 807              		.loc 1 397 0
 808 0414 0620     		movs	r0, #6
 809 0416 FFF7FEFF 		bl	distanceSensor
 810              	.LVL131:
 398:main.c        ****                 CyDelay(50);
 811              		.loc 1 398 0
 812 041a 3220     		movs	r0, #50
 813 041c FFF7FEFF 		bl	CyDelay
 814              	.LVL132:
 399:main.c        ****                 
 400:main.c        ****                 offset = sensor_distances[SIDE_RIGHT]*sin(18*M_PI/180); 
 815              		.loc 1 400 0
 816 0420 E868     		ldr	r0, [r5, #12]
 817 0422 FFF7FEFF 		bl	__aeabi_i2d
 818              	.LVL133:
 819 0426 10A3     		adr	r3, .L51
 820 0428 D3E90023 		ldrd	r2, [r3]
 821 042c FFF7FEFF 		bl	__aeabi_dmul
 822              	.LVL134:
 823 0430 FFF7FEFF 		bl	__aeabi_d2iz
 824              	.LVL135:
 401:main.c        ****                 
 402:main.c        ****                 puck_location[EAST] = sensor_distances[BACK_LEFT] + DISTANCE_BACK_SENSOR_TO_SIDE_SE
 825              		.loc 1 402 0
 826 0434 AB69     		ldr	r3, [r5, #24]
 827 0436 6433     		adds	r3, r3, #100
 828 0438 1844     		add	r0, r0, r3
 829              	.LVL136:
 830 043a 7064     		str	r0, [r6, #68]
 403:main.c        ****                 puck_location[WEST] = ARENA_WIDTH - puck_location[EAST] - PUCK_GRID_WIDTH;  
 831              		.loc 1 403 0
 832 043c 381A     		subs	r0, r7, r0
 833 043e F064     		str	r0, [r6, #76]
 404:main.c        **** 
 405:main.c        ****                     
 406:main.c        ****                 // if we reach the end of the wall without tripping the pucks, 
 407:main.c        ****                 // assume pucks are located relatively above block
 408:main.c        ****                 
 409:main.c        ****                 distanceSensor(BACK_LEFT);
 834              		.loc 1 409 0
 835 0440 0620     		movs	r0, #6
 836 0442 FFF7FEFF 		bl	distanceSensor
 837              	.LVL137:
ARM GAS  C:\Users\Misha\AppData\Local\Temp\ccIfQyo5.s 			page 23


 410:main.c        ****                 CyDelay(50);
 838              		.loc 1 410 0
 839 0446 3220     		movs	r0, #50
 840 0448 FFF7FEFF 		bl	CyDelay
 841              	.LVL138:
 411:main.c        ****                 
 412:main.c        ****                 if (sensor_distances[BACK_LEFT] < 150) { 
 842              		.loc 1 412 0
 843 044c AB69     		ldr	r3, [r5, #24]
 844 044e 952B     		cmp	r3, #149
 845 0450 00F3BC80 		bgt	.L24
 413:main.c        ****                     UART_1_PutString("thinks pucks are behind block\n");
 846              		.loc 1 413 0
 847 0454 0F48     		ldr	r0, .L51+44
 848 0456 FFF7FEFF 		bl	UART_1_PutString
 849              	.LVL139:
 414:main.c        ****                     puck_location[EAST] = block_location[EAST];
 850              		.loc 1 414 0
 851 045a 736B     		ldr	r3, [r6, #52]
 852 045c 7364     		str	r3, [r6, #68]
 415:main.c        ****                     puck_location[WEST] = ARENA_WIDTH - puck_location[EAST] - PUCK_GRID_WIDTH;
 853              		.loc 1 415 0
 854 045e C3F56873 		rsb	r3, r3, #928
 855 0462 0233     		adds	r3, r3, #2
 856 0464 F364     		str	r3, [r6, #76]
 857 0466 B1E0     		b	.L24
 858              	.L52:
 859              		.align	3
 860              	.L51:
 861 0468 4FE92F37 		.word	925886799
 862 046c EFC6D33F 		.word	1070843631
 863 0470 00000000 		.word	sensor_distances
 864 0474 00000000 		.word	output
 865 0478 6C000000 		.word	.LC5
 866 047c 84000000 		.word	.LC6
 867 0480 9C000000 		.word	.LC7
 868 0484 BC000000 		.word	.LC8
 869 0488 DC000000 		.word	.LC9
 870 048c 00000000 		.word	.LANCHOR0
 871 0490 EC000000 		.word	.LC10
 872 0494 0C010000 		.word	.LC11
 873              	.LVL140:
 874              	.L22:
 875              	.LBE8:
 876              	.LBB9:
 416:main.c        ****                 }
 417:main.c        ****                 
 418:main.c        ****                 
 419:main.c        ****             }
 420:main.c        ****     // HIT THE PUCK FIRST  
 421:main.c        ****             else{ 
 422:main.c        ****                 
 423:main.c        ****                 // puck location was succesfully found   
 424:main.c        ****                 //UART_1_PutString("BLOCK FIRST");
 425:main.c        ****                 
 426:main.c        ****                 blinkLED(BLUE,1000); 
 877              		.loc 1 426 0
ARM GAS  C:\Users\Misha\AppData\Local\Temp\ccIfQyo5.s 			page 24


 878 0498 4FF47A71 		mov	r1, #1000
 879 049c 0320     		movs	r0, #3
 880 049e FFF7FEFF 		bl	blinkLED
 881              	.LVL141:
 427:main.c        ****                 
 428:main.c        ****                 distanceSensor(FRONT_LEFT);
 882              		.loc 1 428 0
 883 04a2 0020     		movs	r0, #0
 884 04a4 FFF7FEFF 		bl	distanceSensor
 885              	.LVL142:
 429:main.c        ****                 CyDelay(50);
 886              		.loc 1 429 0
 887 04a8 3220     		movs	r0, #50
 888 04aa FFF7FEFF 		bl	CyDelay
 889              	.LVL143:
 430:main.c        ****                 
 431:main.c        ****                 int offset = sensor_distances[SIDE_RIGHT]*sin(18*M_PI/180);
 890              		.loc 1 431 0
 891 04ae BC4E     		ldr	r6, .L53+8
 892 04b0 F068     		ldr	r0, [r6, #12]
 893 04b2 FFF7FEFF 		bl	__aeabi_i2d
 894              	.LVL144:
 895 04b6 B8A3     		adr	r3, .L53
 896 04b8 D3E90023 		ldrd	r2, [r3]
 897 04bc FFF7FEFF 		bl	__aeabi_dmul
 898              	.LVL145:
 899 04c0 FFF7FEFF 		bl	__aeabi_d2iz
 900              	.LVL146:
 901 04c4 8046     		mov	r8, r0
 902              	.LVL147:
 432:main.c        ****                 if (sensor_distances[FRONT_LEFT] < 300) { offset = 0; }      // set the offset to 0
 903              		.loc 1 432 0
 904 04c6 3268     		ldr	r2, [r6]
 905 04c8 B2F5967F 		cmp	r2, #300
 906 04cc 01DA     		bge	.L25
 907 04ce 4FF00008 		mov	r8, #0
 908              	.L25:
 909              	.LVL148:
 433:main.c        ****                 
 434:main.c        ****                 sprintf(output, "puck distance: %d, \n", sensor_distances[FRONT_LEFT]);       
 910              		.loc 1 434 0
 911 04d2 B44E     		ldr	r6, .L53+12
 912 04d4 B449     		ldr	r1, .L53+16
 913 04d6 3046     		mov	r0, r6
 914 04d8 FFF7FEFF 		bl	sprintf
 915              	.LVL149:
 435:main.c        ****                 UART_1_PutString(output);
 916              		.loc 1 435 0
 917 04dc 3046     		mov	r0, r6
 918 04de FFF7FEFF 		bl	UART_1_PutString
 919              	.LVL150:
 436:main.c        ****                 sprintf(output, "offset: %d, \n", offset);       
 920              		.loc 1 436 0
 921 04e2 4246     		mov	r2, r8
 922 04e4 B149     		ldr	r1, .L53+20
 923 04e6 3046     		mov	r0, r6
 924 04e8 FFF7FEFF 		bl	sprintf
ARM GAS  C:\Users\Misha\AppData\Local\Temp\ccIfQyo5.s 			page 25


 925              	.LVL151:
 437:main.c        ****                 UART_1_PutString(output);
 926              		.loc 1 437 0
 927 04ec 3046     		mov	r0, r6
 928 04ee FFF7FEFF 		bl	UART_1_PutString
 929              	.LVL152:
 438:main.c        ****                 
 439:main.c        ****                 puck_location[WEST] = sensor_distances[FRONT_LEFT] + DISTANCE_FRONT_SENSOR_TO_SIDE_
 930              		.loc 1 439 0
 931 04f2 AB4F     		ldr	r7, .L53+8
 932 04f4 3B68     		ldr	r3, [r7]
 933 04f6 9633     		adds	r3, r3, #150
 934 04f8 4344     		add	r3, r3, r8
 935 04fa AD4E     		ldr	r6, .L53+24
 936 04fc F364     		str	r3, [r6, #76]
 440:main.c        ****                 puck_location[EAST] = ARENA_WIDTH - puck_location[WEST] - PUCK_GRID_WIDTH;
 937              		.loc 1 440 0
 938 04fe 40F2A238 		movw	r8, #930
 939              	.LVL153:
 940 0502 C3EB0803 		rsb	r3, r3, r8
 941 0506 7364     		str	r3, [r6, #68]
 441:main.c        ****                 
 442:main.c        ****                 
 443:main.c        ****                 // New stuff (HOPEFULLY BETTER):
 444:main.c        ****                 moveUntil(puck_threshold, BACKWARD, GREATER_THAN, SIDE_RIGHT, SPEED, TRUE);  
 942              		.loc 1 444 0
 943 0508 4FF00109 		mov	r9, #1
 944 050c CDF80490 		str	r9, [sp, #4]
 945 0510 4FF0C80A 		mov	r10, #200
 946 0514 CDF800A0 		str	r10, [sp]
 947 0518 0323     		movs	r3, #3
 948 051a 4FF0FF32 		mov	r2, #-1
 949 051e 0021     		movs	r1, #0
 950 0520 2046     		mov	r0, r4
 951 0522 FFF7FEFF 		bl	moveUntil
 952              	.LVL154:
 445:main.c        ****                 blinkLED(BLUE,1000);   // puck location was succesfully found    
 953              		.loc 1 445 0
 954 0526 4FF47A71 		mov	r1, #1000
 955 052a 0320     		movs	r0, #3
 956 052c FFF7FEFF 		bl	blinkLED
 957              	.LVL155:
 446:main.c        ****                 
 447:main.c        ****                 distanceSensor(BACK_LEFT);  // changing this to front sensor might work better
 958              		.loc 1 447 0
 959 0530 0620     		movs	r0, #6
 960 0532 FFF7FEFF 		bl	distanceSensor
 961              	.LVL156:
 448:main.c        ****                 CyDelay(50);
 962              		.loc 1 448 0
 963 0536 3220     		movs	r0, #50
 964 0538 FFF7FEFF 		bl	CyDelay
 965              	.LVL157:
 449:main.c        ****                 
 450:main.c        ****                 offset = sensor_distances[SIDE_RIGHT]*sin(18*M_PI/180); 
 966              		.loc 1 450 0
 967 053c F868     		ldr	r0, [r7, #12]
ARM GAS  C:\Users\Misha\AppData\Local\Temp\ccIfQyo5.s 			page 26


 968 053e FFF7FEFF 		bl	__aeabi_i2d
 969              	.LVL158:
 970 0542 95A3     		adr	r3, .L53
 971 0544 D3E90023 		ldrd	r2, [r3]
 972 0548 FFF7FEFF 		bl	__aeabi_dmul
 973              	.LVL159:
 974 054c FFF7FEFF 		bl	__aeabi_d2iz
 975              	.LVL160:
 451:main.c        ****                 
 452:main.c        ****                 puck_location[EAST] = sensor_distances[BACK_LEFT] + DISTANCE_BACK_SENSOR_TO_SIDE_SE
 976              		.loc 1 452 0
 977 0550 BB69     		ldr	r3, [r7, #24]
 978 0552 6433     		adds	r3, r3, #100
 979 0554 1844     		add	r0, r0, r3
 980              	.LVL161:
 981 0556 7064     		str	r0, [r6, #68]
 453:main.c        ****                 puck_location[WEST] = ARENA_WIDTH - puck_location[EAST] - PUCK_GRID_WIDTH;  
 982              		.loc 1 453 0
 983 0558 C0EB0800 		rsb	r0, r0, r8
 984 055c F064     		str	r0, [r6, #76]
 454:main.c        ****                 
 455:main.c        ****                 
 456:main.c        ****                 
 457:main.c        ****                 
 458:main.c        ****                 // Finding the block location:
 459:main.c        ****                 moveUntil(block_threshold, BACKWARD, LESS_THAN, SIDE_RIGHT, SPEED, TRUE);  
 985              		.loc 1 459 0
 986 055e CDF80490 		str	r9, [sp, #4]
 987 0562 CDF800A0 		str	r10, [sp]
 988 0566 0323     		movs	r3, #3
 989 0568 4A46     		mov	r2, r9
 990 056a 0021     		movs	r1, #0
 991 056c 2846     		mov	r0, r5
 992 056e FFF7FEFF 		bl	moveUntil
 993              	.LVL162:
 460:main.c        ****                 blinkLED(GREEN,1000);   
 994              		.loc 1 460 0
 995 0572 4FF47A71 		mov	r1, #1000
 996 0576 0220     		movs	r0, #2
 997 0578 FFF7FEFF 		bl	blinkLED
 998              	.LVL163:
 461:main.c        ****                 
 462:main.c        ****                 // Find the WEST clearance of the block: 
 463:main.c        ****                 distanceSensor(FRONT_LEFT); // Use front_right instead? 
 999              		.loc 1 463 0
 1000 057c 0020     		movs	r0, #0
 1001 057e FFF7FEFF 		bl	distanceSensor
 1002              	.LVL164:
 464:main.c        ****                 CyDelay(DELAY);
 1003              		.loc 1 464 0
 1004 0582 3C20     		movs	r0, #60
 1005 0584 FFF7FEFF 		bl	CyDelay
 1006              	.LVL165:
 465:main.c        ****                 
 466:main.c        ****                 block_location[WEST] = sensor_distances[FRONT_LEFT] + DISTANCE_FRONT_SENSOR_TO_SIDE
 1007              		.loc 1 466 0
 1008 0588 3B68     		ldr	r3, [r7]
ARM GAS  C:\Users\Misha\AppData\Local\Temp\ccIfQyo5.s 			page 27


 1009 058a 9633     		adds	r3, r3, #150
 1010 058c F363     		str	r3, [r6, #60]
 467:main.c        ****                 
 468:main.c        ****                 // Stopping at the East side of the block: 
 469:main.c        ****                 moveDynamic(-BLOCK_WIDTH/2,SPEED,TRUE);
 1011              		.loc 1 469 0
 1012 058e 4A46     		mov	r2, r9
 1013 0590 5146     		mov	r1, r10
 1014 0592 6FF02C00 		mvn	r0, #44
 1015 0596 FFF7FEFF 		bl	moveDynamic
 1016              	.LVL166:
 470:main.c        ****                 moveUntil(block_threshold, BACKWARD, GREATER_THAN, SIDE_RIGHT, SPEED, TRUE);  
 1017              		.loc 1 470 0
 1018 059a CDF80490 		str	r9, [sp, #4]
 1019 059e CDF800A0 		str	r10, [sp]
 1020 05a2 0323     		movs	r3, #3
 1021 05a4 4FF0FF32 		mov	r2, #-1
 1022 05a8 0021     		movs	r1, #0
 1023 05aa 2846     		mov	r0, r5
 1024 05ac FFF7FEFF 		bl	moveUntil
 1025              	.LVL167:
 471:main.c        ****                                     // this will move backwards until no longer hitting the block, 
 472:main.c        ****                 blinkLED(GREEN,1000);      // To show it ended at the correct spot
 1026              		.loc 1 472 0
 1027 05b0 4FF47A71 		mov	r1, #1000
 1028 05b4 0220     		movs	r0, #2
 1029 05b6 FFF7FEFF 		bl	blinkLED
 1030              	.LVL168:
 473:main.c        ****                 
 474:main.c        ****                 // Updating the East Clearance:
 475:main.c        ****                 //distanceSensor(FRONT_LEFT);     // checks how far we have travelled
 476:main.c        ****                 //CyDelay(50);
 477:main.c        ****                 
 478:main.c        ****                 //block_location[EAST] = ARENA_WIDTH - sensor_distances[FRONT_LEFT] - DISTANCE_FRON
 479:main.c        ****                                                             // double check the distance back senso
 480:main.c        ****             
 481:main.c        ****                 distanceSensor(BACK_RIGHT);
 1031              		.loc 1 481 0
 1032 05ba 0420     		movs	r0, #4
 1033 05bc FFF7FEFF 		bl	distanceSensor
 1034              	.LVL169:
 482:main.c        ****                 CyDelay(50);
 1035              		.loc 1 482 0
 1036 05c0 3220     		movs	r0, #50
 1037 05c2 FFF7FEFF 		bl	CyDelay
 1038              	.LVL170:
 483:main.c        ****                 block_location[EAST] = sensor_distances[BACK_RIGHT] + DISTANCE_BACK_SENSOR_TO_SIDE_
 1039              		.loc 1 483 0
 1040 05c6 3B69     		ldr	r3, [r7, #16]
 1041 05c8 6433     		adds	r3, r3, #100
 1042 05ca 7363     		str	r3, [r6, #52]
 1043              	.LVL171:
 1044              	.L24:
 1045              	.LBE9:
 484:main.c        ****             
 485:main.c        ****             
 486:main.c        ****             }
ARM GAS  C:\Users\Misha\AppData\Local\Temp\ccIfQyo5.s 			page 28


 487:main.c        ****                         
 488:main.c        ****                 
 489:main.c        ****             sprintf(output, "west puck: %d, \n", puck_location[WEST]);       
 1046              		.loc 1 489 0
 1047 05cc 784D     		ldr	r5, .L53+24
 1048 05ce 754C     		ldr	r4, .L53+12
 1049              	.LVL172:
 1050 05d0 EA6C     		ldr	r2, [r5, #76]
 1051 05d2 7849     		ldr	r1, .L53+28
 1052 05d4 2046     		mov	r0, r4
 1053 05d6 FFF7FEFF 		bl	sprintf
 1054              	.LVL173:
 490:main.c        ****             UART_1_PutString(output);
 1055              		.loc 1 490 0
 1056 05da 2046     		mov	r0, r4
 1057 05dc FFF7FEFF 		bl	UART_1_PutString
 1058              	.LVL174:
 491:main.c        ****             sprintf(output, "east puck: %d, \n\n", puck_location[EAST]);       
 1059              		.loc 1 491 0
 1060 05e0 6A6C     		ldr	r2, [r5, #68]
 1061 05e2 7549     		ldr	r1, .L53+32
 1062 05e4 2046     		mov	r0, r4
 1063 05e6 FFF7FEFF 		bl	sprintf
 1064              	.LVL175:
 492:main.c        ****             UART_1_PutString(output);
 1065              		.loc 1 492 0
 1066 05ea 2046     		mov	r0, r4
 1067 05ec FFF7FEFF 		bl	UART_1_PutString
 1068              	.LVL176:
 493:main.c        ****             
 494:main.c        ****             sprintf(output, "west block: %d, \n", block_location[WEST]);       
 1069              		.loc 1 494 0
 1070 05f0 EA6B     		ldr	r2, [r5, #60]
 1071 05f2 7249     		ldr	r1, .L53+36
 1072 05f4 2046     		mov	r0, r4
 1073 05f6 FFF7FEFF 		bl	sprintf
 1074              	.LVL177:
 495:main.c        ****             UART_1_PutString(output);
 1075              		.loc 1 495 0
 1076 05fa 2046     		mov	r0, r4
 1077 05fc FFF7FEFF 		bl	UART_1_PutString
 1078              	.LVL178:
 496:main.c        ****             sprintf(output, "east block: %d, \n", block_location[EAST]);       
 1079              		.loc 1 496 0
 1080 0600 6A6B     		ldr	r2, [r5, #52]
 1081 0602 6F49     		ldr	r1, .L53+40
 1082 0604 2046     		mov	r0, r4
 1083 0606 FFF7FEFF 		bl	sprintf
 1084              	.LVL179:
 497:main.c        ****             UART_1_PutString(output);
 1085              		.loc 1 497 0
 1086 060a 2046     		mov	r0, r4
 1087 060c FFF7FEFF 		bl	UART_1_PutString
 1088              	.LVL180:
 498:main.c        **** 
 499:main.c        ****             
 500:main.c        ****             // END OF CODE FOR BLOCK AND PUCK CHECKING 
ARM GAS  C:\Users\Misha\AppData\Local\Temp\ccIfQyo5.s 			page 29


 501:main.c        ****             
 502:main.c        ****             //while(1) {}
 503:main.c        ****           
 504:main.c        ****             changeOrientation(EAST,SPEED);
 1089              		.loc 1 504 0
 1090 0610 C821     		movs	r1, #200
 1091 0612 0120     		movs	r0, #1
 1092 0614 FFF7FEFF 		bl	changeOrientation
 1093              	.LVL181:
 505:main.c        ****             moveUntil(CLEARANCE_RADIUS_CENTER_TO_FRONT + SAFETY_MARGIN/2, FORWARD, LESS_THAN, FRONT
 1094              		.loc 1 505 0
 1095 0618 0121     		movs	r1, #1
 1096 061a 0191     		str	r1, [sp, #4]
 1097 061c C823     		movs	r3, #200
 1098 061e 0093     		str	r3, [sp]
 1099 0620 0023     		movs	r3, #0
 1100 0622 0A46     		mov	r2, r1
 1101 0624 AC20     		movs	r0, #172
 1102 0626 FFF7FEFF 		bl	moveUntil
 1103              	.LVL182:
 506:main.c        ****             translateUntil(CLEARANCE_RADIUS_CENTER_TO_BACK - SAFETY_MARGIN, 200, LEFT, GREATER_THAN
 1104              		.loc 1 506 0
 1105 062a 4FF0FF33 		mov	r3, #-1
 1106 062e 0222     		movs	r2, #2
 1107 0630 6449     		ldr	r1, .L53+44
 1108 0632 9B20     		movs	r0, #155
 1109 0634 FFF7FEFF 		bl	translateUntil
 1110              	.LVL183:
 507:main.c        ****             straightAdjust(FRONT_MIDDLE);
 1111              		.loc 1 507 0
 1112 0638 0520     		movs	r0, #5
 1113 063a FFF7FEFF 		bl	straightAdjust
 1114              	.LVL184:
 508:main.c        ****             
 509:main.c        ****             
 510:main.c        ****             //while(1) {}
 511:main.c        ****             
 512:main.c        **** 
 513:main.c        ****             
 514:main.c        ****             // Finding the different block & puck clearances: 
 515:main.c        ****             
 516:main.c        ****                     // there should be a threshold that allows the robot to travel through a cleara
 517:main.c        ****                     // E.g. robot width + 100mm
 518:main.c        ****             
 519:main.c        ****                     // the robot will travel to the chosen (block_clearance/2) and travel down ther
 520:main.c        ****                     // so it is in the middle of the block clearance and the wall 
 521:main.c        ****             
 522:main.c        ****                     // check if between the edge of the block and the puck zone gives enough cleara
 523:main.c        ****                     
 524:main.c        ****             
 525:main.c        ****             if (block_location[EAST] > WIDTH_WHEEL_TO_WHEEL + BLOCK_TOLERANCE) {
 1115              		.loc 1 525 0
 1116 063e 6B6B     		ldr	r3, [r5, #52]
 1117 0640 B3F5847F 		cmp	r3, #264
 1118 0644 02DD     		ble	.L26
 526:main.c        ****                 // the east clearance of block check
 527:main.c        ****               block_east_clearance = 1;  
ARM GAS  C:\Users\Misha\AppData\Local\Temp\ccIfQyo5.s 			page 30


 1119              		.loc 1 527 0
 1120 0646 0122     		movs	r2, #1
 1121 0648 A5F85020 		strh	r2, [r5, #80]	@ movhi
 1122              	.L26:
 528:main.c        ****             }
 529:main.c        ****             if (block_location[WEST] > WIDTH_WHEEL_TO_WHEEL + BLOCK_TOLERANCE) {
 1123              		.loc 1 529 0
 1124 064c 584B     		ldr	r3, .L53+24
 1125 064e DB6B     		ldr	r3, [r3, #60]
 1126 0650 B3F5847F 		cmp	r3, #264
 1127 0654 03DD     		ble	.L27
 530:main.c        ****                 // the east clearance of block check
 531:main.c        ****               block_west_clearance = 1;  
 1128              		.loc 1 531 0
 1129 0656 0122     		movs	r2, #1
 1130 0658 554B     		ldr	r3, .L53+24
 1131 065a A3F85220 		strh	r2, [r3, #82]	@ movhi
 1132              	.L27:
 532:main.c        ****             }
 533:main.c        ****             if (puck_location[EAST] > WIDTH_WHEEL_TO_WHEEL + BLOCK_TOLERANCE) {
 1133              		.loc 1 533 0
 1134 065e 544B     		ldr	r3, .L53+24
 1135 0660 5B6C     		ldr	r3, [r3, #68]
 1136 0662 B3F5847F 		cmp	r3, #264
 1137 0666 03DD     		ble	.L28
 534:main.c        ****                 // the east clearance of block check
 535:main.c        ****               puck_east_clearance = 1;  
 1138              		.loc 1 535 0
 1139 0668 0122     		movs	r2, #1
 1140 066a 514B     		ldr	r3, .L53+24
 1141 066c A3F85420 		strh	r2, [r3, #84]	@ movhi
 1142              	.L28:
 536:main.c        ****             }
 537:main.c        ****             if (puck_location[WEST] > WIDTH_WHEEL_TO_WHEEL + BLOCK_TOLERANCE) {
 1143              		.loc 1 537 0
 1144 0670 4F4B     		ldr	r3, .L53+24
 1145 0672 DB6C     		ldr	r3, [r3, #76]
 1146 0674 B3F5847F 		cmp	r3, #264
 1147 0678 03DD     		ble	.L29
 538:main.c        ****                 // the east clearance of block check
 539:main.c        ****               puck_west_clearance = 1;  
 1148              		.loc 1 539 0
 1149 067a 0122     		movs	r2, #1
 1150 067c 4C4B     		ldr	r3, .L53+24
 1151 067e A3F85620 		strh	r2, [r3, #86]	@ movhi
 1152              	.L29:
 540:main.c        ****             }
 541:main.c        ****             
 542:main.c        ****             
 543:main.c        ****             
 544:main.c        ****             
 545:main.c        ****             sprintf(output, "west puck clearance: %d, \n", puck_west_clearance);       
 1153              		.loc 1 545 0
 1154 0682 4B4D     		ldr	r5, .L53+24
 1155 0684 474C     		ldr	r4, .L53+12
 1156 0686 B5F95620 		ldrsh	r2, [r5, #86]
 1157 068a 4F49     		ldr	r1, .L53+48
ARM GAS  C:\Users\Misha\AppData\Local\Temp\ccIfQyo5.s 			page 31


 1158 068c 2046     		mov	r0, r4
 1159 068e FFF7FEFF 		bl	sprintf
 1160              	.LVL185:
 546:main.c        ****             UART_1_PutString(output);
 1161              		.loc 1 546 0
 1162 0692 2046     		mov	r0, r4
 1163 0694 FFF7FEFF 		bl	UART_1_PutString
 1164              	.LVL186:
 547:main.c        ****             sprintf(output, "east puck clearance: %d, \n\n", puck_east_clearance);       
 1165              		.loc 1 547 0
 1166 0698 B5F95420 		ldrsh	r2, [r5, #84]
 1167 069c 4B49     		ldr	r1, .L53+52
 1168 069e 2046     		mov	r0, r4
 1169 06a0 FFF7FEFF 		bl	sprintf
 1170              	.LVL187:
 548:main.c        ****             UART_1_PutString(output);
 1171              		.loc 1 548 0
 1172 06a4 2046     		mov	r0, r4
 1173 06a6 FFF7FEFF 		bl	UART_1_PutString
 1174              	.LVL188:
 549:main.c        ****             
 550:main.c        ****             sprintf(output, "west block clearance: %d, \n", block_west_clearance);       
 1175              		.loc 1 550 0
 1176 06aa B5F95220 		ldrsh	r2, [r5, #82]
 1177 06ae 4849     		ldr	r1, .L53+56
 1178 06b0 2046     		mov	r0, r4
 1179 06b2 FFF7FEFF 		bl	sprintf
 1180              	.LVL189:
 551:main.c        ****             UART_1_PutString(output);
 1181              		.loc 1 551 0
 1182 06b6 2046     		mov	r0, r4
 1183 06b8 FFF7FEFF 		bl	UART_1_PutString
 1184              	.LVL190:
 552:main.c        ****             sprintf(output, "east block clearance: %d, \n", block_east_clearance);       
 1185              		.loc 1 552 0
 1186 06bc B5F95020 		ldrsh	r2, [r5, #80]
 1187 06c0 4449     		ldr	r1, .L53+60
 1188 06c2 2046     		mov	r0, r4
 1189 06c4 FFF7FEFF 		bl	sprintf
 1190              	.LVL191:
 553:main.c        ****             UART_1_PutString(output);
 1191              		.loc 1 553 0
 1192 06c8 2046     		mov	r0, r4
 1193 06ca FFF7FEFF 		bl	UART_1_PutString
 1194              	.LVL192:
 554:main.c        ****             
 555:main.c        ****             
 556:main.c        ****             
 557:main.c        ****             
 558:main.c        ****             
 559:main.c        ****             
 560:main.c        ****             
 561:main.c        ****            // while(1) {} // just want to do the block and puck finding
 562:main.c        ****             
 563:main.c        ****             //changeOrientation(WEST,SPEED);
 564:main.c        ****             //moveDynamic(-600, SPEED, TRUE);
 565:main.c        ****             //moveUntil((puck_location[EAST]/2),FORWARD, LESS_THAN, FRONT_LEFT, SPEED, TRUE);
ARM GAS  C:\Users\Misha\AppData\Local\Temp\ccIfQyo5.s 			page 32


 566:main.c        ****             //straightAdjust();
 567:main.c        ****             //changeOrientation(WEST,SPEED);
 568:main.c        ****             //moveUntil((PUCK_GRID_FROM_NORTH/2), FORWARD, LESS_THAN, FRONT_LEFT, SPEED,TRUE);
 569:main.c        ****             //straightAdjust();
 570:main.c        ****             //changeOrientation(EAST, SPEED);
 571:main.c        ****             ///oveDynamic(1200, SPEED, TRUE);
 572:main.c        ****             
 573:main.c        **** 
 574:main.c        ****             
 575:main.c        ****             /*
 576:main.c        ****             moveUntil(200, BACKWARD, GREATER_THAN, FRONT_LEFT, SPEED, TRUE);
 577:main.c        ****             changeOrientation(SOUTH,SPEED);
 578:main.c        ****             changeOrientation(EAST, SPEED);
 579:main.c        ****             straightAdjust(FRONT_SENSORS);
 580:main.c        ****             moveUntil(CLEARANCE_RADIUS_CENTER_TO_FRONT + SAFETY_MARGIN/2, FORWARD, LESS_THAN, FRONT
 581:main.c        ****             translateUntil(CLEARANCE_RADIUS_CENTER_TO_BACK - SAFETY_MARGIN, 200, LEFT, GREATER_THAN
 582:main.c        ****             straightAdjust(FRONT_SENSORS);
 583:main.c        ****             */
 584:main.c        ****             
 585:main.c        ****             // PUCK has now been found, enter the IF statements to locate and pick up pucks 
 586:main.c        ****             state = STATE_GO_TO_PUCKS;
 1195              		.loc 1 586 0
 1196 06ce 0323     		movs	r3, #3
 1197 06d0 6B60     		str	r3, [r5, #4]
 1198              	.L19:
 1199              	.LBE7:
 587:main.c        **** 	    }     
 588:main.c        **** 
 589:main.c        **** //
 590:main.c        **** // *** 3. STATE GO TO PUCKS: *** // 
 591:main.c        **** //
 592:main.c        **** 
 593:main.c        ****         // Ensure that we are @ east wall facing east at a minimum verticaldistance so we can turn 
 594:main.c        ****         
 595:main.c        ****         if (state == STATE_GO_TO_PUCKS){
 1200              		.loc 1 595 0
 1201 06d2 374B     		ldr	r3, .L53+24
 1202 06d4 5B68     		ldr	r3, [r3, #4]
 1203 06d6 032B     		cmp	r3, #3
 1204 06d8 40F0CE80 		bne	.L30
 596:main.c        ****             
 597:main.c        ****             //Remove after testing
 598:main.c        ****             
 599:main.c        ****             puck_east_clearance = 1;
 1205              		.loc 1 599 0
 1206 06dc 344B     		ldr	r3, .L53+24
 1207 06de 0122     		movs	r2, #1
 1208 06e0 A3F85420 		strh	r2, [r3, #84]	@ movhi
 600:main.c        ****             puck_west_clearance = 0;
 1209              		.loc 1 600 0
 1210 06e4 0022     		movs	r2, #0
 1211 06e6 A3F85620 		strh	r2, [r3, #86]	@ movhi
 601:main.c        ****             
 602:main.c        **** 
 603:main.c        ****             // The different route finding Algorithms for the different combinations: 
 604:main.c        ****             
 605:main.c        ****             if (block_east_clearance && puck_east_clearance){
ARM GAS  C:\Users\Misha\AppData\Local\Temp\ccIfQyo5.s 			page 33


 1212              		.loc 1 605 0
 1213 06ea B3F95030 		ldrsh	r3, [r3, #80]
 1214 06ee 002B     		cmp	r3, #0
 1215 06f0 72D0     		beq	.L31
 606:main.c        ****                 
 607:main.c        ****                 moveUntil(WALL_CLEARANCE_FRONT, BACKWARD, GREATER_THAN, FRONT_MIDDLE, SPEED, TRUE);
 1216              		.loc 1 607 0
 1217 06f2 0124     		movs	r4, #1
 1218 06f4 0194     		str	r4, [sp, #4]
 1219 06f6 C825     		movs	r5, #200
 1220 06f8 0095     		str	r5, [sp]
 1221 06fa 0523     		movs	r3, #5
 1222 06fc 4FF0FF32 		mov	r2, #-1
 1223 0700 0021     		movs	r1, #0
 1224 0702 2846     		mov	r0, r5
 1225 0704 FFF7FEFF 		bl	moveUntil
 1226              	.LVL193:
 608:main.c        ****                 straightAdjust(FRONT_SENSORS);
 1227              		.loc 1 608 0
 1228 0708 0720     		movs	r0, #7
 1229 070a FFF7FEFF 		bl	straightAdjust
 1230              	.LVL194:
 609:main.c        ****                 changeOrientation(NORTH, SPEED);
 1231              		.loc 1 609 0
 1232 070e 2946     		mov	r1, r5
 1233 0710 0020     		movs	r0, #0
 1234 0712 FFF7FEFF 		bl	changeOrientation
 1235              	.LVL195:
 610:main.c        ****                 straightAdjust(BACK_SENSORS);
 1236              		.loc 1 610 0
 1237 0716 0820     		movs	r0, #8
 1238 0718 FFF7FEFF 		bl	straightAdjust
 1239              	.LVL196:
 611:main.c        ****                 moveUntil(PUCK_GRID_FROM_NORTH - DISTANCE_MIDDLE_SENSOR_TO_CENTER - PUCK_GRID_DISTA
 1240              		.loc 1 611 0
 1241 071c 244F     		ldr	r7, .L53+24
 1242 071e BB6D     		ldr	r3, [r7, #88]
 1243 0720 6FF03606 		mvn	r6, #54
 1244 0724 06FB03F0 		mul	r0, r6, r3
 1245 0728 0194     		str	r4, [sp, #4]
 1246 072a 0095     		str	r5, [sp]
 1247 072c 0523     		movs	r3, #5
 1248 072e 2246     		mov	r2, r4
 1249 0730 2146     		mov	r1, r4
 1250 0732 00F58270 		add	r0, r0, #260
 1251 0736 FFF7FEFF 		bl	moveUntil
 1252              	.LVL197:
 612:main.c        ****                 straightAdjust(FRONT_SENSORS);
 1253              		.loc 1 612 0
 1254 073a 0720     		movs	r0, #7
 1255 073c FFF7FEFF 		bl	straightAdjust
 1256              	.LVL198:
 613:main.c        ****                 changeOrientation(WEST, SPEED);
 1257              		.loc 1 613 0
 1258 0740 2946     		mov	r1, r5
 1259 0742 0320     		movs	r0, #3
 1260 0744 FFF7FEFF 		bl	changeOrientation
ARM GAS  C:\Users\Misha\AppData\Local\Temp\ccIfQyo5.s 			page 34


 1261              	.LVL199:
 614:main.c        ****                 straightAdjust(BACK_SENSORS); /////////////////////////////////////
 1262              		.loc 1 614 0
 1263 0748 0820     		movs	r0, #8
 1264 074a FFF7FEFF 		bl	straightAdjust
 1265              	.LVL200:
 615:main.c        **** 
 616:main.c        ****                 moveUntil(DISTANCE_MIDDLE_STOPPED_FROM_PUCK, FORWARD, LESS_THAN, FRONT_MIDDLE, SPEE
 1266              		.loc 1 616 0
 1267 074e 0194     		str	r4, [sp, #4]
 1268 0750 0095     		str	r5, [sp]
 1269 0752 0523     		movs	r3, #5
 1270 0754 2246     		mov	r2, r4
 1271 0756 2146     		mov	r1, r4
 1272 0758 2846     		mov	r0, r5
 1273 075a FFF7FEFF 		bl	moveUntil
 1274              	.LVL201:
 617:main.c        ****                 changeOrientation(NORTH, SPEED_LOW);
 1275              		.loc 1 617 0
 1276 075e 4621     		movs	r1, #70
 1277 0760 0020     		movs	r0, #0
 1278 0762 FFF7FEFF 		bl	changeOrientation
 1279              	.LVL202:
 618:main.c        ****                 straightAdjust(FRONT_SENSORS); /////////////////////////////////////
 1280              		.loc 1 618 0
 1281 0766 0720     		movs	r0, #7
 1282 0768 FFF7FEFF 		bl	straightAdjust
 1283              	.LVL203:
 619:main.c        ****                 moveForwardThenBackward(PUCK_GRID_FROM_NORTH - DISTANCE_MIDDLE_SENSOR_TO_CENTER - P
 1284              		.loc 1 619 0
 1285 076c B86D     		ldr	r0, [r7, #88]
 1286 076e 06FB00F0 		mul	r0, r6, r0
 1287 0772 0094     		str	r4, [sp]
 1288 0774 4623     		movs	r3, #70
 1289 0776 0522     		movs	r2, #5
 1290 0778 2146     		mov	r1, r4
 1291 077a 00F58270 		add	r0, r0, #260
 1292 077e FFF7FEFF 		bl	moveForwardThenBackward
 1293              	.LVL204:
 620:main.c        ****                 straightAdjust(FRONT_SENSORS);
 1294              		.loc 1 620 0
 1295 0782 0720     		movs	r0, #7
 1296 0784 FFF7FEFF 		bl	straightAdjust
 1297              	.LVL205:
 621:main.c        ****                 changeOrientation(WEST, SPEED_LOW);
 1298              		.loc 1 621 0
 1299 0788 4621     		movs	r1, #70
 1300 078a 0320     		movs	r0, #3
 1301 078c FFF7FEFF 		bl	changeOrientation
 1302              	.LVL206:
 1303 0790 6FE0     		b	.L32
 1304              	.L54:
 1305 0792 00BFAFF3 		.align	3
 1305      0080
 1306              	.L53:
 1307 0798 4FE92F37 		.word	925886799
 1308 079c EFC6D33F 		.word	1070843631
ARM GAS  C:\Users\Misha\AppData\Local\Temp\ccIfQyo5.s 			page 35


 1309 07a0 00000000 		.word	sensor_distances
 1310 07a4 00000000 		.word	output
 1311 07a8 2C010000 		.word	.LC12
 1312 07ac DC000000 		.word	.LC9
 1313 07b0 00000000 		.word	.LANCHOR0
 1314 07b4 44010000 		.word	.LC13
 1315 07b8 58010000 		.word	.LC14
 1316 07bc 6C010000 		.word	.LC15
 1317 07c0 80010000 		.word	.LC16
 1318 07c4 00004843 		.word	1128792064
 1319 07c8 94010000 		.word	.LC17
 1320 07cc B0010000 		.word	.LC18
 1321 07d0 CC010000 		.word	.LC19
 1322 07d4 E8010000 		.word	.LC20
 1323              	.L31:
 622:main.c        ****                 
 623:main.c        ****             }
 624:main.c        ****             
 625:main.c        ****             else if (block_west_clearance && puck_west_clearance){
 1324              		.loc 1 625 0
 1325 07d8 874B     		ldr	r3, .L55
 1326 07da B3F95230 		ldrsh	r3, [r3, #82]
 626:main.c        ****             
 627:main.c        ****                 //moveUntil(CLEARANCE_RADIUS_CENTER_TO_FRONT, BACKWARD, GREATER_THAN, FRONT_LEFT, S
 628:main.c        ****                 moveUntil(CLEARANCE_RADIUS_CENTER_TO_BACK - DISTANCE_BACK_SENSOR_FROM_CENTER, BACKW
 629:main.c        ****                 straightAdjust(FRONT_SENSORS); //? Remove if it fucks things up
 630:main.c        ****                 changeOrientation(NORTH, SPEED);
 631:main.c        ****                 straightAdjust(FRONT_SENSORS); //? Remove if it fucks things up
 632:main.c        ****                 moveUntil(PUCK_GRID_FROM_NORTH - DISTANCE_FRONT_SENSOR_FROM_CENTER - PUCK_GRID_DIST
 633:main.c        ****                 //translateMoveDynamic(CLEARANCE_RADIUS_CENTER_TO_BACK, 10, SPEED, FALSE); // Chang
 634:main.c        ****                 straightAdjust(FRONT_SENSORS);
 635:main.c        ****                 changeOrientation(EAST, SPEED);
 636:main.c        ****                 straightAdjust(BACK_SENSORS);
 637:main.c        **** 
 638:main.c        ****                 moveUntil(DISTANCE_MIDDLE_STOPPED_FROM_PUCK, FORWARD, LESS_THAN, FRONT_MIDDLE, SPEE
 639:main.c        ****                 changeOrientation(NORTH, SPEED_LOW);
 640:main.c        ****                 moveForwardThenBackward(PUCK_GRID_FROM_NORTH - DISTANCE_FRONT_SENSOR_FROM_CENTER - 
 641:main.c        ****                 straightAdjust(FRONT_SENSORS);
 642:main.c        ****                 changeOrientation(EAST, SPEED_LOW);
 643:main.c        ****             }
 644:main.c        ****             
 645:main.c        ****             
 646:main.c        ****             else if (block_east_clearance && puck_west_clearance){
 647:main.c        **** 
 648:main.c        ****                 //moveUntil(block_and_puck_edge_midpoint - DISTANCE_BACK_SENSOR_FROM_CENTER, BACKWA
 649:main.c        ****                 moveUntil(block_location[EAST] - DISTANCE_FRONT_SENSOR_FROM_CENTER - WIDTH_WHEEL_TO
 650:main.c        ****                 straightAdjust(FRONT_SENSORS);
 651:main.c        ****                 changeOrientation(NORTH, SPEED);
 652:main.c        ****                 //straightAdjust();
 653:main.c        ****                 moveUntil(PUCK_GRID_FROM_NORTH - DISTANCE_FRONT_SENSOR_FROM_CENTER - PUCK_GRID_DIST
 654:main.c        ****                 straightAdjust(FRONT_SENSORS);
 655:main.c        ****                 changeOrientation(EAST, SPEED);
 656:main.c        ****                 straightAdjust(BACK_SENSORS);
 657:main.c        ****                 
 658:main.c        ****                 moveUntil(DISTANCE_MIDDLE_STOPPED_FROM_PUCK, FORWARD, LESS_THAN, FRONT_MIDDLE, SPEE
 659:main.c        ****                 changeOrientation(NORTH, SPEED_LOW);
 660:main.c        ****                 moveForwardThenBackward(PUCK_GRID_FROM_NORTH - DISTANCE_FRONT_SENSOR_FROM_CENTER - 
ARM GAS  C:\Users\Misha\AppData\Local\Temp\ccIfQyo5.s 			page 36


 661:main.c        ****                 straightAdjust(FRONT_SENSORS);
 662:main.c        ****                 changeOrientation(EAST, SPEED_LOW);
 663:main.c        ****             }
 664:main.c        ****             
 665:main.c        ****             else if (block_west_clearance && puck_east_clearance){
 1327              		.loc 1 665 0
 1328 07de 002B     		cmp	r3, #0
 1329 07e0 47D0     		beq	.L32
 666:main.c        ****                 
 667:main.c        ****                 moveUntil(block_location[WEST] - DISTANCE_FRONT_SENSOR_FROM_CENTER + WIDTH_WHEEL_TO
 1330              		.loc 1 667 0
 1331 07e2 854F     		ldr	r7, .L55
 1332 07e4 F86B     		ldr	r0, [r7, #60]
 1333 07e6 0124     		movs	r4, #1
 1334 07e8 0194     		str	r4, [sp, #4]
 1335 07ea C825     		movs	r5, #200
 1336 07ec 0095     		str	r5, [sp]
 1337 07ee 0523     		movs	r3, #5
 1338 07f0 4FF0FF32 		mov	r2, #-1
 1339 07f4 0021     		movs	r1, #0
 1340 07f6 4330     		adds	r0, r0, #67
 1341 07f8 FFF7FEFF 		bl	moveUntil
 1342              	.LVL207:
 668:main.c        ****                 straightAdjust(FRONT_SENSORS);
 1343              		.loc 1 668 0
 1344 07fc 0720     		movs	r0, #7
 1345 07fe FFF7FEFF 		bl	straightAdjust
 1346              	.LVL208:
 669:main.c        ****                 changeOrientation(NORTH, SPEED);
 1347              		.loc 1 669 0
 1348 0802 2946     		mov	r1, r5
 1349 0804 0020     		movs	r0, #0
 1350 0806 FFF7FEFF 		bl	changeOrientation
 1351              	.LVL209:
 670:main.c        ****                 moveUntil(PUCK_GRID_FROM_NORTH - DISTANCE_FRONT_SENSOR_FROM_CENTER - PUCK_GRID_DIST
 1352              		.loc 1 670 0
 1353 080a BB6D     		ldr	r3, [r7, #88]
 1354 080c 6FF03606 		mvn	r6, #54
 1355 0810 06FB03F0 		mul	r0, r6, r3
 1356 0814 0194     		str	r4, [sp, #4]
 1357 0816 0095     		str	r5, [sp]
 1358 0818 0523     		movs	r3, #5
 1359 081a 2246     		mov	r2, r4
 1360 081c 2146     		mov	r1, r4
 1361 081e E130     		adds	r0, r0, #225
 1362 0820 FFF7FEFF 		bl	moveUntil
 1363              	.LVL210:
 671:main.c        ****                 straightAdjust(FRONT_SENSORS);
 1364              		.loc 1 671 0
 1365 0824 0720     		movs	r0, #7
 1366 0826 FFF7FEFF 		bl	straightAdjust
 1367              	.LVL211:
 672:main.c        ****                 changeOrientation(WEST, SPEED);
 1368              		.loc 1 672 0
 1369 082a 2946     		mov	r1, r5
 1370 082c 0320     		movs	r0, #3
 1371 082e FFF7FEFF 		bl	changeOrientation
ARM GAS  C:\Users\Misha\AppData\Local\Temp\ccIfQyo5.s 			page 37


 1372              	.LVL212:
 673:main.c        ****                 straightAdjust(BACK_SENSORS);
 1373              		.loc 1 673 0
 1374 0832 0820     		movs	r0, #8
 1375 0834 FFF7FEFF 		bl	straightAdjust
 1376              	.LVL213:
 674:main.c        ****                 
 675:main.c        ****                 moveUntil(DISTANCE_MIDDLE_STOPPED_FROM_PUCK, FORWARD, LESS_THAN, FRONT_MIDDLE, SPEE
 1377              		.loc 1 675 0
 1378 0838 0194     		str	r4, [sp, #4]
 1379 083a 0095     		str	r5, [sp]
 1380 083c 0523     		movs	r3, #5
 1381 083e 2246     		mov	r2, r4
 1382 0840 2146     		mov	r1, r4
 1383 0842 2846     		mov	r0, r5
 1384 0844 FFF7FEFF 		bl	moveUntil
 1385              	.LVL214:
 676:main.c        ****                 changeOrientation(NORTH, SPEED_LOW);
 1386              		.loc 1 676 0
 1387 0848 4621     		movs	r1, #70
 1388 084a 0020     		movs	r0, #0
 1389 084c FFF7FEFF 		bl	changeOrientation
 1390              	.LVL215:
 677:main.c        ****                 moveForwardThenBackward(PUCK_GRID_FROM_NORTH - DISTANCE_FRONT_SENSOR_FROM_CENTER - 
 1391              		.loc 1 677 0
 1392 0850 B86D     		ldr	r0, [r7, #88]
 1393 0852 06FB00F0 		mul	r0, r6, r0
 1394 0856 0094     		str	r4, [sp]
 1395 0858 4623     		movs	r3, #70
 1396 085a 0522     		movs	r2, #5
 1397 085c 2146     		mov	r1, r4
 1398 085e E130     		adds	r0, r0, #225
 1399 0860 FFF7FEFF 		bl	moveForwardThenBackward
 1400              	.LVL216:
 678:main.c        ****                 straightAdjust(FRONT_SENSORS);
 1401              		.loc 1 678 0
 1402 0864 0720     		movs	r0, #7
 1403 0866 FFF7FEFF 		bl	straightAdjust
 1404              	.LVL217:
 679:main.c        ****                 changeOrientation(WEST, SPEED_LOW);
 1405              		.loc 1 679 0
 1406 086a 4621     		movs	r1, #70
 1407 086c 0320     		movs	r0, #3
 1408 086e FFF7FEFF 		bl	changeOrientation
 1409              	.LVL218:
 1410              	.L32:
 680:main.c        ****             }
 681:main.c        ****             
 682:main.c        ****             state = STATE_FIND_REQUIRED_PUCK;
 1411              		.loc 1 682 0
 1412 0872 0422     		movs	r2, #4
 1413 0874 604B     		ldr	r3, .L55
 1414 0876 5A60     		str	r2, [r3, #4]
 1415              	.L30:
 683:main.c        **** 
 684:main.c        ****         }
 685:main.c        ****  
ARM GAS  C:\Users\Misha\AppData\Local\Temp\ccIfQyo5.s 			page 38


 686:main.c        **** //        
 687:main.c        **** // *** 4. STATE FIND REQUIRED PUCK: *** // 
 688:main.c        **** //
 689:main.c        ****         
 690:main.c        ****         
 691:main.c        ****         if (state == STATE_FIND_REQUIRED_PUCK){
 1416              		.loc 1 691 0
 1417 0878 5F4B     		ldr	r3, .L55
 1418 087a 5B68     		ldr	r3, [r3, #4]
 1419 087c 042B     		cmp	r3, #4
 1420 087e 19D1     		bne	.L33
 1421              	.LVL219:
 1422              	.LBB10:
 692:main.c        ****         
 693:main.c        ****         int puck_correct = FALSE;   // A flag to determine if the correct puck has been picked up
 694:main.c        ****         int puck_scan;
 695:main.c        ****         
 696:main.c        ****     
 697:main.c        ****         //Temp delete after teesting!!!!!!!!!!!!!!!!!!!!!
 698:main.c        ****         puck_correct = TRUE;
 699:main.c        ****         
 700:main.c        ****             
 701:main.c        ****         // Scanning puck:
 702:main.c        ****             
 703:main.c        ****         safety_override = TRUE;     // DEACTIVATES the safety override so pucks don't interfere  
 1423              		.loc 1 703 0
 1424 0880 5D4C     		ldr	r4, .L55
 1425 0882 0125     		movs	r5, #1
 1426 0884 E565     		str	r5, [r4, #92]
 704:main.c        **** 
 705:main.c        ****         while (puck_correct == FALSE) 
 706:main.c        ****         {
 707:main.c        ****             moveDynamic(50, SPEED_LOW, TRUE);  // robot moves forward towards puck
 708:main.c        ****                                     // could replace this with the distance gathered from the ultra
 709:main.c        ****             changeHeightToPuck(ABOVE_1_PUCK, NEITHER);  // arm lowers onto robot
 710:main.c        ****             puck_scan = colourSensingOutput();  // colour sensor takes a scan
 711:main.c        ****             changeHeightToPuck(ABOVE_3_PUCK, NEITHER);  // arm returns to high position
 712:main.c        ****             moveDynamic(-50, SPEED, TRUE);   // robot moves backwards
 713:main.c        ****             if (puck_scan == puck_construction_plan[current_stage-1]) {puck_correct = TRUE;}       
 714:main.c        ****             else 
 715:main.c        ****             {
 716:main.c        ****                 /*
 717:main.c        ****                 // Bring us to the next puck along: 
 718:main.c        ****                 moveSwivel(45, SPEED, TRUE);
 719:main.c        ****                 moveDynamic(-30,SPEED, TRUE);
 720:main.c        ****                 moveSwivel(-30, SPEED, TRUE);
 721:main.c        ****                 */
 722:main.c        ****             }
 723:main.c        ****         }
 724:main.c        **** 
 725:main.c        ****         changeHeightToPuck(GROUND, NEITHER);      // arm lowers to ground
 1427              		.loc 1 725 0
 1428 0886 0221     		movs	r1, #2
 1429 0888 0020     		movs	r0, #0
 1430 088a FFF7FEFF 		bl	changeHeightToPuck
 1431              	.LVL220:
 726:main.c        ****         //armClose();
ARM GAS  C:\Users\Misha\AppData\Local\Temp\ccIfQyo5.s 			page 39


 727:main.c        ****         //changeHeightToPuck(1);
 728:main.c        ****         moveUntilPuck(CLAW_GROUND_ALGORITHM);
 1432              		.loc 1 728 0
 1433 088e 0520     		movs	r0, #5
 1434 0890 FFF7FEFF 		bl	moveUntilPuck
 1435              	.LVL221:
 729:main.c        ****         //moveDynamic(60);       // robot moves forward
 730:main.c        ****         armClose();                 // claw closes on puck
 1436              		.loc 1 730 0
 1437 0894 FFF7FEFF 		bl	armClose
 1438              	.LVL222:
 731:main.c        ****         changeHeightToPuck(ABOVE_3_PUCK, CLOSE);      // arm lifts up to highest position
 1439              		.loc 1 731 0
 1440 0898 2946     		mov	r1, r5
 1441 089a 0320     		movs	r0, #3
 1442 089c FFF7FEFF 		bl	changeHeightToPuck
 1443              	.LVL223:
 732:main.c        ****         moveDynamic(-60, SPEED, TRUE);       // robot moves back away from puck area 
 1444              		.loc 1 732 0
 1445 08a0 2A46     		mov	r2, r5
 1446 08a2 C821     		movs	r1, #200
 1447 08a4 6FF03B00 		mvn	r0, #59
 1448 08a8 FFF7FEFF 		bl	moveDynamic
 1449              	.LVL224:
 733:main.c        ****         
 734:main.c        ****         
 735:main.c        ****         safety_override = FALSE;        // reactivate safety override
 1450              		.loc 1 735 0
 1451 08ac 0023     		movs	r3, #0
 1452 08ae E365     		str	r3, [r4, #92]
 736:main.c        ****     
 737:main.c        ****         state = STATE_RETURN_TO_SOUTH;
 1453              		.loc 1 737 0
 1454 08b0 0523     		movs	r3, #5
 1455 08b2 6360     		str	r3, [r4, #4]
 1456              	.LVL225:
 1457              	.L33:
 1458              	.LBE10:
 738:main.c        ****    
 739:main.c        ****         }
 740:main.c        ****  
 741:main.c        ****         
 742:main.c        **** //
 743:main.c        **** // *** 5. STATE RETURN TO SOUTH: *** // 
 744:main.c        **** //      
 745:main.c        ****         
 746:main.c        ****         // Assume that we are currently in the north side of the arena facing the pucks.
 747:main.c        ****         // This state will return us to the south side of the block and face east at the east wall.
 748:main.c        ****         if (state == STATE_RETURN_TO_SOUTH){
 1459              		.loc 1 748 0
 1460 08b4 504B     		ldr	r3, .L55
 1461 08b6 5B68     		ldr	r3, [r3, #4]
 1462 08b8 052B     		cmp	r3, #5
 1463 08ba 40F0D180 		bne	.L34
 749:main.c        ****             if (block_east_clearance && puck_east_clearance){
 1464              		.loc 1 749 0
 1465 08be 4E4B     		ldr	r3, .L55
ARM GAS  C:\Users\Misha\AppData\Local\Temp\ccIfQyo5.s 			page 40


 1466 08c0 B3F95020 		ldrsh	r2, [r3, #80]
 1467 08c4 A2B3     		cbz	r2, .L35
 1468              		.loc 1 749 0 is_stmt 0 discriminator 1
 1469 08c6 B3F95430 		ldrsh	r3, [r3, #84]
 1470 08ca 8BB3     		cbz	r3, .L35
 750:main.c        ****                 straightAdjust(BACK_SENSORS); /////////////////////////
 1471              		.loc 1 750 0 is_stmt 1
 1472 08cc 0820     		movs	r0, #8
 1473 08ce FFF7FEFF 		bl	straightAdjust
 1474              	.LVL226:
 751:main.c        ****                 moveUntil(CLEARANCE_RADIUS_CENTER_TO_BACK - 190, BACKWARD, LESS_THAN, BACK_RIGHT, S
 1475              		.loc 1 751 0
 1476 08d2 0124     		movs	r4, #1
 1477 08d4 0194     		str	r4, [sp, #4]
 1478 08d6 C825     		movs	r5, #200
 1479 08d8 0095     		str	r5, [sp]
 1480 08da 0423     		movs	r3, #4
 1481 08dc 2246     		mov	r2, r4
 1482 08de 0021     		movs	r1, #0
 1483 08e0 3220     		movs	r0, #50
 1484 08e2 FFF7FEFF 		bl	moveUntil
 1485              	.LVL227:
 752:main.c        ****                 // straightAdjust() using back sensor?
 753:main.c        ****                 changeOrientation(NORTH,SPEED);
 1486              		.loc 1 753 0
 1487 08e6 2946     		mov	r1, r5
 1488 08e8 0020     		movs	r0, #0
 1489 08ea FFF7FEFF 		bl	changeOrientation
 1490              	.LVL228:
 754:main.c        ****                 straightAdjust(FRONT_SENSORS);
 1491              		.loc 1 754 0
 1492 08ee 0720     		movs	r0, #7
 1493 08f0 FFF7FEFF 		bl	straightAdjust
 1494              	.LVL229:
 755:main.c        ****                 moveUntil(CLEARANCE_RADIUS_CENTER_TO_BACK - 140, BACKWARD, LESS_THAN, BACK_RIGHT, S
 1495              		.loc 1 755 0
 1496 08f4 0194     		str	r4, [sp, #4]
 1497 08f6 0095     		str	r5, [sp]
 1498 08f8 0423     		movs	r3, #4
 1499 08fa 2246     		mov	r2, r4
 1500 08fc 0021     		movs	r1, #0
 1501 08fe 6420     		movs	r0, #100
 1502 0900 FFF7FEFF 		bl	moveUntil
 1503              	.LVL230:
 756:main.c        ****                 straightAdjust(BACK_SENSORS);
 1504              		.loc 1 756 0
 1505 0904 0820     		movs	r0, #8
 1506 0906 FFF7FEFF 		bl	straightAdjust
 1507              	.LVL231:
 757:main.c        ****                 changeOrientation(EAST,SPEED);
 1508              		.loc 1 757 0
 1509 090a 2946     		mov	r1, r5
 1510 090c 2046     		mov	r0, r4
 1511 090e FFF7FEFF 		bl	changeOrientation
 1512              	.LVL232:
 758:main.c        ****                 straightAdjust(FRONT_SENSORS);
 1513              		.loc 1 758 0
ARM GAS  C:\Users\Misha\AppData\Local\Temp\ccIfQyo5.s 			page 41


 1514 0912 0720     		movs	r0, #7
 1515 0914 FFF7FEFF 		bl	straightAdjust
 1516              	.LVL233:
 759:main.c        ****                 moveUntil(WALL_CLEARANCE_FRONT, FORWARD, LESS_THAN, FRONT_MIDDLE, SPEED, TRUE);
 1517              		.loc 1 759 0
 1518 0918 0194     		str	r4, [sp, #4]
 1519 091a 0095     		str	r5, [sp]
 1520 091c 0523     		movs	r3, #5
 1521 091e 2246     		mov	r2, r4
 1522 0920 2146     		mov	r1, r4
 1523 0922 2846     		mov	r0, r5
 1524 0924 FFF7FEFF 		bl	moveUntil
 1525              	.LVL234:
 760:main.c        ****                 straightAdjust(FRONT_SENSORS);
 1526              		.loc 1 760 0
 1527 0928 0720     		movs	r0, #7
 1528 092a FFF7FEFF 		bl	straightAdjust
 1529              	.LVL235:
 1530 092e 94E0     		b	.L36
 1531              	.L35:
 761:main.c        ****                 
 762:main.c        ****             }
 763:main.c        ****             
 764:main.c        ****             else if (block_west_clearance && puck_west_clearance){
 1532              		.loc 1 764 0
 1533 0930 314B     		ldr	r3, .L55
 1534 0932 B3F95230 		ldrsh	r3, [r3, #82]
 1535 0936 7BB3     		cbz	r3, .L37
 1536              		.loc 1 764 0 is_stmt 0 discriminator 1
 1537 0938 2F49     		ldr	r1, .L55
 1538 093a B1F95610 		ldrsh	r1, [r1, #86]
 1539 093e 59B3     		cbz	r1, .L37
 765:main.c        ****             
 766:main.c        ****                 moveUntil(CLEARANCE_RADIUS_CENTER_TO_BACK - DISTANCE_BACK_SENSOR_FROM_CENTER, BACKW
 1540              		.loc 1 766 0 is_stmt 1
 1541 0940 0124     		movs	r4, #1
 1542 0942 0194     		str	r4, [sp, #4]
 1543 0944 C825     		movs	r5, #200
 1544 0946 0095     		str	r5, [sp]
 1545 0948 0423     		movs	r3, #4
 1546 094a 2246     		mov	r2, r4
 1547 094c 0021     		movs	r1, #0
 1548 094e 0A20     		movs	r0, #10
 1549 0950 FFF7FEFF 		bl	moveUntil
 1550              	.LVL236:
 767:main.c        ****                 // straightAdjust() using back sensor?
 768:main.c        ****                 changeOrientation(NORTH,SPEED);
 1551              		.loc 1 768 0
 1552 0954 2946     		mov	r1, r5
 1553 0956 0020     		movs	r0, #0
 1554 0958 FFF7FEFF 		bl	changeOrientation
 1555              	.LVL237:
 769:main.c        ****                 straightAdjust(FRONT_SENSORS);
 1556              		.loc 1 769 0
 1557 095c 0720     		movs	r0, #7
 1558 095e FFF7FEFF 		bl	straightAdjust
 1559              	.LVL238:
ARM GAS  C:\Users\Misha\AppData\Local\Temp\ccIfQyo5.s 			page 42


 770:main.c        ****                 moveUntil(CLEARANCE_RADIUS_CENTER_TO_BACK - 140, BACKWARD, LESS_THAN, BACK_RIGHT, S
 1560              		.loc 1 770 0
 1561 0962 0194     		str	r4, [sp, #4]
 1562 0964 0095     		str	r5, [sp]
 1563 0966 0423     		movs	r3, #4
 1564 0968 2246     		mov	r2, r4
 1565 096a 0021     		movs	r1, #0
 1566 096c 6420     		movs	r0, #100
 1567 096e FFF7FEFF 		bl	moveUntil
 1568              	.LVL239:
 771:main.c        ****                 //straightAdjust();
 772:main.c        ****                 changeOrientation(EAST,SPEED);
 1569              		.loc 1 772 0
 1570 0972 2946     		mov	r1, r5
 1571 0974 2046     		mov	r0, r4
 1572 0976 FFF7FEFF 		bl	changeOrientation
 1573              	.LVL240:
 773:main.c        ****                 straightAdjust(FRONT_SENSORS);
 1574              		.loc 1 773 0
 1575 097a 0720     		movs	r0, #7
 1576 097c FFF7FEFF 		bl	straightAdjust
 1577              	.LVL241:
 774:main.c        ****                 moveUntil(WALL_CLEARANCE_FRONT, FORWARD, LESS_THAN, FRONT_MIDDLE, SPEED, TRUE);
 1578              		.loc 1 774 0
 1579 0980 0194     		str	r4, [sp, #4]
 1580 0982 0095     		str	r5, [sp]
 1581 0984 0523     		movs	r3, #5
 1582 0986 2246     		mov	r2, r4
 1583 0988 2146     		mov	r1, r4
 1584 098a 2846     		mov	r0, r5
 1585 098c FFF7FEFF 		bl	moveUntil
 1586              	.LVL242:
 775:main.c        ****                 straightAdjust(FRONT_SENSORS);
 1587              		.loc 1 775 0
 1588 0990 0720     		movs	r0, #7
 1589 0992 FFF7FEFF 		bl	straightAdjust
 1590              	.LVL243:
 1591 0996 60E0     		b	.L36
 1592              	.L37:
 776:main.c        ****               
 777:main.c        ****             }
 778:main.c        ****             
 779:main.c        ****             
 780:main.c        ****             else if (block_east_clearance && puck_west_clearance){
 1593              		.loc 1 780 0
 1594 0998 82B3     		cbz	r2, .L38
 1595              		.loc 1 780 0 is_stmt 0 discriminator 1
 1596 099a 174A     		ldr	r2, .L55
 1597 099c B2F95620 		ldrsh	r2, [r2, #86]
 1598 09a0 62B3     		cbz	r2, .L38
 781:main.c        **** 
 782:main.c        ****                 moveUntil(ARENA_WIDTH - (block_location[EAST] - DISTANCE_FRONT_SENSOR_FROM_CENTER -
 1599              		.loc 1 782 0 is_stmt 1
 1600 09a2 154B     		ldr	r3, .L55
 1601 09a4 586B     		ldr	r0, [r3, #52]
 1602 09a6 0124     		movs	r4, #1
 1603 09a8 0194     		str	r4, [sp, #4]
ARM GAS  C:\Users\Misha\AppData\Local\Temp\ccIfQyo5.s 			page 43


 1604 09aa C825     		movs	r5, #200
 1605 09ac 0095     		str	r5, [sp]
 1606 09ae 0423     		movs	r3, #4
 1607 09b0 2246     		mov	r2, r4
 1608 09b2 0021     		movs	r1, #0
 1609 09b4 C0F5AA60 		rsb	r0, r0, #1360
 1610 09b8 0730     		adds	r0, r0, #7
 1611 09ba FFF7FEFF 		bl	moveUntil
 1612              	.LVL244:
 783:main.c        ****                 //straightAdjust();
 784:main.c        ****                 changeOrientation(NORTH, SPEED);
 1613              		.loc 1 784 0
 1614 09be 2946     		mov	r1, r5
 1615 09c0 0020     		movs	r0, #0
 1616 09c2 FFF7FEFF 		bl	changeOrientation
 1617              	.LVL245:
 785:main.c        ****                 straightAdjust(FRONT_SENSORS);
 1618              		.loc 1 785 0
 1619 09c6 0720     		movs	r0, #7
 1620 09c8 FFF7FEFF 		bl	straightAdjust
 1621              	.LVL246:
 786:main.c        ****                 moveUntil(CLEARANCE_RADIUS_CENTER_TO_BACK - 140, BACKWARD, LESS_THAN, BACK_RIGHT, S
 1622              		.loc 1 786 0
 1623 09cc 0194     		str	r4, [sp, #4]
 1624 09ce 0095     		str	r5, [sp]
 1625 09d0 0423     		movs	r3, #4
 1626 09d2 2246     		mov	r2, r4
 1627 09d4 0021     		movs	r1, #0
 1628 09d6 6420     		movs	r0, #100
 1629 09d8 FFF7FEFF 		bl	moveUntil
 1630              	.LVL247:
 787:main.c        ****                 //displaceLeft(); Repeatedly call this if below function not implemented
 788:main.c        ****                 //displaceLeftUntil(CLEARANCE_RADIUS_CENTER_TO_BACK,RIGHT);
 789:main.c        ****                 changeOrientation(EAST, SPEED);
 1631              		.loc 1 789 0
 1632 09dc 2946     		mov	r1, r5
 1633 09de 2046     		mov	r0, r4
 1634 09e0 FFF7FEFF 		bl	changeOrientation
 1635              	.LVL248:
 790:main.c        ****                 //displaceLeft();
 791:main.c        ****                 //displaceLeftUntil(DISTANCE_PUCKS_FROM_NORTH + WIDTH_SENSOR_TO_CENTER ,RIGHT);
 792:main.c        ****                 moveUntil(WALL_CLEARANCE_FRONT, FORWARD, LESS_THAN, FRONT_MIDDLE, SPEED, TRUE);
 1636              		.loc 1 792 0
 1637 09e4 0194     		str	r4, [sp, #4]
 1638 09e6 0095     		str	r5, [sp]
 1639 09e8 0523     		movs	r3, #5
 1640 09ea 2246     		mov	r2, r4
 1641 09ec 2146     		mov	r1, r4
 1642 09ee 2846     		mov	r0, r5
 1643 09f0 FFF7FEFF 		bl	moveUntil
 1644              	.LVL249:
 1645 09f4 31E0     		b	.L36
 1646              	.L56:
 1647 09f6 00BF     		.align	2
 1648              	.L55:
 1649 09f8 00000000 		.word	.LANCHOR0
 1650              	.L38:
ARM GAS  C:\Users\Misha\AppData\Local\Temp\ccIfQyo5.s 			page 44


 793:main.c        ****                 
 794:main.c        ****             }
 795:main.c        ****             
 796:main.c        ****             else if (block_west_clearance && puck_east_clearance){
 1651              		.loc 1 796 0
 1652 09fc 6BB3     		cbz	r3, .L36
 1653              		.loc 1 796 0 is_stmt 0 discriminator 1
 1654 09fe 864B     		ldr	r3, .L57
 1655 0a00 B3F95430 		ldrsh	r3, [r3, #84]
 1656 0a04 4BB3     		cbz	r3, .L36
 797:main.c        ****                 
 798:main.c        ****                 moveUntil(ARENA_WIDTH - (block_location[WEST] - DISTANCE_FRONT_SENSOR_FROM_CENTER +
 1657              		.loc 1 798 0 is_stmt 1
 1658 0a06 844B     		ldr	r3, .L57
 1659 0a08 D86B     		ldr	r0, [r3, #60]
 1660 0a0a 0124     		movs	r4, #1
 1661 0a0c 0194     		str	r4, [sp, #4]
 1662 0a0e C825     		movs	r5, #200
 1663 0a10 0095     		str	r5, [sp]
 1664 0a12 0523     		movs	r3, #5
 1665 0a14 4FF0FF32 		mov	r2, #-1
 1666 0a18 0021     		movs	r1, #0
 1667 0a1a C0F58D60 		rsb	r0, r0, #1128
 1668 0a1e 1844     		add	r0, r0, r3
 1669 0a20 FFF7FEFF 		bl	moveUntil
 1670              	.LVL250:
 799:main.c        ****                 changeOrientation(NORTH, SPEED);
 1671              		.loc 1 799 0
 1672 0a24 2946     		mov	r1, r5
 1673 0a26 0020     		movs	r0, #0
 1674 0a28 FFF7FEFF 		bl	changeOrientation
 1675              	.LVL251:
 800:main.c        ****                 straightAdjust(FRONT_SENSORS);
 1676              		.loc 1 800 0
 1677 0a2c 0720     		movs	r0, #7
 1678 0a2e FFF7FEFF 		bl	straightAdjust
 1679              	.LVL252:
 801:main.c        ****                 moveUntil(CLEARANCE_RADIUS_CENTER_TO_BACK - 140, BACKWARD, LESS_THAN, BACK_RIGHT, S
 1680              		.loc 1 801 0
 1681 0a32 0194     		str	r4, [sp, #4]
 1682 0a34 0095     		str	r5, [sp]
 1683 0a36 0423     		movs	r3, #4
 1684 0a38 2246     		mov	r2, r4
 1685 0a3a 0021     		movs	r1, #0
 1686 0a3c 6420     		movs	r0, #100
 1687 0a3e FFF7FEFF 		bl	moveUntil
 1688              	.LVL253:
 802:main.c        ****                 //displaceLeft(); Repeatedly call this if below function not implemented
 803:main.c        ****                 //displaceLeftUntil(CLEARANCE_RADIUS_CENTER_TO_BACK,RIGHT);
 804:main.c        ****                 changeOrientation(EAST, SPEED);
 1689              		.loc 1 804 0
 1690 0a42 2946     		mov	r1, r5
 1691 0a44 2046     		mov	r0, r4
 1692 0a46 FFF7FEFF 		bl	changeOrientation
 1693              	.LVL254:
 805:main.c        ****                 //displaceLeft();
 806:main.c        ****                 //displaceLeftUntil(DISTANCE_PUCKS_FROM_NORTH + WIDTH_SENSOR_TO_CENTER ,RIGHT);
ARM GAS  C:\Users\Misha\AppData\Local\Temp\ccIfQyo5.s 			page 45


 807:main.c        ****                 moveUntil(WALL_CLEARANCE_FRONT, FORWARD, LESS_THAN, FRONT_LEFT, SPEED, TRUE);
 1694              		.loc 1 807 0
 1695 0a4a 0194     		str	r4, [sp, #4]
 1696 0a4c 0095     		str	r5, [sp]
 1697 0a4e 0023     		movs	r3, #0
 1698 0a50 2246     		mov	r2, r4
 1699 0a52 2146     		mov	r1, r4
 1700 0a54 2846     		mov	r0, r5
 1701 0a56 FFF7FEFF 		bl	moveUntil
 1702              	.LVL255:
 1703              	.L36:
 808:main.c        ****                 
 809:main.c        ****             }   
 810:main.c        ****             
 811:main.c        ****             state = STATE_DEPOSIT_PUCK;
 1704              		.loc 1 811 0
 1705 0a5a 0622     		movs	r2, #6
 1706 0a5c 6E4B     		ldr	r3, .L57
 1707 0a5e 5A60     		str	r2, [r3, #4]
 1708              	.L34:
 812:main.c        ****         }
 813:main.c        ****         
 814:main.c        **** //        
 815:main.c        **** // *** 6. STATE DEPOSIT PUCK: *** // 
 816:main.c        **** //
 817:main.c        ****         
 818:main.c        ****         // We choose where we put the puck. Depending if its needed now, later or never.
 819:main.c        ****         if (state == STATE_DEPOSIT_PUCK){
 1709              		.loc 1 819 0
 1710 0a60 6D4B     		ldr	r3, .L57
 1711 0a62 5B68     		ldr	r3, [r3, #4]
 1712 0a64 062B     		cmp	r3, #6
 1713 0a66 40F0A380 		bne	.L39
 1714              	.LBB11:
 820:main.c        ****                 
 821:main.c        ****             
 822:main.c        ****             // Temp grab puck
 823:main.c        ****             control_photodiode_Write(CLAW_SENSING);    // changes to claw photodiode
 1715              		.loc 1 823 0
 1716 0a6a 0120     		movs	r0, #1
 1717 0a6c FFF7FEFF 		bl	control_photodiode_Write
 1718              	.LVL256:
 824:main.c        ****             colour_sensing_algorithm = CLAW_GROUND_ALGORITHM;   // changes it to claw algorithm
 1719              		.loc 1 824 0
 1720 0a70 694C     		ldr	r4, .L57
 1721 0a72 0523     		movs	r3, #5
 1722 0a74 E360     		str	r3, [r4, #12]
 825:main.c        ****             
 826:main.c        ****             /*
 827:main.c        ****             armOpen();
 828:main.c        ****             colourSensingInitialise();
 829:main.c        ****             CyDelay(2000);
 830:main.c        ****             armClose();
 831:main.c        ****             */
 832:main.c        ****             
 833:main.c        ****             
 834:main.c        ****             
ARM GAS  C:\Users\Misha\AppData\Local\Temp\ccIfQyo5.s 			page 46


 835:main.c        ****             int heldColour = colourSensingOutput();
 1723              		.loc 1 835 0
 1724 0a76 FFF7FEFF 		bl	colourSensingOutput
 1725              	.LVL257:
 836:main.c        ****             //blinkLED(heldColour,500);
 837:main.c        ****             
 838:main.c        ****             
 839:main.c        ****             // TO DELETE
 840:main.c        ****             heldColour = current_stage; // temp checking it can stack with a fixed rgb order for si
 1726              		.loc 1 840 0
 1727 0a7a 684B     		ldr	r3, .L57+4
 1728 0a7c 1A68     		ldr	r2, [r3]
 1729              	.LVL258:
 841:main.c        ****             //armOpen();
 842:main.c        ****             //CyDelay(1000);
 843:main.c        ****             //armClose();
 844:main.c        ****             
 845:main.c        ****             
 846:main.c        ****             if (heldColour == puck_construction_plan[current_puck_stack_size] ) { // The currently 
 1730              		.loc 1 846 0
 1731 0a7e A36D     		ldr	r3, [r4, #88]
 1732 0a80 04EB8304 		add	r4, r4, r3, lsl #2
 1733 0a84 2369     		ldr	r3, [r4, #16]
 1734 0a86 9A42     		cmp	r2, r3
 1735 0a88 25D1     		bne	.L40
 847:main.c        ****                 moveUntil(HOME_MIDPOINT - DISTANCE_FRONT_SENSOR_FROM_CENTER, BACKWARD, GREATER_THAN
 1736              		.loc 1 847 0
 1737 0a8a 0124     		movs	r4, #1
 1738 0a8c 0194     		str	r4, [sp, #4]
 1739 0a8e C825     		movs	r5, #200
 1740 0a90 0095     		str	r5, [sp]
 1741 0a92 0523     		movs	r3, #5
 1742 0a94 4FF0FF32 		mov	r2, #-1
 1743              	.LVL259:
 1744 0a98 0021     		movs	r1, #0
 1745 0a9a 40F22620 		movw	r0, #550
 1746 0a9e FFF7FEFF 		bl	moveUntil
 1747              	.LVL260:
 848:main.c        ****                 changeOrientation(NORTH,SPEED);
 1748              		.loc 1 848 0
 1749 0aa2 2946     		mov	r1, r5
 1750 0aa4 0020     		movs	r0, #0
 1751 0aa6 FFF7FEFF 		bl	changeOrientation
 1752              	.LVL261:
 849:main.c        ****                 changeOrientation(WEST,SPEED);
 1753              		.loc 1 849 0
 1754 0aaa 2946     		mov	r1, r5
 1755 0aac 0320     		movs	r0, #3
 1756 0aae FFF7FEFF 		bl	changeOrientation
 1757              	.LVL262:
 850:main.c        ****                 moveUntil(CONSTRUCTION_MIDPOINT - DISTANCE_FRONT_SENSOR_FROM_CENTER - 30, FORWARD, 
 1758              		.loc 1 850 0
 1759 0ab2 0194     		str	r4, [sp, #4]
 1760 0ab4 0095     		str	r5, [sp]
 1761 0ab6 0523     		movs	r3, #5
 1762 0ab8 2246     		mov	r2, r4
 1763 0aba 2146     		mov	r1, r4
ARM GAS  C:\Users\Misha\AppData\Local\Temp\ccIfQyo5.s 			page 47


 1764 0abc AA20     		movs	r0, #170
 1765 0abe FFF7FEFF 		bl	moveUntil
 1766              	.LVL263:
 851:main.c        ****                 moveForwardThenBackward(CONSTRUCTION_MIDPOINT - DISTANCE_FRONT_SENSOR_FROM_CENTER -
 1767              		.loc 1 851 0
 1768 0ac2 0094     		str	r4, [sp]
 1769 0ac4 4623     		movs	r3, #70
 1770 0ac6 0522     		movs	r2, #5
 1771 0ac8 2146     		mov	r1, r4
 1772 0aca AA20     		movs	r0, #170
 1773 0acc FFF7FEFF 		bl	moveForwardThenBackward
 1774              	.LVL264:
 852:main.c        ****                 straightAdjust(FRONT_SENSORS);
 1775              		.loc 1 852 0
 1776 0ad0 0720     		movs	r0, #7
 1777 0ad2 FFF7FEFF 		bl	straightAdjust
 1778              	.LVL265:
 1779              	.L40:
 853:main.c        ****                 
 854:main.c        ****                 //changeOrientation(SOUTH, SPEED);
 855:main.c        ****                 //moveUntil(CONSTRUCTION_MIDPOINT - DISTANCE_FRONT_SENSOR_FROM_CENTER, FORWARD, LES
 856:main.c        ****                 
 857:main.c        ****                 
 858:main.c        ****                 
 859:main.c        ****             }
 860:main.c        ****             /*
 861:main.c        ****             else if ( heldColour == puck_construction_plan[1] || heldColour == puck_construction_pl
 862:main.c        ****                 moveUntil(ARENA_WIDTH - FIRST_TEMP_DROPOFF + DISTANCE_FRONT_SENSOR_FROM_CENTER, BAC
 863:main.c        ****                 straightAdjust();
 864:main.c        ****             }
 865:main.c        ****             
 866:main.c        ****             else {
 867:main.c        ****                 moveUntil(ARENA_WIDTH-FIRST_DISCARD_ZONE + DISTANCE_FRONT_SENSOR_FROM_CENTER, BACKW
 868:main.c        ****             } // Discard the puck so drop it in rubbish pile
 869:main.c        ****             
 870:main.c        ****             */
 871:main.c        **** 
 872:main.c        ****             changeOrientation(SOUTH,SPEED);    
 1780              		.loc 1 872 0
 1781 0ad6 C821     		movs	r1, #200
 1782 0ad8 0220     		movs	r0, #2
 1783 0ada FFF7FEFF 		bl	changeOrientation
 1784              	.LVL266:
 873:main.c        ****             changeHeightToPuck(ABOVE_3_PUCK, CLOSE); // Lift claw above stack to avoid hitting the 
 1785              		.loc 1 873 0
 1786 0ade 0121     		movs	r1, #1
 1787 0ae0 0320     		movs	r0, #3
 1788 0ae2 FFF7FEFF 		bl	changeHeightToPuck
 1789              	.LVL267:
 874:main.c        ****             
 875:main.c        ****             if (current_puck_stack_size == 0){
 1790              		.loc 1 875 0
 1791 0ae6 4C4B     		ldr	r3, .L57
 1792 0ae8 9B6D     		ldr	r3, [r3, #88]
 1793 0aea 63B9     		cbnz	r3, .L41
 876:main.c        ****                 straightAdjust(FRONT_SENSORS);
 1794              		.loc 1 876 0
ARM GAS  C:\Users\Misha\AppData\Local\Temp\ccIfQyo5.s 			page 48


 1795 0aec 0720     		movs	r0, #7
 1796 0aee FFF7FEFF 		bl	straightAdjust
 1797              	.LVL268:
 877:main.c        ****                 moveUntil(CONSTRUCTION_DISTANCE_FROM_WALL, FORWARD, LESS_THAN, FRONT_MIDDLE, SPEED,
 1798              		.loc 1 877 0
 1799 0af2 0121     		movs	r1, #1
 1800 0af4 0191     		str	r1, [sp, #4]
 1801 0af6 C823     		movs	r3, #200
 1802 0af8 0093     		str	r3, [sp]
 1803 0afa 0523     		movs	r3, #5
 1804 0afc 0A46     		mov	r2, r1
 1805 0afe 8220     		movs	r0, #130
 1806 0b00 FFF7FEFF 		bl	moveUntil
 1807              	.LVL269:
 1808 0b04 09E0     		b	.L42
 1809              	.L41:
 878:main.c        ****                
 879:main.c        ****             }
 880:main.c        ****             else {
 881:main.c        ****                 moveUntil(DISTANCE_BEFORE_STACK_MIDDLE_SENSOR, FORWARD, LESS_THAN, FRONT_MIDDLE, SP
 1810              		.loc 1 881 0
 1811 0b06 0023     		movs	r3, #0
 1812 0b08 0193     		str	r3, [sp, #4]
 1813 0b0a 4623     		movs	r3, #70
 1814 0b0c 0093     		str	r3, [sp]
 1815 0b0e 0523     		movs	r3, #5
 1816 0b10 0122     		movs	r2, #1
 1817 0b12 1146     		mov	r1, r2
 1818 0b14 5F20     		movs	r0, #95
 1819 0b16 FFF7FEFF 		bl	moveUntil
 1820              	.LVL270:
 1821              	.L42:
 882:main.c        ****                 //moveDynamic(140, SPEED, FALSE);            
 883:main.c        ****             }
 884:main.c        ****             
 885:main.c        ****             //moveDynamic(CONSTRUCTION_DISTANCE_CLEAR_FROM_STACK - CONSTRUCTION_DISTANCE_FROM_WALL,
 886:main.c        ****             
 887:main.c        ****             changeHeightToPuck(current_puck_stack_size, CLOSE);
 1822              		.loc 1 887 0
 1823 0b1a 0121     		movs	r1, #1
 1824 0b1c 3E4B     		ldr	r3, .L57
 1825 0b1e 986D     		ldr	r0, [r3, #88]
 1826 0b20 FFF7FEFF 		bl	changeHeightToPuck
 1827              	.LVL271:
 888:main.c        ****             armOpen();
 1828              		.loc 1 888 0
 1829 0b24 FFF7FEFF 		bl	armOpen
 1830              	.LVL272:
 889:main.c        ****             changeHeightToPuck(ABOVE_3_PUCK, OPEN); // Move higher than stack to avoid hitting it.
 1831              		.loc 1 889 0
 1832 0b28 0021     		movs	r1, #0
 1833 0b2a 0320     		movs	r0, #3
 1834 0b2c FFF7FEFF 		bl	changeHeightToPuck
 1835              	.LVL273:
 890:main.c        ****             
 891:main.c        **** 
 892:main.c        ****             if (current_stage >= 3){state = STATE_PARK_HOME;}        // Returns to home 
ARM GAS  C:\Users\Misha\AppData\Local\Temp\ccIfQyo5.s 			page 49


 1836              		.loc 1 892 0
 1837 0b30 3A4B     		ldr	r3, .L57+4
 1838 0b32 1B68     		ldr	r3, [r3]
 1839 0b34 022B     		cmp	r3, #2
 1840 0b36 03DD     		ble	.L43
 1841              		.loc 1 892 0 is_stmt 0 discriminator 1
 1842 0b38 0722     		movs	r2, #7
 1843 0b3a 374B     		ldr	r3, .L57
 1844 0b3c 5A60     		str	r2, [r3, #4]
 1845 0b3e 37E0     		b	.L39
 1846              	.L43:
 893:main.c        ****             else {current_stage++; current_puck_stack_size++;
 1847              		.loc 1 893 0 is_stmt 1
 1848 0b40 0133     		adds	r3, r3, #1
 1849 0b42 364A     		ldr	r2, .L57+4
 1850 0b44 1360     		str	r3, [r2]
 1851 0b46 344E     		ldr	r6, .L57
 1852 0b48 B36D     		ldr	r3, [r6, #88]
 1853 0b4a 0133     		adds	r3, r3, #1
 1854 0b4c B365     		str	r3, [r6, #88]
 894:main.c        ****             // Need to go back to the east wall facing east.
 895:main.c        ****                 //moveUntil(CONSTRUCTION_DISTANCE_CLEAR_FROM_STACK, BACKWARD, GREATER_THAN, FRONT_L
 896:main.c        ****                 moveDynamic(-130,SPEED,TRUE);
 1855              		.loc 1 896 0
 1856 0b4e 0122     		movs	r2, #1
 1857 0b50 C821     		movs	r1, #200
 1858 0b52 6FF08100 		mvn	r0, #129
 1859 0b56 FFF7FEFF 		bl	moveDynamic
 1860              	.LVL274:
 897:main.c        ****                 changeOrientation(WEST,SPEED);
 1861              		.loc 1 897 0
 1862 0b5a C821     		movs	r1, #200
 1863 0b5c 0320     		movs	r0, #3
 1864 0b5e FFF7FEFF 		bl	changeOrientation
 1865              	.LVL275:
 898:main.c        ****                 straightAdjust(FRONT_SENSORS);
 1866              		.loc 1 898 0
 1867 0b62 0720     		movs	r0, #7
 1868 0b64 FFF7FEFF 		bl	straightAdjust
 1869              	.LVL276:
 899:main.c        ****                 moveUntil(HOME_MIDPOINT - DISTANCE_FRONT_SENSOR_FROM_CENTER, BACKWARD, GREATER_THAN
 1870              		.loc 1 899 0
 1871 0b68 0124     		movs	r4, #1
 1872 0b6a 0194     		str	r4, [sp, #4]
 1873 0b6c C825     		movs	r5, #200
 1874 0b6e 0095     		str	r5, [sp]
 1875 0b70 0523     		movs	r3, #5
 1876 0b72 4FF0FF32 		mov	r2, #-1
 1877 0b76 0021     		movs	r1, #0
 1878 0b78 40F22620 		movw	r0, #550
 1879 0b7c FFF7FEFF 		bl	moveUntil
 1880              	.LVL277:
 900:main.c        ****                 straightAdjust(FRONT_SENSORS);
 1881              		.loc 1 900 0
 1882 0b80 0720     		movs	r0, #7
 1883 0b82 FFF7FEFF 		bl	straightAdjust
 1884              	.LVL278:
ARM GAS  C:\Users\Misha\AppData\Local\Temp\ccIfQyo5.s 			page 50


 901:main.c        ****                 changeOrientation(NORTH,SPEED);
 1885              		.loc 1 901 0
 1886 0b86 2946     		mov	r1, r5
 1887 0b88 0020     		movs	r0, #0
 1888 0b8a FFF7FEFF 		bl	changeOrientation
 1889              	.LVL279:
 902:main.c        ****                 changeOrientation(EAST,SPEED);
 1890              		.loc 1 902 0
 1891 0b8e 2946     		mov	r1, r5
 1892 0b90 2046     		mov	r0, r4
 1893 0b92 FFF7FEFF 		bl	changeOrientation
 1894              	.LVL280:
 903:main.c        ****                 moveUntil(DISTANCE_FRONT_SENSOR_FROM_CENTER + SAFETY_MARGIN + 50, FORWARD, LESS_THA
 1895              		.loc 1 903 0
 1896 0b96 0194     		str	r4, [sp, #4]
 1897 0b98 0095     		str	r5, [sp]
 1898 0b9a 0523     		movs	r3, #5
 1899 0b9c 2246     		mov	r2, r4
 1900 0b9e 2146     		mov	r1, r4
 1901 0ba0 B920     		movs	r0, #185
 1902 0ba2 FFF7FEFF 		bl	moveUntil
 1903              	.LVL281:
 904:main.c        ****                 straightAdjust(FRONT_SENSORS);
 1904              		.loc 1 904 0
 1905 0ba6 0720     		movs	r0, #7
 1906 0ba8 FFF7FEFF 		bl	straightAdjust
 1907              	.LVL282:
 905:main.c        ****                 
 906:main.c        ****                 
 907:main.c        ****                 //Usually we will check if the next colour we need is in home base already
 908:main.c        ****                 //
 909:main.c        ****                 // If in east edge of home base
 910:main.c        ****                 if ( puck_construction_plan[current_puck_stack_size] == puck_temp_pile[0]){
 911:main.c        ****                     
 912:main.c        ****                 }
 913:main.c        ****                 //If in west edge of home base
 914:main.c        ****                 else if(puck_construction_plan[current_puck_stack_size] == puck_temp_pile[1]){
 915:main.c        ****                          
 916:main.c        ****                 }
 917:main.c        ****                 
 918:main.c        ****                 state = STATE_GO_TO_PUCKS; // Go grab the next puck from the pile since it isn't in
 1908              		.loc 1 918 0
 1909 0bac 0323     		movs	r3, #3
 1910 0bae 7360     		str	r3, [r6, #4]
 1911              	.L39:
 1912              	.LBE11:
 919:main.c        ****             }
 920:main.c        ****             
 921:main.c        ****             
 922:main.c        **** 
 923:main.c        ****         }
 924:main.c        ****  
 925:main.c        **** //        
 926:main.c        **** // *** 7. STATE PARK HOME: *** // 
 927:main.c        **** //        
 928:main.c        ****         
 929:main.c        ****         if (state == STATE_PARK_HOME){
ARM GAS  C:\Users\Misha\AppData\Local\Temp\ccIfQyo5.s 			page 51


 1913              		.loc 1 929 0
 1914 0bb0 194B     		ldr	r3, .L57
 1915 0bb2 5B68     		ldr	r3, [r3, #4]
 1916 0bb4 072B     		cmp	r3, #7
 1917 0bb6 7FF4AAAA 		bne	.L44
 930:main.c        ****             
 931:main.c        ****             // When we enter this state we can assume that we have just deposited the final puck on
 932:main.c        ****             // Thus we are facing the stack.
 933:main.c        ****             
 934:main.c        ****             
 935:main.c        ****             moveUntil(CONSTRUCTION_DISTANCE_CLEAR_FROM_STACK, BACKWARD, GREATER_THAN, FRONT_MIDDLE,
 1918              		.loc 1 935 0
 1919 0bba 0024     		movs	r4, #0
 1920 0bbc 0194     		str	r4, [sp, #4]
 1921 0bbe C825     		movs	r5, #200
 1922 0bc0 0095     		str	r5, [sp]
 1923 0bc2 0523     		movs	r3, #5
 1924 0bc4 4FF0FF32 		mov	r2, #-1
 1925 0bc8 2146     		mov	r1, r4
 1926 0bca D220     		movs	r0, #210
 1927 0bcc FFF7FEFF 		bl	moveUntil
 1928              	.LVL283:
 936:main.c        ****             changeOrientation(WEST,SPEED);
 1929              		.loc 1 936 0
 1930 0bd0 2946     		mov	r1, r5
 1931 0bd2 0320     		movs	r0, #3
 1932 0bd4 FFF7FEFF 		bl	changeOrientation
 1933              	.LVL284:
 937:main.c        ****             straightAdjust(FRONT_SENSORS);
 1934              		.loc 1 937 0
 1935 0bd8 0720     		movs	r0, #7
 1936 0bda FFF7FEFF 		bl	straightAdjust
 1937              	.LVL285:
 938:main.c        ****             moveUntil(HOME_MIDPOINT - DISTANCE_FRONT_SENSOR_FROM_CENTER - 45 , BACKWARD, GREATER_TH
 1938              		.loc 1 938 0
 1939 0bde 0126     		movs	r6, #1
 1940 0be0 0196     		str	r6, [sp, #4]
 1941 0be2 0095     		str	r5, [sp]
 1942 0be4 0523     		movs	r3, #5
 1943 0be6 4FF0FF32 		mov	r2, #-1
 1944 0bea 2146     		mov	r1, r4
 1945 0bec 40F2F910 		movw	r0, #505
 1946 0bf0 FFF7FEFF 		bl	moveUntil
 1947              	.LVL286:
 939:main.c        ****             changeOrientation(NORTH,SPEED);
 1948              		.loc 1 939 0
 1949 0bf4 2946     		mov	r1, r5
 1950 0bf6 2046     		mov	r0, r4
 1951 0bf8 FFF7FEFF 		bl	changeOrientation
 1952              	.LVL287:
 940:main.c        ****             moveUntil(HOME_PARKING_DISTANCE , BACKWARD, LESS_THAN, BACK_RIGHT, SPEED, TRUE);
 1953              		.loc 1 940 0
 1954 0bfc 0196     		str	r6, [sp, #4]
 1955 0bfe 0095     		str	r5, [sp]
 1956 0c00 0423     		movs	r3, #4
 1957 0c02 3246     		mov	r2, r6
 1958 0c04 2146     		mov	r1, r4
ARM GAS  C:\Users\Misha\AppData\Local\Temp\ccIfQyo5.s 			page 52


 1959 0c06 2820     		movs	r0, #40
 1960 0c08 FFF7FEFF 		bl	moveUntil
 1961              	.LVL288:
 941:main.c        **** 
 942:main.c        ****             // END Congratulations:
 943:main.c        ****             changeHeightToPuck(GROUND, NEITHER);
 1962              		.loc 1 943 0
 1963 0c0c 0221     		movs	r1, #2
 1964 0c0e 2046     		mov	r0, r4
 1965 0c10 FFF7FEFF 		bl	changeHeightToPuck
 1966              	.LVL289:
 1967              	.L45:
 1968 0c14 FEE7     		b	.L45
 1969              	.L58:
 1970 0c16 00BF     		.align	2
 1971              	.L57:
 1972 0c18 00000000 		.word	.LANCHOR0
 1973 0c1c 00000000 		.word	.LANCHOR1
 1974              		.cfi_endproc
 1975              	.LFE67:
 1976              		.size	main, .-main
 1977              		.comm	distance_returned_global,4,4
 1978              		.global	current_stage
 1979              		.global	PLAN_SCAN_VERTICAL
 1980              		.global	moving
 1981              		.global	colour_sensing_algorithm
 1982              		.global	colour_flag
 1983              		.global	idac_value
 1984              		.global	puck_west_clearance
 1985              		.global	puck_east_clearance
 1986              		.global	block_west_clearance
 1987              		.global	block_east_clearance
 1988              		.global	safety_override
 1989              		.global	puck_location
 1990              		.global	block_location
 1991              		.global	begin_navigation
 1992              		.global	puck_temp_pile
 1993              		.global	puck_construction_plan
 1994              		.global	current_puck_stack_size
 1995              		.global	state
 1996              		.comm	ultrasonic_flag,4,4
 1997              		.comm	initialisation,4,4
 1998              		.comm	output,32,4
 1999              		.global	block_edge_location
 2000              		.global	puck_rack_west_offsets
 2001              		.global	puck_rack_scans
 2002              		.comm	internal_orientation,4,4
 2003              		.section	.rodata
 2004              		.align	2
 2005              		.type	PLAN_SCAN_VERTICAL, %object
 2006              		.size	PLAN_SCAN_VERTICAL, 4
 2007              	PLAN_SCAN_VERTICAL:
 2008 0000 0A000000 		.word	10
 2009              		.data
 2010              		.align	2
 2011              		.set	.LANCHOR1,. + 0
 2012              		.type	current_stage, %object
ARM GAS  C:\Users\Misha\AppData\Local\Temp\ccIfQyo5.s 			page 53


 2013              		.size	current_stage, 4
 2014              	current_stage:
 2015 0000 01000000 		.word	1
 2016              		.type	colour_flag, %object
 2017              		.size	colour_flag, 4
 2018              	colour_flag:
 2019 0004 01000000 		.word	1
 2020              		.type	puck_rack_west_offsets, %object
 2021              		.size	puck_rack_west_offsets, 20
 2022              	puck_rack_west_offsets:
 2023 0008 D0020000 		.word	720
 2024 000c 94020000 		.word	660
 2025 0010 58020000 		.word	600
 2026 0014 1C020000 		.word	540
 2027 0018 E0010000 		.word	480
 2028              		.section	.rodata.str1.4,"aMS",%progbits,1
 2029              		.align	2
 2030              	.LC0:
 2031 0000 42656769 		.ascii	"Beginning Navigation \012\000"
 2031      6E6E696E 
 2031      67204E61 
 2031      76696761 
 2031      74696F6E 
 2032 0017 00       		.space	1
 2033              	.LC1:
 2034 0018 55415254 		.ascii	"UART commencing... \012\000"
 2034      20636F6D 
 2034      6D656E63 
 2034      696E672E 
 2034      2E2E200A 
 2035 002d 000000   		.space	3
 2036              	.LC2:
 2037 0030 556C7472 		.ascii	"Ultrasonic Calibration tests: \012\000"
 2037      61736F6E 
 2037      69632043 
 2037      616C6962 
 2037      72617469 
 2038              	.LC3:
 2039 0050 466F756E 		.ascii	"Found Colours: \012\000"
 2039      6420436F 
 2039      6C6F7572 
 2039      733A200A 
 2039      00
 2040 0061 000000   		.space	3
 2041              	.LC4:
 2042 0064 2569200A 		.ascii	"%i \012\000"
 2042      00
 2043 0069 000000   		.space	3
 2044              	.LC5:
 2045 006c 626C6F63 		.ascii	"block threshold: %d \012\000"
 2045      6B207468 
 2045      72657368 
 2045      6F6C643A 
 2045      20256420 
 2046 0082 0000     		.space	2
 2047              	.LC6:
 2048 0084 7075636B 		.ascii	"puck threshold: %d \012\000"
ARM GAS  C:\Users\Misha\AppData\Local\Temp\ccIfQyo5.s 			page 54


 2048      20746872 
 2048      6573686F 
 2048      6C643A20 
 2048      2564200A 
 2049 0099 000000   		.space	3
 2050              	.LC7:
 2051 009c 77657374 		.ascii	"west block front sensor: %d, \012\000"
 2051      20626C6F 
 2051      636B2066 
 2051      726F6E74 
 2051      2073656E 
 2052 00bb 00       		.space	1
 2053              	.LC8:
 2054 00bc 65617374 		.ascii	"east block front sensor: %d, \012\000"
 2054      20626C6F 
 2054      636B2066 
 2054      726F6E74 
 2054      2073656E 
 2055 00db 00       		.space	1
 2056              	.LC9:
 2057 00dc 6F666673 		.ascii	"offset: %d, \012\000"
 2057      65743A20 
 2057      25642C20 
 2057      0A00
 2058 00ea 0000     		.space	2
 2059              	.LC10:
 2060 00ec 77657374 		.ascii	"west puck front sensor: %d, \012\000"
 2060      20707563 
 2060      6B206672 
 2060      6F6E7420 
 2060      73656E73 
 2061 010a 0000     		.space	2
 2062              	.LC11:
 2063 010c 7468696E 		.ascii	"thinks pucks are behind block\012\000"
 2063      6B732070 
 2063      75636B73 
 2063      20617265 
 2063      20626568 
 2064 012b 00       		.space	1
 2065              	.LC12:
 2066 012c 7075636B 		.ascii	"puck distance: %d, \012\000"
 2066      20646973 
 2066      74616E63 
 2066      653A2025 
 2066      642C200A 
 2067 0141 000000   		.space	3
 2068              	.LC13:
 2069 0144 77657374 		.ascii	"west puck: %d, \012\000"
 2069      20707563 
 2069      6B3A2025 
 2069      642C200A 
 2069      00
 2070 0155 000000   		.space	3
 2071              	.LC14:
 2072 0158 65617374 		.ascii	"east puck: %d, \012\012\000"
 2072      20707563 
 2072      6B3A2025 
ARM GAS  C:\Users\Misha\AppData\Local\Temp\ccIfQyo5.s 			page 55


 2072      642C200A 
 2072      0A00
 2073 016a 0000     		.space	2
 2074              	.LC15:
 2075 016c 77657374 		.ascii	"west block: %d, \012\000"
 2075      20626C6F 
 2075      636B3A20 
 2075      25642C20 
 2075      0A00
 2076 017e 0000     		.space	2
 2077              	.LC16:
 2078 0180 65617374 		.ascii	"east block: %d, \012\000"
 2078      20626C6F 
 2078      636B3A20 
 2078      25642C20 
 2078      0A00
 2079 0192 0000     		.space	2
 2080              	.LC17:
 2081 0194 77657374 		.ascii	"west puck clearance: %d, \012\000"
 2081      20707563 
 2081      6B20636C 
 2081      65617261 
 2081      6E63653A 
 2082 01af 00       		.space	1
 2083              	.LC18:
 2084 01b0 65617374 		.ascii	"east puck clearance: %d, \012\012\000"
 2084      20707563 
 2084      6B20636C 
 2084      65617261 
 2084      6E63653A 
 2085              	.LC19:
 2086 01cc 77657374 		.ascii	"west block clearance: %d, \012\000"
 2086      20626C6F 
 2086      636B2063 
 2086      6C656172 
 2086      616E6365 
 2087              	.LC20:
 2088 01e8 65617374 		.ascii	"east block clearance: %d, \012\000"
 2088      20626C6F 
 2088      636B2063 
 2088      6C656172 
 2088      616E6365 
 2089              		.bss
 2090              		.align	2
 2091              		.set	.LANCHOR0,. + 0
 2092              		.type	begin_navigation, %object
 2093              		.size	begin_navigation, 4
 2094              	begin_navigation:
 2095 0000 00000000 		.space	4
 2096              		.type	state, %object
 2097              		.size	state, 4
 2098              	state:
 2099 0004 00000000 		.space	4
 2100              		.type	idac_value, %object
 2101              		.size	idac_value, 4
 2102              	idac_value:
 2103 0008 00000000 		.space	4
ARM GAS  C:\Users\Misha\AppData\Local\Temp\ccIfQyo5.s 			page 56


 2104              		.type	colour_sensing_algorithm, %object
 2105              		.size	colour_sensing_algorithm, 4
 2106              	colour_sensing_algorithm:
 2107 000c 00000000 		.space	4
 2108              		.type	puck_construction_plan, %object
 2109              		.size	puck_construction_plan, 12
 2110              	puck_construction_plan:
 2111 0010 00000000 		.space	12
 2111      00000000 
 2111      00000000 
 2112              		.type	puck_rack_scans, %object
 2113              		.size	puck_rack_scans, 20
 2114              	puck_rack_scans:
 2115 001c 00000000 		.space	20
 2115      00000000 
 2115      00000000 
 2115      00000000 
 2115      00000000 
 2116              		.type	block_location, %object
 2117              		.size	block_location, 16
 2118              	block_location:
 2119 0030 00000000 		.space	16
 2119      00000000 
 2119      00000000 
 2119      00000000 
 2120              		.type	puck_location, %object
 2121              		.size	puck_location, 16
 2122              	puck_location:
 2123 0040 00000000 		.space	16
 2123      00000000 
 2123      00000000 
 2123      00000000 
 2124              		.type	block_east_clearance, %object
 2125              		.size	block_east_clearance, 2
 2126              	block_east_clearance:
 2127 0050 0000     		.space	2
 2128              		.type	block_west_clearance, %object
 2129              		.size	block_west_clearance, 2
 2130              	block_west_clearance:
 2131 0052 0000     		.space	2
 2132              		.type	puck_east_clearance, %object
 2133              		.size	puck_east_clearance, 2
 2134              	puck_east_clearance:
 2135 0054 0000     		.space	2
 2136              		.type	puck_west_clearance, %object
 2137              		.size	puck_west_clearance, 2
 2138              	puck_west_clearance:
 2139 0056 0000     		.space	2
 2140              		.type	current_puck_stack_size, %object
 2141              		.size	current_puck_stack_size, 4
 2142              	current_puck_stack_size:
 2143 0058 00000000 		.space	4
 2144              		.type	safety_override, %object
 2145              		.size	safety_override, 4
 2146              	safety_override:
 2147 005c 00000000 		.space	4
 2148              		.type	moving, %object
ARM GAS  C:\Users\Misha\AppData\Local\Temp\ccIfQyo5.s 			page 57


 2149              		.size	moving, 4
 2150              	moving:
 2151 0060 00000000 		.space	4
 2152              		.type	puck_temp_pile, %object
 2153              		.size	puck_temp_pile, 8
 2154              	puck_temp_pile:
 2155 0064 00000000 		.space	8
 2155      00000000 
 2156              		.type	block_edge_location, %object
 2157              		.size	block_edge_location, 16
 2158              	block_edge_location:
 2159 006c 00000000 		.space	16
 2159      00000000 
 2159      00000000 
 2159      00000000 
 2160              		.text
 2161              	.Letext0:
 2162              		.file 2 "c:\\program files (x86)\\cypress\\psoc creator\\4.2\\psoc creator\\import\\gnu\\arm\\5.4.
 2163              		.file 3 "c:\\program files (x86)\\cypress\\psoc creator\\4.2\\psoc creator\\import\\gnu\\arm\\5.4.
 2164              		.file 4 "Generated_Source\\PSoC5/core_cm3.h"
 2165              		.file 5 "navigation.h"
 2166              		.file 6 "ultrasonic.h"
 2167              		.file 7 "main.h"
 2168              		.file 8 "Generated_Source\\PSoC5/CyLib.h"
 2169              		.file 9 "Generated_Source\\PSoC5/UART_1.h"
 2170              		.file 10 "Generated_Source\\PSoC5/Motor_Left_Driver.h"
 2171              		.file 11 "Generated_Source\\PSoC5/Motor_Right_Driver.h"
 2172              		.file 12 "motor.h"
 2173              		.file 13 "colour.h"
 2174              		.file 14 "c:\\program files (x86)\\cypress\\psoc creator\\4.2\\psoc creator\\import\\gnu\\arm\\5.4
 2175              		.file 15 "debugging.h"
 2176              		.file 16 "Generated_Source\\PSoC5/control_photodiode.h"
 2177              		.file 17 "servo.h"
 2178              		.file 18 "Generated_Source\\PSoC5/TIA_1.h"
 2179              		.file 19 "Generated_Source\\PSoC5/ADC.h"
 2180              		.file 20 "Generated_Source\\PSoC5/IDAC8_1.h"
 2181              		.file 21 "Generated_Source\\PSoC5/control_led.h"
 2182              		.file 22 "Generated_Source\\PSoC5/Rack_Servo_PWM.h"
 2183              		.file 23 "Generated_Source\\PSoC5/Gripper_Servo_PWM.h"
 2184              		.file 24 "Generated_Source\\PSoC5/Motor_Left_Decoder.h"
 2185              		.file 25 "Generated_Source\\PSoC5/Motor_Right_Decoder.h"
 2186              		.file 26 "Generated_Source\\PSoC5/Timer_1.h"
 2187              		.file 27 "Generated_Source\\PSoC5/Sonic.h"
 2188              		.file 28 "Generated_Source\\PSoC5/Start.h"
 2189              		.file 29 "Generated_Source\\PSoC5/Straight.h"
 2190              		.file 30 "Generated_Source\\PSoC5/Timer_straight_adjust.h"
 2191              		.section	.debug_info,"",%progbits
 2192              	.Ldebug_info0:
 2193 0000 E11E0000 		.4byte	0x1ee1
 2194 0004 0400     		.2byte	0x4
 2195 0006 00000000 		.4byte	.Ldebug_abbrev0
 2196 000a 04       		.byte	0x4
 2197 000b 01       		.uleb128 0x1
 2198 000c 34070000 		.4byte	.LASF106
 2199 0010 0C       		.byte	0xc
 2200 0011 DE050000 		.4byte	.LASF107
 2201 0015 7F060000 		.4byte	.LASF108
ARM GAS  C:\Users\Misha\AppData\Local\Temp\ccIfQyo5.s 			page 58


 2202 0019 18000000 		.4byte	.Ldebug_ranges0+0x18
 2203 001d 00000000 		.4byte	0
 2204 0021 00000000 		.4byte	.Ldebug_line0
 2205 0025 02       		.uleb128 0x2
 2206 0026 01       		.byte	0x1
 2207 0027 06       		.byte	0x6
 2208 0028 6B040000 		.4byte	.LASF0
 2209 002c 02       		.uleb128 0x2
 2210 002d 01       		.byte	0x1
 2211 002e 08       		.byte	0x8
 2212 002f B0030000 		.4byte	.LASF1
 2213 0033 02       		.uleb128 0x2
 2214 0034 02       		.byte	0x2
 2215 0035 05       		.byte	0x5
 2216 0036 A5000000 		.4byte	.LASF2
 2217 003a 02       		.uleb128 0x2
 2218 003b 02       		.byte	0x2
 2219 003c 07       		.byte	0x7
 2220 003d 36060000 		.4byte	.LASF3
 2221 0041 03       		.uleb128 0x3
 2222 0042 75060000 		.4byte	.LASF9
 2223 0046 02       		.byte	0x2
 2224 0047 3F       		.byte	0x3f
 2225 0048 4C000000 		.4byte	0x4c
 2226 004c 02       		.uleb128 0x2
 2227 004d 04       		.byte	0x4
 2228 004e 05       		.byte	0x5
 2229 004f BF020000 		.4byte	.LASF4
 2230 0053 02       		.uleb128 0x2
 2231 0054 04       		.byte	0x4
 2232 0055 07       		.byte	0x7
 2233 0056 CC040000 		.4byte	.LASF5
 2234 005a 02       		.uleb128 0x2
 2235 005b 08       		.byte	0x8
 2236 005c 05       		.byte	0x5
 2237 005d 57020000 		.4byte	.LASF6
 2238 0061 02       		.uleb128 0x2
 2239 0062 08       		.byte	0x8
 2240 0063 07       		.byte	0x7
 2241 0064 8B040000 		.4byte	.LASF7
 2242 0068 04       		.uleb128 0x4
 2243 0069 04       		.byte	0x4
 2244 006a 05       		.byte	0x5
 2245 006b 696E7400 		.ascii	"int\000"
 2246 006f 02       		.uleb128 0x2
 2247 0070 04       		.byte	0x4
 2248 0071 07       		.byte	0x7
 2249 0072 B4040000 		.4byte	.LASF8
 2250 0076 03       		.uleb128 0x3
 2251 0077 4E050000 		.4byte	.LASF10
 2252 007b 03       		.byte	0x3
 2253 007c 2C       		.byte	0x2c
 2254 007d 41000000 		.4byte	0x41
 2255 0081 02       		.uleb128 0x2
 2256 0082 04       		.byte	0x4
 2257 0083 04       		.byte	0x4
 2258 0084 3E020000 		.4byte	.LASF11
ARM GAS  C:\Users\Misha\AppData\Local\Temp\ccIfQyo5.s 			page 59


 2259 0088 02       		.uleb128 0x2
 2260 0089 08       		.byte	0x8
 2261 008a 04       		.byte	0x4
 2262 008b 07070000 		.4byte	.LASF12
 2263 008f 02       		.uleb128 0x2
 2264 0090 01       		.byte	0x1
 2265 0091 08       		.byte	0x8
 2266 0092 44050000 		.4byte	.LASF13
 2267 0096 02       		.uleb128 0x2
 2268 0097 08       		.byte	0x8
 2269 0098 04       		.byte	0x4
 2270 0099 2E010000 		.4byte	.LASF14
 2271 009d 02       		.uleb128 0x2
 2272 009e 04       		.byte	0x4
 2273 009f 07       		.byte	0x7
 2274 00a0 F7060000 		.4byte	.LASF15
 2275 00a4 05       		.uleb128 0x5
 2276 00a5 54494800 		.ascii	"TIH\000"
 2277 00a9 01       		.byte	0x1
 2278 00aa 5F       		.byte	0x5f
 2279 00ab 00000000 		.4byte	.LFB64
 2280 00af 08000000 		.4byte	.LFE64-.LFB64
 2281 00b3 01       		.uleb128 0x1
 2282 00b4 9C       		.byte	0x9c
 2283 00b5 C3000000 		.4byte	0xc3
 2284 00b9 06       		.uleb128 0x6
 2285 00ba 06000000 		.4byte	.LVL0
 2286 00be A81C0000 		.4byte	0x1ca8
 2287 00c2 00       		.byte	0
 2288 00c3 07       		.uleb128 0x7
 2289 00c4 5D010000 		.4byte	.LASF16
 2290 00c8 01       		.byte	0x1
 2291 00c9 64       		.byte	0x64
 2292 00ca 00000000 		.4byte	.LFB65
 2293 00ce 24000000 		.4byte	.LFE65-.LFB65
 2294 00d2 01       		.uleb128 0x1
 2295 00d3 9C       		.byte	0x9c
 2296 00d4 00010000 		.4byte	0x100
 2297 00d8 08       		.uleb128 0x8
 2298 00d9 08000000 		.4byte	.LVL1
 2299 00dd B31C0000 		.4byte	0x1cb3
 2300 00e1 EC000000 		.4byte	0xec
 2301 00e5 09       		.uleb128 0x9
 2302 00e6 01       		.uleb128 0x1
 2303 00e7 50       		.byte	0x50
 2304 00e8 02       		.uleb128 0x2
 2305 00e9 08       		.byte	0x8
 2306 00ea 64       		.byte	0x64
 2307 00eb 00       		.byte	0
 2308 00ec 0A       		.uleb128 0xa
 2309 00ed 14000000 		.4byte	.LVL2
 2310 00f1 BE1C0000 		.4byte	0x1cbe
 2311 00f5 09       		.uleb128 0x9
 2312 00f6 01       		.uleb128 0x1
 2313 00f7 50       		.byte	0x50
 2314 00f8 05       		.uleb128 0x5
 2315 00f9 03       		.byte	0x3
ARM GAS  C:\Users\Misha\AppData\Local\Temp\ccIfQyo5.s 			page 60


 2316 00fa 00000000 		.4byte	.LC0
 2317 00fe 00       		.byte	0
 2318 00ff 00       		.byte	0
 2319 0100 07       		.uleb128 0x7
 2320 0101 68030000 		.4byte	.LASF17
 2321 0105 01       		.byte	0x1
 2322 0106 6E       		.byte	0x6e
 2323 0107 00000000 		.4byte	.LFB66
 2324 010b 36000000 		.4byte	.LFE66-.LFB66
 2325 010f 01       		.uleb128 0x1
 2326 0110 9C       		.byte	0x9c
 2327 0111 9B010000 		.4byte	0x19b
 2328 0115 06       		.uleb128 0x6
 2329 0116 06000000 		.4byte	.LVL3
 2330 011a C91C0000 		.4byte	0x1cc9
 2331 011e 06       		.uleb128 0x6
 2332 011f 0A000000 		.4byte	.LVL4
 2333 0123 D41C0000 		.4byte	0x1cd4
 2334 0127 08       		.uleb128 0x8
 2335 0128 16000000 		.4byte	.LVL5
 2336 012c DF1C0000 		.4byte	0x1cdf
 2337 0130 46010000 		.4byte	0x146
 2338 0134 09       		.uleb128 0x9
 2339 0135 01       		.uleb128 0x1
 2340 0136 50       		.byte	0x50
 2341 0137 02       		.uleb128 0x2
 2342 0138 09       		.byte	0x9
 2343 0139 EC       		.byte	0xec
 2344 013a 09       		.uleb128 0x9
 2345 013b 01       		.uleb128 0x1
 2346 013c 51       		.byte	0x51
 2347 013d 02       		.uleb128 0x2
 2348 013e 08       		.byte	0x8
 2349 013f C8       		.byte	0xc8
 2350 0140 09       		.uleb128 0x9
 2351 0141 01       		.uleb128 0x1
 2352 0142 52       		.byte	0x52
 2353 0143 01       		.uleb128 0x1
 2354 0144 31       		.byte	0x31
 2355 0145 00       		.byte	0
 2356 0146 08       		.uleb128 0x8
 2357 0147 20000000 		.4byte	.LVL6
 2358 014b DF1C0000 		.4byte	0x1cdf
 2359 014f 64010000 		.4byte	0x164
 2360 0153 09       		.uleb128 0x9
 2361 0154 01       		.uleb128 0x1
 2362 0155 50       		.byte	0x50
 2363 0156 01       		.uleb128 0x1
 2364 0157 44       		.byte	0x44
 2365 0158 09       		.uleb128 0x9
 2366 0159 01       		.uleb128 0x1
 2367 015a 51       		.byte	0x51
 2368 015b 02       		.uleb128 0x2
 2369 015c 08       		.byte	0x8
 2370 015d C8       		.byte	0xc8
 2371 015e 09       		.uleb128 0x9
 2372 015f 01       		.uleb128 0x1
ARM GAS  C:\Users\Misha\AppData\Local\Temp\ccIfQyo5.s 			page 61


 2373 0160 52       		.byte	0x52
 2374 0161 01       		.uleb128 0x1
 2375 0162 31       		.byte	0x31
 2376 0163 00       		.byte	0
 2377 0164 06       		.uleb128 0x6
 2378 0165 24000000 		.4byte	.LVL7
 2379 0169 EA1C0000 		.4byte	0x1cea
 2380 016d 08       		.uleb128 0x8
 2381 016e 2A000000 		.4byte	.LVL8
 2382 0172 F51C0000 		.4byte	0x1cf5
 2383 0176 81010000 		.4byte	0x181
 2384 017a 09       		.uleb128 0x9
 2385 017b 01       		.uleb128 0x1
 2386 017c 50       		.byte	0x50
 2387 017d 02       		.uleb128 0x2
 2388 017e 09       		.byte	0x9
 2389 017f C8       		.byte	0xc8
 2390 0180 00       		.byte	0
 2391 0181 06       		.uleb128 0x6
 2392 0182 2E000000 		.4byte	.LVL9
 2393 0186 001D0000 		.4byte	0x1d00
 2394 018a 0A       		.uleb128 0xa
 2395 018b 34000000 		.4byte	.LVL10
 2396 018f 0B1D0000 		.4byte	0x1d0b
 2397 0193 09       		.uleb128 0x9
 2398 0194 01       		.uleb128 0x1
 2399 0195 50       		.byte	0x50
 2400 0196 02       		.uleb128 0x2
 2401 0197 09       		.byte	0x9
 2402 0198 C8       		.byte	0xc8
 2403 0199 00       		.byte	0
 2404 019a 00       		.byte	0
 2405 019b 0B       		.uleb128 0xb
 2406 019c 49050000 		.4byte	.LASF109
 2407 01a0 01       		.byte	0x1
 2408 01a1 7C       		.byte	0x7c
 2409 01a2 68000000 		.4byte	0x68
 2410 01a6 00000000 		.4byte	.LFB67
 2411 01aa 200C0000 		.4byte	.LFE67-.LFB67
 2412 01ae 01       		.uleb128 0x1
 2413 01af 9C       		.byte	0x9c
 2414 01b0 5D1A0000 		.4byte	0x1a5d
 2415 01b4 0C       		.uleb128 0xc
 2416 01b5 7F020000 		.4byte	.LASF18
 2417 01b9 01       		.byte	0x1
 2418 01ba CE       		.byte	0xce
 2419 01bb 68000000 		.4byte	0x68
 2420 01bf 00       		.byte	0
 2421 01c0 0D       		.uleb128 0xd
 2422 01c1 16010000 		.4byte	.LBB2
 2423 01c5 F2000000 		.4byte	.LBE2-.LBB2
 2424 01c9 DB030000 		.4byte	0x3db
 2425 01cd 0E       		.uleb128 0xe
 2426 01ce FD020000 		.4byte	.LASF19
 2427 01d2 01       		.byte	0x1
 2428 01d3 1001     		.2byte	0x110
 2429 01d5 68000000 		.4byte	0x68
ARM GAS  C:\Users\Misha\AppData\Local\Temp\ccIfQyo5.s 			page 62


 2430 01d9 00000000 		.4byte	.LLST0
 2431 01dd 0D       		.uleb128 0xd
 2432 01de 78010000 		.4byte	.LBB3
 2433 01e2 32000000 		.4byte	.LBE3-.LBB3
 2434 01e6 46020000 		.4byte	0x246
 2435 01ea 0F       		.uleb128 0xf
 2436 01eb 6900     		.ascii	"i\000"
 2437 01ed 01       		.byte	0x1
 2438 01ee F9       		.byte	0xf9
 2439 01ef 68000000 		.4byte	0x68
 2440 01f3 1F000000 		.4byte	.LLST1
 2441 01f7 06       		.uleb128 0x6
 2442 01f8 80010000 		.4byte	.LVL67
 2443 01fc 161D0000 		.4byte	0x1d16
 2444 0200 08       		.uleb128 0x8
 2445 0201 90010000 		.4byte	.LVL68
 2446 0205 B31C0000 		.4byte	0x1cb3
 2447 0209 15020000 		.4byte	0x215
 2448 020d 09       		.uleb128 0x9
 2449 020e 01       		.uleb128 0x1
 2450 020f 50       		.byte	0x50
 2451 0210 03       		.uleb128 0x3
 2452 0211 0A       		.byte	0xa
 2453 0212 F401     		.2byte	0x1f4
 2454 0214 00       		.byte	0
 2455 0215 08       		.uleb128 0x8
 2456 0216 9A010000 		.4byte	.LVL69
 2457 021a DF1C0000 		.4byte	0x1cdf
 2458 021e 34020000 		.4byte	0x234
 2459 0222 09       		.uleb128 0x9
 2460 0223 01       		.uleb128 0x1
 2461 0224 50       		.byte	0x50
 2462 0225 02       		.uleb128 0x2
 2463 0226 08       		.byte	0x8
 2464 0227 3D       		.byte	0x3d
 2465 0228 09       		.uleb128 0x9
 2466 0229 01       		.uleb128 0x1
 2467 022a 51       		.byte	0x51
 2468 022b 02       		.uleb128 0x2
 2469 022c 08       		.byte	0x8
 2470 022d C8       		.byte	0xc8
 2471 022e 09       		.uleb128 0x9
 2472 022f 01       		.uleb128 0x1
 2473 0230 52       		.byte	0x52
 2474 0231 01       		.uleb128 0x1
 2475 0232 31       		.byte	0x31
 2476 0233 00       		.byte	0
 2477 0234 0A       		.uleb128 0xa
 2478 0235 A4010000 		.4byte	.LVL70
 2479 0239 211D0000 		.4byte	0x1d21
 2480 023d 09       		.uleb128 0x9
 2481 023e 01       		.uleb128 0x1
 2482 023f 51       		.byte	0x51
 2483 0240 03       		.uleb128 0x3
 2484 0241 0A       		.byte	0xa
 2485 0242 F401     		.2byte	0x1f4
 2486 0244 00       		.byte	0
ARM GAS  C:\Users\Misha\AppData\Local\Temp\ccIfQyo5.s 			page 63


 2487 0245 00       		.byte	0
 2488 0246 0D       		.uleb128 0xd
 2489 0247 B0010000 		.4byte	.LBB4
 2490 024b 22000000 		.4byte	.LBE4-.LBB4
 2491 024f 8F020000 		.4byte	0x28f
 2492 0253 10       		.uleb128 0x10
 2493 0254 6900     		.ascii	"i\000"
 2494 0256 01       		.byte	0x1
 2495 0257 0501     		.2byte	0x105
 2496 0259 68000000 		.4byte	0x68
 2497 025d 3E000000 		.4byte	.LLST2
 2498 0261 08       		.uleb128 0x8
 2499 0262 C6010000 		.4byte	.LVL75
 2500 0266 2C1D0000 		.4byte	0x1d2c
 2501 026a 7E020000 		.4byte	0x27e
 2502 026e 09       		.uleb128 0x9
 2503 026f 01       		.uleb128 0x1
 2504 0270 50       		.byte	0x50
 2505 0271 02       		.uleb128 0x2
 2506 0272 75       		.byte	0x75
 2507 0273 00       		.sleb128 0
 2508 0274 09       		.uleb128 0x9
 2509 0275 01       		.uleb128 0x1
 2510 0276 51       		.byte	0x51
 2511 0277 05       		.uleb128 0x5
 2512 0278 03       		.byte	0x3
 2513 0279 64000000 		.4byte	.LC4
 2514 027d 00       		.byte	0
 2515 027e 0A       		.uleb128 0xa
 2516 027f CC010000 		.4byte	.LVL76
 2517 0283 BE1C0000 		.4byte	0x1cbe
 2518 0287 09       		.uleb128 0x9
 2519 0288 01       		.uleb128 0x1
 2520 0289 50       		.byte	0x50
 2521 028a 02       		.uleb128 0x2
 2522 028b 75       		.byte	0x75
 2523 028c 00       		.sleb128 0
 2524 028d 00       		.byte	0
 2525 028e 00       		.byte	0
 2526 028f 11       		.uleb128 0x11
 2527 0290 00000000 		.4byte	.Ldebug_ranges0+0
 2528 0294 A9020000 		.4byte	0x2a9
 2529 0298 0E       		.uleb128 0xe
 2530 0299 04060000 		.4byte	.LASF20
 2531 029d 01       		.byte	0x1
 2532 029e 1301     		.2byte	0x113
 2533 02a0 68000000 		.4byte	0x68
 2534 02a4 5D000000 		.4byte	.LLST3
 2535 02a8 00       		.byte	0
 2536 02a9 06       		.uleb128 0x6
 2537 02aa 1A010000 		.4byte	.LVL56
 2538 02ae 371D0000 		.4byte	0x1d37
 2539 02b2 08       		.uleb128 0x8
 2540 02b3 20010000 		.4byte	.LVL57
 2541 02b7 421D0000 		.4byte	0x1d42
 2542 02bb C5020000 		.4byte	0x2c5
 2543 02bf 09       		.uleb128 0x9
ARM GAS  C:\Users\Misha\AppData\Local\Temp\ccIfQyo5.s 			page 64


 2544 02c0 01       		.uleb128 0x1
 2545 02c1 50       		.byte	0x50
 2546 02c2 01       		.uleb128 0x1
 2547 02c3 37       		.byte	0x37
 2548 02c4 00       		.byte	0
 2549 02c5 08       		.uleb128 0x8
 2550 02c6 36010000 		.4byte	.LVL58
 2551 02ca 4D1D0000 		.4byte	0x1d4d
 2552 02ce F7020000 		.4byte	0x2f7
 2553 02d2 09       		.uleb128 0x9
 2554 02d3 01       		.uleb128 0x1
 2555 02d4 50       		.byte	0x50
 2556 02d5 02       		.uleb128 0x2
 2557 02d6 09       		.byte	0x9
 2558 02d7 9C       		.byte	0x9c
 2559 02d8 09       		.uleb128 0x9
 2560 02d9 01       		.uleb128 0x1
 2561 02da 51       		.byte	0x51
 2562 02db 01       		.uleb128 0x1
 2563 02dc 30       		.byte	0x30
 2564 02dd 09       		.uleb128 0x9
 2565 02de 01       		.uleb128 0x1
 2566 02df 52       		.byte	0x52
 2567 02e0 02       		.uleb128 0x2
 2568 02e1 74       		.byte	0x74
 2569 02e2 00       		.sleb128 0
 2570 02e3 09       		.uleb128 0x9
 2571 02e4 01       		.uleb128 0x1
 2572 02e5 53       		.byte	0x53
 2573 02e6 01       		.uleb128 0x1
 2574 02e7 34       		.byte	0x34
 2575 02e8 09       		.uleb128 0x9
 2576 02e9 02       		.uleb128 0x2
 2577 02ea 7D       		.byte	0x7d
 2578 02eb 00       		.sleb128 0
 2579 02ec 02       		.uleb128 0x2
 2580 02ed 75       		.byte	0x75
 2581 02ee 00       		.sleb128 0
 2582 02ef 09       		.uleb128 0x9
 2583 02f0 02       		.uleb128 0x2
 2584 02f1 7D       		.byte	0x7d
 2585 02f2 04       		.sleb128 4
 2586 02f3 02       		.uleb128 0x2
 2587 02f4 74       		.byte	0x74
 2588 02f5 00       		.sleb128 0
 2589 02f6 00       		.byte	0
 2590 02f7 08       		.uleb128 0x8
 2591 02f8 48010000 		.4byte	.LVL59
 2592 02fc 4D1D0000 		.4byte	0x1d4d
 2593 0300 2B030000 		.4byte	0x32b
 2594 0304 09       		.uleb128 0x9
 2595 0305 01       		.uleb128 0x1
 2596 0306 50       		.byte	0x50
 2597 0307 03       		.uleb128 0x3
 2598 0308 0A       		.byte	0xa
 2599 0309 9001     		.2byte	0x190
 2600 030b 09       		.uleb128 0x9
ARM GAS  C:\Users\Misha\AppData\Local\Temp\ccIfQyo5.s 			page 65


 2601 030c 01       		.uleb128 0x1
 2602 030d 51       		.byte	0x51
 2603 030e 02       		.uleb128 0x2
 2604 030f 74       		.byte	0x74
 2605 0310 00       		.sleb128 0
 2606 0311 09       		.uleb128 0x9
 2607 0312 01       		.uleb128 0x1
 2608 0313 52       		.byte	0x52
 2609 0314 02       		.uleb128 0x2
 2610 0315 74       		.byte	0x74
 2611 0316 00       		.sleb128 0
 2612 0317 09       		.uleb128 0x9
 2613 0318 01       		.uleb128 0x1
 2614 0319 53       		.byte	0x53
 2615 031a 01       		.uleb128 0x1
 2616 031b 30       		.byte	0x30
 2617 031c 09       		.uleb128 0x9
 2618 031d 02       		.uleb128 0x2
 2619 031e 7D       		.byte	0x7d
 2620 031f 00       		.sleb128 0
 2621 0320 02       		.uleb128 0x2
 2622 0321 75       		.byte	0x75
 2623 0322 00       		.sleb128 0
 2624 0323 09       		.uleb128 0x9
 2625 0324 02       		.uleb128 0x2
 2626 0325 7D       		.byte	0x7d
 2627 0326 04       		.sleb128 4
 2628 0327 02       		.uleb128 0x2
 2629 0328 74       		.byte	0x74
 2630 0329 00       		.sleb128 0
 2631 032a 00       		.byte	0
 2632 032b 08       		.uleb128 0x8
 2633 032c 52010000 		.4byte	.LVL60
 2634 0330 DF1C0000 		.4byte	0x1cdf
 2635 0334 4C030000 		.4byte	0x34c
 2636 0338 09       		.uleb128 0x9
 2637 0339 01       		.uleb128 0x1
 2638 033a 50       		.byte	0x50
 2639 033b 03       		.uleb128 0x3
 2640 033c 0B       		.byte	0xb
 2641 033d 3EFE     		.2byte	0xfe3e
 2642 033f 09       		.uleb128 0x9
 2643 0340 01       		.uleb128 0x1
 2644 0341 51       		.byte	0x51
 2645 0342 02       		.uleb128 0x2
 2646 0343 75       		.byte	0x75
 2647 0344 00       		.sleb128 0
 2648 0345 09       		.uleb128 0x9
 2649 0346 01       		.uleb128 0x1
 2650 0347 52       		.byte	0x52
 2651 0348 02       		.uleb128 0x2
 2652 0349 74       		.byte	0x74
 2653 034a 00       		.sleb128 0
 2654 034b 00       		.byte	0
 2655 034c 08       		.uleb128 0x8
 2656 034d 5A010000 		.4byte	.LVL61
 2657 0351 B31C0000 		.4byte	0x1cb3
ARM GAS  C:\Users\Misha\AppData\Local\Temp\ccIfQyo5.s 			page 66


 2658 0355 61030000 		.4byte	0x361
 2659 0359 09       		.uleb128 0x9
 2660 035a 01       		.uleb128 0x1
 2661 035b 50       		.byte	0x50
 2662 035c 03       		.uleb128 0x3
 2663 035d 0A       		.byte	0xa
 2664 035e F401     		.2byte	0x1f4
 2665 0360 00       		.byte	0
 2666 0361 06       		.uleb128 0x6
 2667 0362 5E010000 		.4byte	.LVL62
 2668 0366 581D0000 		.4byte	0x1d58
 2669 036a 08       		.uleb128 0x8
 2670 036b 66010000 		.4byte	.LVL63
 2671 036f B31C0000 		.4byte	0x1cb3
 2672 0373 7F030000 		.4byte	0x37f
 2673 0377 09       		.uleb128 0x9
 2674 0378 01       		.uleb128 0x1
 2675 0379 50       		.byte	0x50
 2676 037a 03       		.uleb128 0x3
 2677 037b 0A       		.byte	0xa
 2678 037c F401     		.2byte	0x1f4
 2679 037e 00       		.byte	0
 2680 037f 08       		.uleb128 0x8
 2681 0380 70010000 		.4byte	.LVL64
 2682 0384 DF1C0000 		.4byte	0x1cdf
 2683 0388 9F030000 		.4byte	0x39f
 2684 038c 09       		.uleb128 0x9
 2685 038d 01       		.uleb128 0x1
 2686 038e 50       		.byte	0x50
 2687 038f 02       		.uleb128 0x2
 2688 0390 08       		.byte	0x8
 2689 0391 AA       		.byte	0xaa
 2690 0392 09       		.uleb128 0x9
 2691 0393 01       		.uleb128 0x1
 2692 0394 51       		.byte	0x51
 2693 0395 02       		.uleb128 0x2
 2694 0396 75       		.byte	0x75
 2695 0397 00       		.sleb128 0
 2696 0398 09       		.uleb128 0x9
 2697 0399 01       		.uleb128 0x1
 2698 039a 52       		.byte	0x52
 2699 039b 02       		.uleb128 0x2
 2700 039c 74       		.byte	0x74
 2701 039d 00       		.sleb128 0
 2702 039e 00       		.byte	0
 2703 039f 08       		.uleb128 0x8
 2704 03a0 78010000 		.4byte	.LVL65
 2705 03a4 B31C0000 		.4byte	0x1cb3
 2706 03a8 B4030000 		.4byte	0x3b4
 2707 03ac 09       		.uleb128 0x9
 2708 03ad 01       		.uleb128 0x1
 2709 03ae 50       		.byte	0x50
 2710 03af 03       		.uleb128 0x3
 2711 03b0 0A       		.byte	0xa
 2712 03b1 F401     		.2byte	0x1f4
 2713 03b3 00       		.byte	0
 2714 03b4 08       		.uleb128 0x8
ARM GAS  C:\Users\Misha\AppData\Local\Temp\ccIfQyo5.s 			page 67


 2715 03b5 B0010000 		.4byte	.LVL72
 2716 03b9 BE1C0000 		.4byte	0x1cbe
 2717 03bd CB030000 		.4byte	0x3cb
 2718 03c1 09       		.uleb128 0x9
 2719 03c2 01       		.uleb128 0x1
 2720 03c3 50       		.byte	0x50
 2721 03c4 05       		.uleb128 0x5
 2722 03c5 03       		.byte	0x3
 2723 03c6 50000000 		.4byte	.LC3
 2724 03ca 00       		.byte	0
 2725 03cb 0A       		.uleb128 0xa
 2726 03cc D8010000 		.4byte	.LVL78
 2727 03d0 631D0000 		.4byte	0x1d63
 2728 03d4 09       		.uleb128 0x9
 2729 03d5 01       		.uleb128 0x1
 2730 03d6 50       		.byte	0x50
 2731 03d7 01       		.uleb128 0x1
 2732 03d8 31       		.byte	0x31
 2733 03d9 00       		.byte	0
 2734 03da 00       		.byte	0
 2735 03db 0D       		.uleb128 0xd
 2736 03dc 12020000 		.4byte	.LBB7
 2737 03e0 C0040000 		.4byte	.LBE7-.LBB7
 2738 03e4 950C0000 		.4byte	0xc95
 2739 03e8 0E       		.uleb128 0xe
 2740 03e9 EC040000 		.4byte	.LASF21
 2741 03ed 01       		.byte	0x1
 2742 03ee 3B01     		.2byte	0x13b
 2743 03f0 68000000 		.4byte	0x68
 2744 03f4 7C000000 		.4byte	.LLST4
 2745 03f8 0E       		.uleb128 0xe
 2746 03f9 8F030000 		.4byte	.LASF22
 2747 03fd 01       		.byte	0x1
 2748 03fe 3C01     		.2byte	0x13c
 2749 0400 68000000 		.4byte	0x68
 2750 0404 9A000000 		.4byte	.LLST5
 2751 0408 0D       		.uleb128 0xd
 2752 0409 DC020000 		.4byte	.LBB8
 2753 040d BC010000 		.4byte	.LBE8-.LBB8
 2754 0411 02070000 		.4byte	0x702
 2755 0415 0E       		.uleb128 0xe
 2756 0416 F6020000 		.4byte	.LASF23
 2757 041a 01       		.byte	0x1
 2758 041b 7801     		.2byte	0x178
 2759 041d 68000000 		.4byte	0x68
 2760 0421 AD000000 		.4byte	.LLST6
 2761 0425 08       		.uleb128 0x8
 2762 0426 E6020000 		.4byte	.LVL101
 2763 042a 211D0000 		.4byte	0x1d21
 2764 042e 3F040000 		.4byte	0x43f
 2765 0432 09       		.uleb128 0x9
 2766 0433 01       		.uleb128 0x1
 2767 0434 50       		.byte	0x50
 2768 0435 01       		.uleb128 0x1
 2769 0436 32       		.byte	0x32
 2770 0437 09       		.uleb128 0x9
 2771 0438 01       		.uleb128 0x1
ARM GAS  C:\Users\Misha\AppData\Local\Temp\ccIfQyo5.s 			page 68


 2772 0439 51       		.byte	0x51
 2773 043a 03       		.uleb128 0x3
 2774 043b 0A       		.byte	0xa
 2775 043c E803     		.2byte	0x3e8
 2776 043e 00       		.byte	0
 2777 043f 08       		.uleb128 0x8
 2778 0440 EC020000 		.4byte	.LVL102
 2779 0444 6E1D0000 		.4byte	0x1d6e
 2780 0448 52040000 		.4byte	0x452
 2781 044c 09       		.uleb128 0x9
 2782 044d 01       		.uleb128 0x1
 2783 044e 50       		.byte	0x50
 2784 044f 01       		.uleb128 0x1
 2785 0450 30       		.byte	0x30
 2786 0451 00       		.byte	0
 2787 0452 08       		.uleb128 0x8
 2788 0453 F2020000 		.4byte	.LVL103
 2789 0457 B31C0000 		.4byte	0x1cb3
 2790 045b 66040000 		.4byte	0x466
 2791 045f 09       		.uleb128 0x9
 2792 0460 01       		.uleb128 0x1
 2793 0461 50       		.byte	0x50
 2794 0462 02       		.uleb128 0x2
 2795 0463 08       		.byte	0x8
 2796 0464 3C       		.byte	0x3c
 2797 0465 00       		.byte	0
 2798 0466 08       		.uleb128 0x8
 2799 0467 0E030000 		.4byte	.LVL104
 2800 046b 2C1D0000 		.4byte	0x1d2c
 2801 046f 83040000 		.4byte	0x483
 2802 0473 09       		.uleb128 0x9
 2803 0474 01       		.uleb128 0x1
 2804 0475 50       		.byte	0x50
 2805 0476 02       		.uleb128 0x2
 2806 0477 78       		.byte	0x78
 2807 0478 00       		.sleb128 0
 2808 0479 09       		.uleb128 0x9
 2809 047a 01       		.uleb128 0x1
 2810 047b 51       		.byte	0x51
 2811 047c 05       		.uleb128 0x5
 2812 047d 03       		.byte	0x3
 2813 047e 9C000000 		.4byte	.LC7
 2814 0482 00       		.byte	0
 2815 0483 08       		.uleb128 0x8
 2816 0484 14030000 		.4byte	.LVL105
 2817 0488 BE1C0000 		.4byte	0x1cbe
 2818 048c 97040000 		.4byte	0x497
 2819 0490 09       		.uleb128 0x9
 2820 0491 01       		.uleb128 0x1
 2821 0492 50       		.byte	0x50
 2822 0493 02       		.uleb128 0x2
 2823 0494 78       		.byte	0x78
 2824 0495 00       		.sleb128 0
 2825 0496 00       		.byte	0
 2826 0497 08       		.uleb128 0x8
 2827 0498 20030000 		.4byte	.LVL106
 2828 049c DF1C0000 		.4byte	0x1cdf
ARM GAS  C:\Users\Misha\AppData\Local\Temp\ccIfQyo5.s 			page 69


 2829 04a0 B6040000 		.4byte	0x4b6
 2830 04a4 09       		.uleb128 0x9
 2831 04a5 01       		.uleb128 0x1
 2832 04a6 50       		.byte	0x50
 2833 04a7 02       		.uleb128 0x2
 2834 04a8 09       		.byte	0x9
 2835 04a9 D3       		.byte	0xd3
 2836 04aa 09       		.uleb128 0x9
 2837 04ab 01       		.uleb128 0x1
 2838 04ac 51       		.byte	0x51
 2839 04ad 02       		.uleb128 0x2
 2840 04ae 08       		.byte	0x8
 2841 04af C8       		.byte	0xc8
 2842 04b0 09       		.uleb128 0x9
 2843 04b1 01       		.uleb128 0x1
 2844 04b2 52       		.byte	0x52
 2845 04b3 01       		.uleb128 0x1
 2846 04b4 31       		.byte	0x31
 2847 04b5 00       		.byte	0
 2848 04b6 08       		.uleb128 0x8
 2849 04b7 3A030000 		.4byte	.LVL107
 2850 04bb 4D1D0000 		.4byte	0x1d4d
 2851 04bf E8040000 		.4byte	0x4e8
 2852 04c3 09       		.uleb128 0x9
 2853 04c4 01       		.uleb128 0x1
 2854 04c5 50       		.byte	0x50
 2855 04c6 02       		.uleb128 0x2
 2856 04c7 75       		.byte	0x75
 2857 04c8 00       		.sleb128 0
 2858 04c9 09       		.uleb128 0x9
 2859 04ca 01       		.uleb128 0x1
 2860 04cb 51       		.byte	0x51
 2861 04cc 01       		.uleb128 0x1
 2862 04cd 30       		.byte	0x30
 2863 04ce 09       		.uleb128 0x9
 2864 04cf 01       		.uleb128 0x1
 2865 04d0 52       		.byte	0x52
 2866 04d1 02       		.uleb128 0x2
 2867 04d2 09       		.byte	0x9
 2868 04d3 FF       		.byte	0xff
 2869 04d4 09       		.uleb128 0x9
 2870 04d5 01       		.uleb128 0x1
 2871 04d6 53       		.byte	0x53
 2872 04d7 01       		.uleb128 0x1
 2873 04d8 33       		.byte	0x33
 2874 04d9 09       		.uleb128 0x9
 2875 04da 02       		.uleb128 0x2
 2876 04db 7D       		.byte	0x7d
 2877 04dc 00       		.sleb128 0
 2878 04dd 02       		.uleb128 0x2
 2879 04de 79       		.byte	0x79
 2880 04df 00       		.sleb128 0
 2881 04e0 09       		.uleb128 0x9
 2882 04e1 02       		.uleb128 0x2
 2883 04e2 7D       		.byte	0x7d
 2884 04e3 04       		.sleb128 4
 2885 04e4 02       		.uleb128 0x2
ARM GAS  C:\Users\Misha\AppData\Local\Temp\ccIfQyo5.s 			page 70


 2886 04e5 77       		.byte	0x77
 2887 04e6 00       		.sleb128 0
 2888 04e7 00       		.byte	0
 2889 04e8 08       		.uleb128 0x8
 2890 04e9 44030000 		.4byte	.LVL108
 2891 04ed 211D0000 		.4byte	0x1d21
 2892 04f1 02050000 		.4byte	0x502
 2893 04f5 09       		.uleb128 0x9
 2894 04f6 01       		.uleb128 0x1
 2895 04f7 50       		.byte	0x50
 2896 04f8 01       		.uleb128 0x1
 2897 04f9 32       		.byte	0x32
 2898 04fa 09       		.uleb128 0x9
 2899 04fb 01       		.uleb128 0x1
 2900 04fc 51       		.byte	0x51
 2901 04fd 03       		.uleb128 0x3
 2902 04fe 0A       		.byte	0xa
 2903 04ff E803     		.2byte	0x3e8
 2904 0501 00       		.byte	0
 2905 0502 08       		.uleb128 0x8
 2906 0503 4A030000 		.4byte	.LVL109
 2907 0507 6E1D0000 		.4byte	0x1d6e
 2908 050b 15050000 		.4byte	0x515
 2909 050f 09       		.uleb128 0x9
 2910 0510 01       		.uleb128 0x1
 2911 0511 50       		.byte	0x50
 2912 0512 01       		.uleb128 0x1
 2913 0513 34       		.byte	0x34
 2914 0514 00       		.byte	0
 2915 0515 08       		.uleb128 0x8
 2916 0516 50030000 		.4byte	.LVL110
 2917 051a B31C0000 		.4byte	0x1cb3
 2918 051e 29050000 		.4byte	0x529
 2919 0522 09       		.uleb128 0x9
 2920 0523 01       		.uleb128 0x1
 2921 0524 50       		.byte	0x50
 2922 0525 02       		.uleb128 0x2
 2923 0526 08       		.byte	0x8
 2924 0527 32       		.byte	0x32
 2925 0528 00       		.byte	0
 2926 0529 08       		.uleb128 0x8
 2927 052a 62030000 		.4byte	.LVL111
 2928 052e 2C1D0000 		.4byte	0x1d2c
 2929 0532 46050000 		.4byte	0x546
 2930 0536 09       		.uleb128 0x9
 2931 0537 01       		.uleb128 0x1
 2932 0538 50       		.byte	0x50
 2933 0539 02       		.uleb128 0x2
 2934 053a 78       		.byte	0x78
 2935 053b 00       		.sleb128 0
 2936 053c 09       		.uleb128 0x9
 2937 053d 01       		.uleb128 0x1
 2938 053e 51       		.byte	0x51
 2939 053f 05       		.uleb128 0x5
 2940 0540 03       		.byte	0x3
 2941 0541 BC000000 		.4byte	.LC8
 2942 0545 00       		.byte	0
ARM GAS  C:\Users\Misha\AppData\Local\Temp\ccIfQyo5.s 			page 71


 2943 0546 08       		.uleb128 0x8
 2944 0547 68030000 		.4byte	.LVL112
 2945 054b BE1C0000 		.4byte	0x1cbe
 2946 054f 5A050000 		.4byte	0x55a
 2947 0553 09       		.uleb128 0x9
 2948 0554 01       		.uleb128 0x1
 2949 0555 50       		.byte	0x50
 2950 0556 02       		.uleb128 0x2
 2951 0557 78       		.byte	0x78
 2952 0558 00       		.sleb128 0
 2953 0559 00       		.byte	0
 2954 055a 08       		.uleb128 0x8
 2955 055b 74030000 		.4byte	.LVL113
 2956 055f DF1C0000 		.4byte	0x1cdf
 2957 0563 7A050000 		.4byte	0x57a
 2958 0567 09       		.uleb128 0x9
 2959 0568 01       		.uleb128 0x1
 2960 0569 50       		.byte	0x50
 2961 056a 02       		.uleb128 0x2
 2962 056b 09       		.byte	0x9
 2963 056c D3       		.byte	0xd3
 2964 056d 09       		.uleb128 0x9
 2965 056e 01       		.uleb128 0x1
 2966 056f 51       		.byte	0x51
 2967 0570 02       		.uleb128 0x2
 2968 0571 79       		.byte	0x79
 2969 0572 00       		.sleb128 0
 2970 0573 09       		.uleb128 0x9
 2971 0574 01       		.uleb128 0x1
 2972 0575 52       		.byte	0x52
 2973 0576 02       		.uleb128 0x2
 2974 0577 77       		.byte	0x77
 2975 0578 00       		.sleb128 0
 2976 0579 00       		.byte	0
 2977 057a 08       		.uleb128 0x8
 2978 057b 86030000 		.4byte	.LVL114
 2979 057f 4D1D0000 		.4byte	0x1d4d
 2980 0583 AC050000 		.4byte	0x5ac
 2981 0587 09       		.uleb128 0x9
 2982 0588 01       		.uleb128 0x1
 2983 0589 50       		.byte	0x50
 2984 058a 02       		.uleb128 0x2
 2985 058b 74       		.byte	0x74
 2986 058c 00       		.sleb128 0
 2987 058d 09       		.uleb128 0x9
 2988 058e 01       		.uleb128 0x1
 2989 058f 51       		.byte	0x51
 2990 0590 01       		.uleb128 0x1
 2991 0591 30       		.byte	0x30
 2992 0592 09       		.uleb128 0x9
 2993 0593 01       		.uleb128 0x1
 2994 0594 52       		.byte	0x52
 2995 0595 02       		.uleb128 0x2
 2996 0596 77       		.byte	0x77
 2997 0597 00       		.sleb128 0
 2998 0598 09       		.uleb128 0x9
 2999 0599 01       		.uleb128 0x1
ARM GAS  C:\Users\Misha\AppData\Local\Temp\ccIfQyo5.s 			page 72


 3000 059a 53       		.byte	0x53
 3001 059b 01       		.uleb128 0x1
 3002 059c 33       		.byte	0x33
 3003 059d 09       		.uleb128 0x9
 3004 059e 02       		.uleb128 0x2
 3005 059f 7D       		.byte	0x7d
 3006 05a0 00       		.sleb128 0
 3007 05a1 02       		.uleb128 0x2
 3008 05a2 79       		.byte	0x79
 3009 05a3 00       		.sleb128 0
 3010 05a4 09       		.uleb128 0x9
 3011 05a5 02       		.uleb128 0x2
 3012 05a6 7D       		.byte	0x7d
 3013 05a7 04       		.sleb128 4
 3014 05a8 02       		.uleb128 0x2
 3015 05a9 77       		.byte	0x77
 3016 05aa 00       		.sleb128 0
 3017 05ab 00       		.byte	0
 3018 05ac 08       		.uleb128 0x8
 3019 05ad 8C030000 		.4byte	.LVL115
 3020 05b1 6E1D0000 		.4byte	0x1d6e
 3021 05b5 BF050000 		.4byte	0x5bf
 3022 05b9 09       		.uleb128 0x9
 3023 05ba 01       		.uleb128 0x1
 3024 05bb 50       		.byte	0x50
 3025 05bc 01       		.uleb128 0x1
 3026 05bd 30       		.byte	0x30
 3027 05be 00       		.byte	0
 3028 05bf 08       		.uleb128 0x8
 3029 05c0 92030000 		.4byte	.LVL116
 3030 05c4 B31C0000 		.4byte	0x1cb3
 3031 05c8 D3050000 		.4byte	0x5d3
 3032 05cc 09       		.uleb128 0x9
 3033 05cd 01       		.uleb128 0x1
 3034 05ce 50       		.byte	0x50
 3035 05cf 02       		.uleb128 0x2
 3036 05d0 08       		.byte	0x8
 3037 05d1 32       		.byte	0x32
 3038 05d2 00       		.byte	0
 3039 05d3 08       		.uleb128 0x8
 3040 05d4 C0030000 		.4byte	.LVL122
 3041 05d8 2C1D0000 		.4byte	0x1d2c
 3042 05dc F6050000 		.4byte	0x5f6
 3043 05e0 09       		.uleb128 0x9
 3044 05e1 01       		.uleb128 0x1
 3045 05e2 50       		.byte	0x50
 3046 05e3 02       		.uleb128 0x2
 3047 05e4 78       		.byte	0x78
 3048 05e5 00       		.sleb128 0
 3049 05e6 09       		.uleb128 0x9
 3050 05e7 01       		.uleb128 0x1
 3051 05e8 51       		.byte	0x51
 3052 05e9 05       		.uleb128 0x5
 3053 05ea 03       		.byte	0x3
 3054 05eb DC000000 		.4byte	.LC9
 3055 05ef 09       		.uleb128 0x9
 3056 05f0 01       		.uleb128 0x1
ARM GAS  C:\Users\Misha\AppData\Local\Temp\ccIfQyo5.s 			page 73


 3057 05f1 52       		.byte	0x52
 3058 05f2 02       		.uleb128 0x2
 3059 05f3 77       		.byte	0x77
 3060 05f4 00       		.sleb128 0
 3061 05f5 00       		.byte	0
 3062 05f6 08       		.uleb128 0x8
 3063 05f7 C6030000 		.4byte	.LVL123
 3064 05fb BE1C0000 		.4byte	0x1cbe
 3065 05ff 0A060000 		.4byte	0x60a
 3066 0603 09       		.uleb128 0x9
 3067 0604 01       		.uleb128 0x1
 3068 0605 50       		.byte	0x50
 3069 0606 02       		.uleb128 0x2
 3070 0607 78       		.byte	0x78
 3071 0608 00       		.sleb128 0
 3072 0609 00       		.byte	0
 3073 060a 08       		.uleb128 0x8
 3074 060b E4030000 		.4byte	.LVL126
 3075 060f 2C1D0000 		.4byte	0x1d2c
 3076 0613 27060000 		.4byte	0x627
 3077 0617 09       		.uleb128 0x9
 3078 0618 01       		.uleb128 0x1
 3079 0619 50       		.byte	0x50
 3080 061a 02       		.uleb128 0x2
 3081 061b 78       		.byte	0x78
 3082 061c 00       		.sleb128 0
 3083 061d 09       		.uleb128 0x9
 3084 061e 01       		.uleb128 0x1
 3085 061f 51       		.byte	0x51
 3086 0620 05       		.uleb128 0x5
 3087 0621 03       		.byte	0x3
 3088 0622 EC000000 		.4byte	.LC10
 3089 0626 00       		.byte	0
 3090 0627 08       		.uleb128 0x8
 3091 0628 EA030000 		.4byte	.LVL127
 3092 062c BE1C0000 		.4byte	0x1cbe
 3093 0630 3B060000 		.4byte	0x63b
 3094 0634 09       		.uleb128 0x9
 3095 0635 01       		.uleb128 0x1
 3096 0636 50       		.byte	0x50
 3097 0637 02       		.uleb128 0x2
 3098 0638 78       		.byte	0x78
 3099 0639 00       		.sleb128 0
 3100 063a 00       		.byte	0
 3101 063b 08       		.uleb128 0x8
 3102 063c F4030000 		.4byte	.LVL128
 3103 0640 211D0000 		.4byte	0x1d21
 3104 0644 55060000 		.4byte	0x655
 3105 0648 09       		.uleb128 0x9
 3106 0649 01       		.uleb128 0x1
 3107 064a 50       		.byte	0x50
 3108 064b 01       		.uleb128 0x1
 3109 064c 33       		.byte	0x33
 3110 064d 09       		.uleb128 0x9
 3111 064e 01       		.uleb128 0x1
 3112 064f 51       		.byte	0x51
 3113 0650 03       		.uleb128 0x3
ARM GAS  C:\Users\Misha\AppData\Local\Temp\ccIfQyo5.s 			page 74


 3114 0651 0A       		.byte	0xa
 3115 0652 E803     		.2byte	0x3e8
 3116 0654 00       		.byte	0
 3117 0655 08       		.uleb128 0x8
 3118 0656 0A040000 		.4byte	.LVL129
 3119 065a 4D1D0000 		.4byte	0x1d4d
 3120 065e 86060000 		.4byte	0x686
 3121 0662 09       		.uleb128 0x9
 3122 0663 01       		.uleb128 0x1
 3123 0664 50       		.byte	0x50
 3124 0665 02       		.uleb128 0x2
 3125 0666 74       		.byte	0x74
 3126 0667 00       		.sleb128 0
 3127 0668 09       		.uleb128 0x9
 3128 0669 01       		.uleb128 0x1
 3129 066a 51       		.byte	0x51
 3130 066b 01       		.uleb128 0x1
 3131 066c 30       		.byte	0x30
 3132 066d 09       		.uleb128 0x9
 3133 066e 01       		.uleb128 0x1
 3134 066f 52       		.byte	0x52
 3135 0670 02       		.uleb128 0x2
 3136 0671 09       		.byte	0x9
 3137 0672 FF       		.byte	0xff
 3138 0673 09       		.uleb128 0x9
 3139 0674 01       		.uleb128 0x1
 3140 0675 53       		.byte	0x53
 3141 0676 01       		.uleb128 0x1
 3142 0677 33       		.byte	0x33
 3143 0678 09       		.uleb128 0x9
 3144 0679 02       		.uleb128 0x2
 3145 067a 7D       		.byte	0x7d
 3146 067b 00       		.sleb128 0
 3147 067c 02       		.uleb128 0x2
 3148 067d 79       		.byte	0x79
 3149 067e 00       		.sleb128 0
 3150 067f 09       		.uleb128 0x9
 3151 0680 02       		.uleb128 0x2
 3152 0681 7D       		.byte	0x7d
 3153 0682 04       		.sleb128 4
 3154 0683 01       		.uleb128 0x1
 3155 0684 31       		.byte	0x31
 3156 0685 00       		.byte	0
 3157 0686 08       		.uleb128 0x8
 3158 0687 14040000 		.4byte	.LVL130
 3159 068b 211D0000 		.4byte	0x1d21
 3160 068f A0060000 		.4byte	0x6a0
 3161 0693 09       		.uleb128 0x9
 3162 0694 01       		.uleb128 0x1
 3163 0695 50       		.byte	0x50
 3164 0696 01       		.uleb128 0x1
 3165 0697 33       		.byte	0x33
 3166 0698 09       		.uleb128 0x9
 3167 0699 01       		.uleb128 0x1
 3168 069a 51       		.byte	0x51
 3169 069b 03       		.uleb128 0x3
 3170 069c 0A       		.byte	0xa
ARM GAS  C:\Users\Misha\AppData\Local\Temp\ccIfQyo5.s 			page 75


 3171 069d E803     		.2byte	0x3e8
 3172 069f 00       		.byte	0
 3173 06a0 08       		.uleb128 0x8
 3174 06a1 1A040000 		.4byte	.LVL131
 3175 06a5 6E1D0000 		.4byte	0x1d6e
 3176 06a9 B3060000 		.4byte	0x6b3
 3177 06ad 09       		.uleb128 0x9
 3178 06ae 01       		.uleb128 0x1
 3179 06af 50       		.byte	0x50
 3180 06b0 01       		.uleb128 0x1
 3181 06b1 36       		.byte	0x36
 3182 06b2 00       		.byte	0
 3183 06b3 08       		.uleb128 0x8
 3184 06b4 20040000 		.4byte	.LVL132
 3185 06b8 B31C0000 		.4byte	0x1cb3
 3186 06bc C7060000 		.4byte	0x6c7
 3187 06c0 09       		.uleb128 0x9
 3188 06c1 01       		.uleb128 0x1
 3189 06c2 50       		.byte	0x50
 3190 06c3 02       		.uleb128 0x2
 3191 06c4 08       		.byte	0x8
 3192 06c5 32       		.byte	0x32
 3193 06c6 00       		.byte	0
 3194 06c7 08       		.uleb128 0x8
 3195 06c8 46040000 		.4byte	.LVL137
 3196 06cc 6E1D0000 		.4byte	0x1d6e
 3197 06d0 DA060000 		.4byte	0x6da
 3198 06d4 09       		.uleb128 0x9
 3199 06d5 01       		.uleb128 0x1
 3200 06d6 50       		.byte	0x50
 3201 06d7 01       		.uleb128 0x1
 3202 06d8 36       		.byte	0x36
 3203 06d9 00       		.byte	0
 3204 06da 08       		.uleb128 0x8
 3205 06db 4C040000 		.4byte	.LVL138
 3206 06df B31C0000 		.4byte	0x1cb3
 3207 06e3 EE060000 		.4byte	0x6ee
 3208 06e7 09       		.uleb128 0x9
 3209 06e8 01       		.uleb128 0x1
 3210 06e9 50       		.byte	0x50
 3211 06ea 02       		.uleb128 0x2
 3212 06eb 08       		.byte	0x8
 3213 06ec 32       		.byte	0x32
 3214 06ed 00       		.byte	0
 3215 06ee 0A       		.uleb128 0xa
 3216 06ef 5A040000 		.4byte	.LVL139
 3217 06f3 BE1C0000 		.4byte	0x1cbe
 3218 06f7 09       		.uleb128 0x9
 3219 06f8 01       		.uleb128 0x1
 3220 06f9 50       		.byte	0x50
 3221 06fa 05       		.uleb128 0x5
 3222 06fb 03       		.byte	0x3
 3223 06fc 0C010000 		.4byte	.LC11
 3224 0700 00       		.byte	0
 3225 0701 00       		.byte	0
 3226 0702 0D       		.uleb128 0xd
 3227 0703 98040000 		.4byte	.LBB9
ARM GAS  C:\Users\Misha\AppData\Local\Temp\ccIfQyo5.s 			page 76


 3228 0707 34010000 		.4byte	.LBE9-.LBB9
 3229 070b 3E090000 		.4byte	0x93e
 3230 070f 0E       		.uleb128 0xe
 3231 0710 F6020000 		.4byte	.LASF23
 3232 0714 01       		.byte	0x1
 3233 0715 AF01     		.2byte	0x1af
 3234 0717 68000000 		.4byte	0x68
 3235 071b D6000000 		.4byte	.LLST7
 3236 071f 08       		.uleb128 0x8
 3237 0720 A2040000 		.4byte	.LVL141
 3238 0724 211D0000 		.4byte	0x1d21
 3239 0728 39070000 		.4byte	0x739
 3240 072c 09       		.uleb128 0x9
 3241 072d 01       		.uleb128 0x1
 3242 072e 50       		.byte	0x50
 3243 072f 01       		.uleb128 0x1
 3244 0730 33       		.byte	0x33
 3245 0731 09       		.uleb128 0x9
 3246 0732 01       		.uleb128 0x1
 3247 0733 51       		.byte	0x51
 3248 0734 03       		.uleb128 0x3
 3249 0735 0A       		.byte	0xa
 3250 0736 E803     		.2byte	0x3e8
 3251 0738 00       		.byte	0
 3252 0739 08       		.uleb128 0x8
 3253 073a A8040000 		.4byte	.LVL142
 3254 073e 6E1D0000 		.4byte	0x1d6e
 3255 0742 4C070000 		.4byte	0x74c
 3256 0746 09       		.uleb128 0x9
 3257 0747 01       		.uleb128 0x1
 3258 0748 50       		.byte	0x50
 3259 0749 01       		.uleb128 0x1
 3260 074a 30       		.byte	0x30
 3261 074b 00       		.byte	0
 3262 074c 08       		.uleb128 0x8
 3263 074d AE040000 		.4byte	.LVL143
 3264 0751 B31C0000 		.4byte	0x1cb3
 3265 0755 60070000 		.4byte	0x760
 3266 0759 09       		.uleb128 0x9
 3267 075a 01       		.uleb128 0x1
 3268 075b 50       		.byte	0x50
 3269 075c 02       		.uleb128 0x2
 3270 075d 08       		.byte	0x8
 3271 075e 32       		.byte	0x32
 3272 075f 00       		.byte	0
 3273 0760 08       		.uleb128 0x8
 3274 0761 DC040000 		.4byte	.LVL149
 3275 0765 2C1D0000 		.4byte	0x1d2c
 3276 0769 7D070000 		.4byte	0x77d
 3277 076d 09       		.uleb128 0x9
 3278 076e 01       		.uleb128 0x1
 3279 076f 50       		.byte	0x50
 3280 0770 02       		.uleb128 0x2
 3281 0771 76       		.byte	0x76
 3282 0772 00       		.sleb128 0
 3283 0773 09       		.uleb128 0x9
 3284 0774 01       		.uleb128 0x1
ARM GAS  C:\Users\Misha\AppData\Local\Temp\ccIfQyo5.s 			page 77


 3285 0775 51       		.byte	0x51
 3286 0776 05       		.uleb128 0x5
 3287 0777 03       		.byte	0x3
 3288 0778 2C010000 		.4byte	.LC12
 3289 077c 00       		.byte	0
 3290 077d 08       		.uleb128 0x8
 3291 077e E2040000 		.4byte	.LVL150
 3292 0782 BE1C0000 		.4byte	0x1cbe
 3293 0786 91070000 		.4byte	0x791
 3294 078a 09       		.uleb128 0x9
 3295 078b 01       		.uleb128 0x1
 3296 078c 50       		.byte	0x50
 3297 078d 02       		.uleb128 0x2
 3298 078e 76       		.byte	0x76
 3299 078f 00       		.sleb128 0
 3300 0790 00       		.byte	0
 3301 0791 08       		.uleb128 0x8
 3302 0792 EC040000 		.4byte	.LVL151
 3303 0796 2C1D0000 		.4byte	0x1d2c
 3304 079a B4070000 		.4byte	0x7b4
 3305 079e 09       		.uleb128 0x9
 3306 079f 01       		.uleb128 0x1
 3307 07a0 50       		.byte	0x50
 3308 07a1 02       		.uleb128 0x2
 3309 07a2 76       		.byte	0x76
 3310 07a3 00       		.sleb128 0
 3311 07a4 09       		.uleb128 0x9
 3312 07a5 01       		.uleb128 0x1
 3313 07a6 51       		.byte	0x51
 3314 07a7 05       		.uleb128 0x5
 3315 07a8 03       		.byte	0x3
 3316 07a9 DC000000 		.4byte	.LC9
 3317 07ad 09       		.uleb128 0x9
 3318 07ae 01       		.uleb128 0x1
 3319 07af 52       		.byte	0x52
 3320 07b0 02       		.uleb128 0x2
 3321 07b1 78       		.byte	0x78
 3322 07b2 00       		.sleb128 0
 3323 07b3 00       		.byte	0
 3324 07b4 08       		.uleb128 0x8
 3325 07b5 F2040000 		.4byte	.LVL152
 3326 07b9 BE1C0000 		.4byte	0x1cbe
 3327 07bd C8070000 		.4byte	0x7c8
 3328 07c1 09       		.uleb128 0x9
 3329 07c2 01       		.uleb128 0x1
 3330 07c3 50       		.byte	0x50
 3331 07c4 02       		.uleb128 0x2
 3332 07c5 76       		.byte	0x76
 3333 07c6 00       		.sleb128 0
 3334 07c7 00       		.byte	0
 3335 07c8 08       		.uleb128 0x8
 3336 07c9 26050000 		.4byte	.LVL154
 3337 07cd 4D1D0000 		.4byte	0x1d4d
 3338 07d1 FA070000 		.4byte	0x7fa
 3339 07d5 09       		.uleb128 0x9
 3340 07d6 01       		.uleb128 0x1
 3341 07d7 50       		.byte	0x50
ARM GAS  C:\Users\Misha\AppData\Local\Temp\ccIfQyo5.s 			page 78


 3342 07d8 02       		.uleb128 0x2
 3343 07d9 74       		.byte	0x74
 3344 07da 00       		.sleb128 0
 3345 07db 09       		.uleb128 0x9
 3346 07dc 01       		.uleb128 0x1
 3347 07dd 51       		.byte	0x51
 3348 07de 01       		.uleb128 0x1
 3349 07df 30       		.byte	0x30
 3350 07e0 09       		.uleb128 0x9
 3351 07e1 01       		.uleb128 0x1
 3352 07e2 52       		.byte	0x52
 3353 07e3 02       		.uleb128 0x2
 3354 07e4 09       		.byte	0x9
 3355 07e5 FF       		.byte	0xff
 3356 07e6 09       		.uleb128 0x9
 3357 07e7 01       		.uleb128 0x1
 3358 07e8 53       		.byte	0x53
 3359 07e9 01       		.uleb128 0x1
 3360 07ea 33       		.byte	0x33
 3361 07eb 09       		.uleb128 0x9
 3362 07ec 02       		.uleb128 0x2
 3363 07ed 7D       		.byte	0x7d
 3364 07ee 00       		.sleb128 0
 3365 07ef 02       		.uleb128 0x2
 3366 07f0 7A       		.byte	0x7a
 3367 07f1 00       		.sleb128 0
 3368 07f2 09       		.uleb128 0x9
 3369 07f3 02       		.uleb128 0x2
 3370 07f4 7D       		.byte	0x7d
 3371 07f5 04       		.sleb128 4
 3372 07f6 02       		.uleb128 0x2
 3373 07f7 79       		.byte	0x79
 3374 07f8 00       		.sleb128 0
 3375 07f9 00       		.byte	0
 3376 07fa 08       		.uleb128 0x8
 3377 07fb 30050000 		.4byte	.LVL155
 3378 07ff 211D0000 		.4byte	0x1d21
 3379 0803 14080000 		.4byte	0x814
 3380 0807 09       		.uleb128 0x9
 3381 0808 01       		.uleb128 0x1
 3382 0809 50       		.byte	0x50
 3383 080a 01       		.uleb128 0x1
 3384 080b 33       		.byte	0x33
 3385 080c 09       		.uleb128 0x9
 3386 080d 01       		.uleb128 0x1
 3387 080e 51       		.byte	0x51
 3388 080f 03       		.uleb128 0x3
 3389 0810 0A       		.byte	0xa
 3390 0811 E803     		.2byte	0x3e8
 3391 0813 00       		.byte	0
 3392 0814 08       		.uleb128 0x8
 3393 0815 36050000 		.4byte	.LVL156
 3394 0819 6E1D0000 		.4byte	0x1d6e
 3395 081d 27080000 		.4byte	0x827
 3396 0821 09       		.uleb128 0x9
 3397 0822 01       		.uleb128 0x1
 3398 0823 50       		.byte	0x50
ARM GAS  C:\Users\Misha\AppData\Local\Temp\ccIfQyo5.s 			page 79


 3399 0824 01       		.uleb128 0x1
 3400 0825 36       		.byte	0x36
 3401 0826 00       		.byte	0
 3402 0827 08       		.uleb128 0x8
 3403 0828 3C050000 		.4byte	.LVL157
 3404 082c B31C0000 		.4byte	0x1cb3
 3405 0830 3B080000 		.4byte	0x83b
 3406 0834 09       		.uleb128 0x9
 3407 0835 01       		.uleb128 0x1
 3408 0836 50       		.byte	0x50
 3409 0837 02       		.uleb128 0x2
 3410 0838 08       		.byte	0x8
 3411 0839 32       		.byte	0x32
 3412 083a 00       		.byte	0
 3413 083b 08       		.uleb128 0x8
 3414 083c 72050000 		.4byte	.LVL162
 3415 0840 4D1D0000 		.4byte	0x1d4d
 3416 0844 6D080000 		.4byte	0x86d
 3417 0848 09       		.uleb128 0x9
 3418 0849 01       		.uleb128 0x1
 3419 084a 50       		.byte	0x50
 3420 084b 02       		.uleb128 0x2
 3421 084c 75       		.byte	0x75
 3422 084d 00       		.sleb128 0
 3423 084e 09       		.uleb128 0x9
 3424 084f 01       		.uleb128 0x1
 3425 0850 51       		.byte	0x51
 3426 0851 01       		.uleb128 0x1
 3427 0852 30       		.byte	0x30
 3428 0853 09       		.uleb128 0x9
 3429 0854 01       		.uleb128 0x1
 3430 0855 52       		.byte	0x52
 3431 0856 02       		.uleb128 0x2
 3432 0857 79       		.byte	0x79
 3433 0858 00       		.sleb128 0
 3434 0859 09       		.uleb128 0x9
 3435 085a 01       		.uleb128 0x1
 3436 085b 53       		.byte	0x53
 3437 085c 01       		.uleb128 0x1
 3438 085d 33       		.byte	0x33
 3439 085e 09       		.uleb128 0x9
 3440 085f 02       		.uleb128 0x2
 3441 0860 7D       		.byte	0x7d
 3442 0861 00       		.sleb128 0
 3443 0862 02       		.uleb128 0x2
 3444 0863 7A       		.byte	0x7a
 3445 0864 00       		.sleb128 0
 3446 0865 09       		.uleb128 0x9
 3447 0866 02       		.uleb128 0x2
 3448 0867 7D       		.byte	0x7d
 3449 0868 04       		.sleb128 4
 3450 0869 02       		.uleb128 0x2
 3451 086a 79       		.byte	0x79
 3452 086b 00       		.sleb128 0
 3453 086c 00       		.byte	0
 3454 086d 08       		.uleb128 0x8
 3455 086e 7C050000 		.4byte	.LVL163
ARM GAS  C:\Users\Misha\AppData\Local\Temp\ccIfQyo5.s 			page 80


 3456 0872 211D0000 		.4byte	0x1d21
 3457 0876 87080000 		.4byte	0x887
 3458 087a 09       		.uleb128 0x9
 3459 087b 01       		.uleb128 0x1
 3460 087c 50       		.byte	0x50
 3461 087d 01       		.uleb128 0x1
 3462 087e 32       		.byte	0x32
 3463 087f 09       		.uleb128 0x9
 3464 0880 01       		.uleb128 0x1
 3465 0881 51       		.byte	0x51
 3466 0882 03       		.uleb128 0x3
 3467 0883 0A       		.byte	0xa
 3468 0884 E803     		.2byte	0x3e8
 3469 0886 00       		.byte	0
 3470 0887 08       		.uleb128 0x8
 3471 0888 82050000 		.4byte	.LVL164
 3472 088c 6E1D0000 		.4byte	0x1d6e
 3473 0890 9A080000 		.4byte	0x89a
 3474 0894 09       		.uleb128 0x9
 3475 0895 01       		.uleb128 0x1
 3476 0896 50       		.byte	0x50
 3477 0897 01       		.uleb128 0x1
 3478 0898 30       		.byte	0x30
 3479 0899 00       		.byte	0
 3480 089a 08       		.uleb128 0x8
 3481 089b 88050000 		.4byte	.LVL165
 3482 089f B31C0000 		.4byte	0x1cb3
 3483 08a3 AE080000 		.4byte	0x8ae
 3484 08a7 09       		.uleb128 0x9
 3485 08a8 01       		.uleb128 0x1
 3486 08a9 50       		.byte	0x50
 3487 08aa 02       		.uleb128 0x2
 3488 08ab 08       		.byte	0x8
 3489 08ac 3C       		.byte	0x3c
 3490 08ad 00       		.byte	0
 3491 08ae 08       		.uleb128 0x8
 3492 08af 9A050000 		.4byte	.LVL166
 3493 08b3 DF1C0000 		.4byte	0x1cdf
 3494 08b7 CE080000 		.4byte	0x8ce
 3495 08bb 09       		.uleb128 0x9
 3496 08bc 01       		.uleb128 0x1
 3497 08bd 50       		.byte	0x50
 3498 08be 02       		.uleb128 0x2
 3499 08bf 09       		.byte	0x9
 3500 08c0 D3       		.byte	0xd3
 3501 08c1 09       		.uleb128 0x9
 3502 08c2 01       		.uleb128 0x1
 3503 08c3 51       		.byte	0x51
 3504 08c4 02       		.uleb128 0x2
 3505 08c5 7A       		.byte	0x7a
 3506 08c6 00       		.sleb128 0
 3507 08c7 09       		.uleb128 0x9
 3508 08c8 01       		.uleb128 0x1
 3509 08c9 52       		.byte	0x52
 3510 08ca 02       		.uleb128 0x2
 3511 08cb 79       		.byte	0x79
 3512 08cc 00       		.sleb128 0
ARM GAS  C:\Users\Misha\AppData\Local\Temp\ccIfQyo5.s 			page 81


 3513 08cd 00       		.byte	0
 3514 08ce 08       		.uleb128 0x8
 3515 08cf B0050000 		.4byte	.LVL167
 3516 08d3 4D1D0000 		.4byte	0x1d4d
 3517 08d7 00090000 		.4byte	0x900
 3518 08db 09       		.uleb128 0x9
 3519 08dc 01       		.uleb128 0x1
 3520 08dd 50       		.byte	0x50
 3521 08de 02       		.uleb128 0x2
 3522 08df 75       		.byte	0x75
 3523 08e0 00       		.sleb128 0
 3524 08e1 09       		.uleb128 0x9
 3525 08e2 01       		.uleb128 0x1
 3526 08e3 51       		.byte	0x51
 3527 08e4 01       		.uleb128 0x1
 3528 08e5 30       		.byte	0x30
 3529 08e6 09       		.uleb128 0x9
 3530 08e7 01       		.uleb128 0x1
 3531 08e8 52       		.byte	0x52
 3532 08e9 02       		.uleb128 0x2
 3533 08ea 09       		.byte	0x9
 3534 08eb FF       		.byte	0xff
 3535 08ec 09       		.uleb128 0x9
 3536 08ed 01       		.uleb128 0x1
 3537 08ee 53       		.byte	0x53
 3538 08ef 01       		.uleb128 0x1
 3539 08f0 33       		.byte	0x33
 3540 08f1 09       		.uleb128 0x9
 3541 08f2 02       		.uleb128 0x2
 3542 08f3 7D       		.byte	0x7d
 3543 08f4 00       		.sleb128 0
 3544 08f5 02       		.uleb128 0x2
 3545 08f6 7A       		.byte	0x7a
 3546 08f7 00       		.sleb128 0
 3547 08f8 09       		.uleb128 0x9
 3548 08f9 02       		.uleb128 0x2
 3549 08fa 7D       		.byte	0x7d
 3550 08fb 04       		.sleb128 4
 3551 08fc 02       		.uleb128 0x2
 3552 08fd 79       		.byte	0x79
 3553 08fe 00       		.sleb128 0
 3554 08ff 00       		.byte	0
 3555 0900 08       		.uleb128 0x8
 3556 0901 BA050000 		.4byte	.LVL168
 3557 0905 211D0000 		.4byte	0x1d21
 3558 0909 1A090000 		.4byte	0x91a
 3559 090d 09       		.uleb128 0x9
 3560 090e 01       		.uleb128 0x1
 3561 090f 50       		.byte	0x50
 3562 0910 01       		.uleb128 0x1
 3563 0911 32       		.byte	0x32
 3564 0912 09       		.uleb128 0x9
 3565 0913 01       		.uleb128 0x1
 3566 0914 51       		.byte	0x51
 3567 0915 03       		.uleb128 0x3
 3568 0916 0A       		.byte	0xa
 3569 0917 E803     		.2byte	0x3e8
ARM GAS  C:\Users\Misha\AppData\Local\Temp\ccIfQyo5.s 			page 82


 3570 0919 00       		.byte	0
 3571 091a 08       		.uleb128 0x8
 3572 091b C0050000 		.4byte	.LVL169
 3573 091f 6E1D0000 		.4byte	0x1d6e
 3574 0923 2D090000 		.4byte	0x92d
 3575 0927 09       		.uleb128 0x9
 3576 0928 01       		.uleb128 0x1
 3577 0929 50       		.byte	0x50
 3578 092a 01       		.uleb128 0x1
 3579 092b 34       		.byte	0x34
 3580 092c 00       		.byte	0
 3581 092d 0A       		.uleb128 0xa
 3582 092e C6050000 		.4byte	.LVL170
 3583 0932 B31C0000 		.4byte	0x1cb3
 3584 0936 09       		.uleb128 0x9
 3585 0937 01       		.uleb128 0x1
 3586 0938 50       		.byte	0x50
 3587 0939 02       		.uleb128 0x2
 3588 093a 08       		.byte	0x8
 3589 093b 32       		.byte	0x32
 3590 093c 00       		.byte	0
 3591 093d 00       		.byte	0
 3592 093e 06       		.uleb128 0x6
 3593 093f 16020000 		.4byte	.LVL86
 3594 0943 371D0000 		.4byte	0x1d37
 3595 0947 08       		.uleb128 0x8
 3596 0948 24020000 		.4byte	.LVL87
 3597 094c 791D0000 		.4byte	0x1d79
 3598 0950 66090000 		.4byte	0x966
 3599 0954 09       		.uleb128 0x9
 3600 0955 01       		.uleb128 0x1
 3601 0956 51       		.byte	0x51
 3602 0957 02       		.uleb128 0x2
 3603 0958 09       		.byte	0x9
 3604 0959 DD       		.byte	0xdd
 3605 095a 09       		.uleb128 0x9
 3606 095b 01       		.uleb128 0x1
 3607 095c 52       		.byte	0x52
 3608 095d 02       		.uleb128 0x2
 3609 095e 08       		.byte	0x8
 3610 095f 64       		.byte	0x64
 3611 0960 09       		.uleb128 0x9
 3612 0961 01       		.uleb128 0x1
 3613 0962 53       		.byte	0x53
 3614 0963 01       		.uleb128 0x1
 3615 0964 30       		.byte	0x30
 3616 0965 00       		.byte	0
 3617 0966 08       		.uleb128 0x8
 3618 0967 36020000 		.4byte	.LVL88
 3619 096b 4D1D0000 		.4byte	0x1d4d
 3620 096f 96090000 		.4byte	0x996
 3621 0973 09       		.uleb128 0x9
 3622 0974 01       		.uleb128 0x1
 3623 0975 50       		.byte	0x50
 3624 0976 02       		.uleb128 0x2
 3625 0977 08       		.byte	0x8
 3626 0978 82       		.byte	0x82
ARM GAS  C:\Users\Misha\AppData\Local\Temp\ccIfQyo5.s 			page 83


 3627 0979 09       		.uleb128 0x9
 3628 097a 01       		.uleb128 0x1
 3629 097b 51       		.byte	0x51
 3630 097c 01       		.uleb128 0x1
 3631 097d 31       		.byte	0x31
 3632 097e 09       		.uleb128 0x9
 3633 097f 01       		.uleb128 0x1
 3634 0980 52       		.byte	0x52
 3635 0981 01       		.uleb128 0x1
 3636 0982 31       		.byte	0x31
 3637 0983 09       		.uleb128 0x9
 3638 0984 01       		.uleb128 0x1
 3639 0985 53       		.byte	0x53
 3640 0986 01       		.uleb128 0x1
 3641 0987 30       		.byte	0x30
 3642 0988 09       		.uleb128 0x9
 3643 0989 02       		.uleb128 0x2
 3644 098a 7D       		.byte	0x7d
 3645 098b 00       		.sleb128 0
 3646 098c 02       		.uleb128 0x2
 3647 098d 08       		.byte	0x8
 3648 098e C8       		.byte	0xc8
 3649 098f 09       		.uleb128 0x9
 3650 0990 02       		.uleb128 0x2
 3651 0991 7D       		.byte	0x7d
 3652 0992 04       		.sleb128 4
 3653 0993 01       		.uleb128 0x1
 3654 0994 31       		.byte	0x31
 3655 0995 00       		.byte	0
 3656 0996 08       		.uleb128 0x8
 3657 0997 3C020000 		.4byte	.LVL89
 3658 099b 421D0000 		.4byte	0x1d42
 3659 099f A9090000 		.4byte	0x9a9
 3660 09a3 09       		.uleb128 0x9
 3661 09a4 01       		.uleb128 0x1
 3662 09a5 50       		.byte	0x50
 3663 09a6 01       		.uleb128 0x1
 3664 09a7 37       		.byte	0x37
 3665 09a8 00       		.byte	0
 3666 09a9 08       		.uleb128 0x8
 3667 09aa 42020000 		.4byte	.LVL90
 3668 09ae 6E1D0000 		.4byte	0x1d6e
 3669 09b2 BC090000 		.4byte	0x9bc
 3670 09b6 09       		.uleb128 0x9
 3671 09b7 01       		.uleb128 0x1
 3672 09b8 50       		.byte	0x50
 3673 09b9 01       		.uleb128 0x1
 3674 09ba 32       		.byte	0x32
 3675 09bb 00       		.byte	0
 3676 09bc 08       		.uleb128 0x8
 3677 09bd 48020000 		.4byte	.LVL91
 3678 09c1 B31C0000 		.4byte	0x1cb3
 3679 09c5 D0090000 		.4byte	0x9d0
 3680 09c9 09       		.uleb128 0x9
 3681 09ca 01       		.uleb128 0x1
 3682 09cb 50       		.byte	0x50
 3683 09cc 02       		.uleb128 0x2
ARM GAS  C:\Users\Misha\AppData\Local\Temp\ccIfQyo5.s 			page 84


 3684 09cd 08       		.byte	0x8
 3685 09ce 32       		.byte	0x32
 3686 09cf 00       		.byte	0
 3687 09d0 08       		.uleb128 0x8
 3688 09d1 82020000 		.4byte	.LVL92
 3689 09d5 6E1D0000 		.4byte	0x1d6e
 3690 09d9 E3090000 		.4byte	0x9e3
 3691 09dd 09       		.uleb128 0x9
 3692 09de 01       		.uleb128 0x1
 3693 09df 50       		.byte	0x50
 3694 09e0 01       		.uleb128 0x1
 3695 09e1 32       		.byte	0x32
 3696 09e2 00       		.byte	0
 3697 09e3 08       		.uleb128 0x8
 3698 09e4 88020000 		.4byte	.LVL93
 3699 09e8 B31C0000 		.4byte	0x1cb3
 3700 09ec F7090000 		.4byte	0x9f7
 3701 09f0 09       		.uleb128 0x9
 3702 09f1 01       		.uleb128 0x1
 3703 09f2 50       		.byte	0x50
 3704 09f3 02       		.uleb128 0x2
 3705 09f4 08       		.byte	0x8
 3706 09f5 32       		.byte	0x32
 3707 09f6 00       		.byte	0
 3708 09f7 08       		.uleb128 0x8
 3709 09f8 AA020000 		.4byte	.LVL96
 3710 09fc 2C1D0000 		.4byte	0x1d2c
 3711 0a00 1A0A0000 		.4byte	0xa1a
 3712 0a04 09       		.uleb128 0x9
 3713 0a05 01       		.uleb128 0x1
 3714 0a06 50       		.byte	0x50
 3715 0a07 02       		.uleb128 0x2
 3716 0a08 76       		.byte	0x76
 3717 0a09 00       		.sleb128 0
 3718 0a0a 09       		.uleb128 0x9
 3719 0a0b 01       		.uleb128 0x1
 3720 0a0c 51       		.byte	0x51
 3721 0a0d 05       		.uleb128 0x5
 3722 0a0e 03       		.byte	0x3
 3723 0a0f 6C000000 		.4byte	.LC5
 3724 0a13 09       		.uleb128 0x9
 3725 0a14 01       		.uleb128 0x1
 3726 0a15 52       		.byte	0x52
 3727 0a16 02       		.uleb128 0x2
 3728 0a17 75       		.byte	0x75
 3729 0a18 00       		.sleb128 0
 3730 0a19 00       		.byte	0
 3731 0a1a 08       		.uleb128 0x8
 3732 0a1b B0020000 		.4byte	.LVL97
 3733 0a1f BE1C0000 		.4byte	0x1cbe
 3734 0a23 2E0A0000 		.4byte	0xa2e
 3735 0a27 09       		.uleb128 0x9
 3736 0a28 01       		.uleb128 0x1
 3737 0a29 50       		.byte	0x50
 3738 0a2a 02       		.uleb128 0x2
 3739 0a2b 76       		.byte	0x76
 3740 0a2c 00       		.sleb128 0
ARM GAS  C:\Users\Misha\AppData\Local\Temp\ccIfQyo5.s 			page 85


 3741 0a2d 00       		.byte	0
 3742 0a2e 08       		.uleb128 0x8
 3743 0a2f BA020000 		.4byte	.LVL98
 3744 0a33 2C1D0000 		.4byte	0x1d2c
 3745 0a37 510A0000 		.4byte	0xa51
 3746 0a3b 09       		.uleb128 0x9
 3747 0a3c 01       		.uleb128 0x1
 3748 0a3d 50       		.byte	0x50
 3749 0a3e 02       		.uleb128 0x2
 3750 0a3f 76       		.byte	0x76
 3751 0a40 00       		.sleb128 0
 3752 0a41 09       		.uleb128 0x9
 3753 0a42 01       		.uleb128 0x1
 3754 0a43 51       		.byte	0x51
 3755 0a44 05       		.uleb128 0x5
 3756 0a45 03       		.byte	0x3
 3757 0a46 84000000 		.4byte	.LC6
 3758 0a4a 09       		.uleb128 0x9
 3759 0a4b 01       		.uleb128 0x1
 3760 0a4c 52       		.byte	0x52
 3761 0a4d 02       		.uleb128 0x2
 3762 0a4e 74       		.byte	0x74
 3763 0a4f 00       		.sleb128 0
 3764 0a50 00       		.byte	0
 3765 0a51 08       		.uleb128 0x8
 3766 0a52 C0020000 		.4byte	.LVL99
 3767 0a56 BE1C0000 		.4byte	0x1cbe
 3768 0a5a 650A0000 		.4byte	0xa65
 3769 0a5e 09       		.uleb128 0x9
 3770 0a5f 01       		.uleb128 0x1
 3771 0a60 50       		.byte	0x50
 3772 0a61 02       		.uleb128 0x2
 3773 0a62 76       		.byte	0x76
 3774 0a63 00       		.sleb128 0
 3775 0a64 00       		.byte	0
 3776 0a65 08       		.uleb128 0x8
 3777 0a66 D2020000 		.4byte	.LVL100
 3778 0a6a 4D1D0000 		.4byte	0x1d4d
 3779 0a6e 950A0000 		.4byte	0xa95
 3780 0a72 09       		.uleb128 0x9
 3781 0a73 01       		.uleb128 0x1
 3782 0a74 50       		.byte	0x50
 3783 0a75 02       		.uleb128 0x2
 3784 0a76 74       		.byte	0x74
 3785 0a77 00       		.sleb128 0
 3786 0a78 09       		.uleb128 0x9
 3787 0a79 01       		.uleb128 0x1
 3788 0a7a 51       		.byte	0x51
 3789 0a7b 01       		.uleb128 0x1
 3790 0a7c 30       		.byte	0x30
 3791 0a7d 09       		.uleb128 0x9
 3792 0a7e 01       		.uleb128 0x1
 3793 0a7f 52       		.byte	0x52
 3794 0a80 01       		.uleb128 0x1
 3795 0a81 31       		.byte	0x31
 3796 0a82 09       		.uleb128 0x9
 3797 0a83 01       		.uleb128 0x1
ARM GAS  C:\Users\Misha\AppData\Local\Temp\ccIfQyo5.s 			page 86


 3798 0a84 53       		.byte	0x53
 3799 0a85 01       		.uleb128 0x1
 3800 0a86 33       		.byte	0x33
 3801 0a87 09       		.uleb128 0x9
 3802 0a88 02       		.uleb128 0x2
 3803 0a89 7D       		.byte	0x7d
 3804 0a8a 00       		.sleb128 0
 3805 0a8b 02       		.uleb128 0x2
 3806 0a8c 08       		.byte	0x8
 3807 0a8d C8       		.byte	0xc8
 3808 0a8e 09       		.uleb128 0x9
 3809 0a8f 02       		.uleb128 0x2
 3810 0a90 7D       		.byte	0x7d
 3811 0a91 04       		.sleb128 4
 3812 0a92 01       		.uleb128 0x1
 3813 0a93 31       		.byte	0x31
 3814 0a94 00       		.byte	0
 3815 0a95 08       		.uleb128 0x8
 3816 0a96 DA050000 		.4byte	.LVL173
 3817 0a9a 2C1D0000 		.4byte	0x1d2c
 3818 0a9e B20A0000 		.4byte	0xab2
 3819 0aa2 09       		.uleb128 0x9
 3820 0aa3 01       		.uleb128 0x1
 3821 0aa4 50       		.byte	0x50
 3822 0aa5 02       		.uleb128 0x2
 3823 0aa6 74       		.byte	0x74
 3824 0aa7 00       		.sleb128 0
 3825 0aa8 09       		.uleb128 0x9
 3826 0aa9 01       		.uleb128 0x1
 3827 0aaa 51       		.byte	0x51
 3828 0aab 05       		.uleb128 0x5
 3829 0aac 03       		.byte	0x3
 3830 0aad 44010000 		.4byte	.LC13
 3831 0ab1 00       		.byte	0
 3832 0ab2 08       		.uleb128 0x8
 3833 0ab3 E0050000 		.4byte	.LVL174
 3834 0ab7 BE1C0000 		.4byte	0x1cbe
 3835 0abb C60A0000 		.4byte	0xac6
 3836 0abf 09       		.uleb128 0x9
 3837 0ac0 01       		.uleb128 0x1
 3838 0ac1 50       		.byte	0x50
 3839 0ac2 02       		.uleb128 0x2
 3840 0ac3 74       		.byte	0x74
 3841 0ac4 00       		.sleb128 0
 3842 0ac5 00       		.byte	0
 3843 0ac6 08       		.uleb128 0x8
 3844 0ac7 EA050000 		.4byte	.LVL175
 3845 0acb 2C1D0000 		.4byte	0x1d2c
 3846 0acf E30A0000 		.4byte	0xae3
 3847 0ad3 09       		.uleb128 0x9
 3848 0ad4 01       		.uleb128 0x1
 3849 0ad5 50       		.byte	0x50
 3850 0ad6 02       		.uleb128 0x2
 3851 0ad7 74       		.byte	0x74
 3852 0ad8 00       		.sleb128 0
 3853 0ad9 09       		.uleb128 0x9
 3854 0ada 01       		.uleb128 0x1
ARM GAS  C:\Users\Misha\AppData\Local\Temp\ccIfQyo5.s 			page 87


 3855 0adb 51       		.byte	0x51
 3856 0adc 05       		.uleb128 0x5
 3857 0add 03       		.byte	0x3
 3858 0ade 58010000 		.4byte	.LC14
 3859 0ae2 00       		.byte	0
 3860 0ae3 08       		.uleb128 0x8
 3861 0ae4 F0050000 		.4byte	.LVL176
 3862 0ae8 BE1C0000 		.4byte	0x1cbe
 3863 0aec F70A0000 		.4byte	0xaf7
 3864 0af0 09       		.uleb128 0x9
 3865 0af1 01       		.uleb128 0x1
 3866 0af2 50       		.byte	0x50
 3867 0af3 02       		.uleb128 0x2
 3868 0af4 74       		.byte	0x74
 3869 0af5 00       		.sleb128 0
 3870 0af6 00       		.byte	0
 3871 0af7 08       		.uleb128 0x8
 3872 0af8 FA050000 		.4byte	.LVL177
 3873 0afc 2C1D0000 		.4byte	0x1d2c
 3874 0b00 140B0000 		.4byte	0xb14
 3875 0b04 09       		.uleb128 0x9
 3876 0b05 01       		.uleb128 0x1
 3877 0b06 50       		.byte	0x50
 3878 0b07 02       		.uleb128 0x2
 3879 0b08 74       		.byte	0x74
 3880 0b09 00       		.sleb128 0
 3881 0b0a 09       		.uleb128 0x9
 3882 0b0b 01       		.uleb128 0x1
 3883 0b0c 51       		.byte	0x51
 3884 0b0d 05       		.uleb128 0x5
 3885 0b0e 03       		.byte	0x3
 3886 0b0f 6C010000 		.4byte	.LC15
 3887 0b13 00       		.byte	0
 3888 0b14 08       		.uleb128 0x8
 3889 0b15 00060000 		.4byte	.LVL178
 3890 0b19 BE1C0000 		.4byte	0x1cbe
 3891 0b1d 280B0000 		.4byte	0xb28
 3892 0b21 09       		.uleb128 0x9
 3893 0b22 01       		.uleb128 0x1
 3894 0b23 50       		.byte	0x50
 3895 0b24 02       		.uleb128 0x2
 3896 0b25 74       		.byte	0x74
 3897 0b26 00       		.sleb128 0
 3898 0b27 00       		.byte	0
 3899 0b28 08       		.uleb128 0x8
 3900 0b29 0A060000 		.4byte	.LVL179
 3901 0b2d 2C1D0000 		.4byte	0x1d2c
 3902 0b31 450B0000 		.4byte	0xb45
 3903 0b35 09       		.uleb128 0x9
 3904 0b36 01       		.uleb128 0x1
 3905 0b37 50       		.byte	0x50
 3906 0b38 02       		.uleb128 0x2
 3907 0b39 74       		.byte	0x74
 3908 0b3a 00       		.sleb128 0
 3909 0b3b 09       		.uleb128 0x9
 3910 0b3c 01       		.uleb128 0x1
 3911 0b3d 51       		.byte	0x51
ARM GAS  C:\Users\Misha\AppData\Local\Temp\ccIfQyo5.s 			page 88


 3912 0b3e 05       		.uleb128 0x5
 3913 0b3f 03       		.byte	0x3
 3914 0b40 80010000 		.4byte	.LC16
 3915 0b44 00       		.byte	0
 3916 0b45 08       		.uleb128 0x8
 3917 0b46 10060000 		.4byte	.LVL180
 3918 0b4a BE1C0000 		.4byte	0x1cbe
 3919 0b4e 590B0000 		.4byte	0xb59
 3920 0b52 09       		.uleb128 0x9
 3921 0b53 01       		.uleb128 0x1
 3922 0b54 50       		.byte	0x50
 3923 0b55 02       		.uleb128 0x2
 3924 0b56 74       		.byte	0x74
 3925 0b57 00       		.sleb128 0
 3926 0b58 00       		.byte	0
 3927 0b59 08       		.uleb128 0x8
 3928 0b5a 18060000 		.4byte	.LVL181
 3929 0b5e 841D0000 		.4byte	0x1d84
 3930 0b62 720B0000 		.4byte	0xb72
 3931 0b66 09       		.uleb128 0x9
 3932 0b67 01       		.uleb128 0x1
 3933 0b68 50       		.byte	0x50
 3934 0b69 01       		.uleb128 0x1
 3935 0b6a 31       		.byte	0x31
 3936 0b6b 09       		.uleb128 0x9
 3937 0b6c 01       		.uleb128 0x1
 3938 0b6d 51       		.byte	0x51
 3939 0b6e 02       		.uleb128 0x2
 3940 0b6f 08       		.byte	0x8
 3941 0b70 C8       		.byte	0xc8
 3942 0b71 00       		.byte	0
 3943 0b72 08       		.uleb128 0x8
 3944 0b73 2A060000 		.4byte	.LVL182
 3945 0b77 4D1D0000 		.4byte	0x1d4d
 3946 0b7b A20B0000 		.4byte	0xba2
 3947 0b7f 09       		.uleb128 0x9
 3948 0b80 01       		.uleb128 0x1
 3949 0b81 50       		.byte	0x50
 3950 0b82 02       		.uleb128 0x2
 3951 0b83 08       		.byte	0x8
 3952 0b84 AC       		.byte	0xac
 3953 0b85 09       		.uleb128 0x9
 3954 0b86 01       		.uleb128 0x1
 3955 0b87 51       		.byte	0x51
 3956 0b88 01       		.uleb128 0x1
 3957 0b89 31       		.byte	0x31
 3958 0b8a 09       		.uleb128 0x9
 3959 0b8b 01       		.uleb128 0x1
 3960 0b8c 52       		.byte	0x52
 3961 0b8d 01       		.uleb128 0x1
 3962 0b8e 31       		.byte	0x31
 3963 0b8f 09       		.uleb128 0x9
 3964 0b90 01       		.uleb128 0x1
 3965 0b91 53       		.byte	0x53
 3966 0b92 01       		.uleb128 0x1
 3967 0b93 30       		.byte	0x30
 3968 0b94 09       		.uleb128 0x9
ARM GAS  C:\Users\Misha\AppData\Local\Temp\ccIfQyo5.s 			page 89


 3969 0b95 02       		.uleb128 0x2
 3970 0b96 7D       		.byte	0x7d
 3971 0b97 00       		.sleb128 0
 3972 0b98 02       		.uleb128 0x2
 3973 0b99 08       		.byte	0x8
 3974 0b9a C8       		.byte	0xc8
 3975 0b9b 09       		.uleb128 0x9
 3976 0b9c 02       		.uleb128 0x2
 3977 0b9d 7D       		.byte	0x7d
 3978 0b9e 04       		.sleb128 4
 3979 0b9f 01       		.uleb128 0x1
 3980 0ba0 31       		.byte	0x31
 3981 0ba1 00       		.byte	0
 3982 0ba2 08       		.uleb128 0x8
 3983 0ba3 38060000 		.4byte	.LVL183
 3984 0ba7 8F1D0000 		.4byte	0x1d8f
 3985 0bab C10B0000 		.4byte	0xbc1
 3986 0baf 09       		.uleb128 0x9
 3987 0bb0 01       		.uleb128 0x1
 3988 0bb1 50       		.byte	0x50
 3989 0bb2 02       		.uleb128 0x2
 3990 0bb3 08       		.byte	0x8
 3991 0bb4 9B       		.byte	0x9b
 3992 0bb5 09       		.uleb128 0x9
 3993 0bb6 01       		.uleb128 0x1
 3994 0bb7 52       		.byte	0x52
 3995 0bb8 01       		.uleb128 0x1
 3996 0bb9 32       		.byte	0x32
 3997 0bba 09       		.uleb128 0x9
 3998 0bbb 01       		.uleb128 0x1
 3999 0bbc 53       		.byte	0x53
 4000 0bbd 02       		.uleb128 0x2
 4001 0bbe 09       		.byte	0x9
 4002 0bbf FF       		.byte	0xff
 4003 0bc0 00       		.byte	0
 4004 0bc1 08       		.uleb128 0x8
 4005 0bc2 3E060000 		.4byte	.LVL184
 4006 0bc6 421D0000 		.4byte	0x1d42
 4007 0bca D40B0000 		.4byte	0xbd4
 4008 0bce 09       		.uleb128 0x9
 4009 0bcf 01       		.uleb128 0x1
 4010 0bd0 50       		.byte	0x50
 4011 0bd1 01       		.uleb128 0x1
 4012 0bd2 35       		.byte	0x35
 4013 0bd3 00       		.byte	0
 4014 0bd4 08       		.uleb128 0x8
 4015 0bd5 92060000 		.4byte	.LVL185
 4016 0bd9 2C1D0000 		.4byte	0x1d2c
 4017 0bdd F10B0000 		.4byte	0xbf1
 4018 0be1 09       		.uleb128 0x9
 4019 0be2 01       		.uleb128 0x1
 4020 0be3 50       		.byte	0x50
 4021 0be4 02       		.uleb128 0x2
 4022 0be5 74       		.byte	0x74
 4023 0be6 00       		.sleb128 0
 4024 0be7 09       		.uleb128 0x9
 4025 0be8 01       		.uleb128 0x1
ARM GAS  C:\Users\Misha\AppData\Local\Temp\ccIfQyo5.s 			page 90


 4026 0be9 51       		.byte	0x51
 4027 0bea 05       		.uleb128 0x5
 4028 0beb 03       		.byte	0x3
 4029 0bec 94010000 		.4byte	.LC17
 4030 0bf0 00       		.byte	0
 4031 0bf1 08       		.uleb128 0x8
 4032 0bf2 98060000 		.4byte	.LVL186
 4033 0bf6 BE1C0000 		.4byte	0x1cbe
 4034 0bfa 050C0000 		.4byte	0xc05
 4035 0bfe 09       		.uleb128 0x9
 4036 0bff 01       		.uleb128 0x1
 4037 0c00 50       		.byte	0x50
 4038 0c01 02       		.uleb128 0x2
 4039 0c02 74       		.byte	0x74
 4040 0c03 00       		.sleb128 0
 4041 0c04 00       		.byte	0
 4042 0c05 08       		.uleb128 0x8
 4043 0c06 A4060000 		.4byte	.LVL187
 4044 0c0a 2C1D0000 		.4byte	0x1d2c
 4045 0c0e 220C0000 		.4byte	0xc22
 4046 0c12 09       		.uleb128 0x9
 4047 0c13 01       		.uleb128 0x1
 4048 0c14 50       		.byte	0x50
 4049 0c15 02       		.uleb128 0x2
 4050 0c16 74       		.byte	0x74
 4051 0c17 00       		.sleb128 0
 4052 0c18 09       		.uleb128 0x9
 4053 0c19 01       		.uleb128 0x1
 4054 0c1a 51       		.byte	0x51
 4055 0c1b 05       		.uleb128 0x5
 4056 0c1c 03       		.byte	0x3
 4057 0c1d B0010000 		.4byte	.LC18
 4058 0c21 00       		.byte	0
 4059 0c22 08       		.uleb128 0x8
 4060 0c23 AA060000 		.4byte	.LVL188
 4061 0c27 BE1C0000 		.4byte	0x1cbe
 4062 0c2b 360C0000 		.4byte	0xc36
 4063 0c2f 09       		.uleb128 0x9
 4064 0c30 01       		.uleb128 0x1
 4065 0c31 50       		.byte	0x50
 4066 0c32 02       		.uleb128 0x2
 4067 0c33 74       		.byte	0x74
 4068 0c34 00       		.sleb128 0
 4069 0c35 00       		.byte	0
 4070 0c36 08       		.uleb128 0x8
 4071 0c37 B6060000 		.4byte	.LVL189
 4072 0c3b 2C1D0000 		.4byte	0x1d2c
 4073 0c3f 530C0000 		.4byte	0xc53
 4074 0c43 09       		.uleb128 0x9
 4075 0c44 01       		.uleb128 0x1
 4076 0c45 50       		.byte	0x50
 4077 0c46 02       		.uleb128 0x2
 4078 0c47 74       		.byte	0x74
 4079 0c48 00       		.sleb128 0
 4080 0c49 09       		.uleb128 0x9
 4081 0c4a 01       		.uleb128 0x1
 4082 0c4b 51       		.byte	0x51
ARM GAS  C:\Users\Misha\AppData\Local\Temp\ccIfQyo5.s 			page 91


 4083 0c4c 05       		.uleb128 0x5
 4084 0c4d 03       		.byte	0x3
 4085 0c4e CC010000 		.4byte	.LC19
 4086 0c52 00       		.byte	0
 4087 0c53 08       		.uleb128 0x8
 4088 0c54 BC060000 		.4byte	.LVL190
 4089 0c58 BE1C0000 		.4byte	0x1cbe
 4090 0c5c 670C0000 		.4byte	0xc67
 4091 0c60 09       		.uleb128 0x9
 4092 0c61 01       		.uleb128 0x1
 4093 0c62 50       		.byte	0x50
 4094 0c63 02       		.uleb128 0x2
 4095 0c64 74       		.byte	0x74
 4096 0c65 00       		.sleb128 0
 4097 0c66 00       		.byte	0
 4098 0c67 08       		.uleb128 0x8
 4099 0c68 C8060000 		.4byte	.LVL191
 4100 0c6c 2C1D0000 		.4byte	0x1d2c
 4101 0c70 840C0000 		.4byte	0xc84
 4102 0c74 09       		.uleb128 0x9
 4103 0c75 01       		.uleb128 0x1
 4104 0c76 50       		.byte	0x50
 4105 0c77 02       		.uleb128 0x2
 4106 0c78 74       		.byte	0x74
 4107 0c79 00       		.sleb128 0
 4108 0c7a 09       		.uleb128 0x9
 4109 0c7b 01       		.uleb128 0x1
 4110 0c7c 51       		.byte	0x51
 4111 0c7d 05       		.uleb128 0x5
 4112 0c7e 03       		.byte	0x3
 4113 0c7f E8010000 		.4byte	.LC20
 4114 0c83 00       		.byte	0
 4115 0c84 0A       		.uleb128 0xa
 4116 0c85 CE060000 		.4byte	.LVL192
 4117 0c89 BE1C0000 		.4byte	0x1cbe
 4118 0c8d 09       		.uleb128 0x9
 4119 0c8e 01       		.uleb128 0x1
 4120 0c8f 50       		.byte	0x50
 4121 0c90 02       		.uleb128 0x2
 4122 0c91 74       		.byte	0x74
 4123 0c92 00       		.sleb128 0
 4124 0c93 00       		.byte	0
 4125 0c94 00       		.byte	0
 4126 0c95 0D       		.uleb128 0xd
 4127 0c96 80080000 		.4byte	.LBB10
 4128 0c9a 34000000 		.4byte	.LBE10-.LBB10
 4129 0c9e 280D0000 		.4byte	0xd28
 4130 0ca2 0E       		.uleb128 0xe
 4131 0ca3 16020000 		.4byte	.LASF24
 4132 0ca7 01       		.byte	0x1
 4133 0ca8 B502     		.2byte	0x2b5
 4134 0caa 68000000 		.4byte	0x68
 4135 0cae FF000000 		.4byte	.LLST8
 4136 0cb2 12       		.uleb128 0x12
 4137 0cb3 6B060000 		.4byte	.LASF110
 4138 0cb7 01       		.byte	0x1
 4139 0cb8 B602     		.2byte	0x2b6
ARM GAS  C:\Users\Misha\AppData\Local\Temp\ccIfQyo5.s 			page 92


 4140 0cba 68000000 		.4byte	0x68
 4141 0cbe 08       		.uleb128 0x8
 4142 0cbf 8E080000 		.4byte	.LVL220
 4143 0cc3 9A1D0000 		.4byte	0x1d9a
 4144 0cc7 D60C0000 		.4byte	0xcd6
 4145 0ccb 09       		.uleb128 0x9
 4146 0ccc 01       		.uleb128 0x1
 4147 0ccd 50       		.byte	0x50
 4148 0cce 01       		.uleb128 0x1
 4149 0ccf 30       		.byte	0x30
 4150 0cd0 09       		.uleb128 0x9
 4151 0cd1 01       		.uleb128 0x1
 4152 0cd2 51       		.byte	0x51
 4153 0cd3 01       		.uleb128 0x1
 4154 0cd4 32       		.byte	0x32
 4155 0cd5 00       		.byte	0
 4156 0cd6 08       		.uleb128 0x8
 4157 0cd7 94080000 		.4byte	.LVL221
 4158 0cdb A51D0000 		.4byte	0x1da5
 4159 0cdf E90C0000 		.4byte	0xce9
 4160 0ce3 09       		.uleb128 0x9
 4161 0ce4 01       		.uleb128 0x1
 4162 0ce5 50       		.byte	0x50
 4163 0ce6 01       		.uleb128 0x1
 4164 0ce7 35       		.byte	0x35
 4165 0ce8 00       		.byte	0
 4166 0ce9 06       		.uleb128 0x6
 4167 0cea 98080000 		.4byte	.LVL222
 4168 0cee B01D0000 		.4byte	0x1db0
 4169 0cf2 08       		.uleb128 0x8
 4170 0cf3 A0080000 		.4byte	.LVL223
 4171 0cf7 9A1D0000 		.4byte	0x1d9a
 4172 0cfb 0B0D0000 		.4byte	0xd0b
 4173 0cff 09       		.uleb128 0x9
 4174 0d00 01       		.uleb128 0x1
 4175 0d01 50       		.byte	0x50
 4176 0d02 01       		.uleb128 0x1
 4177 0d03 33       		.byte	0x33
 4178 0d04 09       		.uleb128 0x9
 4179 0d05 01       		.uleb128 0x1
 4180 0d06 51       		.byte	0x51
 4181 0d07 02       		.uleb128 0x2
 4182 0d08 75       		.byte	0x75
 4183 0d09 00       		.sleb128 0
 4184 0d0a 00       		.byte	0
 4185 0d0b 0A       		.uleb128 0xa
 4186 0d0c AC080000 		.4byte	.LVL224
 4187 0d10 DF1C0000 		.4byte	0x1cdf
 4188 0d14 09       		.uleb128 0x9
 4189 0d15 01       		.uleb128 0x1
 4190 0d16 50       		.byte	0x50
 4191 0d17 02       		.uleb128 0x2
 4192 0d18 09       		.byte	0x9
 4193 0d19 C4       		.byte	0xc4
 4194 0d1a 09       		.uleb128 0x9
 4195 0d1b 01       		.uleb128 0x1
 4196 0d1c 51       		.byte	0x51
ARM GAS  C:\Users\Misha\AppData\Local\Temp\ccIfQyo5.s 			page 93


 4197 0d1d 02       		.uleb128 0x2
 4198 0d1e 08       		.byte	0x8
 4199 0d1f C8       		.byte	0xc8
 4200 0d20 09       		.uleb128 0x9
 4201 0d21 01       		.uleb128 0x1
 4202 0d22 52       		.byte	0x52
 4203 0d23 02       		.uleb128 0x2
 4204 0d24 75       		.byte	0x75
 4205 0d25 00       		.sleb128 0
 4206 0d26 00       		.byte	0
 4207 0d27 00       		.byte	0
 4208 0d28 0D       		.uleb128 0xd
 4209 0d29 6A0A0000 		.4byte	.LBB11
 4210 0d2d 46010000 		.4byte	.LBE11-.LBB11
 4211 0d31 18100000 		.4byte	0x1018
 4212 0d35 0E       		.uleb128 0xe
 4213 0d36 49060000 		.4byte	.LASF25
 4214 0d3a 01       		.byte	0x1
 4215 0d3b 4303     		.2byte	0x343
 4216 0d3d 68000000 		.4byte	0x68
 4217 0d41 13010000 		.4byte	.LLST9
 4218 0d45 08       		.uleb128 0x8
 4219 0d46 700A0000 		.4byte	.LVL256
 4220 0d4a 631D0000 		.4byte	0x1d63
 4221 0d4e 580D0000 		.4byte	0xd58
 4222 0d52 09       		.uleb128 0x9
 4223 0d53 01       		.uleb128 0x1
 4224 0d54 50       		.byte	0x50
 4225 0d55 01       		.uleb128 0x1
 4226 0d56 31       		.byte	0x31
 4227 0d57 00       		.byte	0
 4228 0d58 06       		.uleb128 0x6
 4229 0d59 7A0A0000 		.4byte	.LVL257
 4230 0d5d 161D0000 		.4byte	0x1d16
 4231 0d61 08       		.uleb128 0x8
 4232 0d62 A20A0000 		.4byte	.LVL260
 4233 0d66 4D1D0000 		.4byte	0x1d4d
 4234 0d6a 940D0000 		.4byte	0xd94
 4235 0d6e 09       		.uleb128 0x9
 4236 0d6f 01       		.uleb128 0x1
 4237 0d70 50       		.byte	0x50
 4238 0d71 03       		.uleb128 0x3
 4239 0d72 0A       		.byte	0xa
 4240 0d73 2602     		.2byte	0x226
 4241 0d75 09       		.uleb128 0x9
 4242 0d76 01       		.uleb128 0x1
 4243 0d77 51       		.byte	0x51
 4244 0d78 01       		.uleb128 0x1
 4245 0d79 30       		.byte	0x30
 4246 0d7a 09       		.uleb128 0x9
 4247 0d7b 01       		.uleb128 0x1
 4248 0d7c 52       		.byte	0x52
 4249 0d7d 02       		.uleb128 0x2
 4250 0d7e 09       		.byte	0x9
 4251 0d7f FF       		.byte	0xff
 4252 0d80 09       		.uleb128 0x9
 4253 0d81 01       		.uleb128 0x1
ARM GAS  C:\Users\Misha\AppData\Local\Temp\ccIfQyo5.s 			page 94


 4254 0d82 53       		.byte	0x53
 4255 0d83 01       		.uleb128 0x1
 4256 0d84 35       		.byte	0x35
 4257 0d85 09       		.uleb128 0x9
 4258 0d86 02       		.uleb128 0x2
 4259 0d87 7D       		.byte	0x7d
 4260 0d88 00       		.sleb128 0
 4261 0d89 02       		.uleb128 0x2
 4262 0d8a 75       		.byte	0x75
 4263 0d8b 00       		.sleb128 0
 4264 0d8c 09       		.uleb128 0x9
 4265 0d8d 02       		.uleb128 0x2
 4266 0d8e 7D       		.byte	0x7d
 4267 0d8f 04       		.sleb128 4
 4268 0d90 02       		.uleb128 0x2
 4269 0d91 74       		.byte	0x74
 4270 0d92 00       		.sleb128 0
 4271 0d93 00       		.byte	0
 4272 0d94 08       		.uleb128 0x8
 4273 0d95 AA0A0000 		.4byte	.LVL261
 4274 0d99 841D0000 		.4byte	0x1d84
 4275 0d9d AD0D0000 		.4byte	0xdad
 4276 0da1 09       		.uleb128 0x9
 4277 0da2 01       		.uleb128 0x1
 4278 0da3 50       		.byte	0x50
 4279 0da4 01       		.uleb128 0x1
 4280 0da5 30       		.byte	0x30
 4281 0da6 09       		.uleb128 0x9
 4282 0da7 01       		.uleb128 0x1
 4283 0da8 51       		.byte	0x51
 4284 0da9 02       		.uleb128 0x2
 4285 0daa 75       		.byte	0x75
 4286 0dab 00       		.sleb128 0
 4287 0dac 00       		.byte	0
 4288 0dad 08       		.uleb128 0x8
 4289 0dae B20A0000 		.4byte	.LVL262
 4290 0db2 841D0000 		.4byte	0x1d84
 4291 0db6 C60D0000 		.4byte	0xdc6
 4292 0dba 09       		.uleb128 0x9
 4293 0dbb 01       		.uleb128 0x1
 4294 0dbc 50       		.byte	0x50
 4295 0dbd 01       		.uleb128 0x1
 4296 0dbe 33       		.byte	0x33
 4297 0dbf 09       		.uleb128 0x9
 4298 0dc0 01       		.uleb128 0x1
 4299 0dc1 51       		.byte	0x51
 4300 0dc2 02       		.uleb128 0x2
 4301 0dc3 75       		.byte	0x75
 4302 0dc4 00       		.sleb128 0
 4303 0dc5 00       		.byte	0
 4304 0dc6 08       		.uleb128 0x8
 4305 0dc7 C20A0000 		.4byte	.LVL263
 4306 0dcb 4D1D0000 		.4byte	0x1d4d
 4307 0dcf F90D0000 		.4byte	0xdf9
 4308 0dd3 09       		.uleb128 0x9
 4309 0dd4 01       		.uleb128 0x1
 4310 0dd5 50       		.byte	0x50
ARM GAS  C:\Users\Misha\AppData\Local\Temp\ccIfQyo5.s 			page 95


 4311 0dd6 02       		.uleb128 0x2
 4312 0dd7 08       		.byte	0x8
 4313 0dd8 AA       		.byte	0xaa
 4314 0dd9 09       		.uleb128 0x9
 4315 0dda 01       		.uleb128 0x1
 4316 0ddb 51       		.byte	0x51
 4317 0ddc 02       		.uleb128 0x2
 4318 0ddd 74       		.byte	0x74
 4319 0dde 00       		.sleb128 0
 4320 0ddf 09       		.uleb128 0x9
 4321 0de0 01       		.uleb128 0x1
 4322 0de1 52       		.byte	0x52
 4323 0de2 02       		.uleb128 0x2
 4324 0de3 74       		.byte	0x74
 4325 0de4 00       		.sleb128 0
 4326 0de5 09       		.uleb128 0x9
 4327 0de6 01       		.uleb128 0x1
 4328 0de7 53       		.byte	0x53
 4329 0de8 01       		.uleb128 0x1
 4330 0de9 35       		.byte	0x35
 4331 0dea 09       		.uleb128 0x9
 4332 0deb 02       		.uleb128 0x2
 4333 0dec 7D       		.byte	0x7d
 4334 0ded 00       		.sleb128 0
 4335 0dee 02       		.uleb128 0x2
 4336 0def 75       		.byte	0x75
 4337 0df0 00       		.sleb128 0
 4338 0df1 09       		.uleb128 0x9
 4339 0df2 02       		.uleb128 0x2
 4340 0df3 7D       		.byte	0x7d
 4341 0df4 04       		.sleb128 4
 4342 0df5 02       		.uleb128 0x2
 4343 0df6 74       		.byte	0x74
 4344 0df7 00       		.sleb128 0
 4345 0df8 00       		.byte	0
 4346 0df9 08       		.uleb128 0x8
 4347 0dfa D00A0000 		.4byte	.LVL264
 4348 0dfe BB1D0000 		.4byte	0x1dbb
 4349 0e02 250E0000 		.4byte	0xe25
 4350 0e06 09       		.uleb128 0x9
 4351 0e07 01       		.uleb128 0x1
 4352 0e08 50       		.byte	0x50
 4353 0e09 02       		.uleb128 0x2
 4354 0e0a 08       		.byte	0x8
 4355 0e0b AA       		.byte	0xaa
 4356 0e0c 09       		.uleb128 0x9
 4357 0e0d 01       		.uleb128 0x1
 4358 0e0e 51       		.byte	0x51
 4359 0e0f 02       		.uleb128 0x2
 4360 0e10 74       		.byte	0x74
 4361 0e11 00       		.sleb128 0
 4362 0e12 09       		.uleb128 0x9
 4363 0e13 01       		.uleb128 0x1
 4364 0e14 52       		.byte	0x52
 4365 0e15 01       		.uleb128 0x1
 4366 0e16 35       		.byte	0x35
 4367 0e17 09       		.uleb128 0x9
ARM GAS  C:\Users\Misha\AppData\Local\Temp\ccIfQyo5.s 			page 96


 4368 0e18 01       		.uleb128 0x1
 4369 0e19 53       		.byte	0x53
 4370 0e1a 02       		.uleb128 0x2
 4371 0e1b 08       		.byte	0x8
 4372 0e1c 46       		.byte	0x46
 4373 0e1d 09       		.uleb128 0x9
 4374 0e1e 02       		.uleb128 0x2
 4375 0e1f 7D       		.byte	0x7d
 4376 0e20 00       		.sleb128 0
 4377 0e21 02       		.uleb128 0x2
 4378 0e22 74       		.byte	0x74
 4379 0e23 00       		.sleb128 0
 4380 0e24 00       		.byte	0
 4381 0e25 08       		.uleb128 0x8
 4382 0e26 D60A0000 		.4byte	.LVL265
 4383 0e2a 421D0000 		.4byte	0x1d42
 4384 0e2e 380E0000 		.4byte	0xe38
 4385 0e32 09       		.uleb128 0x9
 4386 0e33 01       		.uleb128 0x1
 4387 0e34 50       		.byte	0x50
 4388 0e35 01       		.uleb128 0x1
 4389 0e36 37       		.byte	0x37
 4390 0e37 00       		.byte	0
 4391 0e38 08       		.uleb128 0x8
 4392 0e39 DE0A0000 		.4byte	.LVL266
 4393 0e3d 841D0000 		.4byte	0x1d84
 4394 0e41 510E0000 		.4byte	0xe51
 4395 0e45 09       		.uleb128 0x9
 4396 0e46 01       		.uleb128 0x1
 4397 0e47 50       		.byte	0x50
 4398 0e48 01       		.uleb128 0x1
 4399 0e49 32       		.byte	0x32
 4400 0e4a 09       		.uleb128 0x9
 4401 0e4b 01       		.uleb128 0x1
 4402 0e4c 51       		.byte	0x51
 4403 0e4d 02       		.uleb128 0x2
 4404 0e4e 08       		.byte	0x8
 4405 0e4f C8       		.byte	0xc8
 4406 0e50 00       		.byte	0
 4407 0e51 08       		.uleb128 0x8
 4408 0e52 E60A0000 		.4byte	.LVL267
 4409 0e56 9A1D0000 		.4byte	0x1d9a
 4410 0e5a 690E0000 		.4byte	0xe69
 4411 0e5e 09       		.uleb128 0x9
 4412 0e5f 01       		.uleb128 0x1
 4413 0e60 50       		.byte	0x50
 4414 0e61 01       		.uleb128 0x1
 4415 0e62 33       		.byte	0x33
 4416 0e63 09       		.uleb128 0x9
 4417 0e64 01       		.uleb128 0x1
 4418 0e65 51       		.byte	0x51
 4419 0e66 01       		.uleb128 0x1
 4420 0e67 31       		.byte	0x31
 4421 0e68 00       		.byte	0
 4422 0e69 08       		.uleb128 0x8
 4423 0e6a F20A0000 		.4byte	.LVL268
 4424 0e6e 421D0000 		.4byte	0x1d42
ARM GAS  C:\Users\Misha\AppData\Local\Temp\ccIfQyo5.s 			page 97


 4425 0e72 7C0E0000 		.4byte	0xe7c
 4426 0e76 09       		.uleb128 0x9
 4427 0e77 01       		.uleb128 0x1
 4428 0e78 50       		.byte	0x50
 4429 0e79 01       		.uleb128 0x1
 4430 0e7a 37       		.byte	0x37
 4431 0e7b 00       		.byte	0
 4432 0e7c 08       		.uleb128 0x8
 4433 0e7d 040B0000 		.4byte	.LVL269
 4434 0e81 4D1D0000 		.4byte	0x1d4d
 4435 0e85 AC0E0000 		.4byte	0xeac
 4436 0e89 09       		.uleb128 0x9
 4437 0e8a 01       		.uleb128 0x1
 4438 0e8b 50       		.byte	0x50
 4439 0e8c 02       		.uleb128 0x2
 4440 0e8d 08       		.byte	0x8
 4441 0e8e 82       		.byte	0x82
 4442 0e8f 09       		.uleb128 0x9
 4443 0e90 01       		.uleb128 0x1
 4444 0e91 51       		.byte	0x51
 4445 0e92 01       		.uleb128 0x1
 4446 0e93 31       		.byte	0x31
 4447 0e94 09       		.uleb128 0x9
 4448 0e95 01       		.uleb128 0x1
 4449 0e96 52       		.byte	0x52
 4450 0e97 01       		.uleb128 0x1
 4451 0e98 31       		.byte	0x31
 4452 0e99 09       		.uleb128 0x9
 4453 0e9a 01       		.uleb128 0x1
 4454 0e9b 53       		.byte	0x53
 4455 0e9c 01       		.uleb128 0x1
 4456 0e9d 35       		.byte	0x35
 4457 0e9e 09       		.uleb128 0x9
 4458 0e9f 02       		.uleb128 0x2
 4459 0ea0 7D       		.byte	0x7d
 4460 0ea1 00       		.sleb128 0
 4461 0ea2 02       		.uleb128 0x2
 4462 0ea3 08       		.byte	0x8
 4463 0ea4 C8       		.byte	0xc8
 4464 0ea5 09       		.uleb128 0x9
 4465 0ea6 02       		.uleb128 0x2
 4466 0ea7 7D       		.byte	0x7d
 4467 0ea8 04       		.sleb128 4
 4468 0ea9 01       		.uleb128 0x1
 4469 0eaa 31       		.byte	0x31
 4470 0eab 00       		.byte	0
 4471 0eac 08       		.uleb128 0x8
 4472 0ead 1A0B0000 		.4byte	.LVL270
 4473 0eb1 4D1D0000 		.4byte	0x1d4d
 4474 0eb5 DC0E0000 		.4byte	0xedc
 4475 0eb9 09       		.uleb128 0x9
 4476 0eba 01       		.uleb128 0x1
 4477 0ebb 50       		.byte	0x50
 4478 0ebc 02       		.uleb128 0x2
 4479 0ebd 08       		.byte	0x8
 4480 0ebe 5F       		.byte	0x5f
 4481 0ebf 09       		.uleb128 0x9
ARM GAS  C:\Users\Misha\AppData\Local\Temp\ccIfQyo5.s 			page 98


 4482 0ec0 01       		.uleb128 0x1
 4483 0ec1 51       		.byte	0x51
 4484 0ec2 01       		.uleb128 0x1
 4485 0ec3 31       		.byte	0x31
 4486 0ec4 09       		.uleb128 0x9
 4487 0ec5 01       		.uleb128 0x1
 4488 0ec6 52       		.byte	0x52
 4489 0ec7 01       		.uleb128 0x1
 4490 0ec8 31       		.byte	0x31
 4491 0ec9 09       		.uleb128 0x9
 4492 0eca 01       		.uleb128 0x1
 4493 0ecb 53       		.byte	0x53
 4494 0ecc 01       		.uleb128 0x1
 4495 0ecd 35       		.byte	0x35
 4496 0ece 09       		.uleb128 0x9
 4497 0ecf 02       		.uleb128 0x2
 4498 0ed0 7D       		.byte	0x7d
 4499 0ed1 00       		.sleb128 0
 4500 0ed2 02       		.uleb128 0x2
 4501 0ed3 08       		.byte	0x8
 4502 0ed4 46       		.byte	0x46
 4503 0ed5 09       		.uleb128 0x9
 4504 0ed6 02       		.uleb128 0x2
 4505 0ed7 7D       		.byte	0x7d
 4506 0ed8 04       		.sleb128 4
 4507 0ed9 01       		.uleb128 0x1
 4508 0eda 30       		.byte	0x30
 4509 0edb 00       		.byte	0
 4510 0edc 08       		.uleb128 0x8
 4511 0edd 240B0000 		.4byte	.LVL271
 4512 0ee1 9A1D0000 		.4byte	0x1d9a
 4513 0ee5 EF0E0000 		.4byte	0xeef
 4514 0ee9 09       		.uleb128 0x9
 4515 0eea 01       		.uleb128 0x1
 4516 0eeb 51       		.byte	0x51
 4517 0eec 01       		.uleb128 0x1
 4518 0eed 31       		.byte	0x31
 4519 0eee 00       		.byte	0
 4520 0eef 06       		.uleb128 0x6
 4521 0ef0 280B0000 		.4byte	.LVL272
 4522 0ef4 C61D0000 		.4byte	0x1dc6
 4523 0ef8 08       		.uleb128 0x8
 4524 0ef9 300B0000 		.4byte	.LVL273
 4525 0efd 9A1D0000 		.4byte	0x1d9a
 4526 0f01 100F0000 		.4byte	0xf10
 4527 0f05 09       		.uleb128 0x9
 4528 0f06 01       		.uleb128 0x1
 4529 0f07 50       		.byte	0x50
 4530 0f08 01       		.uleb128 0x1
 4531 0f09 33       		.byte	0x33
 4532 0f0a 09       		.uleb128 0x9
 4533 0f0b 01       		.uleb128 0x1
 4534 0f0c 51       		.byte	0x51
 4535 0f0d 01       		.uleb128 0x1
 4536 0f0e 30       		.byte	0x30
 4537 0f0f 00       		.byte	0
 4538 0f10 08       		.uleb128 0x8
ARM GAS  C:\Users\Misha\AppData\Local\Temp\ccIfQyo5.s 			page 99


 4539 0f11 5A0B0000 		.4byte	.LVL274
 4540 0f15 DF1C0000 		.4byte	0x1cdf
 4541 0f19 300F0000 		.4byte	0xf30
 4542 0f1d 09       		.uleb128 0x9
 4543 0f1e 01       		.uleb128 0x1
 4544 0f1f 50       		.byte	0x50
 4545 0f20 03       		.uleb128 0x3
 4546 0f21 0B       		.byte	0xb
 4547 0f22 7EFF     		.2byte	0xff7e
 4548 0f24 09       		.uleb128 0x9
 4549 0f25 01       		.uleb128 0x1
 4550 0f26 51       		.byte	0x51
 4551 0f27 02       		.uleb128 0x2
 4552 0f28 08       		.byte	0x8
 4553 0f29 C8       		.byte	0xc8
 4554 0f2a 09       		.uleb128 0x9
 4555 0f2b 01       		.uleb128 0x1
 4556 0f2c 52       		.byte	0x52
 4557 0f2d 01       		.uleb128 0x1
 4558 0f2e 31       		.byte	0x31
 4559 0f2f 00       		.byte	0
 4560 0f30 08       		.uleb128 0x8
 4561 0f31 620B0000 		.4byte	.LVL275
 4562 0f35 841D0000 		.4byte	0x1d84
 4563 0f39 490F0000 		.4byte	0xf49
 4564 0f3d 09       		.uleb128 0x9
 4565 0f3e 01       		.uleb128 0x1
 4566 0f3f 50       		.byte	0x50
 4567 0f40 01       		.uleb128 0x1
 4568 0f41 33       		.byte	0x33
 4569 0f42 09       		.uleb128 0x9
 4570 0f43 01       		.uleb128 0x1
 4571 0f44 51       		.byte	0x51
 4572 0f45 02       		.uleb128 0x2
 4573 0f46 08       		.byte	0x8
 4574 0f47 C8       		.byte	0xc8
 4575 0f48 00       		.byte	0
 4576 0f49 08       		.uleb128 0x8
 4577 0f4a 680B0000 		.4byte	.LVL276
 4578 0f4e 421D0000 		.4byte	0x1d42
 4579 0f52 5C0F0000 		.4byte	0xf5c
 4580 0f56 09       		.uleb128 0x9
 4581 0f57 01       		.uleb128 0x1
 4582 0f58 50       		.byte	0x50
 4583 0f59 01       		.uleb128 0x1
 4584 0f5a 37       		.byte	0x37
 4585 0f5b 00       		.byte	0
 4586 0f5c 08       		.uleb128 0x8
 4587 0f5d 800B0000 		.4byte	.LVL277
 4588 0f61 4D1D0000 		.4byte	0x1d4d
 4589 0f65 8F0F0000 		.4byte	0xf8f
 4590 0f69 09       		.uleb128 0x9
 4591 0f6a 01       		.uleb128 0x1
 4592 0f6b 50       		.byte	0x50
 4593 0f6c 03       		.uleb128 0x3
 4594 0f6d 0A       		.byte	0xa
 4595 0f6e 2602     		.2byte	0x226
ARM GAS  C:\Users\Misha\AppData\Local\Temp\ccIfQyo5.s 			page 100


 4596 0f70 09       		.uleb128 0x9
 4597 0f71 01       		.uleb128 0x1
 4598 0f72 51       		.byte	0x51
 4599 0f73 01       		.uleb128 0x1
 4600 0f74 30       		.byte	0x30
 4601 0f75 09       		.uleb128 0x9
 4602 0f76 01       		.uleb128 0x1
 4603 0f77 52       		.byte	0x52
 4604 0f78 02       		.uleb128 0x2
 4605 0f79 09       		.byte	0x9
 4606 0f7a FF       		.byte	0xff
 4607 0f7b 09       		.uleb128 0x9
 4608 0f7c 01       		.uleb128 0x1
 4609 0f7d 53       		.byte	0x53
 4610 0f7e 01       		.uleb128 0x1
 4611 0f7f 35       		.byte	0x35
 4612 0f80 09       		.uleb128 0x9
 4613 0f81 02       		.uleb128 0x2
 4614 0f82 7D       		.byte	0x7d
 4615 0f83 00       		.sleb128 0
 4616 0f84 02       		.uleb128 0x2
 4617 0f85 75       		.byte	0x75
 4618 0f86 00       		.sleb128 0
 4619 0f87 09       		.uleb128 0x9
 4620 0f88 02       		.uleb128 0x2
 4621 0f89 7D       		.byte	0x7d
 4622 0f8a 04       		.sleb128 4
 4623 0f8b 02       		.uleb128 0x2
 4624 0f8c 74       		.byte	0x74
 4625 0f8d 00       		.sleb128 0
 4626 0f8e 00       		.byte	0
 4627 0f8f 08       		.uleb128 0x8
 4628 0f90 860B0000 		.4byte	.LVL278
 4629 0f94 421D0000 		.4byte	0x1d42
 4630 0f98 A20F0000 		.4byte	0xfa2
 4631 0f9c 09       		.uleb128 0x9
 4632 0f9d 01       		.uleb128 0x1
 4633 0f9e 50       		.byte	0x50
 4634 0f9f 01       		.uleb128 0x1
 4635 0fa0 37       		.byte	0x37
 4636 0fa1 00       		.byte	0
 4637 0fa2 08       		.uleb128 0x8
 4638 0fa3 8E0B0000 		.4byte	.LVL279
 4639 0fa7 841D0000 		.4byte	0x1d84
 4640 0fab BB0F0000 		.4byte	0xfbb
 4641 0faf 09       		.uleb128 0x9
 4642 0fb0 01       		.uleb128 0x1
 4643 0fb1 50       		.byte	0x50
 4644 0fb2 01       		.uleb128 0x1
 4645 0fb3 30       		.byte	0x30
 4646 0fb4 09       		.uleb128 0x9
 4647 0fb5 01       		.uleb128 0x1
 4648 0fb6 51       		.byte	0x51
 4649 0fb7 02       		.uleb128 0x2
 4650 0fb8 75       		.byte	0x75
 4651 0fb9 00       		.sleb128 0
 4652 0fba 00       		.byte	0
ARM GAS  C:\Users\Misha\AppData\Local\Temp\ccIfQyo5.s 			page 101


 4653 0fbb 08       		.uleb128 0x8
 4654 0fbc 960B0000 		.4byte	.LVL280
 4655 0fc0 841D0000 		.4byte	0x1d84
 4656 0fc4 D50F0000 		.4byte	0xfd5
 4657 0fc8 09       		.uleb128 0x9
 4658 0fc9 01       		.uleb128 0x1
 4659 0fca 50       		.byte	0x50
 4660 0fcb 02       		.uleb128 0x2
 4661 0fcc 74       		.byte	0x74
 4662 0fcd 00       		.sleb128 0
 4663 0fce 09       		.uleb128 0x9
 4664 0fcf 01       		.uleb128 0x1
 4665 0fd0 51       		.byte	0x51
 4666 0fd1 02       		.uleb128 0x2
 4667 0fd2 75       		.byte	0x75
 4668 0fd3 00       		.sleb128 0
 4669 0fd4 00       		.byte	0
 4670 0fd5 08       		.uleb128 0x8
 4671 0fd6 A60B0000 		.4byte	.LVL281
 4672 0fda 4D1D0000 		.4byte	0x1d4d
 4673 0fde 08100000 		.4byte	0x1008
 4674 0fe2 09       		.uleb128 0x9
 4675 0fe3 01       		.uleb128 0x1
 4676 0fe4 50       		.byte	0x50
 4677 0fe5 02       		.uleb128 0x2
 4678 0fe6 08       		.byte	0x8
 4679 0fe7 B9       		.byte	0xb9
 4680 0fe8 09       		.uleb128 0x9
 4681 0fe9 01       		.uleb128 0x1
 4682 0fea 51       		.byte	0x51
 4683 0feb 02       		.uleb128 0x2
 4684 0fec 74       		.byte	0x74
 4685 0fed 00       		.sleb128 0
 4686 0fee 09       		.uleb128 0x9
 4687 0fef 01       		.uleb128 0x1
 4688 0ff0 52       		.byte	0x52
 4689 0ff1 02       		.uleb128 0x2
 4690 0ff2 74       		.byte	0x74
 4691 0ff3 00       		.sleb128 0
 4692 0ff4 09       		.uleb128 0x9
 4693 0ff5 01       		.uleb128 0x1
 4694 0ff6 53       		.byte	0x53
 4695 0ff7 01       		.uleb128 0x1
 4696 0ff8 35       		.byte	0x35
 4697 0ff9 09       		.uleb128 0x9
 4698 0ffa 02       		.uleb128 0x2
 4699 0ffb 7D       		.byte	0x7d
 4700 0ffc 00       		.sleb128 0
 4701 0ffd 02       		.uleb128 0x2
 4702 0ffe 75       		.byte	0x75
 4703 0fff 00       		.sleb128 0
 4704 1000 09       		.uleb128 0x9
 4705 1001 02       		.uleb128 0x2
 4706 1002 7D       		.byte	0x7d
 4707 1003 04       		.sleb128 4
 4708 1004 02       		.uleb128 0x2
 4709 1005 74       		.byte	0x74
ARM GAS  C:\Users\Misha\AppData\Local\Temp\ccIfQyo5.s 			page 102


 4710 1006 00       		.sleb128 0
 4711 1007 00       		.byte	0
 4712 1008 0A       		.uleb128 0xa
 4713 1009 AC0B0000 		.4byte	.LVL282
 4714 100d 421D0000 		.4byte	0x1d42
 4715 1011 09       		.uleb128 0x9
 4716 1012 01       		.uleb128 0x1
 4717 1013 50       		.byte	0x50
 4718 1014 01       		.uleb128 0x1
 4719 1015 37       		.byte	0x37
 4720 1016 00       		.byte	0
 4721 1017 00       		.byte	0
 4722 1018 06       		.uleb128 0x6
 4723 1019 0C000000 		.4byte	.LVL11
 4724 101d D11D0000 		.4byte	0x1dd1
 4725 1021 06       		.uleb128 0x6
 4726 1022 10000000 		.4byte	.LVL12
 4727 1026 DC1D0000 		.4byte	0x1ddc
 4728 102a 08       		.uleb128 0x8
 4729 102b 16000000 		.4byte	.LVL13
 4730 102f BE1C0000 		.4byte	0x1cbe
 4731 1033 41100000 		.4byte	0x1041
 4732 1037 09       		.uleb128 0x9
 4733 1038 01       		.uleb128 0x1
 4734 1039 50       		.byte	0x50
 4735 103a 05       		.uleb128 0x5
 4736 103b 03       		.byte	0x3
 4737 103c 18000000 		.4byte	.LC1
 4738 1040 00       		.byte	0
 4739 1041 06       		.uleb128 0x6
 4740 1042 1A000000 		.4byte	.LVL14
 4741 1046 E71D0000 		.4byte	0x1de7
 4742 104a 06       		.uleb128 0x6
 4743 104b 1E000000 		.4byte	.LVL15
 4744 104f F21D0000 		.4byte	0x1df2
 4745 1053 08       		.uleb128 0x8
 4746 1054 24000000 		.4byte	.LVL16
 4747 1058 FD1D0000 		.4byte	0x1dfd
 4748 105c 66100000 		.4byte	0x1066
 4749 1060 09       		.uleb128 0x9
 4750 1061 01       		.uleb128 0x1
 4751 1062 50       		.byte	0x50
 4752 1063 01       		.uleb128 0x1
 4753 1064 30       		.byte	0x30
 4754 1065 00       		.byte	0
 4755 1066 06       		.uleb128 0x6
 4756 1067 2C000000 		.4byte	.LVL17
 4757 106b 081E0000 		.4byte	0x1e08
 4758 106f 08       		.uleb128 0x8
 4759 1070 36000000 		.4byte	.LVL18
 4760 1074 631D0000 		.4byte	0x1d63
 4761 1078 83100000 		.4byte	0x1083
 4762 107c 09       		.uleb128 0x9
 4763 107d 01       		.uleb128 0x1
 4764 107e 50       		.byte	0x50
 4765 107f 02       		.uleb128 0x2
 4766 1080 75       		.byte	0x75
ARM GAS  C:\Users\Misha\AppData\Local\Temp\ccIfQyo5.s 			page 103


 4767 1081 00       		.sleb128 0
 4768 1082 00       		.byte	0
 4769 1083 08       		.uleb128 0x8
 4770 1084 3C000000 		.4byte	.LVL19
 4771 1088 131E0000 		.4byte	0x1e13
 4772 108c 96100000 		.4byte	0x1096
 4773 1090 09       		.uleb128 0x9
 4774 1091 01       		.uleb128 0x1
 4775 1092 50       		.byte	0x50
 4776 1093 01       		.uleb128 0x1
 4777 1094 31       		.byte	0x31
 4778 1095 00       		.byte	0
 4779 1096 08       		.uleb128 0x8
 4780 1097 44000000 		.4byte	.LVL20
 4781 109b B31C0000 		.4byte	0x1cb3
 4782 109f AB100000 		.4byte	0x10ab
 4783 10a3 09       		.uleb128 0x9
 4784 10a4 01       		.uleb128 0x1
 4785 10a5 50       		.byte	0x50
 4786 10a6 03       		.uleb128 0x3
 4787 10a7 0A       		.byte	0xa
 4788 10a8 F401     		.2byte	0x1f4
 4789 10aa 00       		.byte	0
 4790 10ab 08       		.uleb128 0x8
 4791 10ac 4A000000 		.4byte	.LVL21
 4792 10b0 131E0000 		.4byte	0x1e13
 4793 10b4 BE100000 		.4byte	0x10be
 4794 10b8 09       		.uleb128 0x9
 4795 10b9 01       		.uleb128 0x1
 4796 10ba 50       		.byte	0x50
 4797 10bb 01       		.uleb128 0x1
 4798 10bc 32       		.byte	0x32
 4799 10bd 00       		.byte	0
 4800 10be 08       		.uleb128 0x8
 4801 10bf 52000000 		.4byte	.LVL22
 4802 10c3 B31C0000 		.4byte	0x1cb3
 4803 10c7 D3100000 		.4byte	0x10d3
 4804 10cb 09       		.uleb128 0x9
 4805 10cc 01       		.uleb128 0x1
 4806 10cd 50       		.byte	0x50
 4807 10ce 03       		.uleb128 0x3
 4808 10cf 0A       		.byte	0xa
 4809 10d0 F401     		.2byte	0x1f4
 4810 10d2 00       		.byte	0
 4811 10d3 08       		.uleb128 0x8
 4812 10d4 58000000 		.4byte	.LVL23
 4813 10d8 131E0000 		.4byte	0x1e13
 4814 10dc E6100000 		.4byte	0x10e6
 4815 10e0 09       		.uleb128 0x9
 4816 10e1 01       		.uleb128 0x1
 4817 10e2 50       		.byte	0x50
 4818 10e3 01       		.uleb128 0x1
 4819 10e4 33       		.byte	0x33
 4820 10e5 00       		.byte	0
 4821 10e6 08       		.uleb128 0x8
 4822 10e7 60000000 		.4byte	.LVL24
 4823 10eb B31C0000 		.4byte	0x1cb3
ARM GAS  C:\Users\Misha\AppData\Local\Temp\ccIfQyo5.s 			page 104


 4824 10ef FB100000 		.4byte	0x10fb
 4825 10f3 09       		.uleb128 0x9
 4826 10f4 01       		.uleb128 0x1
 4827 10f5 50       		.byte	0x50
 4828 10f6 03       		.uleb128 0x3
 4829 10f7 0A       		.byte	0xa
 4830 10f8 F401     		.2byte	0x1f4
 4831 10fa 00       		.byte	0
 4832 10fb 08       		.uleb128 0x8
 4833 10fc 66000000 		.4byte	.LVL25
 4834 1100 131E0000 		.4byte	0x1e13
 4835 1104 0F110000 		.4byte	0x110f
 4836 1108 09       		.uleb128 0x9
 4837 1109 01       		.uleb128 0x1
 4838 110a 50       		.byte	0x50
 4839 110b 02       		.uleb128 0x2
 4840 110c 75       		.byte	0x75
 4841 110d 00       		.sleb128 0
 4842 110e 00       		.byte	0
 4843 110f 08       		.uleb128 0x8
 4844 1110 6E000000 		.4byte	.LVL26
 4845 1114 B31C0000 		.4byte	0x1cb3
 4846 1118 24110000 		.4byte	0x1124
 4847 111c 09       		.uleb128 0x9
 4848 111d 01       		.uleb128 0x1
 4849 111e 50       		.byte	0x50
 4850 111f 03       		.uleb128 0x3
 4851 1120 0A       		.byte	0xa
 4852 1121 F401     		.2byte	0x1f4
 4853 1123 00       		.byte	0
 4854 1124 06       		.uleb128 0x6
 4855 1125 72000000 		.4byte	.LVL27
 4856 1129 581D0000 		.4byte	0x1d58
 4857 112d 06       		.uleb128 0x6
 4858 112e 76000000 		.4byte	.LVL28
 4859 1132 1E1E0000 		.4byte	0x1e1e
 4860 1136 08       		.uleb128 0x8
 4861 1137 7E000000 		.4byte	.LVL29
 4862 113b 291E0000 		.4byte	0x1e29
 4863 113f 4B110000 		.4byte	0x114b
 4864 1143 09       		.uleb128 0x9
 4865 1144 01       		.uleb128 0x1
 4866 1145 50       		.byte	0x50
 4867 1146 03       		.uleb128 0x3
 4868 1147 0A       		.byte	0xa
 4869 1148 E803     		.2byte	0x3e8
 4870 114a 00       		.byte	0
 4871 114b 08       		.uleb128 0x8
 4872 114c 86000000 		.4byte	.LVL30
 4873 1150 B31C0000 		.4byte	0x1cb3
 4874 1154 60110000 		.4byte	0x1160
 4875 1158 09       		.uleb128 0x9
 4876 1159 01       		.uleb128 0x1
 4877 115a 50       		.byte	0x50
 4878 115b 03       		.uleb128 0x3
 4879 115c 0A       		.byte	0xa
 4880 115d F401     		.2byte	0x1f4
ARM GAS  C:\Users\Misha\AppData\Local\Temp\ccIfQyo5.s 			page 105


 4881 115f 00       		.byte	0
 4882 1160 06       		.uleb128 0x6
 4883 1161 8A000000 		.4byte	.LVL31
 4884 1165 341E0000 		.4byte	0x1e34
 4885 1169 06       		.uleb128 0x6
 4886 116a 8E000000 		.4byte	.LVL32
 4887 116e 3F1E0000 		.4byte	0x1e3f
 4888 1172 08       		.uleb128 0x8
 4889 1173 96000000 		.4byte	.LVL33
 4890 1177 4A1E0000 		.4byte	0x1e4a
 4891 117b 87110000 		.4byte	0x1187
 4892 117f 09       		.uleb128 0x9
 4893 1180 01       		.uleb128 0x1
 4894 1181 50       		.byte	0x50
 4895 1182 03       		.uleb128 0x3
 4896 1183 0A       		.byte	0xa
 4897 1184 6004     		.2byte	0x460
 4898 1186 00       		.byte	0
 4899 1187 08       		.uleb128 0x8
 4900 1188 9E000000 		.4byte	.LVL34
 4901 118c B31C0000 		.4byte	0x1cb3
 4902 1190 9C110000 		.4byte	0x119c
 4903 1194 09       		.uleb128 0x9
 4904 1195 01       		.uleb128 0x1
 4905 1196 50       		.byte	0x50
 4906 1197 03       		.uleb128 0x3
 4907 1198 0A       		.byte	0xa
 4908 1199 F401     		.2byte	0x1f4
 4909 119b 00       		.byte	0
 4910 119c 06       		.uleb128 0x6
 4911 119d A2000000 		.4byte	.LVL35
 4912 11a1 551E0000 		.4byte	0x1e55
 4913 11a5 06       		.uleb128 0x6
 4914 11a6 A6000000 		.4byte	.LVL36
 4915 11aa 601E0000 		.4byte	0x1e60
 4916 11ae 06       		.uleb128 0x6
 4917 11af AA000000 		.4byte	.LVL37
 4918 11b3 6B1E0000 		.4byte	0x1e6b
 4919 11b7 08       		.uleb128 0x8
 4920 11b8 B0000000 		.4byte	.LVL38
 4921 11bc F51C0000 		.4byte	0x1cf5
 4922 11c0 CB110000 		.4byte	0x11cb
 4923 11c4 09       		.uleb128 0x9
 4924 11c5 01       		.uleb128 0x1
 4925 11c6 50       		.byte	0x50
 4926 11c7 02       		.uleb128 0x2
 4927 11c8 75       		.byte	0x75
 4928 11c9 00       		.sleb128 0
 4929 11ca 00       		.byte	0
 4930 11cb 08       		.uleb128 0x8
 4931 11cc B6000000 		.4byte	.LVL39
 4932 11d0 0B1D0000 		.4byte	0x1d0b
 4933 11d4 DF110000 		.4byte	0x11df
 4934 11d8 09       		.uleb128 0x9
 4935 11d9 01       		.uleb128 0x1
 4936 11da 50       		.byte	0x50
 4937 11db 02       		.uleb128 0x2
ARM GAS  C:\Users\Misha\AppData\Local\Temp\ccIfQyo5.s 			page 106


 4938 11dc 75       		.byte	0x75
 4939 11dd 00       		.sleb128 0
 4940 11de 00       		.byte	0
 4941 11df 06       		.uleb128 0x6
 4942 11e0 BA000000 		.4byte	.LVL40
 4943 11e4 C91C0000 		.4byte	0x1cc9
 4944 11e8 06       		.uleb128 0x6
 4945 11e9 BE000000 		.4byte	.LVL41
 4946 11ed D41C0000 		.4byte	0x1cd4
 4947 11f1 06       		.uleb128 0x6
 4948 11f2 C2000000 		.4byte	.LVL42
 4949 11f6 761E0000 		.4byte	0x1e76
 4950 11fa 06       		.uleb128 0x6
 4951 11fb C6000000 		.4byte	.LVL43
 4952 11ff 811E0000 		.4byte	0x1e81
 4953 1203 06       		.uleb128 0x6
 4954 1204 D0000000 		.4byte	.LVL44
 4955 1208 8C1E0000 		.4byte	0x1e8c
 4956 120c 06       		.uleb128 0x6
 4957 120d D4000000 		.4byte	.LVL45
 4958 1211 971E0000 		.4byte	0x1e97
 4959 1215 08       		.uleb128 0x8
 4960 1216 DA000000 		.4byte	.LVL46
 4961 121a A21E0000 		.4byte	0x1ea2
 4962 121e 2C120000 		.4byte	0x122c
 4963 1222 09       		.uleb128 0x9
 4964 1223 01       		.uleb128 0x1
 4965 1224 50       		.byte	0x50
 4966 1225 05       		.uleb128 0x5
 4967 1226 03       		.byte	0x3
 4968 1227 00000000 		.4byte	TIH
 4969 122b 00       		.byte	0
 4970 122c 08       		.uleb128 0x8
 4971 122d E0000000 		.4byte	.LVL47
 4972 1231 AD1E0000 		.4byte	0x1ead
 4973 1235 43120000 		.4byte	0x1243
 4974 1239 09       		.uleb128 0x9
 4975 123a 01       		.uleb128 0x1
 4976 123b 50       		.byte	0x50
 4977 123c 05       		.uleb128 0x5
 4978 123d 03       		.byte	0x3
 4979 123e 00000000 		.4byte	StartIH
 4980 1242 00       		.byte	0
 4981 1243 08       		.uleb128 0x8
 4982 1244 E6000000 		.4byte	.LVL48
 4983 1248 B81E0000 		.4byte	0x1eb8
 4984 124c 5A120000 		.4byte	0x125a
 4985 1250 09       		.uleb128 0x9
 4986 1251 01       		.uleb128 0x1
 4987 1252 50       		.byte	0x50
 4988 1253 05       		.uleb128 0x5
 4989 1254 03       		.byte	0x3
 4990 1255 00000000 		.4byte	SAIH
 4991 1259 00       		.byte	0
 4992 125a 08       		.uleb128 0x8
 4993 125b F0000000 		.4byte	.LVL49
 4994 125f BE1C0000 		.4byte	0x1cbe
ARM GAS  C:\Users\Misha\AppData\Local\Temp\ccIfQyo5.s 			page 107


 4995 1263 71120000 		.4byte	0x1271
 4996 1267 09       		.uleb128 0x9
 4997 1268 01       		.uleb128 0x1
 4998 1269 50       		.byte	0x50
 4999 126a 05       		.uleb128 0x5
 5000 126b 03       		.byte	0x3
 5001 126c 30000000 		.4byte	.LC2
 5002 1270 00       		.byte	0
 5003 1271 06       		.uleb128 0x6
 5004 1272 F4000000 		.4byte	.LVL50
 5005 1276 C31E0000 		.4byte	0x1ec3
 5006 127a 06       		.uleb128 0x6
 5007 127b F8000000 		.4byte	.LVL51
 5008 127f C31E0000 		.4byte	0x1ec3
 5009 1283 06       		.uleb128 0x6
 5010 1284 FC000000 		.4byte	.LVL52
 5011 1288 C31E0000 		.4byte	0x1ec3
 5012 128c 06       		.uleb128 0x6
 5013 128d 00010000 		.4byte	.LVL53
 5014 1291 CE1E0000 		.4byte	0x1ece
 5015 1295 06       		.uleb128 0x6
 5016 1296 04010000 		.4byte	.LVL54
 5017 129a D91E0000 		.4byte	0x1ed9
 5018 129e 08       		.uleb128 0x8
 5019 129f 08070000 		.4byte	.LVL193
 5020 12a3 4D1D0000 		.4byte	0x1d4d
 5021 12a7 D0120000 		.4byte	0x12d0
 5022 12ab 09       		.uleb128 0x9
 5023 12ac 01       		.uleb128 0x1
 5024 12ad 50       		.byte	0x50
 5025 12ae 02       		.uleb128 0x2
 5026 12af 75       		.byte	0x75
 5027 12b0 00       		.sleb128 0
 5028 12b1 09       		.uleb128 0x9
 5029 12b2 01       		.uleb128 0x1
 5030 12b3 51       		.byte	0x51
 5031 12b4 01       		.uleb128 0x1
 5032 12b5 30       		.byte	0x30
 5033 12b6 09       		.uleb128 0x9
 5034 12b7 01       		.uleb128 0x1
 5035 12b8 52       		.byte	0x52
 5036 12b9 02       		.uleb128 0x2
 5037 12ba 09       		.byte	0x9
 5038 12bb FF       		.byte	0xff
 5039 12bc 09       		.uleb128 0x9
 5040 12bd 01       		.uleb128 0x1
 5041 12be 53       		.byte	0x53
 5042 12bf 01       		.uleb128 0x1
 5043 12c0 35       		.byte	0x35
 5044 12c1 09       		.uleb128 0x9
 5045 12c2 02       		.uleb128 0x2
 5046 12c3 7D       		.byte	0x7d
 5047 12c4 00       		.sleb128 0
 5048 12c5 02       		.uleb128 0x2
 5049 12c6 75       		.byte	0x75
 5050 12c7 00       		.sleb128 0
 5051 12c8 09       		.uleb128 0x9
ARM GAS  C:\Users\Misha\AppData\Local\Temp\ccIfQyo5.s 			page 108


 5052 12c9 02       		.uleb128 0x2
 5053 12ca 7D       		.byte	0x7d
 5054 12cb 04       		.sleb128 4
 5055 12cc 02       		.uleb128 0x2
 5056 12cd 74       		.byte	0x74
 5057 12ce 00       		.sleb128 0
 5058 12cf 00       		.byte	0
 5059 12d0 08       		.uleb128 0x8
 5060 12d1 0E070000 		.4byte	.LVL194
 5061 12d5 421D0000 		.4byte	0x1d42
 5062 12d9 E3120000 		.4byte	0x12e3
 5063 12dd 09       		.uleb128 0x9
 5064 12de 01       		.uleb128 0x1
 5065 12df 50       		.byte	0x50
 5066 12e0 01       		.uleb128 0x1
 5067 12e1 37       		.byte	0x37
 5068 12e2 00       		.byte	0
 5069 12e3 08       		.uleb128 0x8
 5070 12e4 16070000 		.4byte	.LVL195
 5071 12e8 841D0000 		.4byte	0x1d84
 5072 12ec FC120000 		.4byte	0x12fc
 5073 12f0 09       		.uleb128 0x9
 5074 12f1 01       		.uleb128 0x1
 5075 12f2 50       		.byte	0x50
 5076 12f3 01       		.uleb128 0x1
 5077 12f4 30       		.byte	0x30
 5078 12f5 09       		.uleb128 0x9
 5079 12f6 01       		.uleb128 0x1
 5080 12f7 51       		.byte	0x51
 5081 12f8 02       		.uleb128 0x2
 5082 12f9 75       		.byte	0x75
 5083 12fa 00       		.sleb128 0
 5084 12fb 00       		.byte	0
 5085 12fc 08       		.uleb128 0x8
 5086 12fd 1C070000 		.4byte	.LVL196
 5087 1301 421D0000 		.4byte	0x1d42
 5088 1305 0F130000 		.4byte	0x130f
 5089 1309 09       		.uleb128 0x9
 5090 130a 01       		.uleb128 0x1
 5091 130b 50       		.byte	0x50
 5092 130c 01       		.uleb128 0x1
 5093 130d 38       		.byte	0x38
 5094 130e 00       		.byte	0
 5095 130f 08       		.uleb128 0x8
 5096 1310 3A070000 		.4byte	.LVL197
 5097 1314 4D1D0000 		.4byte	0x1d4d
 5098 1318 3C130000 		.4byte	0x133c
 5099 131c 09       		.uleb128 0x9
 5100 131d 01       		.uleb128 0x1
 5101 131e 51       		.byte	0x51
 5102 131f 02       		.uleb128 0x2
 5103 1320 74       		.byte	0x74
 5104 1321 00       		.sleb128 0
 5105 1322 09       		.uleb128 0x9
 5106 1323 01       		.uleb128 0x1
 5107 1324 52       		.byte	0x52
 5108 1325 02       		.uleb128 0x2
ARM GAS  C:\Users\Misha\AppData\Local\Temp\ccIfQyo5.s 			page 109


 5109 1326 74       		.byte	0x74
 5110 1327 00       		.sleb128 0
 5111 1328 09       		.uleb128 0x9
 5112 1329 01       		.uleb128 0x1
 5113 132a 53       		.byte	0x53
 5114 132b 01       		.uleb128 0x1
 5115 132c 35       		.byte	0x35
 5116 132d 09       		.uleb128 0x9
 5117 132e 02       		.uleb128 0x2
 5118 132f 7D       		.byte	0x7d
 5119 1330 00       		.sleb128 0
 5120 1331 02       		.uleb128 0x2
 5121 1332 75       		.byte	0x75
 5122 1333 00       		.sleb128 0
 5123 1334 09       		.uleb128 0x9
 5124 1335 02       		.uleb128 0x2
 5125 1336 7D       		.byte	0x7d
 5126 1337 04       		.sleb128 4
 5127 1338 02       		.uleb128 0x2
 5128 1339 74       		.byte	0x74
 5129 133a 00       		.sleb128 0
 5130 133b 00       		.byte	0
 5131 133c 08       		.uleb128 0x8
 5132 133d 40070000 		.4byte	.LVL198
 5133 1341 421D0000 		.4byte	0x1d42
 5134 1345 4F130000 		.4byte	0x134f
 5135 1349 09       		.uleb128 0x9
 5136 134a 01       		.uleb128 0x1
 5137 134b 50       		.byte	0x50
 5138 134c 01       		.uleb128 0x1
 5139 134d 37       		.byte	0x37
 5140 134e 00       		.byte	0
 5141 134f 08       		.uleb128 0x8
 5142 1350 48070000 		.4byte	.LVL199
 5143 1354 841D0000 		.4byte	0x1d84
 5144 1358 68130000 		.4byte	0x1368
 5145 135c 09       		.uleb128 0x9
 5146 135d 01       		.uleb128 0x1
 5147 135e 50       		.byte	0x50
 5148 135f 01       		.uleb128 0x1
 5149 1360 33       		.byte	0x33
 5150 1361 09       		.uleb128 0x9
 5151 1362 01       		.uleb128 0x1
 5152 1363 51       		.byte	0x51
 5153 1364 02       		.uleb128 0x2
 5154 1365 75       		.byte	0x75
 5155 1366 00       		.sleb128 0
 5156 1367 00       		.byte	0
 5157 1368 08       		.uleb128 0x8
 5158 1369 4E070000 		.4byte	.LVL200
 5159 136d 421D0000 		.4byte	0x1d42
 5160 1371 7B130000 		.4byte	0x137b
 5161 1375 09       		.uleb128 0x9
 5162 1376 01       		.uleb128 0x1
 5163 1377 50       		.byte	0x50
 5164 1378 01       		.uleb128 0x1
 5165 1379 38       		.byte	0x38
ARM GAS  C:\Users\Misha\AppData\Local\Temp\ccIfQyo5.s 			page 110


 5166 137a 00       		.byte	0
 5167 137b 08       		.uleb128 0x8
 5168 137c 5E070000 		.4byte	.LVL201
 5169 1380 4D1D0000 		.4byte	0x1d4d
 5170 1384 AE130000 		.4byte	0x13ae
 5171 1388 09       		.uleb128 0x9
 5172 1389 01       		.uleb128 0x1
 5173 138a 50       		.byte	0x50
 5174 138b 02       		.uleb128 0x2
 5175 138c 75       		.byte	0x75
 5176 138d 00       		.sleb128 0
 5177 138e 09       		.uleb128 0x9
 5178 138f 01       		.uleb128 0x1
 5179 1390 51       		.byte	0x51
 5180 1391 02       		.uleb128 0x2
 5181 1392 74       		.byte	0x74
 5182 1393 00       		.sleb128 0
 5183 1394 09       		.uleb128 0x9
 5184 1395 01       		.uleb128 0x1
 5185 1396 52       		.byte	0x52
 5186 1397 02       		.uleb128 0x2
 5187 1398 74       		.byte	0x74
 5188 1399 00       		.sleb128 0
 5189 139a 09       		.uleb128 0x9
 5190 139b 01       		.uleb128 0x1
 5191 139c 53       		.byte	0x53
 5192 139d 01       		.uleb128 0x1
 5193 139e 35       		.byte	0x35
 5194 139f 09       		.uleb128 0x9
 5195 13a0 02       		.uleb128 0x2
 5196 13a1 7D       		.byte	0x7d
 5197 13a2 00       		.sleb128 0
 5198 13a3 02       		.uleb128 0x2
 5199 13a4 75       		.byte	0x75
 5200 13a5 00       		.sleb128 0
 5201 13a6 09       		.uleb128 0x9
 5202 13a7 02       		.uleb128 0x2
 5203 13a8 7D       		.byte	0x7d
 5204 13a9 04       		.sleb128 4
 5205 13aa 02       		.uleb128 0x2
 5206 13ab 74       		.byte	0x74
 5207 13ac 00       		.sleb128 0
 5208 13ad 00       		.byte	0
 5209 13ae 08       		.uleb128 0x8
 5210 13af 66070000 		.4byte	.LVL202
 5211 13b3 841D0000 		.4byte	0x1d84
 5212 13b7 C7130000 		.4byte	0x13c7
 5213 13bb 09       		.uleb128 0x9
 5214 13bc 01       		.uleb128 0x1
 5215 13bd 50       		.byte	0x50
 5216 13be 01       		.uleb128 0x1
 5217 13bf 30       		.byte	0x30
 5218 13c0 09       		.uleb128 0x9
 5219 13c1 01       		.uleb128 0x1
 5220 13c2 51       		.byte	0x51
 5221 13c3 02       		.uleb128 0x2
 5222 13c4 08       		.byte	0x8
ARM GAS  C:\Users\Misha\AppData\Local\Temp\ccIfQyo5.s 			page 111


 5223 13c5 46       		.byte	0x46
 5224 13c6 00       		.byte	0
 5225 13c7 08       		.uleb128 0x8
 5226 13c8 6C070000 		.4byte	.LVL203
 5227 13cc 421D0000 		.4byte	0x1d42
 5228 13d0 DA130000 		.4byte	0x13da
 5229 13d4 09       		.uleb128 0x9
 5230 13d5 01       		.uleb128 0x1
 5231 13d6 50       		.byte	0x50
 5232 13d7 01       		.uleb128 0x1
 5233 13d8 37       		.byte	0x37
 5234 13d9 00       		.byte	0
 5235 13da 08       		.uleb128 0x8
 5236 13db 82070000 		.4byte	.LVL204
 5237 13df BB1D0000 		.4byte	0x1dbb
 5238 13e3 00140000 		.4byte	0x1400
 5239 13e7 09       		.uleb128 0x9
 5240 13e8 01       		.uleb128 0x1
 5241 13e9 51       		.byte	0x51
 5242 13ea 02       		.uleb128 0x2
 5243 13eb 74       		.byte	0x74
 5244 13ec 00       		.sleb128 0
 5245 13ed 09       		.uleb128 0x9
 5246 13ee 01       		.uleb128 0x1
 5247 13ef 52       		.byte	0x52
 5248 13f0 01       		.uleb128 0x1
 5249 13f1 35       		.byte	0x35
 5250 13f2 09       		.uleb128 0x9
 5251 13f3 01       		.uleb128 0x1
 5252 13f4 53       		.byte	0x53
 5253 13f5 02       		.uleb128 0x2
 5254 13f6 08       		.byte	0x8
 5255 13f7 46       		.byte	0x46
 5256 13f8 09       		.uleb128 0x9
 5257 13f9 02       		.uleb128 0x2
 5258 13fa 7D       		.byte	0x7d
 5259 13fb 00       		.sleb128 0
 5260 13fc 02       		.uleb128 0x2
 5261 13fd 74       		.byte	0x74
 5262 13fe 00       		.sleb128 0
 5263 13ff 00       		.byte	0
 5264 1400 08       		.uleb128 0x8
 5265 1401 88070000 		.4byte	.LVL205
 5266 1405 421D0000 		.4byte	0x1d42
 5267 1409 13140000 		.4byte	0x1413
 5268 140d 09       		.uleb128 0x9
 5269 140e 01       		.uleb128 0x1
 5270 140f 50       		.byte	0x50
 5271 1410 01       		.uleb128 0x1
 5272 1411 37       		.byte	0x37
 5273 1412 00       		.byte	0
 5274 1413 08       		.uleb128 0x8
 5275 1414 90070000 		.4byte	.LVL206
 5276 1418 841D0000 		.4byte	0x1d84
 5277 141c 2C140000 		.4byte	0x142c
 5278 1420 09       		.uleb128 0x9
 5279 1421 01       		.uleb128 0x1
ARM GAS  C:\Users\Misha\AppData\Local\Temp\ccIfQyo5.s 			page 112


 5280 1422 50       		.byte	0x50
 5281 1423 01       		.uleb128 0x1
 5282 1424 33       		.byte	0x33
 5283 1425 09       		.uleb128 0x9
 5284 1426 01       		.uleb128 0x1
 5285 1427 51       		.byte	0x51
 5286 1428 02       		.uleb128 0x2
 5287 1429 08       		.byte	0x8
 5288 142a 46       		.byte	0x46
 5289 142b 00       		.byte	0
 5290 142c 08       		.uleb128 0x8
 5291 142d FC070000 		.4byte	.LVL207
 5292 1431 4D1D0000 		.4byte	0x1d4d
 5293 1435 58140000 		.4byte	0x1458
 5294 1439 09       		.uleb128 0x9
 5295 143a 01       		.uleb128 0x1
 5296 143b 51       		.byte	0x51
 5297 143c 01       		.uleb128 0x1
 5298 143d 30       		.byte	0x30
 5299 143e 09       		.uleb128 0x9
 5300 143f 01       		.uleb128 0x1
 5301 1440 52       		.byte	0x52
 5302 1441 02       		.uleb128 0x2
 5303 1442 09       		.byte	0x9
 5304 1443 FF       		.byte	0xff
 5305 1444 09       		.uleb128 0x9
 5306 1445 01       		.uleb128 0x1
 5307 1446 53       		.byte	0x53
 5308 1447 01       		.uleb128 0x1
 5309 1448 35       		.byte	0x35
 5310 1449 09       		.uleb128 0x9
 5311 144a 02       		.uleb128 0x2
 5312 144b 7D       		.byte	0x7d
 5313 144c 00       		.sleb128 0
 5314 144d 02       		.uleb128 0x2
 5315 144e 75       		.byte	0x75
 5316 144f 00       		.sleb128 0
 5317 1450 09       		.uleb128 0x9
 5318 1451 02       		.uleb128 0x2
 5319 1452 7D       		.byte	0x7d
 5320 1453 04       		.sleb128 4
 5321 1454 02       		.uleb128 0x2
 5322 1455 74       		.byte	0x74
 5323 1456 00       		.sleb128 0
 5324 1457 00       		.byte	0
 5325 1458 08       		.uleb128 0x8
 5326 1459 02080000 		.4byte	.LVL208
 5327 145d 421D0000 		.4byte	0x1d42
 5328 1461 6B140000 		.4byte	0x146b
 5329 1465 09       		.uleb128 0x9
 5330 1466 01       		.uleb128 0x1
 5331 1467 50       		.byte	0x50
 5332 1468 01       		.uleb128 0x1
 5333 1469 37       		.byte	0x37
 5334 146a 00       		.byte	0
 5335 146b 08       		.uleb128 0x8
 5336 146c 0A080000 		.4byte	.LVL209
ARM GAS  C:\Users\Misha\AppData\Local\Temp\ccIfQyo5.s 			page 113


 5337 1470 841D0000 		.4byte	0x1d84
 5338 1474 84140000 		.4byte	0x1484
 5339 1478 09       		.uleb128 0x9
 5340 1479 01       		.uleb128 0x1
 5341 147a 50       		.byte	0x50
 5342 147b 01       		.uleb128 0x1
 5343 147c 30       		.byte	0x30
 5344 147d 09       		.uleb128 0x9
 5345 147e 01       		.uleb128 0x1
 5346 147f 51       		.byte	0x51
 5347 1480 02       		.uleb128 0x2
 5348 1481 75       		.byte	0x75
 5349 1482 00       		.sleb128 0
 5350 1483 00       		.byte	0
 5351 1484 08       		.uleb128 0x8
 5352 1485 24080000 		.4byte	.LVL210
 5353 1489 4D1D0000 		.4byte	0x1d4d
 5354 148d B1140000 		.4byte	0x14b1
 5355 1491 09       		.uleb128 0x9
 5356 1492 01       		.uleb128 0x1
 5357 1493 51       		.byte	0x51
 5358 1494 02       		.uleb128 0x2
 5359 1495 74       		.byte	0x74
 5360 1496 00       		.sleb128 0
 5361 1497 09       		.uleb128 0x9
 5362 1498 01       		.uleb128 0x1
 5363 1499 52       		.byte	0x52
 5364 149a 02       		.uleb128 0x2
 5365 149b 74       		.byte	0x74
 5366 149c 00       		.sleb128 0
 5367 149d 09       		.uleb128 0x9
 5368 149e 01       		.uleb128 0x1
 5369 149f 53       		.byte	0x53
 5370 14a0 01       		.uleb128 0x1
 5371 14a1 35       		.byte	0x35
 5372 14a2 09       		.uleb128 0x9
 5373 14a3 02       		.uleb128 0x2
 5374 14a4 7D       		.byte	0x7d
 5375 14a5 00       		.sleb128 0
 5376 14a6 02       		.uleb128 0x2
 5377 14a7 75       		.byte	0x75
 5378 14a8 00       		.sleb128 0
 5379 14a9 09       		.uleb128 0x9
 5380 14aa 02       		.uleb128 0x2
 5381 14ab 7D       		.byte	0x7d
 5382 14ac 04       		.sleb128 4
 5383 14ad 02       		.uleb128 0x2
 5384 14ae 74       		.byte	0x74
 5385 14af 00       		.sleb128 0
 5386 14b0 00       		.byte	0
 5387 14b1 08       		.uleb128 0x8
 5388 14b2 2A080000 		.4byte	.LVL211
 5389 14b6 421D0000 		.4byte	0x1d42
 5390 14ba C4140000 		.4byte	0x14c4
 5391 14be 09       		.uleb128 0x9
 5392 14bf 01       		.uleb128 0x1
 5393 14c0 50       		.byte	0x50
ARM GAS  C:\Users\Misha\AppData\Local\Temp\ccIfQyo5.s 			page 114


 5394 14c1 01       		.uleb128 0x1
 5395 14c2 37       		.byte	0x37
 5396 14c3 00       		.byte	0
 5397 14c4 08       		.uleb128 0x8
 5398 14c5 32080000 		.4byte	.LVL212
 5399 14c9 841D0000 		.4byte	0x1d84
 5400 14cd DD140000 		.4byte	0x14dd
 5401 14d1 09       		.uleb128 0x9
 5402 14d2 01       		.uleb128 0x1
 5403 14d3 50       		.byte	0x50
 5404 14d4 01       		.uleb128 0x1
 5405 14d5 33       		.byte	0x33
 5406 14d6 09       		.uleb128 0x9
 5407 14d7 01       		.uleb128 0x1
 5408 14d8 51       		.byte	0x51
 5409 14d9 02       		.uleb128 0x2
 5410 14da 75       		.byte	0x75
 5411 14db 00       		.sleb128 0
 5412 14dc 00       		.byte	0
 5413 14dd 08       		.uleb128 0x8
 5414 14de 38080000 		.4byte	.LVL213
 5415 14e2 421D0000 		.4byte	0x1d42
 5416 14e6 F0140000 		.4byte	0x14f0
 5417 14ea 09       		.uleb128 0x9
 5418 14eb 01       		.uleb128 0x1
 5419 14ec 50       		.byte	0x50
 5420 14ed 01       		.uleb128 0x1
 5421 14ee 38       		.byte	0x38
 5422 14ef 00       		.byte	0
 5423 14f0 08       		.uleb128 0x8
 5424 14f1 48080000 		.4byte	.LVL214
 5425 14f5 4D1D0000 		.4byte	0x1d4d
 5426 14f9 23150000 		.4byte	0x1523
 5427 14fd 09       		.uleb128 0x9
 5428 14fe 01       		.uleb128 0x1
 5429 14ff 50       		.byte	0x50
 5430 1500 02       		.uleb128 0x2
 5431 1501 75       		.byte	0x75
 5432 1502 00       		.sleb128 0
 5433 1503 09       		.uleb128 0x9
 5434 1504 01       		.uleb128 0x1
 5435 1505 51       		.byte	0x51
 5436 1506 02       		.uleb128 0x2
 5437 1507 74       		.byte	0x74
 5438 1508 00       		.sleb128 0
 5439 1509 09       		.uleb128 0x9
 5440 150a 01       		.uleb128 0x1
 5441 150b 52       		.byte	0x52
 5442 150c 02       		.uleb128 0x2
 5443 150d 74       		.byte	0x74
 5444 150e 00       		.sleb128 0
 5445 150f 09       		.uleb128 0x9
 5446 1510 01       		.uleb128 0x1
 5447 1511 53       		.byte	0x53
 5448 1512 01       		.uleb128 0x1
 5449 1513 35       		.byte	0x35
 5450 1514 09       		.uleb128 0x9
ARM GAS  C:\Users\Misha\AppData\Local\Temp\ccIfQyo5.s 			page 115


 5451 1515 02       		.uleb128 0x2
 5452 1516 7D       		.byte	0x7d
 5453 1517 00       		.sleb128 0
 5454 1518 02       		.uleb128 0x2
 5455 1519 75       		.byte	0x75
 5456 151a 00       		.sleb128 0
 5457 151b 09       		.uleb128 0x9
 5458 151c 02       		.uleb128 0x2
 5459 151d 7D       		.byte	0x7d
 5460 151e 04       		.sleb128 4
 5461 151f 02       		.uleb128 0x2
 5462 1520 74       		.byte	0x74
 5463 1521 00       		.sleb128 0
 5464 1522 00       		.byte	0
 5465 1523 08       		.uleb128 0x8
 5466 1524 50080000 		.4byte	.LVL215
 5467 1528 841D0000 		.4byte	0x1d84
 5468 152c 3C150000 		.4byte	0x153c
 5469 1530 09       		.uleb128 0x9
 5470 1531 01       		.uleb128 0x1
 5471 1532 50       		.byte	0x50
 5472 1533 01       		.uleb128 0x1
 5473 1534 30       		.byte	0x30
 5474 1535 09       		.uleb128 0x9
 5475 1536 01       		.uleb128 0x1
 5476 1537 51       		.byte	0x51
 5477 1538 02       		.uleb128 0x2
 5478 1539 08       		.byte	0x8
 5479 153a 46       		.byte	0x46
 5480 153b 00       		.byte	0
 5481 153c 08       		.uleb128 0x8
 5482 153d 64080000 		.4byte	.LVL216
 5483 1541 BB1D0000 		.4byte	0x1dbb
 5484 1545 62150000 		.4byte	0x1562
 5485 1549 09       		.uleb128 0x9
 5486 154a 01       		.uleb128 0x1
 5487 154b 51       		.byte	0x51
 5488 154c 02       		.uleb128 0x2
 5489 154d 74       		.byte	0x74
 5490 154e 00       		.sleb128 0
 5491 154f 09       		.uleb128 0x9
 5492 1550 01       		.uleb128 0x1
 5493 1551 52       		.byte	0x52
 5494 1552 01       		.uleb128 0x1
 5495 1553 35       		.byte	0x35
 5496 1554 09       		.uleb128 0x9
 5497 1555 01       		.uleb128 0x1
 5498 1556 53       		.byte	0x53
 5499 1557 02       		.uleb128 0x2
 5500 1558 08       		.byte	0x8
 5501 1559 46       		.byte	0x46
 5502 155a 09       		.uleb128 0x9
 5503 155b 02       		.uleb128 0x2
 5504 155c 7D       		.byte	0x7d
 5505 155d 00       		.sleb128 0
 5506 155e 02       		.uleb128 0x2
 5507 155f 74       		.byte	0x74
ARM GAS  C:\Users\Misha\AppData\Local\Temp\ccIfQyo5.s 			page 116


 5508 1560 00       		.sleb128 0
 5509 1561 00       		.byte	0
 5510 1562 08       		.uleb128 0x8
 5511 1563 6A080000 		.4byte	.LVL217
 5512 1567 421D0000 		.4byte	0x1d42
 5513 156b 75150000 		.4byte	0x1575
 5514 156f 09       		.uleb128 0x9
 5515 1570 01       		.uleb128 0x1
 5516 1571 50       		.byte	0x50
 5517 1572 01       		.uleb128 0x1
 5518 1573 37       		.byte	0x37
 5519 1574 00       		.byte	0
 5520 1575 08       		.uleb128 0x8
 5521 1576 72080000 		.4byte	.LVL218
 5522 157a 841D0000 		.4byte	0x1d84
 5523 157e 8E150000 		.4byte	0x158e
 5524 1582 09       		.uleb128 0x9
 5525 1583 01       		.uleb128 0x1
 5526 1584 50       		.byte	0x50
 5527 1585 01       		.uleb128 0x1
 5528 1586 33       		.byte	0x33
 5529 1587 09       		.uleb128 0x9
 5530 1588 01       		.uleb128 0x1
 5531 1589 51       		.byte	0x51
 5532 158a 02       		.uleb128 0x2
 5533 158b 08       		.byte	0x8
 5534 158c 46       		.byte	0x46
 5535 158d 00       		.byte	0
 5536 158e 08       		.uleb128 0x8
 5537 158f D2080000 		.4byte	.LVL226
 5538 1593 421D0000 		.4byte	0x1d42
 5539 1597 A1150000 		.4byte	0x15a1
 5540 159b 09       		.uleb128 0x9
 5541 159c 01       		.uleb128 0x1
 5542 159d 50       		.byte	0x50
 5543 159e 01       		.uleb128 0x1
 5544 159f 38       		.byte	0x38
 5545 15a0 00       		.byte	0
 5546 15a1 08       		.uleb128 0x8
 5547 15a2 E6080000 		.4byte	.LVL227
 5548 15a6 4D1D0000 		.4byte	0x1d4d
 5549 15aa D3150000 		.4byte	0x15d3
 5550 15ae 09       		.uleb128 0x9
 5551 15af 01       		.uleb128 0x1
 5552 15b0 50       		.byte	0x50
 5553 15b1 02       		.uleb128 0x2
 5554 15b2 08       		.byte	0x8
 5555 15b3 32       		.byte	0x32
 5556 15b4 09       		.uleb128 0x9
 5557 15b5 01       		.uleb128 0x1
 5558 15b6 51       		.byte	0x51
 5559 15b7 01       		.uleb128 0x1
 5560 15b8 30       		.byte	0x30
 5561 15b9 09       		.uleb128 0x9
 5562 15ba 01       		.uleb128 0x1
 5563 15bb 52       		.byte	0x52
 5564 15bc 02       		.uleb128 0x2
ARM GAS  C:\Users\Misha\AppData\Local\Temp\ccIfQyo5.s 			page 117


 5565 15bd 74       		.byte	0x74
 5566 15be 00       		.sleb128 0
 5567 15bf 09       		.uleb128 0x9
 5568 15c0 01       		.uleb128 0x1
 5569 15c1 53       		.byte	0x53
 5570 15c2 01       		.uleb128 0x1
 5571 15c3 34       		.byte	0x34
 5572 15c4 09       		.uleb128 0x9
 5573 15c5 02       		.uleb128 0x2
 5574 15c6 7D       		.byte	0x7d
 5575 15c7 00       		.sleb128 0
 5576 15c8 02       		.uleb128 0x2
 5577 15c9 75       		.byte	0x75
 5578 15ca 00       		.sleb128 0
 5579 15cb 09       		.uleb128 0x9
 5580 15cc 02       		.uleb128 0x2
 5581 15cd 7D       		.byte	0x7d
 5582 15ce 04       		.sleb128 4
 5583 15cf 02       		.uleb128 0x2
 5584 15d0 74       		.byte	0x74
 5585 15d1 00       		.sleb128 0
 5586 15d2 00       		.byte	0
 5587 15d3 08       		.uleb128 0x8
 5588 15d4 EE080000 		.4byte	.LVL228
 5589 15d8 841D0000 		.4byte	0x1d84
 5590 15dc EC150000 		.4byte	0x15ec
 5591 15e0 09       		.uleb128 0x9
 5592 15e1 01       		.uleb128 0x1
 5593 15e2 50       		.byte	0x50
 5594 15e3 01       		.uleb128 0x1
 5595 15e4 30       		.byte	0x30
 5596 15e5 09       		.uleb128 0x9
 5597 15e6 01       		.uleb128 0x1
 5598 15e7 51       		.byte	0x51
 5599 15e8 02       		.uleb128 0x2
 5600 15e9 75       		.byte	0x75
 5601 15ea 00       		.sleb128 0
 5602 15eb 00       		.byte	0
 5603 15ec 08       		.uleb128 0x8
 5604 15ed F4080000 		.4byte	.LVL229
 5605 15f1 421D0000 		.4byte	0x1d42
 5606 15f5 FF150000 		.4byte	0x15ff
 5607 15f9 09       		.uleb128 0x9
 5608 15fa 01       		.uleb128 0x1
 5609 15fb 50       		.byte	0x50
 5610 15fc 01       		.uleb128 0x1
 5611 15fd 37       		.byte	0x37
 5612 15fe 00       		.byte	0
 5613 15ff 08       		.uleb128 0x8
 5614 1600 04090000 		.4byte	.LVL230
 5615 1604 4D1D0000 		.4byte	0x1d4d
 5616 1608 31160000 		.4byte	0x1631
 5617 160c 09       		.uleb128 0x9
 5618 160d 01       		.uleb128 0x1
 5619 160e 50       		.byte	0x50
 5620 160f 02       		.uleb128 0x2
 5621 1610 08       		.byte	0x8
ARM GAS  C:\Users\Misha\AppData\Local\Temp\ccIfQyo5.s 			page 118


 5622 1611 64       		.byte	0x64
 5623 1612 09       		.uleb128 0x9
 5624 1613 01       		.uleb128 0x1
 5625 1614 51       		.byte	0x51
 5626 1615 01       		.uleb128 0x1
 5627 1616 30       		.byte	0x30
 5628 1617 09       		.uleb128 0x9
 5629 1618 01       		.uleb128 0x1
 5630 1619 52       		.byte	0x52
 5631 161a 02       		.uleb128 0x2
 5632 161b 74       		.byte	0x74
 5633 161c 00       		.sleb128 0
 5634 161d 09       		.uleb128 0x9
 5635 161e 01       		.uleb128 0x1
 5636 161f 53       		.byte	0x53
 5637 1620 01       		.uleb128 0x1
 5638 1621 34       		.byte	0x34
 5639 1622 09       		.uleb128 0x9
 5640 1623 02       		.uleb128 0x2
 5641 1624 7D       		.byte	0x7d
 5642 1625 00       		.sleb128 0
 5643 1626 02       		.uleb128 0x2
 5644 1627 75       		.byte	0x75
 5645 1628 00       		.sleb128 0
 5646 1629 09       		.uleb128 0x9
 5647 162a 02       		.uleb128 0x2
 5648 162b 7D       		.byte	0x7d
 5649 162c 04       		.sleb128 4
 5650 162d 02       		.uleb128 0x2
 5651 162e 74       		.byte	0x74
 5652 162f 00       		.sleb128 0
 5653 1630 00       		.byte	0
 5654 1631 08       		.uleb128 0x8
 5655 1632 0A090000 		.4byte	.LVL231
 5656 1636 421D0000 		.4byte	0x1d42
 5657 163a 44160000 		.4byte	0x1644
 5658 163e 09       		.uleb128 0x9
 5659 163f 01       		.uleb128 0x1
 5660 1640 50       		.byte	0x50
 5661 1641 01       		.uleb128 0x1
 5662 1642 38       		.byte	0x38
 5663 1643 00       		.byte	0
 5664 1644 08       		.uleb128 0x8
 5665 1645 12090000 		.4byte	.LVL232
 5666 1649 841D0000 		.4byte	0x1d84
 5667 164d 5E160000 		.4byte	0x165e
 5668 1651 09       		.uleb128 0x9
 5669 1652 01       		.uleb128 0x1
 5670 1653 50       		.byte	0x50
 5671 1654 02       		.uleb128 0x2
 5672 1655 74       		.byte	0x74
 5673 1656 00       		.sleb128 0
 5674 1657 09       		.uleb128 0x9
 5675 1658 01       		.uleb128 0x1
 5676 1659 51       		.byte	0x51
 5677 165a 02       		.uleb128 0x2
 5678 165b 75       		.byte	0x75
ARM GAS  C:\Users\Misha\AppData\Local\Temp\ccIfQyo5.s 			page 119


 5679 165c 00       		.sleb128 0
 5680 165d 00       		.byte	0
 5681 165e 08       		.uleb128 0x8
 5682 165f 18090000 		.4byte	.LVL233
 5683 1663 421D0000 		.4byte	0x1d42
 5684 1667 71160000 		.4byte	0x1671
 5685 166b 09       		.uleb128 0x9
 5686 166c 01       		.uleb128 0x1
 5687 166d 50       		.byte	0x50
 5688 166e 01       		.uleb128 0x1
 5689 166f 37       		.byte	0x37
 5690 1670 00       		.byte	0
 5691 1671 08       		.uleb128 0x8
 5692 1672 28090000 		.4byte	.LVL234
 5693 1676 4D1D0000 		.4byte	0x1d4d
 5694 167a A4160000 		.4byte	0x16a4
 5695 167e 09       		.uleb128 0x9
 5696 167f 01       		.uleb128 0x1
 5697 1680 50       		.byte	0x50
 5698 1681 02       		.uleb128 0x2
 5699 1682 75       		.byte	0x75
 5700 1683 00       		.sleb128 0
 5701 1684 09       		.uleb128 0x9
 5702 1685 01       		.uleb128 0x1
 5703 1686 51       		.byte	0x51
 5704 1687 02       		.uleb128 0x2
 5705 1688 74       		.byte	0x74
 5706 1689 00       		.sleb128 0
 5707 168a 09       		.uleb128 0x9
 5708 168b 01       		.uleb128 0x1
 5709 168c 52       		.byte	0x52
 5710 168d 02       		.uleb128 0x2
 5711 168e 74       		.byte	0x74
 5712 168f 00       		.sleb128 0
 5713 1690 09       		.uleb128 0x9
 5714 1691 01       		.uleb128 0x1
 5715 1692 53       		.byte	0x53
 5716 1693 01       		.uleb128 0x1
 5717 1694 35       		.byte	0x35
 5718 1695 09       		.uleb128 0x9
 5719 1696 02       		.uleb128 0x2
 5720 1697 7D       		.byte	0x7d
 5721 1698 00       		.sleb128 0
 5722 1699 02       		.uleb128 0x2
 5723 169a 75       		.byte	0x75
 5724 169b 00       		.sleb128 0
 5725 169c 09       		.uleb128 0x9
 5726 169d 02       		.uleb128 0x2
 5727 169e 7D       		.byte	0x7d
 5728 169f 04       		.sleb128 4
 5729 16a0 02       		.uleb128 0x2
 5730 16a1 74       		.byte	0x74
 5731 16a2 00       		.sleb128 0
 5732 16a3 00       		.byte	0
 5733 16a4 08       		.uleb128 0x8
 5734 16a5 2E090000 		.4byte	.LVL235
 5735 16a9 421D0000 		.4byte	0x1d42
ARM GAS  C:\Users\Misha\AppData\Local\Temp\ccIfQyo5.s 			page 120


 5736 16ad B7160000 		.4byte	0x16b7
 5737 16b1 09       		.uleb128 0x9
 5738 16b2 01       		.uleb128 0x1
 5739 16b3 50       		.byte	0x50
 5740 16b4 01       		.uleb128 0x1
 5741 16b5 37       		.byte	0x37
 5742 16b6 00       		.byte	0
 5743 16b7 08       		.uleb128 0x8
 5744 16b8 54090000 		.4byte	.LVL236
 5745 16bc 4D1D0000 		.4byte	0x1d4d
 5746 16c0 E8160000 		.4byte	0x16e8
 5747 16c4 09       		.uleb128 0x9
 5748 16c5 01       		.uleb128 0x1
 5749 16c6 50       		.byte	0x50
 5750 16c7 01       		.uleb128 0x1
 5751 16c8 3A       		.byte	0x3a
 5752 16c9 09       		.uleb128 0x9
 5753 16ca 01       		.uleb128 0x1
 5754 16cb 51       		.byte	0x51
 5755 16cc 01       		.uleb128 0x1
 5756 16cd 30       		.byte	0x30
 5757 16ce 09       		.uleb128 0x9
 5758 16cf 01       		.uleb128 0x1
 5759 16d0 52       		.byte	0x52
 5760 16d1 02       		.uleb128 0x2
 5761 16d2 74       		.byte	0x74
 5762 16d3 00       		.sleb128 0
 5763 16d4 09       		.uleb128 0x9
 5764 16d5 01       		.uleb128 0x1
 5765 16d6 53       		.byte	0x53
 5766 16d7 01       		.uleb128 0x1
 5767 16d8 34       		.byte	0x34
 5768 16d9 09       		.uleb128 0x9
 5769 16da 02       		.uleb128 0x2
 5770 16db 7D       		.byte	0x7d
 5771 16dc 00       		.sleb128 0
 5772 16dd 02       		.uleb128 0x2
 5773 16de 75       		.byte	0x75
 5774 16df 00       		.sleb128 0
 5775 16e0 09       		.uleb128 0x9
 5776 16e1 02       		.uleb128 0x2
 5777 16e2 7D       		.byte	0x7d
 5778 16e3 04       		.sleb128 4
 5779 16e4 02       		.uleb128 0x2
 5780 16e5 74       		.byte	0x74
 5781 16e6 00       		.sleb128 0
 5782 16e7 00       		.byte	0
 5783 16e8 08       		.uleb128 0x8
 5784 16e9 5C090000 		.4byte	.LVL237
 5785 16ed 841D0000 		.4byte	0x1d84
 5786 16f1 01170000 		.4byte	0x1701
 5787 16f5 09       		.uleb128 0x9
 5788 16f6 01       		.uleb128 0x1
 5789 16f7 50       		.byte	0x50
 5790 16f8 01       		.uleb128 0x1
 5791 16f9 30       		.byte	0x30
 5792 16fa 09       		.uleb128 0x9
ARM GAS  C:\Users\Misha\AppData\Local\Temp\ccIfQyo5.s 			page 121


 5793 16fb 01       		.uleb128 0x1
 5794 16fc 51       		.byte	0x51
 5795 16fd 02       		.uleb128 0x2
 5796 16fe 75       		.byte	0x75
 5797 16ff 00       		.sleb128 0
 5798 1700 00       		.byte	0
 5799 1701 08       		.uleb128 0x8
 5800 1702 62090000 		.4byte	.LVL238
 5801 1706 421D0000 		.4byte	0x1d42
 5802 170a 14170000 		.4byte	0x1714
 5803 170e 09       		.uleb128 0x9
 5804 170f 01       		.uleb128 0x1
 5805 1710 50       		.byte	0x50
 5806 1711 01       		.uleb128 0x1
 5807 1712 37       		.byte	0x37
 5808 1713 00       		.byte	0
 5809 1714 08       		.uleb128 0x8
 5810 1715 72090000 		.4byte	.LVL239
 5811 1719 4D1D0000 		.4byte	0x1d4d
 5812 171d 46170000 		.4byte	0x1746
 5813 1721 09       		.uleb128 0x9
 5814 1722 01       		.uleb128 0x1
 5815 1723 50       		.byte	0x50
 5816 1724 02       		.uleb128 0x2
 5817 1725 08       		.byte	0x8
 5818 1726 64       		.byte	0x64
 5819 1727 09       		.uleb128 0x9
 5820 1728 01       		.uleb128 0x1
 5821 1729 51       		.byte	0x51
 5822 172a 01       		.uleb128 0x1
 5823 172b 30       		.byte	0x30
 5824 172c 09       		.uleb128 0x9
 5825 172d 01       		.uleb128 0x1
 5826 172e 52       		.byte	0x52
 5827 172f 02       		.uleb128 0x2
 5828 1730 74       		.byte	0x74
 5829 1731 00       		.sleb128 0
 5830 1732 09       		.uleb128 0x9
 5831 1733 01       		.uleb128 0x1
 5832 1734 53       		.byte	0x53
 5833 1735 01       		.uleb128 0x1
 5834 1736 34       		.byte	0x34
 5835 1737 09       		.uleb128 0x9
 5836 1738 02       		.uleb128 0x2
 5837 1739 7D       		.byte	0x7d
 5838 173a 00       		.sleb128 0
 5839 173b 02       		.uleb128 0x2
 5840 173c 75       		.byte	0x75
 5841 173d 00       		.sleb128 0
 5842 173e 09       		.uleb128 0x9
 5843 173f 02       		.uleb128 0x2
 5844 1740 7D       		.byte	0x7d
 5845 1741 04       		.sleb128 4
 5846 1742 02       		.uleb128 0x2
 5847 1743 74       		.byte	0x74
 5848 1744 00       		.sleb128 0
 5849 1745 00       		.byte	0
ARM GAS  C:\Users\Misha\AppData\Local\Temp\ccIfQyo5.s 			page 122


 5850 1746 08       		.uleb128 0x8
 5851 1747 7A090000 		.4byte	.LVL240
 5852 174b 841D0000 		.4byte	0x1d84
 5853 174f 60170000 		.4byte	0x1760
 5854 1753 09       		.uleb128 0x9
 5855 1754 01       		.uleb128 0x1
 5856 1755 50       		.byte	0x50
 5857 1756 02       		.uleb128 0x2
 5858 1757 74       		.byte	0x74
 5859 1758 00       		.sleb128 0
 5860 1759 09       		.uleb128 0x9
 5861 175a 01       		.uleb128 0x1
 5862 175b 51       		.byte	0x51
 5863 175c 02       		.uleb128 0x2
 5864 175d 75       		.byte	0x75
 5865 175e 00       		.sleb128 0
 5866 175f 00       		.byte	0
 5867 1760 08       		.uleb128 0x8
 5868 1761 80090000 		.4byte	.LVL241
 5869 1765 421D0000 		.4byte	0x1d42
 5870 1769 73170000 		.4byte	0x1773
 5871 176d 09       		.uleb128 0x9
 5872 176e 01       		.uleb128 0x1
 5873 176f 50       		.byte	0x50
 5874 1770 01       		.uleb128 0x1
 5875 1771 37       		.byte	0x37
 5876 1772 00       		.byte	0
 5877 1773 08       		.uleb128 0x8
 5878 1774 90090000 		.4byte	.LVL242
 5879 1778 4D1D0000 		.4byte	0x1d4d
 5880 177c A6170000 		.4byte	0x17a6
 5881 1780 09       		.uleb128 0x9
 5882 1781 01       		.uleb128 0x1
 5883 1782 50       		.byte	0x50
 5884 1783 02       		.uleb128 0x2
 5885 1784 75       		.byte	0x75
 5886 1785 00       		.sleb128 0
 5887 1786 09       		.uleb128 0x9
 5888 1787 01       		.uleb128 0x1
 5889 1788 51       		.byte	0x51
 5890 1789 02       		.uleb128 0x2
 5891 178a 74       		.byte	0x74
 5892 178b 00       		.sleb128 0
 5893 178c 09       		.uleb128 0x9
 5894 178d 01       		.uleb128 0x1
 5895 178e 52       		.byte	0x52
 5896 178f 02       		.uleb128 0x2
 5897 1790 74       		.byte	0x74
 5898 1791 00       		.sleb128 0
 5899 1792 09       		.uleb128 0x9
 5900 1793 01       		.uleb128 0x1
 5901 1794 53       		.byte	0x53
 5902 1795 01       		.uleb128 0x1
 5903 1796 35       		.byte	0x35
 5904 1797 09       		.uleb128 0x9
 5905 1798 02       		.uleb128 0x2
 5906 1799 7D       		.byte	0x7d
ARM GAS  C:\Users\Misha\AppData\Local\Temp\ccIfQyo5.s 			page 123


 5907 179a 00       		.sleb128 0
 5908 179b 02       		.uleb128 0x2
 5909 179c 75       		.byte	0x75
 5910 179d 00       		.sleb128 0
 5911 179e 09       		.uleb128 0x9
 5912 179f 02       		.uleb128 0x2
 5913 17a0 7D       		.byte	0x7d
 5914 17a1 04       		.sleb128 4
 5915 17a2 02       		.uleb128 0x2
 5916 17a3 74       		.byte	0x74
 5917 17a4 00       		.sleb128 0
 5918 17a5 00       		.byte	0
 5919 17a6 08       		.uleb128 0x8
 5920 17a7 96090000 		.4byte	.LVL243
 5921 17ab 421D0000 		.4byte	0x1d42
 5922 17af B9170000 		.4byte	0x17b9
 5923 17b3 09       		.uleb128 0x9
 5924 17b4 01       		.uleb128 0x1
 5925 17b5 50       		.byte	0x50
 5926 17b6 01       		.uleb128 0x1
 5927 17b7 37       		.byte	0x37
 5928 17b8 00       		.byte	0
 5929 17b9 08       		.uleb128 0x8
 5930 17ba BE090000 		.4byte	.LVL244
 5931 17be 4D1D0000 		.4byte	0x1d4d
 5932 17c2 E5170000 		.4byte	0x17e5
 5933 17c6 09       		.uleb128 0x9
 5934 17c7 01       		.uleb128 0x1
 5935 17c8 51       		.byte	0x51
 5936 17c9 01       		.uleb128 0x1
 5937 17ca 30       		.byte	0x30
 5938 17cb 09       		.uleb128 0x9
 5939 17cc 01       		.uleb128 0x1
 5940 17cd 52       		.byte	0x52
 5941 17ce 02       		.uleb128 0x2
 5942 17cf 74       		.byte	0x74
 5943 17d0 00       		.sleb128 0
 5944 17d1 09       		.uleb128 0x9
 5945 17d2 01       		.uleb128 0x1
 5946 17d3 53       		.byte	0x53
 5947 17d4 01       		.uleb128 0x1
 5948 17d5 34       		.byte	0x34
 5949 17d6 09       		.uleb128 0x9
 5950 17d7 02       		.uleb128 0x2
 5951 17d8 7D       		.byte	0x7d
 5952 17d9 00       		.sleb128 0
 5953 17da 02       		.uleb128 0x2
 5954 17db 75       		.byte	0x75
 5955 17dc 00       		.sleb128 0
 5956 17dd 09       		.uleb128 0x9
 5957 17de 02       		.uleb128 0x2
 5958 17df 7D       		.byte	0x7d
 5959 17e0 04       		.sleb128 4
 5960 17e1 02       		.uleb128 0x2
 5961 17e2 74       		.byte	0x74
 5962 17e3 00       		.sleb128 0
 5963 17e4 00       		.byte	0
ARM GAS  C:\Users\Misha\AppData\Local\Temp\ccIfQyo5.s 			page 124


 5964 17e5 08       		.uleb128 0x8
 5965 17e6 C6090000 		.4byte	.LVL245
 5966 17ea 841D0000 		.4byte	0x1d84
 5967 17ee FE170000 		.4byte	0x17fe
 5968 17f2 09       		.uleb128 0x9
 5969 17f3 01       		.uleb128 0x1
 5970 17f4 50       		.byte	0x50
 5971 17f5 01       		.uleb128 0x1
 5972 17f6 30       		.byte	0x30
 5973 17f7 09       		.uleb128 0x9
 5974 17f8 01       		.uleb128 0x1
 5975 17f9 51       		.byte	0x51
 5976 17fa 02       		.uleb128 0x2
 5977 17fb 75       		.byte	0x75
 5978 17fc 00       		.sleb128 0
 5979 17fd 00       		.byte	0
 5980 17fe 08       		.uleb128 0x8
 5981 17ff CC090000 		.4byte	.LVL246
 5982 1803 421D0000 		.4byte	0x1d42
 5983 1807 11180000 		.4byte	0x1811
 5984 180b 09       		.uleb128 0x9
 5985 180c 01       		.uleb128 0x1
 5986 180d 50       		.byte	0x50
 5987 180e 01       		.uleb128 0x1
 5988 180f 37       		.byte	0x37
 5989 1810 00       		.byte	0
 5990 1811 08       		.uleb128 0x8
 5991 1812 DC090000 		.4byte	.LVL247
 5992 1816 4D1D0000 		.4byte	0x1d4d
 5993 181a 43180000 		.4byte	0x1843
 5994 181e 09       		.uleb128 0x9
 5995 181f 01       		.uleb128 0x1
 5996 1820 50       		.byte	0x50
 5997 1821 02       		.uleb128 0x2
 5998 1822 08       		.byte	0x8
 5999 1823 64       		.byte	0x64
 6000 1824 09       		.uleb128 0x9
 6001 1825 01       		.uleb128 0x1
 6002 1826 51       		.byte	0x51
 6003 1827 01       		.uleb128 0x1
 6004 1828 30       		.byte	0x30
 6005 1829 09       		.uleb128 0x9
 6006 182a 01       		.uleb128 0x1
 6007 182b 52       		.byte	0x52
 6008 182c 02       		.uleb128 0x2
 6009 182d 74       		.byte	0x74
 6010 182e 00       		.sleb128 0
 6011 182f 09       		.uleb128 0x9
 6012 1830 01       		.uleb128 0x1
 6013 1831 53       		.byte	0x53
 6014 1832 01       		.uleb128 0x1
 6015 1833 34       		.byte	0x34
 6016 1834 09       		.uleb128 0x9
 6017 1835 02       		.uleb128 0x2
 6018 1836 7D       		.byte	0x7d
 6019 1837 00       		.sleb128 0
 6020 1838 02       		.uleb128 0x2
ARM GAS  C:\Users\Misha\AppData\Local\Temp\ccIfQyo5.s 			page 125


 6021 1839 75       		.byte	0x75
 6022 183a 00       		.sleb128 0
 6023 183b 09       		.uleb128 0x9
 6024 183c 02       		.uleb128 0x2
 6025 183d 7D       		.byte	0x7d
 6026 183e 04       		.sleb128 4
 6027 183f 02       		.uleb128 0x2
 6028 1840 74       		.byte	0x74
 6029 1841 00       		.sleb128 0
 6030 1842 00       		.byte	0
 6031 1843 08       		.uleb128 0x8
 6032 1844 E4090000 		.4byte	.LVL248
 6033 1848 841D0000 		.4byte	0x1d84
 6034 184c 5D180000 		.4byte	0x185d
 6035 1850 09       		.uleb128 0x9
 6036 1851 01       		.uleb128 0x1
 6037 1852 50       		.byte	0x50
 6038 1853 02       		.uleb128 0x2
 6039 1854 74       		.byte	0x74
 6040 1855 00       		.sleb128 0
 6041 1856 09       		.uleb128 0x9
 6042 1857 01       		.uleb128 0x1
 6043 1858 51       		.byte	0x51
 6044 1859 02       		.uleb128 0x2
 6045 185a 75       		.byte	0x75
 6046 185b 00       		.sleb128 0
 6047 185c 00       		.byte	0
 6048 185d 08       		.uleb128 0x8
 6049 185e F4090000 		.4byte	.LVL249
 6050 1862 4D1D0000 		.4byte	0x1d4d
 6051 1866 90180000 		.4byte	0x1890
 6052 186a 09       		.uleb128 0x9
 6053 186b 01       		.uleb128 0x1
 6054 186c 50       		.byte	0x50
 6055 186d 02       		.uleb128 0x2
 6056 186e 75       		.byte	0x75
 6057 186f 00       		.sleb128 0
 6058 1870 09       		.uleb128 0x9
 6059 1871 01       		.uleb128 0x1
 6060 1872 51       		.byte	0x51
 6061 1873 02       		.uleb128 0x2
 6062 1874 74       		.byte	0x74
 6063 1875 00       		.sleb128 0
 6064 1876 09       		.uleb128 0x9
 6065 1877 01       		.uleb128 0x1
 6066 1878 52       		.byte	0x52
 6067 1879 02       		.uleb128 0x2
 6068 187a 74       		.byte	0x74
 6069 187b 00       		.sleb128 0
 6070 187c 09       		.uleb128 0x9
 6071 187d 01       		.uleb128 0x1
 6072 187e 53       		.byte	0x53
 6073 187f 01       		.uleb128 0x1
 6074 1880 35       		.byte	0x35
 6075 1881 09       		.uleb128 0x9
 6076 1882 02       		.uleb128 0x2
 6077 1883 7D       		.byte	0x7d
ARM GAS  C:\Users\Misha\AppData\Local\Temp\ccIfQyo5.s 			page 126


 6078 1884 00       		.sleb128 0
 6079 1885 02       		.uleb128 0x2
 6080 1886 75       		.byte	0x75
 6081 1887 00       		.sleb128 0
 6082 1888 09       		.uleb128 0x9
 6083 1889 02       		.uleb128 0x2
 6084 188a 7D       		.byte	0x7d
 6085 188b 04       		.sleb128 4
 6086 188c 02       		.uleb128 0x2
 6087 188d 74       		.byte	0x74
 6088 188e 00       		.sleb128 0
 6089 188f 00       		.byte	0
 6090 1890 08       		.uleb128 0x8
 6091 1891 240A0000 		.4byte	.LVL250
 6092 1895 4D1D0000 		.4byte	0x1d4d
 6093 1899 BC180000 		.4byte	0x18bc
 6094 189d 09       		.uleb128 0x9
 6095 189e 01       		.uleb128 0x1
 6096 189f 51       		.byte	0x51
 6097 18a0 01       		.uleb128 0x1
 6098 18a1 30       		.byte	0x30
 6099 18a2 09       		.uleb128 0x9
 6100 18a3 01       		.uleb128 0x1
 6101 18a4 52       		.byte	0x52
 6102 18a5 02       		.uleb128 0x2
 6103 18a6 09       		.byte	0x9
 6104 18a7 FF       		.byte	0xff
 6105 18a8 09       		.uleb128 0x9
 6106 18a9 01       		.uleb128 0x1
 6107 18aa 53       		.byte	0x53
 6108 18ab 01       		.uleb128 0x1
 6109 18ac 35       		.byte	0x35
 6110 18ad 09       		.uleb128 0x9
 6111 18ae 02       		.uleb128 0x2
 6112 18af 7D       		.byte	0x7d
 6113 18b0 00       		.sleb128 0
 6114 18b1 02       		.uleb128 0x2
 6115 18b2 75       		.byte	0x75
 6116 18b3 00       		.sleb128 0
 6117 18b4 09       		.uleb128 0x9
 6118 18b5 02       		.uleb128 0x2
 6119 18b6 7D       		.byte	0x7d
 6120 18b7 04       		.sleb128 4
 6121 18b8 02       		.uleb128 0x2
 6122 18b9 74       		.byte	0x74
 6123 18ba 00       		.sleb128 0
 6124 18bb 00       		.byte	0
 6125 18bc 08       		.uleb128 0x8
 6126 18bd 2C0A0000 		.4byte	.LVL251
 6127 18c1 841D0000 		.4byte	0x1d84
 6128 18c5 D5180000 		.4byte	0x18d5
 6129 18c9 09       		.uleb128 0x9
 6130 18ca 01       		.uleb128 0x1
 6131 18cb 50       		.byte	0x50
 6132 18cc 01       		.uleb128 0x1
 6133 18cd 30       		.byte	0x30
 6134 18ce 09       		.uleb128 0x9
ARM GAS  C:\Users\Misha\AppData\Local\Temp\ccIfQyo5.s 			page 127


 6135 18cf 01       		.uleb128 0x1
 6136 18d0 51       		.byte	0x51
 6137 18d1 02       		.uleb128 0x2
 6138 18d2 75       		.byte	0x75
 6139 18d3 00       		.sleb128 0
 6140 18d4 00       		.byte	0
 6141 18d5 08       		.uleb128 0x8
 6142 18d6 320A0000 		.4byte	.LVL252
 6143 18da 421D0000 		.4byte	0x1d42
 6144 18de E8180000 		.4byte	0x18e8
 6145 18e2 09       		.uleb128 0x9
 6146 18e3 01       		.uleb128 0x1
 6147 18e4 50       		.byte	0x50
 6148 18e5 01       		.uleb128 0x1
 6149 18e6 37       		.byte	0x37
 6150 18e7 00       		.byte	0
 6151 18e8 08       		.uleb128 0x8
 6152 18e9 420A0000 		.4byte	.LVL253
 6153 18ed 4D1D0000 		.4byte	0x1d4d
 6154 18f1 1A190000 		.4byte	0x191a
 6155 18f5 09       		.uleb128 0x9
 6156 18f6 01       		.uleb128 0x1
 6157 18f7 50       		.byte	0x50
 6158 18f8 02       		.uleb128 0x2
 6159 18f9 08       		.byte	0x8
 6160 18fa 64       		.byte	0x64
 6161 18fb 09       		.uleb128 0x9
 6162 18fc 01       		.uleb128 0x1
 6163 18fd 51       		.byte	0x51
 6164 18fe 01       		.uleb128 0x1
 6165 18ff 30       		.byte	0x30
 6166 1900 09       		.uleb128 0x9
 6167 1901 01       		.uleb128 0x1
 6168 1902 52       		.byte	0x52
 6169 1903 02       		.uleb128 0x2
 6170 1904 74       		.byte	0x74
 6171 1905 00       		.sleb128 0
 6172 1906 09       		.uleb128 0x9
 6173 1907 01       		.uleb128 0x1
 6174 1908 53       		.byte	0x53
 6175 1909 01       		.uleb128 0x1
 6176 190a 34       		.byte	0x34
 6177 190b 09       		.uleb128 0x9
 6178 190c 02       		.uleb128 0x2
 6179 190d 7D       		.byte	0x7d
 6180 190e 00       		.sleb128 0
 6181 190f 02       		.uleb128 0x2
 6182 1910 75       		.byte	0x75
 6183 1911 00       		.sleb128 0
 6184 1912 09       		.uleb128 0x9
 6185 1913 02       		.uleb128 0x2
 6186 1914 7D       		.byte	0x7d
 6187 1915 04       		.sleb128 4
 6188 1916 02       		.uleb128 0x2
 6189 1917 74       		.byte	0x74
 6190 1918 00       		.sleb128 0
 6191 1919 00       		.byte	0
ARM GAS  C:\Users\Misha\AppData\Local\Temp\ccIfQyo5.s 			page 128


 6192 191a 08       		.uleb128 0x8
 6193 191b 4A0A0000 		.4byte	.LVL254
 6194 191f 841D0000 		.4byte	0x1d84
 6195 1923 34190000 		.4byte	0x1934
 6196 1927 09       		.uleb128 0x9
 6197 1928 01       		.uleb128 0x1
 6198 1929 50       		.byte	0x50
 6199 192a 02       		.uleb128 0x2
 6200 192b 74       		.byte	0x74
 6201 192c 00       		.sleb128 0
 6202 192d 09       		.uleb128 0x9
 6203 192e 01       		.uleb128 0x1
 6204 192f 51       		.byte	0x51
 6205 1930 02       		.uleb128 0x2
 6206 1931 75       		.byte	0x75
 6207 1932 00       		.sleb128 0
 6208 1933 00       		.byte	0
 6209 1934 08       		.uleb128 0x8
 6210 1935 5A0A0000 		.4byte	.LVL255
 6211 1939 4D1D0000 		.4byte	0x1d4d
 6212 193d 67190000 		.4byte	0x1967
 6213 1941 09       		.uleb128 0x9
 6214 1942 01       		.uleb128 0x1
 6215 1943 50       		.byte	0x50
 6216 1944 02       		.uleb128 0x2
 6217 1945 75       		.byte	0x75
 6218 1946 00       		.sleb128 0
 6219 1947 09       		.uleb128 0x9
 6220 1948 01       		.uleb128 0x1
 6221 1949 51       		.byte	0x51
 6222 194a 02       		.uleb128 0x2
 6223 194b 74       		.byte	0x74
 6224 194c 00       		.sleb128 0
 6225 194d 09       		.uleb128 0x9
 6226 194e 01       		.uleb128 0x1
 6227 194f 52       		.byte	0x52
 6228 1950 02       		.uleb128 0x2
 6229 1951 74       		.byte	0x74
 6230 1952 00       		.sleb128 0
 6231 1953 09       		.uleb128 0x9
 6232 1954 01       		.uleb128 0x1
 6233 1955 53       		.byte	0x53
 6234 1956 01       		.uleb128 0x1
 6235 1957 30       		.byte	0x30
 6236 1958 09       		.uleb128 0x9
 6237 1959 02       		.uleb128 0x2
 6238 195a 7D       		.byte	0x7d
 6239 195b 00       		.sleb128 0
 6240 195c 02       		.uleb128 0x2
 6241 195d 75       		.byte	0x75
 6242 195e 00       		.sleb128 0
 6243 195f 09       		.uleb128 0x9
 6244 1960 02       		.uleb128 0x2
 6245 1961 7D       		.byte	0x7d
 6246 1962 04       		.sleb128 4
 6247 1963 02       		.uleb128 0x2
 6248 1964 74       		.byte	0x74
ARM GAS  C:\Users\Misha\AppData\Local\Temp\ccIfQyo5.s 			page 129


 6249 1965 00       		.sleb128 0
 6250 1966 00       		.byte	0
 6251 1967 08       		.uleb128 0x8
 6252 1968 D00B0000 		.4byte	.LVL283
 6253 196c 4D1D0000 		.4byte	0x1d4d
 6254 1970 9A190000 		.4byte	0x199a
 6255 1974 09       		.uleb128 0x9
 6256 1975 01       		.uleb128 0x1
 6257 1976 50       		.byte	0x50
 6258 1977 02       		.uleb128 0x2
 6259 1978 08       		.byte	0x8
 6260 1979 D2       		.byte	0xd2
 6261 197a 09       		.uleb128 0x9
 6262 197b 01       		.uleb128 0x1
 6263 197c 51       		.byte	0x51
 6264 197d 02       		.uleb128 0x2
 6265 197e 74       		.byte	0x74
 6266 197f 00       		.sleb128 0
 6267 1980 09       		.uleb128 0x9
 6268 1981 01       		.uleb128 0x1
 6269 1982 52       		.byte	0x52
 6270 1983 02       		.uleb128 0x2
 6271 1984 09       		.byte	0x9
 6272 1985 FF       		.byte	0xff
 6273 1986 09       		.uleb128 0x9
 6274 1987 01       		.uleb128 0x1
 6275 1988 53       		.byte	0x53
 6276 1989 01       		.uleb128 0x1
 6277 198a 35       		.byte	0x35
 6278 198b 09       		.uleb128 0x9
 6279 198c 02       		.uleb128 0x2
 6280 198d 7D       		.byte	0x7d
 6281 198e 00       		.sleb128 0
 6282 198f 02       		.uleb128 0x2
 6283 1990 75       		.byte	0x75
 6284 1991 00       		.sleb128 0
 6285 1992 09       		.uleb128 0x9
 6286 1993 02       		.uleb128 0x2
 6287 1994 7D       		.byte	0x7d
 6288 1995 04       		.sleb128 4
 6289 1996 02       		.uleb128 0x2
 6290 1997 74       		.byte	0x74
 6291 1998 00       		.sleb128 0
 6292 1999 00       		.byte	0
 6293 199a 08       		.uleb128 0x8
 6294 199b D80B0000 		.4byte	.LVL284
 6295 199f 841D0000 		.4byte	0x1d84
 6296 19a3 B3190000 		.4byte	0x19b3
 6297 19a7 09       		.uleb128 0x9
 6298 19a8 01       		.uleb128 0x1
 6299 19a9 50       		.byte	0x50
 6300 19aa 01       		.uleb128 0x1
 6301 19ab 33       		.byte	0x33
 6302 19ac 09       		.uleb128 0x9
 6303 19ad 01       		.uleb128 0x1
 6304 19ae 51       		.byte	0x51
 6305 19af 02       		.uleb128 0x2
ARM GAS  C:\Users\Misha\AppData\Local\Temp\ccIfQyo5.s 			page 130


 6306 19b0 75       		.byte	0x75
 6307 19b1 00       		.sleb128 0
 6308 19b2 00       		.byte	0
 6309 19b3 08       		.uleb128 0x8
 6310 19b4 DE0B0000 		.4byte	.LVL285
 6311 19b8 421D0000 		.4byte	0x1d42
 6312 19bc C6190000 		.4byte	0x19c6
 6313 19c0 09       		.uleb128 0x9
 6314 19c1 01       		.uleb128 0x1
 6315 19c2 50       		.byte	0x50
 6316 19c3 01       		.uleb128 0x1
 6317 19c4 37       		.byte	0x37
 6318 19c5 00       		.byte	0
 6319 19c6 08       		.uleb128 0x8
 6320 19c7 F40B0000 		.4byte	.LVL286
 6321 19cb 4D1D0000 		.4byte	0x1d4d
 6322 19cf FA190000 		.4byte	0x19fa
 6323 19d3 09       		.uleb128 0x9
 6324 19d4 01       		.uleb128 0x1
 6325 19d5 50       		.byte	0x50
 6326 19d6 03       		.uleb128 0x3
 6327 19d7 0A       		.byte	0xa
 6328 19d8 F901     		.2byte	0x1f9
 6329 19da 09       		.uleb128 0x9
 6330 19db 01       		.uleb128 0x1
 6331 19dc 51       		.byte	0x51
 6332 19dd 02       		.uleb128 0x2
 6333 19de 74       		.byte	0x74
 6334 19df 00       		.sleb128 0
 6335 19e0 09       		.uleb128 0x9
 6336 19e1 01       		.uleb128 0x1
 6337 19e2 52       		.byte	0x52
 6338 19e3 02       		.uleb128 0x2
 6339 19e4 09       		.byte	0x9
 6340 19e5 FF       		.byte	0xff
 6341 19e6 09       		.uleb128 0x9
 6342 19e7 01       		.uleb128 0x1
 6343 19e8 53       		.byte	0x53
 6344 19e9 01       		.uleb128 0x1
 6345 19ea 35       		.byte	0x35
 6346 19eb 09       		.uleb128 0x9
 6347 19ec 02       		.uleb128 0x2
 6348 19ed 7D       		.byte	0x7d
 6349 19ee 00       		.sleb128 0
 6350 19ef 02       		.uleb128 0x2
 6351 19f0 75       		.byte	0x75
 6352 19f1 00       		.sleb128 0
 6353 19f2 09       		.uleb128 0x9
 6354 19f3 02       		.uleb128 0x2
 6355 19f4 7D       		.byte	0x7d
 6356 19f5 04       		.sleb128 4
 6357 19f6 02       		.uleb128 0x2
 6358 19f7 76       		.byte	0x76
 6359 19f8 00       		.sleb128 0
 6360 19f9 00       		.byte	0
 6361 19fa 08       		.uleb128 0x8
 6362 19fb FC0B0000 		.4byte	.LVL287
ARM GAS  C:\Users\Misha\AppData\Local\Temp\ccIfQyo5.s 			page 131


 6363 19ff 841D0000 		.4byte	0x1d84
 6364 1a03 141A0000 		.4byte	0x1a14
 6365 1a07 09       		.uleb128 0x9
 6366 1a08 01       		.uleb128 0x1
 6367 1a09 50       		.byte	0x50
 6368 1a0a 02       		.uleb128 0x2
 6369 1a0b 74       		.byte	0x74
 6370 1a0c 00       		.sleb128 0
 6371 1a0d 09       		.uleb128 0x9
 6372 1a0e 01       		.uleb128 0x1
 6373 1a0f 51       		.byte	0x51
 6374 1a10 02       		.uleb128 0x2
 6375 1a11 75       		.byte	0x75
 6376 1a12 00       		.sleb128 0
 6377 1a13 00       		.byte	0
 6378 1a14 08       		.uleb128 0x8
 6379 1a15 0C0C0000 		.4byte	.LVL288
 6380 1a19 4D1D0000 		.4byte	0x1d4d
 6381 1a1d 471A0000 		.4byte	0x1a47
 6382 1a21 09       		.uleb128 0x9
 6383 1a22 01       		.uleb128 0x1
 6384 1a23 50       		.byte	0x50
 6385 1a24 02       		.uleb128 0x2
 6386 1a25 08       		.byte	0x8
 6387 1a26 28       		.byte	0x28
 6388 1a27 09       		.uleb128 0x9
 6389 1a28 01       		.uleb128 0x1
 6390 1a29 51       		.byte	0x51
 6391 1a2a 02       		.uleb128 0x2
 6392 1a2b 74       		.byte	0x74
 6393 1a2c 00       		.sleb128 0
 6394 1a2d 09       		.uleb128 0x9
 6395 1a2e 01       		.uleb128 0x1
 6396 1a2f 52       		.byte	0x52
 6397 1a30 02       		.uleb128 0x2
 6398 1a31 76       		.byte	0x76
 6399 1a32 00       		.sleb128 0
 6400 1a33 09       		.uleb128 0x9
 6401 1a34 01       		.uleb128 0x1
 6402 1a35 53       		.byte	0x53
 6403 1a36 01       		.uleb128 0x1
 6404 1a37 34       		.byte	0x34
 6405 1a38 09       		.uleb128 0x9
 6406 1a39 02       		.uleb128 0x2
 6407 1a3a 7D       		.byte	0x7d
 6408 1a3b 00       		.sleb128 0
 6409 1a3c 02       		.uleb128 0x2
 6410 1a3d 75       		.byte	0x75
 6411 1a3e 00       		.sleb128 0
 6412 1a3f 09       		.uleb128 0x9
 6413 1a40 02       		.uleb128 0x2
 6414 1a41 7D       		.byte	0x7d
 6415 1a42 04       		.sleb128 4
 6416 1a43 02       		.uleb128 0x2
 6417 1a44 76       		.byte	0x76
 6418 1a45 00       		.sleb128 0
 6419 1a46 00       		.byte	0
ARM GAS  C:\Users\Misha\AppData\Local\Temp\ccIfQyo5.s 			page 132


 6420 1a47 0A       		.uleb128 0xa
 6421 1a48 140C0000 		.4byte	.LVL289
 6422 1a4c 9A1D0000 		.4byte	0x1d9a
 6423 1a50 09       		.uleb128 0x9
 6424 1a51 01       		.uleb128 0x1
 6425 1a52 50       		.byte	0x50
 6426 1a53 02       		.uleb128 0x2
 6427 1a54 74       		.byte	0x74
 6428 1a55 00       		.sleb128 0
 6429 1a56 09       		.uleb128 0x9
 6430 1a57 01       		.uleb128 0x1
 6431 1a58 51       		.byte	0x51
 6432 1a59 01       		.uleb128 0x1
 6433 1a5a 32       		.byte	0x32
 6434 1a5b 00       		.byte	0
 6435 1a5c 00       		.byte	0
 6436 1a5d 13       		.uleb128 0x13
 6437 1a5e 27070000 		.4byte	.LASF26
 6438 1a62 04       		.byte	0x4
 6439 1a63 1207     		.2byte	0x712
 6440 1a65 691A0000 		.4byte	0x1a69
 6441 1a69 14       		.uleb128 0x14
 6442 1a6a 76000000 		.4byte	0x76
 6443 1a6e 15       		.uleb128 0x15
 6444 1a6f C8020000 		.4byte	.LASF27
 6445 1a73 05       		.byte	0x5
 6446 1a74 23       		.byte	0x23
 6447 1a75 68000000 		.4byte	0x68
 6448 1a79 05       		.uleb128 0x5
 6449 1a7a 03       		.byte	0x3
 6450 1a7b 00000000 		.4byte	internal_orientation
 6451 1a7f 16       		.uleb128 0x16
 6452 1a80 68000000 		.4byte	0x68
 6453 1a84 8F1A0000 		.4byte	0x1a8f
 6454 1a88 17       		.uleb128 0x17
 6455 1a89 9D000000 		.4byte	0x9d
 6456 1a8d 04       		.byte	0x4
 6457 1a8e 00       		.byte	0
 6458 1a8f 15       		.uleb128 0x15
 6459 1a90 E2030000 		.4byte	.LASF28
 6460 1a94 01       		.byte	0x1
 6461 1a95 29       		.byte	0x29
 6462 1a96 7F1A0000 		.4byte	0x1a7f
 6463 1a9a 05       		.uleb128 0x5
 6464 1a9b 03       		.byte	0x3
 6465 1a9c 00000000 		.4byte	puck_rack_scans
 6466 1aa0 15       		.uleb128 0x15
 6467 1aa1 54060000 		.4byte	.LASF29
 6468 1aa5 01       		.byte	0x1
 6469 1aa6 2B       		.byte	0x2b
 6470 1aa7 7F1A0000 		.4byte	0x1a7f
 6471 1aab 05       		.uleb128 0x5
 6472 1aac 03       		.byte	0x3
 6473 1aad 00000000 		.4byte	puck_rack_west_offsets
 6474 1ab1 16       		.uleb128 0x16
 6475 1ab2 81000000 		.4byte	0x81
 6476 1ab6 C11A0000 		.4byte	0x1ac1
ARM GAS  C:\Users\Misha\AppData\Local\Temp\ccIfQyo5.s 			page 133


 6477 1aba 17       		.uleb128 0x17
 6478 1abb 9D000000 		.4byte	0x9d
 6479 1abf 03       		.byte	0x3
 6480 1ac0 00       		.byte	0
 6481 1ac1 15       		.uleb128 0x15
 6482 1ac2 77040000 		.4byte	.LASF30
 6483 1ac6 01       		.byte	0x1
 6484 1ac7 25       		.byte	0x25
 6485 1ac8 B11A0000 		.4byte	0x1ab1
 6486 1acc 05       		.uleb128 0x5
 6487 1acd 03       		.byte	0x3
 6488 1ace 00000000 		.4byte	block_edge_location
 6489 1ad2 15       		.uleb128 0x15
 6490 1ad3 E2070000 		.4byte	.LASF31
 6491 1ad7 06       		.byte	0x6
 6492 1ad8 23       		.byte	0x23
 6493 1ad9 68000000 		.4byte	0x68
 6494 1add 05       		.uleb128 0x5
 6495 1ade 03       		.byte	0x3
 6496 1adf 00000000 		.4byte	initialisation
 6497 1ae3 16       		.uleb128 0x16
 6498 1ae4 8F000000 		.4byte	0x8f
 6499 1ae8 F31A0000 		.4byte	0x1af3
 6500 1aec 17       		.uleb128 0x17
 6501 1aed 9D000000 		.4byte	0x9d
 6502 1af1 1F       		.byte	0x1f
 6503 1af2 00       		.byte	0
 6504 1af3 15       		.uleb128 0x15
 6505 1af4 00070000 		.4byte	.LASF32
 6506 1af8 01       		.byte	0x1
 6507 1af9 21       		.byte	0x21
 6508 1afa E31A0000 		.4byte	0x1ae3
 6509 1afe 05       		.uleb128 0x5
 6510 1aff 03       		.byte	0x3
 6511 1b00 00000000 		.4byte	output
 6512 1b04 16       		.uleb128 0x16
 6513 1b05 68000000 		.4byte	0x68
 6514 1b09 141B0000 		.4byte	0x1b14
 6515 1b0d 17       		.uleb128 0x17
 6516 1b0e 9D000000 		.4byte	0x9d
 6517 1b12 06       		.byte	0x6
 6518 1b13 00       		.byte	0
 6519 1b14 18       		.uleb128 0x18
 6520 1b15 25060000 		.4byte	.LASF33
 6521 1b19 07       		.byte	0x7
 6522 1b1a CB       		.byte	0xcb
 6523 1b1b 041B0000 		.4byte	0x1b04
 6524 1b1f 15       		.uleb128 0x15
 6525 1b20 BE030000 		.4byte	.LASF34
 6526 1b24 01       		.byte	0x1
 6527 1b25 4D       		.byte	0x4d
 6528 1b26 68000000 		.4byte	0x68
 6529 1b2a 05       		.uleb128 0x5
 6530 1b2b 03       		.byte	0x3
 6531 1b2c 00000000 		.4byte	colour_flag
 6532 1b30 15       		.uleb128 0x15
 6533 1b31 89030000 		.4byte	.LASF35
ARM GAS  C:\Users\Misha\AppData\Local\Temp\ccIfQyo5.s 			page 134


 6534 1b35 01       		.byte	0x1
 6535 1b36 24       		.byte	0x24
 6536 1b37 68000000 		.4byte	0x68
 6537 1b3b 05       		.uleb128 0x5
 6538 1b3c 03       		.byte	0x3
 6539 1b3d 00000000 		.4byte	state
 6540 1b41 15       		.uleb128 0x15
 6541 1b42 8B050000 		.4byte	.LASF36
 6542 1b46 01       		.byte	0x1
 6543 1b47 53       		.byte	0x53
 6544 1b48 68000000 		.4byte	0x68
 6545 1b4c 05       		.uleb128 0x5
 6546 1b4d 03       		.byte	0x3
 6547 1b4e 00000000 		.4byte	moving
 6548 1b52 15       		.uleb128 0x15
 6549 1b53 76010000 		.4byte	.LASF37
 6550 1b57 06       		.byte	0x6
 6551 1b58 25       		.byte	0x25
 6552 1b59 68000000 		.4byte	0x68
 6553 1b5d 05       		.uleb128 0x5
 6554 1b5e 03       		.byte	0x3
 6555 1b5f 00000000 		.4byte	ultrasonic_flag
 6556 1b63 16       		.uleb128 0x16
 6557 1b64 68000000 		.4byte	0x68
 6558 1b68 731B0000 		.4byte	0x1b73
 6559 1b6c 17       		.uleb128 0x17
 6560 1b6d 9D000000 		.4byte	0x9d
 6561 1b71 02       		.byte	0x2
 6562 1b72 00       		.byte	0
 6563 1b73 15       		.uleb128 0x15
 6564 1b74 43040000 		.4byte	.LASF38
 6565 1b78 01       		.byte	0x1
 6566 1b79 2A       		.byte	0x2a
 6567 1b7a 631B0000 		.4byte	0x1b63
 6568 1b7e 05       		.uleb128 0x5
 6569 1b7f 03       		.byte	0x3
 6570 1b80 00000000 		.4byte	puck_construction_plan
 6571 1b84 15       		.uleb128 0x15
 6572 1b85 FC040000 		.4byte	.LASF39
 6573 1b89 01       		.byte	0x1
 6574 1b8a 57       		.byte	0x57
 6575 1b8b 68000000 		.4byte	0x68
 6576 1b8f 05       		.uleb128 0x5
 6577 1b90 03       		.byte	0x3
 6578 1b91 00000000 		.4byte	current_stage
 6579 1b95 15       		.uleb128 0x15
 6580 1b96 72050000 		.4byte	.LASF40
 6581 1b9a 01       		.byte	0x1
 6582 1b9b 4E       		.byte	0x4e
 6583 1b9c 68000000 		.4byte	0x68
 6584 1ba0 05       		.uleb128 0x5
 6585 1ba1 03       		.byte	0x3
 6586 1ba2 00000000 		.4byte	colour_sensing_algorithm
 6587 1ba6 15       		.uleb128 0x15
 6588 1ba7 23030000 		.4byte	.LASF41
 6589 1bab 01       		.byte	0x1
 6590 1bac 41       		.byte	0x41
ARM GAS  C:\Users\Misha\AppData\Local\Temp\ccIfQyo5.s 			page 135


 6591 1bad 68000000 		.4byte	0x68
 6592 1bb1 05       		.uleb128 0x5
 6593 1bb2 03       		.byte	0x3
 6594 1bb3 00000000 		.4byte	safety_override
 6595 1bb7 16       		.uleb128 0x16
 6596 1bb8 68000000 		.4byte	0x68
 6597 1bbc C71B0000 		.4byte	0x1bc7
 6598 1bc0 17       		.uleb128 0x17
 6599 1bc1 9D000000 		.4byte	0x9d
 6600 1bc5 03       		.byte	0x3
 6601 1bc6 00       		.byte	0
 6602 1bc7 15       		.uleb128 0x15
 6603 1bc8 EF010000 		.4byte	.LASF42
 6604 1bcc 01       		.byte	0x1
 6605 1bcd 36       		.byte	0x36
 6606 1bce B71B0000 		.4byte	0x1bb7
 6607 1bd2 05       		.uleb128 0x5
 6608 1bd3 03       		.byte	0x3
 6609 1bd4 00000000 		.4byte	block_location
 6610 1bd8 15       		.uleb128 0x15
 6611 1bd9 18040000 		.4byte	.LASF43
 6612 1bdd 01       		.byte	0x1
 6613 1bde 3B       		.byte	0x3b
 6614 1bdf B71B0000 		.4byte	0x1bb7
 6615 1be3 05       		.uleb128 0x5
 6616 1be4 03       		.byte	0x3
 6617 1be5 00000000 		.4byte	puck_location
 6618 1be9 15       		.uleb128 0x15
 6619 1bea CA070000 		.4byte	.LASF44
 6620 1bee 01       		.byte	0x1
 6621 1bef 28       		.byte	0x28
 6622 1bf0 68000000 		.4byte	0x68
 6623 1bf4 05       		.uleb128 0x5
 6624 1bf5 03       		.byte	0x3
 6625 1bf6 00000000 		.4byte	current_puck_stack_size
 6626 1bfa 16       		.uleb128 0x16
 6627 1bfb 68000000 		.4byte	0x68
 6628 1bff 0A1C0000 		.4byte	0x1c0a
 6629 1c03 17       		.uleb128 0x17
 6630 1c04 9D000000 		.4byte	0x9d
 6631 1c08 01       		.byte	0x1
 6632 1c09 00       		.byte	0
 6633 1c0a 15       		.uleb128 0x15
 6634 1c0b 4E010000 		.4byte	.LASF45
 6635 1c0f 01       		.byte	0x1
 6636 1c10 31       		.byte	0x31
 6637 1c11 FA1B0000 		.4byte	0x1bfa
 6638 1c15 05       		.uleb128 0x5
 6639 1c16 03       		.byte	0x3
 6640 1c17 00000000 		.4byte	puck_temp_pile
 6641 1c1b 15       		.uleb128 0x15
 6642 1c1c E5050000 		.4byte	.LASF46
 6643 1c20 01       		.byte	0x1
 6644 1c21 35       		.byte	0x35
 6645 1c22 68000000 		.4byte	0x68
 6646 1c26 05       		.uleb128 0x5
 6647 1c27 03       		.byte	0x3
ARM GAS  C:\Users\Misha\AppData\Local\Temp\ccIfQyo5.s 			page 136


 6648 1c28 00000000 		.4byte	begin_navigation
 6649 1c2c 15       		.uleb128 0x15
 6650 1c2d AF000000 		.4byte	.LASF47
 6651 1c31 01       		.byte	0x1
 6652 1c32 45       		.byte	0x45
 6653 1c33 33000000 		.4byte	0x33
 6654 1c37 05       		.uleb128 0x5
 6655 1c38 03       		.byte	0x3
 6656 1c39 00000000 		.4byte	block_east_clearance
 6657 1c3d 15       		.uleb128 0x15
 6658 1c3e B8050000 		.4byte	.LASF48
 6659 1c42 01       		.byte	0x1
 6660 1c43 46       		.byte	0x46
 6661 1c44 33000000 		.4byte	0x33
 6662 1c48 05       		.uleb128 0x5
 6663 1c49 03       		.byte	0x3
 6664 1c4a 00000000 		.4byte	block_west_clearance
 6665 1c4e 15       		.uleb128 0x15
 6666 1c4f 3A010000 		.4byte	.LASF49
 6667 1c53 01       		.byte	0x1
 6668 1c54 47       		.byte	0x47
 6669 1c55 33000000 		.4byte	0x33
 6670 1c59 05       		.uleb128 0x5
 6671 1c5a 03       		.byte	0x3
 6672 1c5b 00000000 		.4byte	puck_east_clearance
 6673 1c5f 15       		.uleb128 0x15
 6674 1c60 56000000 		.4byte	.LASF50
 6675 1c64 01       		.byte	0x1
 6676 1c65 48       		.byte	0x48
 6677 1c66 33000000 		.4byte	0x33
 6678 1c6a 05       		.uleb128 0x5
 6679 1c6b 03       		.byte	0x3
 6680 1c6c 00000000 		.4byte	puck_west_clearance
 6681 1c70 15       		.uleb128 0x15
 6682 1c71 C1040000 		.4byte	.LASF51
 6683 1c75 01       		.byte	0x1
 6684 1c76 4C       		.byte	0x4c
 6685 1c77 68000000 		.4byte	0x68
 6686 1c7b 05       		.uleb128 0x5
 6687 1c7c 03       		.byte	0x3
 6688 1c7d 00000000 		.4byte	idac_value
 6689 1c81 15       		.uleb128 0x15
 6690 1c82 5F050000 		.4byte	.LASF52
 6691 1c86 01       		.byte	0x1
 6692 1c87 55       		.byte	0x55
 6693 1c88 921C0000 		.4byte	0x1c92
 6694 1c8c 05       		.uleb128 0x5
 6695 1c8d 03       		.byte	0x3
 6696 1c8e 00000000 		.4byte	PLAN_SCAN_VERTICAL
 6697 1c92 19       		.uleb128 0x19
 6698 1c93 68000000 		.4byte	0x68
 6699 1c97 15       		.uleb128 0x15
 6700 1c98 0E070000 		.4byte	.LASF53
 6701 1c9c 01       		.byte	0x1
 6702 1c9d 5B       		.byte	0x5b
 6703 1c9e 68000000 		.4byte	0x68
 6704 1ca2 05       		.uleb128 0x5
ARM GAS  C:\Users\Misha\AppData\Local\Temp\ccIfQyo5.s 			page 137


 6705 1ca3 03       		.byte	0x3
 6706 1ca4 00000000 		.4byte	distance_returned_global
 6707 1ca8 1A       		.uleb128 0x1a
 6708 1ca9 23020000 		.4byte	.LASF54
 6709 1cad 23020000 		.4byte	.LASF54
 6710 1cb1 06       		.byte	0x6
 6711 1cb2 17       		.byte	0x17
 6712 1cb3 1A       		.uleb128 0x1a
 6713 1cb4 C2070000 		.4byte	.LASF55
 6714 1cb8 C2070000 		.4byte	.LASF55
 6715 1cbc 08       		.byte	0x8
 6716 1cbd 76       		.byte	0x76
 6717 1cbe 1A       		.uleb128 0x1a
 6718 1cbf 14060000 		.4byte	.LASF56
 6719 1cc3 14060000 		.4byte	.LASF56
 6720 1cc7 09       		.byte	0x9
 6721 1cc8 8B       		.byte	0x8b
 6722 1cc9 1A       		.uleb128 0x1a
 6723 1cca CA030000 		.4byte	.LASF57
 6724 1cce CA030000 		.4byte	.LASF57
 6725 1cd2 0A       		.byte	0xa
 6726 1cd3 DC       		.byte	0xdc
 6727 1cd4 1A       		.uleb128 0x1a
 6728 1cd5 9C020000 		.4byte	.LASF58
 6729 1cd9 9C020000 		.4byte	.LASF58
 6730 1cdd 0B       		.byte	0xb
 6731 1cde DC       		.byte	0xdc
 6732 1cdf 1A       		.uleb128 0x1a
 6733 1ce0 CB010000 		.4byte	.LASF59
 6734 1ce4 CB010000 		.4byte	.LASF59
 6735 1ce8 0C       		.byte	0xc
 6736 1ce9 0E       		.byte	0xe
 6737 1cea 1A       		.uleb128 0x1a
 6738 1ceb 10080000 		.4byte	.LASF60
 6739 1cef 10080000 		.4byte	.LASF60
 6740 1cf3 0A       		.byte	0xa
 6741 1cf4 DD       		.byte	0xdd
 6742 1cf5 1A       		.uleb128 0x1a
 6743 1cf6 F1070000 		.4byte	.LASF61
 6744 1cfa F1070000 		.4byte	.LASF61
 6745 1cfe 0A       		.byte	0xa
 6746 1cff C3       		.byte	0xc3
 6747 1d00 1A       		.uleb128 0x1a
 6748 1d01 65020000 		.4byte	.LASF62
 6749 1d05 65020000 		.4byte	.LASF62
 6750 1d09 0B       		.byte	0xb
 6751 1d0a DD       		.byte	0xdd
 6752 1d0b 1A       		.uleb128 0x1a
 6753 1d0c 36000000 		.4byte	.LASF63
 6754 1d10 36000000 		.4byte	.LASF63
 6755 1d14 0B       		.byte	0xb
 6756 1d15 C3       		.byte	0xc3
 6757 1d16 1A       		.uleb128 0x1a
 6758 1d17 6A000000 		.4byte	.LASF64
 6759 1d1b 6A000000 		.4byte	.LASF64
 6760 1d1f 0D       		.byte	0xd
 6761 1d20 1D       		.byte	0x1d
ARM GAS  C:\Users\Misha\AppData\Local\Temp\ccIfQyo5.s 			page 138


 6762 1d21 1A       		.uleb128 0x1a
 6763 1d22 1A030000 		.4byte	.LASF65
 6764 1d26 1A030000 		.4byte	.LASF65
 6765 1d2a 0D       		.byte	0xd
 6766 1d2b 1C       		.byte	0x1c
 6767 1d2c 1A       		.uleb128 0x1a
 6768 1d2d 3B040000 		.4byte	.LASF66
 6769 1d31 3B040000 		.4byte	.LASF66
 6770 1d35 0E       		.byte	0xe
 6771 1d36 E7       		.byte	0xe7
 6772 1d37 1A       		.uleb128 0x1a
 6773 1d38 24000000 		.4byte	.LASF67
 6774 1d3c 24000000 		.4byte	.LASF67
 6775 1d40 0F       		.byte	0xf
 6776 1d41 0E       		.byte	0xe
 6777 1d42 1A       		.uleb128 0x1a
 6778 1d43 96000000 		.4byte	.LASF68
 6779 1d47 96000000 		.4byte	.LASF68
 6780 1d4b 05       		.byte	0x5
 6781 1d4c 13       		.byte	0x13
 6782 1d4d 1A       		.uleb128 0x1a
 6783 1d4e ED060000 		.4byte	.LASF69
 6784 1d52 ED060000 		.4byte	.LASF69
 6785 1d56 05       		.byte	0x5
 6786 1d57 12       		.byte	0x12
 6787 1d58 1A       		.uleb128 0x1a
 6788 1d59 7E000000 		.4byte	.LASF70
 6789 1d5d 7E000000 		.4byte	.LASF70
 6790 1d61 0D       		.byte	0xd
 6791 1d62 19       		.byte	0x19
 6792 1d63 1A       		.uleb128 0x1a
 6793 1d64 4F030000 		.4byte	.LASF71
 6794 1d68 4F030000 		.4byte	.LASF71
 6795 1d6c 10       		.byte	0x10
 6796 1d6d 2F       		.byte	0x2f
 6797 1d6e 1A       		.uleb128 0x1a
 6798 1d6f 35050000 		.4byte	.LASF72
 6799 1d73 35050000 		.4byte	.LASF72
 6800 1d77 06       		.byte	0x6
 6801 1d78 16       		.byte	0x16
 6802 1d79 1A       		.uleb128 0x1a
 6803 1d7a 26040000 		.4byte	.LASF73
 6804 1d7e 26040000 		.4byte	.LASF73
 6805 1d82 0C       		.byte	0xc
 6806 1d83 0F       		.byte	0xf
 6807 1d84 1A       		.uleb128 0x1a
 6808 1d85 9E030000 		.4byte	.LASF74
 6809 1d89 9E030000 		.4byte	.LASF74
 6810 1d8d 05       		.byte	0x5
 6811 1d8e 19       		.byte	0x19
 6812 1d8f 1A       		.uleb128 0x1a
 6813 1d90 40030000 		.4byte	.LASF75
 6814 1d94 40030000 		.4byte	.LASF75
 6815 1d98 05       		.byte	0x5
 6816 1d99 17       		.byte	0x17
 6817 1d9a 1A       		.uleb128 0x1a
 6818 1d9b 44020000 		.4byte	.LASF76
ARM GAS  C:\Users\Misha\AppData\Local\Temp\ccIfQyo5.s 			page 139


 6819 1d9f 44020000 		.4byte	.LASF76
 6820 1da3 11       		.byte	0x11
 6821 1da4 0F       		.byte	0xf
 6822 1da5 1A       		.uleb128 0x1a
 6823 1da6 F2030000 		.4byte	.LASF77
 6824 1daa F2030000 		.4byte	.LASF77
 6825 1dae 05       		.byte	0x5
 6826 1daf 10       		.byte	0x10
 6827 1db0 1A       		.uleb128 0x1a
 6828 1db1 56050000 		.4byte	.LASF78
 6829 1db5 56050000 		.4byte	.LASF78
 6830 1db9 11       		.byte	0x11
 6831 1dba 11       		.byte	0x11
 6832 1dbb 1A       		.uleb128 0x1a
 6833 1dbc A0050000 		.4byte	.LASF79
 6834 1dc0 A0050000 		.4byte	.LASF79
 6835 1dc4 05       		.byte	0x5
 6836 1dc5 2A       		.byte	0x2a
 6837 1dc6 1A       		.uleb128 0x1a
 6838 1dc7 00000000 		.4byte	.LASF80
 6839 1dcb 00000000 		.4byte	.LASF80
 6840 1dcf 11       		.byte	0x11
 6841 1dd0 10       		.byte	0x10
 6842 1dd1 1A       		.uleb128 0x1a
 6843 1dd2 29050000 		.4byte	.LASF81
 6844 1dd6 29050000 		.4byte	.LASF81
 6845 1dda 12       		.byte	0x12
 6846 1ddb 3D       		.byte	0x3d
 6847 1ddc 1A       		.uleb128 0x1a
 6848 1ddd 33030000 		.4byte	.LASF82
 6849 1de1 33030000 		.4byte	.LASF82
 6850 1de5 09       		.byte	0x9
 6851 1de6 54       		.byte	0x54
 6852 1de7 1A       		.uleb128 0x1a
 6853 1de8 B5020000 		.4byte	.LASF83
 6854 1dec B5020000 		.4byte	.LASF83
 6855 1df0 13       		.byte	0x13
 6856 1df1 3A       		.byte	0x3a
 6857 1df2 1A       		.uleb128 0x1a
 6858 1df3 DE040000 		.4byte	.LASF84
 6859 1df7 DE040000 		.4byte	.LASF84
 6860 1dfb 14       		.byte	0x14
 6861 1dfc 3C       		.byte	0x3c
 6862 1dfd 1A       		.uleb128 0x1a
 6863 1dfe 5A040000 		.4byte	.LASF85
 6864 1e02 5A040000 		.4byte	.LASF85
 6865 1e06 14       		.byte	0x14
 6866 1e07 40       		.byte	0x40
 6867 1e08 1A       		.uleb128 0x1a
 6868 1e09 CD050000 		.4byte	.LASF86
 6869 1e0d CD050000 		.4byte	.LASF86
 6870 1e11 14       		.byte	0x14
 6871 1e12 41       		.byte	0x41
 6872 1e13 1A       		.uleb128 0x1a
 6873 1e14 A2040000 		.4byte	.LASF87
 6874 1e18 A2040000 		.4byte	.LASF87
 6875 1e1c 15       		.byte	0x15
ARM GAS  C:\Users\Misha\AppData\Local\Temp\ccIfQyo5.s 			page 140


 6876 1e1d 2F       		.byte	0x2f
 6877 1e1e 1A       		.uleb128 0x1a
 6878 1e1f B6010000 		.4byte	.LASF88
 6879 1e23 B6010000 		.4byte	.LASF88
 6880 1e27 16       		.byte	0x16
 6881 1e28 92       		.byte	0x92
 6882 1e29 1A       		.uleb128 0x1a
 6883 1e2a 6D030000 		.4byte	.LASF89
 6884 1e2e 6D030000 		.4byte	.LASF89
 6885 1e32 16       		.byte	0x16
 6886 1e33 C3       		.byte	0xc3
 6887 1e34 1A       		.uleb128 0x1a
 6888 1e35 86010000 		.4byte	.LASF90
 6889 1e39 86010000 		.4byte	.LASF90
 6890 1e3d 16       		.byte	0x16
 6891 1e3e DC       		.byte	0xdc
 6892 1e3f 1A       		.uleb128 0x1a
 6893 1e40 FE010000 		.4byte	.LASF91
 6894 1e44 FE010000 		.4byte	.LASF91
 6895 1e48 17       		.byte	0x17
 6896 1e49 92       		.byte	0x92
 6897 1e4a 1A       		.uleb128 0x1a
 6898 1e4b 0A050000 		.4byte	.LASF92
 6899 1e4f 0A050000 		.4byte	.LASF92
 6900 1e53 17       		.byte	0x17
 6901 1e54 C3       		.byte	0xc3
 6902 1e55 1A       		.uleb128 0x1a
 6903 1e56 D7010000 		.4byte	.LASF93
 6904 1e5a D7010000 		.4byte	.LASF93
 6905 1e5e 17       		.byte	0x17
 6906 1e5f DC       		.byte	0xdc
 6907 1e60 1A       		.uleb128 0x1a
 6908 1e61 00040000 		.4byte	.LASF94
 6909 1e65 00040000 		.4byte	.LASF94
 6910 1e69 0A       		.byte	0xa
 6911 1e6a 92       		.byte	0x92
 6912 1e6b 1A       		.uleb128 0x1a
 6913 1e6c DD020000 		.4byte	.LASF95
 6914 1e70 DD020000 		.4byte	.LASF95
 6915 1e74 0B       		.byte	0xb
 6916 1e75 92       		.byte	0x92
 6917 1e76 1A       		.uleb128 0x1a
 6918 1e77 15010000 		.4byte	.LASF96
 6919 1e7b 15010000 		.4byte	.LASF96
 6920 1e7f 18       		.byte	0x18
 6921 1e80 48       		.byte	0x48
 6922 1e81 1A       		.uleb128 0x1a
 6923 1e82 D2000000 		.4byte	.LASF97
 6924 1e86 D2000000 		.4byte	.LASF97
 6925 1e8a 19       		.byte	0x19
 6926 1e8b 48       		.byte	0x48
 6927 1e8c 1A       		.uleb128 0x1a
 6928 1e8d 92050000 		.4byte	.LASF98
 6929 1e91 92050000 		.4byte	.LASF98
 6930 1e95 1A       		.byte	0x1a
 6931 1e96 5A       		.byte	0x5a
 6932 1e97 1A       		.uleb128 0x1a
ARM GAS  C:\Users\Misha\AppData\Local\Temp\ccIfQyo5.s 			page 141


 6933 1e98 9B010000 		.4byte	.LASF99
 6934 1e9c 9B010000 		.4byte	.LASF99
 6935 1ea0 1A       		.byte	0x1a
 6936 1ea1 5E       		.byte	0x5e
 6937 1ea2 1A       		.uleb128 0x1a
 6938 1ea3 C4000000 		.4byte	.LASF100
 6939 1ea7 C4000000 		.4byte	.LASF100
 6940 1eab 1B       		.byte	0x1b
 6941 1eac 18       		.byte	0x18
 6942 1ead 1A       		.uleb128 0x1a
 6943 1eae F6050000 		.4byte	.LASF101
 6944 1eb2 F6050000 		.4byte	.LASF101
 6945 1eb6 1C       		.byte	0x1c
 6946 1eb7 18       		.byte	0x18
 6947 1eb8 1A       		.uleb128 0x1a
 6948 1eb9 65010000 		.4byte	.LASF102
 6949 1ebd 65010000 		.4byte	.LASF102
 6950 1ec1 1D       		.byte	0x1d
 6951 1ec2 18       		.byte	0x18
 6952 1ec3 1A       		.uleb128 0x1a
 6953 1ec4 D9060000 		.4byte	.LASF103
 6954 1ec8 D9060000 		.4byte	.LASF103
 6955 1ecc 06       		.byte	0x6
 6956 1ecd 18       		.byte	0x18
 6957 1ece 1A       		.uleb128 0x1a
 6958 1ecf 08000000 		.4byte	.LASF104
 6959 1ed3 08000000 		.4byte	.LASF104
 6960 1ed7 1E       		.byte	0x1e
 6961 1ed8 5A       		.byte	0x5a
 6962 1ed9 1A       		.uleb128 0x1a
 6963 1eda EC000000 		.4byte	.LASF105
 6964 1ede EC000000 		.4byte	.LASF105
 6965 1ee2 1E       		.byte	0x1e
 6966 1ee3 5E       		.byte	0x5e
 6967 1ee4 00       		.byte	0
 6968              		.section	.debug_abbrev,"",%progbits
 6969              	.Ldebug_abbrev0:
 6970 0000 01       		.uleb128 0x1
 6971 0001 11       		.uleb128 0x11
 6972 0002 01       		.byte	0x1
 6973 0003 25       		.uleb128 0x25
 6974 0004 0E       		.uleb128 0xe
 6975 0005 13       		.uleb128 0x13
 6976 0006 0B       		.uleb128 0xb
 6977 0007 03       		.uleb128 0x3
 6978 0008 0E       		.uleb128 0xe
 6979 0009 1B       		.uleb128 0x1b
 6980 000a 0E       		.uleb128 0xe
 6981 000b 55       		.uleb128 0x55
 6982 000c 17       		.uleb128 0x17
 6983 000d 11       		.uleb128 0x11
 6984 000e 01       		.uleb128 0x1
 6985 000f 10       		.uleb128 0x10
 6986 0010 17       		.uleb128 0x17
 6987 0011 00       		.byte	0
 6988 0012 00       		.byte	0
 6989 0013 02       		.uleb128 0x2
ARM GAS  C:\Users\Misha\AppData\Local\Temp\ccIfQyo5.s 			page 142


 6990 0014 24       		.uleb128 0x24
 6991 0015 00       		.byte	0
 6992 0016 0B       		.uleb128 0xb
 6993 0017 0B       		.uleb128 0xb
 6994 0018 3E       		.uleb128 0x3e
 6995 0019 0B       		.uleb128 0xb
 6996 001a 03       		.uleb128 0x3
 6997 001b 0E       		.uleb128 0xe
 6998 001c 00       		.byte	0
 6999 001d 00       		.byte	0
 7000 001e 03       		.uleb128 0x3
 7001 001f 16       		.uleb128 0x16
 7002 0020 00       		.byte	0
 7003 0021 03       		.uleb128 0x3
 7004 0022 0E       		.uleb128 0xe
 7005 0023 3A       		.uleb128 0x3a
 7006 0024 0B       		.uleb128 0xb
 7007 0025 3B       		.uleb128 0x3b
 7008 0026 0B       		.uleb128 0xb
 7009 0027 49       		.uleb128 0x49
 7010 0028 13       		.uleb128 0x13
 7011 0029 00       		.byte	0
 7012 002a 00       		.byte	0
 7013 002b 04       		.uleb128 0x4
 7014 002c 24       		.uleb128 0x24
 7015 002d 00       		.byte	0
 7016 002e 0B       		.uleb128 0xb
 7017 002f 0B       		.uleb128 0xb
 7018 0030 3E       		.uleb128 0x3e
 7019 0031 0B       		.uleb128 0xb
 7020 0032 03       		.uleb128 0x3
 7021 0033 08       		.uleb128 0x8
 7022 0034 00       		.byte	0
 7023 0035 00       		.byte	0
 7024 0036 05       		.uleb128 0x5
 7025 0037 2E       		.uleb128 0x2e
 7026 0038 01       		.byte	0x1
 7027 0039 3F       		.uleb128 0x3f
 7028 003a 19       		.uleb128 0x19
 7029 003b 03       		.uleb128 0x3
 7030 003c 08       		.uleb128 0x8
 7031 003d 3A       		.uleb128 0x3a
 7032 003e 0B       		.uleb128 0xb
 7033 003f 3B       		.uleb128 0x3b
 7034 0040 0B       		.uleb128 0xb
 7035 0041 27       		.uleb128 0x27
 7036 0042 19       		.uleb128 0x19
 7037 0043 11       		.uleb128 0x11
 7038 0044 01       		.uleb128 0x1
 7039 0045 12       		.uleb128 0x12
 7040 0046 06       		.uleb128 0x6
 7041 0047 40       		.uleb128 0x40
 7042 0048 18       		.uleb128 0x18
 7043 0049 9742     		.uleb128 0x2117
 7044 004b 19       		.uleb128 0x19
 7045 004c 01       		.uleb128 0x1
 7046 004d 13       		.uleb128 0x13
ARM GAS  C:\Users\Misha\AppData\Local\Temp\ccIfQyo5.s 			page 143


 7047 004e 00       		.byte	0
 7048 004f 00       		.byte	0
 7049 0050 06       		.uleb128 0x6
 7050 0051 898201   		.uleb128 0x4109
 7051 0054 00       		.byte	0
 7052 0055 11       		.uleb128 0x11
 7053 0056 01       		.uleb128 0x1
 7054 0057 31       		.uleb128 0x31
 7055 0058 13       		.uleb128 0x13
 7056 0059 00       		.byte	0
 7057 005a 00       		.byte	0
 7058 005b 07       		.uleb128 0x7
 7059 005c 2E       		.uleb128 0x2e
 7060 005d 01       		.byte	0x1
 7061 005e 3F       		.uleb128 0x3f
 7062 005f 19       		.uleb128 0x19
 7063 0060 03       		.uleb128 0x3
 7064 0061 0E       		.uleb128 0xe
 7065 0062 3A       		.uleb128 0x3a
 7066 0063 0B       		.uleb128 0xb
 7067 0064 3B       		.uleb128 0x3b
 7068 0065 0B       		.uleb128 0xb
 7069 0066 27       		.uleb128 0x27
 7070 0067 19       		.uleb128 0x19
 7071 0068 11       		.uleb128 0x11
 7072 0069 01       		.uleb128 0x1
 7073 006a 12       		.uleb128 0x12
 7074 006b 06       		.uleb128 0x6
 7075 006c 40       		.uleb128 0x40
 7076 006d 18       		.uleb128 0x18
 7077 006e 9742     		.uleb128 0x2117
 7078 0070 19       		.uleb128 0x19
 7079 0071 01       		.uleb128 0x1
 7080 0072 13       		.uleb128 0x13
 7081 0073 00       		.byte	0
 7082 0074 00       		.byte	0
 7083 0075 08       		.uleb128 0x8
 7084 0076 898201   		.uleb128 0x4109
 7085 0079 01       		.byte	0x1
 7086 007a 11       		.uleb128 0x11
 7087 007b 01       		.uleb128 0x1
 7088 007c 31       		.uleb128 0x31
 7089 007d 13       		.uleb128 0x13
 7090 007e 01       		.uleb128 0x1
 7091 007f 13       		.uleb128 0x13
 7092 0080 00       		.byte	0
 7093 0081 00       		.byte	0
 7094 0082 09       		.uleb128 0x9
 7095 0083 8A8201   		.uleb128 0x410a
 7096 0086 00       		.byte	0
 7097 0087 02       		.uleb128 0x2
 7098 0088 18       		.uleb128 0x18
 7099 0089 9142     		.uleb128 0x2111
 7100 008b 18       		.uleb128 0x18
 7101 008c 00       		.byte	0
 7102 008d 00       		.byte	0
 7103 008e 0A       		.uleb128 0xa
ARM GAS  C:\Users\Misha\AppData\Local\Temp\ccIfQyo5.s 			page 144


 7104 008f 898201   		.uleb128 0x4109
 7105 0092 01       		.byte	0x1
 7106 0093 11       		.uleb128 0x11
 7107 0094 01       		.uleb128 0x1
 7108 0095 31       		.uleb128 0x31
 7109 0096 13       		.uleb128 0x13
 7110 0097 00       		.byte	0
 7111 0098 00       		.byte	0
 7112 0099 0B       		.uleb128 0xb
 7113 009a 2E       		.uleb128 0x2e
 7114 009b 01       		.byte	0x1
 7115 009c 3F       		.uleb128 0x3f
 7116 009d 19       		.uleb128 0x19
 7117 009e 03       		.uleb128 0x3
 7118 009f 0E       		.uleb128 0xe
 7119 00a0 3A       		.uleb128 0x3a
 7120 00a1 0B       		.uleb128 0xb
 7121 00a2 3B       		.uleb128 0x3b
 7122 00a3 0B       		.uleb128 0xb
 7123 00a4 27       		.uleb128 0x27
 7124 00a5 19       		.uleb128 0x19
 7125 00a6 49       		.uleb128 0x49
 7126 00a7 13       		.uleb128 0x13
 7127 00a8 8701     		.uleb128 0x87
 7128 00aa 19       		.uleb128 0x19
 7129 00ab 11       		.uleb128 0x11
 7130 00ac 01       		.uleb128 0x1
 7131 00ad 12       		.uleb128 0x12
 7132 00ae 06       		.uleb128 0x6
 7133 00af 40       		.uleb128 0x40
 7134 00b0 18       		.uleb128 0x18
 7135 00b1 9642     		.uleb128 0x2116
 7136 00b3 19       		.uleb128 0x19
 7137 00b4 01       		.uleb128 0x1
 7138 00b5 13       		.uleb128 0x13
 7139 00b6 00       		.byte	0
 7140 00b7 00       		.byte	0
 7141 00b8 0C       		.uleb128 0xc
 7142 00b9 34       		.uleb128 0x34
 7143 00ba 00       		.byte	0
 7144 00bb 03       		.uleb128 0x3
 7145 00bc 0E       		.uleb128 0xe
 7146 00bd 3A       		.uleb128 0x3a
 7147 00be 0B       		.uleb128 0xb
 7148 00bf 3B       		.uleb128 0x3b
 7149 00c0 0B       		.uleb128 0xb
 7150 00c1 49       		.uleb128 0x49
 7151 00c2 13       		.uleb128 0x13
 7152 00c3 1C       		.uleb128 0x1c
 7153 00c4 0B       		.uleb128 0xb
 7154 00c5 00       		.byte	0
 7155 00c6 00       		.byte	0
 7156 00c7 0D       		.uleb128 0xd
 7157 00c8 0B       		.uleb128 0xb
 7158 00c9 01       		.byte	0x1
 7159 00ca 11       		.uleb128 0x11
 7160 00cb 01       		.uleb128 0x1
ARM GAS  C:\Users\Misha\AppData\Local\Temp\ccIfQyo5.s 			page 145


 7161 00cc 12       		.uleb128 0x12
 7162 00cd 06       		.uleb128 0x6
 7163 00ce 01       		.uleb128 0x1
 7164 00cf 13       		.uleb128 0x13
 7165 00d0 00       		.byte	0
 7166 00d1 00       		.byte	0
 7167 00d2 0E       		.uleb128 0xe
 7168 00d3 34       		.uleb128 0x34
 7169 00d4 00       		.byte	0
 7170 00d5 03       		.uleb128 0x3
 7171 00d6 0E       		.uleb128 0xe
 7172 00d7 3A       		.uleb128 0x3a
 7173 00d8 0B       		.uleb128 0xb
 7174 00d9 3B       		.uleb128 0x3b
 7175 00da 05       		.uleb128 0x5
 7176 00db 49       		.uleb128 0x49
 7177 00dc 13       		.uleb128 0x13
 7178 00dd 02       		.uleb128 0x2
 7179 00de 17       		.uleb128 0x17
 7180 00df 00       		.byte	0
 7181 00e0 00       		.byte	0
 7182 00e1 0F       		.uleb128 0xf
 7183 00e2 34       		.uleb128 0x34
 7184 00e3 00       		.byte	0
 7185 00e4 03       		.uleb128 0x3
 7186 00e5 08       		.uleb128 0x8
 7187 00e6 3A       		.uleb128 0x3a
 7188 00e7 0B       		.uleb128 0xb
 7189 00e8 3B       		.uleb128 0x3b
 7190 00e9 0B       		.uleb128 0xb
 7191 00ea 49       		.uleb128 0x49
 7192 00eb 13       		.uleb128 0x13
 7193 00ec 02       		.uleb128 0x2
 7194 00ed 17       		.uleb128 0x17
 7195 00ee 00       		.byte	0
 7196 00ef 00       		.byte	0
 7197 00f0 10       		.uleb128 0x10
 7198 00f1 34       		.uleb128 0x34
 7199 00f2 00       		.byte	0
 7200 00f3 03       		.uleb128 0x3
 7201 00f4 08       		.uleb128 0x8
 7202 00f5 3A       		.uleb128 0x3a
 7203 00f6 0B       		.uleb128 0xb
 7204 00f7 3B       		.uleb128 0x3b
 7205 00f8 05       		.uleb128 0x5
 7206 00f9 49       		.uleb128 0x49
 7207 00fa 13       		.uleb128 0x13
 7208 00fb 02       		.uleb128 0x2
 7209 00fc 17       		.uleb128 0x17
 7210 00fd 00       		.byte	0
 7211 00fe 00       		.byte	0
 7212 00ff 11       		.uleb128 0x11
 7213 0100 0B       		.uleb128 0xb
 7214 0101 01       		.byte	0x1
 7215 0102 55       		.uleb128 0x55
 7216 0103 17       		.uleb128 0x17
 7217 0104 01       		.uleb128 0x1
ARM GAS  C:\Users\Misha\AppData\Local\Temp\ccIfQyo5.s 			page 146


 7218 0105 13       		.uleb128 0x13
 7219 0106 00       		.byte	0
 7220 0107 00       		.byte	0
 7221 0108 12       		.uleb128 0x12
 7222 0109 34       		.uleb128 0x34
 7223 010a 00       		.byte	0
 7224 010b 03       		.uleb128 0x3
 7225 010c 0E       		.uleb128 0xe
 7226 010d 3A       		.uleb128 0x3a
 7227 010e 0B       		.uleb128 0xb
 7228 010f 3B       		.uleb128 0x3b
 7229 0110 05       		.uleb128 0x5
 7230 0111 49       		.uleb128 0x49
 7231 0112 13       		.uleb128 0x13
 7232 0113 00       		.byte	0
 7233 0114 00       		.byte	0
 7234 0115 13       		.uleb128 0x13
 7235 0116 34       		.uleb128 0x34
 7236 0117 00       		.byte	0
 7237 0118 03       		.uleb128 0x3
 7238 0119 0E       		.uleb128 0xe
 7239 011a 3A       		.uleb128 0x3a
 7240 011b 0B       		.uleb128 0xb
 7241 011c 3B       		.uleb128 0x3b
 7242 011d 05       		.uleb128 0x5
 7243 011e 49       		.uleb128 0x49
 7244 011f 13       		.uleb128 0x13
 7245 0120 3F       		.uleb128 0x3f
 7246 0121 19       		.uleb128 0x19
 7247 0122 3C       		.uleb128 0x3c
 7248 0123 19       		.uleb128 0x19
 7249 0124 00       		.byte	0
 7250 0125 00       		.byte	0
 7251 0126 14       		.uleb128 0x14
 7252 0127 35       		.uleb128 0x35
 7253 0128 00       		.byte	0
 7254 0129 49       		.uleb128 0x49
 7255 012a 13       		.uleb128 0x13
 7256 012b 00       		.byte	0
 7257 012c 00       		.byte	0
 7258 012d 15       		.uleb128 0x15
 7259 012e 34       		.uleb128 0x34
 7260 012f 00       		.byte	0
 7261 0130 03       		.uleb128 0x3
 7262 0131 0E       		.uleb128 0xe
 7263 0132 3A       		.uleb128 0x3a
 7264 0133 0B       		.uleb128 0xb
 7265 0134 3B       		.uleb128 0x3b
 7266 0135 0B       		.uleb128 0xb
 7267 0136 49       		.uleb128 0x49
 7268 0137 13       		.uleb128 0x13
 7269 0138 3F       		.uleb128 0x3f
 7270 0139 19       		.uleb128 0x19
 7271 013a 02       		.uleb128 0x2
 7272 013b 18       		.uleb128 0x18
 7273 013c 00       		.byte	0
 7274 013d 00       		.byte	0
ARM GAS  C:\Users\Misha\AppData\Local\Temp\ccIfQyo5.s 			page 147


 7275 013e 16       		.uleb128 0x16
 7276 013f 01       		.uleb128 0x1
 7277 0140 01       		.byte	0x1
 7278 0141 49       		.uleb128 0x49
 7279 0142 13       		.uleb128 0x13
 7280 0143 01       		.uleb128 0x1
 7281 0144 13       		.uleb128 0x13
 7282 0145 00       		.byte	0
 7283 0146 00       		.byte	0
 7284 0147 17       		.uleb128 0x17
 7285 0148 21       		.uleb128 0x21
 7286 0149 00       		.byte	0
 7287 014a 49       		.uleb128 0x49
 7288 014b 13       		.uleb128 0x13
 7289 014c 2F       		.uleb128 0x2f
 7290 014d 0B       		.uleb128 0xb
 7291 014e 00       		.byte	0
 7292 014f 00       		.byte	0
 7293 0150 18       		.uleb128 0x18
 7294 0151 34       		.uleb128 0x34
 7295 0152 00       		.byte	0
 7296 0153 03       		.uleb128 0x3
 7297 0154 0E       		.uleb128 0xe
 7298 0155 3A       		.uleb128 0x3a
 7299 0156 0B       		.uleb128 0xb
 7300 0157 3B       		.uleb128 0x3b
 7301 0158 0B       		.uleb128 0xb
 7302 0159 49       		.uleb128 0x49
 7303 015a 13       		.uleb128 0x13
 7304 015b 3F       		.uleb128 0x3f
 7305 015c 19       		.uleb128 0x19
 7306 015d 3C       		.uleb128 0x3c
 7307 015e 19       		.uleb128 0x19
 7308 015f 00       		.byte	0
 7309 0160 00       		.byte	0
 7310 0161 19       		.uleb128 0x19
 7311 0162 26       		.uleb128 0x26
 7312 0163 00       		.byte	0
 7313 0164 49       		.uleb128 0x49
 7314 0165 13       		.uleb128 0x13
 7315 0166 00       		.byte	0
 7316 0167 00       		.byte	0
 7317 0168 1A       		.uleb128 0x1a
 7318 0169 2E       		.uleb128 0x2e
 7319 016a 00       		.byte	0
 7320 016b 3F       		.uleb128 0x3f
 7321 016c 19       		.uleb128 0x19
 7322 016d 3C       		.uleb128 0x3c
 7323 016e 19       		.uleb128 0x19
 7324 016f 6E       		.uleb128 0x6e
 7325 0170 0E       		.uleb128 0xe
 7326 0171 03       		.uleb128 0x3
 7327 0172 0E       		.uleb128 0xe
 7328 0173 3A       		.uleb128 0x3a
 7329 0174 0B       		.uleb128 0xb
 7330 0175 3B       		.uleb128 0x3b
 7331 0176 0B       		.uleb128 0xb
ARM GAS  C:\Users\Misha\AppData\Local\Temp\ccIfQyo5.s 			page 148


 7332 0177 00       		.byte	0
 7333 0178 00       		.byte	0
 7334 0179 00       		.byte	0
 7335              		.section	.debug_loc,"",%progbits
 7336              	.Ldebug_loc0:
 7337              	.LLST0:
 7338 0000 DE010000 		.4byte	.LVL79
 7339 0004 E4010000 		.4byte	.LVL80
 7340 0008 0200     		.2byte	0x2
 7341 000a 30       		.byte	0x30
 7342 000b 9F       		.byte	0x9f
 7343 000c E4010000 		.4byte	.LVL80
 7344 0010 04020000 		.4byte	.LVL83
 7345 0014 0100     		.2byte	0x1
 7346 0016 52       		.byte	0x52
 7347 0017 00000000 		.4byte	0
 7348 001b 00000000 		.4byte	0
 7349              	.LLST1:
 7350 001f 78010000 		.4byte	.LVL65
 7351 0023 7C010000 		.4byte	.LVL66
 7352 0027 0200     		.2byte	0x2
 7353 0029 30       		.byte	0x30
 7354 002a 9F       		.byte	0x9f
 7355 002b 7C010000 		.4byte	.LVL66
 7356 002f B2010000 		.4byte	.LVL73
 7357 0033 0100     		.2byte	0x1
 7358 0035 54       		.byte	0x54
 7359 0036 00000000 		.4byte	0
 7360 003a 00000000 		.4byte	0
 7361              	.LLST2:
 7362 003e B0010000 		.4byte	.LVL72
 7363 0042 B4010000 		.4byte	.LVL74
 7364 0046 0200     		.2byte	0x2
 7365 0048 30       		.byte	0x30
 7366 0049 9F       		.byte	0x9f
 7367 004a B4010000 		.4byte	.LVL74
 7368 004e 08020000 		.4byte	.LVL85
 7369 0052 0100     		.2byte	0x1
 7370 0054 54       		.byte	0x54
 7371 0055 00000000 		.4byte	0
 7372 0059 00000000 		.4byte	0
 7373              	.LLST3:
 7374 005d DE010000 		.4byte	.LVL79
 7375 0061 E4010000 		.4byte	.LVL80
 7376 0065 0200     		.2byte	0x2
 7377 0067 30       		.byte	0x30
 7378 0068 9F       		.byte	0x9f
 7379 0069 E4010000 		.4byte	.LVL80
 7380 006d 06020000 		.4byte	.LVL84
 7381 0071 0100     		.2byte	0x1
 7382 0073 53       		.byte	0x53
 7383 0074 00000000 		.4byte	0
 7384 0078 00000000 		.4byte	0
 7385              	.LLST4:
 7386 007c 98020000 		.4byte	.LVL94
 7387 0080 C8030000 		.4byte	.LVL124
 7388 0084 0100     		.2byte	0x1
ARM GAS  C:\Users\Misha\AppData\Local\Temp\ccIfQyo5.s 			page 149


 7389 0086 55       		.byte	0x55
 7390 0087 98040000 		.4byte	.LVL140
 7391 008b CC050000 		.4byte	.LVL171
 7392 008f 0100     		.2byte	0x1
 7393 0091 55       		.byte	0x55
 7394 0092 00000000 		.4byte	0
 7395 0096 00000000 		.4byte	0
 7396              	.LLST5:
 7397 009a 9E020000 		.4byte	.LVL95
 7398 009e D0050000 		.4byte	.LVL172
 7399 00a2 0100     		.2byte	0x1
 7400 00a4 54       		.byte	0x54
 7401 00a5 00000000 		.4byte	0
 7402 00a9 00000000 		.4byte	0
 7403              	.LLST6:
 7404 00ad A8030000 		.4byte	.LVL120
 7405 00b1 B2030000 		.4byte	.LVL121
 7406 00b5 0100     		.2byte	0x1
 7407 00b7 50       		.byte	0x50
 7408 00b8 B2030000 		.4byte	.LVL121
 7409 00bc D8030000 		.4byte	.LVL125
 7410 00c0 0100     		.2byte	0x1
 7411 00c2 57       		.byte	0x57
 7412 00c3 34040000 		.4byte	.LVL135
 7413 00c7 3A040000 		.4byte	.LVL136
 7414 00cb 0100     		.2byte	0x1
 7415 00cd 50       		.byte	0x50
 7416 00ce 00000000 		.4byte	0
 7417 00d2 00000000 		.4byte	0
 7418              	.LLST7:
 7419 00d6 C6040000 		.4byte	.LVL147
 7420 00da D2040000 		.4byte	.LVL148
 7421 00de 0100     		.2byte	0x1
 7422 00e0 50       		.byte	0x50
 7423 00e1 D2040000 		.4byte	.LVL148
 7424 00e5 02050000 		.4byte	.LVL153
 7425 00e9 0100     		.2byte	0x1
 7426 00eb 58       		.byte	0x58
 7427 00ec 50050000 		.4byte	.LVL160
 7428 00f0 56050000 		.4byte	.LVL161
 7429 00f4 0100     		.2byte	0x1
 7430 00f6 50       		.byte	0x50
 7431 00f7 00000000 		.4byte	0
 7432 00fb 00000000 		.4byte	0
 7433              	.LLST8:
 7434 00ff 80080000 		.4byte	.LVL219
 7435 0103 B4080000 		.4byte	.LVL225
 7436 0107 0200     		.2byte	0x2
 7437 0109 31       		.byte	0x31
 7438 010a 9F       		.byte	0x9f
 7439 010b 00000000 		.4byte	0
 7440 010f 00000000 		.4byte	0
 7441              	.LLST9:
 7442 0113 7E0A0000 		.4byte	.LVL258
 7443 0117 980A0000 		.4byte	.LVL259
 7444 011b 0100     		.2byte	0x1
 7445 011d 52       		.byte	0x52
ARM GAS  C:\Users\Misha\AppData\Local\Temp\ccIfQyo5.s 			page 150


 7446 011e 980A0000 		.4byte	.LVL259
 7447 0122 A10A0000 		.4byte	.LVL260-1
 7448 0126 0500     		.2byte	0x5
 7449 0128 03       		.byte	0x3
 7450 0129 00000000 		.4byte	current_stage
 7451 012d 00000000 		.4byte	0
 7452 0131 00000000 		.4byte	0
 7453              		.section	.debug_aranges,"",%progbits
 7454 0000 34000000 		.4byte	0x34
 7455 0004 0200     		.2byte	0x2
 7456 0006 00000000 		.4byte	.Ldebug_info0
 7457 000a 04       		.byte	0x4
 7458 000b 00       		.byte	0
 7459 000c 0000     		.2byte	0
 7460 000e 0000     		.2byte	0
 7461 0010 00000000 		.4byte	.LFB64
 7462 0014 08000000 		.4byte	.LFE64-.LFB64
 7463 0018 00000000 		.4byte	.LFB65
 7464 001c 24000000 		.4byte	.LFE65-.LFB65
 7465 0020 00000000 		.4byte	.LFB66
 7466 0024 36000000 		.4byte	.LFE66-.LFB66
 7467 0028 00000000 		.4byte	.LFB67
 7468 002c 200C0000 		.4byte	.LFE67-.LFB67
 7469 0030 00000000 		.4byte	0
 7470 0034 00000000 		.4byte	0
 7471              		.section	.debug_ranges,"",%progbits
 7472              	.Ldebug_ranges0:
 7473 0000 DE010000 		.4byte	.LBB5
 7474 0004 E0010000 		.4byte	.LBE5
 7475 0008 E2010000 		.4byte	.LBB6
 7476 000c 02020000 		.4byte	.LBE6
 7477 0010 00000000 		.4byte	0
 7478 0014 00000000 		.4byte	0
 7479 0018 00000000 		.4byte	.LFB64
 7480 001c 08000000 		.4byte	.LFE64
 7481 0020 00000000 		.4byte	.LFB65
 7482 0024 24000000 		.4byte	.LFE65
 7483 0028 00000000 		.4byte	.LFB66
 7484 002c 36000000 		.4byte	.LFE66
 7485 0030 00000000 		.4byte	.LFB67
 7486 0034 200C0000 		.4byte	.LFE67
 7487 0038 00000000 		.4byte	0
 7488 003c 00000000 		.4byte	0
 7489              		.section	.debug_line,"",%progbits
 7490              	.Ldebug_line0:
 7491 0000 5D050000 		.section	.debug_str,"MS",%progbits,1
 7491      02004503 
 7491      00000201 
 7491      FB0E0D00 
 7491      01010101 
 7492              	.LASF80:
 7493 0000 61726D4F 		.ascii	"armOpen\000"
 7493      70656E00 
 7494              	.LASF104:
 7495 0008 54696D65 		.ascii	"Timer_straight_adjust_Start\000"
 7495      725F7374 
 7495      72616967 
ARM GAS  C:\Users\Misha\AppData\Local\Temp\ccIfQyo5.s 			page 151


 7495      68745F61 
 7495      646A7573 
 7496              	.LASF67:
 7497 0024 756C7469 		.ascii	"ultimateDebugging\000"
 7497      6D617465 
 7497      44656275 
 7497      6767696E 
 7497      6700
 7498              	.LASF63:
 7499 0036 4D6F746F 		.ascii	"Motor_Right_Driver_WriteCompare\000"
 7499      725F5269 
 7499      6768745F 
 7499      44726976 
 7499      65725F57 
 7500              	.LASF50:
 7501 0056 7075636B 		.ascii	"puck_west_clearance\000"
 7501      5F776573 
 7501      745F636C 
 7501      65617261 
 7501      6E636500 
 7502              	.LASF64:
 7503 006a 636F6C6F 		.ascii	"colourSensingOutput\000"
 7503      75725365 
 7503      6E73696E 
 7503      674F7574 
 7503      70757400 
 7504              	.LASF70:
 7505 007e 636F6C6F 		.ascii	"colourSensingInitialise\000"
 7505      75725365 
 7505      6E73696E 
 7505      67496E69 
 7505      7469616C 
 7506              	.LASF68:
 7507 0096 73747261 		.ascii	"straightAdjust\000"
 7507      69676874 
 7507      41646A75 
 7507      737400
 7508              	.LASF2:
 7509 00a5 73686F72 		.ascii	"short int\000"
 7509      7420696E 
 7509      7400
 7510              	.LASF47:
 7511 00af 626C6F63 		.ascii	"block_east_clearance\000"
 7511      6B5F6561 
 7511      73745F63 
 7511      6C656172 
 7511      616E6365 
 7512              	.LASF100:
 7513 00c4 536F6E69 		.ascii	"Sonic_StartEx\000"
 7513      635F5374 
 7513      61727445 
 7513      7800
 7514              	.LASF97:
 7515 00d2 4D6F746F 		.ascii	"Motor_Right_Decoder_Start\000"
 7515      725F5269 
 7515      6768745F 
 7515      4465636F 
ARM GAS  C:\Users\Misha\AppData\Local\Temp\ccIfQyo5.s 			page 152


 7515      6465725F 
 7516              	.LASF105:
 7517 00ec 54696D65 		.ascii	"Timer_straight_adjust_ReadStatusRegister\000"
 7517      725F7374 
 7517      72616967 
 7517      68745F61 
 7517      646A7573 
 7518              	.LASF96:
 7519 0115 4D6F746F 		.ascii	"Motor_Left_Decoder_Start\000"
 7519      725F4C65 
 7519      66745F44 
 7519      65636F64 
 7519      65725F53 
 7520              	.LASF14:
 7521 012e 6C6F6E67 		.ascii	"long double\000"
 7521      20646F75 
 7521      626C6500 
 7522              	.LASF49:
 7523 013a 7075636B 		.ascii	"puck_east_clearance\000"
 7523      5F656173 
 7523      745F636C 
 7523      65617261 
 7523      6E636500 
 7524              	.LASF45:
 7525 014e 7075636B 		.ascii	"puck_temp_pile\000"
 7525      5F74656D 
 7525      705F7069 
 7525      6C6500
 7526              	.LASF16:
 7527 015d 53746172 		.ascii	"StartIH\000"
 7527      74494800 
 7528              	.LASF102:
 7529 0165 53747261 		.ascii	"Straight_StartEx\000"
 7529      69676874 
 7529      5F537461 
 7529      72744578 
 7529      00
 7530              	.LASF37:
 7531 0176 756C7472 		.ascii	"ultrasonic_flag\000"
 7531      61736F6E 
 7531      69635F66 
 7531      6C616700 
 7532              	.LASF90:
 7533 0186 5261636B 		.ascii	"Rack_Servo_PWM_Sleep\000"
 7533      5F536572 
 7533      766F5F50 
 7533      574D5F53 
 7533      6C656570 
 7534              	.LASF99:
 7535 019b 54696D65 		.ascii	"Timer_1_ReadStatusRegister\000"
 7535      725F315F 
 7535      52656164 
 7535      53746174 
 7535      75735265 
 7536              	.LASF88:
 7537 01b6 5261636B 		.ascii	"Rack_Servo_PWM_Start\000"
 7537      5F536572 
ARM GAS  C:\Users\Misha\AppData\Local\Temp\ccIfQyo5.s 			page 153


 7537      766F5F50 
 7537      574D5F53 
 7537      74617274 
 7538              	.LASF59:
 7539 01cb 6D6F7665 		.ascii	"moveDynamic\000"
 7539      44796E61 
 7539      6D696300 
 7540              	.LASF93:
 7541 01d7 47726970 		.ascii	"Gripper_Servo_PWM_Sleep\000"
 7541      7065725F 
 7541      53657276 
 7541      6F5F5057 
 7541      4D5F536C 
 7542              	.LASF42:
 7543 01ef 626C6F63 		.ascii	"block_location\000"
 7543      6B5F6C6F 
 7543      63617469 
 7543      6F6E00
 7544              	.LASF91:
 7545 01fe 47726970 		.ascii	"Gripper_Servo_PWM_Start\000"
 7545      7065725F 
 7545      53657276 
 7545      6F5F5057 
 7545      4D5F5374 
 7546              	.LASF24:
 7547 0216 7075636B 		.ascii	"puck_correct\000"
 7547      5F636F72 
 7547      72656374 
 7547      00
 7548              	.LASF54:
 7549 0223 756C7472 		.ascii	"ultrasonicInterruptHandler\000"
 7549      61736F6E 
 7549      6963496E 
 7549      74657272 
 7549      75707448 
 7550              	.LASF11:
 7551 023e 666C6F61 		.ascii	"float\000"
 7551      7400
 7552              	.LASF76:
 7553 0244 6368616E 		.ascii	"changeHeightToPuck\000"
 7553      67654865 
 7553      69676874 
 7553      546F5075 
 7553      636B00
 7554              	.LASF6:
 7555 0257 6C6F6E67 		.ascii	"long long int\000"
 7555      206C6F6E 
 7555      6720696E 
 7555      7400
 7556              	.LASF62:
 7557 0265 4D6F746F 		.ascii	"Motor_Right_Driver_Wakeup\000"
 7557      725F5269 
 7557      6768745F 
 7557      44726976 
 7557      65725F57 
 7558              	.LASF18:
 7559 027f 626C6F63 		.ascii	"block_and_puck_edge_midpoint\000"
ARM GAS  C:\Users\Misha\AppData\Local\Temp\ccIfQyo5.s 			page 154


 7559      6B5F616E 
 7559      645F7075 
 7559      636B5F65 
 7559      6467655F 
 7560              	.LASF58:
 7561 029c 4D6F746F 		.ascii	"Motor_Right_Driver_Sleep\000"
 7561      725F5269 
 7561      6768745F 
 7561      44726976 
 7561      65725F53 
 7562              	.LASF83:
 7563 02b5 4144435F 		.ascii	"ADC_Start\000"
 7563      53746172 
 7563      7400
 7564              	.LASF4:
 7565 02bf 6C6F6E67 		.ascii	"long int\000"
 7565      20696E74 
 7565      00
 7566              	.LASF27:
 7567 02c8 696E7465 		.ascii	"internal_orientation\000"
 7567      726E616C 
 7567      5F6F7269 
 7567      656E7461 
 7567      74696F6E 
 7568              	.LASF95:
 7569 02dd 4D6F746F 		.ascii	"Motor_Right_Driver_Start\000"
 7569      725F5269 
 7569      6768745F 
 7569      44726976 
 7569      65725F53 
 7570              	.LASF23:
 7571 02f6 6F666673 		.ascii	"offset\000"
 7571      657400
 7572              	.LASF19:
 7573 02fd 7075636B 		.ascii	"puck_construction_plan_index\000"
 7573      5F636F6E 
 7573      73747275 
 7573      6374696F 
 7573      6E5F706C 
 7574              	.LASF65:
 7575 031a 626C696E 		.ascii	"blinkLED\000"
 7575      6B4C4544 
 7575      00
 7576              	.LASF41:
 7577 0323 73616665 		.ascii	"safety_override\000"
 7577      74795F6F 
 7577      76657272 
 7577      69646500 
 7578              	.LASF82:
 7579 0333 55415254 		.ascii	"UART_1_Start\000"
 7579      5F315F53 
 7579      74617274 
 7579      00
 7580              	.LASF75:
 7581 0340 7472616E 		.ascii	"translateUntil\000"
 7581      736C6174 
 7581      65556E74 
ARM GAS  C:\Users\Misha\AppData\Local\Temp\ccIfQyo5.s 			page 155


 7581      696C00
 7582              	.LASF71:
 7583 034f 636F6E74 		.ascii	"control_photodiode_Write\000"
 7583      726F6C5F 
 7583      70686F74 
 7583      6F64696F 
 7583      64655F57 
 7584              	.LASF17:
 7585 0368 53414948 		.ascii	"SAIH\000"
 7585      00
 7586              	.LASF89:
 7587 036d 5261636B 		.ascii	"Rack_Servo_PWM_WriteCompare\000"
 7587      5F536572 
 7587      766F5F50 
 7587      574D5F57 
 7587      72697465 
 7588              	.LASF35:
 7589 0389 73746174 		.ascii	"state\000"
 7589      6500
 7590              	.LASF22:
 7591 038f 7075636B 		.ascii	"puck_threshold\000"
 7591      5F746872 
 7591      6573686F 
 7591      6C6400
 7592              	.LASF74:
 7593 039e 6368616E 		.ascii	"changeOrientation\000"
 7593      67654F72 
 7593      69656E74 
 7593      6174696F 
 7593      6E00
 7594              	.LASF1:
 7595 03b0 756E7369 		.ascii	"unsigned char\000"
 7595      676E6564 
 7595      20636861 
 7595      7200
 7596              	.LASF34:
 7597 03be 636F6C6F 		.ascii	"colour_flag\000"
 7597      75725F66 
 7597      6C616700 
 7598              	.LASF57:
 7599 03ca 4D6F746F 		.ascii	"Motor_Left_Driver_Sleep\000"
 7599      725F4C65 
 7599      66745F44 
 7599      72697665 
 7599      725F536C 
 7600              	.LASF28:
 7601 03e2 7075636B 		.ascii	"puck_rack_scans\000"
 7601      5F726163 
 7601      6B5F7363 
 7601      616E7300 
 7602              	.LASF77:
 7603 03f2 6D6F7665 		.ascii	"moveUntilPuck\000"
 7603      556E7469 
 7603      6C507563 
 7603      6B00
 7604              	.LASF94:
 7605 0400 4D6F746F 		.ascii	"Motor_Left_Driver_Start\000"
ARM GAS  C:\Users\Misha\AppData\Local\Temp\ccIfQyo5.s 			page 156


 7605      725F4C65 
 7605      66745F44 
 7605      72697665 
 7605      725F5374 
 7606              	.LASF43:
 7607 0418 7075636B 		.ascii	"puck_location\000"
 7607      5F6C6F63 
 7607      6174696F 
 7607      6E00
 7608              	.LASF73:
 7609 0426 7472616E 		.ascii	"translateMoveDynamic\000"
 7609      736C6174 
 7609      654D6F76 
 7609      6544796E 
 7609      616D6963 
 7610              	.LASF66:
 7611 043b 73707269 		.ascii	"sprintf\000"
 7611      6E746600 
 7612              	.LASF38:
 7613 0443 7075636B 		.ascii	"puck_construction_plan\000"
 7613      5F636F6E 
 7613      73747275 
 7613      6374696F 
 7613      6E5F706C 
 7614              	.LASF85:
 7615 045a 49444143 		.ascii	"IDAC8_1_SetRange\000"
 7615      385F315F 
 7615      53657452 
 7615      616E6765 
 7615      00
 7616              	.LASF0:
 7617 046b 7369676E 		.ascii	"signed char\000"
 7617      65642063 
 7617      68617200 
 7618              	.LASF30:
 7619 0477 626C6F63 		.ascii	"block_edge_location\000"
 7619      6B5F6564 
 7619      67655F6C 
 7619      6F636174 
 7619      696F6E00 
 7620              	.LASF7:
 7621 048b 6C6F6E67 		.ascii	"long long unsigned int\000"
 7621      206C6F6E 
 7621      6720756E 
 7621      7369676E 
 7621      65642069 
 7622              	.LASF87:
 7623 04a2 636F6E74 		.ascii	"control_led_Write\000"
 7623      726F6C5F 
 7623      6C65645F 
 7623      57726974 
 7623      6500
 7624              	.LASF8:
 7625 04b4 756E7369 		.ascii	"unsigned int\000"
 7625      676E6564 
 7625      20696E74 
 7625      00
ARM GAS  C:\Users\Misha\AppData\Local\Temp\ccIfQyo5.s 			page 157


 7626              	.LASF51:
 7627 04c1 69646163 		.ascii	"idac_value\000"
 7627      5F76616C 
 7627      756500
 7628              	.LASF5:
 7629 04cc 6C6F6E67 		.ascii	"long unsigned int\000"
 7629      20756E73 
 7629      69676E65 
 7629      6420696E 
 7629      7400
 7630              	.LASF84:
 7631 04de 49444143 		.ascii	"IDAC8_1_Start\000"
 7631      385F315F 
 7631      53746172 
 7631      7400
 7632              	.LASF21:
 7633 04ec 626C6F63 		.ascii	"block_threshold\000"
 7633      6B5F7468 
 7633      72657368 
 7633      6F6C6400 
 7634              	.LASF39:
 7635 04fc 63757272 		.ascii	"current_stage\000"
 7635      656E745F 
 7635      73746167 
 7635      6500
 7636              	.LASF92:
 7637 050a 47726970 		.ascii	"Gripper_Servo_PWM_WriteCompare\000"
 7637      7065725F 
 7637      53657276 
 7637      6F5F5057 
 7637      4D5F5772 
 7638              	.LASF81:
 7639 0529 5449415F 		.ascii	"TIA_1_Start\000"
 7639      315F5374 
 7639      61727400 
 7640              	.LASF72:
 7641 0535 64697374 		.ascii	"distanceSensor\000"
 7641      616E6365 
 7641      53656E73 
 7641      6F7200
 7642              	.LASF13:
 7643 0544 63686172 		.ascii	"char\000"
 7643      00
 7644              	.LASF109:
 7645 0549 6D61696E 		.ascii	"main\000"
 7645      00
 7646              	.LASF10:
 7647 054e 696E7433 		.ascii	"int32_t\000"
 7647      325F7400 
 7648              	.LASF78:
 7649 0556 61726D43 		.ascii	"armClose\000"
 7649      6C6F7365 
 7649      00
 7650              	.LASF52:
 7651 055f 504C414E 		.ascii	"PLAN_SCAN_VERTICAL\000"
 7651      5F534341 
 7651      4E5F5645 
ARM GAS  C:\Users\Misha\AppData\Local\Temp\ccIfQyo5.s 			page 158


 7651      52544943 
 7651      414C00
 7652              	.LASF40:
 7653 0572 636F6C6F 		.ascii	"colour_sensing_algorithm\000"
 7653      75725F73 
 7653      656E7369 
 7653      6E675F61 
 7653      6C676F72 
 7654              	.LASF36:
 7655 058b 6D6F7669 		.ascii	"moving\000"
 7655      6E6700
 7656              	.LASF98:
 7657 0592 54696D65 		.ascii	"Timer_1_Start\000"
 7657      725F315F 
 7657      53746172 
 7657      7400
 7658              	.LASF79:
 7659 05a0 6D6F7665 		.ascii	"moveForwardThenBackward\000"
 7659      466F7277 
 7659      61726454 
 7659      68656E42 
 7659      61636B77 
 7660              	.LASF48:
 7661 05b8 626C6F63 		.ascii	"block_west_clearance\000"
 7661      6B5F7765 
 7661      73745F63 
 7661      6C656172 
 7661      616E6365 
 7662              	.LASF86:
 7663 05cd 49444143 		.ascii	"IDAC8_1_SetValue\000"
 7663      385F315F 
 7663      53657456 
 7663      616C7565 
 7663      00
 7664              	.LASF107:
 7665 05de 6D61696E 		.ascii	"main.c\000"
 7665      2E6300
 7666              	.LASF46:
 7667 05e5 62656769 		.ascii	"begin_navigation\000"
 7667      6E5F6E61 
 7667      76696761 
 7667      74696F6E 
 7667      00
 7668              	.LASF101:
 7669 05f6 53746172 		.ascii	"Start_StartEx\000"
 7669      745F5374 
 7669      61727445 
 7669      7800
 7670              	.LASF20:
 7671 0604 7075636B 		.ascii	"puck_rack_index\000"
 7671      5F726163 
 7671      6B5F696E 
 7671      64657800 
 7672              	.LASF56:
 7673 0614 55415254 		.ascii	"UART_1_PutString\000"
 7673      5F315F50 
 7673      75745374 
ARM GAS  C:\Users\Misha\AppData\Local\Temp\ccIfQyo5.s 			page 159


 7673      72696E67 
 7673      00
 7674              	.LASF33:
 7675 0625 73656E73 		.ascii	"sensor_distances\000"
 7675      6F725F64 
 7675      69737461 
 7675      6E636573 
 7675      00
 7676              	.LASF3:
 7677 0636 73686F72 		.ascii	"short unsigned int\000"
 7677      7420756E 
 7677      7369676E 
 7677      65642069 
 7677      6E7400
 7678              	.LASF25:
 7679 0649 68656C64 		.ascii	"heldColour\000"
 7679      436F6C6F 
 7679      757200
 7680              	.LASF29:
 7681 0654 7075636B 		.ascii	"puck_rack_west_offsets\000"
 7681      5F726163 
 7681      6B5F7765 
 7681      73745F6F 
 7681      66667365 
 7682              	.LASF110:
 7683 066b 7075636B 		.ascii	"puck_scan\000"
 7683      5F736361 
 7683      6E00
 7684              	.LASF9:
 7685 0675 5F5F696E 		.ascii	"__int32_t\000"
 7685      7433325F 
 7685      7400
 7686              	.LASF108:
 7687 067f 433A5C55 		.ascii	"C:\\Users\\Misha\\Documents\\PSoC Creator\\ECE3091_"
 7687      73657273 
 7687      5C4D6973 
 7687      68615C44 
 7687      6F63756D 
 7688 06ad 47726F75 		.ascii	"Group17\\Group17RobotReal\\Group17Robot.cydsn\000"
 7688      7031375C 
 7688      47726F75 
 7688      70313752 
 7688      6F626F74 
 7689              	.LASF103:
 7690 06d9 73616665 		.ascii	"safetyDistanceCheck\000"
 7690      74794469 
 7690      7374616E 
 7690      63654368 
 7690      65636B00 
 7691              	.LASF69:
 7692 06ed 6D6F7665 		.ascii	"moveUntil\000"
 7692      556E7469 
 7692      6C00
 7693              	.LASF15:
 7694 06f7 73697A65 		.ascii	"sizetype\000"
 7694      74797065 
 7694      00
ARM GAS  C:\Users\Misha\AppData\Local\Temp\ccIfQyo5.s 			page 160


 7695              	.LASF32:
 7696 0700 6F757470 		.ascii	"output\000"
 7696      757400
 7697              	.LASF12:
 7698 0707 646F7562 		.ascii	"double\000"
 7698      6C6500
 7699              	.LASF53:
 7700 070e 64697374 		.ascii	"distance_returned_global\000"
 7700      616E6365 
 7700      5F726574 
 7700      75726E65 
 7700      645F676C 
 7701              	.LASF26:
 7702 0727 49544D5F 		.ascii	"ITM_RxBuffer\000"
 7702      52784275 
 7702      66666572 
 7702      00
 7703              	.LASF106:
 7704 0734 474E5520 		.ascii	"GNU C11 5.4.1 20160609 (release) [ARM/embedded-5-br"
 7704      43313120 
 7704      352E342E 
 7704      31203230 
 7704      31363036 
 7705 0767 616E6368 		.ascii	"anch revision 237715] -mcpu=cortex-m3 -mthumb -g -O"
 7705      20726576 
 7705      6973696F 
 7705      6E203233 
 7705      37373135 
 7706 079a 67202D66 		.ascii	"g -ffunction-sections -ffat-lto-objects\000"
 7706      66756E63 
 7706      74696F6E 
 7706      2D736563 
 7706      74696F6E 
 7707              	.LASF55:
 7708 07c2 43794465 		.ascii	"CyDelay\000"
 7708      6C617900 
 7709              	.LASF44:
 7710 07ca 63757272 		.ascii	"current_puck_stack_size\000"
 7710      656E745F 
 7710      7075636B 
 7710      5F737461 
 7710      636B5F73 
 7711              	.LASF31:
 7712 07e2 696E6974 		.ascii	"initialisation\000"
 7712      69616C69 
 7712      73617469 
 7712      6F6E00
 7713              	.LASF61:
 7714 07f1 4D6F746F 		.ascii	"Motor_Left_Driver_WriteCompare\000"
 7714      725F4C65 
 7714      66745F44 
 7714      72697665 
 7714      725F5772 
 7715              	.LASF60:
 7716 0810 4D6F746F 		.ascii	"Motor_Left_Driver_Wakeup\000"
 7716      725F4C65 
 7716      66745F44 
ARM GAS  C:\Users\Misha\AppData\Local\Temp\ccIfQyo5.s 			page 161


 7716      72697665 
 7716      725F5761 
 7717              		.ident	"GCC: (GNU Tools for ARM Embedded Processors) 5.4.1 20160609 (release) [ARM/embedded-5-bran
