ARM GAS  C:\Users\Misha\AppData\Local\Temp\ccVSruQj.s 			page 1


   1              		.syntax unified
   2              		.cpu cortex-m3
   3              		.fpu softvfp
   4              		.eabi_attribute 20, 1
   5              		.eabi_attribute 21, 1
   6              		.eabi_attribute 23, 3
   7              		.eabi_attribute 24, 1
   8              		.eabi_attribute 25, 1
   9              		.eabi_attribute 26, 1
  10              		.eabi_attribute 30, 1
  11              		.eabi_attribute 34, 1
  12              		.eabi_attribute 18, 4
  13              		.thumb
  14              		.syntax unified
  15              		.file	"main.c"
  16              		.text
  17              	.Ltext0:
  18              		.cfi_sections	.debug_frame
  19              		.section	.text.TIH,"ax",%progbits
  20              		.align	2
  21              		.global	TIH
  22              		.thumb
  23              		.thumb_func
  24              		.type	TIH, %function
  25              	TIH:
  26              	.LFB64:
  27              		.file 1 "main.c"
   1:main.c        ****  
   2:main.c        **** /* ========================================
   3:main.c        ****  *
   4:main.c        ****  * Copyright Group 17, 2019
   5:main.c        ****  * All Rights Reserved
   6:main.c        ****  * UNPUBLISHED, LICENSED SOFTWARE.
   7:main.c        ****  *
   8:main.c        ****  * CONFIDENTIAL AND PROPRIETARY INFORMATION
   9:main.c        ****  * WHICH IS THE PROPERTY OF Blayke, Misha, Nidhin.
  10:main.c        ****  *
  11:main.c        ****  * ========================================
  12:main.c        **** */
  13:main.c        **** 
  14:main.c        **** // * PSOC LIBRARY * //
  15:main.c        **** #include "project.h"
  16:main.c        **** 
  17:main.c        **** // * C LIBRARIES * // 
  18:main.c        **** #include <stdlib.h>
  19:main.c        **** #include <stdio.h>
  20:main.c        **** #include <math.h>
  21:main.c        **** 
  22:main.c        **** // * OUR LIBRARIES * //
  23:main.c        **** #include "main.h"
  24:main.c        **** #include "colour.h"
  25:main.c        **** #include "ultrasonic.h" 
  26:main.c        **** #include "servo.h"
  27:main.c        **** #include "motor.h"
  28:main.c        **** #include "customMath.h"
  29:main.c        **** #include "navigation.h"
  30:main.c        **** #include "debugging.h"
ARM GAS  C:\Users\Misha\AppData\Local\Temp\ccVSruQj.s 			page 2


  31:main.c        **** 
  32:main.c        **** 
  33:main.c        **** extern char output[32];   
  34:main.c        **** 
  35:main.c        **** // * STATE VARIABLES * //
  36:main.c        **** int state = STATE_PRE_RUN;
  37:main.c        **** int running = 1;
  38:main.c        **** int sweeping = 0;
  39:main.c        **** float block_edge_location[4] = {0,0,0,0}; // N E S W edge positions respectively
  40:main.c        **** 
  41:main.c        **** // * PUCK CONSTRUCTION VARIABLES * //
  42:main.c        **** int currentPuckStackSize = 0; // How many pucks are currently on the construction plate
  43:main.c        **** int puckRackColours[5] = {BLANK,BLANK,BLANK,BLANK,BLANK}; // 5 slots in puck rack.
  44:main.c        **** int puckConstructionPlan[3] = {BLANK,BLANK,BLANK};
  45:main.c        **** int currentPuckRackScanningIndex = 0;
  46:main.c        **** int puckRackOffsetsFromWest[5] = {PUCK_RACK_0_WEST_DISTANCE,
  47:main.c        ****                                 PUCK_RACK_1_WEST_DISTANCE,
  48:main.c        ****                                 PUCK_RACK_2_WEST_DISTANCE,
  49:main.c        ****                                 PUCK_RACK_3_WEST_DISTANCE,
  50:main.c        ****                                 PUCK_RACK_4_WEST_DISTANCE };
  51:main.c        **** 
  52:main.c        **** int puckColoursTempPile[2] = {BLANK,BLANK}; // Index 0 refers to east home base edge, 1 refers to w
  53:main.c        **** 
  54:main.c        **** float horizontalPuckGrid = 0;
  55:main.c        **** 
  56:main.c        **** // * NAVIGATION AND POSITION VARIABLES * //
  57:main.c        **** 
  58:main.c        **** int beginNavigation = 0; // Allow us to break out of the intial phase when powered up
  59:main.c        **** int pathToPucks; // This will give us a corridor/ that we should initially take when trying to go t
  60:main.c        **** int pathPastBlock;
  61:main.c        **** int block_location[4] = {0,0,0,0};      // The block location values
  62:main.c        ****                                         //#define NORTH 0
  63:main.c        ****                                         //#define EAST 1
  64:main.c        ****                                         //#define SOUTH 2
  65:main.c        ****                                         //#define WEST 3
  66:main.c        **** int puck_location[4] = {0,0,0,0};       // The block location values
  67:main.c        ****                                         //#define NORTH 0
  68:main.c        ****                                         //#define EAST 1
  69:main.c        ****                                         //#define SOUTH 2
  70:main.c        ****                                         //#define WEST 3
  71:main.c        **** 
  72:main.c        **** int safety_override = FALSE;            
  73:main.c        **** 
  74:main.c        **** // These block clearance variables are only true if we have enough room either side of the block to
  75:main.c        **** // And only true for the puck clearance variables if there is enough room to be able to turn at the
  76:main.c        **** short int blockEastClearance = 0;
  77:main.c        **** short int blockWestClearance = 0;
  78:main.c        **** short int puckEastClearance = 0;
  79:main.c        **** short int puckWestClearance = 0;
  80:main.c        **** 
  81:main.c        **** // * COLOUR VARIABLES * //
  82:main.c        **** 
  83:main.c        **** int idac_value = 0;  
  84:main.c        **** int colour_flag = 1;                    // sets which photodiode to use 
  85:main.c        **** int colour_sensing_algorithm = 0;      // Determines which colour sensing algorithm to use:
  86:main.c        ****                                                 // 0: Wall algorithm
  87:main.c        ****                                             // 1: Claw algorithm
ARM GAS  C:\Users\Misha\AppData\Local\Temp\ccVSruQj.s 			page 3


  88:main.c        ****                                                 // 2: old algorithm
  89:main.c        **** 
  90:main.c        **** int moving = 0; // Temp to stop while loop from repeated runs of scanning plan code
  91:main.c        **** 
  92:main.c        **** const int PLAN_SCAN_VERTICAL = 10; // Set to ultrasonic distance at the home base 
  93:main.c        **** 
  94:main.c        **** int current_stage = 1;      // There are 3 stages, we start at 1
  95:main.c        **** 
  96:main.c        **** 
  97:main.c        **** // GLOBAL VARIABLE
  98:main.c        **** int distance_returned_global;
  99:main.c        **** 
 100:main.c        **** 
 101:main.c        **** // * INTERRUPT HANDLING * // 
 102:main.c        **** CY_ISR(TIH)                             // Ultrasonic ISR Definition
 103:main.c        **** {
  28              		.loc 1 103 0
  29              		.cfi_startproc
  30              		@ args = 0, pretend = 0, frame = 0
  31              		@ frame_needed = 0, uses_anonymous_args = 0
  32 0000 08B5     		push	{r3, lr}
  33              		.cfi_def_cfa_offset 8
  34              		.cfi_offset 3, -8
  35              		.cfi_offset 14, -4
 104:main.c        ****     ultrasonicInterruptHandler();
  36              		.loc 1 104 0
  37 0002 FFF7FEFF 		bl	ultrasonicInterruptHandler
  38              	.LVL0:
  39 0006 08BD     		pop	{r3, pc}
  40              		.cfi_endproc
  41              	.LFE64:
  42              		.size	TIH, .-TIH
  43              		.section	.text.StartIH,"ax",%progbits
  44              		.align	2
  45              		.global	StartIH
  46              		.thumb
  47              		.thumb_func
  48              		.type	StartIH, %function
  49              	StartIH:
  50              	.LFB65:
 105:main.c        **** }
 106:main.c        **** 
 107:main.c        **** CY_ISR(StartIH)                             // Ultrasonic ISR Definition
 108:main.c        **** {
  51              		.loc 1 108 0
  52              		.cfi_startproc
  53              		@ args = 0, pretend = 0, frame = 0
  54              		@ frame_needed = 0, uses_anonymous_args = 0
  55 0000 08B5     		push	{r3, lr}
  56              		.cfi_def_cfa_offset 8
  57              		.cfi_offset 3, -8
  58              		.cfi_offset 14, -4
 109:main.c        ****     CyDelay(100);
  59              		.loc 1 109 0
  60 0002 6420     		movs	r0, #100
  61 0004 FFF7FEFF 		bl	CyDelay
  62              	.LVL1:
ARM GAS  C:\Users\Misha\AppData\Local\Temp\ccVSruQj.s 			page 4


 110:main.c        ****     if (beginNavigation){
  63              		.loc 1 110 0
  64 0008 034B     		ldr	r3, .L6
  65 000a 1B68     		ldr	r3, [r3]
  66 000c 13B1     		cbz	r3, .L3
 111:main.c        ****         state = STATE_SCAN_PLAN; 
  67              		.loc 1 111 0
  68 000e 0122     		movs	r2, #1
  69 0010 014B     		ldr	r3, .L6
  70 0012 5A60     		str	r2, [r3, #4]
  71              	.L3:
  72 0014 08BD     		pop	{r3, pc}
  73              	.L7:
  74 0016 00BF     		.align	2
  75              	.L6:
  76 0018 00000000 		.word	.LANCHOR0
  77              		.cfi_endproc
  78              	.LFE65:
  79              		.size	StartIH, .-StartIH
  80              		.section	.text.main,"ax",%progbits
  81              		.align	2
  82              		.global	main
  83              		.thumb
  84              		.thumb_func
  85              		.type	main, %function
  86              	main:
  87              	.LFB66:
 112:main.c        ****     }
 113:main.c        **** }
 114:main.c        ****  
 115:main.c        **** //Interrupt service routines for dcmotor function
 116:main.c        **** /*
 117:main.c        **** CY_ISR(Encoder_Counts_1_IH){
 118:main.c        ****     stopMotor1AndUpdate();
 119:main.c        **** }
 120:main.c        **** 
 121:main.c        **** CY_ISR(Encoder_Counts_2_IH){
 122:main.c        ****     stopMotor2AndUpdate();
 123:main.c        **** }
 124:main.c        **** 
 125:main.c        **** CY_ISR(Drift_Check_IH){    
 126:main.c        ****     Drift_Check_Timer_ReadStatusRegister(); //Clears the interrupt
 127:main.c        ****     Drift_Check_Timer_Stop(); //Stops the timer
 128:main.c        ****     motor1EncoderCounts = Motor_1_Encoder_Counts_ReadCounter();
 129:main.c        ****     motor2EncoderCounts = Motor_2_Encoder_Counts_ReadCounter();
 130:main.c        ****     driftCorrect(); //Does checking
 131:main.c        **** }
 132:main.c        **** */
 133:main.c        **** 
 134:main.c        **** int main(void)
 135:main.c        **** {
  88              		.loc 1 135 0
  89              		.cfi_startproc
  90              		@ args = 0, pretend = 0, frame = 0
  91              		@ frame_needed = 0, uses_anonymous_args = 0
  92 0000 2DE9F041 		push	{r4, r5, r6, r7, r8, lr}
  93              		.cfi_def_cfa_offset 24
ARM GAS  C:\Users\Misha\AppData\Local\Temp\ccVSruQj.s 			page 5


  94              		.cfi_offset 4, -24
  95              		.cfi_offset 5, -20
  96              		.cfi_offset 6, -16
  97              		.cfi_offset 7, -12
  98              		.cfi_offset 8, -8
  99              		.cfi_offset 14, -4
 100 0004 82B0     		sub	sp, sp, #8
 101              		.cfi_def_cfa_offset 32
 136:main.c        ****     CyGlobalIntEnable; /* Enable global interrupts. */
 102              		.loc 1 136 0
 103              		.syntax unified
 104              	@ 136 "main.c" 1
 105 0006 62B6     		CPSIE   i
 106              	@ 0 "" 2
 137:main.c        **** 
 138:main.c        ****     
 139:main.c        ****     TIA_1_Start();
 107              		.loc 1 139 0
 108              		.thumb
 109              		.syntax unified
 110 0008 FFF7FEFF 		bl	TIA_1_Start
 111              	.LVL2:
 140:main.c        ****     UART_1_Start();
 112              		.loc 1 140 0
 113 000c FFF7FEFF 		bl	UART_1_Start
 114              	.LVL3:
 141:main.c        ****     UART_1_PutString("UART commencing... \n");
 115              		.loc 1 141 0
 116 0010 B648     		ldr	r0, .L56
 117 0012 FFF7FEFF 		bl	UART_1_PutString
 118              	.LVL4:
 142:main.c        ****     ADC_Start();
 119              		.loc 1 142 0
 120 0016 FFF7FEFF 		bl	ADC_Start
 121              	.LVL5:
 143:main.c        ****     IDAC8_1_Start();
 122              		.loc 1 143 0
 123 001a FFF7FEFF 		bl	IDAC8_1_Start
 124              	.LVL6:
 144:main.c        ****     
 145:main.c        ****     // DEBUGGING:
 146:main.c        ****         // Moved to debugging.c file, set it there
 147:main.c        ****     
 148:main.c        ****     
 149:main.c        ****     // IDAC initialisation: 
 150:main.c        ****     IDAC8_1_SetRange(IDAC8_1_RANGE_32uA);       // Sets the range between 0 and 32uA
 125              		.loc 1 150 0
 126 001e 0020     		movs	r0, #0
 127 0020 FFF7FEFF 		bl	IDAC8_1_SetRange
 128              	.LVL7:
 151:main.c        ****     IDAC8_1_SetValue(idac_value);               // set a value between 0 and 255
 129              		.loc 1 151 0
 130 0024 B24C     		ldr	r4, .L56+4
 131 0026 207A     		ldrb	r0, [r4, #8]	@ zero_extendqisi2
 132 0028 FFF7FEFF 		bl	IDAC8_1_SetValue
 133              	.LVL8:
 152:main.c        ****     
ARM GAS  C:\Users\Misha\AppData\Local\Temp\ccVSruQj.s 			page 6


 153:main.c        ****     // Colour Sensing Initialisation & Debugging:
 154:main.c        ****     colour_sensing_algorithm = 0;
 134              		.loc 1 154 0
 135 002c 0025     		movs	r5, #0
 136 002e E560     		str	r5, [r4, #12]
 155:main.c        ****     control_photodiode_Write(colour_sensing_algorithm);            // controls which photodiode is 
 137              		.loc 1 155 0
 138 0030 2846     		mov	r0, r5
 139 0032 FFF7FEFF 		bl	control_photodiode_Write
 140              	.LVL9:
 156:main.c        ****                                                 // 0: wall
 157:main.c        ****                                                 // 1: claw
 158:main.c        ****     control_led_Write(1);   CyDelay(500);  // Ensures all the RGBs are working
 141              		.loc 1 158 0
 142 0036 0120     		movs	r0, #1
 143 0038 FFF7FEFF 		bl	control_led_Write
 144              	.LVL10:
 145 003c 4FF4FA70 		mov	r0, #500
 146 0040 FFF7FEFF 		bl	CyDelay
 147              	.LVL11:
 159:main.c        ****     control_led_Write(2);   CyDelay(500);
 148              		.loc 1 159 0
 149 0044 0220     		movs	r0, #2
 150 0046 FFF7FEFF 		bl	control_led_Write
 151              	.LVL12:
 152 004a 4FF4FA70 		mov	r0, #500
 153 004e FFF7FEFF 		bl	CyDelay
 154              	.LVL13:
 160:main.c        ****     control_led_Write(3);   CyDelay(500);
 155              		.loc 1 160 0
 156 0052 0320     		movs	r0, #3
 157 0054 FFF7FEFF 		bl	control_led_Write
 158              	.LVL14:
 159 0058 4FF4FA70 		mov	r0, #500
 160 005c FFF7FEFF 		bl	CyDelay
 161              	.LVL15:
 161:main.c        ****     control_led_Write(0);   CyDelay(500);
 162              		.loc 1 161 0
 163 0060 2846     		mov	r0, r5
 164 0062 FFF7FEFF 		bl	control_led_Write
 165              	.LVL16:
 166 0066 4FF4FA70 		mov	r0, #500
 167 006a FFF7FEFF 		bl	CyDelay
 168              	.LVL17:
 162:main.c        ****     colourSensingInitialise();                  // Initialises the colour sensor
 169              		.loc 1 162 0
 170 006e FFF7FEFF 		bl	colourSensingInitialise
 171              	.LVL18:
 163:main.c        ****     
 164:main.c        **** 
 165:main.c        ****     //Servos for the arm instatination
 166:main.c        ****     Rack_Servo_PWM_Start();
 172              		.loc 1 166 0
 173 0072 FFF7FEFF 		bl	Rack_Servo_PWM_Start
 174              	.LVL19:
 167:main.c        ****     Rack_Servo_PWM_WriteCompare(1000);          // BRINGs rack to highest position, so not to mess 
 175              		.loc 1 167 0
ARM GAS  C:\Users\Misha\AppData\Local\Temp\ccVSruQj.s 			page 7


 176 0076 4FF47A70 		mov	r0, #1000
 177 007a FFF7FEFF 		bl	Rack_Servo_PWM_WriteCompare
 178              	.LVL20:
 168:main.c        ****     CyDelay(500);
 179              		.loc 1 168 0
 180 007e 4FF4FA70 		mov	r0, #500
 181 0082 FFF7FEFF 		bl	CyDelay
 182              	.LVL21:
 169:main.c        ****     Rack_Servo_PWM_Sleep();
 183              		.loc 1 169 0
 184 0086 FFF7FEFF 		bl	Rack_Servo_PWM_Sleep
 185              	.LVL22:
 170:main.c        ****     
 171:main.c        ****     Gripper_Servo_PWM_Start();
 186              		.loc 1 171 0
 187 008a FFF7FEFF 		bl	Gripper_Servo_PWM_Start
 188              	.LVL23:
 172:main.c        ****     Gripper_Servo_PWM_WriteCompare(1120);       //This is the open gripper position
 189              		.loc 1 172 0
 190 008e 4FF48C60 		mov	r0, #1120
 191 0092 FFF7FEFF 		bl	Gripper_Servo_PWM_WriteCompare
 192              	.LVL24:
 173:main.c        ****     CyDelay(500);
 193              		.loc 1 173 0
 194 0096 4FF4FA70 		mov	r0, #500
 195 009a FFF7FEFF 		bl	CyDelay
 196              	.LVL25:
 174:main.c        ****     Gripper_Servo_PWM_Sleep();
 197              		.loc 1 174 0
 198 009e FFF7FEFF 		bl	Gripper_Servo_PWM_Sleep
 199              	.LVL26:
 175:main.c        ****     
 176:main.c        ****     // Motors Initialisation:
 177:main.c        ****     Motor_Left_Driver_Start();
 200              		.loc 1 177 0
 201 00a2 FFF7FEFF 		bl	Motor_Left_Driver_Start
 202              	.LVL27:
 178:main.c        ****     Motor_Right_Driver_Start();
 203              		.loc 1 178 0
 204 00a6 FFF7FEFF 		bl	Motor_Right_Driver_Start
 205              	.LVL28:
 179:main.c        ****     Motor_Left_Driver_WriteCompare(0);          // sets the motors to 0 so it will be smooth next t
 206              		.loc 1 179 0
 207 00aa 2846     		mov	r0, r5
 208 00ac FFF7FEFF 		bl	Motor_Left_Driver_WriteCompare
 209              	.LVL29:
 180:main.c        ****     Motor_Right_Driver_WriteCompare(0);
 210              		.loc 1 180 0
 211 00b0 2846     		mov	r0, r5
 212 00b2 FFF7FEFF 		bl	Motor_Right_Driver_WriteCompare
 213              	.LVL30:
 181:main.c        ****     Motor_Left_Driver_Sleep();                  // Puts motor to sleep
 214              		.loc 1 181 0
 215 00b6 FFF7FEFF 		bl	Motor_Left_Driver_Sleep
 216              	.LVL31:
 182:main.c        ****     Motor_Right_Driver_Sleep();                 // Puts motor to sleep
 217              		.loc 1 182 0
ARM GAS  C:\Users\Misha\AppData\Local\Temp\ccVSruQj.s 			page 8


 218 00ba FFF7FEFF 		bl	Motor_Right_Driver_Sleep
 219              	.LVL32:
 183:main.c        ****     
 184:main.c        ****     Motor_Left_Decoder_Start();
 220              		.loc 1 184 0
 221 00be FFF7FEFF 		bl	Motor_Left_Decoder_Start
 222              	.LVL33:
 185:main.c        ****     Motor_Right_Decoder_Start();
 223              		.loc 1 185 0
 224 00c2 FFF7FEFF 		bl	Motor_Right_Decoder_Start
 225              	.LVL34:
 186:main.c        ****     
 187:main.c        ****     internal_orientation = WEST;                // robot initial starts in the East direction
 226              		.loc 1 187 0
 227 00c6 0327     		movs	r7, #3
 228 00c8 8A4B     		ldr	r3, .L56+8
 229 00ca 1F60     		str	r7, [r3]
 188:main.c        ****     
 189:main.c        ****     // Timer and ISR instantiation
 190:main.c        ****     Timer_1_Start();                
 230              		.loc 1 190 0
 231 00cc FFF7FEFF 		bl	Timer_1_Start
 232              	.LVL35:
 191:main.c        ****     Timer_1_ReadStatusRegister();
 233              		.loc 1 191 0
 234 00d0 FFF7FEFF 		bl	Timer_1_ReadStatusRegister
 235              	.LVL36:
 192:main.c        ****     Sonic_StartEx(TIH);
 236              		.loc 1 192 0
 237 00d4 8848     		ldr	r0, .L56+12
 238 00d6 FFF7FEFF 		bl	Sonic_StartEx
 239              	.LVL37:
 193:main.c        ****     Start_StartEx(StartIH);
 240              		.loc 1 193 0
 241 00da 8848     		ldr	r0, .L56+16
 242 00dc FFF7FEFF 		bl	Start_StartEx
 243              	.LVL38:
 194:main.c        ****     beginNavigation = 1; // Set to true after it has run ISR at least once
 244              		.loc 1 194 0
 245 00e0 0126     		movs	r6, #1
 246 00e2 2660     		str	r6, [r4]
 195:main.c        ****     
 196:main.c        ****     // Ultrasonic Initialisation & Calibration:
 197:main.c        ****     // The ultrasonics take several test measurements to ensure they are working
 198:main.c        ****         
 199:main.c        ****     UART_1_PutString("Ultrasonic Calibration tests: \n");
 247              		.loc 1 199 0
 248 00e4 8648     		ldr	r0, .L56+20
 249 00e6 FFF7FEFF 		bl	UART_1_PutString
 250              	.LVL39:
 200:main.c        ****     safetyDistanceCheck();
 251              		.loc 1 200 0
 252 00ea FFF7FEFF 		bl	safetyDistanceCheck
 253              	.LVL40:
 201:main.c        ****     safetyDistanceCheck();
 254              		.loc 1 201 0
 255 00ee FFF7FEFF 		bl	safetyDistanceCheck
ARM GAS  C:\Users\Misha\AppData\Local\Temp\ccVSruQj.s 			page 9


 256              	.LVL41:
 202:main.c        ****     safetyDistanceCheck();
 257              		.loc 1 202 0
 258 00f2 FFF7FEFF 		bl	safetyDistanceCheck
 259              	.LVL42:
 203:main.c        ****     
 204:main.c        ****     /*  OLD CODE FROM NIDHIN:
 205:main.c        ****     //Initialising DC motors
 206:main.c        ****     Motor_1_driver_Start();
 207:main.c        ****     Motor_2_driver_Start();
 208:main.c        ****     motorDutyCycleUpdate(0,0,0,0);//Have the motors stand still
 209:main.c        ****     
 210:main.c        ****     
 211:main.c        ****     //Initialising counters
 212:main.c        ****     Motor_1_Encoder_Counts_Start();
 213:main.c        ****     Motor_2_Encoder_Counts_Start();
 214:main.c        ****     
 215:main.c        ****     //Initialising timers
 216:main.c        ****     Drift_Check_Timer_Start();
 217:main.c        ****     
 218:main.c        ****     //Starts and enables the interrupts for the motor encoder counts
 219:main.c        ****     Encoder_Counts_1_Interrupt_StartEx(Encoder_Counts_1_IH); 
 220:main.c        ****     Encoder_Counts_2_Interrupt_StartEx(Encoder_Counts_2_IH);
 221:main.c        ****     Drift_Check_Interrupt_StartEx(Drift_Check_IH);		
 222:main.c        ****     */
 223:main.c        **** 
 224:main.c        ****     // FORCING STATE:
 225:main.c        ****     // Manual state set for testing
 226:main.c        ****     state = STATE_PRE_RUN;
 260              		.loc 1 226 0
 261 00f6 6560     		str	r5, [r4, #4]
 227:main.c        ****     
 228:main.c        ****     //state = STATE_DEPOSIT_PUCK;
 229:main.c        ****     currentPuckStackSize = 0;
 262              		.loc 1 229 0
 263 00f8 2561     		str	r5, [r4, #16]
 230:main.c        ****     current_stage = 1;
 264              		.loc 1 230 0
 265 00fa 824B     		ldr	r3, .L56+24
 266 00fc 1E60     		str	r6, [r3]
 231:main.c        ****     blockEastClearance = 0;
 267              		.loc 1 231 0
 268 00fe A582     		strh	r5, [r4, #20]	@ movhi
 232:main.c        ****     blockWestClearance = 1;
 269              		.loc 1 232 0
 270 0100 E682     		strh	r6, [r4, #22]	@ movhi
 233:main.c        ****     puckEastClearance = 0;
 271              		.loc 1 233 0
 272 0102 2583     		strh	r5, [r4, #24]	@ movhi
 234:main.c        ****     puckWestClearance = 1;
 273              		.loc 1 234 0
 274 0104 6683     		strh	r6, [r4, #26]	@ movhi
 275              	.LVL43:
 235:main.c        ****     int block_and_puck_edge_midpoint = 500; // take the midpoint between inner edge between the puc
 236:main.c        ****     //internal_orientation = EAST;
 237:main.c        ****     puckConstructionPlan[0] = RED;
 276              		.loc 1 237 0
ARM GAS  C:\Users\Misha\AppData\Local\Temp\ccVSruQj.s 			page 10


 277 0106 E661     		str	r6, [r4, #28]
 238:main.c        ****     puckConstructionPlan[1] = GREEN;
 278              		.loc 1 238 0
 279 0108 0223     		movs	r3, #2
 280 010a 2362     		str	r3, [r4, #32]
 239:main.c        ****     puckConstructionPlan[2] = BLUE;
 281              		.loc 1 239 0
 282 010c 6762     		str	r7, [r4, #36]
 283              	.L52:
 240:main.c        ****     
 241:main.c        **** 
 242:main.c        ****     // Main Loop for States
 243:main.c        **** 
 244:main.c        ****     
 245:main.c        ****     
 246:main.c        ****     
 247:main.c        ****     for(;;)
 248:main.c        ****     {
 249:main.c        **** 
 250:main.c        ****    
 251:main.c        ****         
 252:main.c        ****         //changeOrientation(SOUTH, SPEED);
 253:main.c        ****         //changeOrientation(NORTH, SPEED);
 254:main.c        ****         //changeOrientation(WEST, SPEED);
 255:main.c        ****         
 256:main.c        ****         //while(1) {}
 257:main.c        ****         
 258:main.c        ****         ultimateDebugging();        // If any of the debugging flags are activated, this will be ca
 284              		.loc 1 258 0
 285 010e FFF7FEFF 		bl	ultimateDebugging
 286              	.LVL44:
 259:main.c        **** 
 260:main.c        ****         // Checking translating function:
 261:main.c        ****         
 262:main.c        ****         
 263:main.c        ****         while(0) {
 264:main.c        ****                 UART_1_PutString("turning left\n");
 265:main.c        ****                 moveSwivel(-25,20,FALSE);
 266:main.c        ****                 UART_1_PutString("turning right \n");
 267:main.c        ****                 moveSwivel(25,20,FALSE);
 268:main.c        ****         }
 269:main.c        ****         
 270:main.c        ****         while(0){
 271:main.c        ****             distanceSensor(SIDE_LEFT);
 272:main.c        ****             CyDelay(60);
 273:main.c        ****             sprintf(output, "%d \t", ultrasonic_distances_mm[SIDE_LEFT]);
 274:main.c        ****             UART_1_PutString(output);
 275:main.c        ****         }
 276:main.c        ****         
 277:main.c        ****         
 278:main.c        ****         
 279:main.c        ****         //while(1);
 280:main.c        ****         
 281:main.c        ****         //changeHeightToPuck(GROUND,NEITHER);
 282:main.c        ****         //moveUntilPuck(CLAW_GROUND_ALGORITHM);
 283:main.c        ****         //translateUntil(150, LEFT, LESS_THAN, SIDE_LEFT, SPEED);
 284:main.c        ****         
ARM GAS  C:\Users\Misha\AppData\Local\Temp\ccVSruQj.s 			page 11


 285:main.c        ****         
 286:main.c        ****         
 287:main.c        ****        
 288:main.c        ****         
 289:main.c        ****         /*
 290:main.c        ****         for (int i = 0; i < 6; i++) {
 291:main.c        ****             translateMoveDynamic(10, -15, 100, FALSE);      // This will translate to the right by 
 292:main.c        ****         }
 293:main.c        ****         
 294:main.c        ****         for (int i = 0; i < 6; i++) {
 295:main.c        ****             translateMoveDynamic(-10, 15, 100, FALSE);      // This will translate to the left by o
 296:main.c        ****         }
 297:main.c        ****         */
 298:main.c        ****         
 299:main.c        ****         
 300:main.c        ****         // checks the distance measured by the ultrasonic
 301:main.c        ****         //moveDynamic(move,SPEED,TRUE);
 302:main.c        ****         //moveDynamic(-move,SPEED,TRUE);
 303:main.c        ****         
 304:main.c        ****         // wasnt moving for some of the tests 
 305:main.c        ****             
 306:main.c        ****         
 307:main.c        ****     
 308:main.c        ****         // Start button is pressed so quit sensing
 309:main.c        **** 
 310:main.c        ****         if (state == STATE_PRE_RUN){
 311:main.c        ****             
 312:main.c        ****         }
 313:main.c        ****         /*
 314:main.c        ****         while (beginNavigation == 0) {
 315:main.c        ****             distanceCheck();           
 316:main.c        ****             UART_1_PutString("\n");
 317:main.c        ****             CyDelay(1000); // Check distance once a second.
 318:main.c        ****                 
 319:main.c        ****         }
 320:main.c        ****         */
 321:main.c        ****         
 322:main.c        ****         
 323:main.c        ****         
 324:main.c        ****         
 325:main.c        ****         
 326:main.c        ****         // Enter picking up puck state for the moment FOR TESTING
 327:main.c        ****         //colour_sensing_algorithm = 1;
 328:main.c        ****         //control_photodiode_Write(1);
 329:main.c        ****         //state = STATE_FIND_REQUIRED_PUCK;
 330:main.c        ****         
 331:main.c        ****         
 332:main.c        ****      
 333:main.c        ****         
 334:main.c        ****         //state = STATE_FIND_REQUIRED_PUCK;
 335:main.c        ****         
 336:main.c        ****         //moveUntil(100,FORWARD,GREATER_THAN,SIDE_LEFT,SPEED);
 337:main.c        ****         
 338:main.c        ****         //while(1) {};
 339:main.c        ****         
 340:main.c        ****         
 341:main.c        ****         // state = STATE_LOCATE_BLOCK_AND_PUCKS;
ARM GAS  C:\Users\Misha\AppData\Local\Temp\ccVSruQj.s 			page 12


 342:main.c        ****         
 343:main.c        ****         
 344:main.c        ****         //UART_1_PutString("hI");
 345:main.c        ****         
 346:main.c        ****         //changeOrientation(NORTH, SPEED);
 347:main.c        ****         //changeOrientation(WEST, SPEED);
 348:main.c        ****                 
 349:main.c        ****         //state = STATE_DEPOSIT_PUCK;
 350:main.c        ****         //currentPuckStackSize = 2;
 351:main.c        ****         //current_stage = 3;
 352:main.c        ****          
 353:main.c        **** //
 354:main.c        **** // *** 1. STATE SCAN PLAN: *** // 
 355:main.c        **** //
 356:main.c        ****         
 357:main.c        ****         if (state == STATE_SCAN_PLAN) {              // colour sensing, while switch has not been p
 287              		.loc 1 357 0
 288 0112 774B     		ldr	r3, .L56+4
 289 0114 5B68     		ldr	r3, [r3, #4]
 290 0116 012B     		cmp	r3, #1
 291 0118 4FD1     		bne	.L9
 292              	.LBB2:
 358:main.c        ****             
 359:main.c        ****             while(0){
 360:main.c        ****                 moveUntil(400, FORWARD, LESS_THAN, FRONT_LEFT, SPEED, TRUE);
 361:main.c        ****                 moveDynamic(-450, SPEED, TRUE);
 362:main.c        ****                 CyDelay(500);   
 363:main.c        ****                 colourSensingInitialise();      // Initialises wall colour sensor against the black
 364:main.c        ****                 CyDelay(500);
 365:main.c        ****                 moveDynamic(170, SPEED, TRUE);
 366:main.c        ****                 CyDelay(500);
 367:main.c        ****                 
 368:main.c        ****                 
 369:main.c        ****                 
 370:main.c        ****                 for (int i = 0; i < 5; i++) {                       // scan each of the pucks 
 371:main.c        ****                     puckRackColours[i] = colourSensingOutput();
 372:main.c        ****                     CyDelay(500);
 373:main.c        ****                     moveDynamic(61, SPEED, TRUE);
 374:main.c        ****                     CyDelay(500);
 375:main.c        ****                 }
 376:main.c        ****             
 377:main.c        ****             }
 378:main.c        **** 
 379:main.c        **** 
 380:main.c        ****             
 381:main.c        ****             straightAdjust();
 293              		.loc 1 381 0
 294 011a FFF7FEFF 		bl	straightAdjust
 295              	.LVL45:
 382:main.c        ****             moveUntil(-100, BACKWARD, LESS_THAN, BACK, SPEED, TRUE);
 296              		.loc 1 382 0
 297 011e 0123     		movs	r3, #1
 298 0120 0193     		str	r3, [sp, #4]
 299 0122 AA23     		movs	r3, #170
 300 0124 0093     		str	r3, [sp]
 301 0126 0423     		movs	r3, #4
 302 0128 1A46     		mov	r2, r3
ARM GAS  C:\Users\Misha\AppData\Local\Temp\ccVSruQj.s 			page 13


 303 012a 0021     		movs	r1, #0
 304 012c 6FF06300 		mvn	r0, #99
 305 0130 FFF7FEFF 		bl	moveUntil
 306              	.LVL46:
 383:main.c        ****             colourSensingInitialise();      // Initialises wall colour sensor against the black wal
 307              		.loc 1 383 0
 308 0134 FFF7FEFF 		bl	colourSensingInitialise
 309              	.LVL47:
 384:main.c        ****                         
 385:main.c        ****             state = STATE_LOCATE_BLOCK_AND_PUCKS;   // THING 
 310              		.loc 1 385 0
 311 0138 0222     		movs	r2, #2
 312 013a 6D4B     		ldr	r3, .L56+4
 313 013c 5A60     		str	r2, [r3, #4]
 314              	.LVL48:
 315              	.LBB3:
 386:main.c        ****             
 387:main.c        ****             for (int i = 0; i < 5; i++) { 
 316              		.loc 1 387 0
 317 013e 0024     		movs	r4, #0
 318 0140 0AE0     		b	.L10
 319              	.LVL49:
 320              	.L11:
 388:main.c        ****                 // scan each of the pucks 
 389:main.c        ****                 //moveUntil(puckRackOffsetsFromWest[i]);
 390:main.c        ****                 puckRackColours[i] = colourSensingOutput();
 321              		.loc 1 390 0 discriminator 3
 322 0142 FFF7FEFF 		bl	colourSensingOutput
 323              	.LVL50:
 324 0146 6A4B     		ldr	r3, .L56+4
 325 0148 03EB8403 		add	r3, r3, r4, lsl #2
 326 014c 9862     		str	r0, [r3, #40]
 391:main.c        ****                 CyDelay(500);
 327              		.loc 1 391 0 discriminator 3
 328 014e 4FF4FA70 		mov	r0, #500
 329 0152 FFF7FEFF 		bl	CyDelay
 330              	.LVL51:
 387:main.c        ****                 // scan each of the pucks 
 331              		.loc 1 387 0 discriminator 3
 332 0156 0134     		adds	r4, r4, #1
 333              	.LVL52:
 334              	.L10:
 387:main.c        ****                 // scan each of the pucks 
 335              		.loc 1 387 0 is_stmt 0 discriminator 1
 336 0158 042C     		cmp	r4, #4
 337 015a F2DD     		ble	.L11
 338              	.LBE3:
 392:main.c        **** 
 393:main.c        ****             //straightAdjust();
 394:main.c        ****             }
 395:main.c        ****             
 396:main.c        ****             UART_1_PutString("Found Colours: \n");
 339              		.loc 1 396 0 is_stmt 1
 340 015c 6A48     		ldr	r0, .L56+28
 341 015e FFF7FEFF 		bl	UART_1_PutString
 342              	.LVL53:
 343              	.LBB4:
ARM GAS  C:\Users\Misha\AppData\Local\Temp\ccVSruQj.s 			page 14


 397:main.c        ****             for (int i = 0; i < 5; i++) 
 344              		.loc 1 397 0
 345 0162 0024     		movs	r4, #0
 346              	.LVL54:
 347 0164 0CE0     		b	.L12
 348              	.LVL55:
 349              	.L13:
 398:main.c        ****             {
 399:main.c        ****                 sprintf(output, "%i \n", puckRackColours[i]);    // updates UART showing values of 
 350              		.loc 1 399 0 discriminator 3
 351 0166 624B     		ldr	r3, .L56+4
 352 0168 03EB8403 		add	r3, r3, r4, lsl #2
 353 016c 674D     		ldr	r5, .L56+32
 354 016e 9A6A     		ldr	r2, [r3, #40]
 355 0170 6749     		ldr	r1, .L56+36
 356 0172 2846     		mov	r0, r5
 357 0174 FFF7FEFF 		bl	sprintf
 358              	.LVL56:
 400:main.c        ****                 UART_1_PutString(output);
 359              		.loc 1 400 0 discriminator 3
 360 0178 2846     		mov	r0, r5
 361 017a FFF7FEFF 		bl	UART_1_PutString
 362              	.LVL57:
 397:main.c        ****             for (int i = 0; i < 5; i++) 
 363              		.loc 1 397 0 discriminator 3
 364 017e 0134     		adds	r4, r4, #1
 365              	.LVL58:
 366              	.L12:
 397:main.c        ****             for (int i = 0; i < 5; i++) 
 367              		.loc 1 397 0 is_stmt 0 discriminator 1
 368 0180 042C     		cmp	r4, #4
 369 0182 F0DD     		ble	.L13
 370              	.LBE4:
 401:main.c        ****             }
 402:main.c        ****             
 403:main.c        ****             
 404:main.c        ****             control_photodiode_Write(CLAW_SENSING);    // changes to claw photodiode
 371              		.loc 1 404 0 is_stmt 1
 372 0184 0120     		movs	r0, #1
 373 0186 FFF7FEFF 		bl	control_photodiode_Write
 374              	.LVL59:
 405:main.c        ****             colour_sensing_algorithm = CLAW_1_ALGORITHM;   // changes it to claw algorithm
 375              		.loc 1 405 0
 376 018a 0122     		movs	r2, #1
 377 018c 584B     		ldr	r3, .L56+4
 378 018e DA60     		str	r2, [r3, #12]
 379              	.LVL60:
 380              	.LBB5:
 406:main.c        ****                                  
 407:main.c        ****             // THEN WE FILTER THE NO PUCK VALUES:
 408:main.c        ****             int puckConstructionPlanIndex = 0; // Will be used to iterate through the 3 puck colour
 409:main.c        ****             
 410:main.c        ****             // Iterate over all 5 rack slots and place the 3 colours into puckConstructionPlan.
 411:main.c        ****             for (int puckRackIndex = 0; puckRackIndex < 5; puckRackIndex++){
 381              		.loc 1 411 0
 382 0190 0023     		movs	r3, #0
 383              	.LBE5:
ARM GAS  C:\Users\Misha\AppData\Local\Temp\ccVSruQj.s 			page 15


 408:main.c        ****             
 384              		.loc 1 408 0
 385 0192 1A46     		mov	r2, r3
 386              	.LBB6:
 387              		.loc 1 411 0
 388 0194 0CE0     		b	.L14
 389              	.LVL61:
 390              	.L16:
 412:main.c        ****                 if (puckRackColours[puckRackIndex] != BLANK && puckConstructionPlanIndex != 3){
 391              		.loc 1 412 0
 392 0196 5649     		ldr	r1, .L56+4
 393 0198 01EB8301 		add	r1, r1, r3, lsl #2
 394 019c 886A     		ldr	r0, [r1, #40]
 395 019e 30B1     		cbz	r0, .L15
 396              		.loc 1 412 0 is_stmt 0 discriminator 1
 397 01a0 032A     		cmp	r2, #3
 398 01a2 04D0     		beq	.L15
 413:main.c        ****                     puckConstructionPlan[puckConstructionPlanIndex] = puckRackColours[puckRackIndex
 399              		.loc 1 413 0 is_stmt 1
 400 01a4 5249     		ldr	r1, .L56+4
 401 01a6 01EB8201 		add	r1, r1, r2, lsl #2
 402 01aa C861     		str	r0, [r1, #28]
 414:main.c        ****                     puckConstructionPlanIndex++;
 403              		.loc 1 414 0
 404 01ac 0132     		adds	r2, r2, #1
 405              	.LVL62:
 406              	.L15:
 411:main.c        ****                 if (puckRackColours[puckRackIndex] != BLANK && puckConstructionPlanIndex != 3){
 407              		.loc 1 411 0 discriminator 2
 408 01ae 0133     		adds	r3, r3, #1
 409              	.LVL63:
 410              	.L14:
 411:main.c        ****                 if (puckRackColours[puckRackIndex] != BLANK && puckConstructionPlanIndex != 3){
 411              		.loc 1 411 0 is_stmt 0 discriminator 1
 412 01b0 042B     		cmp	r3, #4
 413 01b2 F0DD     		ble	.L16
 414              	.LBE6:
 415:main.c        ****                 }
 416:main.c        ****             }
 417:main.c        ****                     
 418:main.c        ****             // MOVE into the next state: 
 419:main.c        ****             state = STATE_LOCATE_BLOCK_AND_PUCKS;
 415              		.loc 1 419 0 is_stmt 1
 416 01b4 0222     		movs	r2, #2
 417              	.LVL64:
 418 01b6 4E4B     		ldr	r3, .L56+4
 419              	.LVL65:
 420 01b8 5A60     		str	r2, [r3, #4]
 421              	.LVL66:
 422              	.L9:
 423              	.LBE2:
 420:main.c        ****             
 421:main.c        ****             /*
 422:main.c        ****             if (!moving){
 423:main.c        ****                 moving = 1;
 424:main.c        ****             if (initialisation){moveBackwardIndefinitely(); initialisation = 0;}
 425:main.c        ****             else {moveForwardIndefinitely();}        
ARM GAS  C:\Users\Misha\AppData\Local\Temp\ccVSruQj.s 			page 16


 426:main.c        **** 
 427:main.c        ****             moveAndAngle(SCAN_INITIALISE_HORIZONTAL,PLAN_SCAN_VERTICAL,WEST_ANGLE); // Move beyond 
 428:main.c        ****             
 429:main.c        ****             // Read the black wall
 430:main.c        ****             
 431:main.c        ****             for (currentPuckRackScanningIndex = 0; currentPuckRackScanningIndex <= 4; currentPuckRa
 432:main.c        ****                 moveAndAngle(puckRackOffsetsFromWest[currentPuckRackScanningIndex],PLAN_SCAN_VERTIC
 433:main.c        ****                 puckRackColours[currentPuckRackScanningIndex] = colourSensingOutput();
 434:main.c        ****             }
 435:main.c        ****    
 436:main.c        ****             */
 437:main.c        ****         }
 438:main.c        **** 
 439:main.c        **** //
 440:main.c        **** // *** 2. STATE LOCATE BLOCKS AND PUCKS: *** // 
 441:main.c        **** //
 442:main.c        ****         
 443:main.c        ****     	if (state == STATE_LOCATE_BLOCK_AND_PUCKS){
 424              		.loc 1 443 0
 425 01ba 4D4B     		ldr	r3, .L56+4
 426 01bc 5B68     		ldr	r3, [r3, #4]
 427 01be 022B     		cmp	r3, #2
 428 01c0 40F08781 		bne	.L17
 429              	.LBB7:
 444:main.c        ****             
 445:main.c        **** 
 446:main.c        ****             // move away from home base:
 447:main.c        ****             
 448:main.c        ****             translateMoveDynamic(25, -35, 100, FALSE);
 430              		.loc 1 448 0
 431 01c4 0023     		movs	r3, #0
 432 01c6 6422     		movs	r2, #100
 433 01c8 6FF02201 		mvn	r1, #34
 434 01cc 1920     		movs	r0, #25
 435 01ce FFF7FEFF 		bl	translateMoveDynamic
 436              	.LVL67:
 449:main.c        ****             straightAdjust();
 437              		.loc 1 449 0
 438 01d2 FFF7FEFF 		bl	straightAdjust
 439              	.LVL68:
 450:main.c        ****     
 451:main.c        ****             // Move until construction zone            
 452:main.c        ****             moveUntil(130, FORWARD, LESS_THAN, FRONT_LEFT, SPEED, TRUE);  // Move to west wall
 440              		.loc 1 452 0
 441 01d6 0121     		movs	r1, #1
 442 01d8 0191     		str	r1, [sp, #4]
 443 01da AA23     		movs	r3, #170
 444 01dc 0093     		str	r3, [sp]
 445 01de 0023     		movs	r3, #0
 446 01e0 0422     		movs	r2, #4
 447 01e2 8220     		movs	r0, #130
 448 01e4 FFF7FEFF 		bl	moveUntil
 449              	.LVL69:
 453:main.c        ****             straightAdjust();                                       // straighten against west wall
 450              		.loc 1 453 0
 451 01e8 FFF7FEFF 		bl	straightAdjust
 452              	.LVL70:
ARM GAS  C:\Users\Misha\AppData\Local\Temp\ccVSruQj.s 			page 17


 454:main.c        ****             
 455:main.c        ****             // SCAN FOR BLOCKS:
 456:main.c        ****             
 457:main.c        ****             distanceSensor(SIDE_LEFT);  // takes how far we are away from home base wall
 453              		.loc 1 457 0
 454 01ec 0220     		movs	r0, #2
 455 01ee FFF7FEFF 		bl	distanceSensor
 456              	.LVL71:
 458:main.c        ****             while (ultrasonic_distances_mm[SIDE_LEFT] > (BLOCK_ZONE_SOUTH - WIDTH_SENSOR_TO_SENSOR)
 457              		.loc 1 458 0
 458 01f2 02E0     		b	.L18
 459              	.L19:
 459:main.c        ****                 // stays in while loop until side left value taken is appropriate
 460:main.c        ****                 // E.g. the side left value should be less than BLOCK_ZONE_SOUTH - WIDTH_SENSOR_TO_
 461:main.c        ****                 // So, it should be less than 500mm - 220mm = 280mm
 462:main.c        ****                 distanceSensor(SIDE_LEFT);
 460              		.loc 1 462 0
 461 01f4 0220     		movs	r0, #2
 462 01f6 FFF7FEFF 		bl	distanceSensor
 463              	.LVL72:
 464              	.L18:
 458:main.c        ****             while (ultrasonic_distances_mm[SIDE_LEFT] > (BLOCK_ZONE_SOUTH - WIDTH_SENSOR_TO_SENSOR)
 465              		.loc 1 458 0
 466 01fa 464B     		ldr	r3, .L56+40
 467 01fc 9C68     		ldr	r4, [r3, #8]
 468 01fe B4F58C7F 		cmp	r4, #280
 469 0202 F7DC     		bgt	.L19
 463:main.c        ****                } 
 464:main.c        ****             
 465:main.c        ****             
 466:main.c        ****             int block_check = BLOCK_ZONE_NORTH - ultrasonic_distances_mm[SIDE_LEFT] - WIDTH_SENSOR_
 470              		.loc 1 466 0
 471 0204 C4F50374 		rsb	r4, r4, #524
 472 0208 0134     		adds	r4, r4, #1
 473              	.LVL73:
 467:main.c        ****                 // TAKES our distance from north wall, 
 468:main.c        ****                 // takes distance from arena, takes away 
 469:main.c        ****                 // minus 50 is a tolerance
 470:main.c        ****                 // This equals 700MM - leftside - 220mm + 45 = 525mm maximum, but we'll be away fro
 471:main.c        ****             
 472:main.c        ****             sprintf(output, "distance from robot to block: %d \t", block_check);
 474              		.loc 1 472 0
 475 020a 404D     		ldr	r5, .L56+32
 476 020c 2246     		mov	r2, r4
 477 020e 4249     		ldr	r1, .L56+44
 478 0210 2846     		mov	r0, r5
 479 0212 FFF7FEFF 		bl	sprintf
 480              	.LVL74:
 473:main.c        ****             UART_1_PutString(output);
 481              		.loc 1 473 0
 482 0216 2846     		mov	r0, r5
 483 0218 FFF7FEFF 		bl	UART_1_PutString
 484              	.LVL75:
 474:main.c        ****             
 475:main.c        ****             //block_check = 350;  // This is a default length that isn't dynamic, the block check
 476:main.c        ****             
 477:main.c        ****             
ARM GAS  C:\Users\Misha\AppData\Local\Temp\ccVSruQj.s 			page 18


 478:main.c        ****             // Stopping at the West side of the block: 
 479:main.c        ****             moveUntil(block_check, BACKWARD, LESS_THAN, SIDE_RIGHT, SPEED, TRUE);   
 485              		.loc 1 479 0
 486 021c 0123     		movs	r3, #1
 487 021e 0193     		str	r3, [sp, #4]
 488 0220 AA23     		movs	r3, #170
 489 0222 0093     		str	r3, [sp]
 490 0224 0323     		movs	r3, #3
 491 0226 0422     		movs	r2, #4
 492 0228 0021     		movs	r1, #0
 493 022a 2046     		mov	r0, r4
 494 022c FFF7FEFF 		bl	moveUntil
 495              	.LVL76:
 480:main.c        ****                                 // this will move backwards until it hits the block or the wall
 481:main.c        ****             blinkLED(GREEN,1000);      // To show it ended at the correct spot
 496              		.loc 1 481 0
 497 0230 4FF47A71 		mov	r1, #1000
 498 0234 0220     		movs	r0, #2
 499 0236 FFF7FEFF 		bl	blinkLED
 500              	.LVL77:
 482:main.c        ****             
 483:main.c        ****             
 484:main.c        ****             // Update the west clearance of the block: 
 485:main.c        ****             
 486:main.c        ****             //toleranceCheck();       // This checks if the values being polled are appropriate 
 487:main.c        ****             
 488:main.c        ****             straightAdjust();
 501              		.loc 1 488 0
 502 023a FFF7FEFF 		bl	straightAdjust
 503              	.LVL78:
 489:main.c        ****             distanceSensor(FRONT_LEFT); // Use front_right instead? 
 504              		.loc 1 489 0
 505 023e 0020     		movs	r0, #0
 506 0240 FFF7FEFF 		bl	distanceSensor
 507              	.LVL79:
 490:main.c        ****             CyDelay(DELAY);
 508              		.loc 1 490 0
 509 0244 3C20     		movs	r0, #60
 510 0246 FFF7FEFF 		bl	CyDelay
 511              	.LVL80:
 491:main.c        ****             
 492:main.c        ****             block_location[WEST] = ultrasonic_distances_mm[FRONT_LEFT] + DISTANCE_FRONT_SENSOR_TO_S
 512              		.loc 1 492 0
 513 024a 324D     		ldr	r5, .L56+40
 514 024c 2B68     		ldr	r3, [r5]
 515 024e 9633     		adds	r3, r3, #150
 516 0250 274E     		ldr	r6, .L56+4
 517 0252 B364     		str	r3, [r6, #72]
 493:main.c        ****             
 494:main.c        ****  
 495:main.c        ****             //straightAdjust();                   // Ensure we are straight to take measurements
 496:main.c        ****                                                   // may need to readjust this 
 497:main.c        ****             
 498:main.c        ****             
 499:main.c        ****             // Move back a bit to find the left side and right side values (adds a bit of tolerance
 500:main.c        ****             //moveDynamic(-(BLOCK_WIDTH/2), SPEED, TRUE);   
 501:main.c        ****             // Double check if the above is required
ARM GAS  C:\Users\Misha\AppData\Local\Temp\ccVSruQj.s 			page 19


 502:main.c        ****             
 503:main.c        ****             //straightAdjust();                   // Ensure we are straight to take measurements
 504:main.c        ****                                                 // may need to readjust this 
 505:main.c        ****             
 506:main.c        ****             
 507:main.c        ****             // Updating the South Clearances of the object: 
 508:main.c        ****             
 509:main.c        ****             distanceSensor(SIDE_RIGHT); 
 518              		.loc 1 509 0
 519 0254 0320     		movs	r0, #3
 520 0256 FFF7FEFF 		bl	distanceSensor
 521              	.LVL81:
 510:main.c        ****             CyDelay(60); 
 522              		.loc 1 510 0
 523 025a 3C20     		movs	r0, #60
 524 025c FFF7FEFF 		bl	CyDelay
 525              	.LVL82:
 511:main.c        ****             distanceSensor(SIDE_LEFT); 
 526              		.loc 1 511 0
 527 0260 0220     		movs	r0, #2
 528 0262 FFF7FEFF 		bl	distanceSensor
 529              	.LVL83:
 512:main.c        ****             CyDelay(60); 
 530              		.loc 1 512 0
 531 0266 3C20     		movs	r0, #60
 532 0268 FFF7FEFF 		bl	CyDelay
 533              	.LVL84:
 513:main.c        ****             
 514:main.c        ****             block_location[SOUTH] = ultrasonic_distances_mm[SIDE_LEFT] + WIDTH_SENSOR_TO_SENSOR + u
 534              		.loc 1 514 0
 535 026c AB68     		ldr	r3, [r5, #8]
 536 026e 03F1DC02 		add	r2, r3, #220
 537 0272 EB68     		ldr	r3, [r5, #12]
 538 0274 1344     		add	r3, r3, r2
 539 0276 7364     		str	r3, [r6, #68]
 515:main.c        ****             
 516:main.c        ****             // Check that the value makes sense: 
 517:main.c        ****             if (block_location[SOUTH] > block_check) {
 540              		.loc 1 517 0
 541 0278 9C42     		cmp	r4, r3
 542 027a 17DA     		bge	.L20
 518:main.c        ****                 moveDynamic(-(BLOCK_WIDTH/2),SPEED,TRUE);
 543              		.loc 1 518 0
 544 027c 0122     		movs	r2, #1
 545 027e AA21     		movs	r1, #170
 546 0280 6FF02C00 		mvn	r0, #44
 547 0284 FFF7FEFF 		bl	moveDynamic
 548              	.LVL85:
 519:main.c        ****                 
 520:main.c        ****                 distanceSensor(SIDE_RIGHT); 
 549              		.loc 1 520 0
 550 0288 0320     		movs	r0, #3
 551 028a FFF7FEFF 		bl	distanceSensor
 552              	.LVL86:
 521:main.c        ****                 CyDelay(60); 
 553              		.loc 1 521 0
 554 028e 3C20     		movs	r0, #60
ARM GAS  C:\Users\Misha\AppData\Local\Temp\ccVSruQj.s 			page 20


 555 0290 FFF7FEFF 		bl	CyDelay
 556              	.LVL87:
 522:main.c        ****                 distanceSensor(SIDE_LEFT); 
 557              		.loc 1 522 0
 558 0294 0220     		movs	r0, #2
 559 0296 FFF7FEFF 		bl	distanceSensor
 560              	.LVL88:
 523:main.c        ****                 CyDelay(60); 
 561              		.loc 1 523 0
 562 029a 3C20     		movs	r0, #60
 563 029c FFF7FEFF 		bl	CyDelay
 564              	.LVL89:
 524:main.c        ****             
 525:main.c        ****             block_location[SOUTH] = ultrasonic_distances_mm[SIDE_LEFT] + WIDTH_SENSOR_TO_SENSOR + u
 565              		.loc 1 525 0
 566 02a0 AB68     		ldr	r3, [r5, #8]
 567 02a2 03F1DC02 		add	r2, r3, #220
 568 02a6 EB68     		ldr	r3, [r5, #12]
 569 02a8 1344     		add	r3, r3, r2
 570 02aa 7364     		str	r3, [r6, #68]
 571              	.L20:
 526:main.c        ****             }
 527:main.c        ****             
 528:main.c        ****             // Stopping at the East side of the block: 
 529:main.c        ****             moveUntil(block_check, BACKWARD, GREATER_THAN, SIDE_RIGHT, SPEED, TRUE);  
 572              		.loc 1 529 0
 573 02ac 0123     		movs	r3, #1
 574 02ae 0193     		str	r3, [sp, #4]
 575 02b0 AA23     		movs	r3, #170
 576 02b2 0093     		str	r3, [sp]
 577 02b4 0323     		movs	r3, #3
 578 02b6 0522     		movs	r2, #5
 579 02b8 0021     		movs	r1, #0
 580 02ba 2046     		mov	r0, r4
 581 02bc FFF7FEFF 		bl	moveUntil
 582              	.LVL90:
 530:main.c        ****                                 // this will move backwards until no longer hitting the block, or t
 531:main.c        ****             blinkLED(GREEN,1000);      // To show it ended at the correct spot
 583              		.loc 1 531 0
 584 02c0 4FF47A71 		mov	r1, #1000
 585 02c4 0220     		movs	r0, #2
 586 02c6 FFF7FEFF 		bl	blinkLED
 587              	.LVL91:
 532:main.c        ****             
 533:main.c        ****             // Updating the East Clearance:
 534:main.c        ****             block_location[EAST] = ultrasonic_distances_mm[BACK] + DISTANCE_BACK_SENSOR_TO_SIDE_SEN
 588              		.loc 1 534 0
 589 02ca 124B     		ldr	r3, .L56+40
 590 02cc 1B69     		ldr	r3, [r3, #16]
 591 02ce 6433     		adds	r3, r3, #100
 592 02d0 074A     		ldr	r2, .L56+4
 593 02d2 1364     		str	r3, [r2, #64]
 535:main.c        ****                                                         // double check the distance back sensor to
 536:main.c        ****                 
 537:main.c        ****             // Updating the North Clearance: 
 538:main.c        ****             if (ARENA_WIDTH - block_location[EAST] - block_location[EAST] > BLOCK_WIDTH) {
 594              		.loc 1 538 0
ARM GAS  C:\Users\Misha\AppData\Local\Temp\ccVSruQj.s 			page 21


 595 02d4 C3F59662 		rsb	r2, r3, #1200
 596 02d8 D31A     		subs	r3, r2, r3
 597 02da 5A2B     		cmp	r3, #90
 598 02dc 1EDD     		ble	.L21
 539:main.c        ****                 // block is " -- " this orientation
 540:main.c        ****                 block_location[NORTH] = ARENA_WIDTH - block_location[SOUTH] - BLOCK_WIDTH;         
 599              		.loc 1 540 0
 600 02de 044A     		ldr	r2, .L56+4
 601 02e0 536C     		ldr	r3, [r2, #68]
 602 02e2 C3F58A63 		rsb	r3, r3, #1104
 603 02e6 0633     		adds	r3, r3, #6
 604 02e8 D363     		str	r3, [r2, #60]
 605 02ea 1DE0     		b	.L22
 606              	.L57:
 607              		.align	2
 608              	.L56:
 609 02ec 00000000 		.word	.LC0
 610 02f0 00000000 		.word	.LANCHOR0
 611 02f4 00000000 		.word	internal_orientation
 612 02f8 00000000 		.word	TIH
 613 02fc 00000000 		.word	StartIH
 614 0300 18000000 		.word	.LC1
 615 0304 00000000 		.word	.LANCHOR1
 616 0308 38000000 		.word	.LC2
 617 030c 00000000 		.word	output
 618 0310 4C000000 		.word	.LC3
 619 0314 00000000 		.word	ultrasonic_distances_mm
 620 0318 54000000 		.word	.LC4
 621              	.L21:
 541:main.c        ****             }
 542:main.c        ****             else {
 543:main.c        ****                 // block is " | " this orientation
 544:main.c        ****                 block_location[NORTH] = ARENA_WIDTH - block_location[SOUTH] - BLOCK_LENGTH;
 622              		.loc 1 544 0
 623 031c B54A     		ldr	r2, .L58
 624 031e 536C     		ldr	r3, [r2, #68]
 625 0320 C3F56D73 		rsb	r3, r3, #948
 626 0324 0233     		adds	r3, r3, #2
 627 0326 D363     		str	r3, [r2, #60]
 628              	.L22:
 545:main.c        ****             }
 546:main.c        ****             
 547:main.c        **** 
 548:main.c        ****             /*
 549:main.c        ****             // If either of the following cases are true, we can just put in default values, 
 550:main.c        ****                 // as it will be easy to circumvent the block
 551:main.c        ****                 // This orientation will be unlikely 
 552:main.c        ****             
 553:main.c        ****             if (ultrasonic_distances_mm[BACK] < SAFETY_MARGIN + 50) {
 554:main.c        ****                 // block is " | " this orientation, and close to the side wall
 555:main.c        ****                 
 556:main.c        ****                 // Fill out all the details: 
 557:main.c        ****                 block_location[NORTH] = ARENA_WIDTH - ultrasonic_distances_mm[SIDE_LEFT] - ultrason
 558:main.c        ****                 block_location[EAST] = 0;
 559:main.c        ****                 block_location[SOUTH] = ultrasonic_distances_mm[SIDE_LEFT] + WIDTH_SENSOR_TO_SENSOR
 560:main.c        ****                 block_location[WEST] = ARENA_WIDTH - BLOCK_WIDTH; 
 561:main.c        ****                 
ARM GAS  C:\Users\Misha\AppData\Local\Temp\ccVSruQj.s 			page 22


 562:main.c        ****             }
 563:main.c        ****             if (ultrasonic_distances_mm[BACK] < BLOCK_LENGTH + 50) {
 564:main.c        ****                 // block is " -- " this orientation, and close to the side wall 
 565:main.c        ****                 
 566:main.c        ****                 // Fill out all the details: 
 567:main.c        ****                 block_location[NORTH] = ARENA_WIDTH - ultrasonic_distances_mm[SIDE_LEFT] - ultrason
 568:main.c        ****                 block_location[EAST] = 0;
 569:main.c        ****                 block_location[SOUTH] = ultrasonic_distances_mm[SIDE_LEFT] + WIDTH_SENSOR_TO_SENSOR
 570:main.c        ****                 block_location[WEST] = ARENA_WIDTH - BLOCK_LENGTH; 
 571:main.c        ****             }
 572:main.c        ****             
 573:main.c        **** 
 574:main.c        ****             // Block location values:
 575:main.c        ****             block_location[SOUTH] = ultrasonic_distances_mm[SIDE_LEFT] + WIDTH_SENSOR_TO_SENSOR + u
 576:main.c        ****             block_location[WEST] = ultrasonic_distances_mm[FRONT_LEFT] + DISTANCE_FRONT_SENSOR_TO_S
 577:main.c        ****             CyDelay(1000);         
 578:main.c        ****             
 579:main.c        ****             */
 580:main.c        ****             
 581:main.c        ****             
 582:main.c        ****             //PRINTING BLOCK LOCATIONS: 
 583:main.c        ****             sprintf(output, "north: %d, \n", block_location[NORTH]);       
 629              		.loc 1 583 0
 630 0328 B24D     		ldr	r5, .L58
 631 032a B34C     		ldr	r4, .L58+4
 632              	.LVL92:
 633 032c EA6B     		ldr	r2, [r5, #60]
 634 032e B349     		ldr	r1, .L58+8
 635 0330 2046     		mov	r0, r4
 636 0332 FFF7FEFF 		bl	sprintf
 637              	.LVL93:
 584:main.c        ****             UART_1_PutString(output);
 638              		.loc 1 584 0
 639 0336 2046     		mov	r0, r4
 640 0338 FFF7FEFF 		bl	UART_1_PutString
 641              	.LVL94:
 585:main.c        ****             sprintf(output, "east: %d, \n", block_location[EAST]);       
 642              		.loc 1 585 0
 643 033c 2A6C     		ldr	r2, [r5, #64]
 644 033e B049     		ldr	r1, .L58+12
 645 0340 2046     		mov	r0, r4
 646 0342 FFF7FEFF 		bl	sprintf
 647              	.LVL95:
 586:main.c        ****             UART_1_PutString(output);
 648              		.loc 1 586 0
 649 0346 2046     		mov	r0, r4
 650 0348 FFF7FEFF 		bl	UART_1_PutString
 651              	.LVL96:
 587:main.c        ****             sprintf(output, "south: %d, \n", block_location[SOUTH]);       
 652              		.loc 1 587 0
 653 034c 6A6C     		ldr	r2, [r5, #68]
 654 034e AD49     		ldr	r1, .L58+16
 655 0350 2046     		mov	r0, r4
 656 0352 FFF7FEFF 		bl	sprintf
 657              	.LVL97:
 588:main.c        ****             UART_1_PutString(output);
 658              		.loc 1 588 0
ARM GAS  C:\Users\Misha\AppData\Local\Temp\ccVSruQj.s 			page 23


 659 0356 2046     		mov	r0, r4
 660 0358 FFF7FEFF 		bl	UART_1_PutString
 661              	.LVL98:
 589:main.c        ****             sprintf(output, "west: %d, \n", block_location[WEST]);       
 662              		.loc 1 589 0
 663 035c AA6C     		ldr	r2, [r5, #72]
 664 035e AA49     		ldr	r1, .L58+20
 665 0360 2046     		mov	r0, r4
 666 0362 FFF7FEFF 		bl	sprintf
 667              	.LVL99:
 590:main.c        ****             UART_1_PutString(output);
 668              		.loc 1 590 0
 669 0366 2046     		mov	r0, r4
 670 0368 FFF7FEFF 		bl	UART_1_PutString
 671              	.LVL100:
 591:main.c        ****             
 592:main.c        ****             
 593:main.c        ****             // Start moving forward to find the location of the PUCKS:           
 594:main.c        ****             changeOrientation(EAST, SPEED);                             // No matter where we are t
 672              		.loc 1 594 0
 673 036c AA21     		movs	r1, #170
 674 036e 0120     		movs	r0, #1
 675 0370 FFF7FEFF 		bl	changeOrientation
 676              	.LVL101:
 595:main.c        ****             moveUntil(200, FORWARD, LESS_THAN, FRONT_LEFT, SPEED, TRUE);
 677              		.loc 1 595 0
 678 0374 0126     		movs	r6, #1
 679 0376 0196     		str	r6, [sp, #4]
 680 0378 4FF0AA08 		mov	r8, #170
 681 037c CDF80080 		str	r8, [sp]
 682 0380 0023     		movs	r3, #0
 683 0382 0422     		movs	r2, #4
 684 0384 3146     		mov	r1, r6
 685 0386 C820     		movs	r0, #200
 686 0388 FFF7FEFF 		bl	moveUntil
 687              	.LVL102:
 596:main.c        ****                     // above code could be inefficient if puck is closer to west side of arena 
 597:main.c        ****             straightAdjust();
 688              		.loc 1 597 0
 689 038c FFF7FEFF 		bl	straightAdjust
 690              	.LVL103:
 598:main.c        ****             
 599:main.c        ****             distanceSensor(SIDE_RIGHT);
 691              		.loc 1 599 0
 692 0390 0320     		movs	r0, #3
 693 0392 FFF7FEFF 		bl	distanceSensor
 694              	.LVL104:
 600:main.c        ****             CyDelay(50);
 695              		.loc 1 600 0
 696 0396 3220     		movs	r0, #50
 697 0398 FFF7FEFF 		bl	CyDelay
 698              	.LVL105:
 601:main.c        ****             
 602:main.c        ****             sprintf(output, "%d \t", ultrasonic_distances_mm[SIDE_RIGHT]);
 699              		.loc 1 602 0
 700 039c 9B4F     		ldr	r7, .L58+24
 701 039e FA68     		ldr	r2, [r7, #12]
ARM GAS  C:\Users\Misha\AppData\Local\Temp\ccVSruQj.s 			page 24


 702 03a0 9B49     		ldr	r1, .L58+28
 703 03a2 2046     		mov	r0, r4
 704 03a4 FFF7FEFF 		bl	sprintf
 705              	.LVL106:
 603:main.c        ****             UART_1_PutString(output);
 706              		.loc 1 603 0
 707 03a8 2046     		mov	r0, r4
 708 03aa FFF7FEFF 		bl	UART_1_PutString
 709              	.LVL107:
 604:main.c        ****             
 605:main.c        ****             int puck_check = ARENA_LENGTH - PUCK_GRID_FROM_NORTH - ultrasonic_distances_mm[SIDE_RIG
 606:main.c        ****             puck_check = 750;
 607:main.c        ****             
 608:main.c        ****             sprintf(output, "puck check: %d, \n", puck_check);       
 710              		.loc 1 608 0
 711 03ae 40F2EE22 		movw	r2, #750
 712 03b2 9849     		ldr	r1, .L58+32
 713 03b4 2046     		mov	r0, r4
 714 03b6 FFF7FEFF 		bl	sprintf
 715              	.LVL108:
 609:main.c        ****             UART_1_PutString(output);
 716              		.loc 1 609 0
 717 03ba 2046     		mov	r0, r4
 718 03bc FFF7FEFF 		bl	UART_1_PutString
 719              	.LVL109:
 610:main.c        ****                         
 611:main.c        ****             // Check front and back sensors:
 612:main.c        ****             moveUntil(puck_check, BACKWARD, LESS_THAN, SIDE_LEFT, SPEED, TRUE);   // this will move
 720              		.loc 1 612 0
 721 03c0 0196     		str	r6, [sp, #4]
 722 03c2 CDF80080 		str	r8, [sp]
 723 03c6 0223     		movs	r3, #2
 724 03c8 0422     		movs	r2, #4
 725 03ca 0021     		movs	r1, #0
 726 03cc 40F2EE20 		movw	r0, #750
 727 03d0 FFF7FEFF 		bl	moveUntil
 728              	.LVL110:
 613:main.c        ****             
 614:main.c        ****             
 615:main.c        ****             distanceSensor(FRONT_LEFT);
 729              		.loc 1 615 0
 730 03d4 0020     		movs	r0, #0
 731 03d6 FFF7FEFF 		bl	distanceSensor
 732              	.LVL111:
 616:main.c        ****             CyDelay(DELAY);
 733              		.loc 1 616 0
 734 03da 3C20     		movs	r0, #60
 735 03dc FFF7FEFF 		bl	CyDelay
 736              	.LVL112:
 617:main.c        ****             distanceSensor(BACK);
 737              		.loc 1 617 0
 738 03e0 0420     		movs	r0, #4
 739 03e2 FFF7FEFF 		bl	distanceSensor
 740              	.LVL113:
 618:main.c        ****             CyDelay(DELAY);
 741              		.loc 1 618 0
 742 03e6 3C20     		movs	r0, #60
ARM GAS  C:\Users\Misha\AppData\Local\Temp\ccVSruQj.s 			page 25


 743 03e8 FFF7FEFF 		bl	CyDelay
 744              	.LVL114:
 619:main.c        ****             
 620:main.c        ****             // checking if accidentally detected block:
 621:main.c        ****             // if the distance we are at is less than the block, we can say we didnt detect the blo
 622:main.c        ****             if (ultrasonic_distances_mm[FRONT_LEFT] + DISTANCE_FRONT_SENSOR_TO_SIDE_SENSOR < block_
 745              		.loc 1 622 0
 746 03ec 3B68     		ldr	r3, [r7]
 747 03ee 9633     		adds	r3, r3, #150
 748 03f0 2A6C     		ldr	r2, [r5, #64]
 749 03f2 9342     		cmp	r3, r2
 750 03f4 0ADA     		bge	.L23
 623:main.c        ****             {
 624:main.c        ****                 // puck detected
 625:main.c        ****                 // puck detectedDISTANCE_FRONT_SENSOR_TO_SIDE_SENSOR
 626:main.c        ****                 puck_location[EAST] = ultrasonic_distances_mm[FRONT_LEFT] + DISTANCE_FRONT_SENSOR_T
 751              		.loc 1 626 0
 752 03f6 2B65     		str	r3, [r5, #80]
 627:main.c        ****                 puck_location[WEST] = ARENA_WIDTH - puck_location[EAST] - PUCK_GRID_WIDTH;
 753              		.loc 1 627 0
 754 03f8 C3F56873 		rsb	r3, r3, #928
 755 03fc 0233     		adds	r3, r3, #2
 756 03fe AB65     		str	r3, [r5, #88]
 628:main.c        ****                 
 629:main.c        ****                 blinkLED(GREEN,1000);   // puck location was succesfully found
 757              		.loc 1 629 0
 758 0400 4FF47A71 		mov	r1, #1000
 759 0404 0220     		movs	r0, #2
 760 0406 FFF7FEFF 		bl	blinkLED
 761              	.LVL115:
 762 040a 3FE0     		b	.L24
 763              	.L23:
 630:main.c        ****             }
 631:main.c        ****             else {
 632:main.c        ****                 // block detected & rescans from opposite side:
 633:main.c        ****                 
 634:main.c        ****                 blinkLED(RED,1000); // indicates we hit the block instead 
 764              		.loc 1 634 0
 765 040c 4FF47A71 		mov	r1, #1000
 766 0410 0120     		movs	r0, #1
 767 0412 FFF7FEFF 		bl	blinkLED
 768              	.LVL116:
 635:main.c        ****                 
 636:main.c        ****                 moveUntil(200, BACKWARD, LESS_THAN, BACK, SPEED, TRUE);   // This should take us to
 769              		.loc 1 636 0
 770 0416 0125     		movs	r5, #1
 771 0418 0195     		str	r5, [sp, #4]
 772 041a AA24     		movs	r4, #170
 773 041c 0094     		str	r4, [sp]
 774 041e 0423     		movs	r3, #4
 775 0420 1A46     		mov	r2, r3
 776 0422 0021     		movs	r1, #0
 777 0424 C820     		movs	r0, #200
 778 0426 FFF7FEFF 		bl	moveUntil
 779              	.LVL117:
 637:main.c        ****                 changeOrientation(WEST, SPEED);
 780              		.loc 1 637 0
ARM GAS  C:\Users\Misha\AppData\Local\Temp\ccVSruQj.s 			page 26


 781 042a 2146     		mov	r1, r4
 782 042c 0320     		movs	r0, #3
 783 042e FFF7FEFF 		bl	changeOrientation
 784              	.LVL118:
 638:main.c        ****                 moveUntil(150, FORWARD, LESS_THAN, FRONT_LEFT, SPEED, TRUE);
 785              		.loc 1 638 0
 786 0432 0195     		str	r5, [sp, #4]
 787 0434 0094     		str	r4, [sp]
 788 0436 0023     		movs	r3, #0
 789 0438 0422     		movs	r2, #4
 790 043a 2946     		mov	r1, r5
 791 043c 9620     		movs	r0, #150
 792 043e FFF7FEFF 		bl	moveUntil
 793              	.LVL119:
 639:main.c        ****                 straightAdjust();   // adjusts against the wall
 794              		.loc 1 639 0
 795 0442 FFF7FEFF 		bl	straightAdjust
 796              	.LVL120:
 640:main.c        ****                 moveUntil(puck_check, BACKWARD, LESS_THAN, SIDE_RIGHT, SPEED, TRUE);   // this will
 797              		.loc 1 640 0
 798 0446 0195     		str	r5, [sp, #4]
 799 0448 0094     		str	r4, [sp]
 800 044a 0323     		movs	r3, #3
 801 044c 0422     		movs	r2, #4
 802 044e 0021     		movs	r1, #0
 803 0450 40F2EE20 		movw	r0, #750
 804 0454 FFF7FEFF 		bl	moveUntil
 805              	.LVL121:
 641:main.c        ****                 blinkLED(GREEN,1000);   // Find the edge of the puck zone 
 806              		.loc 1 641 0
 807 0458 4FF47A71 		mov	r1, #1000
 808 045c 0220     		movs	r0, #2
 809 045e FFF7FEFF 		bl	blinkLED
 810              	.LVL122:
 642:main.c        ****                                 
 643:main.c        ****                 distanceSensor(FRONT_LEFT);
 811              		.loc 1 643 0
 812 0462 0020     		movs	r0, #0
 813 0464 FFF7FEFF 		bl	distanceSensor
 814              	.LVL123:
 644:main.c        ****                 CyDelay(DELAY);
 815              		.loc 1 644 0
 816 0468 3C20     		movs	r0, #60
 817 046a FFF7FEFF 		bl	CyDelay
 818              	.LVL124:
 645:main.c        ****                 distanceSensor(BACK);
 819              		.loc 1 645 0
 820 046e 0420     		movs	r0, #4
 821 0470 FFF7FEFF 		bl	distanceSensor
 822              	.LVL125:
 646:main.c        ****                 CyDelay(DELAY);
 823              		.loc 1 646 0
 824 0474 3C20     		movs	r0, #60
 825 0476 FFF7FEFF 		bl	CyDelay
 826              	.LVL126:
 647:main.c        ****                 
 648:main.c        ****                 puck_location[WEST] = ultrasonic_distances_mm[FRONT_LEFT] + DISTANCE_FRONT_SENSOR_T
ARM GAS  C:\Users\Misha\AppData\Local\Temp\ccVSruQj.s 			page 27


 827              		.loc 1 648 0
 828 047a 644B     		ldr	r3, .L58+24
 829 047c 1B68     		ldr	r3, [r3]
 830 047e 9633     		adds	r3, r3, #150
 831 0480 5C4A     		ldr	r2, .L58
 832 0482 9365     		str	r3, [r2, #88]
 649:main.c        ****                 puck_location[EAST] = ARENA_WIDTH - puck_location[WEST] + PUCK_GRID_WIDTH;
 833              		.loc 1 649 0
 834 0484 C3F5B763 		rsb	r3, r3, #1464
 835 0488 0633     		adds	r3, r3, #6
 836 048a 1365     		str	r3, [r2, #80]
 837              	.L24:
 650:main.c        ****                 
 651:main.c        ****             }
 652:main.c        ****             
 653:main.c        ****             // Finding the different block & puck clearances: 
 654:main.c        ****             
 655:main.c        ****                     // there should be a threshold that allows the robot to travel through a cleara
 656:main.c        ****                     // E.g. robot width + 100mm
 657:main.c        ****             
 658:main.c        ****                     // the robot will travel to the chosen (block_clearance/2) and travel down ther
 659:main.c        ****                     // so it is in the middle of the block clearance and the wall 
 660:main.c        ****             
 661:main.c        ****                     // check if between the edge of the block and the puck zone gives enough cleara
 662:main.c        ****                     
 663:main.c        ****             
 664:main.c        ****             if (block_location[EAST] > WIDTH_WHEEL_TO_WHEEL + BLOCK_TOLERANCE) {
 838              		.loc 1 664 0
 839 048c 594B     		ldr	r3, .L58
 840 048e 1B6C     		ldr	r3, [r3, #64]
 841 0490 B3F5847F 		cmp	r3, #264
 842 0494 02DD     		ble	.L25
 665:main.c        ****                 // the east clearance of block check
 666:main.c        ****               blockEastClearance = 1;  
 843              		.loc 1 666 0
 844 0496 0122     		movs	r2, #1
 845 0498 564B     		ldr	r3, .L58
 846 049a 9A82     		strh	r2, [r3, #20]	@ movhi
 847              	.L25:
 667:main.c        ****             }
 668:main.c        ****             if (block_location[WEST] > WIDTH_WHEEL_TO_WHEEL + BLOCK_TOLERANCE) {
 848              		.loc 1 668 0
 849 049c 554B     		ldr	r3, .L58
 850 049e 9B6C     		ldr	r3, [r3, #72]
 851 04a0 B3F5847F 		cmp	r3, #264
 852 04a4 02DD     		ble	.L26
 669:main.c        ****                 // the east clearance of block check
 670:main.c        ****               blockWestClearance = 1;  
 853              		.loc 1 670 0
 854 04a6 0122     		movs	r2, #1
 855 04a8 524B     		ldr	r3, .L58
 856 04aa DA82     		strh	r2, [r3, #22]	@ movhi
 857              	.L26:
 671:main.c        ****             }
 672:main.c        ****             if (puck_location[EAST] > WIDTH_WHEEL_TO_WHEEL + BLOCK_TOLERANCE) {
 858              		.loc 1 672 0
 859 04ac 514B     		ldr	r3, .L58
ARM GAS  C:\Users\Misha\AppData\Local\Temp\ccVSruQj.s 			page 28


 860 04ae 1B6D     		ldr	r3, [r3, #80]
 861 04b0 B3F5847F 		cmp	r3, #264
 862 04b4 02DD     		ble	.L27
 673:main.c        ****                 // the east clearance of block check
 674:main.c        ****               blockEastClearance = 1;  
 863              		.loc 1 674 0
 864 04b6 0122     		movs	r2, #1
 865 04b8 4E4B     		ldr	r3, .L58
 866 04ba 9A82     		strh	r2, [r3, #20]	@ movhi
 867              	.L27:
 675:main.c        ****             }
 676:main.c        ****             if (puck_location[WEST] > WIDTH_WHEEL_TO_WHEEL + BLOCK_TOLERANCE) {
 868              		.loc 1 676 0
 869 04bc 4D4B     		ldr	r3, .L58
 870 04be 9B6D     		ldr	r3, [r3, #88]
 871 04c0 B3F5847F 		cmp	r3, #264
 872 04c4 02DD     		ble	.L28
 677:main.c        ****                 // the east clearance of block check
 678:main.c        ****               blockEastClearance = 1;  
 873              		.loc 1 678 0
 874 04c6 0122     		movs	r2, #1
 875 04c8 4A4B     		ldr	r3, .L58
 876 04ca 9A82     		strh	r2, [r3, #20]	@ movhi
 877              	.L28:
 679:main.c        ****             }
 680:main.c        ****             
 681:main.c        ****             
 682:main.c        ****             
 683:main.c        ****             // PUCK has now been found, enter the IF statements to locate and pick up pucks 
 684:main.c        ****             state = STATE_GO_TO_PUCKS;
 878              		.loc 1 684 0
 879 04cc 0322     		movs	r2, #3
 880 04ce 494B     		ldr	r3, .L58
 881 04d0 5A60     		str	r2, [r3, #4]
 882              	.LVL127:
 883              	.L17:
 884              	.LBE7:
 685:main.c        **** 	    }     
 686:main.c        **** 
 687:main.c        **** //
 688:main.c        **** // *** 3. STATE GO TO PUCKS: *** // 
 689:main.c        **** //
 690:main.c        **** 
 691:main.c        ****         // Ensure that we are @ east wall facing east at a minimum verticaldistance so we can turn 
 692:main.c        ****         
 693:main.c        ****         if (state == STATE_GO_TO_PUCKS){
 885              		.loc 1 693 0
 886 04d2 484B     		ldr	r3, .L58
 887 04d4 5B68     		ldr	r3, [r3, #4]
 888 04d6 032B     		cmp	r3, #3
 889 04d8 40F0CA80 		bne	.L29
 694:main.c        ****             
 695:main.c        **** 
 696:main.c        ****             // The different route finding Algorithms for the different combinations: 
 697:main.c        ****             
 698:main.c        ****             if (blockEastClearance && puckEastClearance){
 890              		.loc 1 698 0
ARM GAS  C:\Users\Misha\AppData\Local\Temp\ccVSruQj.s 			page 29


 891 04dc 454B     		ldr	r3, .L58
 892 04de B3F91420 		ldrsh	r2, [r3, #20]
 893 04e2 4AB3     		cbz	r2, .L30
 894              		.loc 1 698 0 is_stmt 0 discriminator 1
 895 04e4 B3F91830 		ldrsh	r3, [r3, #24]
 896 04e8 33B3     		cbz	r3, .L30
 699:main.c        ****                 
 700:main.c        ****                 //moveUntil(CLEARANCE_RADIUS_CENTER_TO_FRONT, BACKWARD, GREATER_THAN, FRONT_LEFT, S
 701:main.c        ****                 moveUntil(CLEARANCE_RADIUS_CENTER_TO_FRONT + 100, BACKWARD, GREATER_THAN, FRONT_LEF
 897              		.loc 1 701 0 is_stmt 1
 898 04ea 0124     		movs	r4, #1
 899 04ec 0194     		str	r4, [sp, #4]
 900 04ee AA25     		movs	r5, #170
 901 04f0 0095     		str	r5, [sp]
 902 04f2 0023     		movs	r3, #0
 903 04f4 0522     		movs	r2, #5
 904 04f6 1946     		mov	r1, r3
 905 04f8 E620     		movs	r0, #230
 906 04fa FFF7FEFF 		bl	moveUntil
 907              	.LVL128:
 702:main.c        ****                 straightAdjust();
 908              		.loc 1 702 0
 909 04fe FFF7FEFF 		bl	straightAdjust
 910              	.LVL129:
 703:main.c        ****                 changeOrientation(NORTH, SPEED);
 911              		.loc 1 703 0
 912 0502 2946     		mov	r1, r5
 913 0504 0020     		movs	r0, #0
 914 0506 FFF7FEFF 		bl	changeOrientation
 915              	.LVL130:
 704:main.c        ****                 straightAdjust();
 916              		.loc 1 704 0
 917 050a FFF7FEFF 		bl	straightAdjust
 918              	.LVL131:
 705:main.c        ****                 moveUntil(CLEARANCE_RADIUS_CENTER_TO_FRONT, FORWARD, LESS_THAN, FRONT_LEFT, SPEED, 
 919              		.loc 1 705 0
 920 050e 0194     		str	r4, [sp, #4]
 921 0510 0095     		str	r5, [sp]
 922 0512 0023     		movs	r3, #0
 923 0514 0422     		movs	r2, #4
 924 0516 2146     		mov	r1, r4
 925 0518 8220     		movs	r0, #130
 926 051a FFF7FEFF 		bl	moveUntil
 927              	.LVL132:
 706:main.c        ****                 //displaceLeft(); Repeatedly call this if below function not implemented
 707:main.c        ****                 //displaceLeftUntil(CLEARANCE_RADIUS_CENTER_TO_BACK,RIGHT);
 708:main.c        ****                 changeOrientation(WEST, SPEED);
 928              		.loc 1 708 0
 929 051e 2946     		mov	r1, r5
 930 0520 0320     		movs	r0, #3
 931 0522 FFF7FEFF 		bl	changeOrientation
 932              	.LVL133:
 709:main.c        ****                 //displaceLeft();
 710:main.c        ****                 //displaceLeftUntil(DISTANCE_PUCKS_FROM_NORTH + WIDTH_SENSOR_TO_CENTER ,RIGHT);
 711:main.c        ****                 moveUntil(DISTANCE_STOPPED_FROM_PUCK, FORWARD, LESS_THAN, FRONT_LEFT, SPEED, TRUE);
 933              		.loc 1 711 0
 934 0526 0194     		str	r4, [sp, #4]
ARM GAS  C:\Users\Misha\AppData\Local\Temp\ccVSruQj.s 			page 30


 935 0528 0095     		str	r5, [sp]
 936 052a 0023     		movs	r3, #0
 937 052c 0422     		movs	r2, #4
 938 052e 2146     		mov	r1, r4
 939 0530 3220     		movs	r0, #50
 940 0532 FFF7FEFF 		bl	moveUntil
 941              	.LVL134:
 942 0536 9BE0     		b	.L29
 943              	.L30:
 712:main.c        ****                 
 713:main.c        ****             }
 714:main.c        ****             
 715:main.c        ****             else if (blockWestClearance && puckWestClearance){
 944              		.loc 1 715 0
 945 0538 2E4B     		ldr	r3, .L58
 946 053a B3F91630 		ldrsh	r3, [r3, #22]
 947 053e 53B3     		cbz	r3, .L31
 948              		.loc 1 715 0 is_stmt 0 discriminator 1
 949 0540 2C49     		ldr	r1, .L58
 950 0542 B1F91A10 		ldrsh	r1, [r1, #26]
 951 0546 31B3     		cbz	r1, .L31
 716:main.c        ****             
 717:main.c        ****                 //moveUntil(CLEARANCE_RADIUS_CENTER_TO_FRONT, BACKWARD, GREATER_THAN, FRONT_LEFT, S
 718:main.c        ****                 moveUntil(CLEARANCE_RADIUS_CENTER_TO_BACK, BACKWARD, LESS_THAN, BACK, SPEED, TRUE);
 952              		.loc 1 718 0 is_stmt 1
 953 0548 0124     		movs	r4, #1
 954 054a 0194     		str	r4, [sp, #4]
 955 054c AA25     		movs	r5, #170
 956 054e 0095     		str	r5, [sp]
 957 0550 0423     		movs	r3, #4
 958 0552 1A46     		mov	r2, r3
 959 0554 0021     		movs	r1, #0
 960 0556 F020     		movs	r0, #240
 961 0558 FFF7FEFF 		bl	moveUntil
 962              	.LVL135:
 719:main.c        ****                 straightAdjust();
 963              		.loc 1 719 0
 964 055c FFF7FEFF 		bl	straightAdjust
 965              	.LVL136:
 720:main.c        ****                 changeOrientation(NORTH, SPEED);
 966              		.loc 1 720 0
 967 0560 2946     		mov	r1, r5
 968 0562 0020     		movs	r0, #0
 969 0564 FFF7FEFF 		bl	changeOrientation
 970              	.LVL137:
 721:main.c        ****                 straightAdjust();
 971              		.loc 1 721 0
 972 0568 FFF7FEFF 		bl	straightAdjust
 973              	.LVL138:
 722:main.c        ****                 moveUntil(CLEARANCE_RADIUS_CENTER_TO_FRONT, FORWARD, LESS_THAN, FRONT_LEFT, SPEED, 
 974              		.loc 1 722 0
 975 056c 0194     		str	r4, [sp, #4]
 976 056e 0095     		str	r5, [sp]
 977 0570 0023     		movs	r3, #0
 978 0572 0422     		movs	r2, #4
 979 0574 2146     		mov	r1, r4
 980 0576 8220     		movs	r0, #130
ARM GAS  C:\Users\Misha\AppData\Local\Temp\ccVSruQj.s 			page 31


 981 0578 FFF7FEFF 		bl	moveUntil
 982              	.LVL139:
 723:main.c        ****                 //displaceLeft(); Repeatedly call this if below function not implemented
 724:main.c        ****                 //displaceLeftUntil(CLEARANCE_RADIUS_CENTER_TO_BACK,RIGHT);
 725:main.c        ****                 changeOrientation(EAST, SPEED);
 983              		.loc 1 725 0
 984 057c 2946     		mov	r1, r5
 985 057e 2046     		mov	r0, r4
 986 0580 FFF7FEFF 		bl	changeOrientation
 987              	.LVL140:
 726:main.c        ****                 //displaceLeft();
 727:main.c        ****                 //displaceLeftUntil(DISTANCE_PUCKS_FROM_NORTH + WIDTH_SENSOR_TO_CENTER ,RIGHT);
 728:main.c        ****                 moveUntil(DISTANCE_STOPPED_FROM_PUCK, FORWARD, LESS_THAN, FRONT_LEFT, SPEED, TRUE);
 988              		.loc 1 728 0
 989 0584 0194     		str	r4, [sp, #4]
 990 0586 0095     		str	r5, [sp]
 991 0588 0023     		movs	r3, #0
 992 058a 0422     		movs	r2, #4
 993 058c 2146     		mov	r1, r4
 994 058e 3220     		movs	r0, #50
 995 0590 FFF7FEFF 		bl	moveUntil
 996              	.LVL141:
 997 0594 6CE0     		b	.L29
 998              	.L31:
 729:main.c        ****                             
 730:main.c        ****             }
 731:main.c        ****             
 732:main.c        ****             
 733:main.c        ****             else if (blockEastClearance && puckWestClearance){
 999              		.loc 1 733 0
 1000 0596 002A     		cmp	r2, #0
 1001 0598 3ED0     		beq	.L32
 1002              		.loc 1 733 0 is_stmt 0 discriminator 1
 1003 059a 164A     		ldr	r2, .L58
 1004 059c B2F91A20 		ldrsh	r2, [r2, #26]
 1005 05a0 002A     		cmp	r2, #0
 1006 05a2 39D0     		beq	.L32
 734:main.c        **** 
 735:main.c        ****                 moveUntil(block_and_puck_edge_midpoint - DISTANCE_BACK_SENSOR_FROM_CENTER, BACKWARD
 1007              		.loc 1 735 0 is_stmt 1
 1008 05a4 0124     		movs	r4, #1
 1009 05a6 0194     		str	r4, [sp, #4]
 1010 05a8 AA25     		movs	r5, #170
 1011 05aa 0095     		str	r5, [sp]
 1012 05ac 0423     		movs	r3, #4
 1013 05ae 1A46     		mov	r2, r3
 1014 05b0 0021     		movs	r1, #0
 1015 05b2 4FF48770 		mov	r0, #270
 1016 05b6 FFF7FEFF 		bl	moveUntil
 1017              	.LVL142:
 736:main.c        ****                 straightAdjust();
 1018              		.loc 1 736 0
 1019 05ba FFF7FEFF 		bl	straightAdjust
 1020              	.LVL143:
 737:main.c        ****                 changeOrientation(NORTH, SPEED);
 1021              		.loc 1 737 0
 1022 05be 2946     		mov	r1, r5
ARM GAS  C:\Users\Misha\AppData\Local\Temp\ccVSruQj.s 			page 32


 1023 05c0 0020     		movs	r0, #0
 1024 05c2 FFF7FEFF 		bl	changeOrientation
 1025              	.LVL144:
 738:main.c        ****                 straightAdjust();
 1026              		.loc 1 738 0
 1027 05c6 FFF7FEFF 		bl	straightAdjust
 1028              	.LVL145:
 739:main.c        ****                 moveUntil(CLEARANCE_RADIUS_CENTER_TO_FRONT, FORWARD, LESS_THAN, FRONT_LEFT, SPEED, 
 1029              		.loc 1 739 0
 1030 05ca 0194     		str	r4, [sp, #4]
 1031 05cc 0095     		str	r5, [sp]
 1032 05ce 0023     		movs	r3, #0
 1033 05d0 0422     		movs	r2, #4
 1034 05d2 2146     		mov	r1, r4
 1035 05d4 8220     		movs	r0, #130
 1036 05d6 FFF7FEFF 		bl	moveUntil
 1037              	.LVL146:
 740:main.c        ****                 //displaceLeft(); Repeatedly call this if below function not implemented
 741:main.c        ****                 //displaceLeftUntil(CLEARANCE_RADIUS_CENTER_TO_BACK,RIGHT);
 742:main.c        ****                 changeOrientation(EAST, SPEED);
 1038              		.loc 1 742 0
 1039 05da 2946     		mov	r1, r5
 1040 05dc 2046     		mov	r0, r4
 1041 05de FFF7FEFF 		bl	changeOrientation
 1042              	.LVL147:
 743:main.c        ****                 //displaceLeft();
 744:main.c        ****                 //displaceLeftUntil(DISTANCE_PUCKS_FROM_NORTH + WIDTH_SENSOR_TO_CENTER ,RIGHT);
 745:main.c        ****                 moveUntil(DISTANCE_STOPPED_FROM_PUCK, FORWARD, LESS_THAN, FRONT_LEFT, SPEED, TRUE);
 1043              		.loc 1 745 0
 1044 05e2 0194     		str	r4, [sp, #4]
 1045 05e4 0095     		str	r5, [sp]
 1046 05e6 0023     		movs	r3, #0
 1047 05e8 0422     		movs	r2, #4
 1048 05ea 2146     		mov	r1, r4
 1049 05ec 3220     		movs	r0, #50
 1050 05ee FFF7FEFF 		bl	moveUntil
 1051              	.LVL148:
 1052 05f2 3DE0     		b	.L29
 1053              	.L59:
 1054              		.align	2
 1055              	.L58:
 1056 05f4 00000000 		.word	.LANCHOR0
 1057 05f8 00000000 		.word	output
 1058 05fc 78000000 		.word	.LC5
 1059 0600 88000000 		.word	.LC6
 1060 0604 94000000 		.word	.LC7
 1061 0608 A4000000 		.word	.LC8
 1062 060c 00000000 		.word	ultrasonic_distances_mm
 1063 0610 B0000000 		.word	.LC9
 1064 0614 B8000000 		.word	.LC10
 1065              	.L32:
 746:main.c        ****                 
 747:main.c        ****             }
 748:main.c        ****             
 749:main.c        ****             else if (blockWestClearance && puckEastClearance){
 1066              		.loc 1 749 0
 1067 0618 53B3     		cbz	r3, .L29
ARM GAS  C:\Users\Misha\AppData\Local\Temp\ccVSruQj.s 			page 33


 1068              		.loc 1 749 0 is_stmt 0 discriminator 1
 1069 061a 9F4B     		ldr	r3, .L60
 1070 061c B3F91830 		ldrsh	r3, [r3, #24]
 1071 0620 33B3     		cbz	r3, .L29
 750:main.c        ****                 
 751:main.c        ****                 moveUntil(block_and_puck_edge_midpoint - DISTANCE_BACK_SENSOR_FROM_CENTER, BACKWARD
 1072              		.loc 1 751 0 is_stmt 1
 1073 0622 0124     		movs	r4, #1
 1074 0624 0194     		str	r4, [sp, #4]
 1075 0626 AA25     		movs	r5, #170
 1076 0628 0095     		str	r5, [sp]
 1077 062a 0423     		movs	r3, #4
 1078 062c 1A46     		mov	r2, r3
 1079 062e 0021     		movs	r1, #0
 1080 0630 4FF48770 		mov	r0, #270
 1081 0634 FFF7FEFF 		bl	moveUntil
 1082              	.LVL149:
 752:main.c        ****                 straightAdjust();
 1083              		.loc 1 752 0
 1084 0638 FFF7FEFF 		bl	straightAdjust
 1085              	.LVL150:
 753:main.c        ****                 changeOrientation(NORTH, SPEED);
 1086              		.loc 1 753 0
 1087 063c 2946     		mov	r1, r5
 1088 063e 0020     		movs	r0, #0
 1089 0640 FFF7FEFF 		bl	changeOrientation
 1090              	.LVL151:
 754:main.c        ****                 straightAdjust();
 1091              		.loc 1 754 0
 1092 0644 FFF7FEFF 		bl	straightAdjust
 1093              	.LVL152:
 755:main.c        ****                 moveUntil(CLEARANCE_RADIUS_CENTER_TO_FRONT, FORWARD, LESS_THAN, FRONT_LEFT, SPEED, 
 1094              		.loc 1 755 0
 1095 0648 0194     		str	r4, [sp, #4]
 1096 064a 0095     		str	r5, [sp]
 1097 064c 0023     		movs	r3, #0
 1098 064e 0422     		movs	r2, #4
 1099 0650 2146     		mov	r1, r4
 1100 0652 8220     		movs	r0, #130
 1101 0654 FFF7FEFF 		bl	moveUntil
 1102              	.LVL153:
 756:main.c        ****                 //displaceLeft(); Repeatedly call this if below function not implemented
 757:main.c        ****                 //displaceLeftUntil(CLEARANCE_RADIUS_CENTER_TO_BACK,RIGHT);
 758:main.c        ****                 changeOrientation(WEST, SPEED);
 1103              		.loc 1 758 0
 1104 0658 2946     		mov	r1, r5
 1105 065a 0320     		movs	r0, #3
 1106 065c FFF7FEFF 		bl	changeOrientation
 1107              	.LVL154:
 759:main.c        ****                 //displaceLeft();
 760:main.c        ****                 //displaceLeftUntil(DISTANCE_PUCKS_FROM_NORTH + WIDTH_SENSOR_TO_CENTER ,RIGHT);
 761:main.c        ****                 moveUntil(DISTANCE_STOPPED_FROM_PUCK, FORWARD, LESS_THAN, FRONT_LEFT, SPEED, TRUE);
 1108              		.loc 1 761 0
 1109 0660 0194     		str	r4, [sp, #4]
 1110 0662 0095     		str	r5, [sp]
 1111 0664 0023     		movs	r3, #0
 1112 0666 0422     		movs	r2, #4
ARM GAS  C:\Users\Misha\AppData\Local\Temp\ccVSruQj.s 			page 34


 1113 0668 2146     		mov	r1, r4
 1114 066a 3220     		movs	r0, #50
 1115 066c FFF7FEFF 		bl	moveUntil
 1116              	.LVL155:
 1117              	.L29:
 762:main.c        ****                 
 763:main.c        ****             }
 764:main.c        **** 
 765:main.c        ****         }
 766:main.c        ****  
 767:main.c        **** //        
 768:main.c        **** // *** 4. STATE FIND REQUIRED PUCK: *** // 
 769:main.c        **** //
 770:main.c        ****         
 771:main.c        ****         if (state == STATE_FIND_REQUIRED_PUCK){
 1118              		.loc 1 771 0
 1119 0670 894B     		ldr	r3, .L60
 1120 0672 5B68     		ldr	r3, [r3, #4]
 1121 0674 042B     		cmp	r3, #4
 1122 0676 51D1     		bne	.L33
 1123              	.LVL156:
 1124              	.LBB8:
 772:main.c        ****         
 773:main.c        ****         int puck_correct = FALSE;   // A flag to determine if the correct puck has been picked up
 774:main.c        ****         int puck_scan;
 775:main.c        ****         
 776:main.c        ****         current_stage = 1;
 1125              		.loc 1 776 0
 1126 0678 0123     		movs	r3, #1
 1127 067a 884A     		ldr	r2, .L60+4
 1128 067c 1360     		str	r3, [r2]
 777:main.c        ****         puckConstructionPlan[0] = RED;
 1129              		.loc 1 777 0
 1130 067e 864A     		ldr	r2, .L60
 1131 0680 D361     		str	r3, [r2, #28]
 778:main.c        ****     
 779:main.c        ****         // Scanning puck:
 780:main.c        ****             
 781:main.c        ****         safety_override = TRUE;     // DEACTIVATES the safety override so pucks don't interfere  
 1132              		.loc 1 781 0
 1133 0682 D365     		str	r3, [r2, #92]
 773:main.c        ****         int puck_scan;
 1134              		.loc 1 773 0
 1135 0684 0025     		movs	r5, #0
 782:main.c        **** 
 783:main.c        ****         while (puck_correct == FALSE) 
 1136              		.loc 1 783 0
 1137 0686 31E0     		b	.L35
 1138              	.LVL157:
 1139              	.L36:
 784:main.c        ****         {
 785:main.c        ****             moveDynamic(50, SPEED_LOW, TRUE);  // robot moves forward towards puck
 1140              		.loc 1 785 0
 1141 0688 0122     		movs	r2, #1
 1142 068a 4621     		movs	r1, #70
 1143 068c 3220     		movs	r0, #50
 1144 068e FFF7FEFF 		bl	moveDynamic
ARM GAS  C:\Users\Misha\AppData\Local\Temp\ccVSruQj.s 			page 35


 1145              	.LVL158:
 786:main.c        ****                                     // could replace this with the distance gathered from the ultra
 787:main.c        ****             changeHeightToPuck(ABOVE_1_PUCK, NEITHER);  // arm lowers onto robot
 1146              		.loc 1 787 0
 1147 0692 0221     		movs	r1, #2
 1148 0694 0120     		movs	r0, #1
 1149 0696 FFF7FEFF 		bl	changeHeightToPuck
 1150              	.LVL159:
 788:main.c        ****             puck_scan = colourSensingOutput();  // colour sensor takes a scan
 1151              		.loc 1 788 0
 1152 069a FFF7FEFF 		bl	colourSensingOutput
 1153              	.LVL160:
 1154 069e 0446     		mov	r4, r0
 1155              	.LVL161:
 789:main.c        ****             changeHeightToPuck(ABOVE_3_PUCK, NEITHER);  // arm returns to high position
 1156              		.loc 1 789 0
 1157 06a0 0221     		movs	r1, #2
 1158 06a2 0320     		movs	r0, #3
 1159              	.LVL162:
 1160 06a4 FFF7FEFF 		bl	changeHeightToPuck
 1161              	.LVL163:
 790:main.c        ****             moveDynamic(-50, SPEED, TRUE);   // robot moves backwards
 1162              		.loc 1 790 0
 1163 06a8 0122     		movs	r2, #1
 1164 06aa AA21     		movs	r1, #170
 1165 06ac 6FF03100 		mvn	r0, #49
 1166 06b0 FFF7FEFF 		bl	moveDynamic
 1167              	.LVL164:
 791:main.c        ****             if (puck_scan == puckConstructionPlan[current_stage-1]) {puck_correct = TRUE;}         
 1168              		.loc 1 791 0
 1169 06b4 794B     		ldr	r3, .L60+4
 1170 06b6 1B68     		ldr	r3, [r3]
 1171 06b8 5A1E     		subs	r2, r3, #1
 1172 06ba 774B     		ldr	r3, .L60
 1173 06bc 03EB8203 		add	r3, r3, r2, lsl #2
 1174 06c0 DB69     		ldr	r3, [r3, #28]
 1175 06c2 9C42     		cmp	r4, r3
 1176 06c4 11D0     		beq	.L54
 792:main.c        ****             else 
 793:main.c        ****             {
 794:main.c        ****                 // Bring us to the next puck along: 
 795:main.c        ****                 moveSwivel(45, SPEED, TRUE);
 1177              		.loc 1 795 0
 1178 06c6 0122     		movs	r2, #1
 1179 06c8 AA21     		movs	r1, #170
 1180 06ca 2D20     		movs	r0, #45
 1181 06cc FFF7FEFF 		bl	moveSwivel
 1182              	.LVL165:
 796:main.c        ****                 moveDynamic(-30,SPEED, TRUE);
 1183              		.loc 1 796 0
 1184 06d0 0122     		movs	r2, #1
 1185 06d2 AA21     		movs	r1, #170
 1186 06d4 6FF01D00 		mvn	r0, #29
 1187 06d8 FFF7FEFF 		bl	moveDynamic
 1188              	.LVL166:
 797:main.c        ****                 moveSwivel(-30, SPEED, TRUE);        
 1189              		.loc 1 797 0
ARM GAS  C:\Users\Misha\AppData\Local\Temp\ccVSruQj.s 			page 36


 1190 06dc 0122     		movs	r2, #1
 1191 06de AA21     		movs	r1, #170
 1192 06e0 6FF01D00 		mvn	r0, #29
 1193 06e4 FFF7FEFF 		bl	moveSwivel
 1194              	.LVL167:
 1195 06e8 00E0     		b	.L35
 1196              	.L54:
 791:main.c        ****             else 
 1197              		.loc 1 791 0
 1198 06ea 0125     		movs	r5, #1
 1199              	.LVL168:
 1200              	.L35:
 783:main.c        ****         {
 1201              		.loc 1 783 0
 1202 06ec 002D     		cmp	r5, #0
 1203 06ee CBD0     		beq	.L36
 798:main.c        ****             }
 799:main.c        ****         }
 800:main.c        ****                 
 801:main.c        ****         
 802:main.c        ****         
 803:main.c        ****         changeHeightToPuck(GROUND, NEITHER);      // arm lowers to ground
 1204              		.loc 1 803 0
 1205 06f0 0221     		movs	r1, #2
 1206 06f2 0020     		movs	r0, #0
 1207 06f4 FFF7FEFF 		bl	changeHeightToPuck
 1208              	.LVL169:
 804:main.c        ****         //armClose();
 805:main.c        ****         //changeHeightToPuck(1);
 806:main.c        ****         moveUntilPuck(CLAW_GROUND_ALGORITHM);
 1209              		.loc 1 806 0
 1210 06f8 0220     		movs	r0, #2
 1211 06fa FFF7FEFF 		bl	moveUntilPuck
 1212              	.LVL170:
 807:main.c        ****         //moveDynamic(60);       // robot moves forward
 808:main.c        ****         armClose();                 // claw closes on puck
 1213              		.loc 1 808 0
 1214 06fe FFF7FEFF 		bl	armClose
 1215              	.LVL171:
 809:main.c        ****         changeHeightToPuck(ABOVE_3_PUCK, NEITHER);      // arm lifts up to highest position
 1216              		.loc 1 809 0
 1217 0702 0221     		movs	r1, #2
 1218 0704 0320     		movs	r0, #3
 1219 0706 FFF7FEFF 		bl	changeHeightToPuck
 1220              	.LVL172:
 810:main.c        ****         moveDynamic(-60, SPEED, TRUE);       // robot moves back away from puck area 
 1221              		.loc 1 810 0
 1222 070a 0122     		movs	r2, #1
 1223 070c AA21     		movs	r1, #170
 1224 070e 6FF03B00 		mvn	r0, #59
 1225 0712 FFF7FEFF 		bl	moveDynamic
 1226              	.LVL173:
 811:main.c        ****         
 812:main.c        ****         
 813:main.c        ****         safety_override = FALSE;        // reactivate safety override
 1227              		.loc 1 813 0
 1228 0716 0022     		movs	r2, #0
ARM GAS  C:\Users\Misha\AppData\Local\Temp\ccVSruQj.s 			page 37


 1229 0718 5F4B     		ldr	r3, .L60
 1230 071a DA65     		str	r2, [r3, #92]
 1231              	.LVL174:
 1232              	.L33:
 1233              	.LBE8:
 814:main.c        ****         
 815:main.c        ****             
 816:main.c        ****             /*
 817:main.c        ****             int requiredColour = puckConstructionPlan[currentPuckStackSize];
 818:main.c        ****             int puckFound = 0;
 819:main.c        ****             
 820:main.c        ****             
 821:main.c        ****             // Let's assume that we get to the east or west of the puck pile and we are as close to
 822:main.c        ****             if (roundDirection() == NORTH){
 823:main.c        **** 
 824:main.c        ****             }
 825:main.c        ****             else if (roundDirection() == EAST){
 826:main.c        ****                 // Poll ultrasonics, displaceRight until no longer see the pucks
 827:main.c        ****                 // Drive up to the middle puck
 828:main.c        ****                 // We know that we used moveAndAngle() to get to the exact vertical position of the
 829:main.c        ****                 moveForwardIndefinitely();
 830:main.c        ****                 
 831:main.c        ****                 // May need to displaceRight a bit to ensure that we are perfectly centered with th
 832:main.c        ****                 // Now we need to inch forward with the claw lifted
 833:main.c        ****                 // Also store the horizontal location of the pucks based off our current position. 
 834:main.c        ****                 
 835:main.c        ****                 horizontalPuckGrid = currentPosition[0]; // Take our horizontal position as a refer
 836:main.c        ****                 
 837:main.c        ****                 changeHeightToPuck(1); // Lift up enough so we dont hit the pucks when scanning the
 838:main.c        ****                 moveForward(DISTANCE_STOPPED_FROM_PUCK); // Move forward until colour sensor above 
 839:main.c        ****                
 840:main.c        ****                 if (colourSensingOutput() == puckConstructionPlan[currentPuckStackSize]){ 
 841:main.c        ****                     // This is the puck we need
 842:main.c        ****                     moveBackward(DISTANCE_STOPPED_FROM_PUCK); // Reverse to make room for lowering 
 843:main.c        ****                     lowerAndOpen(0); // We are grabbing the pucks from the ground.
 844:main.c        ****                     moveForward(DISTANCE_STOPPED_FROM_PUCK);
 845:main.c        ****                     closeAndRaise(1); // Lift above the height of the ground pucks
 846:main.c        **** 
 847:main.c        ****                 }
 848:main.c        ****                 
 849:main.c        ****                 // If the colour isn't what we need, we could pick it up and drop it somewhere out 
 850:main.c        ****                 else {
 851:main.c        ****                     moveBackward(DISTANCE_STOPPED_FROM_PUCK); // Need to check the next puck
 852:main.c        ****                     displaceLeft(5,22);
 853:main.c        ****                     changeHeightToPuck(1); // Lift up enough so we dont hit the pucks when scanning
 854:main.c        ****                     moveForward(DISTANCE_STOPPED_FROM_PUCK); // Move forward until colour sensor ab
 855:main.c        ****                     
 856:main.c        ****                     // Scan the next puck
 857:main.c        ****                     if (colourSensingOutput() == puckConstructionPlan[currentPuckStackSize]){ 
 858:main.c        ****                         // This is the puck we need
 859:main.c        ****                         moveBackward(DISTANCE_STOPPED_FROM_PUCK); // Reverse to make room for lower
 860:main.c        ****                         lowerAndOpen(0); // We are grabbing the pucks from the ground.
 861:main.c        ****                         moveForward(DISTANCE_STOPPED_FROM_PUCK);
 862:main.c        ****                         closeAndRaise(1); // Lift above the height of the ground pucks
 863:main.c        **** 
 864:main.c        ****                     }
 865:main.c        ****                     
ARM GAS  C:\Users\Misha\AppData\Local\Temp\ccVSruQj.s 			page 38


 866:main.c        ****                     else {
 867:main.c        ****                         moveBackward(DISTANCE_STOPPED_FROM_PUCK); // Need to check the next puck
 868:main.c        ****                         displaceLeft(5,22);
 869:main.c        ****                         changeHeightToPuck(1); // Lift up enough so we dont hit the pucks when scan
 870:main.c        ****                         moveForward(DISTANCE_STOPPED_FROM_PUCK); // Move forward until colour senso
 871:main.c        ****                         
 872:main.c        ****                         if (colourSensingOutput() == puckConstructionPlan[currentPuckStackSize]){ 
 873:main.c        ****                             // This is the puck we need
 874:main.c        ****                             moveBackward(DISTANCE_STOPPED_FROM_PUCK); // Reverse to make room for l
 875:main.c        ****                             lowerAndOpen(0); // We are grabbing the pucks from the ground.
 876:main.c        ****                             moveForward(DISTANCE_STOPPED_FROM_PUCK);
 877:main.c        ****                             closeAndRaise(1); // Lift above the height of the ground pucks
 878:main.c        **** 
 879:main.c        ****                         }
 880:main.c        ****                     
 881:main.c        ****                     }
 882:main.c        ****                 }
 883:main.c        ****                 
 884:main.c        ****                 if (colourSensingOutput() == puckConstructionPlan[currentPuckStackSize]){ 
 885:main.c        ****                     // This is the puck we need
 886:main.c        ****                     moveBackward(DISTANCE_STOPPED_FROM_PUCK); // Reverse to make room for lowering 
 887:main.c        ****                     lowerAndOpen(0); // We are grabbing the pucks from the ground.
 888:main.c        ****                     moveForward(DISTANCE_STOPPED_FROM_PUCK);
 889:main.c        ****                     closeAndRaise(1); // Lift above the height of the ground pucks
 890:main.c        **** 
 891:main.c        ****                 }
 892:main.c        ****                 
 893:main.c        ****             }
 894:main.c        ****             
 895:main.c        ****             else if (roundDirection() == WEST){
 896:main.c        ****                 // Poll ultrasonics, displaceRight until no longer see the pucks
 897:main.c        ****                 // Drive up to the middle puck
 898:main.c        ****                 // We know that we used moveAndAngle() to get to the exact vertical position of the
 899:main.c        ****                 moveForwardIndefinitely();
 900:main.c        ****             }
 901:main.c        ****             
 902:main.c        ****             */
 903:main.c        ****             
 904:main.c        ****             /*
 905:main.c        ****             while(!puckFound){
 906:main.c        ****                   
 907:main.c        ****             }
 908:main.c        ****             */
 909:main.c        ****             
 910:main.c        ****             
 911:main.c        ****         }
 912:main.c        ****  
 913:main.c        ****         
 914:main.c        **** //
 915:main.c        **** // *** 5. STATE RETURN TO SOUTH: *** // 
 916:main.c        **** //      
 917:main.c        ****         
 918:main.c        ****         // Assume that we are currently in the north side of the arena facing the pucks.
 919:main.c        ****         // This state will return us to the south side of the block and face east at the east wall.
 920:main.c        ****         if (state == STATE_RETURN_TO_SOUTH){
 1234              		.loc 1 920 0
 1235 071c 5E4B     		ldr	r3, .L60
ARM GAS  C:\Users\Misha\AppData\Local\Temp\ccVSruQj.s 			page 39


 1236 071e 5B68     		ldr	r3, [r3, #4]
 1237 0720 052B     		cmp	r3, #5
 1238 0722 40F0EC80 		bne	.L37
 921:main.c        ****             if (blockEastClearance && puckEastClearance){
 1239              		.loc 1 921 0
 1240 0726 5C4B     		ldr	r3, .L60
 1241 0728 B3F91420 		ldrsh	r2, [r3, #20]
 1242 072c 6AB3     		cbz	r2, .L38
 1243              		.loc 1 921 0 is_stmt 0 discriminator 1
 1244 072e B3F91830 		ldrsh	r3, [r3, #24]
 1245 0732 53B3     		cbz	r3, .L38
 922:main.c        ****                 
 923:main.c        ****                 moveUntil(CLEARANCE_RADIUS_CENTER_TO_BACK - 140, BACKWARD, LESS_THAN, BACK, SPEED, 
 1246              		.loc 1 923 0 is_stmt 1
 1247 0734 0124     		movs	r4, #1
 1248 0736 0194     		str	r4, [sp, #4]
 1249 0738 AA25     		movs	r5, #170
 1250 073a 0095     		str	r5, [sp]
 1251 073c 0423     		movs	r3, #4
 1252 073e 1A46     		mov	r2, r3
 1253 0740 0021     		movs	r1, #0
 1254 0742 6420     		movs	r0, #100
 1255 0744 FFF7FEFF 		bl	moveUntil
 1256              	.LVL175:
 924:main.c        ****                 // straightAdjust() using back sensor?
 925:main.c        ****                 changeOrientation(NORTH,SPEED);
 1257              		.loc 1 925 0
 1258 0748 2946     		mov	r1, r5
 1259 074a 0020     		movs	r0, #0
 1260 074c FFF7FEFF 		bl	changeOrientation
 1261              	.LVL176:
 926:main.c        ****                 straightAdjust();
 1262              		.loc 1 926 0
 1263 0750 FFF7FEFF 		bl	straightAdjust
 1264              	.LVL177:
 927:main.c        ****                 moveUntil(CLEARANCE_RADIUS_CENTER_TO_BACK, BACKWARD, LESS_THAN, BACK, SPEED, TRUE);
 1265              		.loc 1 927 0
 1266 0754 0194     		str	r4, [sp, #4]
 1267 0756 0095     		str	r5, [sp]
 1268 0758 0423     		movs	r3, #4
 1269 075a 1A46     		mov	r2, r3
 1270 075c 0021     		movs	r1, #0
 1271 075e F020     		movs	r0, #240
 1272 0760 FFF7FEFF 		bl	moveUntil
 1273              	.LVL178:
 928:main.c        ****                 straightAdjust();
 1274              		.loc 1 928 0
 1275 0764 FFF7FEFF 		bl	straightAdjust
 1276              	.LVL179:
 929:main.c        ****                 changeOrientation(EAST,SPEED);
 1277              		.loc 1 929 0
 1278 0768 2946     		mov	r1, r5
 1279 076a 2046     		mov	r0, r4
 1280 076c FFF7FEFF 		bl	changeOrientation
 1281              	.LVL180:
 930:main.c        ****                 straightAdjust();
 1282              		.loc 1 930 0
ARM GAS  C:\Users\Misha\AppData\Local\Temp\ccVSruQj.s 			page 40


 1283 0770 FFF7FEFF 		bl	straightAdjust
 1284              	.LVL181:
 931:main.c        ****                 moveUntil(CLEARANCE_RADIUS_CENTER_TO_FRONT, FORWARD, LESS_THAN, FRONT_LEFT, SPEED, 
 1285              		.loc 1 931 0
 1286 0774 0194     		str	r4, [sp, #4]
 1287 0776 0095     		str	r5, [sp]
 1288 0778 0023     		movs	r3, #0
 1289 077a 0422     		movs	r2, #4
 1290 077c 2146     		mov	r1, r4
 1291 077e 8220     		movs	r0, #130
 1292 0780 FFF7FEFF 		bl	moveUntil
 1293              	.LVL182:
 932:main.c        ****                 straightAdjust();
 1294              		.loc 1 932 0
 1295 0784 FFF7FEFF 		bl	straightAdjust
 1296              	.LVL183:
 1297 0788 B6E0     		b	.L39
 1298              	.L38:
 933:main.c        ****                 
 934:main.c        ****             }
 935:main.c        ****             
 936:main.c        ****             else if (blockWestClearance && puckWestClearance){
 1299              		.loc 1 936 0
 1300 078a 434B     		ldr	r3, .L60
 1301 078c B3F91630 		ldrsh	r3, [r3, #22]
 1302 0790 002B     		cmp	r3, #0
 1303 0792 53D0     		beq	.L40
 1304              		.loc 1 936 0 is_stmt 0 discriminator 1
 1305 0794 4049     		ldr	r1, .L60
 1306 0796 B1F91A10 		ldrsh	r1, [r1, #26]
 1307 079a 0029     		cmp	r1, #0
 1308 079c 4ED0     		beq	.L40
 937:main.c        ****             
 938:main.c        ****                 moveUntil(CLEARANCE_RADIUS_CENTER_TO_BACK - 140, BACKWARD, LESS_THAN, BACK, SPEED, 
 1309              		.loc 1 938 0 is_stmt 1
 1310 079e 0124     		movs	r4, #1
 1311 07a0 0194     		str	r4, [sp, #4]
 1312 07a2 AA25     		movs	r5, #170
 1313 07a4 0095     		str	r5, [sp]
 1314 07a6 0423     		movs	r3, #4
 1315 07a8 1A46     		mov	r2, r3
 1316 07aa 0021     		movs	r1, #0
 1317 07ac 6420     		movs	r0, #100
 1318 07ae FFF7FEFF 		bl	moveUntil
 1319              	.LVL184:
 939:main.c        ****                 // straightAdjust() using back sensor?
 940:main.c        ****                 changeOrientation(NORTH,SPEED);
 1320              		.loc 1 940 0
 1321 07b2 2946     		mov	r1, r5
 1322 07b4 0020     		movs	r0, #0
 1323 07b6 FFF7FEFF 		bl	changeOrientation
 1324              	.LVL185:
 941:main.c        ****                 straightAdjust();
 1325              		.loc 1 941 0
 1326 07ba FFF7FEFF 		bl	straightAdjust
 1327              	.LVL186:
 942:main.c        ****                 moveUntil(CLEARANCE_RADIUS_CENTER_TO_BACK, BACKWARD, LESS_THAN, BACK, SPEED, TRUE);
ARM GAS  C:\Users\Misha\AppData\Local\Temp\ccVSruQj.s 			page 41


 1328              		.loc 1 942 0
 1329 07be 0194     		str	r4, [sp, #4]
 1330 07c0 0095     		str	r5, [sp]
 1331 07c2 0423     		movs	r3, #4
 1332 07c4 1A46     		mov	r2, r3
 1333 07c6 0021     		movs	r1, #0
 1334 07c8 F020     		movs	r0, #240
 1335 07ca FFF7FEFF 		bl	moveUntil
 1336              	.LVL187:
 943:main.c        ****                 straightAdjust();
 1337              		.loc 1 943 0
 1338 07ce FFF7FEFF 		bl	straightAdjust
 1339              	.LVL188:
 944:main.c        ****                 changeOrientation(EAST,SPEED);
 1340              		.loc 1 944 0
 1341 07d2 2946     		mov	r1, r5
 1342 07d4 2046     		mov	r0, r4
 1343 07d6 FFF7FEFF 		bl	changeOrientation
 1344              	.LVL189:
 945:main.c        ****                 straightAdjust();
 1345              		.loc 1 945 0
 1346 07da FFF7FEFF 		bl	straightAdjust
 1347              	.LVL190:
 946:main.c        ****                 moveUntil(CLEARANCE_RADIUS_CENTER_TO_FRONT, FORWARD, LESS_THAN, FRONT_LEFT, SPEED, 
 1348              		.loc 1 946 0
 1349 07de 0194     		str	r4, [sp, #4]
 1350 07e0 0095     		str	r5, [sp]
 1351 07e2 0023     		movs	r3, #0
 1352 07e4 0422     		movs	r2, #4
 1353 07e6 2146     		mov	r1, r4
 1354 07e8 8220     		movs	r0, #130
 1355 07ea FFF7FEFF 		bl	moveUntil
 1356              	.LVL191:
 947:main.c        ****                 straightAdjust();
 1357              		.loc 1 947 0
 1358 07ee FFF7FEFF 		bl	straightAdjust
 1359              	.LVL192:
 948:main.c        **** 
 949:main.c        ****                 
 950:main.c        ****                 //moveUntil(CLEARANCE_RADIUS_CENTER_TO_FRONT, BACKWARD, GREATER_THAN, FRONT_LEFT, S
 951:main.c        ****                 moveUntil(CLEARANCE_RADIUS_CENTER_TO_BACK, BACKWARD, LESS_THAN, BACK, SPEED, TRUE);
 1360              		.loc 1 951 0
 1361 07f2 0194     		str	r4, [sp, #4]
 1362 07f4 0095     		str	r5, [sp]
 1363 07f6 0423     		movs	r3, #4
 1364 07f8 1A46     		mov	r2, r3
 1365 07fa 0021     		movs	r1, #0
 1366 07fc F020     		movs	r0, #240
 1367 07fe FFF7FEFF 		bl	moveUntil
 1368              	.LVL193:
 952:main.c        ****                 straightAdjust();
 1369              		.loc 1 952 0
 1370 0802 FFF7FEFF 		bl	straightAdjust
 1371              	.LVL194:
 953:main.c        ****                 changeOrientation(NORTH, SPEED);
 1372              		.loc 1 953 0
 1373 0806 2946     		mov	r1, r5
ARM GAS  C:\Users\Misha\AppData\Local\Temp\ccVSruQj.s 			page 42


 1374 0808 0020     		movs	r0, #0
 1375 080a FFF7FEFF 		bl	changeOrientation
 1376              	.LVL195:
 954:main.c        ****                 straightAdjust();
 1377              		.loc 1 954 0
 1378 080e FFF7FEFF 		bl	straightAdjust
 1379              	.LVL196:
 955:main.c        ****                 moveUntil(CLEARANCE_RADIUS_CENTER_TO_FRONT, FORWARD, LESS_THAN, FRONT_LEFT, SPEED, 
 1380              		.loc 1 955 0
 1381 0812 0194     		str	r4, [sp, #4]
 1382 0814 0095     		str	r5, [sp]
 1383 0816 0023     		movs	r3, #0
 1384 0818 0422     		movs	r2, #4
 1385 081a 2146     		mov	r1, r4
 1386 081c 8220     		movs	r0, #130
 1387 081e FFF7FEFF 		bl	moveUntil
 1388              	.LVL197:
 956:main.c        ****                 //displaceLeft(); Repeatedly call this if below function not implemented
 957:main.c        ****                 //displaceLeftUntil(CLEARANCE_RADIUS_CENTER_TO_BACK,RIGHT);
 958:main.c        ****                 changeOrientation(EAST, SPEED);
 1389              		.loc 1 958 0
 1390 0822 2946     		mov	r1, r5
 1391 0824 2046     		mov	r0, r4
 1392 0826 FFF7FEFF 		bl	changeOrientation
 1393              	.LVL198:
 959:main.c        ****                 //displaceLeft();
 960:main.c        ****                 //displaceLeftUntil(DISTANCE_PUCKS_FROM_NORTH + WIDTH_SENSOR_TO_CENTER ,RIGHT);
 961:main.c        ****                 moveUntil(DISTANCE_STOPPED_FROM_PUCK, FORWARD, LESS_THAN, FRONT_LEFT, SPEED, TRUE);
 1394              		.loc 1 961 0
 1395 082a 0194     		str	r4, [sp, #4]
 1396 082c 0095     		str	r5, [sp]
 1397 082e 0023     		movs	r3, #0
 1398 0830 0422     		movs	r2, #4
 1399 0832 2146     		mov	r1, r4
 1400 0834 3220     		movs	r0, #50
 1401 0836 FFF7FEFF 		bl	moveUntil
 1402              	.LVL199:
 1403 083a 5DE0     		b	.L39
 1404              	.L40:
 962:main.c        ****                             
 963:main.c        ****             }
 964:main.c        ****             
 965:main.c        ****             
 966:main.c        ****             else if (blockEastClearance && puckWestClearance){
 1405              		.loc 1 966 0
 1406 083c 82B3     		cbz	r2, .L41
 1407              		.loc 1 966 0 is_stmt 0 discriminator 1
 1408 083e 164A     		ldr	r2, .L60
 1409 0840 B2F91A20 		ldrsh	r2, [r2, #26]
 1410 0844 62B3     		cbz	r2, .L41
 967:main.c        **** 
 968:main.c        ****                 moveUntil(block_and_puck_edge_midpoint - DISTANCE_BACK_SENSOR_FROM_CENTER, BACKWARD
 1411              		.loc 1 968 0 is_stmt 1
 1412 0846 0124     		movs	r4, #1
 1413 0848 0194     		str	r4, [sp, #4]
 1414 084a AA25     		movs	r5, #170
 1415 084c 0095     		str	r5, [sp]
ARM GAS  C:\Users\Misha\AppData\Local\Temp\ccVSruQj.s 			page 43


 1416 084e 0423     		movs	r3, #4
 1417 0850 1A46     		mov	r2, r3
 1418 0852 0021     		movs	r1, #0
 1419 0854 4FF48770 		mov	r0, #270
 1420 0858 FFF7FEFF 		bl	moveUntil
 1421              	.LVL200:
 969:main.c        ****                 straightAdjust();
 1422              		.loc 1 969 0
 1423 085c FFF7FEFF 		bl	straightAdjust
 1424              	.LVL201:
 970:main.c        ****                 changeOrientation(NORTH, SPEED);
 1425              		.loc 1 970 0
 1426 0860 2946     		mov	r1, r5
 1427 0862 0020     		movs	r0, #0
 1428 0864 FFF7FEFF 		bl	changeOrientation
 1429              	.LVL202:
 971:main.c        ****                 straightAdjust();
 1430              		.loc 1 971 0
 1431 0868 FFF7FEFF 		bl	straightAdjust
 1432              	.LVL203:
 972:main.c        ****                 moveUntil(CLEARANCE_RADIUS_CENTER_TO_FRONT, FORWARD, LESS_THAN, FRONT_LEFT, SPEED, 
 1433              		.loc 1 972 0
 1434 086c 0194     		str	r4, [sp, #4]
 1435 086e 0095     		str	r5, [sp]
 1436 0870 0023     		movs	r3, #0
 1437 0872 0422     		movs	r2, #4
 1438 0874 2146     		mov	r1, r4
 1439 0876 8220     		movs	r0, #130
 1440 0878 FFF7FEFF 		bl	moveUntil
 1441              	.LVL204:
 973:main.c        ****                 //displaceLeft(); Repeatedly call this if below function not implemented
 974:main.c        ****                 //displaceLeftUntil(CLEARANCE_RADIUS_CENTER_TO_BACK,RIGHT);
 975:main.c        ****                 changeOrientation(EAST, SPEED);
 1442              		.loc 1 975 0
 1443 087c 2946     		mov	r1, r5
 1444 087e 2046     		mov	r0, r4
 1445 0880 FFF7FEFF 		bl	changeOrientation
 1446              	.LVL205:
 976:main.c        ****                 //displaceLeft();
 977:main.c        ****                 //displaceLeftUntil(DISTANCE_PUCKS_FROM_NORTH + WIDTH_SENSOR_TO_CENTER ,RIGHT);
 978:main.c        ****                 moveUntil(DISTANCE_STOPPED_FROM_PUCK, FORWARD, LESS_THAN, FRONT_LEFT, SPEED, TRUE);
 1447              		.loc 1 978 0
 1448 0884 0194     		str	r4, [sp, #4]
 1449 0886 0095     		str	r5, [sp]
 1450 0888 0023     		movs	r3, #0
 1451 088a 0422     		movs	r2, #4
 1452 088c 2146     		mov	r1, r4
 1453 088e 3220     		movs	r0, #50
 1454 0890 FFF7FEFF 		bl	moveUntil
 1455              	.LVL206:
 1456 0894 30E0     		b	.L39
 1457              	.L61:
 1458 0896 00BF     		.align	2
 1459              	.L60:
 1460 0898 00000000 		.word	.LANCHOR0
 1461 089c 00000000 		.word	.LANCHOR1
 1462              	.L41:
ARM GAS  C:\Users\Misha\AppData\Local\Temp\ccVSruQj.s 			page 44


 979:main.c        ****                 
 980:main.c        ****             }
 981:main.c        ****             
 982:main.c        ****             else if (blockWestClearance && puckEastClearance){
 1463              		.loc 1 982 0
 1464 08a0 53B3     		cbz	r3, .L39
 1465              		.loc 1 982 0 is_stmt 0 discriminator 1
 1466 08a2 9C4B     		ldr	r3, .L62
 1467 08a4 B3F91830 		ldrsh	r3, [r3, #24]
 1468 08a8 33B3     		cbz	r3, .L39
 983:main.c        ****                 
 984:main.c        ****                 moveUntil(block_and_puck_edge_midpoint - DISTANCE_BACK_SENSOR_FROM_CENTER, BACKWARD
 1469              		.loc 1 984 0 is_stmt 1
 1470 08aa 0124     		movs	r4, #1
 1471 08ac 0194     		str	r4, [sp, #4]
 1472 08ae AA25     		movs	r5, #170
 1473 08b0 0095     		str	r5, [sp]
 1474 08b2 0423     		movs	r3, #4
 1475 08b4 1A46     		mov	r2, r3
 1476 08b6 0021     		movs	r1, #0
 1477 08b8 4FF48770 		mov	r0, #270
 1478 08bc FFF7FEFF 		bl	moveUntil
 1479              	.LVL207:
 985:main.c        ****                 straightAdjust();
 1480              		.loc 1 985 0
 1481 08c0 FFF7FEFF 		bl	straightAdjust
 1482              	.LVL208:
 986:main.c        ****                 changeOrientation(NORTH, SPEED);
 1483              		.loc 1 986 0
 1484 08c4 2946     		mov	r1, r5
 1485 08c6 0020     		movs	r0, #0
 1486 08c8 FFF7FEFF 		bl	changeOrientation
 1487              	.LVL209:
 987:main.c        ****                 straightAdjust();
 1488              		.loc 1 987 0
 1489 08cc FFF7FEFF 		bl	straightAdjust
 1490              	.LVL210:
 988:main.c        ****                 moveUntil(CLEARANCE_RADIUS_CENTER_TO_FRONT, FORWARD, LESS_THAN, FRONT_LEFT, SPEED, 
 1491              		.loc 1 988 0
 1492 08d0 0194     		str	r4, [sp, #4]
 1493 08d2 0095     		str	r5, [sp]
 1494 08d4 0023     		movs	r3, #0
 1495 08d6 0422     		movs	r2, #4
 1496 08d8 2146     		mov	r1, r4
 1497 08da 8220     		movs	r0, #130
 1498 08dc FFF7FEFF 		bl	moveUntil
 1499              	.LVL211:
 989:main.c        ****                 //displaceLeft(); Repeatedly call this if below function not implemented
 990:main.c        ****                 //displaceLeftUntil(CLEARANCE_RADIUS_CENTER_TO_BACK,RIGHT);
 991:main.c        ****                 changeOrientation(WEST, SPEED);
 1500              		.loc 1 991 0
 1501 08e0 2946     		mov	r1, r5
 1502 08e2 0320     		movs	r0, #3
 1503 08e4 FFF7FEFF 		bl	changeOrientation
 1504              	.LVL212:
 992:main.c        ****                 //displaceLeft();
 993:main.c        ****                 //displaceLeftUntil(DISTANCE_PUCKS_FROM_NORTH + WIDTH_SENSOR_TO_CENTER ,RIGHT);
ARM GAS  C:\Users\Misha\AppData\Local\Temp\ccVSruQj.s 			page 45


 994:main.c        ****                 moveUntil(DISTANCE_STOPPED_FROM_PUCK, FORWARD, LESS_THAN, FRONT_LEFT, SPEED, TRUE);
 1505              		.loc 1 994 0
 1506 08e8 0194     		str	r4, [sp, #4]
 1507 08ea 0095     		str	r5, [sp]
 1508 08ec 0023     		movs	r3, #0
 1509 08ee 0422     		movs	r2, #4
 1510 08f0 2146     		mov	r1, r4
 1511 08f2 3220     		movs	r0, #50
 1512 08f4 FFF7FEFF 		bl	moveUntil
 1513              	.LVL213:
 1514              	.L39:
 995:main.c        ****                 
 996:main.c        ****             }   
 997:main.c        ****             
 998:main.c        ****             state = STATE_DEPOSIT_PUCK;
 1515              		.loc 1 998 0
 1516 08f8 0622     		movs	r2, #6
 1517 08fa 864B     		ldr	r3, .L62
 1518 08fc 5A60     		str	r2, [r3, #4]
 1519              	.L37:
 999:main.c        ****         }
1000:main.c        ****         
1001:main.c        **** //        
1002:main.c        **** // *** 6. STATE DEPOSIT PUCK: *** // 
1003:main.c        **** //
1004:main.c        ****         
1005:main.c        ****         // We choose where we put the puck. Depending if its needed now, later or never.
1006:main.c        ****         if (state == STATE_DEPOSIT_PUCK){
 1520              		.loc 1 1006 0
 1521 08fe 854B     		ldr	r3, .L62
 1522 0900 5B68     		ldr	r3, [r3, #4]
 1523 0902 062B     		cmp	r3, #6
 1524 0904 40F0D580 		bne	.L42
 1525              	.LBB9:
1007:main.c        ****                 
1008:main.c        ****             
1009:main.c        ****             // Temp grab puck
1010:main.c        ****             control_photodiode_Write(CLAW_SENSING);    // changes to claw photodiode
 1526              		.loc 1 1010 0
 1527 0908 0120     		movs	r0, #1
 1528 090a FFF7FEFF 		bl	control_photodiode_Write
 1529              	.LVL214:
1011:main.c        ****             colour_sensing_algorithm = CLAW_GROUND_ALGORITHM;   // changes it to claw algorithm
 1530              		.loc 1 1011 0
 1531 090e 814C     		ldr	r4, .L62
 1532 0910 0223     		movs	r3, #2
 1533 0912 E360     		str	r3, [r4, #12]
1012:main.c        ****             
1013:main.c        ****             armOpen();
 1534              		.loc 1 1013 0
 1535 0914 FFF7FEFF 		bl	armOpen
 1536              	.LVL215:
1014:main.c        ****             colourSensingInitialise();
 1537              		.loc 1 1014 0
 1538 0918 FFF7FEFF 		bl	colourSensingInitialise
 1539              	.LVL216:
1015:main.c        ****             CyDelay(2000);
ARM GAS  C:\Users\Misha\AppData\Local\Temp\ccVSruQj.s 			page 46


 1540              		.loc 1 1015 0
 1541 091c 4FF4FA60 		mov	r0, #2000
 1542 0920 FFF7FEFF 		bl	CyDelay
 1543              	.LVL217:
1016:main.c        ****             armClose();
 1544              		.loc 1 1016 0
 1545 0924 FFF7FEFF 		bl	armClose
 1546              	.LVL218:
1017:main.c        ****             
1018:main.c        ****             
1019:main.c        ****             
1020:main.c        ****             
1021:main.c        ****             int heldColour = colourSensingOutput();
 1547              		.loc 1 1021 0
 1548 0928 FFF7FEFF 		bl	colourSensingOutput
 1549              	.LVL219:
1022:main.c        ****             //blinkLED(heldColour,500);
1023:main.c        ****             
1024:main.c        ****             
1025:main.c        ****             // TO DELETE
1026:main.c        ****             heldColour = current_stage; // temp checking it can stack with a fixed rgb order for si
 1550              		.loc 1 1026 0
 1551 092c 7A4B     		ldr	r3, .L62+4
 1552 092e 1E68     		ldr	r6, [r3]
 1553              	.LVL220:
1027:main.c        ****             
1028:main.c        ****             
1029:main.c        ****             if (heldColour == puckConstructionPlan[currentPuckStackSize] ) { // The currently held 
 1554              		.loc 1 1029 0
 1555 0930 2369     		ldr	r3, [r4, #16]
 1556 0932 04EB8304 		add	r4, r4, r3, lsl #2
 1557 0936 E369     		ldr	r3, [r4, #28]
 1558 0938 9E42     		cmp	r6, r3
 1559 093a 27D1     		bne	.L43
1030:main.c        ****                 moveUntil(HOME_MIDPOINT - DISTANCE_FRONT_SENSOR_FROM_CENTER, BACKWARD, GREATER_THAN
 1560              		.loc 1 1030 0
 1561 093c 0124     		movs	r4, #1
 1562 093e 0194     		str	r4, [sp, #4]
 1563 0940 AA25     		movs	r5, #170
 1564 0942 0095     		str	r5, [sp]
 1565 0944 0023     		movs	r3, #0
 1566 0946 0522     		movs	r2, #5
 1567 0948 1946     		mov	r1, r3
 1568 094a 40F22620 		movw	r0, #550
 1569 094e FFF7FEFF 		bl	moveUntil
 1570              	.LVL221:
1031:main.c        ****                 changeOrientation(NORTH,SPEED);
 1571              		.loc 1 1031 0
 1572 0952 2946     		mov	r1, r5
 1573 0954 0020     		movs	r0, #0
 1574 0956 FFF7FEFF 		bl	changeOrientation
 1575              	.LVL222:
1032:main.c        ****                 changeOrientation(WEST,SPEED);
 1576              		.loc 1 1032 0
 1577 095a 2946     		mov	r1, r5
 1578 095c 0320     		movs	r0, #3
 1579 095e FFF7FEFF 		bl	changeOrientation
ARM GAS  C:\Users\Misha\AppData\Local\Temp\ccVSruQj.s 			page 47


 1580              	.LVL223:
1033:main.c        ****                 moveUntil(CONSTRUCTION_MIDPOINT - DISTANCE_FRONT_SENSOR_FROM_CENTER, FORWARD, LESS_
 1581              		.loc 1 1033 0
 1582 0962 0194     		str	r4, [sp, #4]
 1583 0964 0095     		str	r5, [sp]
 1584 0966 0023     		movs	r3, #0
 1585 0968 0422     		movs	r2, #4
 1586 096a 2146     		mov	r1, r4
 1587 096c FA20     		movs	r0, #250
 1588 096e FFF7FEFF 		bl	moveUntil
 1589              	.LVL224:
1034:main.c        ****                 straightAdjust();
 1590              		.loc 1 1034 0
 1591 0972 FFF7FEFF 		bl	straightAdjust
 1592              	.LVL225:
1035:main.c        ****                 moveUntil(CONSTRUCTION_MIDPOINT - DISTANCE_FRONT_SENSOR_FROM_CENTER, FORWARD, LESS_
 1593              		.loc 1 1035 0
 1594 0976 0194     		str	r4, [sp, #4]
 1595 0978 0095     		str	r5, [sp]
 1596 097a 0023     		movs	r3, #0
 1597 097c 0422     		movs	r2, #4
 1598 097e 2146     		mov	r1, r4
 1599 0980 FA20     		movs	r0, #250
 1600 0982 FFF7FEFF 		bl	moveUntil
 1601              	.LVL226:
1036:main.c        ****                 straightAdjust();
 1602              		.loc 1 1036 0
 1603 0986 FFF7FEFF 		bl	straightAdjust
 1604              	.LVL227:
 1605 098a 1FE0     		b	.L44
 1606              	.L43:
1037:main.c        ****                 /*
1038:main.c        ****                 changeOrientation(SOUTH, SPEED);
1039:main.c        ****                 straightAdjust();
1040:main.c        ****                 moveUntil(CONSTRUCTION_MIDPOINT - DISTANCE_FRONT_SENSOR_FROM_CENTER, FORWARD, LESS_
1041:main.c        ****                 straightAdjust();
1042:main.c        ****                 */
1043:main.c        ****                 
1044:main.c        ****             }
1045:main.c        ****             else if ( heldColour == puckConstructionPlan[1] || heldColour == puckConstructionPlan[2
 1607              		.loc 1 1045 0
 1608 098c 614B     		ldr	r3, .L62
 1609 098e 1B6A     		ldr	r3, [r3, #32]
 1610 0990 9E42     		cmp	r6, r3
 1611 0992 03D0     		beq	.L45
 1612              		.loc 1 1045 0 is_stmt 0 discriminator 1
 1613 0994 5F4B     		ldr	r3, .L62
 1614 0996 5B6A     		ldr	r3, [r3, #36]
 1615 0998 9E42     		cmp	r6, r3
 1616 099a 0DD1     		bne	.L46
 1617              	.L45:
1046:main.c        ****                 moveUntil(ARENA_WIDTH - FIRST_TEMP_DROPOFF + DISTANCE_FRONT_SENSOR_FROM_CENTER, BAC
 1618              		.loc 1 1046 0 is_stmt 1
 1619 099c 0123     		movs	r3, #1
 1620 099e 0193     		str	r3, [sp, #4]
 1621 09a0 AA23     		movs	r3, #170
 1622 09a2 0093     		str	r3, [sp]
ARM GAS  C:\Users\Misha\AppData\Local\Temp\ccVSruQj.s 			page 48


 1623 09a4 0023     		movs	r3, #0
 1624 09a6 0522     		movs	r2, #5
 1625 09a8 1946     		mov	r1, r3
 1626 09aa 40F20D20 		movw	r0, #525
 1627 09ae FFF7FEFF 		bl	moveUntil
 1628              	.LVL228:
1047:main.c        ****                 straightAdjust();
 1629              		.loc 1 1047 0
 1630 09b2 FFF7FEFF 		bl	straightAdjust
 1631              	.LVL229:
 1632 09b6 09E0     		b	.L44
 1633              	.L46:
1048:main.c        ****             }
1049:main.c        ****             
1050:main.c        ****             else {
1051:main.c        ****                 moveUntil(ARENA_WIDTH-FIRST_DISCARD_ZONE + DISTANCE_FRONT_SENSOR_FROM_CENTER, BACKW
 1634              		.loc 1 1051 0
 1635 09b8 0123     		movs	r3, #1
 1636 09ba 0193     		str	r3, [sp, #4]
 1637 09bc AA23     		movs	r3, #170
 1638 09be 0093     		str	r3, [sp]
 1639 09c0 0023     		movs	r3, #0
 1640 09c2 0522     		movs	r2, #5
 1641 09c4 1946     		mov	r1, r3
 1642 09c6 FA20     		movs	r0, #250
 1643 09c8 FFF7FEFF 		bl	moveUntil
 1644              	.LVL230:
 1645              	.L44:
1052:main.c        ****             } // Discard the puck so drop it in rubbish pile
1053:main.c        **** 
1054:main.c        ****             changeOrientation(SOUTH,SPEED);    
 1646              		.loc 1 1054 0
 1647 09cc AA21     		movs	r1, #170
 1648 09ce 0220     		movs	r0, #2
 1649 09d0 FFF7FEFF 		bl	changeOrientation
 1650              	.LVL231:
1055:main.c        ****             changeHeightToPuck(currentPuckStackSize + 1, CLOSE); // Lift claw above stack to avoid 
 1651              		.loc 1 1055 0
 1652 09d4 4F4C     		ldr	r4, .L62
 1653 09d6 2069     		ldr	r0, [r4, #16]
 1654 09d8 0121     		movs	r1, #1
 1655 09da 0844     		add	r0, r0, r1
 1656 09dc FFF7FEFF 		bl	changeHeightToPuck
 1657              	.LVL232:
1056:main.c        ****             
1057:main.c        ****             if (currentPuckStackSize == 0){
 1658              		.loc 1 1057 0
 1659 09e0 2369     		ldr	r3, [r4, #16]
 1660 09e2 4BB9     		cbnz	r3, .L47
1058:main.c        ****                moveUntil(CONSTRUCTION_DISTANCE_FROM_WALL, FORWARD, LESS_THAN, FRONT_LEFT, SPEED,TRU
 1661              		.loc 1 1058 0
 1662 09e4 0121     		movs	r1, #1
 1663 09e6 0191     		str	r1, [sp, #4]
 1664 09e8 AA23     		movs	r3, #170
 1665 09ea 0093     		str	r3, [sp]
 1666 09ec 0023     		movs	r3, #0
 1667 09ee 0422     		movs	r2, #4
ARM GAS  C:\Users\Misha\AppData\Local\Temp\ccVSruQj.s 			page 49


 1668 09f0 9620     		movs	r0, #150
 1669 09f2 FFF7FEFF 		bl	moveUntil
 1670              	.LVL233:
 1671 09f6 09E0     		b	.L48
 1672              	.L47:
1059:main.c        ****             }
1060:main.c        ****             else {
1061:main.c        ****                 moveUntil(CONSTRUCTION_DISTANCE_FROM_WALL - 60, FORWARD, LESS_THAN, FRONT_RIGHT, SP
 1673              		.loc 1 1061 0
 1674 09f8 0023     		movs	r3, #0
 1675 09fa 0193     		str	r3, [sp, #4]
 1676 09fc AA23     		movs	r3, #170
 1677 09fe 0093     		str	r3, [sp]
 1678 0a00 0123     		movs	r3, #1
 1679 0a02 0422     		movs	r2, #4
 1680 0a04 1946     		mov	r1, r3
 1681 0a06 5A20     		movs	r0, #90
 1682 0a08 FFF7FEFF 		bl	moveUntil
 1683              	.LVL234:
 1684              	.L48:
1062:main.c        ****             }
1063:main.c        ****             
1064:main.c        ****             //moveDynamic(CONSTRUCTION_DISTANCE_CLEAR_FROM_STACK - CONSTRUCTION_DISTANCE_FROM_WALL,
1065:main.c        ****             
1066:main.c        ****             if (heldColour == puckConstructionPlan[currentPuckStackSize]){changeHeightToPuck(curren
 1685              		.loc 1 1066 0
 1686 0a0c 414B     		ldr	r3, .L62
 1687 0a0e 1869     		ldr	r0, [r3, #16]
 1688 0a10 03EB8003 		add	r3, r3, r0, lsl #2
 1689 0a14 DB69     		ldr	r3, [r3, #28]
 1690 0a16 9E42     		cmp	r6, r3
 1691 0a18 03D1     		bne	.L49
 1692              		.loc 1 1066 0 is_stmt 0 discriminator 1
 1693 0a1a 0221     		movs	r1, #2
 1694 0a1c FFF7FEFF 		bl	changeHeightToPuck
 1695              	.LVL235:
 1696 0a20 03E0     		b	.L50
 1697              	.L49:
1067:main.c        ****             else {changeHeightToPuck(0, NEITHER);}
 1698              		.loc 1 1067 0 is_stmt 1
 1699 0a22 0221     		movs	r1, #2
 1700 0a24 0020     		movs	r0, #0
 1701 0a26 FFF7FEFF 		bl	changeHeightToPuck
 1702              	.LVL236:
 1703              	.L50:
1068:main.c        ****             armOpen();
 1704              		.loc 1 1068 0
 1705 0a2a FFF7FEFF 		bl	armOpen
 1706              	.LVL237:
1069:main.c        ****             changeHeightToPuck(currentPuckStackSize + 1, NEITHER); // Move higher than stack to avo
 1707              		.loc 1 1069 0
 1708 0a2e 394B     		ldr	r3, .L62
 1709 0a30 1869     		ldr	r0, [r3, #16]
 1710 0a32 0221     		movs	r1, #2
 1711 0a34 0130     		adds	r0, r0, #1
 1712 0a36 FFF7FEFF 		bl	changeHeightToPuck
 1713              	.LVL238:
ARM GAS  C:\Users\Misha\AppData\Local\Temp\ccVSruQj.s 			page 50


1070:main.c        ****             
1071:main.c        **** 
1072:main.c        ****             if (current_stage >= 3){state = STATE_PARK_HOME;}        // Returns to home 
 1714              		.loc 1 1072 0
 1715 0a3a 374B     		ldr	r3, .L62+4
 1716 0a3c 1B68     		ldr	r3, [r3]
 1717 0a3e 022B     		cmp	r3, #2
 1718 0a40 03DD     		ble	.L51
 1719              		.loc 1 1072 0 is_stmt 0 discriminator 1
 1720 0a42 0722     		movs	r2, #7
 1721 0a44 334B     		ldr	r3, .L62
 1722 0a46 5A60     		str	r2, [r3, #4]
 1723 0a48 33E0     		b	.L42
 1724              	.L51:
1073:main.c        ****             else {current_stage++; currentPuckStackSize++;
 1725              		.loc 1 1073 0 is_stmt 1
 1726 0a4a 0133     		adds	r3, r3, #1
 1727 0a4c 324A     		ldr	r2, .L62+4
 1728 0a4e 1360     		str	r3, [r2]
 1729 0a50 304E     		ldr	r6, .L62
 1730              	.LVL239:
 1731 0a52 3369     		ldr	r3, [r6, #16]
 1732 0a54 0133     		adds	r3, r3, #1
 1733 0a56 3361     		str	r3, [r6, #16]
1074:main.c        ****             // Need to go back to the east wall facing east.
1075:main.c        ****                 //moveUntil(CONSTRUCTION_DISTANCE_CLEAR_FROM_STACK, BACKWARD, GREATER_THAN, FRONT_L
1076:main.c        ****                 moveDynamic(-150,SPEED,FALSE);
 1734              		.loc 1 1076 0
 1735 0a58 0022     		movs	r2, #0
 1736 0a5a AA21     		movs	r1, #170
 1737 0a5c 6FF09500 		mvn	r0, #149
 1738 0a60 FFF7FEFF 		bl	moveDynamic
 1739              	.LVL240:
1077:main.c        ****                 changeOrientation(WEST,SPEED);
 1740              		.loc 1 1077 0
 1741 0a64 AA21     		movs	r1, #170
 1742 0a66 0320     		movs	r0, #3
 1743 0a68 FFF7FEFF 		bl	changeOrientation
 1744              	.LVL241:
1078:main.c        ****                 straightAdjust();
 1745              		.loc 1 1078 0
 1746 0a6c FFF7FEFF 		bl	straightAdjust
 1747              	.LVL242:
1079:main.c        ****                 moveUntil(HOME_MIDPOINT - DISTANCE_FRONT_SENSOR_FROM_CENTER, BACKWARD, GREATER_THAN
 1748              		.loc 1 1079 0
 1749 0a70 0124     		movs	r4, #1
 1750 0a72 0194     		str	r4, [sp, #4]
 1751 0a74 AA25     		movs	r5, #170
 1752 0a76 0095     		str	r5, [sp]
 1753 0a78 0023     		movs	r3, #0
 1754 0a7a 0522     		movs	r2, #5
 1755 0a7c 1946     		mov	r1, r3
 1756 0a7e 40F22620 		movw	r0, #550
 1757 0a82 FFF7FEFF 		bl	moveUntil
 1758              	.LVL243:
1080:main.c        ****                 straightAdjust();
 1759              		.loc 1 1080 0
ARM GAS  C:\Users\Misha\AppData\Local\Temp\ccVSruQj.s 			page 51


 1760 0a86 FFF7FEFF 		bl	straightAdjust
 1761              	.LVL244:
1081:main.c        ****                 changeOrientation(SOUTH,SPEED);
 1762              		.loc 1 1081 0
 1763 0a8a 2946     		mov	r1, r5
 1764 0a8c 0220     		movs	r0, #2
 1765 0a8e FFF7FEFF 		bl	changeOrientation
 1766              	.LVL245:
1082:main.c        ****                 changeOrientation(EAST,SPEED);
 1767              		.loc 1 1082 0
 1768 0a92 2946     		mov	r1, r5
 1769 0a94 2046     		mov	r0, r4
 1770 0a96 FFF7FEFF 		bl	changeOrientation
 1771              	.LVL246:
1083:main.c        ****                 moveUntil(DISTANCE_FRONT_SENSOR_FROM_CENTER + SAFETY_MARGIN + 50, FORWARD, LESS_THA
 1772              		.loc 1 1083 0
 1773 0a9a 0194     		str	r4, [sp, #4]
 1774 0a9c 0095     		str	r5, [sp]
 1775 0a9e 0023     		movs	r3, #0
 1776 0aa0 0422     		movs	r2, #4
 1777 0aa2 2146     		mov	r1, r4
 1778 0aa4 B920     		movs	r0, #185
 1779 0aa6 FFF7FEFF 		bl	moveUntil
 1780              	.LVL247:
1084:main.c        ****                 straightAdjust();
 1781              		.loc 1 1084 0
 1782 0aaa FFF7FEFF 		bl	straightAdjust
 1783              	.LVL248:
1085:main.c        ****                 
1086:main.c        ****                 
1087:main.c        ****                 //Usually we will check if the next colour we need is in home base already
1088:main.c        ****                 //
1089:main.c        ****                 // If in east edge of home base
1090:main.c        ****                 if ( puckConstructionPlan[currentPuckStackSize] == puckColoursTempPile[0]){
1091:main.c        ****                     
1092:main.c        ****                 }
1093:main.c        ****                 //If in west edge of home base
1094:main.c        ****                 else if(puckConstructionPlan[currentPuckStackSize] == puckColoursTempPile[1]){
1095:main.c        ****                          
1096:main.c        ****                 }
1097:main.c        ****                 
1098:main.c        ****                 
1099:main.c        ****                 //DELETE
1100:main.c        ****                 state = STATE_DEPOSIT_PUCK;
 1784              		.loc 1 1100 0
 1785 0aae 0623     		movs	r3, #6
 1786 0ab0 7360     		str	r3, [r6, #4]
 1787              	.L42:
 1788              	.LBE9:
1101:main.c        ****             }
1102:main.c        ****             
1103:main.c        ****             
1104:main.c        **** 
1105:main.c        ****         }
1106:main.c        ****  
1107:main.c        **** //        
1108:main.c        **** // *** 7. STATE PARK HOME: *** // 
ARM GAS  C:\Users\Misha\AppData\Local\Temp\ccVSruQj.s 			page 52


1109:main.c        **** //        
1110:main.c        ****         
1111:main.c        ****         if (state == STATE_PARK_HOME){
 1789              		.loc 1 1111 0
 1790 0ab2 184B     		ldr	r3, .L62
 1791 0ab4 5B68     		ldr	r3, [r3, #4]
 1792 0ab6 072B     		cmp	r3, #7
 1793 0ab8 7FF429AB 		bne	.L52
1112:main.c        ****             
1113:main.c        ****             // When we enter this state we can assume that we have just deposited the final puck on
1114:main.c        ****             // Thus we are facing the stack.
1115:main.c        ****             
1116:main.c        ****             
1117:main.c        ****             moveUntil(CONSTRUCTION_DISTANCE_CLEAR_FROM_STACK, BACKWARD, GREATER_THAN, FRONT_LEFT, S
 1794              		.loc 1 1117 0
 1795 0abc 0024     		movs	r4, #0
 1796 0abe 0194     		str	r4, [sp, #4]
 1797 0ac0 AA25     		movs	r5, #170
 1798 0ac2 0095     		str	r5, [sp]
 1799 0ac4 2346     		mov	r3, r4
 1800 0ac6 0522     		movs	r2, #5
 1801 0ac8 2146     		mov	r1, r4
 1802 0aca D220     		movs	r0, #210
 1803 0acc FFF7FEFF 		bl	moveUntil
 1804              	.LVL249:
1118:main.c        ****             changeOrientation(WEST,SPEED);
 1805              		.loc 1 1118 0
 1806 0ad0 2946     		mov	r1, r5
 1807 0ad2 0320     		movs	r0, #3
 1808 0ad4 FFF7FEFF 		bl	changeOrientation
 1809              	.LVL250:
1119:main.c        ****             straightAdjust();
 1810              		.loc 1 1119 0
 1811 0ad8 FFF7FEFF 		bl	straightAdjust
 1812              	.LVL251:
1120:main.c        ****             moveUntil(HOME_MIDPOINT - DISTANCE_FRONT_SENSOR_FROM_CENTER - 30 , BACKWARD, GREATER_TH
 1813              		.loc 1 1120 0
 1814 0adc 0126     		movs	r6, #1
 1815 0ade 0196     		str	r6, [sp, #4]
 1816 0ae0 0095     		str	r5, [sp]
 1817 0ae2 3346     		mov	r3, r6
 1818 0ae4 0522     		movs	r2, #5
 1819 0ae6 2146     		mov	r1, r4
 1820 0ae8 4FF40270 		mov	r0, #520
 1821 0aec FFF7FEFF 		bl	moveUntil
 1822              	.LVL252:
1121:main.c        ****             moveSwivel(90, SPEED, TRUE);
 1823              		.loc 1 1121 0
 1824 0af0 3246     		mov	r2, r6
 1825 0af2 2946     		mov	r1, r5
 1826 0af4 5A20     		movs	r0, #90
 1827 0af6 FFF7FEFF 		bl	moveSwivel
 1828              	.LVL253:
1122:main.c        ****             moveUntil(HOME_PARKING_DISTANCE , BACKWARD, LESS_THAN, BACK, SPEED, TRUE);
 1829              		.loc 1 1122 0
 1830 0afa 0196     		str	r6, [sp, #4]
 1831 0afc 0095     		str	r5, [sp]
ARM GAS  C:\Users\Misha\AppData\Local\Temp\ccVSruQj.s 			page 53


 1832 0afe 0423     		movs	r3, #4
 1833 0b00 1A46     		mov	r2, r3
 1834 0b02 2146     		mov	r1, r4
 1835 0b04 2820     		movs	r0, #40
 1836 0b06 FFF7FEFF 		bl	moveUntil
 1837              	.LVL254:
1123:main.c        ****             
1124:main.c        ****             
1125:main.c        ****             // END Congratulations:
1126:main.c        ****             changeHeightToPuck(GROUND, NEITHER);
 1838              		.loc 1 1126 0
 1839 0b0a 0221     		movs	r1, #2
 1840 0b0c 2046     		mov	r0, r4
 1841 0b0e FFF7FEFF 		bl	changeHeightToPuck
 1842              	.LVL255:
 1843              	.L53:
 1844 0b12 FEE7     		b	.L53
 1845              	.L63:
 1846              		.align	2
 1847              	.L62:
 1848 0b14 00000000 		.word	.LANCHOR0
 1849 0b18 00000000 		.word	.LANCHOR1
 1850              		.cfi_endproc
 1851              	.LFE66:
 1852              		.size	main, .-main
 1853              		.comm	distance_returned_global,4,4
 1854              		.global	current_stage
 1855              		.global	PLAN_SCAN_VERTICAL
 1856              		.global	moving
 1857              		.global	colour_sensing_algorithm
 1858              		.global	colour_flag
 1859              		.global	idac_value
 1860              		.global	puckWestClearance
 1861              		.global	puckEastClearance
 1862              		.global	blockWestClearance
 1863              		.global	blockEastClearance
 1864              		.global	safety_override
 1865              		.global	puck_location
 1866              		.global	block_location
 1867              		.comm	pathPastBlock,4,4
 1868              		.comm	pathToPucks,4,4
 1869              		.global	beginNavigation
 1870              		.global	horizontalPuckGrid
 1871              		.global	puckColoursTempPile
 1872              		.global	puckConstructionPlan
 1873              		.global	currentPuckStackSize
 1874              		.global	running
 1875              		.global	state
 1876              		.comm	ultrasonic_flag,4,4
 1877              		.comm	initialisation,4,4
 1878              		.comm	output,32,4
 1879              		.comm	turningRightFlag,2,2
 1880              		.comm	turningLeftFlag,2,2
 1881              		.comm	drivingBackwardFlag,2,2
 1882              		.comm	drivingForwardFlag,2,2
 1883              		.comm	puckPileLocation,4,4
 1884              		.global	block_edge_location
ARM GAS  C:\Users\Misha\AppData\Local\Temp\ccVSruQj.s 			page 54


 1885              		.global	sweeping
 1886              		.global	puckRackOffsetsFromWest
 1887              		.global	puckRackColours
 1888              		.global	currentPuckRackScanningIndex
 1889              		.comm	driveStraightEnable,4,4
 1890              		.comm	internal_orientation,4,4
 1891              		.section	.rodata
 1892              		.align	2
 1893              		.type	PLAN_SCAN_VERTICAL, %object
 1894              		.size	PLAN_SCAN_VERTICAL, 4
 1895              	PLAN_SCAN_VERTICAL:
 1896 0000 0A000000 		.word	10
 1897              		.data
 1898              		.align	2
 1899              		.set	.LANCHOR1,. + 0
 1900              		.type	current_stage, %object
 1901              		.size	current_stage, 4
 1902              	current_stage:
 1903 0000 01000000 		.word	1
 1904              		.type	colour_flag, %object
 1905              		.size	colour_flag, 4
 1906              	colour_flag:
 1907 0004 01000000 		.word	1
 1908              		.type	running, %object
 1909              		.size	running, 4
 1910              	running:
 1911 0008 01000000 		.word	1
 1912              		.type	puckRackOffsetsFromWest, %object
 1913              		.size	puckRackOffsetsFromWest, 20
 1914              	puckRackOffsetsFromWest:
 1915 000c D0020000 		.word	720
 1916 0010 94020000 		.word	660
 1917 0014 58020000 		.word	600
 1918 0018 1C020000 		.word	540
 1919 001c E0010000 		.word	480
 1920              		.section	.rodata.str1.4,"aMS",%progbits,1
 1921              		.align	2
 1922              	.LC0:
 1923 0000 55415254 		.ascii	"UART commencing... \012\000"
 1923      20636F6D 
 1923      6D656E63 
 1923      696E672E 
 1923      2E2E200A 
 1924 0015 000000   		.space	3
 1925              	.LC1:
 1926 0018 556C7472 		.ascii	"Ultrasonic Calibration tests: \012\000"
 1926      61736F6E 
 1926      69632043 
 1926      616C6962 
 1926      72617469 
 1927              	.LC2:
 1928 0038 466F756E 		.ascii	"Found Colours: \012\000"
 1928      6420436F 
 1928      6C6F7572 
 1928      733A200A 
 1928      00
 1929 0049 000000   		.space	3
ARM GAS  C:\Users\Misha\AppData\Local\Temp\ccVSruQj.s 			page 55


 1930              	.LC3:
 1931 004c 2569200A 		.ascii	"%i \012\000"
 1931      00
 1932 0051 000000   		.space	3
 1933              	.LC4:
 1934 0054 64697374 		.ascii	"distance from robot to block: %d \011\000"
 1934      616E6365 
 1934      2066726F 
 1934      6D20726F 
 1934      626F7420 
 1935 0077 00       		.space	1
 1936              	.LC5:
 1937 0078 6E6F7274 		.ascii	"north: %d, \012\000"
 1937      683A2025 
 1937      642C200A 
 1937      00
 1938 0085 000000   		.space	3
 1939              	.LC6:
 1940 0088 65617374 		.ascii	"east: %d, \012\000"
 1940      3A202564 
 1940      2C200A00 
 1941              	.LC7:
 1942 0094 736F7574 		.ascii	"south: %d, \012\000"
 1942      683A2025 
 1942      642C200A 
 1942      00
 1943 00a1 000000   		.space	3
 1944              	.LC8:
 1945 00a4 77657374 		.ascii	"west: %d, \012\000"
 1945      3A202564 
 1945      2C200A00 
 1946              	.LC9:
 1947 00b0 25642009 		.ascii	"%d \011\000"
 1947      00
 1948 00b5 000000   		.space	3
 1949              	.LC10:
 1950 00b8 7075636B 		.ascii	"puck check: %d, \012\000"
 1950      20636865 
 1950      636B3A20 
 1950      25642C20 
 1950      0A00
 1951              		.bss
 1952              		.align	2
 1953              		.set	.LANCHOR0,. + 0
 1954              		.type	beginNavigation, %object
 1955              		.size	beginNavigation, 4
 1956              	beginNavigation:
 1957 0000 00000000 		.space	4
 1958              		.type	state, %object
 1959              		.size	state, 4
 1960              	state:
 1961 0004 00000000 		.space	4
 1962              		.type	idac_value, %object
 1963              		.size	idac_value, 4
 1964              	idac_value:
 1965 0008 00000000 		.space	4
 1966              		.type	colour_sensing_algorithm, %object
ARM GAS  C:\Users\Misha\AppData\Local\Temp\ccVSruQj.s 			page 56


 1967              		.size	colour_sensing_algorithm, 4
 1968              	colour_sensing_algorithm:
 1969 000c 00000000 		.space	4
 1970              		.type	currentPuckStackSize, %object
 1971              		.size	currentPuckStackSize, 4
 1972              	currentPuckStackSize:
 1973 0010 00000000 		.space	4
 1974              		.type	blockEastClearance, %object
 1975              		.size	blockEastClearance, 2
 1976              	blockEastClearance:
 1977 0014 0000     		.space	2
 1978              		.type	blockWestClearance, %object
 1979              		.size	blockWestClearance, 2
 1980              	blockWestClearance:
 1981 0016 0000     		.space	2
 1982              		.type	puckEastClearance, %object
 1983              		.size	puckEastClearance, 2
 1984              	puckEastClearance:
 1985 0018 0000     		.space	2
 1986              		.type	puckWestClearance, %object
 1987              		.size	puckWestClearance, 2
 1988              	puckWestClearance:
 1989 001a 0000     		.space	2
 1990              		.type	puckConstructionPlan, %object
 1991              		.size	puckConstructionPlan, 12
 1992              	puckConstructionPlan:
 1993 001c 00000000 		.space	12
 1993      00000000 
 1993      00000000 
 1994              		.type	puckRackColours, %object
 1995              		.size	puckRackColours, 20
 1996              	puckRackColours:
 1997 0028 00000000 		.space	20
 1997      00000000 
 1997      00000000 
 1997      00000000 
 1997      00000000 
 1998              		.type	block_location, %object
 1999              		.size	block_location, 16
 2000              	block_location:
 2001 003c 00000000 		.space	16
 2001      00000000 
 2001      00000000 
 2001      00000000 
 2002              		.type	puck_location, %object
 2003              		.size	puck_location, 16
 2004              	puck_location:
 2005 004c 00000000 		.space	16
 2005      00000000 
 2005      00000000 
 2005      00000000 
 2006              		.type	safety_override, %object
 2007              		.size	safety_override, 4
 2008              	safety_override:
 2009 005c 00000000 		.space	4
 2010              		.type	moving, %object
 2011              		.size	moving, 4
ARM GAS  C:\Users\Misha\AppData\Local\Temp\ccVSruQj.s 			page 57


 2012              	moving:
 2013 0060 00000000 		.space	4
 2014              		.type	horizontalPuckGrid, %object
 2015              		.size	horizontalPuckGrid, 4
 2016              	horizontalPuckGrid:
 2017 0064 00000000 		.space	4
 2018              		.type	puckColoursTempPile, %object
 2019              		.size	puckColoursTempPile, 8
 2020              	puckColoursTempPile:
 2021 0068 00000000 		.space	8
 2021      00000000 
 2022              		.type	block_edge_location, %object
 2023              		.size	block_edge_location, 16
 2024              	block_edge_location:
 2025 0070 00000000 		.space	16
 2025      00000000 
 2025      00000000 
 2025      00000000 
 2026              		.type	sweeping, %object
 2027              		.size	sweeping, 4
 2028              	sweeping:
 2029 0080 00000000 		.space	4
 2030              		.type	currentPuckRackScanningIndex, %object
 2031              		.size	currentPuckRackScanningIndex, 4
 2032              	currentPuckRackScanningIndex:
 2033 0084 00000000 		.space	4
 2034              		.text
 2035              	.Letext0:
 2036              		.file 2 "c:\\program files (x86)\\cypress\\psoc creator\\4.2\\psoc creator\\import\\gnu\\arm\\5.4.
 2037              		.file 3 "c:\\program files (x86)\\cypress\\psoc creator\\4.2\\psoc creator\\import\\gnu\\arm\\5.4.
 2038              		.file 4 "Generated_Source\\PSoC5/core_cm3.h"
 2039              		.file 5 "navigation.h"
 2040              		.file 6 "ultrasonic.h"
 2041              		.file 7 "main.h"
 2042              		.file 8 "Generated_Source\\PSoC5/CyLib.h"
 2043              		.file 9 "colour.h"
 2044              		.file 10 "c:\\program files (x86)\\cypress\\psoc creator\\4.2\\psoc creator\\import\\gnu\\arm\\5.4
 2045              		.file 11 "Generated_Source\\PSoC5/UART_1.h"
 2046              		.file 12 "Generated_Source\\PSoC5/control_photodiode.h"
 2047              		.file 13 "motor.h"
 2048              		.file 14 "servo.h"
 2049              		.file 15 "Generated_Source\\PSoC5/TIA_1.h"
 2050              		.file 16 "Generated_Source\\PSoC5/ADC.h"
 2051              		.file 17 "Generated_Source\\PSoC5/IDAC8_1.h"
 2052              		.file 18 "Generated_Source\\PSoC5/control_led.h"
 2053              		.file 19 "Generated_Source\\PSoC5/Rack_Servo_PWM.h"
 2054              		.file 20 "Generated_Source\\PSoC5/Gripper_Servo_PWM.h"
 2055              		.file 21 "Generated_Source\\PSoC5/Motor_Left_Driver.h"
 2056              		.file 22 "Generated_Source\\PSoC5/Motor_Right_Driver.h"
 2057              		.file 23 "Generated_Source\\PSoC5/Motor_Left_Decoder.h"
 2058              		.file 24 "Generated_Source\\PSoC5/Motor_Right_Decoder.h"
 2059              		.file 25 "Generated_Source\\PSoC5/Timer_1.h"
 2060              		.file 26 "Generated_Source\\PSoC5/Sonic.h"
 2061              		.file 27 "Generated_Source\\PSoC5/Start.h"
 2062              		.file 28 "debugging.h"
 2063              		.section	.debug_info,"",%progbits
 2064              	.Ldebug_info0:
ARM GAS  C:\Users\Misha\AppData\Local\Temp\ccVSruQj.s 			page 58


 2065 0000 0D1D0000 		.4byte	0x1d0d
 2066 0004 0400     		.2byte	0x4
 2067 0006 00000000 		.4byte	.Ldebug_abbrev0
 2068 000a 04       		.byte	0x4
 2069 000b 01       		.uleb128 0x1
 2070 000c 3D070000 		.4byte	.LASF111
 2071 0010 0C       		.byte	0xc
 2072 0011 BF050000 		.4byte	.LASF112
 2073 0015 76060000 		.4byte	.LASF113
 2074 0019 18000000 		.4byte	.Ldebug_ranges0+0x18
 2075 001d 00000000 		.4byte	0
 2076 0021 00000000 		.4byte	.Ldebug_line0
 2077 0025 02       		.uleb128 0x2
 2078 0026 01       		.byte	0x1
 2079 0027 06       		.byte	0x6
 2080 0028 54040000 		.4byte	.LASF0
 2081 002c 02       		.uleb128 0x2
 2082 002d 01       		.byte	0x1
 2083 002e 08       		.byte	0x8
 2084 002f 94030000 		.4byte	.LASF1
 2085 0033 02       		.uleb128 0x2
 2086 0034 02       		.byte	0x2
 2087 0035 05       		.byte	0x5
 2088 0036 76000000 		.4byte	.LASF2
 2089 003a 02       		.uleb128 0x2
 2090 003b 02       		.byte	0x2
 2091 003c 07       		.byte	0x7
 2092 003d 9B050000 		.4byte	.LASF3
 2093 0041 03       		.uleb128 0x3
 2094 0042 59060000 		.4byte	.LASF9
 2095 0046 02       		.byte	0x2
 2096 0047 3F       		.byte	0x3f
 2097 0048 4C000000 		.4byte	0x4c
 2098 004c 02       		.uleb128 0x2
 2099 004d 04       		.byte	0x4
 2100 004e 05       		.byte	0x5
 2101 004f 95020000 		.4byte	.LASF4
 2102 0053 02       		.uleb128 0x2
 2103 0054 04       		.byte	0x4
 2104 0055 07       		.byte	0x7
 2105 0056 CE050000 		.4byte	.LASF5
 2106 005a 02       		.uleb128 0x2
 2107 005b 08       		.byte	0x8
 2108 005c 05       		.byte	0x5
 2109 005d 47020000 		.4byte	.LASF6
 2110 0061 02       		.uleb128 0x2
 2111 0062 08       		.byte	0x8
 2112 0063 07       		.byte	0x7
 2113 0064 74040000 		.4byte	.LASF7
 2114 0068 04       		.uleb128 0x4
 2115 0069 04       		.byte	0x4
 2116 006a 05       		.byte	0x5
 2117 006b 696E7400 		.ascii	"int\000"
 2118 006f 02       		.uleb128 0x2
 2119 0070 04       		.byte	0x4
 2120 0071 07       		.byte	0x7
 2121 0072 9D040000 		.4byte	.LASF8
ARM GAS  C:\Users\Misha\AppData\Local\Temp\ccVSruQj.s 			page 59


 2122 0076 03       		.uleb128 0x3
 2123 0077 BB000000 		.4byte	.LASF10
 2124 007b 03       		.byte	0x3
 2125 007c 2C       		.byte	0x2c
 2126 007d 41000000 		.4byte	0x41
 2127 0081 02       		.uleb128 0x2
 2128 0082 04       		.byte	0x4
 2129 0083 04       		.byte	0x4
 2130 0084 2E020000 		.4byte	.LASF11
 2131 0088 02       		.uleb128 0x2
 2132 0089 08       		.byte	0x8
 2133 008a 04       		.byte	0x4
 2134 008b 10070000 		.4byte	.LASF12
 2135 008f 02       		.uleb128 0x2
 2136 0090 01       		.byte	0x1
 2137 0091 08       		.byte	0x8
 2138 0092 20050000 		.4byte	.LASF13
 2139 0096 02       		.uleb128 0x2
 2140 0097 08       		.byte	0x8
 2141 0098 04       		.byte	0x4
 2142 0099 04010000 		.4byte	.LASF14
 2143 009d 02       		.uleb128 0x2
 2144 009e 04       		.byte	0x4
 2145 009f 07       		.byte	0x7
 2146 00a0 00070000 		.4byte	.LASF15
 2147 00a4 05       		.uleb128 0x5
 2148 00a5 54494800 		.ascii	"TIH\000"
 2149 00a9 01       		.byte	0x1
 2150 00aa 66       		.byte	0x66
 2151 00ab 00000000 		.4byte	.LFB64
 2152 00af 08000000 		.4byte	.LFE64-.LFB64
 2153 00b3 01       		.uleb128 0x1
 2154 00b4 9C       		.byte	0x9c
 2155 00b5 C3000000 		.4byte	0xc3
 2156 00b9 06       		.uleb128 0x6
 2157 00ba 06000000 		.4byte	.LVL0
 2158 00be 161B0000 		.4byte	0x1b16
 2159 00c2 00       		.byte	0
 2160 00c3 07       		.uleb128 0x7
 2161 00c4 C6050000 		.4byte	.LASF16
 2162 00c8 01       		.byte	0x1
 2163 00c9 6B       		.byte	0x6b
 2164 00ca 00000000 		.4byte	.LFB65
 2165 00ce 1C000000 		.4byte	.LFE65-.LFB65
 2166 00d2 01       		.uleb128 0x1
 2167 00d3 9C       		.byte	0x9c
 2168 00d4 E9000000 		.4byte	0xe9
 2169 00d8 08       		.uleb128 0x8
 2170 00d9 08000000 		.4byte	.LVL1
 2171 00dd 211B0000 		.4byte	0x1b21
 2172 00e1 09       		.uleb128 0x9
 2173 00e2 01       		.uleb128 0x1
 2174 00e3 50       		.byte	0x50
 2175 00e4 02       		.uleb128 0x2
 2176 00e5 08       		.byte	0x8
 2177 00e6 64       		.byte	0x64
 2178 00e7 00       		.byte	0
ARM GAS  C:\Users\Misha\AppData\Local\Temp\ccVSruQj.s 			page 60


 2179 00e8 00       		.byte	0
 2180 00e9 0A       		.uleb128 0xa
 2181 00ea 37050000 		.4byte	.LASF114
 2182 00ee 01       		.byte	0x1
 2183 00ef 86       		.byte	0x86
 2184 00f0 68000000 		.4byte	0x68
 2185 00f4 00000000 		.4byte	.LFB66
 2186 00f8 1C0B0000 		.4byte	.LFE66-.LFB66
 2187 00fc 01       		.uleb128 0x1
 2188 00fd 9C       		.byte	0x9c
 2189 00fe 0F180000 		.4byte	0x180f
 2190 0102 0B       		.uleb128 0xb
 2191 0103 55020000 		.4byte	.LASF17
 2192 0107 01       		.byte	0x1
 2193 0108 EB       		.byte	0xeb
 2194 0109 68000000 		.4byte	0x68
 2195 010d F401     		.2byte	0x1f4
 2196 010f 0C       		.uleb128 0xc
 2197 0110 1A010000 		.4byte	.LBB2
 2198 0114 A0000000 		.4byte	.LBE2-.LBB2
 2199 0118 2E020000 		.4byte	0x22e
 2200 011c 0D       		.uleb128 0xd
 2201 011d CB070000 		.4byte	.LASF18
 2202 0121 01       		.byte	0x1
 2203 0122 9801     		.2byte	0x198
 2204 0124 68000000 		.4byte	0x68
 2205 0128 00000000 		.4byte	.LLST0
 2206 012c 0C       		.uleb128 0xc
 2207 012d 3E010000 		.4byte	.LBB3
 2208 0131 1E000000 		.4byte	.LBE3-.LBB3
 2209 0135 62010000 		.4byte	0x162
 2210 0139 0E       		.uleb128 0xe
 2211 013a 6900     		.ascii	"i\000"
 2212 013c 01       		.byte	0x1
 2213 013d 8301     		.2byte	0x183
 2214 013f 68000000 		.4byte	0x68
 2215 0143 1F000000 		.4byte	.LLST1
 2216 0147 06       		.uleb128 0x6
 2217 0148 46010000 		.4byte	.LVL50
 2218 014c 2C1B0000 		.4byte	0x1b2c
 2219 0150 08       		.uleb128 0x8
 2220 0151 56010000 		.4byte	.LVL51
 2221 0155 211B0000 		.4byte	0x1b21
 2222 0159 09       		.uleb128 0x9
 2223 015a 01       		.uleb128 0x1
 2224 015b 50       		.byte	0x50
 2225 015c 03       		.uleb128 0x3
 2226 015d 0A       		.byte	0xa
 2227 015e F401     		.2byte	0x1f4
 2228 0160 00       		.byte	0
 2229 0161 00       		.byte	0
 2230 0162 0C       		.uleb128 0xc
 2231 0163 62010000 		.4byte	.LBB4
 2232 0167 22000000 		.4byte	.LBE4-.LBB4
 2233 016b AB010000 		.4byte	0x1ab
 2234 016f 0E       		.uleb128 0xe
 2235 0170 6900     		.ascii	"i\000"
ARM GAS  C:\Users\Misha\AppData\Local\Temp\ccVSruQj.s 			page 61


 2236 0172 01       		.byte	0x1
 2237 0173 8D01     		.2byte	0x18d
 2238 0175 68000000 		.4byte	0x68
 2239 0179 3E000000 		.4byte	.LLST2
 2240 017d 0F       		.uleb128 0xf
 2241 017e 78010000 		.4byte	.LVL56
 2242 0182 371B0000 		.4byte	0x1b37
 2243 0186 9A010000 		.4byte	0x19a
 2244 018a 09       		.uleb128 0x9
 2245 018b 01       		.uleb128 0x1
 2246 018c 50       		.byte	0x50
 2247 018d 02       		.uleb128 0x2
 2248 018e 75       		.byte	0x75
 2249 018f 00       		.sleb128 0
 2250 0190 09       		.uleb128 0x9
 2251 0191 01       		.uleb128 0x1
 2252 0192 51       		.byte	0x51
 2253 0193 05       		.uleb128 0x5
 2254 0194 03       		.byte	0x3
 2255 0195 4C000000 		.4byte	.LC3
 2256 0199 00       		.byte	0
 2257 019a 08       		.uleb128 0x8
 2258 019b 7E010000 		.4byte	.LVL57
 2259 019f 421B0000 		.4byte	0x1b42
 2260 01a3 09       		.uleb128 0x9
 2261 01a4 01       		.uleb128 0x1
 2262 01a5 50       		.byte	0x50
 2263 01a6 02       		.uleb128 0x2
 2264 01a7 75       		.byte	0x75
 2265 01a8 00       		.sleb128 0
 2266 01a9 00       		.byte	0
 2267 01aa 00       		.byte	0
 2268 01ab 10       		.uleb128 0x10
 2269 01ac 00000000 		.4byte	.Ldebug_ranges0+0
 2270 01b0 C5010000 		.4byte	0x1c5
 2271 01b4 0D       		.uleb128 0xd
 2272 01b5 10010000 		.4byte	.LASF19
 2273 01b9 01       		.byte	0x1
 2274 01ba 9B01     		.2byte	0x19b
 2275 01bc 68000000 		.4byte	0x68
 2276 01c0 5D000000 		.4byte	.LLST3
 2277 01c4 00       		.byte	0
 2278 01c5 06       		.uleb128 0x6
 2279 01c6 1E010000 		.4byte	.LVL45
 2280 01ca 4D1B0000 		.4byte	0x1b4d
 2281 01ce 0F       		.uleb128 0xf
 2282 01cf 34010000 		.4byte	.LVL46
 2283 01d3 581B0000 		.4byte	0x1b58
 2284 01d7 FE010000 		.4byte	0x1fe
 2285 01db 09       		.uleb128 0x9
 2286 01dc 01       		.uleb128 0x1
 2287 01dd 50       		.byte	0x50
 2288 01de 02       		.uleb128 0x2
 2289 01df 09       		.byte	0x9
 2290 01e0 9C       		.byte	0x9c
 2291 01e1 09       		.uleb128 0x9
 2292 01e2 01       		.uleb128 0x1
ARM GAS  C:\Users\Misha\AppData\Local\Temp\ccVSruQj.s 			page 62


 2293 01e3 51       		.byte	0x51
 2294 01e4 01       		.uleb128 0x1
 2295 01e5 30       		.byte	0x30
 2296 01e6 09       		.uleb128 0x9
 2297 01e7 01       		.uleb128 0x1
 2298 01e8 52       		.byte	0x52
 2299 01e9 01       		.uleb128 0x1
 2300 01ea 34       		.byte	0x34
 2301 01eb 09       		.uleb128 0x9
 2302 01ec 01       		.uleb128 0x1
 2303 01ed 53       		.byte	0x53
 2304 01ee 01       		.uleb128 0x1
 2305 01ef 34       		.byte	0x34
 2306 01f0 09       		.uleb128 0x9
 2307 01f1 02       		.uleb128 0x2
 2308 01f2 7D       		.byte	0x7d
 2309 01f3 00       		.sleb128 0
 2310 01f4 02       		.uleb128 0x2
 2311 01f5 08       		.byte	0x8
 2312 01f6 AA       		.byte	0xaa
 2313 01f7 09       		.uleb128 0x9
 2314 01f8 02       		.uleb128 0x2
 2315 01f9 7D       		.byte	0x7d
 2316 01fa 04       		.sleb128 4
 2317 01fb 01       		.uleb128 0x1
 2318 01fc 31       		.byte	0x31
 2319 01fd 00       		.byte	0
 2320 01fe 06       		.uleb128 0x6
 2321 01ff 38010000 		.4byte	.LVL47
 2322 0203 631B0000 		.4byte	0x1b63
 2323 0207 0F       		.uleb128 0xf
 2324 0208 62010000 		.4byte	.LVL53
 2325 020c 421B0000 		.4byte	0x1b42
 2326 0210 1E020000 		.4byte	0x21e
 2327 0214 09       		.uleb128 0x9
 2328 0215 01       		.uleb128 0x1
 2329 0216 50       		.byte	0x50
 2330 0217 05       		.uleb128 0x5
 2331 0218 03       		.byte	0x3
 2332 0219 38000000 		.4byte	.LC2
 2333 021d 00       		.byte	0
 2334 021e 08       		.uleb128 0x8
 2335 021f 8A010000 		.4byte	.LVL59
 2336 0223 6E1B0000 		.4byte	0x1b6e
 2337 0227 09       		.uleb128 0x9
 2338 0228 01       		.uleb128 0x1
 2339 0229 50       		.byte	0x50
 2340 022a 01       		.uleb128 0x1
 2341 022b 31       		.byte	0x31
 2342 022c 00       		.byte	0
 2343 022d 00       		.byte	0
 2344 022e 0C       		.uleb128 0xc
 2345 022f C4010000 		.4byte	.LBB7
 2346 0233 0E030000 		.4byte	.LBE7-.LBB7
 2347 0237 16080000 		.4byte	0x816
 2348 023b 0D       		.uleb128 0xd
 2349 023c 43060000 		.4byte	.LASF20
ARM GAS  C:\Users\Misha\AppData\Local\Temp\ccVSruQj.s 			page 63


 2350 0240 01       		.byte	0x1
 2351 0241 D201     		.2byte	0x1d2
 2352 0243 68000000 		.4byte	0x68
 2353 0247 7C000000 		.4byte	.LLST4
 2354 024b 0D       		.uleb128 0xd
 2355 024c 36010000 		.4byte	.LASF21
 2356 0250 01       		.byte	0x1
 2357 0251 5D02     		.2byte	0x25d
 2358 0253 68000000 		.4byte	0x68
 2359 0257 8F000000 		.4byte	.LLST5
 2360 025b 0F       		.uleb128 0xf
 2361 025c D2010000 		.4byte	.LVL67
 2362 0260 791B0000 		.4byte	0x1b79
 2363 0264 7F020000 		.4byte	0x27f
 2364 0268 09       		.uleb128 0x9
 2365 0269 01       		.uleb128 0x1
 2366 026a 50       		.byte	0x50
 2367 026b 01       		.uleb128 0x1
 2368 026c 49       		.byte	0x49
 2369 026d 09       		.uleb128 0x9
 2370 026e 01       		.uleb128 0x1
 2371 026f 51       		.byte	0x51
 2372 0270 02       		.uleb128 0x2
 2373 0271 09       		.byte	0x9
 2374 0272 DD       		.byte	0xdd
 2375 0273 09       		.uleb128 0x9
 2376 0274 01       		.uleb128 0x1
 2377 0275 52       		.byte	0x52
 2378 0276 02       		.uleb128 0x2
 2379 0277 08       		.byte	0x8
 2380 0278 64       		.byte	0x64
 2381 0279 09       		.uleb128 0x9
 2382 027a 01       		.uleb128 0x1
 2383 027b 53       		.byte	0x53
 2384 027c 01       		.uleb128 0x1
 2385 027d 30       		.byte	0x30
 2386 027e 00       		.byte	0
 2387 027f 06       		.uleb128 0x6
 2388 0280 D6010000 		.4byte	.LVL68
 2389 0284 4D1B0000 		.4byte	0x1b4d
 2390 0288 0F       		.uleb128 0xf
 2391 0289 E8010000 		.4byte	.LVL69
 2392 028d 581B0000 		.4byte	0x1b58
 2393 0291 B8020000 		.4byte	0x2b8
 2394 0295 09       		.uleb128 0x9
 2395 0296 01       		.uleb128 0x1
 2396 0297 50       		.byte	0x50
 2397 0298 02       		.uleb128 0x2
 2398 0299 08       		.byte	0x8
 2399 029a 82       		.byte	0x82
 2400 029b 09       		.uleb128 0x9
 2401 029c 01       		.uleb128 0x1
 2402 029d 51       		.byte	0x51
 2403 029e 01       		.uleb128 0x1
 2404 029f 31       		.byte	0x31
 2405 02a0 09       		.uleb128 0x9
 2406 02a1 01       		.uleb128 0x1
ARM GAS  C:\Users\Misha\AppData\Local\Temp\ccVSruQj.s 			page 64


 2407 02a2 52       		.byte	0x52
 2408 02a3 01       		.uleb128 0x1
 2409 02a4 34       		.byte	0x34
 2410 02a5 09       		.uleb128 0x9
 2411 02a6 01       		.uleb128 0x1
 2412 02a7 53       		.byte	0x53
 2413 02a8 01       		.uleb128 0x1
 2414 02a9 30       		.byte	0x30
 2415 02aa 09       		.uleb128 0x9
 2416 02ab 02       		.uleb128 0x2
 2417 02ac 7D       		.byte	0x7d
 2418 02ad 00       		.sleb128 0
 2419 02ae 02       		.uleb128 0x2
 2420 02af 08       		.byte	0x8
 2421 02b0 AA       		.byte	0xaa
 2422 02b1 09       		.uleb128 0x9
 2423 02b2 02       		.uleb128 0x2
 2424 02b3 7D       		.byte	0x7d
 2425 02b4 04       		.sleb128 4
 2426 02b5 01       		.uleb128 0x1
 2427 02b6 31       		.byte	0x31
 2428 02b7 00       		.byte	0
 2429 02b8 06       		.uleb128 0x6
 2430 02b9 EC010000 		.4byte	.LVL70
 2431 02bd 4D1B0000 		.4byte	0x1b4d
 2432 02c1 0F       		.uleb128 0xf
 2433 02c2 F2010000 		.4byte	.LVL71
 2434 02c6 841B0000 		.4byte	0x1b84
 2435 02ca D4020000 		.4byte	0x2d4
 2436 02ce 09       		.uleb128 0x9
 2437 02cf 01       		.uleb128 0x1
 2438 02d0 50       		.byte	0x50
 2439 02d1 01       		.uleb128 0x1
 2440 02d2 32       		.byte	0x32
 2441 02d3 00       		.byte	0
 2442 02d4 0F       		.uleb128 0xf
 2443 02d5 FA010000 		.4byte	.LVL72
 2444 02d9 841B0000 		.4byte	0x1b84
 2445 02dd E7020000 		.4byte	0x2e7
 2446 02e1 09       		.uleb128 0x9
 2447 02e2 01       		.uleb128 0x1
 2448 02e3 50       		.byte	0x50
 2449 02e4 01       		.uleb128 0x1
 2450 02e5 32       		.byte	0x32
 2451 02e6 00       		.byte	0
 2452 02e7 0F       		.uleb128 0xf
 2453 02e8 16020000 		.4byte	.LVL74
 2454 02ec 371B0000 		.4byte	0x1b37
 2455 02f0 0A030000 		.4byte	0x30a
 2456 02f4 09       		.uleb128 0x9
 2457 02f5 01       		.uleb128 0x1
 2458 02f6 50       		.byte	0x50
 2459 02f7 02       		.uleb128 0x2
 2460 02f8 75       		.byte	0x75
 2461 02f9 00       		.sleb128 0
 2462 02fa 09       		.uleb128 0x9
 2463 02fb 01       		.uleb128 0x1
ARM GAS  C:\Users\Misha\AppData\Local\Temp\ccVSruQj.s 			page 65


 2464 02fc 51       		.byte	0x51
 2465 02fd 05       		.uleb128 0x5
 2466 02fe 03       		.byte	0x3
 2467 02ff 54000000 		.4byte	.LC4
 2468 0303 09       		.uleb128 0x9
 2469 0304 01       		.uleb128 0x1
 2470 0305 52       		.byte	0x52
 2471 0306 02       		.uleb128 0x2
 2472 0307 74       		.byte	0x74
 2473 0308 00       		.sleb128 0
 2474 0309 00       		.byte	0
 2475 030a 0F       		.uleb128 0xf
 2476 030b 1C020000 		.4byte	.LVL75
 2477 030f 421B0000 		.4byte	0x1b42
 2478 0313 1E030000 		.4byte	0x31e
 2479 0317 09       		.uleb128 0x9
 2480 0318 01       		.uleb128 0x1
 2481 0319 50       		.byte	0x50
 2482 031a 02       		.uleb128 0x2
 2483 031b 75       		.byte	0x75
 2484 031c 00       		.sleb128 0
 2485 031d 00       		.byte	0
 2486 031e 0F       		.uleb128 0xf
 2487 031f 30020000 		.4byte	.LVL76
 2488 0323 581B0000 		.4byte	0x1b58
 2489 0327 4E030000 		.4byte	0x34e
 2490 032b 09       		.uleb128 0x9
 2491 032c 01       		.uleb128 0x1
 2492 032d 50       		.byte	0x50
 2493 032e 02       		.uleb128 0x2
 2494 032f 74       		.byte	0x74
 2495 0330 00       		.sleb128 0
 2496 0331 09       		.uleb128 0x9
 2497 0332 01       		.uleb128 0x1
 2498 0333 51       		.byte	0x51
 2499 0334 01       		.uleb128 0x1
 2500 0335 30       		.byte	0x30
 2501 0336 09       		.uleb128 0x9
 2502 0337 01       		.uleb128 0x1
 2503 0338 52       		.byte	0x52
 2504 0339 01       		.uleb128 0x1
 2505 033a 34       		.byte	0x34
 2506 033b 09       		.uleb128 0x9
 2507 033c 01       		.uleb128 0x1
 2508 033d 53       		.byte	0x53
 2509 033e 01       		.uleb128 0x1
 2510 033f 33       		.byte	0x33
 2511 0340 09       		.uleb128 0x9
 2512 0341 02       		.uleb128 0x2
 2513 0342 7D       		.byte	0x7d
 2514 0343 00       		.sleb128 0
 2515 0344 02       		.uleb128 0x2
 2516 0345 08       		.byte	0x8
 2517 0346 AA       		.byte	0xaa
 2518 0347 09       		.uleb128 0x9
 2519 0348 02       		.uleb128 0x2
 2520 0349 7D       		.byte	0x7d
ARM GAS  C:\Users\Misha\AppData\Local\Temp\ccVSruQj.s 			page 66


 2521 034a 04       		.sleb128 4
 2522 034b 01       		.uleb128 0x1
 2523 034c 31       		.byte	0x31
 2524 034d 00       		.byte	0
 2525 034e 0F       		.uleb128 0xf
 2526 034f 3A020000 		.4byte	.LVL77
 2527 0353 8F1B0000 		.4byte	0x1b8f
 2528 0357 68030000 		.4byte	0x368
 2529 035b 09       		.uleb128 0x9
 2530 035c 01       		.uleb128 0x1
 2531 035d 50       		.byte	0x50
 2532 035e 01       		.uleb128 0x1
 2533 035f 32       		.byte	0x32
 2534 0360 09       		.uleb128 0x9
 2535 0361 01       		.uleb128 0x1
 2536 0362 51       		.byte	0x51
 2537 0363 03       		.uleb128 0x3
 2538 0364 0A       		.byte	0xa
 2539 0365 E803     		.2byte	0x3e8
 2540 0367 00       		.byte	0
 2541 0368 06       		.uleb128 0x6
 2542 0369 3E020000 		.4byte	.LVL78
 2543 036d 4D1B0000 		.4byte	0x1b4d
 2544 0371 0F       		.uleb128 0xf
 2545 0372 44020000 		.4byte	.LVL79
 2546 0376 841B0000 		.4byte	0x1b84
 2547 037a 84030000 		.4byte	0x384
 2548 037e 09       		.uleb128 0x9
 2549 037f 01       		.uleb128 0x1
 2550 0380 50       		.byte	0x50
 2551 0381 01       		.uleb128 0x1
 2552 0382 30       		.byte	0x30
 2553 0383 00       		.byte	0
 2554 0384 0F       		.uleb128 0xf
 2555 0385 4A020000 		.4byte	.LVL80
 2556 0389 211B0000 		.4byte	0x1b21
 2557 038d 98030000 		.4byte	0x398
 2558 0391 09       		.uleb128 0x9
 2559 0392 01       		.uleb128 0x1
 2560 0393 50       		.byte	0x50
 2561 0394 02       		.uleb128 0x2
 2562 0395 08       		.byte	0x8
 2563 0396 3C       		.byte	0x3c
 2564 0397 00       		.byte	0
 2565 0398 0F       		.uleb128 0xf
 2566 0399 5A020000 		.4byte	.LVL81
 2567 039d 841B0000 		.4byte	0x1b84
 2568 03a1 AB030000 		.4byte	0x3ab
 2569 03a5 09       		.uleb128 0x9
 2570 03a6 01       		.uleb128 0x1
 2571 03a7 50       		.byte	0x50
 2572 03a8 01       		.uleb128 0x1
 2573 03a9 33       		.byte	0x33
 2574 03aa 00       		.byte	0
 2575 03ab 0F       		.uleb128 0xf
 2576 03ac 60020000 		.4byte	.LVL82
 2577 03b0 211B0000 		.4byte	0x1b21
ARM GAS  C:\Users\Misha\AppData\Local\Temp\ccVSruQj.s 			page 67


 2578 03b4 BF030000 		.4byte	0x3bf
 2579 03b8 09       		.uleb128 0x9
 2580 03b9 01       		.uleb128 0x1
 2581 03ba 50       		.byte	0x50
 2582 03bb 02       		.uleb128 0x2
 2583 03bc 08       		.byte	0x8
 2584 03bd 3C       		.byte	0x3c
 2585 03be 00       		.byte	0
 2586 03bf 0F       		.uleb128 0xf
 2587 03c0 66020000 		.4byte	.LVL83
 2588 03c4 841B0000 		.4byte	0x1b84
 2589 03c8 D2030000 		.4byte	0x3d2
 2590 03cc 09       		.uleb128 0x9
 2591 03cd 01       		.uleb128 0x1
 2592 03ce 50       		.byte	0x50
 2593 03cf 01       		.uleb128 0x1
 2594 03d0 32       		.byte	0x32
 2595 03d1 00       		.byte	0
 2596 03d2 0F       		.uleb128 0xf
 2597 03d3 6C020000 		.4byte	.LVL84
 2598 03d7 211B0000 		.4byte	0x1b21
 2599 03db E6030000 		.4byte	0x3e6
 2600 03df 09       		.uleb128 0x9
 2601 03e0 01       		.uleb128 0x1
 2602 03e1 50       		.byte	0x50
 2603 03e2 02       		.uleb128 0x2
 2604 03e3 08       		.byte	0x8
 2605 03e4 3C       		.byte	0x3c
 2606 03e5 00       		.byte	0
 2607 03e6 0F       		.uleb128 0xf
 2608 03e7 88020000 		.4byte	.LVL85
 2609 03eb 9A1B0000 		.4byte	0x1b9a
 2610 03ef 05040000 		.4byte	0x405
 2611 03f3 09       		.uleb128 0x9
 2612 03f4 01       		.uleb128 0x1
 2613 03f5 50       		.byte	0x50
 2614 03f6 02       		.uleb128 0x2
 2615 03f7 09       		.byte	0x9
 2616 03f8 D3       		.byte	0xd3
 2617 03f9 09       		.uleb128 0x9
 2618 03fa 01       		.uleb128 0x1
 2619 03fb 51       		.byte	0x51
 2620 03fc 02       		.uleb128 0x2
 2621 03fd 08       		.byte	0x8
 2622 03fe AA       		.byte	0xaa
 2623 03ff 09       		.uleb128 0x9
 2624 0400 01       		.uleb128 0x1
 2625 0401 52       		.byte	0x52
 2626 0402 01       		.uleb128 0x1
 2627 0403 31       		.byte	0x31
 2628 0404 00       		.byte	0
 2629 0405 0F       		.uleb128 0xf
 2630 0406 8E020000 		.4byte	.LVL86
 2631 040a 841B0000 		.4byte	0x1b84
 2632 040e 18040000 		.4byte	0x418
 2633 0412 09       		.uleb128 0x9
 2634 0413 01       		.uleb128 0x1
ARM GAS  C:\Users\Misha\AppData\Local\Temp\ccVSruQj.s 			page 68


 2635 0414 50       		.byte	0x50
 2636 0415 01       		.uleb128 0x1
 2637 0416 33       		.byte	0x33
 2638 0417 00       		.byte	0
 2639 0418 0F       		.uleb128 0xf
 2640 0419 94020000 		.4byte	.LVL87
 2641 041d 211B0000 		.4byte	0x1b21
 2642 0421 2C040000 		.4byte	0x42c
 2643 0425 09       		.uleb128 0x9
 2644 0426 01       		.uleb128 0x1
 2645 0427 50       		.byte	0x50
 2646 0428 02       		.uleb128 0x2
 2647 0429 08       		.byte	0x8
 2648 042a 3C       		.byte	0x3c
 2649 042b 00       		.byte	0
 2650 042c 0F       		.uleb128 0xf
 2651 042d 9A020000 		.4byte	.LVL88
 2652 0431 841B0000 		.4byte	0x1b84
 2653 0435 3F040000 		.4byte	0x43f
 2654 0439 09       		.uleb128 0x9
 2655 043a 01       		.uleb128 0x1
 2656 043b 50       		.byte	0x50
 2657 043c 01       		.uleb128 0x1
 2658 043d 32       		.byte	0x32
 2659 043e 00       		.byte	0
 2660 043f 0F       		.uleb128 0xf
 2661 0440 A0020000 		.4byte	.LVL89
 2662 0444 211B0000 		.4byte	0x1b21
 2663 0448 53040000 		.4byte	0x453
 2664 044c 09       		.uleb128 0x9
 2665 044d 01       		.uleb128 0x1
 2666 044e 50       		.byte	0x50
 2667 044f 02       		.uleb128 0x2
 2668 0450 08       		.byte	0x8
 2669 0451 3C       		.byte	0x3c
 2670 0452 00       		.byte	0
 2671 0453 0F       		.uleb128 0xf
 2672 0454 C0020000 		.4byte	.LVL90
 2673 0458 581B0000 		.4byte	0x1b58
 2674 045c 83040000 		.4byte	0x483
 2675 0460 09       		.uleb128 0x9
 2676 0461 01       		.uleb128 0x1
 2677 0462 50       		.byte	0x50
 2678 0463 02       		.uleb128 0x2
 2679 0464 74       		.byte	0x74
 2680 0465 00       		.sleb128 0
 2681 0466 09       		.uleb128 0x9
 2682 0467 01       		.uleb128 0x1
 2683 0468 51       		.byte	0x51
 2684 0469 01       		.uleb128 0x1
 2685 046a 30       		.byte	0x30
 2686 046b 09       		.uleb128 0x9
 2687 046c 01       		.uleb128 0x1
 2688 046d 52       		.byte	0x52
 2689 046e 01       		.uleb128 0x1
 2690 046f 35       		.byte	0x35
 2691 0470 09       		.uleb128 0x9
ARM GAS  C:\Users\Misha\AppData\Local\Temp\ccVSruQj.s 			page 69


 2692 0471 01       		.uleb128 0x1
 2693 0472 53       		.byte	0x53
 2694 0473 01       		.uleb128 0x1
 2695 0474 33       		.byte	0x33
 2696 0475 09       		.uleb128 0x9
 2697 0476 02       		.uleb128 0x2
 2698 0477 7D       		.byte	0x7d
 2699 0478 00       		.sleb128 0
 2700 0479 02       		.uleb128 0x2
 2701 047a 08       		.byte	0x8
 2702 047b AA       		.byte	0xaa
 2703 047c 09       		.uleb128 0x9
 2704 047d 02       		.uleb128 0x2
 2705 047e 7D       		.byte	0x7d
 2706 047f 04       		.sleb128 4
 2707 0480 01       		.uleb128 0x1
 2708 0481 31       		.byte	0x31
 2709 0482 00       		.byte	0
 2710 0483 0F       		.uleb128 0xf
 2711 0484 CA020000 		.4byte	.LVL91
 2712 0488 8F1B0000 		.4byte	0x1b8f
 2713 048c 9D040000 		.4byte	0x49d
 2714 0490 09       		.uleb128 0x9
 2715 0491 01       		.uleb128 0x1
 2716 0492 50       		.byte	0x50
 2717 0493 01       		.uleb128 0x1
 2718 0494 32       		.byte	0x32
 2719 0495 09       		.uleb128 0x9
 2720 0496 01       		.uleb128 0x1
 2721 0497 51       		.byte	0x51
 2722 0498 03       		.uleb128 0x3
 2723 0499 0A       		.byte	0xa
 2724 049a E803     		.2byte	0x3e8
 2725 049c 00       		.byte	0
 2726 049d 0F       		.uleb128 0xf
 2727 049e 36030000 		.4byte	.LVL93
 2728 04a2 371B0000 		.4byte	0x1b37
 2729 04a6 BA040000 		.4byte	0x4ba
 2730 04aa 09       		.uleb128 0x9
 2731 04ab 01       		.uleb128 0x1
 2732 04ac 50       		.byte	0x50
 2733 04ad 02       		.uleb128 0x2
 2734 04ae 74       		.byte	0x74
 2735 04af 00       		.sleb128 0
 2736 04b0 09       		.uleb128 0x9
 2737 04b1 01       		.uleb128 0x1
 2738 04b2 51       		.byte	0x51
 2739 04b3 05       		.uleb128 0x5
 2740 04b4 03       		.byte	0x3
 2741 04b5 78000000 		.4byte	.LC5
 2742 04b9 00       		.byte	0
 2743 04ba 0F       		.uleb128 0xf
 2744 04bb 3C030000 		.4byte	.LVL94
 2745 04bf 421B0000 		.4byte	0x1b42
 2746 04c3 CE040000 		.4byte	0x4ce
 2747 04c7 09       		.uleb128 0x9
 2748 04c8 01       		.uleb128 0x1
ARM GAS  C:\Users\Misha\AppData\Local\Temp\ccVSruQj.s 			page 70


 2749 04c9 50       		.byte	0x50
 2750 04ca 02       		.uleb128 0x2
 2751 04cb 74       		.byte	0x74
 2752 04cc 00       		.sleb128 0
 2753 04cd 00       		.byte	0
 2754 04ce 0F       		.uleb128 0xf
 2755 04cf 46030000 		.4byte	.LVL95
 2756 04d3 371B0000 		.4byte	0x1b37
 2757 04d7 EB040000 		.4byte	0x4eb
 2758 04db 09       		.uleb128 0x9
 2759 04dc 01       		.uleb128 0x1
 2760 04dd 50       		.byte	0x50
 2761 04de 02       		.uleb128 0x2
 2762 04df 74       		.byte	0x74
 2763 04e0 00       		.sleb128 0
 2764 04e1 09       		.uleb128 0x9
 2765 04e2 01       		.uleb128 0x1
 2766 04e3 51       		.byte	0x51
 2767 04e4 05       		.uleb128 0x5
 2768 04e5 03       		.byte	0x3
 2769 04e6 88000000 		.4byte	.LC6
 2770 04ea 00       		.byte	0
 2771 04eb 0F       		.uleb128 0xf
 2772 04ec 4C030000 		.4byte	.LVL96
 2773 04f0 421B0000 		.4byte	0x1b42
 2774 04f4 FF040000 		.4byte	0x4ff
 2775 04f8 09       		.uleb128 0x9
 2776 04f9 01       		.uleb128 0x1
 2777 04fa 50       		.byte	0x50
 2778 04fb 02       		.uleb128 0x2
 2779 04fc 74       		.byte	0x74
 2780 04fd 00       		.sleb128 0
 2781 04fe 00       		.byte	0
 2782 04ff 0F       		.uleb128 0xf
 2783 0500 56030000 		.4byte	.LVL97
 2784 0504 371B0000 		.4byte	0x1b37
 2785 0508 1C050000 		.4byte	0x51c
 2786 050c 09       		.uleb128 0x9
 2787 050d 01       		.uleb128 0x1
 2788 050e 50       		.byte	0x50
 2789 050f 02       		.uleb128 0x2
 2790 0510 74       		.byte	0x74
 2791 0511 00       		.sleb128 0
 2792 0512 09       		.uleb128 0x9
 2793 0513 01       		.uleb128 0x1
 2794 0514 51       		.byte	0x51
 2795 0515 05       		.uleb128 0x5
 2796 0516 03       		.byte	0x3
 2797 0517 94000000 		.4byte	.LC7
 2798 051b 00       		.byte	0
 2799 051c 0F       		.uleb128 0xf
 2800 051d 5C030000 		.4byte	.LVL98
 2801 0521 421B0000 		.4byte	0x1b42
 2802 0525 30050000 		.4byte	0x530
 2803 0529 09       		.uleb128 0x9
 2804 052a 01       		.uleb128 0x1
 2805 052b 50       		.byte	0x50
ARM GAS  C:\Users\Misha\AppData\Local\Temp\ccVSruQj.s 			page 71


 2806 052c 02       		.uleb128 0x2
 2807 052d 74       		.byte	0x74
 2808 052e 00       		.sleb128 0
 2809 052f 00       		.byte	0
 2810 0530 0F       		.uleb128 0xf
 2811 0531 66030000 		.4byte	.LVL99
 2812 0535 371B0000 		.4byte	0x1b37
 2813 0539 4D050000 		.4byte	0x54d
 2814 053d 09       		.uleb128 0x9
 2815 053e 01       		.uleb128 0x1
 2816 053f 50       		.byte	0x50
 2817 0540 02       		.uleb128 0x2
 2818 0541 74       		.byte	0x74
 2819 0542 00       		.sleb128 0
 2820 0543 09       		.uleb128 0x9
 2821 0544 01       		.uleb128 0x1
 2822 0545 51       		.byte	0x51
 2823 0546 05       		.uleb128 0x5
 2824 0547 03       		.byte	0x3
 2825 0548 A4000000 		.4byte	.LC8
 2826 054c 00       		.byte	0
 2827 054d 0F       		.uleb128 0xf
 2828 054e 6C030000 		.4byte	.LVL100
 2829 0552 421B0000 		.4byte	0x1b42
 2830 0556 61050000 		.4byte	0x561
 2831 055a 09       		.uleb128 0x9
 2832 055b 01       		.uleb128 0x1
 2833 055c 50       		.byte	0x50
 2834 055d 02       		.uleb128 0x2
 2835 055e 74       		.byte	0x74
 2836 055f 00       		.sleb128 0
 2837 0560 00       		.byte	0
 2838 0561 0F       		.uleb128 0xf
 2839 0562 74030000 		.4byte	.LVL101
 2840 0566 A51B0000 		.4byte	0x1ba5
 2841 056a 7A050000 		.4byte	0x57a
 2842 056e 09       		.uleb128 0x9
 2843 056f 01       		.uleb128 0x1
 2844 0570 50       		.byte	0x50
 2845 0571 01       		.uleb128 0x1
 2846 0572 31       		.byte	0x31
 2847 0573 09       		.uleb128 0x9
 2848 0574 01       		.uleb128 0x1
 2849 0575 51       		.byte	0x51
 2850 0576 02       		.uleb128 0x2
 2851 0577 08       		.byte	0x8
 2852 0578 AA       		.byte	0xaa
 2853 0579 00       		.byte	0
 2854 057a 0F       		.uleb128 0xf
 2855 057b 8C030000 		.4byte	.LVL102
 2856 057f 581B0000 		.4byte	0x1b58
 2857 0583 AC050000 		.4byte	0x5ac
 2858 0587 09       		.uleb128 0x9
 2859 0588 01       		.uleb128 0x1
 2860 0589 50       		.byte	0x50
 2861 058a 02       		.uleb128 0x2
 2862 058b 08       		.byte	0x8
ARM GAS  C:\Users\Misha\AppData\Local\Temp\ccVSruQj.s 			page 72


 2863 058c C8       		.byte	0xc8
 2864 058d 09       		.uleb128 0x9
 2865 058e 01       		.uleb128 0x1
 2866 058f 51       		.byte	0x51
 2867 0590 02       		.uleb128 0x2
 2868 0591 76       		.byte	0x76
 2869 0592 00       		.sleb128 0
 2870 0593 09       		.uleb128 0x9
 2871 0594 01       		.uleb128 0x1
 2872 0595 52       		.byte	0x52
 2873 0596 01       		.uleb128 0x1
 2874 0597 34       		.byte	0x34
 2875 0598 09       		.uleb128 0x9
 2876 0599 01       		.uleb128 0x1
 2877 059a 53       		.byte	0x53
 2878 059b 01       		.uleb128 0x1
 2879 059c 30       		.byte	0x30
 2880 059d 09       		.uleb128 0x9
 2881 059e 02       		.uleb128 0x2
 2882 059f 7D       		.byte	0x7d
 2883 05a0 00       		.sleb128 0
 2884 05a1 02       		.uleb128 0x2
 2885 05a2 78       		.byte	0x78
 2886 05a3 00       		.sleb128 0
 2887 05a4 09       		.uleb128 0x9
 2888 05a5 02       		.uleb128 0x2
 2889 05a6 7D       		.byte	0x7d
 2890 05a7 04       		.sleb128 4
 2891 05a8 02       		.uleb128 0x2
 2892 05a9 76       		.byte	0x76
 2893 05aa 00       		.sleb128 0
 2894 05ab 00       		.byte	0
 2895 05ac 06       		.uleb128 0x6
 2896 05ad 90030000 		.4byte	.LVL103
 2897 05b1 4D1B0000 		.4byte	0x1b4d
 2898 05b5 0F       		.uleb128 0xf
 2899 05b6 96030000 		.4byte	.LVL104
 2900 05ba 841B0000 		.4byte	0x1b84
 2901 05be C8050000 		.4byte	0x5c8
 2902 05c2 09       		.uleb128 0x9
 2903 05c3 01       		.uleb128 0x1
 2904 05c4 50       		.byte	0x50
 2905 05c5 01       		.uleb128 0x1
 2906 05c6 33       		.byte	0x33
 2907 05c7 00       		.byte	0
 2908 05c8 0F       		.uleb128 0xf
 2909 05c9 9C030000 		.4byte	.LVL105
 2910 05cd 211B0000 		.4byte	0x1b21
 2911 05d1 DC050000 		.4byte	0x5dc
 2912 05d5 09       		.uleb128 0x9
 2913 05d6 01       		.uleb128 0x1
 2914 05d7 50       		.byte	0x50
 2915 05d8 02       		.uleb128 0x2
 2916 05d9 08       		.byte	0x8
 2917 05da 32       		.byte	0x32
 2918 05db 00       		.byte	0
 2919 05dc 0F       		.uleb128 0xf
ARM GAS  C:\Users\Misha\AppData\Local\Temp\ccVSruQj.s 			page 73


 2920 05dd A8030000 		.4byte	.LVL106
 2921 05e1 371B0000 		.4byte	0x1b37
 2922 05e5 F9050000 		.4byte	0x5f9
 2923 05e9 09       		.uleb128 0x9
 2924 05ea 01       		.uleb128 0x1
 2925 05eb 50       		.byte	0x50
 2926 05ec 02       		.uleb128 0x2
 2927 05ed 74       		.byte	0x74
 2928 05ee 00       		.sleb128 0
 2929 05ef 09       		.uleb128 0x9
 2930 05f0 01       		.uleb128 0x1
 2931 05f1 51       		.byte	0x51
 2932 05f2 05       		.uleb128 0x5
 2933 05f3 03       		.byte	0x3
 2934 05f4 B0000000 		.4byte	.LC9
 2935 05f8 00       		.byte	0
 2936 05f9 0F       		.uleb128 0xf
 2937 05fa AE030000 		.4byte	.LVL107
 2938 05fe 421B0000 		.4byte	0x1b42
 2939 0602 0D060000 		.4byte	0x60d
 2940 0606 09       		.uleb128 0x9
 2941 0607 01       		.uleb128 0x1
 2942 0608 50       		.byte	0x50
 2943 0609 02       		.uleb128 0x2
 2944 060a 74       		.byte	0x74
 2945 060b 00       		.sleb128 0
 2946 060c 00       		.byte	0
 2947 060d 0F       		.uleb128 0xf
 2948 060e BA030000 		.4byte	.LVL108
 2949 0612 371B0000 		.4byte	0x1b37
 2950 0616 31060000 		.4byte	0x631
 2951 061a 09       		.uleb128 0x9
 2952 061b 01       		.uleb128 0x1
 2953 061c 50       		.byte	0x50
 2954 061d 02       		.uleb128 0x2
 2955 061e 74       		.byte	0x74
 2956 061f 00       		.sleb128 0
 2957 0620 09       		.uleb128 0x9
 2958 0621 01       		.uleb128 0x1
 2959 0622 51       		.byte	0x51
 2960 0623 05       		.uleb128 0x5
 2961 0624 03       		.byte	0x3
 2962 0625 B8000000 		.4byte	.LC10
 2963 0629 09       		.uleb128 0x9
 2964 062a 01       		.uleb128 0x1
 2965 062b 52       		.byte	0x52
 2966 062c 03       		.uleb128 0x3
 2967 062d 0A       		.byte	0xa
 2968 062e EE02     		.2byte	0x2ee
 2969 0630 00       		.byte	0
 2970 0631 0F       		.uleb128 0xf
 2971 0632 C0030000 		.4byte	.LVL109
 2972 0636 421B0000 		.4byte	0x1b42
 2973 063a 45060000 		.4byte	0x645
 2974 063e 09       		.uleb128 0x9
 2975 063f 01       		.uleb128 0x1
 2976 0640 50       		.byte	0x50
ARM GAS  C:\Users\Misha\AppData\Local\Temp\ccVSruQj.s 			page 74


 2977 0641 02       		.uleb128 0x2
 2978 0642 74       		.byte	0x74
 2979 0643 00       		.sleb128 0
 2980 0644 00       		.byte	0
 2981 0645 0F       		.uleb128 0xf
 2982 0646 D4030000 		.4byte	.LVL110
 2983 064a 581B0000 		.4byte	0x1b58
 2984 064e 77060000 		.4byte	0x677
 2985 0652 09       		.uleb128 0x9
 2986 0653 01       		.uleb128 0x1
 2987 0654 50       		.byte	0x50
 2988 0655 03       		.uleb128 0x3
 2989 0656 0A       		.byte	0xa
 2990 0657 EE02     		.2byte	0x2ee
 2991 0659 09       		.uleb128 0x9
 2992 065a 01       		.uleb128 0x1
 2993 065b 51       		.byte	0x51
 2994 065c 01       		.uleb128 0x1
 2995 065d 30       		.byte	0x30
 2996 065e 09       		.uleb128 0x9
 2997 065f 01       		.uleb128 0x1
 2998 0660 52       		.byte	0x52
 2999 0661 01       		.uleb128 0x1
 3000 0662 34       		.byte	0x34
 3001 0663 09       		.uleb128 0x9
 3002 0664 01       		.uleb128 0x1
 3003 0665 53       		.byte	0x53
 3004 0666 01       		.uleb128 0x1
 3005 0667 32       		.byte	0x32
 3006 0668 09       		.uleb128 0x9
 3007 0669 02       		.uleb128 0x2
 3008 066a 7D       		.byte	0x7d
 3009 066b 00       		.sleb128 0
 3010 066c 02       		.uleb128 0x2
 3011 066d 78       		.byte	0x78
 3012 066e 00       		.sleb128 0
 3013 066f 09       		.uleb128 0x9
 3014 0670 02       		.uleb128 0x2
 3015 0671 7D       		.byte	0x7d
 3016 0672 04       		.sleb128 4
 3017 0673 02       		.uleb128 0x2
 3018 0674 76       		.byte	0x76
 3019 0675 00       		.sleb128 0
 3020 0676 00       		.byte	0
 3021 0677 0F       		.uleb128 0xf
 3022 0678 DA030000 		.4byte	.LVL111
 3023 067c 841B0000 		.4byte	0x1b84
 3024 0680 8A060000 		.4byte	0x68a
 3025 0684 09       		.uleb128 0x9
 3026 0685 01       		.uleb128 0x1
 3027 0686 50       		.byte	0x50
 3028 0687 01       		.uleb128 0x1
 3029 0688 30       		.byte	0x30
 3030 0689 00       		.byte	0
 3031 068a 0F       		.uleb128 0xf
 3032 068b E0030000 		.4byte	.LVL112
 3033 068f 211B0000 		.4byte	0x1b21
ARM GAS  C:\Users\Misha\AppData\Local\Temp\ccVSruQj.s 			page 75


 3034 0693 9E060000 		.4byte	0x69e
 3035 0697 09       		.uleb128 0x9
 3036 0698 01       		.uleb128 0x1
 3037 0699 50       		.byte	0x50
 3038 069a 02       		.uleb128 0x2
 3039 069b 08       		.byte	0x8
 3040 069c 3C       		.byte	0x3c
 3041 069d 00       		.byte	0
 3042 069e 0F       		.uleb128 0xf
 3043 069f E6030000 		.4byte	.LVL113
 3044 06a3 841B0000 		.4byte	0x1b84
 3045 06a7 B1060000 		.4byte	0x6b1
 3046 06ab 09       		.uleb128 0x9
 3047 06ac 01       		.uleb128 0x1
 3048 06ad 50       		.byte	0x50
 3049 06ae 01       		.uleb128 0x1
 3050 06af 34       		.byte	0x34
 3051 06b0 00       		.byte	0
 3052 06b1 0F       		.uleb128 0xf
 3053 06b2 EC030000 		.4byte	.LVL114
 3054 06b6 211B0000 		.4byte	0x1b21
 3055 06ba C5060000 		.4byte	0x6c5
 3056 06be 09       		.uleb128 0x9
 3057 06bf 01       		.uleb128 0x1
 3058 06c0 50       		.byte	0x50
 3059 06c1 02       		.uleb128 0x2
 3060 06c2 08       		.byte	0x8
 3061 06c3 3C       		.byte	0x3c
 3062 06c4 00       		.byte	0
 3063 06c5 0F       		.uleb128 0xf
 3064 06c6 0A040000 		.4byte	.LVL115
 3065 06ca 8F1B0000 		.4byte	0x1b8f
 3066 06ce DF060000 		.4byte	0x6df
 3067 06d2 09       		.uleb128 0x9
 3068 06d3 01       		.uleb128 0x1
 3069 06d4 50       		.byte	0x50
 3070 06d5 01       		.uleb128 0x1
 3071 06d6 32       		.byte	0x32
 3072 06d7 09       		.uleb128 0x9
 3073 06d8 01       		.uleb128 0x1
 3074 06d9 51       		.byte	0x51
 3075 06da 03       		.uleb128 0x3
 3076 06db 0A       		.byte	0xa
 3077 06dc E803     		.2byte	0x3e8
 3078 06de 00       		.byte	0
 3079 06df 0F       		.uleb128 0xf
 3080 06e0 16040000 		.4byte	.LVL116
 3081 06e4 8F1B0000 		.4byte	0x1b8f
 3082 06e8 FA060000 		.4byte	0x6fa
 3083 06ec 09       		.uleb128 0x9
 3084 06ed 01       		.uleb128 0x1
 3085 06ee 50       		.byte	0x50
 3086 06ef 02       		.uleb128 0x2
 3087 06f0 76       		.byte	0x76
 3088 06f1 00       		.sleb128 0
 3089 06f2 09       		.uleb128 0x9
 3090 06f3 01       		.uleb128 0x1
ARM GAS  C:\Users\Misha\AppData\Local\Temp\ccVSruQj.s 			page 76


 3091 06f4 51       		.byte	0x51
 3092 06f5 03       		.uleb128 0x3
 3093 06f6 0A       		.byte	0xa
 3094 06f7 E803     		.2byte	0x3e8
 3095 06f9 00       		.byte	0
 3096 06fa 0F       		.uleb128 0xf
 3097 06fb 2A040000 		.4byte	.LVL117
 3098 06ff 581B0000 		.4byte	0x1b58
 3099 0703 2B070000 		.4byte	0x72b
 3100 0707 09       		.uleb128 0x9
 3101 0708 01       		.uleb128 0x1
 3102 0709 50       		.byte	0x50
 3103 070a 02       		.uleb128 0x2
 3104 070b 08       		.byte	0x8
 3105 070c C8       		.byte	0xc8
 3106 070d 09       		.uleb128 0x9
 3107 070e 01       		.uleb128 0x1
 3108 070f 51       		.byte	0x51
 3109 0710 01       		.uleb128 0x1
 3110 0711 30       		.byte	0x30
 3111 0712 09       		.uleb128 0x9
 3112 0713 01       		.uleb128 0x1
 3113 0714 52       		.byte	0x52
 3114 0715 01       		.uleb128 0x1
 3115 0716 34       		.byte	0x34
 3116 0717 09       		.uleb128 0x9
 3117 0718 01       		.uleb128 0x1
 3118 0719 53       		.byte	0x53
 3119 071a 01       		.uleb128 0x1
 3120 071b 34       		.byte	0x34
 3121 071c 09       		.uleb128 0x9
 3122 071d 02       		.uleb128 0x2
 3123 071e 7D       		.byte	0x7d
 3124 071f 00       		.sleb128 0
 3125 0720 02       		.uleb128 0x2
 3126 0721 78       		.byte	0x78
 3127 0722 00       		.sleb128 0
 3128 0723 09       		.uleb128 0x9
 3129 0724 02       		.uleb128 0x2
 3130 0725 7D       		.byte	0x7d
 3131 0726 04       		.sleb128 4
 3132 0727 02       		.uleb128 0x2
 3133 0728 76       		.byte	0x76
 3134 0729 00       		.sleb128 0
 3135 072a 00       		.byte	0
 3136 072b 0F       		.uleb128 0xf
 3137 072c 32040000 		.4byte	.LVL118
 3138 0730 A51B0000 		.4byte	0x1ba5
 3139 0734 44070000 		.4byte	0x744
 3140 0738 09       		.uleb128 0x9
 3141 0739 01       		.uleb128 0x1
 3142 073a 50       		.byte	0x50
 3143 073b 01       		.uleb128 0x1
 3144 073c 33       		.byte	0x33
 3145 073d 09       		.uleb128 0x9
 3146 073e 01       		.uleb128 0x1
 3147 073f 51       		.byte	0x51
ARM GAS  C:\Users\Misha\AppData\Local\Temp\ccVSruQj.s 			page 77


 3148 0740 02       		.uleb128 0x2
 3149 0741 78       		.byte	0x78
 3150 0742 00       		.sleb128 0
 3151 0743 00       		.byte	0
 3152 0744 0F       		.uleb128 0xf
 3153 0745 42040000 		.4byte	.LVL119
 3154 0749 581B0000 		.4byte	0x1b58
 3155 074d 76070000 		.4byte	0x776
 3156 0751 09       		.uleb128 0x9
 3157 0752 01       		.uleb128 0x1
 3158 0753 50       		.byte	0x50
 3159 0754 02       		.uleb128 0x2
 3160 0755 08       		.byte	0x8
 3161 0756 96       		.byte	0x96
 3162 0757 09       		.uleb128 0x9
 3163 0758 01       		.uleb128 0x1
 3164 0759 51       		.byte	0x51
 3165 075a 02       		.uleb128 0x2
 3166 075b 76       		.byte	0x76
 3167 075c 00       		.sleb128 0
 3168 075d 09       		.uleb128 0x9
 3169 075e 01       		.uleb128 0x1
 3170 075f 52       		.byte	0x52
 3171 0760 01       		.uleb128 0x1
 3172 0761 34       		.byte	0x34
 3173 0762 09       		.uleb128 0x9
 3174 0763 01       		.uleb128 0x1
 3175 0764 53       		.byte	0x53
 3176 0765 01       		.uleb128 0x1
 3177 0766 30       		.byte	0x30
 3178 0767 09       		.uleb128 0x9
 3179 0768 02       		.uleb128 0x2
 3180 0769 7D       		.byte	0x7d
 3181 076a 00       		.sleb128 0
 3182 076b 02       		.uleb128 0x2
 3183 076c 78       		.byte	0x78
 3184 076d 00       		.sleb128 0
 3185 076e 09       		.uleb128 0x9
 3186 076f 02       		.uleb128 0x2
 3187 0770 7D       		.byte	0x7d
 3188 0771 04       		.sleb128 4
 3189 0772 02       		.uleb128 0x2
 3190 0773 76       		.byte	0x76
 3191 0774 00       		.sleb128 0
 3192 0775 00       		.byte	0
 3193 0776 06       		.uleb128 0x6
 3194 0777 46040000 		.4byte	.LVL120
 3195 077b 4D1B0000 		.4byte	0x1b4d
 3196 077f 0F       		.uleb128 0xf
 3197 0780 58040000 		.4byte	.LVL121
 3198 0784 581B0000 		.4byte	0x1b58
 3199 0788 B1070000 		.4byte	0x7b1
 3200 078c 09       		.uleb128 0x9
 3201 078d 01       		.uleb128 0x1
 3202 078e 50       		.byte	0x50
 3203 078f 03       		.uleb128 0x3
 3204 0790 0A       		.byte	0xa
ARM GAS  C:\Users\Misha\AppData\Local\Temp\ccVSruQj.s 			page 78


 3205 0791 EE02     		.2byte	0x2ee
 3206 0793 09       		.uleb128 0x9
 3207 0794 01       		.uleb128 0x1
 3208 0795 51       		.byte	0x51
 3209 0796 01       		.uleb128 0x1
 3210 0797 30       		.byte	0x30
 3211 0798 09       		.uleb128 0x9
 3212 0799 01       		.uleb128 0x1
 3213 079a 52       		.byte	0x52
 3214 079b 01       		.uleb128 0x1
 3215 079c 34       		.byte	0x34
 3216 079d 09       		.uleb128 0x9
 3217 079e 01       		.uleb128 0x1
 3218 079f 53       		.byte	0x53
 3219 07a0 01       		.uleb128 0x1
 3220 07a1 33       		.byte	0x33
 3221 07a2 09       		.uleb128 0x9
 3222 07a3 02       		.uleb128 0x2
 3223 07a4 7D       		.byte	0x7d
 3224 07a5 00       		.sleb128 0
 3225 07a6 02       		.uleb128 0x2
 3226 07a7 78       		.byte	0x78
 3227 07a8 00       		.sleb128 0
 3228 07a9 09       		.uleb128 0x9
 3229 07aa 02       		.uleb128 0x2
 3230 07ab 7D       		.byte	0x7d
 3231 07ac 04       		.sleb128 4
 3232 07ad 02       		.uleb128 0x2
 3233 07ae 76       		.byte	0x76
 3234 07af 00       		.sleb128 0
 3235 07b0 00       		.byte	0
 3236 07b1 0F       		.uleb128 0xf
 3237 07b2 62040000 		.4byte	.LVL122
 3238 07b6 8F1B0000 		.4byte	0x1b8f
 3239 07ba CB070000 		.4byte	0x7cb
 3240 07be 09       		.uleb128 0x9
 3241 07bf 01       		.uleb128 0x1
 3242 07c0 50       		.byte	0x50
 3243 07c1 01       		.uleb128 0x1
 3244 07c2 32       		.byte	0x32
 3245 07c3 09       		.uleb128 0x9
 3246 07c4 01       		.uleb128 0x1
 3247 07c5 51       		.byte	0x51
 3248 07c6 03       		.uleb128 0x3
 3249 07c7 0A       		.byte	0xa
 3250 07c8 E803     		.2byte	0x3e8
 3251 07ca 00       		.byte	0
 3252 07cb 0F       		.uleb128 0xf
 3253 07cc 68040000 		.4byte	.LVL123
 3254 07d0 841B0000 		.4byte	0x1b84
 3255 07d4 DE070000 		.4byte	0x7de
 3256 07d8 09       		.uleb128 0x9
 3257 07d9 01       		.uleb128 0x1
 3258 07da 50       		.byte	0x50
 3259 07db 01       		.uleb128 0x1
 3260 07dc 30       		.byte	0x30
 3261 07dd 00       		.byte	0
ARM GAS  C:\Users\Misha\AppData\Local\Temp\ccVSruQj.s 			page 79


 3262 07de 0F       		.uleb128 0xf
 3263 07df 6E040000 		.4byte	.LVL124
 3264 07e3 211B0000 		.4byte	0x1b21
 3265 07e7 F2070000 		.4byte	0x7f2
 3266 07eb 09       		.uleb128 0x9
 3267 07ec 01       		.uleb128 0x1
 3268 07ed 50       		.byte	0x50
 3269 07ee 02       		.uleb128 0x2
 3270 07ef 08       		.byte	0x8
 3271 07f0 3C       		.byte	0x3c
 3272 07f1 00       		.byte	0
 3273 07f2 0F       		.uleb128 0xf
 3274 07f3 74040000 		.4byte	.LVL125
 3275 07f7 841B0000 		.4byte	0x1b84
 3276 07fb 05080000 		.4byte	0x805
 3277 07ff 09       		.uleb128 0x9
 3278 0800 01       		.uleb128 0x1
 3279 0801 50       		.byte	0x50
 3280 0802 01       		.uleb128 0x1
 3281 0803 34       		.byte	0x34
 3282 0804 00       		.byte	0
 3283 0805 08       		.uleb128 0x8
 3284 0806 7A040000 		.4byte	.LVL126
 3285 080a 211B0000 		.4byte	0x1b21
 3286 080e 09       		.uleb128 0x9
 3287 080f 01       		.uleb128 0x1
 3288 0810 50       		.byte	0x50
 3289 0811 02       		.uleb128 0x2
 3290 0812 08       		.byte	0x8
 3291 0813 3C       		.byte	0x3c
 3292 0814 00       		.byte	0
 3293 0815 00       		.byte	0
 3294 0816 0C       		.uleb128 0xc
 3295 0817 78060000 		.4byte	.LBB8
 3296 081b A4000000 		.4byte	.LBE8-.LBB8
 3297 081f 7F090000 		.4byte	0x97f
 3298 0823 0D       		.uleb128 0xd
 3299 0824 F5010000 		.4byte	.LASF22
 3300 0828 01       		.byte	0x1
 3301 0829 0503     		.2byte	0x305
 3302 082b 68000000 		.4byte	0x68
 3303 082f A5000000 		.4byte	.LLST6
 3304 0833 0D       		.uleb128 0xd
 3305 0834 4F060000 		.4byte	.LASF23
 3306 0838 01       		.byte	0x1
 3307 0839 0603     		.2byte	0x306
 3308 083b 68000000 		.4byte	0x68
 3309 083f C4000000 		.4byte	.LLST7
 3310 0843 0F       		.uleb128 0xf
 3311 0844 92060000 		.4byte	.LVL158
 3312 0848 9A1B0000 		.4byte	0x1b9a
 3313 084c 62080000 		.4byte	0x862
 3314 0850 09       		.uleb128 0x9
 3315 0851 01       		.uleb128 0x1
 3316 0852 50       		.byte	0x50
 3317 0853 02       		.uleb128 0x2
 3318 0854 08       		.byte	0x8
ARM GAS  C:\Users\Misha\AppData\Local\Temp\ccVSruQj.s 			page 80


 3319 0855 32       		.byte	0x32
 3320 0856 09       		.uleb128 0x9
 3321 0857 01       		.uleb128 0x1
 3322 0858 51       		.byte	0x51
 3323 0859 02       		.uleb128 0x2
 3324 085a 08       		.byte	0x8
 3325 085b 46       		.byte	0x46
 3326 085c 09       		.uleb128 0x9
 3327 085d 01       		.uleb128 0x1
 3328 085e 52       		.byte	0x52
 3329 085f 01       		.uleb128 0x1
 3330 0860 31       		.byte	0x31
 3331 0861 00       		.byte	0
 3332 0862 0F       		.uleb128 0xf
 3333 0863 9A060000 		.4byte	.LVL159
 3334 0867 B01B0000 		.4byte	0x1bb0
 3335 086b 7A080000 		.4byte	0x87a
 3336 086f 09       		.uleb128 0x9
 3337 0870 01       		.uleb128 0x1
 3338 0871 50       		.byte	0x50
 3339 0872 01       		.uleb128 0x1
 3340 0873 31       		.byte	0x31
 3341 0874 09       		.uleb128 0x9
 3342 0875 01       		.uleb128 0x1
 3343 0876 51       		.byte	0x51
 3344 0877 01       		.uleb128 0x1
 3345 0878 32       		.byte	0x32
 3346 0879 00       		.byte	0
 3347 087a 06       		.uleb128 0x6
 3348 087b 9E060000 		.4byte	.LVL160
 3349 087f 2C1B0000 		.4byte	0x1b2c
 3350 0883 0F       		.uleb128 0xf
 3351 0884 A8060000 		.4byte	.LVL163
 3352 0888 B01B0000 		.4byte	0x1bb0
 3353 088c 9B080000 		.4byte	0x89b
 3354 0890 09       		.uleb128 0x9
 3355 0891 01       		.uleb128 0x1
 3356 0892 50       		.byte	0x50
 3357 0893 01       		.uleb128 0x1
 3358 0894 33       		.byte	0x33
 3359 0895 09       		.uleb128 0x9
 3360 0896 01       		.uleb128 0x1
 3361 0897 51       		.byte	0x51
 3362 0898 01       		.uleb128 0x1
 3363 0899 32       		.byte	0x32
 3364 089a 00       		.byte	0
 3365 089b 0F       		.uleb128 0xf
 3366 089c B4060000 		.4byte	.LVL164
 3367 08a0 9A1B0000 		.4byte	0x1b9a
 3368 08a4 BA080000 		.4byte	0x8ba
 3369 08a8 09       		.uleb128 0x9
 3370 08a9 01       		.uleb128 0x1
 3371 08aa 50       		.byte	0x50
 3372 08ab 02       		.uleb128 0x2
 3373 08ac 09       		.byte	0x9
 3374 08ad CE       		.byte	0xce
 3375 08ae 09       		.uleb128 0x9
ARM GAS  C:\Users\Misha\AppData\Local\Temp\ccVSruQj.s 			page 81


 3376 08af 01       		.uleb128 0x1
 3377 08b0 51       		.byte	0x51
 3378 08b1 02       		.uleb128 0x2
 3379 08b2 08       		.byte	0x8
 3380 08b3 AA       		.byte	0xaa
 3381 08b4 09       		.uleb128 0x9
 3382 08b5 01       		.uleb128 0x1
 3383 08b6 52       		.byte	0x52
 3384 08b7 01       		.uleb128 0x1
 3385 08b8 31       		.byte	0x31
 3386 08b9 00       		.byte	0
 3387 08ba 0F       		.uleb128 0xf
 3388 08bb D0060000 		.4byte	.LVL165
 3389 08bf BB1B0000 		.4byte	0x1bbb
 3390 08c3 D9080000 		.4byte	0x8d9
 3391 08c7 09       		.uleb128 0x9
 3392 08c8 01       		.uleb128 0x1
 3393 08c9 50       		.byte	0x50
 3394 08ca 02       		.uleb128 0x2
 3395 08cb 08       		.byte	0x8
 3396 08cc 2D       		.byte	0x2d
 3397 08cd 09       		.uleb128 0x9
 3398 08ce 01       		.uleb128 0x1
 3399 08cf 51       		.byte	0x51
 3400 08d0 02       		.uleb128 0x2
 3401 08d1 08       		.byte	0x8
 3402 08d2 AA       		.byte	0xaa
 3403 08d3 09       		.uleb128 0x9
 3404 08d4 01       		.uleb128 0x1
 3405 08d5 52       		.byte	0x52
 3406 08d6 01       		.uleb128 0x1
 3407 08d7 31       		.byte	0x31
 3408 08d8 00       		.byte	0
 3409 08d9 0F       		.uleb128 0xf
 3410 08da DC060000 		.4byte	.LVL166
 3411 08de 9A1B0000 		.4byte	0x1b9a
 3412 08e2 F8080000 		.4byte	0x8f8
 3413 08e6 09       		.uleb128 0x9
 3414 08e7 01       		.uleb128 0x1
 3415 08e8 50       		.byte	0x50
 3416 08e9 02       		.uleb128 0x2
 3417 08ea 09       		.byte	0x9
 3418 08eb E2       		.byte	0xe2
 3419 08ec 09       		.uleb128 0x9
 3420 08ed 01       		.uleb128 0x1
 3421 08ee 51       		.byte	0x51
 3422 08ef 02       		.uleb128 0x2
 3423 08f0 08       		.byte	0x8
 3424 08f1 AA       		.byte	0xaa
 3425 08f2 09       		.uleb128 0x9
 3426 08f3 01       		.uleb128 0x1
 3427 08f4 52       		.byte	0x52
 3428 08f5 01       		.uleb128 0x1
 3429 08f6 31       		.byte	0x31
 3430 08f7 00       		.byte	0
 3431 08f8 0F       		.uleb128 0xf
 3432 08f9 E8060000 		.4byte	.LVL167
ARM GAS  C:\Users\Misha\AppData\Local\Temp\ccVSruQj.s 			page 82


 3433 08fd BB1B0000 		.4byte	0x1bbb
 3434 0901 17090000 		.4byte	0x917
 3435 0905 09       		.uleb128 0x9
 3436 0906 01       		.uleb128 0x1
 3437 0907 50       		.byte	0x50
 3438 0908 02       		.uleb128 0x2
 3439 0909 09       		.byte	0x9
 3440 090a E2       		.byte	0xe2
 3441 090b 09       		.uleb128 0x9
 3442 090c 01       		.uleb128 0x1
 3443 090d 51       		.byte	0x51
 3444 090e 02       		.uleb128 0x2
 3445 090f 08       		.byte	0x8
 3446 0910 AA       		.byte	0xaa
 3447 0911 09       		.uleb128 0x9
 3448 0912 01       		.uleb128 0x1
 3449 0913 52       		.byte	0x52
 3450 0914 01       		.uleb128 0x1
 3451 0915 31       		.byte	0x31
 3452 0916 00       		.byte	0
 3453 0917 0F       		.uleb128 0xf
 3454 0918 F8060000 		.4byte	.LVL169
 3455 091c B01B0000 		.4byte	0x1bb0
 3456 0920 2F090000 		.4byte	0x92f
 3457 0924 09       		.uleb128 0x9
 3458 0925 01       		.uleb128 0x1
 3459 0926 50       		.byte	0x50
 3460 0927 01       		.uleb128 0x1
 3461 0928 30       		.byte	0x30
 3462 0929 09       		.uleb128 0x9
 3463 092a 01       		.uleb128 0x1
 3464 092b 51       		.byte	0x51
 3465 092c 01       		.uleb128 0x1
 3466 092d 32       		.byte	0x32
 3467 092e 00       		.byte	0
 3468 092f 0F       		.uleb128 0xf
 3469 0930 FE060000 		.4byte	.LVL170
 3470 0934 C61B0000 		.4byte	0x1bc6
 3471 0938 42090000 		.4byte	0x942
 3472 093c 09       		.uleb128 0x9
 3473 093d 01       		.uleb128 0x1
 3474 093e 50       		.byte	0x50
 3475 093f 01       		.uleb128 0x1
 3476 0940 32       		.byte	0x32
 3477 0941 00       		.byte	0
 3478 0942 06       		.uleb128 0x6
 3479 0943 02070000 		.4byte	.LVL171
 3480 0947 D11B0000 		.4byte	0x1bd1
 3481 094b 0F       		.uleb128 0xf
 3482 094c 0A070000 		.4byte	.LVL172
 3483 0950 B01B0000 		.4byte	0x1bb0
 3484 0954 63090000 		.4byte	0x963
 3485 0958 09       		.uleb128 0x9
 3486 0959 01       		.uleb128 0x1
 3487 095a 50       		.byte	0x50
 3488 095b 01       		.uleb128 0x1
 3489 095c 33       		.byte	0x33
ARM GAS  C:\Users\Misha\AppData\Local\Temp\ccVSruQj.s 			page 83


 3490 095d 09       		.uleb128 0x9
 3491 095e 01       		.uleb128 0x1
 3492 095f 51       		.byte	0x51
 3493 0960 01       		.uleb128 0x1
 3494 0961 32       		.byte	0x32
 3495 0962 00       		.byte	0
 3496 0963 08       		.uleb128 0x8
 3497 0964 16070000 		.4byte	.LVL173
 3498 0968 9A1B0000 		.4byte	0x1b9a
 3499 096c 09       		.uleb128 0x9
 3500 096d 01       		.uleb128 0x1
 3501 096e 50       		.byte	0x50
 3502 096f 02       		.uleb128 0x2
 3503 0970 09       		.byte	0x9
 3504 0971 C4       		.byte	0xc4
 3505 0972 09       		.uleb128 0x9
 3506 0973 01       		.uleb128 0x1
 3507 0974 51       		.byte	0x51
 3508 0975 02       		.uleb128 0x2
 3509 0976 08       		.byte	0x8
 3510 0977 AA       		.byte	0xaa
 3511 0978 09       		.uleb128 0x9
 3512 0979 01       		.uleb128 0x1
 3513 097a 52       		.byte	0x52
 3514 097b 01       		.uleb128 0x1
 3515 097c 31       		.byte	0x31
 3516 097d 00       		.byte	0
 3517 097e 00       		.byte	0
 3518 097f 0C       		.uleb128 0xc
 3519 0980 08090000 		.4byte	.LBB9
 3520 0984 AA010000 		.4byte	.LBE9-.LBB9
 3521 0988 EB0C0000 		.4byte	0xceb
 3522 098c 0D       		.uleb128 0xd
 3523 098d 38060000 		.4byte	.LASF24
 3524 0991 01       		.byte	0x1
 3525 0992 FD03     		.2byte	0x3fd
 3526 0994 68000000 		.4byte	0x68
 3527 0998 E2000000 		.4byte	.LLST8
 3528 099c 0F       		.uleb128 0xf
 3529 099d 0E090000 		.4byte	.LVL214
 3530 09a1 6E1B0000 		.4byte	0x1b6e
 3531 09a5 AF090000 		.4byte	0x9af
 3532 09a9 09       		.uleb128 0x9
 3533 09aa 01       		.uleb128 0x1
 3534 09ab 50       		.byte	0x50
 3535 09ac 01       		.uleb128 0x1
 3536 09ad 31       		.byte	0x31
 3537 09ae 00       		.byte	0
 3538 09af 06       		.uleb128 0x6
 3539 09b0 18090000 		.4byte	.LVL215
 3540 09b4 DC1B0000 		.4byte	0x1bdc
 3541 09b8 06       		.uleb128 0x6
 3542 09b9 1C090000 		.4byte	.LVL216
 3543 09bd 631B0000 		.4byte	0x1b63
 3544 09c1 0F       		.uleb128 0xf
 3545 09c2 24090000 		.4byte	.LVL217
 3546 09c6 211B0000 		.4byte	0x1b21
ARM GAS  C:\Users\Misha\AppData\Local\Temp\ccVSruQj.s 			page 84


 3547 09ca D6090000 		.4byte	0x9d6
 3548 09ce 09       		.uleb128 0x9
 3549 09cf 01       		.uleb128 0x1
 3550 09d0 50       		.byte	0x50
 3551 09d1 03       		.uleb128 0x3
 3552 09d2 0A       		.byte	0xa
 3553 09d3 D007     		.2byte	0x7d0
 3554 09d5 00       		.byte	0
 3555 09d6 06       		.uleb128 0x6
 3556 09d7 28090000 		.4byte	.LVL218
 3557 09db D11B0000 		.4byte	0x1bd1
 3558 09df 06       		.uleb128 0x6
 3559 09e0 2C090000 		.4byte	.LVL219
 3560 09e4 2C1B0000 		.4byte	0x1b2c
 3561 09e8 0F       		.uleb128 0xf
 3562 09e9 52090000 		.4byte	.LVL221
 3563 09ed 581B0000 		.4byte	0x1b58
 3564 09f1 1A0A0000 		.4byte	0xa1a
 3565 09f5 09       		.uleb128 0x9
 3566 09f6 01       		.uleb128 0x1
 3567 09f7 50       		.byte	0x50
 3568 09f8 03       		.uleb128 0x3
 3569 09f9 0A       		.byte	0xa
 3570 09fa 2602     		.2byte	0x226
 3571 09fc 09       		.uleb128 0x9
 3572 09fd 01       		.uleb128 0x1
 3573 09fe 51       		.byte	0x51
 3574 09ff 01       		.uleb128 0x1
 3575 0a00 30       		.byte	0x30
 3576 0a01 09       		.uleb128 0x9
 3577 0a02 01       		.uleb128 0x1
 3578 0a03 52       		.byte	0x52
 3579 0a04 01       		.uleb128 0x1
 3580 0a05 35       		.byte	0x35
 3581 0a06 09       		.uleb128 0x9
 3582 0a07 01       		.uleb128 0x1
 3583 0a08 53       		.byte	0x53
 3584 0a09 01       		.uleb128 0x1
 3585 0a0a 30       		.byte	0x30
 3586 0a0b 09       		.uleb128 0x9
 3587 0a0c 02       		.uleb128 0x2
 3588 0a0d 7D       		.byte	0x7d
 3589 0a0e 00       		.sleb128 0
 3590 0a0f 02       		.uleb128 0x2
 3591 0a10 75       		.byte	0x75
 3592 0a11 00       		.sleb128 0
 3593 0a12 09       		.uleb128 0x9
 3594 0a13 02       		.uleb128 0x2
 3595 0a14 7D       		.byte	0x7d
 3596 0a15 04       		.sleb128 4
 3597 0a16 02       		.uleb128 0x2
 3598 0a17 74       		.byte	0x74
 3599 0a18 00       		.sleb128 0
 3600 0a19 00       		.byte	0
 3601 0a1a 0F       		.uleb128 0xf
 3602 0a1b 5A090000 		.4byte	.LVL222
 3603 0a1f A51B0000 		.4byte	0x1ba5
ARM GAS  C:\Users\Misha\AppData\Local\Temp\ccVSruQj.s 			page 85


 3604 0a23 330A0000 		.4byte	0xa33
 3605 0a27 09       		.uleb128 0x9
 3606 0a28 01       		.uleb128 0x1
 3607 0a29 50       		.byte	0x50
 3608 0a2a 01       		.uleb128 0x1
 3609 0a2b 30       		.byte	0x30
 3610 0a2c 09       		.uleb128 0x9
 3611 0a2d 01       		.uleb128 0x1
 3612 0a2e 51       		.byte	0x51
 3613 0a2f 02       		.uleb128 0x2
 3614 0a30 75       		.byte	0x75
 3615 0a31 00       		.sleb128 0
 3616 0a32 00       		.byte	0
 3617 0a33 0F       		.uleb128 0xf
 3618 0a34 62090000 		.4byte	.LVL223
 3619 0a38 A51B0000 		.4byte	0x1ba5
 3620 0a3c 4C0A0000 		.4byte	0xa4c
 3621 0a40 09       		.uleb128 0x9
 3622 0a41 01       		.uleb128 0x1
 3623 0a42 50       		.byte	0x50
 3624 0a43 01       		.uleb128 0x1
 3625 0a44 33       		.byte	0x33
 3626 0a45 09       		.uleb128 0x9
 3627 0a46 01       		.uleb128 0x1
 3628 0a47 51       		.byte	0x51
 3629 0a48 02       		.uleb128 0x2
 3630 0a49 75       		.byte	0x75
 3631 0a4a 00       		.sleb128 0
 3632 0a4b 00       		.byte	0
 3633 0a4c 0F       		.uleb128 0xf
 3634 0a4d 72090000 		.4byte	.LVL224
 3635 0a51 581B0000 		.4byte	0x1b58
 3636 0a55 7E0A0000 		.4byte	0xa7e
 3637 0a59 09       		.uleb128 0x9
 3638 0a5a 01       		.uleb128 0x1
 3639 0a5b 50       		.byte	0x50
 3640 0a5c 02       		.uleb128 0x2
 3641 0a5d 08       		.byte	0x8
 3642 0a5e FA       		.byte	0xfa
 3643 0a5f 09       		.uleb128 0x9
 3644 0a60 01       		.uleb128 0x1
 3645 0a61 51       		.byte	0x51
 3646 0a62 02       		.uleb128 0x2
 3647 0a63 74       		.byte	0x74
 3648 0a64 00       		.sleb128 0
 3649 0a65 09       		.uleb128 0x9
 3650 0a66 01       		.uleb128 0x1
 3651 0a67 52       		.byte	0x52
 3652 0a68 01       		.uleb128 0x1
 3653 0a69 34       		.byte	0x34
 3654 0a6a 09       		.uleb128 0x9
 3655 0a6b 01       		.uleb128 0x1
 3656 0a6c 53       		.byte	0x53
 3657 0a6d 01       		.uleb128 0x1
 3658 0a6e 30       		.byte	0x30
 3659 0a6f 09       		.uleb128 0x9
 3660 0a70 02       		.uleb128 0x2
ARM GAS  C:\Users\Misha\AppData\Local\Temp\ccVSruQj.s 			page 86


 3661 0a71 7D       		.byte	0x7d
 3662 0a72 00       		.sleb128 0
 3663 0a73 02       		.uleb128 0x2
 3664 0a74 75       		.byte	0x75
 3665 0a75 00       		.sleb128 0
 3666 0a76 09       		.uleb128 0x9
 3667 0a77 02       		.uleb128 0x2
 3668 0a78 7D       		.byte	0x7d
 3669 0a79 04       		.sleb128 4
 3670 0a7a 02       		.uleb128 0x2
 3671 0a7b 74       		.byte	0x74
 3672 0a7c 00       		.sleb128 0
 3673 0a7d 00       		.byte	0
 3674 0a7e 06       		.uleb128 0x6
 3675 0a7f 76090000 		.4byte	.LVL225
 3676 0a83 4D1B0000 		.4byte	0x1b4d
 3677 0a87 0F       		.uleb128 0xf
 3678 0a88 86090000 		.4byte	.LVL226
 3679 0a8c 581B0000 		.4byte	0x1b58
 3680 0a90 B90A0000 		.4byte	0xab9
 3681 0a94 09       		.uleb128 0x9
 3682 0a95 01       		.uleb128 0x1
 3683 0a96 50       		.byte	0x50
 3684 0a97 02       		.uleb128 0x2
 3685 0a98 08       		.byte	0x8
 3686 0a99 FA       		.byte	0xfa
 3687 0a9a 09       		.uleb128 0x9
 3688 0a9b 01       		.uleb128 0x1
 3689 0a9c 51       		.byte	0x51
 3690 0a9d 02       		.uleb128 0x2
 3691 0a9e 74       		.byte	0x74
 3692 0a9f 00       		.sleb128 0
 3693 0aa0 09       		.uleb128 0x9
 3694 0aa1 01       		.uleb128 0x1
 3695 0aa2 52       		.byte	0x52
 3696 0aa3 01       		.uleb128 0x1
 3697 0aa4 34       		.byte	0x34
 3698 0aa5 09       		.uleb128 0x9
 3699 0aa6 01       		.uleb128 0x1
 3700 0aa7 53       		.byte	0x53
 3701 0aa8 01       		.uleb128 0x1
 3702 0aa9 30       		.byte	0x30
 3703 0aaa 09       		.uleb128 0x9
 3704 0aab 02       		.uleb128 0x2
 3705 0aac 7D       		.byte	0x7d
 3706 0aad 00       		.sleb128 0
 3707 0aae 02       		.uleb128 0x2
 3708 0aaf 75       		.byte	0x75
 3709 0ab0 00       		.sleb128 0
 3710 0ab1 09       		.uleb128 0x9
 3711 0ab2 02       		.uleb128 0x2
 3712 0ab3 7D       		.byte	0x7d
 3713 0ab4 04       		.sleb128 4
 3714 0ab5 02       		.uleb128 0x2
 3715 0ab6 74       		.byte	0x74
 3716 0ab7 00       		.sleb128 0
 3717 0ab8 00       		.byte	0
ARM GAS  C:\Users\Misha\AppData\Local\Temp\ccVSruQj.s 			page 87


 3718 0ab9 06       		.uleb128 0x6
 3719 0aba 8A090000 		.4byte	.LVL227
 3720 0abe 4D1B0000 		.4byte	0x1b4d
 3721 0ac2 0F       		.uleb128 0xf
 3722 0ac3 B2090000 		.4byte	.LVL228
 3723 0ac7 581B0000 		.4byte	0x1b58
 3724 0acb F30A0000 		.4byte	0xaf3
 3725 0acf 09       		.uleb128 0x9
 3726 0ad0 01       		.uleb128 0x1
 3727 0ad1 50       		.byte	0x50
 3728 0ad2 03       		.uleb128 0x3
 3729 0ad3 0A       		.byte	0xa
 3730 0ad4 0D02     		.2byte	0x20d
 3731 0ad6 09       		.uleb128 0x9
 3732 0ad7 01       		.uleb128 0x1
 3733 0ad8 51       		.byte	0x51
 3734 0ad9 01       		.uleb128 0x1
 3735 0ada 30       		.byte	0x30
 3736 0adb 09       		.uleb128 0x9
 3737 0adc 01       		.uleb128 0x1
 3738 0add 52       		.byte	0x52
 3739 0ade 01       		.uleb128 0x1
 3740 0adf 35       		.byte	0x35
 3741 0ae0 09       		.uleb128 0x9
 3742 0ae1 01       		.uleb128 0x1
 3743 0ae2 53       		.byte	0x53
 3744 0ae3 01       		.uleb128 0x1
 3745 0ae4 30       		.byte	0x30
 3746 0ae5 09       		.uleb128 0x9
 3747 0ae6 02       		.uleb128 0x2
 3748 0ae7 7D       		.byte	0x7d
 3749 0ae8 00       		.sleb128 0
 3750 0ae9 02       		.uleb128 0x2
 3751 0aea 08       		.byte	0x8
 3752 0aeb AA       		.byte	0xaa
 3753 0aec 09       		.uleb128 0x9
 3754 0aed 02       		.uleb128 0x2
 3755 0aee 7D       		.byte	0x7d
 3756 0aef 04       		.sleb128 4
 3757 0af0 01       		.uleb128 0x1
 3758 0af1 31       		.byte	0x31
 3759 0af2 00       		.byte	0
 3760 0af3 06       		.uleb128 0x6
 3761 0af4 B6090000 		.4byte	.LVL229
 3762 0af8 4D1B0000 		.4byte	0x1b4d
 3763 0afc 0F       		.uleb128 0xf
 3764 0afd CC090000 		.4byte	.LVL230
 3765 0b01 581B0000 		.4byte	0x1b58
 3766 0b05 2C0B0000 		.4byte	0xb2c
 3767 0b09 09       		.uleb128 0x9
 3768 0b0a 01       		.uleb128 0x1
 3769 0b0b 50       		.byte	0x50
 3770 0b0c 02       		.uleb128 0x2
 3771 0b0d 08       		.byte	0x8
 3772 0b0e FA       		.byte	0xfa
 3773 0b0f 09       		.uleb128 0x9
 3774 0b10 01       		.uleb128 0x1
ARM GAS  C:\Users\Misha\AppData\Local\Temp\ccVSruQj.s 			page 88


 3775 0b11 51       		.byte	0x51
 3776 0b12 01       		.uleb128 0x1
 3777 0b13 30       		.byte	0x30
 3778 0b14 09       		.uleb128 0x9
 3779 0b15 01       		.uleb128 0x1
 3780 0b16 52       		.byte	0x52
 3781 0b17 01       		.uleb128 0x1
 3782 0b18 35       		.byte	0x35
 3783 0b19 09       		.uleb128 0x9
 3784 0b1a 01       		.uleb128 0x1
 3785 0b1b 53       		.byte	0x53
 3786 0b1c 01       		.uleb128 0x1
 3787 0b1d 30       		.byte	0x30
 3788 0b1e 09       		.uleb128 0x9
 3789 0b1f 02       		.uleb128 0x2
 3790 0b20 7D       		.byte	0x7d
 3791 0b21 00       		.sleb128 0
 3792 0b22 02       		.uleb128 0x2
 3793 0b23 08       		.byte	0x8
 3794 0b24 AA       		.byte	0xaa
 3795 0b25 09       		.uleb128 0x9
 3796 0b26 02       		.uleb128 0x2
 3797 0b27 7D       		.byte	0x7d
 3798 0b28 04       		.sleb128 4
 3799 0b29 01       		.uleb128 0x1
 3800 0b2a 31       		.byte	0x31
 3801 0b2b 00       		.byte	0
 3802 0b2c 0F       		.uleb128 0xf
 3803 0b2d D4090000 		.4byte	.LVL231
 3804 0b31 A51B0000 		.4byte	0x1ba5
 3805 0b35 450B0000 		.4byte	0xb45
 3806 0b39 09       		.uleb128 0x9
 3807 0b3a 01       		.uleb128 0x1
 3808 0b3b 50       		.byte	0x50
 3809 0b3c 01       		.uleb128 0x1
 3810 0b3d 32       		.byte	0x32
 3811 0b3e 09       		.uleb128 0x9
 3812 0b3f 01       		.uleb128 0x1
 3813 0b40 51       		.byte	0x51
 3814 0b41 02       		.uleb128 0x2
 3815 0b42 08       		.byte	0x8
 3816 0b43 AA       		.byte	0xaa
 3817 0b44 00       		.byte	0
 3818 0b45 0F       		.uleb128 0xf
 3819 0b46 E0090000 		.4byte	.LVL232
 3820 0b4a B01B0000 		.4byte	0x1bb0
 3821 0b4e 580B0000 		.4byte	0xb58
 3822 0b52 09       		.uleb128 0x9
 3823 0b53 01       		.uleb128 0x1
 3824 0b54 51       		.byte	0x51
 3825 0b55 01       		.uleb128 0x1
 3826 0b56 31       		.byte	0x31
 3827 0b57 00       		.byte	0
 3828 0b58 0F       		.uleb128 0xf
 3829 0b59 F6090000 		.4byte	.LVL233
 3830 0b5d 581B0000 		.4byte	0x1b58
 3831 0b61 880B0000 		.4byte	0xb88
ARM GAS  C:\Users\Misha\AppData\Local\Temp\ccVSruQj.s 			page 89


 3832 0b65 09       		.uleb128 0x9
 3833 0b66 01       		.uleb128 0x1
 3834 0b67 50       		.byte	0x50
 3835 0b68 02       		.uleb128 0x2
 3836 0b69 08       		.byte	0x8
 3837 0b6a 96       		.byte	0x96
 3838 0b6b 09       		.uleb128 0x9
 3839 0b6c 01       		.uleb128 0x1
 3840 0b6d 51       		.byte	0x51
 3841 0b6e 01       		.uleb128 0x1
 3842 0b6f 31       		.byte	0x31
 3843 0b70 09       		.uleb128 0x9
 3844 0b71 01       		.uleb128 0x1
 3845 0b72 52       		.byte	0x52
 3846 0b73 01       		.uleb128 0x1
 3847 0b74 34       		.byte	0x34
 3848 0b75 09       		.uleb128 0x9
 3849 0b76 01       		.uleb128 0x1
 3850 0b77 53       		.byte	0x53
 3851 0b78 01       		.uleb128 0x1
 3852 0b79 30       		.byte	0x30
 3853 0b7a 09       		.uleb128 0x9
 3854 0b7b 02       		.uleb128 0x2
 3855 0b7c 7D       		.byte	0x7d
 3856 0b7d 00       		.sleb128 0
 3857 0b7e 02       		.uleb128 0x2
 3858 0b7f 08       		.byte	0x8
 3859 0b80 AA       		.byte	0xaa
 3860 0b81 09       		.uleb128 0x9
 3861 0b82 02       		.uleb128 0x2
 3862 0b83 7D       		.byte	0x7d
 3863 0b84 04       		.sleb128 4
 3864 0b85 01       		.uleb128 0x1
 3865 0b86 31       		.byte	0x31
 3866 0b87 00       		.byte	0
 3867 0b88 0F       		.uleb128 0xf
 3868 0b89 0C0A0000 		.4byte	.LVL234
 3869 0b8d 581B0000 		.4byte	0x1b58
 3870 0b91 B80B0000 		.4byte	0xbb8
 3871 0b95 09       		.uleb128 0x9
 3872 0b96 01       		.uleb128 0x1
 3873 0b97 50       		.byte	0x50
 3874 0b98 02       		.uleb128 0x2
 3875 0b99 08       		.byte	0x8
 3876 0b9a 5A       		.byte	0x5a
 3877 0b9b 09       		.uleb128 0x9
 3878 0b9c 01       		.uleb128 0x1
 3879 0b9d 51       		.byte	0x51
 3880 0b9e 01       		.uleb128 0x1
 3881 0b9f 31       		.byte	0x31
 3882 0ba0 09       		.uleb128 0x9
 3883 0ba1 01       		.uleb128 0x1
 3884 0ba2 52       		.byte	0x52
 3885 0ba3 01       		.uleb128 0x1
 3886 0ba4 34       		.byte	0x34
 3887 0ba5 09       		.uleb128 0x9
 3888 0ba6 01       		.uleb128 0x1
ARM GAS  C:\Users\Misha\AppData\Local\Temp\ccVSruQj.s 			page 90


 3889 0ba7 53       		.byte	0x53
 3890 0ba8 01       		.uleb128 0x1
 3891 0ba9 31       		.byte	0x31
 3892 0baa 09       		.uleb128 0x9
 3893 0bab 02       		.uleb128 0x2
 3894 0bac 7D       		.byte	0x7d
 3895 0bad 00       		.sleb128 0
 3896 0bae 02       		.uleb128 0x2
 3897 0baf 08       		.byte	0x8
 3898 0bb0 AA       		.byte	0xaa
 3899 0bb1 09       		.uleb128 0x9
 3900 0bb2 02       		.uleb128 0x2
 3901 0bb3 7D       		.byte	0x7d
 3902 0bb4 04       		.sleb128 4
 3903 0bb5 01       		.uleb128 0x1
 3904 0bb6 30       		.byte	0x30
 3905 0bb7 00       		.byte	0
 3906 0bb8 0F       		.uleb128 0xf
 3907 0bb9 200A0000 		.4byte	.LVL235
 3908 0bbd B01B0000 		.4byte	0x1bb0
 3909 0bc1 CB0B0000 		.4byte	0xbcb
 3910 0bc5 09       		.uleb128 0x9
 3911 0bc6 01       		.uleb128 0x1
 3912 0bc7 51       		.byte	0x51
 3913 0bc8 01       		.uleb128 0x1
 3914 0bc9 32       		.byte	0x32
 3915 0bca 00       		.byte	0
 3916 0bcb 0F       		.uleb128 0xf
 3917 0bcc 2A0A0000 		.4byte	.LVL236
 3918 0bd0 B01B0000 		.4byte	0x1bb0
 3919 0bd4 E30B0000 		.4byte	0xbe3
 3920 0bd8 09       		.uleb128 0x9
 3921 0bd9 01       		.uleb128 0x1
 3922 0bda 50       		.byte	0x50
 3923 0bdb 01       		.uleb128 0x1
 3924 0bdc 30       		.byte	0x30
 3925 0bdd 09       		.uleb128 0x9
 3926 0bde 01       		.uleb128 0x1
 3927 0bdf 51       		.byte	0x51
 3928 0be0 01       		.uleb128 0x1
 3929 0be1 32       		.byte	0x32
 3930 0be2 00       		.byte	0
 3931 0be3 06       		.uleb128 0x6
 3932 0be4 2E0A0000 		.4byte	.LVL237
 3933 0be8 DC1B0000 		.4byte	0x1bdc
 3934 0bec 0F       		.uleb128 0xf
 3935 0bed 3A0A0000 		.4byte	.LVL238
 3936 0bf1 B01B0000 		.4byte	0x1bb0
 3937 0bf5 FF0B0000 		.4byte	0xbff
 3938 0bf9 09       		.uleb128 0x9
 3939 0bfa 01       		.uleb128 0x1
 3940 0bfb 51       		.byte	0x51
 3941 0bfc 01       		.uleb128 0x1
 3942 0bfd 32       		.byte	0x32
 3943 0bfe 00       		.byte	0
 3944 0bff 0F       		.uleb128 0xf
 3945 0c00 640A0000 		.4byte	.LVL240
ARM GAS  C:\Users\Misha\AppData\Local\Temp\ccVSruQj.s 			page 91


 3946 0c04 9A1B0000 		.4byte	0x1b9a
 3947 0c08 1F0C0000 		.4byte	0xc1f
 3948 0c0c 09       		.uleb128 0x9
 3949 0c0d 01       		.uleb128 0x1
 3950 0c0e 50       		.byte	0x50
 3951 0c0f 03       		.uleb128 0x3
 3952 0c10 0B       		.byte	0xb
 3953 0c11 6AFF     		.2byte	0xff6a
 3954 0c13 09       		.uleb128 0x9
 3955 0c14 01       		.uleb128 0x1
 3956 0c15 51       		.byte	0x51
 3957 0c16 02       		.uleb128 0x2
 3958 0c17 08       		.byte	0x8
 3959 0c18 AA       		.byte	0xaa
 3960 0c19 09       		.uleb128 0x9
 3961 0c1a 01       		.uleb128 0x1
 3962 0c1b 52       		.byte	0x52
 3963 0c1c 01       		.uleb128 0x1
 3964 0c1d 30       		.byte	0x30
 3965 0c1e 00       		.byte	0
 3966 0c1f 0F       		.uleb128 0xf
 3967 0c20 6C0A0000 		.4byte	.LVL241
 3968 0c24 A51B0000 		.4byte	0x1ba5
 3969 0c28 380C0000 		.4byte	0xc38
 3970 0c2c 09       		.uleb128 0x9
 3971 0c2d 01       		.uleb128 0x1
 3972 0c2e 50       		.byte	0x50
 3973 0c2f 01       		.uleb128 0x1
 3974 0c30 33       		.byte	0x33
 3975 0c31 09       		.uleb128 0x9
 3976 0c32 01       		.uleb128 0x1
 3977 0c33 51       		.byte	0x51
 3978 0c34 02       		.uleb128 0x2
 3979 0c35 08       		.byte	0x8
 3980 0c36 AA       		.byte	0xaa
 3981 0c37 00       		.byte	0
 3982 0c38 06       		.uleb128 0x6
 3983 0c39 700A0000 		.4byte	.LVL242
 3984 0c3d 4D1B0000 		.4byte	0x1b4d
 3985 0c41 0F       		.uleb128 0xf
 3986 0c42 860A0000 		.4byte	.LVL243
 3987 0c46 581B0000 		.4byte	0x1b58
 3988 0c4a 730C0000 		.4byte	0xc73
 3989 0c4e 09       		.uleb128 0x9
 3990 0c4f 01       		.uleb128 0x1
 3991 0c50 50       		.byte	0x50
 3992 0c51 03       		.uleb128 0x3
 3993 0c52 0A       		.byte	0xa
 3994 0c53 2602     		.2byte	0x226
 3995 0c55 09       		.uleb128 0x9
 3996 0c56 01       		.uleb128 0x1
 3997 0c57 51       		.byte	0x51
 3998 0c58 01       		.uleb128 0x1
 3999 0c59 30       		.byte	0x30
 4000 0c5a 09       		.uleb128 0x9
 4001 0c5b 01       		.uleb128 0x1
 4002 0c5c 52       		.byte	0x52
ARM GAS  C:\Users\Misha\AppData\Local\Temp\ccVSruQj.s 			page 92


 4003 0c5d 01       		.uleb128 0x1
 4004 0c5e 35       		.byte	0x35
 4005 0c5f 09       		.uleb128 0x9
 4006 0c60 01       		.uleb128 0x1
 4007 0c61 53       		.byte	0x53
 4008 0c62 01       		.uleb128 0x1
 4009 0c63 30       		.byte	0x30
 4010 0c64 09       		.uleb128 0x9
 4011 0c65 02       		.uleb128 0x2
 4012 0c66 7D       		.byte	0x7d
 4013 0c67 00       		.sleb128 0
 4014 0c68 02       		.uleb128 0x2
 4015 0c69 75       		.byte	0x75
 4016 0c6a 00       		.sleb128 0
 4017 0c6b 09       		.uleb128 0x9
 4018 0c6c 02       		.uleb128 0x2
 4019 0c6d 7D       		.byte	0x7d
 4020 0c6e 04       		.sleb128 4
 4021 0c6f 02       		.uleb128 0x2
 4022 0c70 74       		.byte	0x74
 4023 0c71 00       		.sleb128 0
 4024 0c72 00       		.byte	0
 4025 0c73 06       		.uleb128 0x6
 4026 0c74 8A0A0000 		.4byte	.LVL244
 4027 0c78 4D1B0000 		.4byte	0x1b4d
 4028 0c7c 0F       		.uleb128 0xf
 4029 0c7d 920A0000 		.4byte	.LVL245
 4030 0c81 A51B0000 		.4byte	0x1ba5
 4031 0c85 950C0000 		.4byte	0xc95
 4032 0c89 09       		.uleb128 0x9
 4033 0c8a 01       		.uleb128 0x1
 4034 0c8b 50       		.byte	0x50
 4035 0c8c 01       		.uleb128 0x1
 4036 0c8d 32       		.byte	0x32
 4037 0c8e 09       		.uleb128 0x9
 4038 0c8f 01       		.uleb128 0x1
 4039 0c90 51       		.byte	0x51
 4040 0c91 02       		.uleb128 0x2
 4041 0c92 75       		.byte	0x75
 4042 0c93 00       		.sleb128 0
 4043 0c94 00       		.byte	0
 4044 0c95 0F       		.uleb128 0xf
 4045 0c96 9A0A0000 		.4byte	.LVL246
 4046 0c9a A51B0000 		.4byte	0x1ba5
 4047 0c9e AF0C0000 		.4byte	0xcaf
 4048 0ca2 09       		.uleb128 0x9
 4049 0ca3 01       		.uleb128 0x1
 4050 0ca4 50       		.byte	0x50
 4051 0ca5 02       		.uleb128 0x2
 4052 0ca6 74       		.byte	0x74
 4053 0ca7 00       		.sleb128 0
 4054 0ca8 09       		.uleb128 0x9
 4055 0ca9 01       		.uleb128 0x1
 4056 0caa 51       		.byte	0x51
 4057 0cab 02       		.uleb128 0x2
 4058 0cac 75       		.byte	0x75
 4059 0cad 00       		.sleb128 0
ARM GAS  C:\Users\Misha\AppData\Local\Temp\ccVSruQj.s 			page 93


 4060 0cae 00       		.byte	0
 4061 0caf 0F       		.uleb128 0xf
 4062 0cb0 AA0A0000 		.4byte	.LVL247
 4063 0cb4 581B0000 		.4byte	0x1b58
 4064 0cb8 E10C0000 		.4byte	0xce1
 4065 0cbc 09       		.uleb128 0x9
 4066 0cbd 01       		.uleb128 0x1
 4067 0cbe 50       		.byte	0x50
 4068 0cbf 02       		.uleb128 0x2
 4069 0cc0 08       		.byte	0x8
 4070 0cc1 B9       		.byte	0xb9
 4071 0cc2 09       		.uleb128 0x9
 4072 0cc3 01       		.uleb128 0x1
 4073 0cc4 51       		.byte	0x51
 4074 0cc5 02       		.uleb128 0x2
 4075 0cc6 74       		.byte	0x74
 4076 0cc7 00       		.sleb128 0
 4077 0cc8 09       		.uleb128 0x9
 4078 0cc9 01       		.uleb128 0x1
 4079 0cca 52       		.byte	0x52
 4080 0ccb 01       		.uleb128 0x1
 4081 0ccc 34       		.byte	0x34
 4082 0ccd 09       		.uleb128 0x9
 4083 0cce 01       		.uleb128 0x1
 4084 0ccf 53       		.byte	0x53
 4085 0cd0 01       		.uleb128 0x1
 4086 0cd1 30       		.byte	0x30
 4087 0cd2 09       		.uleb128 0x9
 4088 0cd3 02       		.uleb128 0x2
 4089 0cd4 7D       		.byte	0x7d
 4090 0cd5 00       		.sleb128 0
 4091 0cd6 02       		.uleb128 0x2
 4092 0cd7 75       		.byte	0x75
 4093 0cd8 00       		.sleb128 0
 4094 0cd9 09       		.uleb128 0x9
 4095 0cda 02       		.uleb128 0x2
 4096 0cdb 7D       		.byte	0x7d
 4097 0cdc 04       		.sleb128 4
 4098 0cdd 02       		.uleb128 0x2
 4099 0cde 74       		.byte	0x74
 4100 0cdf 00       		.sleb128 0
 4101 0ce0 00       		.byte	0
 4102 0ce1 06       		.uleb128 0x6
 4103 0ce2 AE0A0000 		.4byte	.LVL248
 4104 0ce6 4D1B0000 		.4byte	0x1b4d
 4105 0cea 00       		.byte	0
 4106 0ceb 06       		.uleb128 0x6
 4107 0cec 0C000000 		.4byte	.LVL2
 4108 0cf0 E71B0000 		.4byte	0x1be7
 4109 0cf4 06       		.uleb128 0x6
 4110 0cf5 10000000 		.4byte	.LVL3
 4111 0cf9 F21B0000 		.4byte	0x1bf2
 4112 0cfd 0F       		.uleb128 0xf
 4113 0cfe 16000000 		.4byte	.LVL4
 4114 0d02 421B0000 		.4byte	0x1b42
 4115 0d06 140D0000 		.4byte	0xd14
 4116 0d0a 09       		.uleb128 0x9
ARM GAS  C:\Users\Misha\AppData\Local\Temp\ccVSruQj.s 			page 94


 4117 0d0b 01       		.uleb128 0x1
 4118 0d0c 50       		.byte	0x50
 4119 0d0d 05       		.uleb128 0x5
 4120 0d0e 03       		.byte	0x3
 4121 0d0f 00000000 		.4byte	.LC0
 4122 0d13 00       		.byte	0
 4123 0d14 06       		.uleb128 0x6
 4124 0d15 1A000000 		.4byte	.LVL5
 4125 0d19 FD1B0000 		.4byte	0x1bfd
 4126 0d1d 06       		.uleb128 0x6
 4127 0d1e 1E000000 		.4byte	.LVL6
 4128 0d22 081C0000 		.4byte	0x1c08
 4129 0d26 0F       		.uleb128 0xf
 4130 0d27 24000000 		.4byte	.LVL7
 4131 0d2b 131C0000 		.4byte	0x1c13
 4132 0d2f 390D0000 		.4byte	0xd39
 4133 0d33 09       		.uleb128 0x9
 4134 0d34 01       		.uleb128 0x1
 4135 0d35 50       		.byte	0x50
 4136 0d36 01       		.uleb128 0x1
 4137 0d37 30       		.byte	0x30
 4138 0d38 00       		.byte	0
 4139 0d39 06       		.uleb128 0x6
 4140 0d3a 2C000000 		.4byte	.LVL8
 4141 0d3e 1E1C0000 		.4byte	0x1c1e
 4142 0d42 0F       		.uleb128 0xf
 4143 0d43 36000000 		.4byte	.LVL9
 4144 0d47 6E1B0000 		.4byte	0x1b6e
 4145 0d4b 560D0000 		.4byte	0xd56
 4146 0d4f 09       		.uleb128 0x9
 4147 0d50 01       		.uleb128 0x1
 4148 0d51 50       		.byte	0x50
 4149 0d52 02       		.uleb128 0x2
 4150 0d53 75       		.byte	0x75
 4151 0d54 00       		.sleb128 0
 4152 0d55 00       		.byte	0
 4153 0d56 0F       		.uleb128 0xf
 4154 0d57 3C000000 		.4byte	.LVL10
 4155 0d5b 291C0000 		.4byte	0x1c29
 4156 0d5f 690D0000 		.4byte	0xd69
 4157 0d63 09       		.uleb128 0x9
 4158 0d64 01       		.uleb128 0x1
 4159 0d65 50       		.byte	0x50
 4160 0d66 01       		.uleb128 0x1
 4161 0d67 31       		.byte	0x31
 4162 0d68 00       		.byte	0
 4163 0d69 0F       		.uleb128 0xf
 4164 0d6a 44000000 		.4byte	.LVL11
 4165 0d6e 211B0000 		.4byte	0x1b21
 4166 0d72 7E0D0000 		.4byte	0xd7e
 4167 0d76 09       		.uleb128 0x9
 4168 0d77 01       		.uleb128 0x1
 4169 0d78 50       		.byte	0x50
 4170 0d79 03       		.uleb128 0x3
 4171 0d7a 0A       		.byte	0xa
 4172 0d7b F401     		.2byte	0x1f4
 4173 0d7d 00       		.byte	0
ARM GAS  C:\Users\Misha\AppData\Local\Temp\ccVSruQj.s 			page 95


 4174 0d7e 0F       		.uleb128 0xf
 4175 0d7f 4A000000 		.4byte	.LVL12
 4176 0d83 291C0000 		.4byte	0x1c29
 4177 0d87 910D0000 		.4byte	0xd91
 4178 0d8b 09       		.uleb128 0x9
 4179 0d8c 01       		.uleb128 0x1
 4180 0d8d 50       		.byte	0x50
 4181 0d8e 01       		.uleb128 0x1
 4182 0d8f 32       		.byte	0x32
 4183 0d90 00       		.byte	0
 4184 0d91 0F       		.uleb128 0xf
 4185 0d92 52000000 		.4byte	.LVL13
 4186 0d96 211B0000 		.4byte	0x1b21
 4187 0d9a A60D0000 		.4byte	0xda6
 4188 0d9e 09       		.uleb128 0x9
 4189 0d9f 01       		.uleb128 0x1
 4190 0da0 50       		.byte	0x50
 4191 0da1 03       		.uleb128 0x3
 4192 0da2 0A       		.byte	0xa
 4193 0da3 F401     		.2byte	0x1f4
 4194 0da5 00       		.byte	0
 4195 0da6 0F       		.uleb128 0xf
 4196 0da7 58000000 		.4byte	.LVL14
 4197 0dab 291C0000 		.4byte	0x1c29
 4198 0daf B90D0000 		.4byte	0xdb9
 4199 0db3 09       		.uleb128 0x9
 4200 0db4 01       		.uleb128 0x1
 4201 0db5 50       		.byte	0x50
 4202 0db6 01       		.uleb128 0x1
 4203 0db7 33       		.byte	0x33
 4204 0db8 00       		.byte	0
 4205 0db9 0F       		.uleb128 0xf
 4206 0dba 60000000 		.4byte	.LVL15
 4207 0dbe 211B0000 		.4byte	0x1b21
 4208 0dc2 CE0D0000 		.4byte	0xdce
 4209 0dc6 09       		.uleb128 0x9
 4210 0dc7 01       		.uleb128 0x1
 4211 0dc8 50       		.byte	0x50
 4212 0dc9 03       		.uleb128 0x3
 4213 0dca 0A       		.byte	0xa
 4214 0dcb F401     		.2byte	0x1f4
 4215 0dcd 00       		.byte	0
 4216 0dce 0F       		.uleb128 0xf
 4217 0dcf 66000000 		.4byte	.LVL16
 4218 0dd3 291C0000 		.4byte	0x1c29
 4219 0dd7 E20D0000 		.4byte	0xde2
 4220 0ddb 09       		.uleb128 0x9
 4221 0ddc 01       		.uleb128 0x1
 4222 0ddd 50       		.byte	0x50
 4223 0dde 02       		.uleb128 0x2
 4224 0ddf 75       		.byte	0x75
 4225 0de0 00       		.sleb128 0
 4226 0de1 00       		.byte	0
 4227 0de2 0F       		.uleb128 0xf
 4228 0de3 6E000000 		.4byte	.LVL17
 4229 0de7 211B0000 		.4byte	0x1b21
 4230 0deb F70D0000 		.4byte	0xdf7
ARM GAS  C:\Users\Misha\AppData\Local\Temp\ccVSruQj.s 			page 96


 4231 0def 09       		.uleb128 0x9
 4232 0df0 01       		.uleb128 0x1
 4233 0df1 50       		.byte	0x50
 4234 0df2 03       		.uleb128 0x3
 4235 0df3 0A       		.byte	0xa
 4236 0df4 F401     		.2byte	0x1f4
 4237 0df6 00       		.byte	0
 4238 0df7 06       		.uleb128 0x6
 4239 0df8 72000000 		.4byte	.LVL18
 4240 0dfc 631B0000 		.4byte	0x1b63
 4241 0e00 06       		.uleb128 0x6
 4242 0e01 76000000 		.4byte	.LVL19
 4243 0e05 341C0000 		.4byte	0x1c34
 4244 0e09 0F       		.uleb128 0xf
 4245 0e0a 7E000000 		.4byte	.LVL20
 4246 0e0e 3F1C0000 		.4byte	0x1c3f
 4247 0e12 1E0E0000 		.4byte	0xe1e
 4248 0e16 09       		.uleb128 0x9
 4249 0e17 01       		.uleb128 0x1
 4250 0e18 50       		.byte	0x50
 4251 0e19 03       		.uleb128 0x3
 4252 0e1a 0A       		.byte	0xa
 4253 0e1b E803     		.2byte	0x3e8
 4254 0e1d 00       		.byte	0
 4255 0e1e 0F       		.uleb128 0xf
 4256 0e1f 86000000 		.4byte	.LVL21
 4257 0e23 211B0000 		.4byte	0x1b21
 4258 0e27 330E0000 		.4byte	0xe33
 4259 0e2b 09       		.uleb128 0x9
 4260 0e2c 01       		.uleb128 0x1
 4261 0e2d 50       		.byte	0x50
 4262 0e2e 03       		.uleb128 0x3
 4263 0e2f 0A       		.byte	0xa
 4264 0e30 F401     		.2byte	0x1f4
 4265 0e32 00       		.byte	0
 4266 0e33 06       		.uleb128 0x6
 4267 0e34 8A000000 		.4byte	.LVL22
 4268 0e38 4A1C0000 		.4byte	0x1c4a
 4269 0e3c 06       		.uleb128 0x6
 4270 0e3d 8E000000 		.4byte	.LVL23
 4271 0e41 551C0000 		.4byte	0x1c55
 4272 0e45 0F       		.uleb128 0xf
 4273 0e46 96000000 		.4byte	.LVL24
 4274 0e4a 601C0000 		.4byte	0x1c60
 4275 0e4e 5A0E0000 		.4byte	0xe5a
 4276 0e52 09       		.uleb128 0x9
 4277 0e53 01       		.uleb128 0x1
 4278 0e54 50       		.byte	0x50
 4279 0e55 03       		.uleb128 0x3
 4280 0e56 0A       		.byte	0xa
 4281 0e57 6004     		.2byte	0x460
 4282 0e59 00       		.byte	0
 4283 0e5a 0F       		.uleb128 0xf
 4284 0e5b 9E000000 		.4byte	.LVL25
 4285 0e5f 211B0000 		.4byte	0x1b21
 4286 0e63 6F0E0000 		.4byte	0xe6f
 4287 0e67 09       		.uleb128 0x9
ARM GAS  C:\Users\Misha\AppData\Local\Temp\ccVSruQj.s 			page 97


 4288 0e68 01       		.uleb128 0x1
 4289 0e69 50       		.byte	0x50
 4290 0e6a 03       		.uleb128 0x3
 4291 0e6b 0A       		.byte	0xa
 4292 0e6c F401     		.2byte	0x1f4
 4293 0e6e 00       		.byte	0
 4294 0e6f 06       		.uleb128 0x6
 4295 0e70 A2000000 		.4byte	.LVL26
 4296 0e74 6B1C0000 		.4byte	0x1c6b
 4297 0e78 06       		.uleb128 0x6
 4298 0e79 A6000000 		.4byte	.LVL27
 4299 0e7d 761C0000 		.4byte	0x1c76
 4300 0e81 06       		.uleb128 0x6
 4301 0e82 AA000000 		.4byte	.LVL28
 4302 0e86 811C0000 		.4byte	0x1c81
 4303 0e8a 0F       		.uleb128 0xf
 4304 0e8b B0000000 		.4byte	.LVL29
 4305 0e8f 8C1C0000 		.4byte	0x1c8c
 4306 0e93 9E0E0000 		.4byte	0xe9e
 4307 0e97 09       		.uleb128 0x9
 4308 0e98 01       		.uleb128 0x1
 4309 0e99 50       		.byte	0x50
 4310 0e9a 02       		.uleb128 0x2
 4311 0e9b 75       		.byte	0x75
 4312 0e9c 00       		.sleb128 0
 4313 0e9d 00       		.byte	0
 4314 0e9e 0F       		.uleb128 0xf
 4315 0e9f B6000000 		.4byte	.LVL30
 4316 0ea3 971C0000 		.4byte	0x1c97
 4317 0ea7 B20E0000 		.4byte	0xeb2
 4318 0eab 09       		.uleb128 0x9
 4319 0eac 01       		.uleb128 0x1
 4320 0ead 50       		.byte	0x50
 4321 0eae 02       		.uleb128 0x2
 4322 0eaf 75       		.byte	0x75
 4323 0eb0 00       		.sleb128 0
 4324 0eb1 00       		.byte	0
 4325 0eb2 06       		.uleb128 0x6
 4326 0eb3 BA000000 		.4byte	.LVL31
 4327 0eb7 A21C0000 		.4byte	0x1ca2
 4328 0ebb 06       		.uleb128 0x6
 4329 0ebc BE000000 		.4byte	.LVL32
 4330 0ec0 AD1C0000 		.4byte	0x1cad
 4331 0ec4 06       		.uleb128 0x6
 4332 0ec5 C2000000 		.4byte	.LVL33
 4333 0ec9 B81C0000 		.4byte	0x1cb8
 4334 0ecd 06       		.uleb128 0x6
 4335 0ece C6000000 		.4byte	.LVL34
 4336 0ed2 C31C0000 		.4byte	0x1cc3
 4337 0ed6 06       		.uleb128 0x6
 4338 0ed7 D0000000 		.4byte	.LVL35
 4339 0edb CE1C0000 		.4byte	0x1cce
 4340 0edf 06       		.uleb128 0x6
 4341 0ee0 D4000000 		.4byte	.LVL36
 4342 0ee4 D91C0000 		.4byte	0x1cd9
 4343 0ee8 0F       		.uleb128 0xf
 4344 0ee9 DA000000 		.4byte	.LVL37
ARM GAS  C:\Users\Misha\AppData\Local\Temp\ccVSruQj.s 			page 98


 4345 0eed E41C0000 		.4byte	0x1ce4
 4346 0ef1 FF0E0000 		.4byte	0xeff
 4347 0ef5 09       		.uleb128 0x9
 4348 0ef6 01       		.uleb128 0x1
 4349 0ef7 50       		.byte	0x50
 4350 0ef8 05       		.uleb128 0x5
 4351 0ef9 03       		.byte	0x3
 4352 0efa 00000000 		.4byte	TIH
 4353 0efe 00       		.byte	0
 4354 0eff 0F       		.uleb128 0xf
 4355 0f00 E0000000 		.4byte	.LVL38
 4356 0f04 EF1C0000 		.4byte	0x1cef
 4357 0f08 160F0000 		.4byte	0xf16
 4358 0f0c 09       		.uleb128 0x9
 4359 0f0d 01       		.uleb128 0x1
 4360 0f0e 50       		.byte	0x50
 4361 0f0f 05       		.uleb128 0x5
 4362 0f10 03       		.byte	0x3
 4363 0f11 00000000 		.4byte	StartIH
 4364 0f15 00       		.byte	0
 4365 0f16 0F       		.uleb128 0xf
 4366 0f17 EA000000 		.4byte	.LVL39
 4367 0f1b 421B0000 		.4byte	0x1b42
 4368 0f1f 2D0F0000 		.4byte	0xf2d
 4369 0f23 09       		.uleb128 0x9
 4370 0f24 01       		.uleb128 0x1
 4371 0f25 50       		.byte	0x50
 4372 0f26 05       		.uleb128 0x5
 4373 0f27 03       		.byte	0x3
 4374 0f28 18000000 		.4byte	.LC1
 4375 0f2c 00       		.byte	0
 4376 0f2d 06       		.uleb128 0x6
 4377 0f2e EE000000 		.4byte	.LVL40
 4378 0f32 FA1C0000 		.4byte	0x1cfa
 4379 0f36 06       		.uleb128 0x6
 4380 0f37 F2000000 		.4byte	.LVL41
 4381 0f3b FA1C0000 		.4byte	0x1cfa
 4382 0f3f 06       		.uleb128 0x6
 4383 0f40 F6000000 		.4byte	.LVL42
 4384 0f44 FA1C0000 		.4byte	0x1cfa
 4385 0f48 06       		.uleb128 0x6
 4386 0f49 12010000 		.4byte	.LVL44
 4387 0f4d 051D0000 		.4byte	0x1d05
 4388 0f51 0F       		.uleb128 0xf
 4389 0f52 FE040000 		.4byte	.LVL128
 4390 0f56 581B0000 		.4byte	0x1b58
 4391 0f5a 820F0000 		.4byte	0xf82
 4392 0f5e 09       		.uleb128 0x9
 4393 0f5f 01       		.uleb128 0x1
 4394 0f60 50       		.byte	0x50
 4395 0f61 02       		.uleb128 0x2
 4396 0f62 08       		.byte	0x8
 4397 0f63 E6       		.byte	0xe6
 4398 0f64 09       		.uleb128 0x9
 4399 0f65 01       		.uleb128 0x1
 4400 0f66 51       		.byte	0x51
 4401 0f67 01       		.uleb128 0x1
ARM GAS  C:\Users\Misha\AppData\Local\Temp\ccVSruQj.s 			page 99


 4402 0f68 30       		.byte	0x30
 4403 0f69 09       		.uleb128 0x9
 4404 0f6a 01       		.uleb128 0x1
 4405 0f6b 52       		.byte	0x52
 4406 0f6c 01       		.uleb128 0x1
 4407 0f6d 35       		.byte	0x35
 4408 0f6e 09       		.uleb128 0x9
 4409 0f6f 01       		.uleb128 0x1
 4410 0f70 53       		.byte	0x53
 4411 0f71 01       		.uleb128 0x1
 4412 0f72 30       		.byte	0x30
 4413 0f73 09       		.uleb128 0x9
 4414 0f74 02       		.uleb128 0x2
 4415 0f75 7D       		.byte	0x7d
 4416 0f76 00       		.sleb128 0
 4417 0f77 02       		.uleb128 0x2
 4418 0f78 75       		.byte	0x75
 4419 0f79 00       		.sleb128 0
 4420 0f7a 09       		.uleb128 0x9
 4421 0f7b 02       		.uleb128 0x2
 4422 0f7c 7D       		.byte	0x7d
 4423 0f7d 04       		.sleb128 4
 4424 0f7e 02       		.uleb128 0x2
 4425 0f7f 74       		.byte	0x74
 4426 0f80 00       		.sleb128 0
 4427 0f81 00       		.byte	0
 4428 0f82 06       		.uleb128 0x6
 4429 0f83 02050000 		.4byte	.LVL129
 4430 0f87 4D1B0000 		.4byte	0x1b4d
 4431 0f8b 0F       		.uleb128 0xf
 4432 0f8c 0A050000 		.4byte	.LVL130
 4433 0f90 A51B0000 		.4byte	0x1ba5
 4434 0f94 A40F0000 		.4byte	0xfa4
 4435 0f98 09       		.uleb128 0x9
 4436 0f99 01       		.uleb128 0x1
 4437 0f9a 50       		.byte	0x50
 4438 0f9b 01       		.uleb128 0x1
 4439 0f9c 30       		.byte	0x30
 4440 0f9d 09       		.uleb128 0x9
 4441 0f9e 01       		.uleb128 0x1
 4442 0f9f 51       		.byte	0x51
 4443 0fa0 02       		.uleb128 0x2
 4444 0fa1 75       		.byte	0x75
 4445 0fa2 00       		.sleb128 0
 4446 0fa3 00       		.byte	0
 4447 0fa4 06       		.uleb128 0x6
 4448 0fa5 0E050000 		.4byte	.LVL131
 4449 0fa9 4D1B0000 		.4byte	0x1b4d
 4450 0fad 0F       		.uleb128 0xf
 4451 0fae 1E050000 		.4byte	.LVL132
 4452 0fb2 581B0000 		.4byte	0x1b58
 4453 0fb6 DF0F0000 		.4byte	0xfdf
 4454 0fba 09       		.uleb128 0x9
 4455 0fbb 01       		.uleb128 0x1
 4456 0fbc 50       		.byte	0x50
 4457 0fbd 02       		.uleb128 0x2
 4458 0fbe 08       		.byte	0x8
ARM GAS  C:\Users\Misha\AppData\Local\Temp\ccVSruQj.s 			page 100


 4459 0fbf 82       		.byte	0x82
 4460 0fc0 09       		.uleb128 0x9
 4461 0fc1 01       		.uleb128 0x1
 4462 0fc2 51       		.byte	0x51
 4463 0fc3 02       		.uleb128 0x2
 4464 0fc4 74       		.byte	0x74
 4465 0fc5 00       		.sleb128 0
 4466 0fc6 09       		.uleb128 0x9
 4467 0fc7 01       		.uleb128 0x1
 4468 0fc8 52       		.byte	0x52
 4469 0fc9 01       		.uleb128 0x1
 4470 0fca 34       		.byte	0x34
 4471 0fcb 09       		.uleb128 0x9
 4472 0fcc 01       		.uleb128 0x1
 4473 0fcd 53       		.byte	0x53
 4474 0fce 01       		.uleb128 0x1
 4475 0fcf 30       		.byte	0x30
 4476 0fd0 09       		.uleb128 0x9
 4477 0fd1 02       		.uleb128 0x2
 4478 0fd2 7D       		.byte	0x7d
 4479 0fd3 00       		.sleb128 0
 4480 0fd4 02       		.uleb128 0x2
 4481 0fd5 75       		.byte	0x75
 4482 0fd6 00       		.sleb128 0
 4483 0fd7 09       		.uleb128 0x9
 4484 0fd8 02       		.uleb128 0x2
 4485 0fd9 7D       		.byte	0x7d
 4486 0fda 04       		.sleb128 4
 4487 0fdb 02       		.uleb128 0x2
 4488 0fdc 74       		.byte	0x74
 4489 0fdd 00       		.sleb128 0
 4490 0fde 00       		.byte	0
 4491 0fdf 0F       		.uleb128 0xf
 4492 0fe0 26050000 		.4byte	.LVL133
 4493 0fe4 A51B0000 		.4byte	0x1ba5
 4494 0fe8 F80F0000 		.4byte	0xff8
 4495 0fec 09       		.uleb128 0x9
 4496 0fed 01       		.uleb128 0x1
 4497 0fee 50       		.byte	0x50
 4498 0fef 01       		.uleb128 0x1
 4499 0ff0 33       		.byte	0x33
 4500 0ff1 09       		.uleb128 0x9
 4501 0ff2 01       		.uleb128 0x1
 4502 0ff3 51       		.byte	0x51
 4503 0ff4 02       		.uleb128 0x2
 4504 0ff5 75       		.byte	0x75
 4505 0ff6 00       		.sleb128 0
 4506 0ff7 00       		.byte	0
 4507 0ff8 0F       		.uleb128 0xf
 4508 0ff9 36050000 		.4byte	.LVL134
 4509 0ffd 581B0000 		.4byte	0x1b58
 4510 1001 2A100000 		.4byte	0x102a
 4511 1005 09       		.uleb128 0x9
 4512 1006 01       		.uleb128 0x1
 4513 1007 50       		.byte	0x50
 4514 1008 02       		.uleb128 0x2
 4515 1009 08       		.byte	0x8
ARM GAS  C:\Users\Misha\AppData\Local\Temp\ccVSruQj.s 			page 101


 4516 100a 32       		.byte	0x32
 4517 100b 09       		.uleb128 0x9
 4518 100c 01       		.uleb128 0x1
 4519 100d 51       		.byte	0x51
 4520 100e 02       		.uleb128 0x2
 4521 100f 74       		.byte	0x74
 4522 1010 00       		.sleb128 0
 4523 1011 09       		.uleb128 0x9
 4524 1012 01       		.uleb128 0x1
 4525 1013 52       		.byte	0x52
 4526 1014 01       		.uleb128 0x1
 4527 1015 34       		.byte	0x34
 4528 1016 09       		.uleb128 0x9
 4529 1017 01       		.uleb128 0x1
 4530 1018 53       		.byte	0x53
 4531 1019 01       		.uleb128 0x1
 4532 101a 30       		.byte	0x30
 4533 101b 09       		.uleb128 0x9
 4534 101c 02       		.uleb128 0x2
 4535 101d 7D       		.byte	0x7d
 4536 101e 00       		.sleb128 0
 4537 101f 02       		.uleb128 0x2
 4538 1020 75       		.byte	0x75
 4539 1021 00       		.sleb128 0
 4540 1022 09       		.uleb128 0x9
 4541 1023 02       		.uleb128 0x2
 4542 1024 7D       		.byte	0x7d
 4543 1025 04       		.sleb128 4
 4544 1026 02       		.uleb128 0x2
 4545 1027 74       		.byte	0x74
 4546 1028 00       		.sleb128 0
 4547 1029 00       		.byte	0
 4548 102a 0F       		.uleb128 0xf
 4549 102b 5C050000 		.4byte	.LVL135
 4550 102f 581B0000 		.4byte	0x1b58
 4551 1033 5B100000 		.4byte	0x105b
 4552 1037 09       		.uleb128 0x9
 4553 1038 01       		.uleb128 0x1
 4554 1039 50       		.byte	0x50
 4555 103a 02       		.uleb128 0x2
 4556 103b 08       		.byte	0x8
 4557 103c F0       		.byte	0xf0
 4558 103d 09       		.uleb128 0x9
 4559 103e 01       		.uleb128 0x1
 4560 103f 51       		.byte	0x51
 4561 1040 01       		.uleb128 0x1
 4562 1041 30       		.byte	0x30
 4563 1042 09       		.uleb128 0x9
 4564 1043 01       		.uleb128 0x1
 4565 1044 52       		.byte	0x52
 4566 1045 01       		.uleb128 0x1
 4567 1046 34       		.byte	0x34
 4568 1047 09       		.uleb128 0x9
 4569 1048 01       		.uleb128 0x1
 4570 1049 53       		.byte	0x53
 4571 104a 01       		.uleb128 0x1
 4572 104b 34       		.byte	0x34
ARM GAS  C:\Users\Misha\AppData\Local\Temp\ccVSruQj.s 			page 102


 4573 104c 09       		.uleb128 0x9
 4574 104d 02       		.uleb128 0x2
 4575 104e 7D       		.byte	0x7d
 4576 104f 00       		.sleb128 0
 4577 1050 02       		.uleb128 0x2
 4578 1051 75       		.byte	0x75
 4579 1052 00       		.sleb128 0
 4580 1053 09       		.uleb128 0x9
 4581 1054 02       		.uleb128 0x2
 4582 1055 7D       		.byte	0x7d
 4583 1056 04       		.sleb128 4
 4584 1057 02       		.uleb128 0x2
 4585 1058 74       		.byte	0x74
 4586 1059 00       		.sleb128 0
 4587 105a 00       		.byte	0
 4588 105b 06       		.uleb128 0x6
 4589 105c 60050000 		.4byte	.LVL136
 4590 1060 4D1B0000 		.4byte	0x1b4d
 4591 1064 0F       		.uleb128 0xf
 4592 1065 68050000 		.4byte	.LVL137
 4593 1069 A51B0000 		.4byte	0x1ba5
 4594 106d 7D100000 		.4byte	0x107d
 4595 1071 09       		.uleb128 0x9
 4596 1072 01       		.uleb128 0x1
 4597 1073 50       		.byte	0x50
 4598 1074 01       		.uleb128 0x1
 4599 1075 30       		.byte	0x30
 4600 1076 09       		.uleb128 0x9
 4601 1077 01       		.uleb128 0x1
 4602 1078 51       		.byte	0x51
 4603 1079 02       		.uleb128 0x2
 4604 107a 75       		.byte	0x75
 4605 107b 00       		.sleb128 0
 4606 107c 00       		.byte	0
 4607 107d 06       		.uleb128 0x6
 4608 107e 6C050000 		.4byte	.LVL138
 4609 1082 4D1B0000 		.4byte	0x1b4d
 4610 1086 0F       		.uleb128 0xf
 4611 1087 7C050000 		.4byte	.LVL139
 4612 108b 581B0000 		.4byte	0x1b58
 4613 108f B8100000 		.4byte	0x10b8
 4614 1093 09       		.uleb128 0x9
 4615 1094 01       		.uleb128 0x1
 4616 1095 50       		.byte	0x50
 4617 1096 02       		.uleb128 0x2
 4618 1097 08       		.byte	0x8
 4619 1098 82       		.byte	0x82
 4620 1099 09       		.uleb128 0x9
 4621 109a 01       		.uleb128 0x1
 4622 109b 51       		.byte	0x51
 4623 109c 02       		.uleb128 0x2
 4624 109d 74       		.byte	0x74
 4625 109e 00       		.sleb128 0
 4626 109f 09       		.uleb128 0x9
 4627 10a0 01       		.uleb128 0x1
 4628 10a1 52       		.byte	0x52
 4629 10a2 01       		.uleb128 0x1
ARM GAS  C:\Users\Misha\AppData\Local\Temp\ccVSruQj.s 			page 103


 4630 10a3 34       		.byte	0x34
 4631 10a4 09       		.uleb128 0x9
 4632 10a5 01       		.uleb128 0x1
 4633 10a6 53       		.byte	0x53
 4634 10a7 01       		.uleb128 0x1
 4635 10a8 30       		.byte	0x30
 4636 10a9 09       		.uleb128 0x9
 4637 10aa 02       		.uleb128 0x2
 4638 10ab 7D       		.byte	0x7d
 4639 10ac 00       		.sleb128 0
 4640 10ad 02       		.uleb128 0x2
 4641 10ae 75       		.byte	0x75
 4642 10af 00       		.sleb128 0
 4643 10b0 09       		.uleb128 0x9
 4644 10b1 02       		.uleb128 0x2
 4645 10b2 7D       		.byte	0x7d
 4646 10b3 04       		.sleb128 4
 4647 10b4 02       		.uleb128 0x2
 4648 10b5 74       		.byte	0x74
 4649 10b6 00       		.sleb128 0
 4650 10b7 00       		.byte	0
 4651 10b8 0F       		.uleb128 0xf
 4652 10b9 84050000 		.4byte	.LVL140
 4653 10bd A51B0000 		.4byte	0x1ba5
 4654 10c1 D2100000 		.4byte	0x10d2
 4655 10c5 09       		.uleb128 0x9
 4656 10c6 01       		.uleb128 0x1
 4657 10c7 50       		.byte	0x50
 4658 10c8 02       		.uleb128 0x2
 4659 10c9 74       		.byte	0x74
 4660 10ca 00       		.sleb128 0
 4661 10cb 09       		.uleb128 0x9
 4662 10cc 01       		.uleb128 0x1
 4663 10cd 51       		.byte	0x51
 4664 10ce 02       		.uleb128 0x2
 4665 10cf 75       		.byte	0x75
 4666 10d0 00       		.sleb128 0
 4667 10d1 00       		.byte	0
 4668 10d2 0F       		.uleb128 0xf
 4669 10d3 94050000 		.4byte	.LVL141
 4670 10d7 581B0000 		.4byte	0x1b58
 4671 10db 04110000 		.4byte	0x1104
 4672 10df 09       		.uleb128 0x9
 4673 10e0 01       		.uleb128 0x1
 4674 10e1 50       		.byte	0x50
 4675 10e2 02       		.uleb128 0x2
 4676 10e3 08       		.byte	0x8
 4677 10e4 32       		.byte	0x32
 4678 10e5 09       		.uleb128 0x9
 4679 10e6 01       		.uleb128 0x1
 4680 10e7 51       		.byte	0x51
 4681 10e8 02       		.uleb128 0x2
 4682 10e9 74       		.byte	0x74
 4683 10ea 00       		.sleb128 0
 4684 10eb 09       		.uleb128 0x9
 4685 10ec 01       		.uleb128 0x1
 4686 10ed 52       		.byte	0x52
ARM GAS  C:\Users\Misha\AppData\Local\Temp\ccVSruQj.s 			page 104


 4687 10ee 01       		.uleb128 0x1
 4688 10ef 34       		.byte	0x34
 4689 10f0 09       		.uleb128 0x9
 4690 10f1 01       		.uleb128 0x1
 4691 10f2 53       		.byte	0x53
 4692 10f3 01       		.uleb128 0x1
 4693 10f4 30       		.byte	0x30
 4694 10f5 09       		.uleb128 0x9
 4695 10f6 02       		.uleb128 0x2
 4696 10f7 7D       		.byte	0x7d
 4697 10f8 00       		.sleb128 0
 4698 10f9 02       		.uleb128 0x2
 4699 10fa 75       		.byte	0x75
 4700 10fb 00       		.sleb128 0
 4701 10fc 09       		.uleb128 0x9
 4702 10fd 02       		.uleb128 0x2
 4703 10fe 7D       		.byte	0x7d
 4704 10ff 04       		.sleb128 4
 4705 1100 02       		.uleb128 0x2
 4706 1101 74       		.byte	0x74
 4707 1102 00       		.sleb128 0
 4708 1103 00       		.byte	0
 4709 1104 0F       		.uleb128 0xf
 4710 1105 BA050000 		.4byte	.LVL142
 4711 1109 581B0000 		.4byte	0x1b58
 4712 110d 36110000 		.4byte	0x1136
 4713 1111 09       		.uleb128 0x9
 4714 1112 01       		.uleb128 0x1
 4715 1113 50       		.byte	0x50
 4716 1114 03       		.uleb128 0x3
 4717 1115 0A       		.byte	0xa
 4718 1116 0E01     		.2byte	0x10e
 4719 1118 09       		.uleb128 0x9
 4720 1119 01       		.uleb128 0x1
 4721 111a 51       		.byte	0x51
 4722 111b 01       		.uleb128 0x1
 4723 111c 30       		.byte	0x30
 4724 111d 09       		.uleb128 0x9
 4725 111e 01       		.uleb128 0x1
 4726 111f 52       		.byte	0x52
 4727 1120 01       		.uleb128 0x1
 4728 1121 34       		.byte	0x34
 4729 1122 09       		.uleb128 0x9
 4730 1123 01       		.uleb128 0x1
 4731 1124 53       		.byte	0x53
 4732 1125 01       		.uleb128 0x1
 4733 1126 34       		.byte	0x34
 4734 1127 09       		.uleb128 0x9
 4735 1128 02       		.uleb128 0x2
 4736 1129 7D       		.byte	0x7d
 4737 112a 00       		.sleb128 0
 4738 112b 02       		.uleb128 0x2
 4739 112c 75       		.byte	0x75
 4740 112d 00       		.sleb128 0
 4741 112e 09       		.uleb128 0x9
 4742 112f 02       		.uleb128 0x2
 4743 1130 7D       		.byte	0x7d
ARM GAS  C:\Users\Misha\AppData\Local\Temp\ccVSruQj.s 			page 105


 4744 1131 04       		.sleb128 4
 4745 1132 02       		.uleb128 0x2
 4746 1133 74       		.byte	0x74
 4747 1134 00       		.sleb128 0
 4748 1135 00       		.byte	0
 4749 1136 06       		.uleb128 0x6
 4750 1137 BE050000 		.4byte	.LVL143
 4751 113b 4D1B0000 		.4byte	0x1b4d
 4752 113f 0F       		.uleb128 0xf
 4753 1140 C6050000 		.4byte	.LVL144
 4754 1144 A51B0000 		.4byte	0x1ba5
 4755 1148 58110000 		.4byte	0x1158
 4756 114c 09       		.uleb128 0x9
 4757 114d 01       		.uleb128 0x1
 4758 114e 50       		.byte	0x50
 4759 114f 01       		.uleb128 0x1
 4760 1150 30       		.byte	0x30
 4761 1151 09       		.uleb128 0x9
 4762 1152 01       		.uleb128 0x1
 4763 1153 51       		.byte	0x51
 4764 1154 02       		.uleb128 0x2
 4765 1155 75       		.byte	0x75
 4766 1156 00       		.sleb128 0
 4767 1157 00       		.byte	0
 4768 1158 06       		.uleb128 0x6
 4769 1159 CA050000 		.4byte	.LVL145
 4770 115d 4D1B0000 		.4byte	0x1b4d
 4771 1161 0F       		.uleb128 0xf
 4772 1162 DA050000 		.4byte	.LVL146
 4773 1166 581B0000 		.4byte	0x1b58
 4774 116a 93110000 		.4byte	0x1193
 4775 116e 09       		.uleb128 0x9
 4776 116f 01       		.uleb128 0x1
 4777 1170 50       		.byte	0x50
 4778 1171 02       		.uleb128 0x2
 4779 1172 08       		.byte	0x8
 4780 1173 82       		.byte	0x82
 4781 1174 09       		.uleb128 0x9
 4782 1175 01       		.uleb128 0x1
 4783 1176 51       		.byte	0x51
 4784 1177 02       		.uleb128 0x2
 4785 1178 74       		.byte	0x74
 4786 1179 00       		.sleb128 0
 4787 117a 09       		.uleb128 0x9
 4788 117b 01       		.uleb128 0x1
 4789 117c 52       		.byte	0x52
 4790 117d 01       		.uleb128 0x1
 4791 117e 34       		.byte	0x34
 4792 117f 09       		.uleb128 0x9
 4793 1180 01       		.uleb128 0x1
 4794 1181 53       		.byte	0x53
 4795 1182 01       		.uleb128 0x1
 4796 1183 30       		.byte	0x30
 4797 1184 09       		.uleb128 0x9
 4798 1185 02       		.uleb128 0x2
 4799 1186 7D       		.byte	0x7d
 4800 1187 00       		.sleb128 0
ARM GAS  C:\Users\Misha\AppData\Local\Temp\ccVSruQj.s 			page 106


 4801 1188 02       		.uleb128 0x2
 4802 1189 75       		.byte	0x75
 4803 118a 00       		.sleb128 0
 4804 118b 09       		.uleb128 0x9
 4805 118c 02       		.uleb128 0x2
 4806 118d 7D       		.byte	0x7d
 4807 118e 04       		.sleb128 4
 4808 118f 02       		.uleb128 0x2
 4809 1190 74       		.byte	0x74
 4810 1191 00       		.sleb128 0
 4811 1192 00       		.byte	0
 4812 1193 0F       		.uleb128 0xf
 4813 1194 E2050000 		.4byte	.LVL147
 4814 1198 A51B0000 		.4byte	0x1ba5
 4815 119c AD110000 		.4byte	0x11ad
 4816 11a0 09       		.uleb128 0x9
 4817 11a1 01       		.uleb128 0x1
 4818 11a2 50       		.byte	0x50
 4819 11a3 02       		.uleb128 0x2
 4820 11a4 74       		.byte	0x74
 4821 11a5 00       		.sleb128 0
 4822 11a6 09       		.uleb128 0x9
 4823 11a7 01       		.uleb128 0x1
 4824 11a8 51       		.byte	0x51
 4825 11a9 02       		.uleb128 0x2
 4826 11aa 75       		.byte	0x75
 4827 11ab 00       		.sleb128 0
 4828 11ac 00       		.byte	0
 4829 11ad 0F       		.uleb128 0xf
 4830 11ae F2050000 		.4byte	.LVL148
 4831 11b2 581B0000 		.4byte	0x1b58
 4832 11b6 DF110000 		.4byte	0x11df
 4833 11ba 09       		.uleb128 0x9
 4834 11bb 01       		.uleb128 0x1
 4835 11bc 50       		.byte	0x50
 4836 11bd 02       		.uleb128 0x2
 4837 11be 08       		.byte	0x8
 4838 11bf 32       		.byte	0x32
 4839 11c0 09       		.uleb128 0x9
 4840 11c1 01       		.uleb128 0x1
 4841 11c2 51       		.byte	0x51
 4842 11c3 02       		.uleb128 0x2
 4843 11c4 74       		.byte	0x74
 4844 11c5 00       		.sleb128 0
 4845 11c6 09       		.uleb128 0x9
 4846 11c7 01       		.uleb128 0x1
 4847 11c8 52       		.byte	0x52
 4848 11c9 01       		.uleb128 0x1
 4849 11ca 34       		.byte	0x34
 4850 11cb 09       		.uleb128 0x9
 4851 11cc 01       		.uleb128 0x1
 4852 11cd 53       		.byte	0x53
 4853 11ce 01       		.uleb128 0x1
 4854 11cf 30       		.byte	0x30
 4855 11d0 09       		.uleb128 0x9
 4856 11d1 02       		.uleb128 0x2
 4857 11d2 7D       		.byte	0x7d
ARM GAS  C:\Users\Misha\AppData\Local\Temp\ccVSruQj.s 			page 107


 4858 11d3 00       		.sleb128 0
 4859 11d4 02       		.uleb128 0x2
 4860 11d5 75       		.byte	0x75
 4861 11d6 00       		.sleb128 0
 4862 11d7 09       		.uleb128 0x9
 4863 11d8 02       		.uleb128 0x2
 4864 11d9 7D       		.byte	0x7d
 4865 11da 04       		.sleb128 4
 4866 11db 02       		.uleb128 0x2
 4867 11dc 74       		.byte	0x74
 4868 11dd 00       		.sleb128 0
 4869 11de 00       		.byte	0
 4870 11df 0F       		.uleb128 0xf
 4871 11e0 38060000 		.4byte	.LVL149
 4872 11e4 581B0000 		.4byte	0x1b58
 4873 11e8 11120000 		.4byte	0x1211
 4874 11ec 09       		.uleb128 0x9
 4875 11ed 01       		.uleb128 0x1
 4876 11ee 50       		.byte	0x50
 4877 11ef 03       		.uleb128 0x3
 4878 11f0 0A       		.byte	0xa
 4879 11f1 0E01     		.2byte	0x10e
 4880 11f3 09       		.uleb128 0x9
 4881 11f4 01       		.uleb128 0x1
 4882 11f5 51       		.byte	0x51
 4883 11f6 01       		.uleb128 0x1
 4884 11f7 30       		.byte	0x30
 4885 11f8 09       		.uleb128 0x9
 4886 11f9 01       		.uleb128 0x1
 4887 11fa 52       		.byte	0x52
 4888 11fb 01       		.uleb128 0x1
 4889 11fc 34       		.byte	0x34
 4890 11fd 09       		.uleb128 0x9
 4891 11fe 01       		.uleb128 0x1
 4892 11ff 53       		.byte	0x53
 4893 1200 01       		.uleb128 0x1
 4894 1201 34       		.byte	0x34
 4895 1202 09       		.uleb128 0x9
 4896 1203 02       		.uleb128 0x2
 4897 1204 7D       		.byte	0x7d
 4898 1205 00       		.sleb128 0
 4899 1206 02       		.uleb128 0x2
 4900 1207 75       		.byte	0x75
 4901 1208 00       		.sleb128 0
 4902 1209 09       		.uleb128 0x9
 4903 120a 02       		.uleb128 0x2
 4904 120b 7D       		.byte	0x7d
 4905 120c 04       		.sleb128 4
 4906 120d 02       		.uleb128 0x2
 4907 120e 74       		.byte	0x74
 4908 120f 00       		.sleb128 0
 4909 1210 00       		.byte	0
 4910 1211 06       		.uleb128 0x6
 4911 1212 3C060000 		.4byte	.LVL150
 4912 1216 4D1B0000 		.4byte	0x1b4d
 4913 121a 0F       		.uleb128 0xf
 4914 121b 44060000 		.4byte	.LVL151
ARM GAS  C:\Users\Misha\AppData\Local\Temp\ccVSruQj.s 			page 108


 4915 121f A51B0000 		.4byte	0x1ba5
 4916 1223 33120000 		.4byte	0x1233
 4917 1227 09       		.uleb128 0x9
 4918 1228 01       		.uleb128 0x1
 4919 1229 50       		.byte	0x50
 4920 122a 01       		.uleb128 0x1
 4921 122b 30       		.byte	0x30
 4922 122c 09       		.uleb128 0x9
 4923 122d 01       		.uleb128 0x1
 4924 122e 51       		.byte	0x51
 4925 122f 02       		.uleb128 0x2
 4926 1230 75       		.byte	0x75
 4927 1231 00       		.sleb128 0
 4928 1232 00       		.byte	0
 4929 1233 06       		.uleb128 0x6
 4930 1234 48060000 		.4byte	.LVL152
 4931 1238 4D1B0000 		.4byte	0x1b4d
 4932 123c 0F       		.uleb128 0xf
 4933 123d 58060000 		.4byte	.LVL153
 4934 1241 581B0000 		.4byte	0x1b58
 4935 1245 6E120000 		.4byte	0x126e
 4936 1249 09       		.uleb128 0x9
 4937 124a 01       		.uleb128 0x1
 4938 124b 50       		.byte	0x50
 4939 124c 02       		.uleb128 0x2
 4940 124d 08       		.byte	0x8
 4941 124e 82       		.byte	0x82
 4942 124f 09       		.uleb128 0x9
 4943 1250 01       		.uleb128 0x1
 4944 1251 51       		.byte	0x51
 4945 1252 02       		.uleb128 0x2
 4946 1253 74       		.byte	0x74
 4947 1254 00       		.sleb128 0
 4948 1255 09       		.uleb128 0x9
 4949 1256 01       		.uleb128 0x1
 4950 1257 52       		.byte	0x52
 4951 1258 01       		.uleb128 0x1
 4952 1259 34       		.byte	0x34
 4953 125a 09       		.uleb128 0x9
 4954 125b 01       		.uleb128 0x1
 4955 125c 53       		.byte	0x53
 4956 125d 01       		.uleb128 0x1
 4957 125e 30       		.byte	0x30
 4958 125f 09       		.uleb128 0x9
 4959 1260 02       		.uleb128 0x2
 4960 1261 7D       		.byte	0x7d
 4961 1262 00       		.sleb128 0
 4962 1263 02       		.uleb128 0x2
 4963 1264 75       		.byte	0x75
 4964 1265 00       		.sleb128 0
 4965 1266 09       		.uleb128 0x9
 4966 1267 02       		.uleb128 0x2
 4967 1268 7D       		.byte	0x7d
 4968 1269 04       		.sleb128 4
 4969 126a 02       		.uleb128 0x2
 4970 126b 74       		.byte	0x74
 4971 126c 00       		.sleb128 0
ARM GAS  C:\Users\Misha\AppData\Local\Temp\ccVSruQj.s 			page 109


 4972 126d 00       		.byte	0
 4973 126e 0F       		.uleb128 0xf
 4974 126f 60060000 		.4byte	.LVL154
 4975 1273 A51B0000 		.4byte	0x1ba5
 4976 1277 87120000 		.4byte	0x1287
 4977 127b 09       		.uleb128 0x9
 4978 127c 01       		.uleb128 0x1
 4979 127d 50       		.byte	0x50
 4980 127e 01       		.uleb128 0x1
 4981 127f 33       		.byte	0x33
 4982 1280 09       		.uleb128 0x9
 4983 1281 01       		.uleb128 0x1
 4984 1282 51       		.byte	0x51
 4985 1283 02       		.uleb128 0x2
 4986 1284 75       		.byte	0x75
 4987 1285 00       		.sleb128 0
 4988 1286 00       		.byte	0
 4989 1287 0F       		.uleb128 0xf
 4990 1288 70060000 		.4byte	.LVL155
 4991 128c 581B0000 		.4byte	0x1b58
 4992 1290 B9120000 		.4byte	0x12b9
 4993 1294 09       		.uleb128 0x9
 4994 1295 01       		.uleb128 0x1
 4995 1296 50       		.byte	0x50
 4996 1297 02       		.uleb128 0x2
 4997 1298 08       		.byte	0x8
 4998 1299 32       		.byte	0x32
 4999 129a 09       		.uleb128 0x9
 5000 129b 01       		.uleb128 0x1
 5001 129c 51       		.byte	0x51
 5002 129d 02       		.uleb128 0x2
 5003 129e 74       		.byte	0x74
 5004 129f 00       		.sleb128 0
 5005 12a0 09       		.uleb128 0x9
 5006 12a1 01       		.uleb128 0x1
 5007 12a2 52       		.byte	0x52
 5008 12a3 01       		.uleb128 0x1
 5009 12a4 34       		.byte	0x34
 5010 12a5 09       		.uleb128 0x9
 5011 12a6 01       		.uleb128 0x1
 5012 12a7 53       		.byte	0x53
 5013 12a8 01       		.uleb128 0x1
 5014 12a9 30       		.byte	0x30
 5015 12aa 09       		.uleb128 0x9
 5016 12ab 02       		.uleb128 0x2
 5017 12ac 7D       		.byte	0x7d
 5018 12ad 00       		.sleb128 0
 5019 12ae 02       		.uleb128 0x2
 5020 12af 75       		.byte	0x75
 5021 12b0 00       		.sleb128 0
 5022 12b1 09       		.uleb128 0x9
 5023 12b2 02       		.uleb128 0x2
 5024 12b3 7D       		.byte	0x7d
 5025 12b4 04       		.sleb128 4
 5026 12b5 02       		.uleb128 0x2
 5027 12b6 74       		.byte	0x74
 5028 12b7 00       		.sleb128 0
ARM GAS  C:\Users\Misha\AppData\Local\Temp\ccVSruQj.s 			page 110


 5029 12b8 00       		.byte	0
 5030 12b9 0F       		.uleb128 0xf
 5031 12ba 48070000 		.4byte	.LVL175
 5032 12be 581B0000 		.4byte	0x1b58
 5033 12c2 EA120000 		.4byte	0x12ea
 5034 12c6 09       		.uleb128 0x9
 5035 12c7 01       		.uleb128 0x1
 5036 12c8 50       		.byte	0x50
 5037 12c9 02       		.uleb128 0x2
 5038 12ca 08       		.byte	0x8
 5039 12cb 64       		.byte	0x64
 5040 12cc 09       		.uleb128 0x9
 5041 12cd 01       		.uleb128 0x1
 5042 12ce 51       		.byte	0x51
 5043 12cf 01       		.uleb128 0x1
 5044 12d0 30       		.byte	0x30
 5045 12d1 09       		.uleb128 0x9
 5046 12d2 01       		.uleb128 0x1
 5047 12d3 52       		.byte	0x52
 5048 12d4 01       		.uleb128 0x1
 5049 12d5 34       		.byte	0x34
 5050 12d6 09       		.uleb128 0x9
 5051 12d7 01       		.uleb128 0x1
 5052 12d8 53       		.byte	0x53
 5053 12d9 01       		.uleb128 0x1
 5054 12da 34       		.byte	0x34
 5055 12db 09       		.uleb128 0x9
 5056 12dc 02       		.uleb128 0x2
 5057 12dd 7D       		.byte	0x7d
 5058 12de 00       		.sleb128 0
 5059 12df 02       		.uleb128 0x2
 5060 12e0 75       		.byte	0x75
 5061 12e1 00       		.sleb128 0
 5062 12e2 09       		.uleb128 0x9
 5063 12e3 02       		.uleb128 0x2
 5064 12e4 7D       		.byte	0x7d
 5065 12e5 04       		.sleb128 4
 5066 12e6 02       		.uleb128 0x2
 5067 12e7 74       		.byte	0x74
 5068 12e8 00       		.sleb128 0
 5069 12e9 00       		.byte	0
 5070 12ea 0F       		.uleb128 0xf
 5071 12eb 50070000 		.4byte	.LVL176
 5072 12ef A51B0000 		.4byte	0x1ba5
 5073 12f3 03130000 		.4byte	0x1303
 5074 12f7 09       		.uleb128 0x9
 5075 12f8 01       		.uleb128 0x1
 5076 12f9 50       		.byte	0x50
 5077 12fa 01       		.uleb128 0x1
 5078 12fb 30       		.byte	0x30
 5079 12fc 09       		.uleb128 0x9
 5080 12fd 01       		.uleb128 0x1
 5081 12fe 51       		.byte	0x51
 5082 12ff 02       		.uleb128 0x2
 5083 1300 75       		.byte	0x75
 5084 1301 00       		.sleb128 0
 5085 1302 00       		.byte	0
ARM GAS  C:\Users\Misha\AppData\Local\Temp\ccVSruQj.s 			page 111


 5086 1303 06       		.uleb128 0x6
 5087 1304 54070000 		.4byte	.LVL177
 5088 1308 4D1B0000 		.4byte	0x1b4d
 5089 130c 0F       		.uleb128 0xf
 5090 130d 64070000 		.4byte	.LVL178
 5091 1311 581B0000 		.4byte	0x1b58
 5092 1315 3D130000 		.4byte	0x133d
 5093 1319 09       		.uleb128 0x9
 5094 131a 01       		.uleb128 0x1
 5095 131b 50       		.byte	0x50
 5096 131c 02       		.uleb128 0x2
 5097 131d 08       		.byte	0x8
 5098 131e F0       		.byte	0xf0
 5099 131f 09       		.uleb128 0x9
 5100 1320 01       		.uleb128 0x1
 5101 1321 51       		.byte	0x51
 5102 1322 01       		.uleb128 0x1
 5103 1323 30       		.byte	0x30
 5104 1324 09       		.uleb128 0x9
 5105 1325 01       		.uleb128 0x1
 5106 1326 52       		.byte	0x52
 5107 1327 01       		.uleb128 0x1
 5108 1328 34       		.byte	0x34
 5109 1329 09       		.uleb128 0x9
 5110 132a 01       		.uleb128 0x1
 5111 132b 53       		.byte	0x53
 5112 132c 01       		.uleb128 0x1
 5113 132d 34       		.byte	0x34
 5114 132e 09       		.uleb128 0x9
 5115 132f 02       		.uleb128 0x2
 5116 1330 7D       		.byte	0x7d
 5117 1331 00       		.sleb128 0
 5118 1332 02       		.uleb128 0x2
 5119 1333 75       		.byte	0x75
 5120 1334 00       		.sleb128 0
 5121 1335 09       		.uleb128 0x9
 5122 1336 02       		.uleb128 0x2
 5123 1337 7D       		.byte	0x7d
 5124 1338 04       		.sleb128 4
 5125 1339 02       		.uleb128 0x2
 5126 133a 74       		.byte	0x74
 5127 133b 00       		.sleb128 0
 5128 133c 00       		.byte	0
 5129 133d 06       		.uleb128 0x6
 5130 133e 68070000 		.4byte	.LVL179
 5131 1342 4D1B0000 		.4byte	0x1b4d
 5132 1346 0F       		.uleb128 0xf
 5133 1347 70070000 		.4byte	.LVL180
 5134 134b A51B0000 		.4byte	0x1ba5
 5135 134f 60130000 		.4byte	0x1360
 5136 1353 09       		.uleb128 0x9
 5137 1354 01       		.uleb128 0x1
 5138 1355 50       		.byte	0x50
 5139 1356 02       		.uleb128 0x2
 5140 1357 74       		.byte	0x74
 5141 1358 00       		.sleb128 0
 5142 1359 09       		.uleb128 0x9
ARM GAS  C:\Users\Misha\AppData\Local\Temp\ccVSruQj.s 			page 112


 5143 135a 01       		.uleb128 0x1
 5144 135b 51       		.byte	0x51
 5145 135c 02       		.uleb128 0x2
 5146 135d 75       		.byte	0x75
 5147 135e 00       		.sleb128 0
 5148 135f 00       		.byte	0
 5149 1360 06       		.uleb128 0x6
 5150 1361 74070000 		.4byte	.LVL181
 5151 1365 4D1B0000 		.4byte	0x1b4d
 5152 1369 0F       		.uleb128 0xf
 5153 136a 84070000 		.4byte	.LVL182
 5154 136e 581B0000 		.4byte	0x1b58
 5155 1372 9B130000 		.4byte	0x139b
 5156 1376 09       		.uleb128 0x9
 5157 1377 01       		.uleb128 0x1
 5158 1378 50       		.byte	0x50
 5159 1379 02       		.uleb128 0x2
 5160 137a 08       		.byte	0x8
 5161 137b 82       		.byte	0x82
 5162 137c 09       		.uleb128 0x9
 5163 137d 01       		.uleb128 0x1
 5164 137e 51       		.byte	0x51
 5165 137f 02       		.uleb128 0x2
 5166 1380 74       		.byte	0x74
 5167 1381 00       		.sleb128 0
 5168 1382 09       		.uleb128 0x9
 5169 1383 01       		.uleb128 0x1
 5170 1384 52       		.byte	0x52
 5171 1385 01       		.uleb128 0x1
 5172 1386 34       		.byte	0x34
 5173 1387 09       		.uleb128 0x9
 5174 1388 01       		.uleb128 0x1
 5175 1389 53       		.byte	0x53
 5176 138a 01       		.uleb128 0x1
 5177 138b 30       		.byte	0x30
 5178 138c 09       		.uleb128 0x9
 5179 138d 02       		.uleb128 0x2
 5180 138e 7D       		.byte	0x7d
 5181 138f 00       		.sleb128 0
 5182 1390 02       		.uleb128 0x2
 5183 1391 75       		.byte	0x75
 5184 1392 00       		.sleb128 0
 5185 1393 09       		.uleb128 0x9
 5186 1394 02       		.uleb128 0x2
 5187 1395 7D       		.byte	0x7d
 5188 1396 04       		.sleb128 4
 5189 1397 02       		.uleb128 0x2
 5190 1398 74       		.byte	0x74
 5191 1399 00       		.sleb128 0
 5192 139a 00       		.byte	0
 5193 139b 06       		.uleb128 0x6
 5194 139c 88070000 		.4byte	.LVL183
 5195 13a0 4D1B0000 		.4byte	0x1b4d
 5196 13a4 0F       		.uleb128 0xf
 5197 13a5 B2070000 		.4byte	.LVL184
 5198 13a9 581B0000 		.4byte	0x1b58
 5199 13ad D5130000 		.4byte	0x13d5
ARM GAS  C:\Users\Misha\AppData\Local\Temp\ccVSruQj.s 			page 113


 5200 13b1 09       		.uleb128 0x9
 5201 13b2 01       		.uleb128 0x1
 5202 13b3 50       		.byte	0x50
 5203 13b4 02       		.uleb128 0x2
 5204 13b5 08       		.byte	0x8
 5205 13b6 64       		.byte	0x64
 5206 13b7 09       		.uleb128 0x9
 5207 13b8 01       		.uleb128 0x1
 5208 13b9 51       		.byte	0x51
 5209 13ba 01       		.uleb128 0x1
 5210 13bb 30       		.byte	0x30
 5211 13bc 09       		.uleb128 0x9
 5212 13bd 01       		.uleb128 0x1
 5213 13be 52       		.byte	0x52
 5214 13bf 01       		.uleb128 0x1
 5215 13c0 34       		.byte	0x34
 5216 13c1 09       		.uleb128 0x9
 5217 13c2 01       		.uleb128 0x1
 5218 13c3 53       		.byte	0x53
 5219 13c4 01       		.uleb128 0x1
 5220 13c5 34       		.byte	0x34
 5221 13c6 09       		.uleb128 0x9
 5222 13c7 02       		.uleb128 0x2
 5223 13c8 7D       		.byte	0x7d
 5224 13c9 00       		.sleb128 0
 5225 13ca 02       		.uleb128 0x2
 5226 13cb 75       		.byte	0x75
 5227 13cc 00       		.sleb128 0
 5228 13cd 09       		.uleb128 0x9
 5229 13ce 02       		.uleb128 0x2
 5230 13cf 7D       		.byte	0x7d
 5231 13d0 04       		.sleb128 4
 5232 13d1 02       		.uleb128 0x2
 5233 13d2 74       		.byte	0x74
 5234 13d3 00       		.sleb128 0
 5235 13d4 00       		.byte	0
 5236 13d5 0F       		.uleb128 0xf
 5237 13d6 BA070000 		.4byte	.LVL185
 5238 13da A51B0000 		.4byte	0x1ba5
 5239 13de EE130000 		.4byte	0x13ee
 5240 13e2 09       		.uleb128 0x9
 5241 13e3 01       		.uleb128 0x1
 5242 13e4 50       		.byte	0x50
 5243 13e5 01       		.uleb128 0x1
 5244 13e6 30       		.byte	0x30
 5245 13e7 09       		.uleb128 0x9
 5246 13e8 01       		.uleb128 0x1
 5247 13e9 51       		.byte	0x51
 5248 13ea 02       		.uleb128 0x2
 5249 13eb 75       		.byte	0x75
 5250 13ec 00       		.sleb128 0
 5251 13ed 00       		.byte	0
 5252 13ee 06       		.uleb128 0x6
 5253 13ef BE070000 		.4byte	.LVL186
 5254 13f3 4D1B0000 		.4byte	0x1b4d
 5255 13f7 0F       		.uleb128 0xf
 5256 13f8 CE070000 		.4byte	.LVL187
ARM GAS  C:\Users\Misha\AppData\Local\Temp\ccVSruQj.s 			page 114


 5257 13fc 581B0000 		.4byte	0x1b58
 5258 1400 28140000 		.4byte	0x1428
 5259 1404 09       		.uleb128 0x9
 5260 1405 01       		.uleb128 0x1
 5261 1406 50       		.byte	0x50
 5262 1407 02       		.uleb128 0x2
 5263 1408 08       		.byte	0x8
 5264 1409 F0       		.byte	0xf0
 5265 140a 09       		.uleb128 0x9
 5266 140b 01       		.uleb128 0x1
 5267 140c 51       		.byte	0x51
 5268 140d 01       		.uleb128 0x1
 5269 140e 30       		.byte	0x30
 5270 140f 09       		.uleb128 0x9
 5271 1410 01       		.uleb128 0x1
 5272 1411 52       		.byte	0x52
 5273 1412 01       		.uleb128 0x1
 5274 1413 34       		.byte	0x34
 5275 1414 09       		.uleb128 0x9
 5276 1415 01       		.uleb128 0x1
 5277 1416 53       		.byte	0x53
 5278 1417 01       		.uleb128 0x1
 5279 1418 34       		.byte	0x34
 5280 1419 09       		.uleb128 0x9
 5281 141a 02       		.uleb128 0x2
 5282 141b 7D       		.byte	0x7d
 5283 141c 00       		.sleb128 0
 5284 141d 02       		.uleb128 0x2
 5285 141e 75       		.byte	0x75
 5286 141f 00       		.sleb128 0
 5287 1420 09       		.uleb128 0x9
 5288 1421 02       		.uleb128 0x2
 5289 1422 7D       		.byte	0x7d
 5290 1423 04       		.sleb128 4
 5291 1424 02       		.uleb128 0x2
 5292 1425 74       		.byte	0x74
 5293 1426 00       		.sleb128 0
 5294 1427 00       		.byte	0
 5295 1428 06       		.uleb128 0x6
 5296 1429 D2070000 		.4byte	.LVL188
 5297 142d 4D1B0000 		.4byte	0x1b4d
 5298 1431 0F       		.uleb128 0xf
 5299 1432 DA070000 		.4byte	.LVL189
 5300 1436 A51B0000 		.4byte	0x1ba5
 5301 143a 4B140000 		.4byte	0x144b
 5302 143e 09       		.uleb128 0x9
 5303 143f 01       		.uleb128 0x1
 5304 1440 50       		.byte	0x50
 5305 1441 02       		.uleb128 0x2
 5306 1442 74       		.byte	0x74
 5307 1443 00       		.sleb128 0
 5308 1444 09       		.uleb128 0x9
 5309 1445 01       		.uleb128 0x1
 5310 1446 51       		.byte	0x51
 5311 1447 02       		.uleb128 0x2
 5312 1448 75       		.byte	0x75
 5313 1449 00       		.sleb128 0
ARM GAS  C:\Users\Misha\AppData\Local\Temp\ccVSruQj.s 			page 115


 5314 144a 00       		.byte	0
 5315 144b 06       		.uleb128 0x6
 5316 144c DE070000 		.4byte	.LVL190
 5317 1450 4D1B0000 		.4byte	0x1b4d
 5318 1454 0F       		.uleb128 0xf
 5319 1455 EE070000 		.4byte	.LVL191
 5320 1459 581B0000 		.4byte	0x1b58
 5321 145d 86140000 		.4byte	0x1486
 5322 1461 09       		.uleb128 0x9
 5323 1462 01       		.uleb128 0x1
 5324 1463 50       		.byte	0x50
 5325 1464 02       		.uleb128 0x2
 5326 1465 08       		.byte	0x8
 5327 1466 82       		.byte	0x82
 5328 1467 09       		.uleb128 0x9
 5329 1468 01       		.uleb128 0x1
 5330 1469 51       		.byte	0x51
 5331 146a 02       		.uleb128 0x2
 5332 146b 74       		.byte	0x74
 5333 146c 00       		.sleb128 0
 5334 146d 09       		.uleb128 0x9
 5335 146e 01       		.uleb128 0x1
 5336 146f 52       		.byte	0x52
 5337 1470 01       		.uleb128 0x1
 5338 1471 34       		.byte	0x34
 5339 1472 09       		.uleb128 0x9
 5340 1473 01       		.uleb128 0x1
 5341 1474 53       		.byte	0x53
 5342 1475 01       		.uleb128 0x1
 5343 1476 30       		.byte	0x30
 5344 1477 09       		.uleb128 0x9
 5345 1478 02       		.uleb128 0x2
 5346 1479 7D       		.byte	0x7d
 5347 147a 00       		.sleb128 0
 5348 147b 02       		.uleb128 0x2
 5349 147c 75       		.byte	0x75
 5350 147d 00       		.sleb128 0
 5351 147e 09       		.uleb128 0x9
 5352 147f 02       		.uleb128 0x2
 5353 1480 7D       		.byte	0x7d
 5354 1481 04       		.sleb128 4
 5355 1482 02       		.uleb128 0x2
 5356 1483 74       		.byte	0x74
 5357 1484 00       		.sleb128 0
 5358 1485 00       		.byte	0
 5359 1486 06       		.uleb128 0x6
 5360 1487 F2070000 		.4byte	.LVL192
 5361 148b 4D1B0000 		.4byte	0x1b4d
 5362 148f 0F       		.uleb128 0xf
 5363 1490 02080000 		.4byte	.LVL193
 5364 1494 581B0000 		.4byte	0x1b58
 5365 1498 C0140000 		.4byte	0x14c0
 5366 149c 09       		.uleb128 0x9
 5367 149d 01       		.uleb128 0x1
 5368 149e 50       		.byte	0x50
 5369 149f 02       		.uleb128 0x2
 5370 14a0 08       		.byte	0x8
ARM GAS  C:\Users\Misha\AppData\Local\Temp\ccVSruQj.s 			page 116


 5371 14a1 F0       		.byte	0xf0
 5372 14a2 09       		.uleb128 0x9
 5373 14a3 01       		.uleb128 0x1
 5374 14a4 51       		.byte	0x51
 5375 14a5 01       		.uleb128 0x1
 5376 14a6 30       		.byte	0x30
 5377 14a7 09       		.uleb128 0x9
 5378 14a8 01       		.uleb128 0x1
 5379 14a9 52       		.byte	0x52
 5380 14aa 01       		.uleb128 0x1
 5381 14ab 34       		.byte	0x34
 5382 14ac 09       		.uleb128 0x9
 5383 14ad 01       		.uleb128 0x1
 5384 14ae 53       		.byte	0x53
 5385 14af 01       		.uleb128 0x1
 5386 14b0 34       		.byte	0x34
 5387 14b1 09       		.uleb128 0x9
 5388 14b2 02       		.uleb128 0x2
 5389 14b3 7D       		.byte	0x7d
 5390 14b4 00       		.sleb128 0
 5391 14b5 02       		.uleb128 0x2
 5392 14b6 75       		.byte	0x75
 5393 14b7 00       		.sleb128 0
 5394 14b8 09       		.uleb128 0x9
 5395 14b9 02       		.uleb128 0x2
 5396 14ba 7D       		.byte	0x7d
 5397 14bb 04       		.sleb128 4
 5398 14bc 02       		.uleb128 0x2
 5399 14bd 74       		.byte	0x74
 5400 14be 00       		.sleb128 0
 5401 14bf 00       		.byte	0
 5402 14c0 06       		.uleb128 0x6
 5403 14c1 06080000 		.4byte	.LVL194
 5404 14c5 4D1B0000 		.4byte	0x1b4d
 5405 14c9 0F       		.uleb128 0xf
 5406 14ca 0E080000 		.4byte	.LVL195
 5407 14ce A51B0000 		.4byte	0x1ba5
 5408 14d2 E2140000 		.4byte	0x14e2
 5409 14d6 09       		.uleb128 0x9
 5410 14d7 01       		.uleb128 0x1
 5411 14d8 50       		.byte	0x50
 5412 14d9 01       		.uleb128 0x1
 5413 14da 30       		.byte	0x30
 5414 14db 09       		.uleb128 0x9
 5415 14dc 01       		.uleb128 0x1
 5416 14dd 51       		.byte	0x51
 5417 14de 02       		.uleb128 0x2
 5418 14df 75       		.byte	0x75
 5419 14e0 00       		.sleb128 0
 5420 14e1 00       		.byte	0
 5421 14e2 06       		.uleb128 0x6
 5422 14e3 12080000 		.4byte	.LVL196
 5423 14e7 4D1B0000 		.4byte	0x1b4d
 5424 14eb 0F       		.uleb128 0xf
 5425 14ec 22080000 		.4byte	.LVL197
 5426 14f0 581B0000 		.4byte	0x1b58
 5427 14f4 1D150000 		.4byte	0x151d
ARM GAS  C:\Users\Misha\AppData\Local\Temp\ccVSruQj.s 			page 117


 5428 14f8 09       		.uleb128 0x9
 5429 14f9 01       		.uleb128 0x1
 5430 14fa 50       		.byte	0x50
 5431 14fb 02       		.uleb128 0x2
 5432 14fc 08       		.byte	0x8
 5433 14fd 82       		.byte	0x82
 5434 14fe 09       		.uleb128 0x9
 5435 14ff 01       		.uleb128 0x1
 5436 1500 51       		.byte	0x51
 5437 1501 02       		.uleb128 0x2
 5438 1502 74       		.byte	0x74
 5439 1503 00       		.sleb128 0
 5440 1504 09       		.uleb128 0x9
 5441 1505 01       		.uleb128 0x1
 5442 1506 52       		.byte	0x52
 5443 1507 01       		.uleb128 0x1
 5444 1508 34       		.byte	0x34
 5445 1509 09       		.uleb128 0x9
 5446 150a 01       		.uleb128 0x1
 5447 150b 53       		.byte	0x53
 5448 150c 01       		.uleb128 0x1
 5449 150d 30       		.byte	0x30
 5450 150e 09       		.uleb128 0x9
 5451 150f 02       		.uleb128 0x2
 5452 1510 7D       		.byte	0x7d
 5453 1511 00       		.sleb128 0
 5454 1512 02       		.uleb128 0x2
 5455 1513 75       		.byte	0x75
 5456 1514 00       		.sleb128 0
 5457 1515 09       		.uleb128 0x9
 5458 1516 02       		.uleb128 0x2
 5459 1517 7D       		.byte	0x7d
 5460 1518 04       		.sleb128 4
 5461 1519 02       		.uleb128 0x2
 5462 151a 74       		.byte	0x74
 5463 151b 00       		.sleb128 0
 5464 151c 00       		.byte	0
 5465 151d 0F       		.uleb128 0xf
 5466 151e 2A080000 		.4byte	.LVL198
 5467 1522 A51B0000 		.4byte	0x1ba5
 5468 1526 37150000 		.4byte	0x1537
 5469 152a 09       		.uleb128 0x9
 5470 152b 01       		.uleb128 0x1
 5471 152c 50       		.byte	0x50
 5472 152d 02       		.uleb128 0x2
 5473 152e 74       		.byte	0x74
 5474 152f 00       		.sleb128 0
 5475 1530 09       		.uleb128 0x9
 5476 1531 01       		.uleb128 0x1
 5477 1532 51       		.byte	0x51
 5478 1533 02       		.uleb128 0x2
 5479 1534 75       		.byte	0x75
 5480 1535 00       		.sleb128 0
 5481 1536 00       		.byte	0
 5482 1537 0F       		.uleb128 0xf
 5483 1538 3A080000 		.4byte	.LVL199
 5484 153c 581B0000 		.4byte	0x1b58
ARM GAS  C:\Users\Misha\AppData\Local\Temp\ccVSruQj.s 			page 118


 5485 1540 69150000 		.4byte	0x1569
 5486 1544 09       		.uleb128 0x9
 5487 1545 01       		.uleb128 0x1
 5488 1546 50       		.byte	0x50
 5489 1547 02       		.uleb128 0x2
 5490 1548 08       		.byte	0x8
 5491 1549 32       		.byte	0x32
 5492 154a 09       		.uleb128 0x9
 5493 154b 01       		.uleb128 0x1
 5494 154c 51       		.byte	0x51
 5495 154d 02       		.uleb128 0x2
 5496 154e 74       		.byte	0x74
 5497 154f 00       		.sleb128 0
 5498 1550 09       		.uleb128 0x9
 5499 1551 01       		.uleb128 0x1
 5500 1552 52       		.byte	0x52
 5501 1553 01       		.uleb128 0x1
 5502 1554 34       		.byte	0x34
 5503 1555 09       		.uleb128 0x9
 5504 1556 01       		.uleb128 0x1
 5505 1557 53       		.byte	0x53
 5506 1558 01       		.uleb128 0x1
 5507 1559 30       		.byte	0x30
 5508 155a 09       		.uleb128 0x9
 5509 155b 02       		.uleb128 0x2
 5510 155c 7D       		.byte	0x7d
 5511 155d 00       		.sleb128 0
 5512 155e 02       		.uleb128 0x2
 5513 155f 75       		.byte	0x75
 5514 1560 00       		.sleb128 0
 5515 1561 09       		.uleb128 0x9
 5516 1562 02       		.uleb128 0x2
 5517 1563 7D       		.byte	0x7d
 5518 1564 04       		.sleb128 4
 5519 1565 02       		.uleb128 0x2
 5520 1566 74       		.byte	0x74
 5521 1567 00       		.sleb128 0
 5522 1568 00       		.byte	0
 5523 1569 0F       		.uleb128 0xf
 5524 156a 5C080000 		.4byte	.LVL200
 5525 156e 581B0000 		.4byte	0x1b58
 5526 1572 9B150000 		.4byte	0x159b
 5527 1576 09       		.uleb128 0x9
 5528 1577 01       		.uleb128 0x1
 5529 1578 50       		.byte	0x50
 5530 1579 03       		.uleb128 0x3
 5531 157a 0A       		.byte	0xa
 5532 157b 0E01     		.2byte	0x10e
 5533 157d 09       		.uleb128 0x9
 5534 157e 01       		.uleb128 0x1
 5535 157f 51       		.byte	0x51
 5536 1580 01       		.uleb128 0x1
 5537 1581 30       		.byte	0x30
 5538 1582 09       		.uleb128 0x9
 5539 1583 01       		.uleb128 0x1
 5540 1584 52       		.byte	0x52
 5541 1585 01       		.uleb128 0x1
ARM GAS  C:\Users\Misha\AppData\Local\Temp\ccVSruQj.s 			page 119


 5542 1586 34       		.byte	0x34
 5543 1587 09       		.uleb128 0x9
 5544 1588 01       		.uleb128 0x1
 5545 1589 53       		.byte	0x53
 5546 158a 01       		.uleb128 0x1
 5547 158b 34       		.byte	0x34
 5548 158c 09       		.uleb128 0x9
 5549 158d 02       		.uleb128 0x2
 5550 158e 7D       		.byte	0x7d
 5551 158f 00       		.sleb128 0
 5552 1590 02       		.uleb128 0x2
 5553 1591 75       		.byte	0x75
 5554 1592 00       		.sleb128 0
 5555 1593 09       		.uleb128 0x9
 5556 1594 02       		.uleb128 0x2
 5557 1595 7D       		.byte	0x7d
 5558 1596 04       		.sleb128 4
 5559 1597 02       		.uleb128 0x2
 5560 1598 74       		.byte	0x74
 5561 1599 00       		.sleb128 0
 5562 159a 00       		.byte	0
 5563 159b 06       		.uleb128 0x6
 5564 159c 60080000 		.4byte	.LVL201
 5565 15a0 4D1B0000 		.4byte	0x1b4d
 5566 15a4 0F       		.uleb128 0xf
 5567 15a5 68080000 		.4byte	.LVL202
 5568 15a9 A51B0000 		.4byte	0x1ba5
 5569 15ad BD150000 		.4byte	0x15bd
 5570 15b1 09       		.uleb128 0x9
 5571 15b2 01       		.uleb128 0x1
 5572 15b3 50       		.byte	0x50
 5573 15b4 01       		.uleb128 0x1
 5574 15b5 30       		.byte	0x30
 5575 15b6 09       		.uleb128 0x9
 5576 15b7 01       		.uleb128 0x1
 5577 15b8 51       		.byte	0x51
 5578 15b9 02       		.uleb128 0x2
 5579 15ba 75       		.byte	0x75
 5580 15bb 00       		.sleb128 0
 5581 15bc 00       		.byte	0
 5582 15bd 06       		.uleb128 0x6
 5583 15be 6C080000 		.4byte	.LVL203
 5584 15c2 4D1B0000 		.4byte	0x1b4d
 5585 15c6 0F       		.uleb128 0xf
 5586 15c7 7C080000 		.4byte	.LVL204
 5587 15cb 581B0000 		.4byte	0x1b58
 5588 15cf F8150000 		.4byte	0x15f8
 5589 15d3 09       		.uleb128 0x9
 5590 15d4 01       		.uleb128 0x1
 5591 15d5 50       		.byte	0x50
 5592 15d6 02       		.uleb128 0x2
 5593 15d7 08       		.byte	0x8
 5594 15d8 82       		.byte	0x82
 5595 15d9 09       		.uleb128 0x9
 5596 15da 01       		.uleb128 0x1
 5597 15db 51       		.byte	0x51
 5598 15dc 02       		.uleb128 0x2
ARM GAS  C:\Users\Misha\AppData\Local\Temp\ccVSruQj.s 			page 120


 5599 15dd 74       		.byte	0x74
 5600 15de 00       		.sleb128 0
 5601 15df 09       		.uleb128 0x9
 5602 15e0 01       		.uleb128 0x1
 5603 15e1 52       		.byte	0x52
 5604 15e2 01       		.uleb128 0x1
 5605 15e3 34       		.byte	0x34
 5606 15e4 09       		.uleb128 0x9
 5607 15e5 01       		.uleb128 0x1
 5608 15e6 53       		.byte	0x53
 5609 15e7 01       		.uleb128 0x1
 5610 15e8 30       		.byte	0x30
 5611 15e9 09       		.uleb128 0x9
 5612 15ea 02       		.uleb128 0x2
 5613 15eb 7D       		.byte	0x7d
 5614 15ec 00       		.sleb128 0
 5615 15ed 02       		.uleb128 0x2
 5616 15ee 75       		.byte	0x75
 5617 15ef 00       		.sleb128 0
 5618 15f0 09       		.uleb128 0x9
 5619 15f1 02       		.uleb128 0x2
 5620 15f2 7D       		.byte	0x7d
 5621 15f3 04       		.sleb128 4
 5622 15f4 02       		.uleb128 0x2
 5623 15f5 74       		.byte	0x74
 5624 15f6 00       		.sleb128 0
 5625 15f7 00       		.byte	0
 5626 15f8 0F       		.uleb128 0xf
 5627 15f9 84080000 		.4byte	.LVL205
 5628 15fd A51B0000 		.4byte	0x1ba5
 5629 1601 12160000 		.4byte	0x1612
 5630 1605 09       		.uleb128 0x9
 5631 1606 01       		.uleb128 0x1
 5632 1607 50       		.byte	0x50
 5633 1608 02       		.uleb128 0x2
 5634 1609 74       		.byte	0x74
 5635 160a 00       		.sleb128 0
 5636 160b 09       		.uleb128 0x9
 5637 160c 01       		.uleb128 0x1
 5638 160d 51       		.byte	0x51
 5639 160e 02       		.uleb128 0x2
 5640 160f 75       		.byte	0x75
 5641 1610 00       		.sleb128 0
 5642 1611 00       		.byte	0
 5643 1612 0F       		.uleb128 0xf
 5644 1613 94080000 		.4byte	.LVL206
 5645 1617 581B0000 		.4byte	0x1b58
 5646 161b 44160000 		.4byte	0x1644
 5647 161f 09       		.uleb128 0x9
 5648 1620 01       		.uleb128 0x1
 5649 1621 50       		.byte	0x50
 5650 1622 02       		.uleb128 0x2
 5651 1623 08       		.byte	0x8
 5652 1624 32       		.byte	0x32
 5653 1625 09       		.uleb128 0x9
 5654 1626 01       		.uleb128 0x1
 5655 1627 51       		.byte	0x51
ARM GAS  C:\Users\Misha\AppData\Local\Temp\ccVSruQj.s 			page 121


 5656 1628 02       		.uleb128 0x2
 5657 1629 74       		.byte	0x74
 5658 162a 00       		.sleb128 0
 5659 162b 09       		.uleb128 0x9
 5660 162c 01       		.uleb128 0x1
 5661 162d 52       		.byte	0x52
 5662 162e 01       		.uleb128 0x1
 5663 162f 34       		.byte	0x34
 5664 1630 09       		.uleb128 0x9
 5665 1631 01       		.uleb128 0x1
 5666 1632 53       		.byte	0x53
 5667 1633 01       		.uleb128 0x1
 5668 1634 30       		.byte	0x30
 5669 1635 09       		.uleb128 0x9
 5670 1636 02       		.uleb128 0x2
 5671 1637 7D       		.byte	0x7d
 5672 1638 00       		.sleb128 0
 5673 1639 02       		.uleb128 0x2
 5674 163a 75       		.byte	0x75
 5675 163b 00       		.sleb128 0
 5676 163c 09       		.uleb128 0x9
 5677 163d 02       		.uleb128 0x2
 5678 163e 7D       		.byte	0x7d
 5679 163f 04       		.sleb128 4
 5680 1640 02       		.uleb128 0x2
 5681 1641 74       		.byte	0x74
 5682 1642 00       		.sleb128 0
 5683 1643 00       		.byte	0
 5684 1644 0F       		.uleb128 0xf
 5685 1645 C0080000 		.4byte	.LVL207
 5686 1649 581B0000 		.4byte	0x1b58
 5687 164d 76160000 		.4byte	0x1676
 5688 1651 09       		.uleb128 0x9
 5689 1652 01       		.uleb128 0x1
 5690 1653 50       		.byte	0x50
 5691 1654 03       		.uleb128 0x3
 5692 1655 0A       		.byte	0xa
 5693 1656 0E01     		.2byte	0x10e
 5694 1658 09       		.uleb128 0x9
 5695 1659 01       		.uleb128 0x1
 5696 165a 51       		.byte	0x51
 5697 165b 01       		.uleb128 0x1
 5698 165c 30       		.byte	0x30
 5699 165d 09       		.uleb128 0x9
 5700 165e 01       		.uleb128 0x1
 5701 165f 52       		.byte	0x52
 5702 1660 01       		.uleb128 0x1
 5703 1661 34       		.byte	0x34
 5704 1662 09       		.uleb128 0x9
 5705 1663 01       		.uleb128 0x1
 5706 1664 53       		.byte	0x53
 5707 1665 01       		.uleb128 0x1
 5708 1666 34       		.byte	0x34
 5709 1667 09       		.uleb128 0x9
 5710 1668 02       		.uleb128 0x2
 5711 1669 7D       		.byte	0x7d
 5712 166a 00       		.sleb128 0
ARM GAS  C:\Users\Misha\AppData\Local\Temp\ccVSruQj.s 			page 122


 5713 166b 02       		.uleb128 0x2
 5714 166c 75       		.byte	0x75
 5715 166d 00       		.sleb128 0
 5716 166e 09       		.uleb128 0x9
 5717 166f 02       		.uleb128 0x2
 5718 1670 7D       		.byte	0x7d
 5719 1671 04       		.sleb128 4
 5720 1672 02       		.uleb128 0x2
 5721 1673 74       		.byte	0x74
 5722 1674 00       		.sleb128 0
 5723 1675 00       		.byte	0
 5724 1676 06       		.uleb128 0x6
 5725 1677 C4080000 		.4byte	.LVL208
 5726 167b 4D1B0000 		.4byte	0x1b4d
 5727 167f 0F       		.uleb128 0xf
 5728 1680 CC080000 		.4byte	.LVL209
 5729 1684 A51B0000 		.4byte	0x1ba5
 5730 1688 98160000 		.4byte	0x1698
 5731 168c 09       		.uleb128 0x9
 5732 168d 01       		.uleb128 0x1
 5733 168e 50       		.byte	0x50
 5734 168f 01       		.uleb128 0x1
 5735 1690 30       		.byte	0x30
 5736 1691 09       		.uleb128 0x9
 5737 1692 01       		.uleb128 0x1
 5738 1693 51       		.byte	0x51
 5739 1694 02       		.uleb128 0x2
 5740 1695 75       		.byte	0x75
 5741 1696 00       		.sleb128 0
 5742 1697 00       		.byte	0
 5743 1698 06       		.uleb128 0x6
 5744 1699 D0080000 		.4byte	.LVL210
 5745 169d 4D1B0000 		.4byte	0x1b4d
 5746 16a1 0F       		.uleb128 0xf
 5747 16a2 E0080000 		.4byte	.LVL211
 5748 16a6 581B0000 		.4byte	0x1b58
 5749 16aa D3160000 		.4byte	0x16d3
 5750 16ae 09       		.uleb128 0x9
 5751 16af 01       		.uleb128 0x1
 5752 16b0 50       		.byte	0x50
 5753 16b1 02       		.uleb128 0x2
 5754 16b2 08       		.byte	0x8
 5755 16b3 82       		.byte	0x82
 5756 16b4 09       		.uleb128 0x9
 5757 16b5 01       		.uleb128 0x1
 5758 16b6 51       		.byte	0x51
 5759 16b7 02       		.uleb128 0x2
 5760 16b8 74       		.byte	0x74
 5761 16b9 00       		.sleb128 0
 5762 16ba 09       		.uleb128 0x9
 5763 16bb 01       		.uleb128 0x1
 5764 16bc 52       		.byte	0x52
 5765 16bd 01       		.uleb128 0x1
 5766 16be 34       		.byte	0x34
 5767 16bf 09       		.uleb128 0x9
 5768 16c0 01       		.uleb128 0x1
 5769 16c1 53       		.byte	0x53
ARM GAS  C:\Users\Misha\AppData\Local\Temp\ccVSruQj.s 			page 123


 5770 16c2 01       		.uleb128 0x1
 5771 16c3 30       		.byte	0x30
 5772 16c4 09       		.uleb128 0x9
 5773 16c5 02       		.uleb128 0x2
 5774 16c6 7D       		.byte	0x7d
 5775 16c7 00       		.sleb128 0
 5776 16c8 02       		.uleb128 0x2
 5777 16c9 75       		.byte	0x75
 5778 16ca 00       		.sleb128 0
 5779 16cb 09       		.uleb128 0x9
 5780 16cc 02       		.uleb128 0x2
 5781 16cd 7D       		.byte	0x7d
 5782 16ce 04       		.sleb128 4
 5783 16cf 02       		.uleb128 0x2
 5784 16d0 74       		.byte	0x74
 5785 16d1 00       		.sleb128 0
 5786 16d2 00       		.byte	0
 5787 16d3 0F       		.uleb128 0xf
 5788 16d4 E8080000 		.4byte	.LVL212
 5789 16d8 A51B0000 		.4byte	0x1ba5
 5790 16dc EC160000 		.4byte	0x16ec
 5791 16e0 09       		.uleb128 0x9
 5792 16e1 01       		.uleb128 0x1
 5793 16e2 50       		.byte	0x50
 5794 16e3 01       		.uleb128 0x1
 5795 16e4 33       		.byte	0x33
 5796 16e5 09       		.uleb128 0x9
 5797 16e6 01       		.uleb128 0x1
 5798 16e7 51       		.byte	0x51
 5799 16e8 02       		.uleb128 0x2
 5800 16e9 75       		.byte	0x75
 5801 16ea 00       		.sleb128 0
 5802 16eb 00       		.byte	0
 5803 16ec 0F       		.uleb128 0xf
 5804 16ed F8080000 		.4byte	.LVL213
 5805 16f1 581B0000 		.4byte	0x1b58
 5806 16f5 1E170000 		.4byte	0x171e
 5807 16f9 09       		.uleb128 0x9
 5808 16fa 01       		.uleb128 0x1
 5809 16fb 50       		.byte	0x50
 5810 16fc 02       		.uleb128 0x2
 5811 16fd 08       		.byte	0x8
 5812 16fe 32       		.byte	0x32
 5813 16ff 09       		.uleb128 0x9
 5814 1700 01       		.uleb128 0x1
 5815 1701 51       		.byte	0x51
 5816 1702 02       		.uleb128 0x2
 5817 1703 74       		.byte	0x74
 5818 1704 00       		.sleb128 0
 5819 1705 09       		.uleb128 0x9
 5820 1706 01       		.uleb128 0x1
 5821 1707 52       		.byte	0x52
 5822 1708 01       		.uleb128 0x1
 5823 1709 34       		.byte	0x34
 5824 170a 09       		.uleb128 0x9
 5825 170b 01       		.uleb128 0x1
 5826 170c 53       		.byte	0x53
ARM GAS  C:\Users\Misha\AppData\Local\Temp\ccVSruQj.s 			page 124


 5827 170d 01       		.uleb128 0x1
 5828 170e 30       		.byte	0x30
 5829 170f 09       		.uleb128 0x9
 5830 1710 02       		.uleb128 0x2
 5831 1711 7D       		.byte	0x7d
 5832 1712 00       		.sleb128 0
 5833 1713 02       		.uleb128 0x2
 5834 1714 75       		.byte	0x75
 5835 1715 00       		.sleb128 0
 5836 1716 09       		.uleb128 0x9
 5837 1717 02       		.uleb128 0x2
 5838 1718 7D       		.byte	0x7d
 5839 1719 04       		.sleb128 4
 5840 171a 02       		.uleb128 0x2
 5841 171b 74       		.byte	0x74
 5842 171c 00       		.sleb128 0
 5843 171d 00       		.byte	0
 5844 171e 0F       		.uleb128 0xf
 5845 171f D00A0000 		.4byte	.LVL249
 5846 1723 581B0000 		.4byte	0x1b58
 5847 1727 51170000 		.4byte	0x1751
 5848 172b 09       		.uleb128 0x9
 5849 172c 01       		.uleb128 0x1
 5850 172d 50       		.byte	0x50
 5851 172e 02       		.uleb128 0x2
 5852 172f 08       		.byte	0x8
 5853 1730 D2       		.byte	0xd2
 5854 1731 09       		.uleb128 0x9
 5855 1732 01       		.uleb128 0x1
 5856 1733 51       		.byte	0x51
 5857 1734 02       		.uleb128 0x2
 5858 1735 74       		.byte	0x74
 5859 1736 00       		.sleb128 0
 5860 1737 09       		.uleb128 0x9
 5861 1738 01       		.uleb128 0x1
 5862 1739 52       		.byte	0x52
 5863 173a 01       		.uleb128 0x1
 5864 173b 35       		.byte	0x35
 5865 173c 09       		.uleb128 0x9
 5866 173d 01       		.uleb128 0x1
 5867 173e 53       		.byte	0x53
 5868 173f 02       		.uleb128 0x2
 5869 1740 74       		.byte	0x74
 5870 1741 00       		.sleb128 0
 5871 1742 09       		.uleb128 0x9
 5872 1743 02       		.uleb128 0x2
 5873 1744 7D       		.byte	0x7d
 5874 1745 00       		.sleb128 0
 5875 1746 02       		.uleb128 0x2
 5876 1747 75       		.byte	0x75
 5877 1748 00       		.sleb128 0
 5878 1749 09       		.uleb128 0x9
 5879 174a 02       		.uleb128 0x2
 5880 174b 7D       		.byte	0x7d
 5881 174c 04       		.sleb128 4
 5882 174d 02       		.uleb128 0x2
 5883 174e 74       		.byte	0x74
ARM GAS  C:\Users\Misha\AppData\Local\Temp\ccVSruQj.s 			page 125


 5884 174f 00       		.sleb128 0
 5885 1750 00       		.byte	0
 5886 1751 0F       		.uleb128 0xf
 5887 1752 D80A0000 		.4byte	.LVL250
 5888 1756 A51B0000 		.4byte	0x1ba5
 5889 175a 6A170000 		.4byte	0x176a
 5890 175e 09       		.uleb128 0x9
 5891 175f 01       		.uleb128 0x1
 5892 1760 50       		.byte	0x50
 5893 1761 01       		.uleb128 0x1
 5894 1762 33       		.byte	0x33
 5895 1763 09       		.uleb128 0x9
 5896 1764 01       		.uleb128 0x1
 5897 1765 51       		.byte	0x51
 5898 1766 02       		.uleb128 0x2
 5899 1767 75       		.byte	0x75
 5900 1768 00       		.sleb128 0
 5901 1769 00       		.byte	0
 5902 176a 06       		.uleb128 0x6
 5903 176b DC0A0000 		.4byte	.LVL251
 5904 176f 4D1B0000 		.4byte	0x1b4d
 5905 1773 0F       		.uleb128 0xf
 5906 1774 F00A0000 		.4byte	.LVL252
 5907 1778 581B0000 		.4byte	0x1b58
 5908 177c A7170000 		.4byte	0x17a7
 5909 1780 09       		.uleb128 0x9
 5910 1781 01       		.uleb128 0x1
 5911 1782 50       		.byte	0x50
 5912 1783 03       		.uleb128 0x3
 5913 1784 0A       		.byte	0xa
 5914 1785 0802     		.2byte	0x208
 5915 1787 09       		.uleb128 0x9
 5916 1788 01       		.uleb128 0x1
 5917 1789 51       		.byte	0x51
 5918 178a 02       		.uleb128 0x2
 5919 178b 74       		.byte	0x74
 5920 178c 00       		.sleb128 0
 5921 178d 09       		.uleb128 0x9
 5922 178e 01       		.uleb128 0x1
 5923 178f 52       		.byte	0x52
 5924 1790 01       		.uleb128 0x1
 5925 1791 35       		.byte	0x35
 5926 1792 09       		.uleb128 0x9
 5927 1793 01       		.uleb128 0x1
 5928 1794 53       		.byte	0x53
 5929 1795 02       		.uleb128 0x2
 5930 1796 76       		.byte	0x76
 5931 1797 00       		.sleb128 0
 5932 1798 09       		.uleb128 0x9
 5933 1799 02       		.uleb128 0x2
 5934 179a 7D       		.byte	0x7d
 5935 179b 00       		.sleb128 0
 5936 179c 02       		.uleb128 0x2
 5937 179d 75       		.byte	0x75
 5938 179e 00       		.sleb128 0
 5939 179f 09       		.uleb128 0x9
 5940 17a0 02       		.uleb128 0x2
ARM GAS  C:\Users\Misha\AppData\Local\Temp\ccVSruQj.s 			page 126


 5941 17a1 7D       		.byte	0x7d
 5942 17a2 04       		.sleb128 4
 5943 17a3 02       		.uleb128 0x2
 5944 17a4 76       		.byte	0x76
 5945 17a5 00       		.sleb128 0
 5946 17a6 00       		.byte	0
 5947 17a7 0F       		.uleb128 0xf
 5948 17a8 FA0A0000 		.4byte	.LVL253
 5949 17ac BB1B0000 		.4byte	0x1bbb
 5950 17b0 C7170000 		.4byte	0x17c7
 5951 17b4 09       		.uleb128 0x9
 5952 17b5 01       		.uleb128 0x1
 5953 17b6 50       		.byte	0x50
 5954 17b7 02       		.uleb128 0x2
 5955 17b8 08       		.byte	0x8
 5956 17b9 5A       		.byte	0x5a
 5957 17ba 09       		.uleb128 0x9
 5958 17bb 01       		.uleb128 0x1
 5959 17bc 51       		.byte	0x51
 5960 17bd 02       		.uleb128 0x2
 5961 17be 75       		.byte	0x75
 5962 17bf 00       		.sleb128 0
 5963 17c0 09       		.uleb128 0x9
 5964 17c1 01       		.uleb128 0x1
 5965 17c2 52       		.byte	0x52
 5966 17c3 02       		.uleb128 0x2
 5967 17c4 76       		.byte	0x76
 5968 17c5 00       		.sleb128 0
 5969 17c6 00       		.byte	0
 5970 17c7 0F       		.uleb128 0xf
 5971 17c8 0A0B0000 		.4byte	.LVL254
 5972 17cc 581B0000 		.4byte	0x1b58
 5973 17d0 F9170000 		.4byte	0x17f9
 5974 17d4 09       		.uleb128 0x9
 5975 17d5 01       		.uleb128 0x1
 5976 17d6 50       		.byte	0x50
 5977 17d7 02       		.uleb128 0x2
 5978 17d8 08       		.byte	0x8
 5979 17d9 28       		.byte	0x28
 5980 17da 09       		.uleb128 0x9
 5981 17db 01       		.uleb128 0x1
 5982 17dc 51       		.byte	0x51
 5983 17dd 02       		.uleb128 0x2
 5984 17de 74       		.byte	0x74
 5985 17df 00       		.sleb128 0
 5986 17e0 09       		.uleb128 0x9
 5987 17e1 01       		.uleb128 0x1
 5988 17e2 52       		.byte	0x52
 5989 17e3 01       		.uleb128 0x1
 5990 17e4 34       		.byte	0x34
 5991 17e5 09       		.uleb128 0x9
 5992 17e6 01       		.uleb128 0x1
 5993 17e7 53       		.byte	0x53
 5994 17e8 01       		.uleb128 0x1
 5995 17e9 34       		.byte	0x34
 5996 17ea 09       		.uleb128 0x9
 5997 17eb 02       		.uleb128 0x2
ARM GAS  C:\Users\Misha\AppData\Local\Temp\ccVSruQj.s 			page 127


 5998 17ec 7D       		.byte	0x7d
 5999 17ed 00       		.sleb128 0
 6000 17ee 02       		.uleb128 0x2
 6001 17ef 75       		.byte	0x75
 6002 17f0 00       		.sleb128 0
 6003 17f1 09       		.uleb128 0x9
 6004 17f2 02       		.uleb128 0x2
 6005 17f3 7D       		.byte	0x7d
 6006 17f4 04       		.sleb128 4
 6007 17f5 02       		.uleb128 0x2
 6008 17f6 76       		.byte	0x76
 6009 17f7 00       		.sleb128 0
 6010 17f8 00       		.byte	0
 6011 17f9 08       		.uleb128 0x8
 6012 17fa 120B0000 		.4byte	.LVL255
 6013 17fe B01B0000 		.4byte	0x1bb0
 6014 1802 09       		.uleb128 0x9
 6015 1803 01       		.uleb128 0x1
 6016 1804 50       		.byte	0x50
 6017 1805 02       		.uleb128 0x2
 6018 1806 74       		.byte	0x74
 6019 1807 00       		.sleb128 0
 6020 1808 09       		.uleb128 0x9
 6021 1809 01       		.uleb128 0x1
 6022 180a 51       		.byte	0x51
 6023 180b 01       		.uleb128 0x1
 6024 180c 32       		.byte	0x32
 6025 180d 00       		.byte	0
 6026 180e 00       		.byte	0
 6027 180f 11       		.uleb128 0x11
 6028 1810 30070000 		.4byte	.LASF25
 6029 1814 04       		.byte	0x4
 6030 1815 1207     		.2byte	0x712
 6031 1817 1B180000 		.4byte	0x181b
 6032 181b 12       		.uleb128 0x12
 6033 181c 76000000 		.4byte	0x76
 6034 1820 13       		.uleb128 0x13
 6035 1821 9E020000 		.4byte	.LASF26
 6036 1825 05       		.byte	0x5
 6037 1826 1C       		.byte	0x1c
 6038 1827 68000000 		.4byte	0x68
 6039 182b 05       		.uleb128 0x5
 6040 182c 03       		.byte	0x3
 6041 182d 00000000 		.4byte	internal_orientation
 6042 1831 13       		.uleb128 0x13
 6043 1832 9D010000 		.4byte	.LASF27
 6044 1836 06       		.byte	0x6
 6045 1837 1D       		.byte	0x1d
 6046 1838 68000000 		.4byte	0x68
 6047 183c 05       		.uleb128 0x5
 6048 183d 03       		.byte	0x3
 6049 183e 00000000 		.4byte	driveStraightEnable
 6050 1842 13       		.uleb128 0x13
 6051 1843 36030000 		.4byte	.LASF28
 6052 1847 01       		.byte	0x1
 6053 1848 2D       		.byte	0x2d
 6054 1849 68000000 		.4byte	0x68
ARM GAS  C:\Users\Misha\AppData\Local\Temp\ccVSruQj.s 			page 128


 6055 184d 05       		.uleb128 0x5
 6056 184e 03       		.byte	0x3
 6057 184f 00000000 		.4byte	currentPuckRackScanningIndex
 6058 1853 14       		.uleb128 0x14
 6059 1854 68000000 		.4byte	0x68
 6060 1858 63180000 		.4byte	0x1863
 6061 185c 15       		.uleb128 0x15
 6062 185d 9D000000 		.4byte	0x9d
 6063 1861 04       		.byte	0x4
 6064 1862 00       		.byte	0
 6065 1863 13       		.uleb128 0x13
 6066 1864 3C050000 		.4byte	.LASF29
 6067 1868 01       		.byte	0x1
 6068 1869 2B       		.byte	0x2b
 6069 186a 53180000 		.4byte	0x1853
 6070 186e 05       		.uleb128 0x5
 6071 186f 03       		.byte	0x3
 6072 1870 00000000 		.4byte	puckRackColours
 6073 1874 13       		.uleb128 0x13
 6074 1875 EC000000 		.4byte	.LASF30
 6075 1879 01       		.byte	0x1
 6076 187a 2E       		.byte	0x2e
 6077 187b 53180000 		.4byte	0x1853
 6078 187f 05       		.uleb128 0x5
 6079 1880 03       		.byte	0x3
 6080 1881 00000000 		.4byte	puckRackOffsetsFromWest
 6081 1885 13       		.uleb128 0x13
 6082 1886 94010000 		.4byte	.LASF31
 6083 188a 01       		.byte	0x1
 6084 188b 26       		.byte	0x26
 6085 188c 68000000 		.4byte	0x68
 6086 1890 05       		.uleb128 0x5
 6087 1891 03       		.byte	0x3
 6088 1892 00000000 		.4byte	sweeping
 6089 1896 14       		.uleb128 0x14
 6090 1897 81000000 		.4byte	0x81
 6091 189b A6180000 		.4byte	0x18a6
 6092 189f 15       		.uleb128 0x15
 6093 18a0 9D000000 		.4byte	0x9d
 6094 18a4 03       		.byte	0x3
 6095 18a5 00       		.byte	0
 6096 18a6 13       		.uleb128 0x13
 6097 18a7 60040000 		.4byte	.LASF32
 6098 18ab 01       		.byte	0x1
 6099 18ac 27       		.byte	0x27
 6100 18ad 96180000 		.4byte	0x1896
 6101 18b1 05       		.uleb128 0x5
 6102 18b2 03       		.byte	0x3
 6103 18b3 00000000 		.4byte	block_edge_location
 6104 18b7 13       		.uleb128 0x13
 6105 18b8 11030000 		.4byte	.LASF33
 6106 18bc 07       		.byte	0x7
 6107 18bd B5       		.byte	0xb5
 6108 18be 81000000 		.4byte	0x81
 6109 18c2 05       		.uleb128 0x5
 6110 18c3 03       		.byte	0x3
 6111 18c4 00000000 		.4byte	puckPileLocation
ARM GAS  C:\Users\Misha\AppData\Local\Temp\ccVSruQj.s 			page 129


 6112 18c8 13       		.uleb128 0x13
 6113 18c9 80000000 		.4byte	.LASF34
 6114 18cd 06       		.byte	0x6
 6115 18ce 25       		.byte	0x25
 6116 18cf 33000000 		.4byte	0x33
 6117 18d3 05       		.uleb128 0x5
 6118 18d4 03       		.byte	0x3
 6119 18d5 00000000 		.4byte	drivingForwardFlag
 6120 18d9 13       		.uleb128 0x13
 6121 18da 22030000 		.4byte	.LASF35
 6122 18de 06       		.byte	0x6
 6123 18df 26       		.byte	0x26
 6124 18e0 33000000 		.4byte	0x33
 6125 18e4 05       		.uleb128 0x5
 6126 18e5 03       		.byte	0x3
 6127 18e6 00000000 		.4byte	drivingBackwardFlag
 6128 18ea 13       		.uleb128 0x13
 6129 18eb 57000000 		.4byte	.LASF36
 6130 18ef 06       		.byte	0x6
 6131 18f0 27       		.byte	0x27
 6132 18f1 33000000 		.4byte	0x33
 6133 18f5 05       		.uleb128 0x5
 6134 18f6 03       		.byte	0x3
 6135 18f7 00000000 		.4byte	turningLeftFlag
 6136 18fb 13       		.uleb128 0x13
 6137 18fc 1D020000 		.4byte	.LASF37
 6138 1900 06       		.byte	0x6
 6139 1901 28       		.byte	0x28
 6140 1902 33000000 		.4byte	0x33
 6141 1906 05       		.uleb128 0x5
 6142 1907 03       		.byte	0x3
 6143 1908 00000000 		.4byte	turningRightFlag
 6144 190c 13       		.uleb128 0x13
 6145 190d 23080000 		.4byte	.LASF38
 6146 1911 06       		.byte	0x6
 6147 1912 2B       		.byte	0x2b
 6148 1913 68000000 		.4byte	0x68
 6149 1917 05       		.uleb128 0x5
 6150 1918 03       		.byte	0x3
 6151 1919 00000000 		.4byte	initialisation
 6152 191d 14       		.uleb128 0x14
 6153 191e 8F000000 		.4byte	0x8f
 6154 1922 2D190000 		.4byte	0x192d
 6155 1926 15       		.uleb128 0x15
 6156 1927 9D000000 		.4byte	0x9d
 6157 192b 1F       		.byte	0x1f
 6158 192c 00       		.byte	0
 6159 192d 13       		.uleb128 0x13
 6160 192e 09070000 		.4byte	.LASF39
 6161 1932 01       		.byte	0x1
 6162 1933 21       		.byte	0x21
 6163 1934 1D190000 		.4byte	0x191d
 6164 1938 05       		.uleb128 0x5
 6165 1939 03       		.byte	0x3
 6166 193a 00000000 		.4byte	output
 6167 193e 16       		.uleb128 0x16
 6168 193f 1E010000 		.4byte	.LASF40
ARM GAS  C:\Users\Misha\AppData\Local\Temp\ccVSruQj.s 			page 130


 6169 1943 07       		.byte	0x7
 6170 1944 C6       		.byte	0xc6
 6171 1945 53180000 		.4byte	0x1853
 6172 1949 13       		.uleb128 0x13
 6173 194a A2030000 		.4byte	.LASF41
 6174 194e 01       		.byte	0x1
 6175 194f 54       		.byte	0x54
 6176 1950 68000000 		.4byte	0x68
 6177 1954 05       		.uleb128 0x5
 6178 1955 03       		.byte	0x3
 6179 1956 00000000 		.4byte	colour_flag
 6180 195a 13       		.uleb128 0x13
 6181 195b 6F030000 		.4byte	.LASF42
 6182 195f 01       		.byte	0x1
 6183 1960 24       		.byte	0x24
 6184 1961 68000000 		.4byte	0x68
 6185 1965 05       		.uleb128 0x5
 6186 1966 03       		.byte	0x3
 6187 1967 00000000 		.4byte	state
 6188 196b 13       		.uleb128 0x13
 6189 196c 78050000 		.4byte	.LASF43
 6190 1970 01       		.byte	0x1
 6191 1971 5A       		.byte	0x5a
 6192 1972 68000000 		.4byte	0x68
 6193 1976 05       		.uleb128 0x5
 6194 1977 03       		.byte	0x3
 6195 1978 00000000 		.4byte	moving
 6196 197c 13       		.uleb128 0x13
 6197 197d 41010000 		.4byte	.LASF44
 6198 1981 06       		.byte	0x6
 6199 1982 2D       		.byte	0x2d
 6200 1983 68000000 		.4byte	0x68
 6201 1987 05       		.uleb128 0x5
 6202 1988 03       		.byte	0x3
 6203 1989 00000000 		.4byte	ultrasonic_flag
 6204 198d 14       		.uleb128 0x14
 6205 198e 68000000 		.4byte	0x68
 6206 1992 9D190000 		.4byte	0x199d
 6207 1996 15       		.uleb128 0x15
 6208 1997 9D000000 		.4byte	0x9d
 6209 199b 02       		.byte	0x2
 6210 199c 00       		.byte	0
 6211 199d 13       		.uleb128 0x13
 6212 199e 0B060000 		.4byte	.LASF45
 6213 19a2 01       		.byte	0x1
 6214 19a3 2C       		.byte	0x2c
 6215 19a4 8D190000 		.4byte	0x198d
 6216 19a8 05       		.uleb128 0x5
 6217 19a9 03       		.byte	0x3
 6218 19aa 00000000 		.4byte	puckConstructionPlan
 6219 19ae 13       		.uleb128 0x13
 6220 19af D8040000 		.4byte	.LASF46
 6221 19b3 01       		.byte	0x1
 6222 19b4 5E       		.byte	0x5e
 6223 19b5 68000000 		.4byte	0x68
 6224 19b9 05       		.uleb128 0x5
 6225 19ba 03       		.byte	0x3
ARM GAS  C:\Users\Misha\AppData\Local\Temp\ccVSruQj.s 			page 131


 6226 19bb 00000000 		.4byte	current_stage
 6227 19bf 13       		.uleb128 0x13
 6228 19c0 5F050000 		.4byte	.LASF47
 6229 19c4 01       		.byte	0x1
 6230 19c5 55       		.byte	0x55
 6231 19c6 68000000 		.4byte	0x68
 6232 19ca 05       		.uleb128 0x5
 6233 19cb 03       		.byte	0x3
 6234 19cc 00000000 		.4byte	colour_sensing_algorithm
 6235 19d0 13       		.uleb128 0x13
 6236 19d1 EE020000 		.4byte	.LASF48
 6237 19d5 01       		.byte	0x1
 6238 19d6 48       		.byte	0x48
 6239 19d7 68000000 		.4byte	0x68
 6240 19db 05       		.uleb128 0x5
 6241 19dc 03       		.byte	0x3
 6242 19dd 00000000 		.4byte	safety_override
 6243 19e1 13       		.uleb128 0x13
 6244 19e2 C6010000 		.4byte	.LASF49
 6245 19e6 01       		.byte	0x1
 6246 19e7 25       		.byte	0x25
 6247 19e8 68000000 		.4byte	0x68
 6248 19ec 05       		.uleb128 0x5
 6249 19ed 03       		.byte	0x3
 6250 19ee 00000000 		.4byte	running
 6251 19f2 13       		.uleb128 0x13
 6252 19f3 B1010000 		.4byte	.LASF50
 6253 19f7 01       		.byte	0x1
 6254 19f8 2A       		.byte	0x2a
 6255 19f9 68000000 		.4byte	0x68
 6256 19fd 05       		.uleb128 0x5
 6257 19fe 03       		.byte	0x3
 6258 19ff 00000000 		.4byte	currentPuckStackSize
 6259 1a03 14       		.uleb128 0x14
 6260 1a04 68000000 		.4byte	0x68
 6261 1a08 131A0000 		.4byte	0x1a13
 6262 1a0c 15       		.uleb128 0x15
 6263 1a0d 9D000000 		.4byte	0x9d
 6264 1a11 01       		.byte	0x1
 6265 1a12 00       		.byte	0
 6266 1a13 13       		.uleb128 0x13
 6267 1a14 C6030000 		.4byte	.LASF51
 6268 1a18 01       		.byte	0x1
 6269 1a19 34       		.byte	0x34
 6270 1a1a 031A0000 		.4byte	0x1a03
 6271 1a1e 05       		.uleb128 0x5
 6272 1a1f 03       		.byte	0x3
 6273 1a20 00000000 		.4byte	puckColoursTempPile
 6274 1a24 13       		.uleb128 0x13
 6275 1a25 66010000 		.4byte	.LASF52
 6276 1a29 01       		.byte	0x1
 6277 1a2a 36       		.byte	0x36
 6278 1a2b 81000000 		.4byte	0x81
 6279 1a2f 05       		.uleb128 0x5
 6280 1a30 03       		.byte	0x3
 6281 1a31 00000000 		.4byte	horizontalPuckGrid
 6282 1a35 13       		.uleb128 0x13
ARM GAS  C:\Users\Misha\AppData\Local\Temp\ccVSruQj.s 			page 132


 6283 1a36 C3000000 		.4byte	.LASF53
 6284 1a3a 01       		.byte	0x1
 6285 1a3b 3A       		.byte	0x3a
 6286 1a3c 68000000 		.4byte	0x68
 6287 1a40 05       		.uleb128 0x5
 6288 1a41 03       		.byte	0x3
 6289 1a42 00000000 		.4byte	beginNavigation
 6290 1a46 13       		.uleb128 0x13
 6291 1a47 ED070000 		.4byte	.LASF54
 6292 1a4b 01       		.byte	0x1
 6293 1a4c 3B       		.byte	0x3b
 6294 1a4d 68000000 		.4byte	0x68
 6295 1a51 05       		.uleb128 0x5
 6296 1a52 03       		.byte	0x3
 6297 1a53 00000000 		.4byte	pathToPucks
 6298 1a57 13       		.uleb128 0x13
 6299 1a58 8D050000 		.4byte	.LASF55
 6300 1a5c 01       		.byte	0x1
 6301 1a5d 3C       		.byte	0x3c
 6302 1a5e 68000000 		.4byte	0x68
 6303 1a62 05       		.uleb128 0x5
 6304 1a63 03       		.byte	0x3
 6305 1a64 00000000 		.4byte	pathPastBlock
 6306 1a68 14       		.uleb128 0x14
 6307 1a69 68000000 		.4byte	0x68
 6308 1a6d 781A0000 		.4byte	0x1a78
 6309 1a71 15       		.uleb128 0x15
 6310 1a72 9D000000 		.4byte	0x9d
 6311 1a76 03       		.byte	0x3
 6312 1a77 00       		.byte	0
 6313 1a78 13       		.uleb128 0x13
 6314 1a79 CE010000 		.4byte	.LASF56
 6315 1a7d 01       		.byte	0x1
 6316 1a7e 3D       		.byte	0x3d
 6317 1a7f 681A0000 		.4byte	0x1a68
 6318 1a83 05       		.uleb128 0x5
 6319 1a84 03       		.byte	0x3
 6320 1a85 00000000 		.4byte	block_location
 6321 1a89 13       		.uleb128 0x13
 6322 1a8a 00040000 		.4byte	.LASF57
 6323 1a8e 01       		.byte	0x1
 6324 1a8f 42       		.byte	0x42
 6325 1a90 681A0000 		.4byte	0x1a68
 6326 1a94 05       		.uleb128 0x5
 6327 1a95 03       		.byte	0x3
 6328 1a96 00000000 		.4byte	puck_location
 6329 1a9a 13       		.uleb128 0x13
 6330 1a9b FE020000 		.4byte	.LASF58
 6331 1a9f 01       		.byte	0x1
 6332 1aa0 4C       		.byte	0x4c
 6333 1aa1 33000000 		.4byte	0x33
 6334 1aa5 05       		.uleb128 0x5
 6335 1aa6 03       		.byte	0x3
 6336 1aa7 00000000 		.4byte	blockEastClearance
 6337 1aab 13       		.uleb128 0x13
 6338 1aac 63060000 		.4byte	.LASF59
 6339 1ab0 01       		.byte	0x1
ARM GAS  C:\Users\Misha\AppData\Local\Temp\ccVSruQj.s 			page 133


 6340 1ab1 4D       		.byte	0x4d
 6341 1ab2 33000000 		.4byte	0x33
 6342 1ab6 05       		.uleb128 0x5
 6343 1ab7 03       		.byte	0x3
 6344 1ab8 00000000 		.4byte	blockWestClearance
 6345 1abc 13       		.uleb128 0x13
 6346 1abd E4060000 		.4byte	.LASF60
 6347 1ac1 01       		.byte	0x1
 6348 1ac2 4E       		.byte	0x4e
 6349 1ac3 33000000 		.4byte	0x33
 6350 1ac7 05       		.uleb128 0x5
 6351 1ac8 03       		.byte	0x3
 6352 1ac9 00000000 		.4byte	puckEastClearance
 6353 1acd 13       		.uleb128 0x13
 6354 1ace 25050000 		.4byte	.LASF61
 6355 1ad2 01       		.byte	0x1
 6356 1ad3 4F       		.byte	0x4f
 6357 1ad4 33000000 		.4byte	0x33
 6358 1ad8 05       		.uleb128 0x5
 6359 1ad9 03       		.byte	0x3
 6360 1ada 00000000 		.4byte	puckWestClearance
 6361 1ade 13       		.uleb128 0x13
 6362 1adf AA040000 		.4byte	.LASF62
 6363 1ae3 01       		.byte	0x1
 6364 1ae4 53       		.byte	0x53
 6365 1ae5 68000000 		.4byte	0x68
 6366 1ae9 05       		.uleb128 0x5
 6367 1aea 03       		.byte	0x3
 6368 1aeb 00000000 		.4byte	idac_value
 6369 1aef 13       		.uleb128 0x13
 6370 1af0 4C050000 		.4byte	.LASF63
 6371 1af4 01       		.byte	0x1
 6372 1af5 5C       		.byte	0x5c
 6373 1af6 001B0000 		.4byte	0x1b00
 6374 1afa 05       		.uleb128 0x5
 6375 1afb 03       		.byte	0x3
 6376 1afc 00000000 		.4byte	PLAN_SCAN_VERTICAL
 6377 1b00 17       		.uleb128 0x17
 6378 1b01 68000000 		.4byte	0x68
 6379 1b05 13       		.uleb128 0x13
 6380 1b06 17070000 		.4byte	.LASF64
 6381 1b0a 01       		.byte	0x1
 6382 1b0b 62       		.byte	0x62
 6383 1b0c 68000000 		.4byte	0x68
 6384 1b10 05       		.uleb128 0x5
 6385 1b11 03       		.byte	0x3
 6386 1b12 00000000 		.4byte	distance_returned_global
 6387 1b16 18       		.uleb128 0x18
 6388 1b17 02020000 		.4byte	.LASF65
 6389 1b1b 02020000 		.4byte	.LASF65
 6390 1b1f 06       		.byte	0x6
 6391 1b20 19       		.byte	0x19
 6392 1b21 18       		.uleb128 0x18
 6393 1b22 E5070000 		.4byte	.LASF66
 6394 1b26 E5070000 		.4byte	.LASF66
 6395 1b2a 08       		.byte	0x8
 6396 1b2b 76       		.byte	0x76
ARM GAS  C:\Users\Misha\AppData\Local\Temp\ccVSruQj.s 			page 134


 6397 1b2c 18       		.uleb128 0x18
 6398 1b2d 43000000 		.4byte	.LASF67
 6399 1b31 43000000 		.4byte	.LASF67
 6400 1b35 09       		.byte	0x9
 6401 1b36 1D       		.byte	0x1d
 6402 1b37 18       		.uleb128 0x18
 6403 1b38 0E040000 		.4byte	.LASF68
 6404 1b3c 0E040000 		.4byte	.LASF68
 6405 1b40 0A       		.byte	0xa
 6406 1b41 E7       		.byte	0xe7
 6407 1b42 18       		.uleb128 0x18
 6408 1b43 FA050000 		.4byte	.LASF69
 6409 1b47 FA050000 		.4byte	.LASF69
 6410 1b4b 0B       		.byte	0xb
 6411 1b4c 8B       		.byte	0x8b
 6412 1b4d 18       		.uleb128 0x18
 6413 1b4e 67000000 		.4byte	.LASF70
 6414 1b52 67000000 		.4byte	.LASF70
 6415 1b56 05       		.byte	0x5
 6416 1b57 10       		.byte	0x10
 6417 1b58 18       		.uleb128 0x18
 6418 1b59 F6060000 		.4byte	.LASF71
 6419 1b5d F6060000 		.4byte	.LASF71
 6420 1b61 05       		.byte	0x5
 6421 1b62 12       		.byte	0x12
 6422 1b63 18       		.uleb128 0x18
 6423 1b64 16040000 		.4byte	.LASF72
 6424 1b68 16040000 		.4byte	.LASF72
 6425 1b6c 09       		.byte	0x9
 6426 1b6d 19       		.byte	0x19
 6427 1b6e 18       		.uleb128 0x18
 6428 1b6f D5020000 		.4byte	.LASF73
 6429 1b73 D5020000 		.4byte	.LASF73
 6430 1b77 0C       		.byte	0xc
 6431 1b78 2F       		.byte	0x2f
 6432 1b79 18       		.uleb128 0x18
 6433 1b7a 2E040000 		.4byte	.LASF74
 6434 1b7e 2E040000 		.4byte	.LASF74
 6435 1b82 0D       		.byte	0xd
 6436 1b83 0F       		.byte	0xf
 6437 1b84 18       		.uleb128 0x18
 6438 1b85 11050000 		.4byte	.LASF75
 6439 1b89 11050000 		.4byte	.LASF75
 6440 1b8d 06       		.byte	0x6
 6441 1b8e 16       		.byte	0x16
 6442 1b8f 18       		.uleb128 0x18
 6443 1b90 CC020000 		.4byte	.LASF76
 6444 1b94 CC020000 		.4byte	.LASF76
 6445 1b98 09       		.byte	0x9
 6446 1b99 1C       		.byte	0x1c
 6447 1b9a 18       		.uleb128 0x18
 6448 1b9b EE050000 		.4byte	.LASF77
 6449 1b9f EE050000 		.4byte	.LASF77
 6450 1ba3 0D       		.byte	0xd
 6451 1ba4 0E       		.byte	0xe
 6452 1ba5 18       		.uleb128 0x18
 6453 1ba6 82030000 		.4byte	.LASF78
ARM GAS  C:\Users\Misha\AppData\Local\Temp\ccVSruQj.s 			page 135


 6454 1baa 82030000 		.4byte	.LASF78
 6455 1bae 05       		.byte	0x5
 6456 1baf 14       		.byte	0x14
 6457 1bb0 18       		.uleb128 0x18
 6458 1bb1 34020000 		.4byte	.LASF79
 6459 1bb5 34020000 		.4byte	.LASF79
 6460 1bb9 0E       		.byte	0xe
 6461 1bba 0F       		.byte	0xf
 6462 1bbb 18       		.uleb128 0x18
 6463 1bbc F9070000 		.4byte	.LASF80
 6464 1bc0 F9070000 		.4byte	.LASF80
 6465 1bc4 0D       		.byte	0xd
 6466 1bc5 10       		.byte	0x10
 6467 1bc6 18       		.uleb128 0x18
 6468 1bc7 DA030000 		.4byte	.LASF81
 6469 1bcb DA030000 		.4byte	.LASF81
 6470 1bcf 05       		.byte	0x5
 6471 1bd0 0F       		.byte	0xf
 6472 1bd1 18       		.uleb128 0x18
 6473 1bd2 08000000 		.4byte	.LASF82
 6474 1bd6 08000000 		.4byte	.LASF82
 6475 1bda 0E       		.byte	0xe
 6476 1bdb 11       		.byte	0x11
 6477 1bdc 18       		.uleb128 0x18
 6478 1bdd 00000000 		.4byte	.LASF83
 6479 1be1 00000000 		.4byte	.LASF83
 6480 1be5 0E       		.byte	0xe
 6481 1be6 10       		.byte	0x10
 6482 1be7 18       		.uleb128 0x18
 6483 1be8 05050000 		.4byte	.LASF84
 6484 1bec 05050000 		.4byte	.LASF84
 6485 1bf0 0F       		.byte	0xf
 6486 1bf1 3D       		.byte	0x3d
 6487 1bf2 18       		.uleb128 0x18
 6488 1bf3 75030000 		.4byte	.LASF85
 6489 1bf7 75030000 		.4byte	.LASF85
 6490 1bfb 0B       		.byte	0xb
 6491 1bfc 54       		.byte	0x54
 6492 1bfd 18       		.uleb128 0x18
 6493 1bfe 8B020000 		.4byte	.LASF86
 6494 1c02 8B020000 		.4byte	.LASF86
 6495 1c06 10       		.byte	0x10
 6496 1c07 3A       		.byte	0x3a
 6497 1c08 18       		.uleb128 0x18
 6498 1c09 B5040000 		.4byte	.LASF87
 6499 1c0d B5040000 		.4byte	.LASF87
 6500 1c11 11       		.byte	0x11
 6501 1c12 3C       		.byte	0x3c
 6502 1c13 18       		.uleb128 0x18
 6503 1c14 43040000 		.4byte	.LASF88
 6504 1c18 43040000 		.4byte	.LASF88
 6505 1c1c 11       		.byte	0x11
 6506 1c1d 40       		.byte	0x40
 6507 1c1e 18       		.uleb128 0x18
 6508 1c1f AE050000 		.4byte	.LASF89
 6509 1c23 AE050000 		.4byte	.LASF89
 6510 1c27 11       		.byte	0x11
ARM GAS  C:\Users\Misha\AppData\Local\Temp\ccVSruQj.s 			page 136


 6511 1c28 41       		.byte	0x41
 6512 1c29 18       		.uleb128 0x18
 6513 1c2a 8B040000 		.4byte	.LASF90
 6514 1c2e 8B040000 		.4byte	.LASF90
 6515 1c32 12       		.byte	0x12
 6516 1c33 2F       		.byte	0x2f
 6517 1c34 18       		.uleb128 0x18
 6518 1c35 C3040000 		.4byte	.LASF91
 6519 1c39 C3040000 		.4byte	.LASF91
 6520 1c3d 13       		.byte	0x13
 6521 1c3e 92       		.byte	0x92
 6522 1c3f 18       		.uleb128 0x18
 6523 1c40 53030000 		.4byte	.LASF92
 6524 1c44 53030000 		.4byte	.LASF92
 6525 1c48 13       		.byte	0x13
 6526 1c49 C3       		.byte	0xc3
 6527 1c4a 18       		.uleb128 0x18
 6528 1c4b 51010000 		.4byte	.LASF93
 6529 1c4f 51010000 		.4byte	.LASF93
 6530 1c53 13       		.byte	0x13
 6531 1c54 DC       		.byte	0xdc
 6532 1c55 18       		.uleb128 0x18
 6533 1c56 DD010000 		.4byte	.LASF94
 6534 1c5a DD010000 		.4byte	.LASF94
 6535 1c5e 14       		.byte	0x14
 6536 1c5f 92       		.byte	0x92
 6537 1c60 18       		.uleb128 0x18
 6538 1c61 E6040000 		.4byte	.LASF95
 6539 1c65 E6040000 		.4byte	.LASF95
 6540 1c69 14       		.byte	0x14
 6541 1c6a C3       		.byte	0xc3
 6542 1c6b 18       		.uleb128 0x18
 6543 1c6c 20060000 		.4byte	.LASF96
 6544 1c70 20060000 		.4byte	.LASF96
 6545 1c74 14       		.byte	0x14
 6546 1c75 DC       		.byte	0xdc
 6547 1c76 18       		.uleb128 0x18
 6548 1c77 E8030000 		.4byte	.LASF97
 6549 1c7b E8030000 		.4byte	.LASF97
 6550 1c7f 15       		.byte	0x15
 6551 1c80 92       		.byte	0x92
 6552 1c81 18       		.uleb128 0x18
 6553 1c82 B3020000 		.4byte	.LASF98
 6554 1c86 B3020000 		.4byte	.LASF98
 6555 1c8a 16       		.byte	0x16
 6556 1c8b 92       		.byte	0x92
 6557 1c8c 18       		.uleb128 0x18
 6558 1c8d 04080000 		.4byte	.LASF99
 6559 1c91 04080000 		.4byte	.LASF99
 6560 1c95 15       		.byte	0x15
 6561 1c96 C3       		.byte	0xc3
 6562 1c97 18       		.uleb128 0x18
 6563 1c98 23000000 		.4byte	.LASF100
 6564 1c9c 23000000 		.4byte	.LASF100
 6565 1ca0 16       		.byte	0x16
 6566 1ca1 C3       		.byte	0xc3
 6567 1ca2 18       		.uleb128 0x18
ARM GAS  C:\Users\Misha\AppData\Local\Temp\ccVSruQj.s 			page 137


 6568 1ca3 AE030000 		.4byte	.LASF101
 6569 1ca7 AE030000 		.4byte	.LASF101
 6570 1cab 15       		.byte	0x15
 6571 1cac DC       		.byte	0xdc
 6572 1cad 18       		.uleb128 0x18
 6573 1cae 72020000 		.4byte	.LASF102
 6574 1cb2 72020000 		.4byte	.LASF102
 6575 1cb6 16       		.byte	0x16
 6576 1cb7 DC       		.byte	0xdc
 6577 1cb8 18       		.uleb128 0x18
 6578 1cb9 D3000000 		.4byte	.LASF103
 6579 1cbd D3000000 		.4byte	.LASF103
 6580 1cc1 17       		.byte	0x17
 6581 1cc2 48       		.byte	0x48
 6582 1cc3 18       		.uleb128 0x18
 6583 1cc4 A1000000 		.4byte	.LASF104
 6584 1cc8 A1000000 		.4byte	.LASF104
 6585 1ccc 18       		.byte	0x18
 6586 1ccd 48       		.byte	0x48
 6587 1cce 18       		.uleb128 0x18
 6588 1ccf 7F050000 		.4byte	.LASF105
 6589 1cd3 7F050000 		.4byte	.LASF105
 6590 1cd7 19       		.byte	0x19
 6591 1cd8 5A       		.byte	0x5a
 6592 1cd9 18       		.uleb128 0x18
 6593 1cda 79010000 		.4byte	.LASF106
 6594 1cde 79010000 		.4byte	.LASF106
 6595 1ce2 19       		.byte	0x19
 6596 1ce3 5E       		.byte	0x5e
 6597 1ce4 18       		.uleb128 0x18
 6598 1ce5 93000000 		.4byte	.LASF107
 6599 1ce9 93000000 		.4byte	.LASF107
 6600 1ced 1A       		.byte	0x1a
 6601 1cee 18       		.byte	0x18
 6602 1cef 18       		.uleb128 0x18
 6603 1cf0 E0050000 		.4byte	.LASF108
 6604 1cf4 E0050000 		.4byte	.LASF108
 6605 1cf8 1B       		.byte	0x1b
 6606 1cf9 18       		.byte	0x18
 6607 1cfa 18       		.uleb128 0x18
 6608 1cfb D0060000 		.4byte	.LASF109
 6609 1cff D0060000 		.4byte	.LASF109
 6610 1d03 06       		.byte	0x6
 6611 1d04 1A       		.byte	0x1a
 6612 1d05 18       		.uleb128 0x18
 6613 1d06 11000000 		.4byte	.LASF110
 6614 1d0a 11000000 		.4byte	.LASF110
 6615 1d0e 1C       		.byte	0x1c
 6616 1d0f 0E       		.byte	0xe
 6617 1d10 00       		.byte	0
 6618              		.section	.debug_abbrev,"",%progbits
 6619              	.Ldebug_abbrev0:
 6620 0000 01       		.uleb128 0x1
 6621 0001 11       		.uleb128 0x11
 6622 0002 01       		.byte	0x1
 6623 0003 25       		.uleb128 0x25
 6624 0004 0E       		.uleb128 0xe
ARM GAS  C:\Users\Misha\AppData\Local\Temp\ccVSruQj.s 			page 138


 6625 0005 13       		.uleb128 0x13
 6626 0006 0B       		.uleb128 0xb
 6627 0007 03       		.uleb128 0x3
 6628 0008 0E       		.uleb128 0xe
 6629 0009 1B       		.uleb128 0x1b
 6630 000a 0E       		.uleb128 0xe
 6631 000b 55       		.uleb128 0x55
 6632 000c 17       		.uleb128 0x17
 6633 000d 11       		.uleb128 0x11
 6634 000e 01       		.uleb128 0x1
 6635 000f 10       		.uleb128 0x10
 6636 0010 17       		.uleb128 0x17
 6637 0011 00       		.byte	0
 6638 0012 00       		.byte	0
 6639 0013 02       		.uleb128 0x2
 6640 0014 24       		.uleb128 0x24
 6641 0015 00       		.byte	0
 6642 0016 0B       		.uleb128 0xb
 6643 0017 0B       		.uleb128 0xb
 6644 0018 3E       		.uleb128 0x3e
 6645 0019 0B       		.uleb128 0xb
 6646 001a 03       		.uleb128 0x3
 6647 001b 0E       		.uleb128 0xe
 6648 001c 00       		.byte	0
 6649 001d 00       		.byte	0
 6650 001e 03       		.uleb128 0x3
 6651 001f 16       		.uleb128 0x16
 6652 0020 00       		.byte	0
 6653 0021 03       		.uleb128 0x3
 6654 0022 0E       		.uleb128 0xe
 6655 0023 3A       		.uleb128 0x3a
 6656 0024 0B       		.uleb128 0xb
 6657 0025 3B       		.uleb128 0x3b
 6658 0026 0B       		.uleb128 0xb
 6659 0027 49       		.uleb128 0x49
 6660 0028 13       		.uleb128 0x13
 6661 0029 00       		.byte	0
 6662 002a 00       		.byte	0
 6663 002b 04       		.uleb128 0x4
 6664 002c 24       		.uleb128 0x24
 6665 002d 00       		.byte	0
 6666 002e 0B       		.uleb128 0xb
 6667 002f 0B       		.uleb128 0xb
 6668 0030 3E       		.uleb128 0x3e
 6669 0031 0B       		.uleb128 0xb
 6670 0032 03       		.uleb128 0x3
 6671 0033 08       		.uleb128 0x8
 6672 0034 00       		.byte	0
 6673 0035 00       		.byte	0
 6674 0036 05       		.uleb128 0x5
 6675 0037 2E       		.uleb128 0x2e
 6676 0038 01       		.byte	0x1
 6677 0039 3F       		.uleb128 0x3f
 6678 003a 19       		.uleb128 0x19
 6679 003b 03       		.uleb128 0x3
 6680 003c 08       		.uleb128 0x8
 6681 003d 3A       		.uleb128 0x3a
ARM GAS  C:\Users\Misha\AppData\Local\Temp\ccVSruQj.s 			page 139


 6682 003e 0B       		.uleb128 0xb
 6683 003f 3B       		.uleb128 0x3b
 6684 0040 0B       		.uleb128 0xb
 6685 0041 27       		.uleb128 0x27
 6686 0042 19       		.uleb128 0x19
 6687 0043 11       		.uleb128 0x11
 6688 0044 01       		.uleb128 0x1
 6689 0045 12       		.uleb128 0x12
 6690 0046 06       		.uleb128 0x6
 6691 0047 40       		.uleb128 0x40
 6692 0048 18       		.uleb128 0x18
 6693 0049 9742     		.uleb128 0x2117
 6694 004b 19       		.uleb128 0x19
 6695 004c 01       		.uleb128 0x1
 6696 004d 13       		.uleb128 0x13
 6697 004e 00       		.byte	0
 6698 004f 00       		.byte	0
 6699 0050 06       		.uleb128 0x6
 6700 0051 898201   		.uleb128 0x4109
 6701 0054 00       		.byte	0
 6702 0055 11       		.uleb128 0x11
 6703 0056 01       		.uleb128 0x1
 6704 0057 31       		.uleb128 0x31
 6705 0058 13       		.uleb128 0x13
 6706 0059 00       		.byte	0
 6707 005a 00       		.byte	0
 6708 005b 07       		.uleb128 0x7
 6709 005c 2E       		.uleb128 0x2e
 6710 005d 01       		.byte	0x1
 6711 005e 3F       		.uleb128 0x3f
 6712 005f 19       		.uleb128 0x19
 6713 0060 03       		.uleb128 0x3
 6714 0061 0E       		.uleb128 0xe
 6715 0062 3A       		.uleb128 0x3a
 6716 0063 0B       		.uleb128 0xb
 6717 0064 3B       		.uleb128 0x3b
 6718 0065 0B       		.uleb128 0xb
 6719 0066 27       		.uleb128 0x27
 6720 0067 19       		.uleb128 0x19
 6721 0068 11       		.uleb128 0x11
 6722 0069 01       		.uleb128 0x1
 6723 006a 12       		.uleb128 0x12
 6724 006b 06       		.uleb128 0x6
 6725 006c 40       		.uleb128 0x40
 6726 006d 18       		.uleb128 0x18
 6727 006e 9742     		.uleb128 0x2117
 6728 0070 19       		.uleb128 0x19
 6729 0071 01       		.uleb128 0x1
 6730 0072 13       		.uleb128 0x13
 6731 0073 00       		.byte	0
 6732 0074 00       		.byte	0
 6733 0075 08       		.uleb128 0x8
 6734 0076 898201   		.uleb128 0x4109
 6735 0079 01       		.byte	0x1
 6736 007a 11       		.uleb128 0x11
 6737 007b 01       		.uleb128 0x1
 6738 007c 31       		.uleb128 0x31
ARM GAS  C:\Users\Misha\AppData\Local\Temp\ccVSruQj.s 			page 140


 6739 007d 13       		.uleb128 0x13
 6740 007e 00       		.byte	0
 6741 007f 00       		.byte	0
 6742 0080 09       		.uleb128 0x9
 6743 0081 8A8201   		.uleb128 0x410a
 6744 0084 00       		.byte	0
 6745 0085 02       		.uleb128 0x2
 6746 0086 18       		.uleb128 0x18
 6747 0087 9142     		.uleb128 0x2111
 6748 0089 18       		.uleb128 0x18
 6749 008a 00       		.byte	0
 6750 008b 00       		.byte	0
 6751 008c 0A       		.uleb128 0xa
 6752 008d 2E       		.uleb128 0x2e
 6753 008e 01       		.byte	0x1
 6754 008f 3F       		.uleb128 0x3f
 6755 0090 19       		.uleb128 0x19
 6756 0091 03       		.uleb128 0x3
 6757 0092 0E       		.uleb128 0xe
 6758 0093 3A       		.uleb128 0x3a
 6759 0094 0B       		.uleb128 0xb
 6760 0095 3B       		.uleb128 0x3b
 6761 0096 0B       		.uleb128 0xb
 6762 0097 27       		.uleb128 0x27
 6763 0098 19       		.uleb128 0x19
 6764 0099 49       		.uleb128 0x49
 6765 009a 13       		.uleb128 0x13
 6766 009b 8701     		.uleb128 0x87
 6767 009d 19       		.uleb128 0x19
 6768 009e 11       		.uleb128 0x11
 6769 009f 01       		.uleb128 0x1
 6770 00a0 12       		.uleb128 0x12
 6771 00a1 06       		.uleb128 0x6
 6772 00a2 40       		.uleb128 0x40
 6773 00a3 18       		.uleb128 0x18
 6774 00a4 9742     		.uleb128 0x2117
 6775 00a6 19       		.uleb128 0x19
 6776 00a7 01       		.uleb128 0x1
 6777 00a8 13       		.uleb128 0x13
 6778 00a9 00       		.byte	0
 6779 00aa 00       		.byte	0
 6780 00ab 0B       		.uleb128 0xb
 6781 00ac 34       		.uleb128 0x34
 6782 00ad 00       		.byte	0
 6783 00ae 03       		.uleb128 0x3
 6784 00af 0E       		.uleb128 0xe
 6785 00b0 3A       		.uleb128 0x3a
 6786 00b1 0B       		.uleb128 0xb
 6787 00b2 3B       		.uleb128 0x3b
 6788 00b3 0B       		.uleb128 0xb
 6789 00b4 49       		.uleb128 0x49
 6790 00b5 13       		.uleb128 0x13
 6791 00b6 1C       		.uleb128 0x1c
 6792 00b7 05       		.uleb128 0x5
 6793 00b8 00       		.byte	0
 6794 00b9 00       		.byte	0
 6795 00ba 0C       		.uleb128 0xc
ARM GAS  C:\Users\Misha\AppData\Local\Temp\ccVSruQj.s 			page 141


 6796 00bb 0B       		.uleb128 0xb
 6797 00bc 01       		.byte	0x1
 6798 00bd 11       		.uleb128 0x11
 6799 00be 01       		.uleb128 0x1
 6800 00bf 12       		.uleb128 0x12
 6801 00c0 06       		.uleb128 0x6
 6802 00c1 01       		.uleb128 0x1
 6803 00c2 13       		.uleb128 0x13
 6804 00c3 00       		.byte	0
 6805 00c4 00       		.byte	0
 6806 00c5 0D       		.uleb128 0xd
 6807 00c6 34       		.uleb128 0x34
 6808 00c7 00       		.byte	0
 6809 00c8 03       		.uleb128 0x3
 6810 00c9 0E       		.uleb128 0xe
 6811 00ca 3A       		.uleb128 0x3a
 6812 00cb 0B       		.uleb128 0xb
 6813 00cc 3B       		.uleb128 0x3b
 6814 00cd 05       		.uleb128 0x5
 6815 00ce 49       		.uleb128 0x49
 6816 00cf 13       		.uleb128 0x13
 6817 00d0 02       		.uleb128 0x2
 6818 00d1 17       		.uleb128 0x17
 6819 00d2 00       		.byte	0
 6820 00d3 00       		.byte	0
 6821 00d4 0E       		.uleb128 0xe
 6822 00d5 34       		.uleb128 0x34
 6823 00d6 00       		.byte	0
 6824 00d7 03       		.uleb128 0x3
 6825 00d8 08       		.uleb128 0x8
 6826 00d9 3A       		.uleb128 0x3a
 6827 00da 0B       		.uleb128 0xb
 6828 00db 3B       		.uleb128 0x3b
 6829 00dc 05       		.uleb128 0x5
 6830 00dd 49       		.uleb128 0x49
 6831 00de 13       		.uleb128 0x13
 6832 00df 02       		.uleb128 0x2
 6833 00e0 17       		.uleb128 0x17
 6834 00e1 00       		.byte	0
 6835 00e2 00       		.byte	0
 6836 00e3 0F       		.uleb128 0xf
 6837 00e4 898201   		.uleb128 0x4109
 6838 00e7 01       		.byte	0x1
 6839 00e8 11       		.uleb128 0x11
 6840 00e9 01       		.uleb128 0x1
 6841 00ea 31       		.uleb128 0x31
 6842 00eb 13       		.uleb128 0x13
 6843 00ec 01       		.uleb128 0x1
 6844 00ed 13       		.uleb128 0x13
 6845 00ee 00       		.byte	0
 6846 00ef 00       		.byte	0
 6847 00f0 10       		.uleb128 0x10
 6848 00f1 0B       		.uleb128 0xb
 6849 00f2 01       		.byte	0x1
 6850 00f3 55       		.uleb128 0x55
 6851 00f4 17       		.uleb128 0x17
 6852 00f5 01       		.uleb128 0x1
ARM GAS  C:\Users\Misha\AppData\Local\Temp\ccVSruQj.s 			page 142


 6853 00f6 13       		.uleb128 0x13
 6854 00f7 00       		.byte	0
 6855 00f8 00       		.byte	0
 6856 00f9 11       		.uleb128 0x11
 6857 00fa 34       		.uleb128 0x34
 6858 00fb 00       		.byte	0
 6859 00fc 03       		.uleb128 0x3
 6860 00fd 0E       		.uleb128 0xe
 6861 00fe 3A       		.uleb128 0x3a
 6862 00ff 0B       		.uleb128 0xb
 6863 0100 3B       		.uleb128 0x3b
 6864 0101 05       		.uleb128 0x5
 6865 0102 49       		.uleb128 0x49
 6866 0103 13       		.uleb128 0x13
 6867 0104 3F       		.uleb128 0x3f
 6868 0105 19       		.uleb128 0x19
 6869 0106 3C       		.uleb128 0x3c
 6870 0107 19       		.uleb128 0x19
 6871 0108 00       		.byte	0
 6872 0109 00       		.byte	0
 6873 010a 12       		.uleb128 0x12
 6874 010b 35       		.uleb128 0x35
 6875 010c 00       		.byte	0
 6876 010d 49       		.uleb128 0x49
 6877 010e 13       		.uleb128 0x13
 6878 010f 00       		.byte	0
 6879 0110 00       		.byte	0
 6880 0111 13       		.uleb128 0x13
 6881 0112 34       		.uleb128 0x34
 6882 0113 00       		.byte	0
 6883 0114 03       		.uleb128 0x3
 6884 0115 0E       		.uleb128 0xe
 6885 0116 3A       		.uleb128 0x3a
 6886 0117 0B       		.uleb128 0xb
 6887 0118 3B       		.uleb128 0x3b
 6888 0119 0B       		.uleb128 0xb
 6889 011a 49       		.uleb128 0x49
 6890 011b 13       		.uleb128 0x13
 6891 011c 3F       		.uleb128 0x3f
 6892 011d 19       		.uleb128 0x19
 6893 011e 02       		.uleb128 0x2
 6894 011f 18       		.uleb128 0x18
 6895 0120 00       		.byte	0
 6896 0121 00       		.byte	0
 6897 0122 14       		.uleb128 0x14
 6898 0123 01       		.uleb128 0x1
 6899 0124 01       		.byte	0x1
 6900 0125 49       		.uleb128 0x49
 6901 0126 13       		.uleb128 0x13
 6902 0127 01       		.uleb128 0x1
 6903 0128 13       		.uleb128 0x13
 6904 0129 00       		.byte	0
 6905 012a 00       		.byte	0
 6906 012b 15       		.uleb128 0x15
 6907 012c 21       		.uleb128 0x21
 6908 012d 00       		.byte	0
 6909 012e 49       		.uleb128 0x49
ARM GAS  C:\Users\Misha\AppData\Local\Temp\ccVSruQj.s 			page 143


 6910 012f 13       		.uleb128 0x13
 6911 0130 2F       		.uleb128 0x2f
 6912 0131 0B       		.uleb128 0xb
 6913 0132 00       		.byte	0
 6914 0133 00       		.byte	0
 6915 0134 16       		.uleb128 0x16
 6916 0135 34       		.uleb128 0x34
 6917 0136 00       		.byte	0
 6918 0137 03       		.uleb128 0x3
 6919 0138 0E       		.uleb128 0xe
 6920 0139 3A       		.uleb128 0x3a
 6921 013a 0B       		.uleb128 0xb
 6922 013b 3B       		.uleb128 0x3b
 6923 013c 0B       		.uleb128 0xb
 6924 013d 49       		.uleb128 0x49
 6925 013e 13       		.uleb128 0x13
 6926 013f 3F       		.uleb128 0x3f
 6927 0140 19       		.uleb128 0x19
 6928 0141 3C       		.uleb128 0x3c
 6929 0142 19       		.uleb128 0x19
 6930 0143 00       		.byte	0
 6931 0144 00       		.byte	0
 6932 0145 17       		.uleb128 0x17
 6933 0146 26       		.uleb128 0x26
 6934 0147 00       		.byte	0
 6935 0148 49       		.uleb128 0x49
 6936 0149 13       		.uleb128 0x13
 6937 014a 00       		.byte	0
 6938 014b 00       		.byte	0
 6939 014c 18       		.uleb128 0x18
 6940 014d 2E       		.uleb128 0x2e
 6941 014e 00       		.byte	0
 6942 014f 3F       		.uleb128 0x3f
 6943 0150 19       		.uleb128 0x19
 6944 0151 3C       		.uleb128 0x3c
 6945 0152 19       		.uleb128 0x19
 6946 0153 6E       		.uleb128 0x6e
 6947 0154 0E       		.uleb128 0xe
 6948 0155 03       		.uleb128 0x3
 6949 0156 0E       		.uleb128 0xe
 6950 0157 3A       		.uleb128 0x3a
 6951 0158 0B       		.uleb128 0xb
 6952 0159 3B       		.uleb128 0x3b
 6953 015a 0B       		.uleb128 0xb
 6954 015b 00       		.byte	0
 6955 015c 00       		.byte	0
 6956 015d 00       		.byte	0
 6957              		.section	.debug_loc,"",%progbits
 6958              	.Ldebug_loc0:
 6959              	.LLST0:
 6960 0000 90010000 		.4byte	.LVL60
 6961 0004 96010000 		.4byte	.LVL61
 6962 0008 0200     		.2byte	0x2
 6963 000a 30       		.byte	0x30
 6964 000b 9F       		.byte	0x9f
 6965 000c 96010000 		.4byte	.LVL61
 6966 0010 B6010000 		.4byte	.LVL64
ARM GAS  C:\Users\Misha\AppData\Local\Temp\ccVSruQj.s 			page 144


 6967 0014 0100     		.2byte	0x1
 6968 0016 52       		.byte	0x52
 6969 0017 00000000 		.4byte	0
 6970 001b 00000000 		.4byte	0
 6971              	.LLST1:
 6972 001f 3E010000 		.4byte	.LVL48
 6973 0023 42010000 		.4byte	.LVL49
 6974 0027 0200     		.2byte	0x2
 6975 0029 30       		.byte	0x30
 6976 002a 9F       		.byte	0x9f
 6977 002b 42010000 		.4byte	.LVL49
 6978 002f 64010000 		.4byte	.LVL54
 6979 0033 0100     		.2byte	0x1
 6980 0035 54       		.byte	0x54
 6981 0036 00000000 		.4byte	0
 6982 003a 00000000 		.4byte	0
 6983              	.LLST2:
 6984 003e 62010000 		.4byte	.LVL53
 6985 0042 66010000 		.4byte	.LVL55
 6986 0046 0200     		.2byte	0x2
 6987 0048 30       		.byte	0x30
 6988 0049 9F       		.byte	0x9f
 6989 004a 66010000 		.4byte	.LVL55
 6990 004e BA010000 		.4byte	.LVL66
 6991 0052 0100     		.2byte	0x1
 6992 0054 54       		.byte	0x54
 6993 0055 00000000 		.4byte	0
 6994 0059 00000000 		.4byte	0
 6995              	.LLST3:
 6996 005d 90010000 		.4byte	.LVL60
 6997 0061 96010000 		.4byte	.LVL61
 6998 0065 0200     		.2byte	0x2
 6999 0067 30       		.byte	0x30
 7000 0068 9F       		.byte	0x9f
 7001 0069 96010000 		.4byte	.LVL61
 7002 006d B8010000 		.4byte	.LVL65
 7003 0071 0100     		.2byte	0x1
 7004 0073 53       		.byte	0x53
 7005 0074 00000000 		.4byte	0
 7006 0078 00000000 		.4byte	0
 7007              	.LLST4:
 7008 007c 0A020000 		.4byte	.LVL73
 7009 0080 2C030000 		.4byte	.LVL92
 7010 0084 0100     		.2byte	0x1
 7011 0086 54       		.byte	0x54
 7012 0087 00000000 		.4byte	0
 7013 008b 00000000 		.4byte	0
 7014              	.LLST5:
 7015 008f AE030000 		.4byte	.LVL107
 7016 0093 D2040000 		.4byte	.LVL127
 7017 0097 0400     		.2byte	0x4
 7018 0099 0A       		.byte	0xa
 7019 009a EE02     		.2byte	0x2ee
 7020 009c 9F       		.byte	0x9f
 7021 009d 00000000 		.4byte	0
 7022 00a1 00000000 		.4byte	0
 7023              	.LLST6:
ARM GAS  C:\Users\Misha\AppData\Local\Temp\ccVSruQj.s 			page 145


 7024 00a5 78060000 		.4byte	.LVL156
 7025 00a9 88060000 		.4byte	.LVL157
 7026 00ad 0200     		.2byte	0x2
 7027 00af 30       		.byte	0x30
 7028 00b0 9F       		.byte	0x9f
 7029 00b1 88060000 		.4byte	.LVL157
 7030 00b5 1C070000 		.4byte	.LVL174
 7031 00b9 0100     		.2byte	0x1
 7032 00bb 55       		.byte	0x55
 7033 00bc 00000000 		.4byte	0
 7034 00c0 00000000 		.4byte	0
 7035              	.LLST7:
 7036 00c4 A0060000 		.4byte	.LVL161
 7037 00c8 A4060000 		.4byte	.LVL162
 7038 00cc 0100     		.2byte	0x1
 7039 00ce 50       		.byte	0x50
 7040 00cf A4060000 		.4byte	.LVL162
 7041 00d3 EC060000 		.4byte	.LVL168
 7042 00d7 0100     		.2byte	0x1
 7043 00d9 54       		.byte	0x54
 7044 00da 00000000 		.4byte	0
 7045 00de 00000000 		.4byte	0
 7046              	.LLST8:
 7047 00e2 30090000 		.4byte	.LVL220
 7048 00e6 520A0000 		.4byte	.LVL239
 7049 00ea 0100     		.2byte	0x1
 7050 00ec 56       		.byte	0x56
 7051 00ed 00000000 		.4byte	0
 7052 00f1 00000000 		.4byte	0
 7053              		.section	.debug_aranges,"",%progbits
 7054 0000 2C000000 		.4byte	0x2c
 7055 0004 0200     		.2byte	0x2
 7056 0006 00000000 		.4byte	.Ldebug_info0
 7057 000a 04       		.byte	0x4
 7058 000b 00       		.byte	0
 7059 000c 0000     		.2byte	0
 7060 000e 0000     		.2byte	0
 7061 0010 00000000 		.4byte	.LFB64
 7062 0014 08000000 		.4byte	.LFE64-.LFB64
 7063 0018 00000000 		.4byte	.LFB65
 7064 001c 1C000000 		.4byte	.LFE65-.LFB65
 7065 0020 00000000 		.4byte	.LFB66
 7066 0024 1C0B0000 		.4byte	.LFE66-.LFB66
 7067 0028 00000000 		.4byte	0
 7068 002c 00000000 		.4byte	0
 7069              		.section	.debug_ranges,"",%progbits
 7070              	.Ldebug_ranges0:
 7071 0000 90010000 		.4byte	.LBB5
 7072 0004 92010000 		.4byte	.LBE5
 7073 0008 94010000 		.4byte	.LBB6
 7074 000c B4010000 		.4byte	.LBE6
 7075 0010 00000000 		.4byte	0
 7076 0014 00000000 		.4byte	0
 7077 0018 00000000 		.4byte	.LFB64
 7078 001c 08000000 		.4byte	.LFE64
 7079 0020 00000000 		.4byte	.LFB65
 7080 0024 1C000000 		.4byte	.LFE65
ARM GAS  C:\Users\Misha\AppData\Local\Temp\ccVSruQj.s 			page 146


 7081 0028 00000000 		.4byte	.LFB66
 7082 002c 1C0B0000 		.4byte	.LFE66
 7083 0030 00000000 		.4byte	0
 7084 0034 00000000 		.4byte	0
 7085              		.section	.debug_line,"",%progbits
 7086              	.Ldebug_line0:
 7087 0000 3E050000 		.section	.debug_str,"MS",%progbits,1
 7087      02001C03 
 7087      00000201 
 7087      FB0E0D00 
 7087      01010101 
 7088              	.LASF83:
 7089 0000 61726D4F 		.ascii	"armOpen\000"
 7089      70656E00 
 7090              	.LASF82:
 7091 0008 61726D43 		.ascii	"armClose\000"
 7091      6C6F7365 
 7091      00
 7092              	.LASF110:
 7093 0011 756C7469 		.ascii	"ultimateDebugging\000"
 7093      6D617465 
 7093      44656275 
 7093      6767696E 
 7093      6700
 7094              	.LASF100:
 7095 0023 4D6F746F 		.ascii	"Motor_Right_Driver_WriteCompare\000"
 7095      725F5269 
 7095      6768745F 
 7095      44726976 
 7095      65725F57 
 7096              	.LASF67:
 7097 0043 636F6C6F 		.ascii	"colourSensingOutput\000"
 7097      75725365 
 7097      6E73696E 
 7097      674F7574 
 7097      70757400 
 7098              	.LASF36:
 7099 0057 7475726E 		.ascii	"turningLeftFlag\000"
 7099      696E674C 
 7099      65667446 
 7099      6C616700 
 7100              	.LASF70:
 7101 0067 73747261 		.ascii	"straightAdjust\000"
 7101      69676874 
 7101      41646A75 
 7101      737400
 7102              	.LASF2:
 7103 0076 73686F72 		.ascii	"short int\000"
 7103      7420696E 
 7103      7400
 7104              	.LASF34:
 7105 0080 64726976 		.ascii	"drivingForwardFlag\000"
 7105      696E6746 
 7105      6F727761 
 7105      7264466C 
 7105      616700
 7106              	.LASF107:
ARM GAS  C:\Users\Misha\AppData\Local\Temp\ccVSruQj.s 			page 147


 7107 0093 536F6E69 		.ascii	"Sonic_StartEx\000"
 7107      635F5374 
 7107      61727445 
 7107      7800
 7108              	.LASF104:
 7109 00a1 4D6F746F 		.ascii	"Motor_Right_Decoder_Start\000"
 7109      725F5269 
 7109      6768745F 
 7109      4465636F 
 7109      6465725F 
 7110              	.LASF10:
 7111 00bb 696E7433 		.ascii	"int32_t\000"
 7111      325F7400 
 7112              	.LASF53:
 7113 00c3 62656769 		.ascii	"beginNavigation\000"
 7113      6E4E6176 
 7113      69676174 
 7113      696F6E00 
 7114              	.LASF103:
 7115 00d3 4D6F746F 		.ascii	"Motor_Left_Decoder_Start\000"
 7115      725F4C65 
 7115      66745F44 
 7115      65636F64 
 7115      65725F53 
 7116              	.LASF30:
 7117 00ec 7075636B 		.ascii	"puckRackOffsetsFromWest\000"
 7117      5261636B 
 7117      4F666673 
 7117      65747346 
 7117      726F6D57 
 7118              	.LASF14:
 7119 0104 6C6F6E67 		.ascii	"long double\000"
 7119      20646F75 
 7119      626C6500 
 7120              	.LASF19:
 7121 0110 7075636B 		.ascii	"puckRackIndex\000"
 7121      5261636B 
 7121      496E6465 
 7121      7800
 7122              	.LASF40:
 7123 011e 756C7472 		.ascii	"ultrasonic_distances_mm\000"
 7123      61736F6E 
 7123      69635F64 
 7123      69737461 
 7123      6E636573 
 7124              	.LASF21:
 7125 0136 7075636B 		.ascii	"puck_check\000"
 7125      5F636865 
 7125      636B00
 7126              	.LASF44:
 7127 0141 756C7472 		.ascii	"ultrasonic_flag\000"
 7127      61736F6E 
 7127      69635F66 
 7127      6C616700 
 7128              	.LASF93:
 7129 0151 5261636B 		.ascii	"Rack_Servo_PWM_Sleep\000"
 7129      5F536572 
ARM GAS  C:\Users\Misha\AppData\Local\Temp\ccVSruQj.s 			page 148


 7129      766F5F50 
 7129      574D5F53 
 7129      6C656570 
 7130              	.LASF52:
 7131 0166 686F7269 		.ascii	"horizontalPuckGrid\000"
 7131      7A6F6E74 
 7131      616C5075 
 7131      636B4772 
 7131      696400
 7132              	.LASF106:
 7133 0179 54696D65 		.ascii	"Timer_1_ReadStatusRegister\000"
 7133      725F315F 
 7133      52656164 
 7133      53746174 
 7133      75735265 
 7134              	.LASF31:
 7135 0194 73776565 		.ascii	"sweeping\000"
 7135      70696E67 
 7135      00
 7136              	.LASF27:
 7137 019d 64726976 		.ascii	"driveStraightEnable\000"
 7137      65537472 
 7137      61696768 
 7137      74456E61 
 7137      626C6500 
 7138              	.LASF50:
 7139 01b1 63757272 		.ascii	"currentPuckStackSize\000"
 7139      656E7450 
 7139      75636B53 
 7139      7461636B 
 7139      53697A65 
 7140              	.LASF49:
 7141 01c6 72756E6E 		.ascii	"running\000"
 7141      696E6700 
 7142              	.LASF56:
 7143 01ce 626C6F63 		.ascii	"block_location\000"
 7143      6B5F6C6F 
 7143      63617469 
 7143      6F6E00
 7144              	.LASF94:
 7145 01dd 47726970 		.ascii	"Gripper_Servo_PWM_Start\000"
 7145      7065725F 
 7145      53657276 
 7145      6F5F5057 
 7145      4D5F5374 
 7146              	.LASF22:
 7147 01f5 7075636B 		.ascii	"puck_correct\000"
 7147      5F636F72 
 7147      72656374 
 7147      00
 7148              	.LASF65:
 7149 0202 756C7472 		.ascii	"ultrasonicInterruptHandler\000"
 7149      61736F6E 
 7149      6963496E 
 7149      74657272 
 7149      75707448 
 7150              	.LASF37:
ARM GAS  C:\Users\Misha\AppData\Local\Temp\ccVSruQj.s 			page 149


 7151 021d 7475726E 		.ascii	"turningRightFlag\000"
 7151      696E6752 
 7151      69676874 
 7151      466C6167 
 7151      00
 7152              	.LASF11:
 7153 022e 666C6F61 		.ascii	"float\000"
 7153      7400
 7154              	.LASF79:
 7155 0234 6368616E 		.ascii	"changeHeightToPuck\000"
 7155      67654865 
 7155      69676874 
 7155      546F5075 
 7155      636B00
 7156              	.LASF6:
 7157 0247 6C6F6E67 		.ascii	"long long int\000"
 7157      206C6F6E 
 7157      6720696E 
 7157      7400
 7158              	.LASF17:
 7159 0255 626C6F63 		.ascii	"block_and_puck_edge_midpoint\000"
 7159      6B5F616E 
 7159      645F7075 
 7159      636B5F65 
 7159      6467655F 
 7160              	.LASF102:
 7161 0272 4D6F746F 		.ascii	"Motor_Right_Driver_Sleep\000"
 7161      725F5269 
 7161      6768745F 
 7161      44726976 
 7161      65725F53 
 7162              	.LASF86:
 7163 028b 4144435F 		.ascii	"ADC_Start\000"
 7163      53746172 
 7163      7400
 7164              	.LASF4:
 7165 0295 6C6F6E67 		.ascii	"long int\000"
 7165      20696E74 
 7165      00
 7166              	.LASF26:
 7167 029e 696E7465 		.ascii	"internal_orientation\000"
 7167      726E616C 
 7167      5F6F7269 
 7167      656E7461 
 7167      74696F6E 
 7168              	.LASF98:
 7169 02b3 4D6F746F 		.ascii	"Motor_Right_Driver_Start\000"
 7169      725F5269 
 7169      6768745F 
 7169      44726976 
 7169      65725F53 
 7170              	.LASF76:
 7171 02cc 626C696E 		.ascii	"blinkLED\000"
 7171      6B4C4544 
 7171      00
 7172              	.LASF73:
 7173 02d5 636F6E74 		.ascii	"control_photodiode_Write\000"
ARM GAS  C:\Users\Misha\AppData\Local\Temp\ccVSruQj.s 			page 150


 7173      726F6C5F 
 7173      70686F74 
 7173      6F64696F 
 7173      64655F57 
 7174              	.LASF48:
 7175 02ee 73616665 		.ascii	"safety_override\000"
 7175      74795F6F 
 7175      76657272 
 7175      69646500 
 7176              	.LASF58:
 7177 02fe 626C6F63 		.ascii	"blockEastClearance\000"
 7177      6B456173 
 7177      74436C65 
 7177      6172616E 
 7177      636500
 7178              	.LASF33:
 7179 0311 7075636B 		.ascii	"puckPileLocation\000"
 7179      50696C65 
 7179      4C6F6361 
 7179      74696F6E 
 7179      00
 7180              	.LASF35:
 7181 0322 64726976 		.ascii	"drivingBackwardFlag\000"
 7181      696E6742 
 7181      61636B77 
 7181      61726446 
 7181      6C616700 
 7182              	.LASF28:
 7183 0336 63757272 		.ascii	"currentPuckRackScanningIndex\000"
 7183      656E7450 
 7183      75636B52 
 7183      61636B53 
 7183      63616E6E 
 7184              	.LASF92:
 7185 0353 5261636B 		.ascii	"Rack_Servo_PWM_WriteCompare\000"
 7185      5F536572 
 7185      766F5F50 
 7185      574D5F57 
 7185      72697465 
 7186              	.LASF42:
 7187 036f 73746174 		.ascii	"state\000"
 7187      6500
 7188              	.LASF85:
 7189 0375 55415254 		.ascii	"UART_1_Start\000"
 7189      5F315F53 
 7189      74617274 
 7189      00
 7190              	.LASF78:
 7191 0382 6368616E 		.ascii	"changeOrientation\000"
 7191      67654F72 
 7191      69656E74 
 7191      6174696F 
 7191      6E00
 7192              	.LASF1:
 7193 0394 756E7369 		.ascii	"unsigned char\000"
 7193      676E6564 
 7193      20636861 
ARM GAS  C:\Users\Misha\AppData\Local\Temp\ccVSruQj.s 			page 151


 7193      7200
 7194              	.LASF41:
 7195 03a2 636F6C6F 		.ascii	"colour_flag\000"
 7195      75725F66 
 7195      6C616700 
 7196              	.LASF101:
 7197 03ae 4D6F746F 		.ascii	"Motor_Left_Driver_Sleep\000"
 7197      725F4C65 
 7197      66745F44 
 7197      72697665 
 7197      725F536C 
 7198              	.LASF51:
 7199 03c6 7075636B 		.ascii	"puckColoursTempPile\000"
 7199      436F6C6F 
 7199      75727354 
 7199      656D7050 
 7199      696C6500 
 7200              	.LASF81:
 7201 03da 6D6F7665 		.ascii	"moveUntilPuck\000"
 7201      556E7469 
 7201      6C507563 
 7201      6B00
 7202              	.LASF97:
 7203 03e8 4D6F746F 		.ascii	"Motor_Left_Driver_Start\000"
 7203      725F4C65 
 7203      66745F44 
 7203      72697665 
 7203      725F5374 
 7204              	.LASF57:
 7205 0400 7075636B 		.ascii	"puck_location\000"
 7205      5F6C6F63 
 7205      6174696F 
 7205      6E00
 7206              	.LASF68:
 7207 040e 73707269 		.ascii	"sprintf\000"
 7207      6E746600 
 7208              	.LASF72:
 7209 0416 636F6C6F 		.ascii	"colourSensingInitialise\000"
 7209      75725365 
 7209      6E73696E 
 7209      67496E69 
 7209      7469616C 
 7210              	.LASF74:
 7211 042e 7472616E 		.ascii	"translateMoveDynamic\000"
 7211      736C6174 
 7211      654D6F76 
 7211      6544796E 
 7211      616D6963 
 7212              	.LASF88:
 7213 0443 49444143 		.ascii	"IDAC8_1_SetRange\000"
 7213      385F315F 
 7213      53657452 
 7213      616E6765 
 7213      00
 7214              	.LASF0:
 7215 0454 7369676E 		.ascii	"signed char\000"
 7215      65642063 
ARM GAS  C:\Users\Misha\AppData\Local\Temp\ccVSruQj.s 			page 152


 7215      68617200 
 7216              	.LASF32:
 7217 0460 626C6F63 		.ascii	"block_edge_location\000"
 7217      6B5F6564 
 7217      67655F6C 
 7217      6F636174 
 7217      696F6E00 
 7218              	.LASF7:
 7219 0474 6C6F6E67 		.ascii	"long long unsigned int\000"
 7219      206C6F6E 
 7219      6720756E 
 7219      7369676E 
 7219      65642069 
 7220              	.LASF90:
 7221 048b 636F6E74 		.ascii	"control_led_Write\000"
 7221      726F6C5F 
 7221      6C65645F 
 7221      57726974 
 7221      6500
 7222              	.LASF8:
 7223 049d 756E7369 		.ascii	"unsigned int\000"
 7223      676E6564 
 7223      20696E74 
 7223      00
 7224              	.LASF62:
 7225 04aa 69646163 		.ascii	"idac_value\000"
 7225      5F76616C 
 7225      756500
 7226              	.LASF87:
 7227 04b5 49444143 		.ascii	"IDAC8_1_Start\000"
 7227      385F315F 
 7227      53746172 
 7227      7400
 7228              	.LASF91:
 7229 04c3 5261636B 		.ascii	"Rack_Servo_PWM_Start\000"
 7229      5F536572 
 7229      766F5F50 
 7229      574D5F53 
 7229      74617274 
 7230              	.LASF46:
 7231 04d8 63757272 		.ascii	"current_stage\000"
 7231      656E745F 
 7231      73746167 
 7231      6500
 7232              	.LASF95:
 7233 04e6 47726970 		.ascii	"Gripper_Servo_PWM_WriteCompare\000"
 7233      7065725F 
 7233      53657276 
 7233      6F5F5057 
 7233      4D5F5772 
 7234              	.LASF84:
 7235 0505 5449415F 		.ascii	"TIA_1_Start\000"
 7235      315F5374 
 7235      61727400 
 7236              	.LASF75:
 7237 0511 64697374 		.ascii	"distanceSensor\000"
 7237      616E6365 
ARM GAS  C:\Users\Misha\AppData\Local\Temp\ccVSruQj.s 			page 153


 7237      53656E73 
 7237      6F7200
 7238              	.LASF13:
 7239 0520 63686172 		.ascii	"char\000"
 7239      00
 7240              	.LASF61:
 7241 0525 7075636B 		.ascii	"puckWestClearance\000"
 7241      57657374 
 7241      436C6561 
 7241      72616E63 
 7241      6500
 7242              	.LASF114:
 7243 0537 6D61696E 		.ascii	"main\000"
 7243      00
 7244              	.LASF29:
 7245 053c 7075636B 		.ascii	"puckRackColours\000"
 7245      5261636B 
 7245      436F6C6F 
 7245      75727300 
 7246              	.LASF63:
 7247 054c 504C414E 		.ascii	"PLAN_SCAN_VERTICAL\000"
 7247      5F534341 
 7247      4E5F5645 
 7247      52544943 
 7247      414C00
 7248              	.LASF47:
 7249 055f 636F6C6F 		.ascii	"colour_sensing_algorithm\000"
 7249      75725F73 
 7249      656E7369 
 7249      6E675F61 
 7249      6C676F72 
 7250              	.LASF43:
 7251 0578 6D6F7669 		.ascii	"moving\000"
 7251      6E6700
 7252              	.LASF105:
 7253 057f 54696D65 		.ascii	"Timer_1_Start\000"
 7253      725F315F 
 7253      53746172 
 7253      7400
 7254              	.LASF55:
 7255 058d 70617468 		.ascii	"pathPastBlock\000"
 7255      50617374 
 7255      426C6F63 
 7255      6B00
 7256              	.LASF3:
 7257 059b 73686F72 		.ascii	"short unsigned int\000"
 7257      7420756E 
 7257      7369676E 
 7257      65642069 
 7257      6E7400
 7258              	.LASF89:
 7259 05ae 49444143 		.ascii	"IDAC8_1_SetValue\000"
 7259      385F315F 
 7259      53657456 
 7259      616C7565 
 7259      00
 7260              	.LASF112:
ARM GAS  C:\Users\Misha\AppData\Local\Temp\ccVSruQj.s 			page 154


 7261 05bf 6D61696E 		.ascii	"main.c\000"
 7261      2E6300
 7262              	.LASF16:
 7263 05c6 53746172 		.ascii	"StartIH\000"
 7263      74494800 
 7264              	.LASF5:
 7265 05ce 6C6F6E67 		.ascii	"long unsigned int\000"
 7265      20756E73 
 7265      69676E65 
 7265      6420696E 
 7265      7400
 7266              	.LASF108:
 7267 05e0 53746172 		.ascii	"Start_StartEx\000"
 7267      745F5374 
 7267      61727445 
 7267      7800
 7268              	.LASF77:
 7269 05ee 6D6F7665 		.ascii	"moveDynamic\000"
 7269      44796E61 
 7269      6D696300 
 7270              	.LASF69:
 7271 05fa 55415254 		.ascii	"UART_1_PutString\000"
 7271      5F315F50 
 7271      75745374 
 7271      72696E67 
 7271      00
 7272              	.LASF45:
 7273 060b 7075636B 		.ascii	"puckConstructionPlan\000"
 7273      436F6E73 
 7273      74727563 
 7273      74696F6E 
 7273      506C616E 
 7274              	.LASF96:
 7275 0620 47726970 		.ascii	"Gripper_Servo_PWM_Sleep\000"
 7275      7065725F 
 7275      53657276 
 7275      6F5F5057 
 7275      4D5F536C 
 7276              	.LASF24:
 7277 0638 68656C64 		.ascii	"heldColour\000"
 7277      436F6C6F 
 7277      757200
 7278              	.LASF20:
 7279 0643 626C6F63 		.ascii	"block_check\000"
 7279      6B5F6368 
 7279      65636B00 
 7280              	.LASF23:
 7281 064f 7075636B 		.ascii	"puck_scan\000"
 7281      5F736361 
 7281      6E00
 7282              	.LASF9:
 7283 0659 5F5F696E 		.ascii	"__int32_t\000"
 7283      7433325F 
 7283      7400
 7284              	.LASF59:
 7285 0663 626C6F63 		.ascii	"blockWestClearance\000"
 7285      6B576573 
ARM GAS  C:\Users\Misha\AppData\Local\Temp\ccVSruQj.s 			page 155


 7285      74436C65 
 7285      6172616E 
 7285      636500
 7286              	.LASF113:
 7287 0676 433A5C55 		.ascii	"C:\\Users\\Misha\\Documents\\PSoC Creator\\ECE3091_"
 7287      73657273 
 7287      5C4D6973 
 7287      68615C44 
 7287      6F63756D 
 7288 06a4 47726F75 		.ascii	"Group17\\Group17RobotReal\\Group17Robot.cydsn\000"
 7288      7031375C 
 7288      47726F75 
 7288      70313752 
 7288      6F626F74 
 7289              	.LASF109:
 7290 06d0 73616665 		.ascii	"safetyDistanceCheck\000"
 7290      74794469 
 7290      7374616E 
 7290      63654368 
 7290      65636B00 
 7291              	.LASF60:
 7292 06e4 7075636B 		.ascii	"puckEastClearance\000"
 7292      45617374 
 7292      436C6561 
 7292      72616E63 
 7292      6500
 7293              	.LASF71:
 7294 06f6 6D6F7665 		.ascii	"moveUntil\000"
 7294      556E7469 
 7294      6C00
 7295              	.LASF15:
 7296 0700 73697A65 		.ascii	"sizetype\000"
 7296      74797065 
 7296      00
 7297              	.LASF39:
 7298 0709 6F757470 		.ascii	"output\000"
 7298      757400
 7299              	.LASF12:
 7300 0710 646F7562 		.ascii	"double\000"
 7300      6C6500
 7301              	.LASF64:
 7302 0717 64697374 		.ascii	"distance_returned_global\000"
 7302      616E6365 
 7302      5F726574 
 7302      75726E65 
 7302      645F676C 
 7303              	.LASF25:
 7304 0730 49544D5F 		.ascii	"ITM_RxBuffer\000"
 7304      52784275 
 7304      66666572 
 7304      00
 7305              	.LASF111:
 7306 073d 474E5520 		.ascii	"GNU C11 5.4.1 20160609 (release) [ARM/embedded-5-br"
 7306      43313120 
 7306      352E342E 
 7306      31203230 
 7306      31363036 
ARM GAS  C:\Users\Misha\AppData\Local\Temp\ccVSruQj.s 			page 156


 7307 0770 616E6368 		.ascii	"anch revision 237715] -mcpu=cortex-m3 -mthumb -g -O"
 7307      20726576 
 7307      6973696F 
 7307      6E203233 
 7307      37373135 
 7308 07a3 67202D66 		.ascii	"g -ffunction-sections -ffat-lto-objects\000"
 7308      66756E63 
 7308      74696F6E 
 7308      2D736563 
 7308      74696F6E 
 7309              	.LASF18:
 7310 07cb 7075636B 		.ascii	"puckConstructionPlanIndex\000"
 7310      436F6E73 
 7310      74727563 
 7310      74696F6E 
 7310      506C616E 
 7311              	.LASF66:
 7312 07e5 43794465 		.ascii	"CyDelay\000"
 7312      6C617900 
 7313              	.LASF54:
 7314 07ed 70617468 		.ascii	"pathToPucks\000"
 7314      546F5075 
 7314      636B7300 
 7315              	.LASF80:
 7316 07f9 6D6F7665 		.ascii	"moveSwivel\000"
 7316      53776976 
 7316      656C00
 7317              	.LASF99:
 7318 0804 4D6F746F 		.ascii	"Motor_Left_Driver_WriteCompare\000"
 7318      725F4C65 
 7318      66745F44 
 7318      72697665 
 7318      725F5772 
 7319              	.LASF38:
 7320 0823 696E6974 		.ascii	"initialisation\000"
 7320      69616C69 
 7320      73617469 
 7320      6F6E00
 7321              		.ident	"GCC: (GNU Tools for ARM Embedded Processors) 5.4.1 20160609 (release) [ARM/embedded-5-bran
