ARM GAS  C:\Users\Misha\AppData\Local\Temp\cc40ki4b.s 			page 1


   1              		.syntax unified
   2              		.cpu cortex-m3
   3              		.fpu softvfp
   4              		.eabi_attribute 20, 1
   5              		.eabi_attribute 21, 1
   6              		.eabi_attribute 23, 3
   7              		.eabi_attribute 24, 1
   8              		.eabi_attribute 25, 1
   9              		.eabi_attribute 26, 1
  10              		.eabi_attribute 30, 1
  11              		.eabi_attribute 34, 1
  12              		.eabi_attribute 18, 4
  13              		.thumb
  14              		.syntax unified
  15              		.file	"main.c"
  16              		.text
  17              	.Ltext0:
  18              		.cfi_sections	.debug_frame
  19              		.section	.text.TIH,"ax",%progbits
  20              		.align	2
  21              		.global	TIH
  22              		.thumb
  23              		.thumb_func
  24              		.type	TIH, %function
  25              	TIH:
  26              	.LFB64:
  27              		.file 1 "main.c"
   1:main.c        ****  
   2:main.c        **** /* ========================================
   3:main.c        ****  *
   4:main.c        ****  * Copyright Group 17, 2019
   5:main.c        ****  * All Rights Reserved
   6:main.c        ****  * UNPUBLISHED, LICENSED SOFTWARE.
   7:main.c        ****  *
   8:main.c        ****  * CONFIDENTIAL AND PROPRIETARY INFORMATION
   9:main.c        ****  * WHICH IS THE PROPERTY OF Blayke, Misha, Nidhin.
  10:main.c        ****  *
  11:main.c        ****  * ========================================
  12:main.c        **** */
  13:main.c        **** 
  14:main.c        **** // * PSOC LIBRARY * //
  15:main.c        **** #include "project.h"
  16:main.c        **** 
  17:main.c        **** // * C LIBRARIES * // 
  18:main.c        **** #include <stdlib.h>
  19:main.c        **** #include <stdio.h>
  20:main.c        **** #include <math.h>
  21:main.c        **** 
  22:main.c        **** // * OUR LIBRARIES * //
  23:main.c        **** #include "main.h"
  24:main.c        **** #include "colour.h"
  25:main.c        **** #include "ultrasonic.h" 
  26:main.c        **** #include "servo.h"
  27:main.c        **** #include "motor.h"
  28:main.c        **** #include "customMath.h"
  29:main.c        **** #include "navigation.h"
  30:main.c        **** #include "debugging.h"
ARM GAS  C:\Users\Misha\AppData\Local\Temp\cc40ki4b.s 			page 2


  31:main.c        **** 
  32:main.c        **** 
  33:main.c        **** extern char output[32];   
  34:main.c        **** 
  35:main.c        **** // * STATE VARIABLES * //
  36:main.c        **** int state = STATE_PRE_RUN;
  37:main.c        **** int running = 1;
  38:main.c        **** int sweeping = 0;
  39:main.c        **** float block_edge_location[4] = {0,0,0,0}; // N E S W edge positions respectively
  40:main.c        **** 
  41:main.c        **** // * PUCK CONSTRUCTION VARIABLES * //
  42:main.c        **** int currentPuckStackSize = 0; // How many pucks are currently on the construction plate
  43:main.c        **** int puckRackColours[5] = {BLANK,BLANK,BLANK,BLANK,BLANK}; // 5 slots in puck rack.
  44:main.c        **** int puckConstructionPlan[3] = {BLANK,BLANK,BLANK};
  45:main.c        **** int currentPuckRackScanningIndex = 0;
  46:main.c        **** int puckRackOffsetsFromWest[5] = {PUCK_RACK_0_WEST_DISTANCE,
  47:main.c        ****                                 PUCK_RACK_1_WEST_DISTANCE,
  48:main.c        ****                                 PUCK_RACK_2_WEST_DISTANCE,
  49:main.c        ****                                 PUCK_RACK_3_WEST_DISTANCE,
  50:main.c        ****                                 PUCK_RACK_4_WEST_DISTANCE };
  51:main.c        **** 
  52:main.c        **** int puckColoursTempPile[2] = {BLANK,BLANK}; // Index 0 refers to east home base edge, 1 refers to w
  53:main.c        **** 
  54:main.c        **** float horizontalPuckGrid = 0;
  55:main.c        **** 
  56:main.c        **** // * NAVIGATION AND POSITION VARIABLES * //
  57:main.c        **** 
  58:main.c        **** int beginNavigation = 0; // Allow us to break out of the intial phase when powered up
  59:main.c        **** int pathToPucks; // This will give us a corridor/ that we should initially take when trying to go t
  60:main.c        **** int pathPastBlock;
  61:main.c        **** int block_location[4] = {0,0,0,0};      // The block location values
  62:main.c        ****                                         //#define NORTH 0
  63:main.c        ****                                         //#define EAST 1
  64:main.c        ****                                         //#define SOUTH 2
  65:main.c        ****                                         //#define WEST 3
  66:main.c        **** int puck_location[4] = {0,0,0,0};       // The block location values
  67:main.c        ****                                         //#define NORTH 0
  68:main.c        ****                                         //#define EAST 1
  69:main.c        ****                                         //#define SOUTH 2
  70:main.c        ****                                         //#define WEST 3
  71:main.c        **** 
  72:main.c        **** int safety_override = FALSE;            
  73:main.c        **** 
  74:main.c        **** // These block clearance variables are only true if we have enough room either side of the block to
  75:main.c        **** // And only true for the puck clearance variables if there is enough room to be able to turn at the
  76:main.c        **** short int blockEastClearance = 0;
  77:main.c        **** short int blockWestClearance = 0;
  78:main.c        **** short int puckEastClearance = 0;
  79:main.c        **** short int puckWestClearance = 0;
  80:main.c        **** 
  81:main.c        **** // * COLOUR VARIABLES * //
  82:main.c        **** 
  83:main.c        **** int idac_value = 0;  
  84:main.c        **** int colour_flag = 1;                    // sets which photodiode to use 
  85:main.c        **** int colour_sensing_algorithm = 0;      // Determines which colour sensing algorithm to use:
  86:main.c        ****                                                 // 0: Wall algorithm
  87:main.c        ****                                             // 1: Claw algorithm
ARM GAS  C:\Users\Misha\AppData\Local\Temp\cc40ki4b.s 			page 3


  88:main.c        ****                                                 // 2: old algorithm
  89:main.c        **** 
  90:main.c        **** int moving = 0; // Temp to stop while loop from repeated runs of scanning plan code
  91:main.c        **** 
  92:main.c        **** const int PLAN_SCAN_VERTICAL = 10; // Set to ultrasonic distance at the home base 
  93:main.c        **** 
  94:main.c        **** int current_stage = 1;      // There are 3 stages, we start at 1
  95:main.c        **** 
  96:main.c        **** 
  97:main.c        **** // GLOBAL VARIABLE
  98:main.c        **** int distance_returned_global;
  99:main.c        **** 
 100:main.c        **** 
 101:main.c        **** // * INTERRUPT HANDLING * // 
 102:main.c        **** CY_ISR(TIH)                             // Ultrasonic ISR Definition
 103:main.c        **** {
  28              		.loc 1 103 0
  29              		.cfi_startproc
  30              		@ args = 0, pretend = 0, frame = 0
  31              		@ frame_needed = 0, uses_anonymous_args = 0
  32 0000 08B5     		push	{r3, lr}
  33              		.cfi_def_cfa_offset 8
  34              		.cfi_offset 3, -8
  35              		.cfi_offset 14, -4
 104:main.c        ****     ultrasonicInterruptHandler();
  36              		.loc 1 104 0
  37 0002 FFF7FEFF 		bl	ultrasonicInterruptHandler
  38              	.LVL0:
  39 0006 08BD     		pop	{r3, pc}
  40              		.cfi_endproc
  41              	.LFE64:
  42              		.size	TIH, .-TIH
  43              		.section	.text.StartIH,"ax",%progbits
  44              		.align	2
  45              		.global	StartIH
  46              		.thumb
  47              		.thumb_func
  48              		.type	StartIH, %function
  49              	StartIH:
  50              	.LFB65:
 105:main.c        **** }
 106:main.c        **** 
 107:main.c        **** CY_ISR(StartIH)                             // Ultrasonic ISR Definition
 108:main.c        **** {
  51              		.loc 1 108 0
  52              		.cfi_startproc
  53              		@ args = 0, pretend = 0, frame = 0
  54              		@ frame_needed = 0, uses_anonymous_args = 0
  55 0000 08B5     		push	{r3, lr}
  56              		.cfi_def_cfa_offset 8
  57              		.cfi_offset 3, -8
  58              		.cfi_offset 14, -4
 109:main.c        ****     CyDelay(100);
  59              		.loc 1 109 0
  60 0002 6420     		movs	r0, #100
  61 0004 FFF7FEFF 		bl	CyDelay
  62              	.LVL1:
ARM GAS  C:\Users\Misha\AppData\Local\Temp\cc40ki4b.s 			page 4


 110:main.c        ****     if (beginNavigation){
  63              		.loc 1 110 0
  64 0008 044B     		ldr	r3, .L6
  65 000a 1B68     		ldr	r3, [r3]
  66 000c 2BB1     		cbz	r3, .L3
 111:main.c        ****         UART_1_PutString("Beginning Navigation \n");
  67              		.loc 1 111 0
  68 000e 0448     		ldr	r0, .L6+4
  69 0010 FFF7FEFF 		bl	UART_1_PutString
  70              	.LVL2:
 112:main.c        ****         //state = STATE_SCAN_PLAN; 
 113:main.c        ****         state = STATE_LOCATE_BLOCK_AND_PUCKS;
  71              		.loc 1 113 0
  72 0014 0222     		movs	r2, #2
  73 0016 014B     		ldr	r3, .L6
  74 0018 5A60     		str	r2, [r3, #4]
  75              	.L3:
  76 001a 08BD     		pop	{r3, pc}
  77              	.L7:
  78              		.align	2
  79              	.L6:
  80 001c 00000000 		.word	.LANCHOR0
  81 0020 00000000 		.word	.LC0
  82              		.cfi_endproc
  83              	.LFE65:
  84              		.size	StartIH, .-StartIH
  85              		.global	__aeabi_i2d
  86              		.global	__aeabi_dmul
  87              		.global	__aeabi_d2iz
  88              		.section	.text.main,"ax",%progbits
  89              		.align	2
  90              		.global	main
  91              		.thumb
  92              		.thumb_func
  93              		.type	main, %function
  94              	main:
  95              	.LFB66:
 114:main.c        ****     }
 115:main.c        **** }
 116:main.c        ****  
 117:main.c        **** //Interrupt service routines for dcmotor function
 118:main.c        **** /*
 119:main.c        **** CY_ISR(Encoder_Counts_1_IH){
 120:main.c        ****     stopMotor1AndUpdate();
 121:main.c        **** }
 122:main.c        **** 
 123:main.c        **** CY_ISR(Encoder_Counts_2_IH){
 124:main.c        ****     stopMotor2AndUpdate();
 125:main.c        **** }
 126:main.c        **** 
 127:main.c        **** CY_ISR(Drift_Check_IH){    
 128:main.c        ****     Drift_Check_Timer_ReadStatusRegister(); //Clears the interrupt
 129:main.c        ****     Drift_Check_Timer_Stop(); //Stops the timer
 130:main.c        ****     motor1EncoderCounts = Motor_1_Encoder_Counts_ReadCounter();
 131:main.c        ****     motor2EncoderCounts = Motor_2_Encoder_Counts_ReadCounter();
 132:main.c        ****     driftCorrect(); //Does checking
 133:main.c        **** }
ARM GAS  C:\Users\Misha\AppData\Local\Temp\cc40ki4b.s 			page 5


 134:main.c        **** */
 135:main.c        **** 
 136:main.c        **** int main(void)
 137:main.c        **** {
  96              		.loc 1 137 0
  97              		.cfi_startproc
  98              		@ args = 0, pretend = 0, frame = 0
  99              		@ frame_needed = 0, uses_anonymous_args = 0
 100 0000 2DE9F047 		push	{r4, r5, r6, r7, r8, r9, r10, lr}
 101              		.cfi_def_cfa_offset 32
 102              		.cfi_offset 4, -32
 103              		.cfi_offset 5, -28
 104              		.cfi_offset 6, -24
 105              		.cfi_offset 7, -20
 106              		.cfi_offset 8, -16
 107              		.cfi_offset 9, -12
 108              		.cfi_offset 10, -8
 109              		.cfi_offset 14, -4
 110 0004 82B0     		sub	sp, sp, #8
 111              		.cfi_def_cfa_offset 40
 138:main.c        ****     CyGlobalIntEnable; /* Enable global interrupts. */
 112              		.loc 1 138 0
 113              		.syntax unified
 114              	@ 138 "main.c" 1
 115 0006 62B6     		CPSIE   i
 116              	@ 0 "" 2
 139:main.c        **** 
 140:main.c        ****     
 141:main.c        ****     TIA_1_Start();
 117              		.loc 1 141 0
 118              		.thumb
 119              		.syntax unified
 120 0008 FFF7FEFF 		bl	TIA_1_Start
 121              	.LVL3:
 142:main.c        ****     UART_1_Start();
 122              		.loc 1 142 0
 123 000c FFF7FEFF 		bl	UART_1_Start
 124              	.LVL4:
 143:main.c        ****     UART_1_PutString("UART commencing... \n");
 125              		.loc 1 143 0
 126 0010 B248     		ldr	r0, .L52
 127 0012 FFF7FEFF 		bl	UART_1_PutString
 128              	.LVL5:
 144:main.c        ****     ADC_Start();
 129              		.loc 1 144 0
 130 0016 FFF7FEFF 		bl	ADC_Start
 131              	.LVL6:
 145:main.c        ****     IDAC8_1_Start();
 132              		.loc 1 145 0
 133 001a FFF7FEFF 		bl	IDAC8_1_Start
 134              	.LVL7:
 146:main.c        ****     
 147:main.c        ****     // DEBUGGING:
 148:main.c        ****         // Moved to debugging.c file, set it there
 149:main.c        ****     
 150:main.c        ****     
 151:main.c        ****     // IDAC initialisation: 
ARM GAS  C:\Users\Misha\AppData\Local\Temp\cc40ki4b.s 			page 6


 152:main.c        ****     IDAC8_1_SetRange(IDAC8_1_RANGE_32uA);       // Sets the range between 0 and 32uA
 135              		.loc 1 152 0
 136 001e 0020     		movs	r0, #0
 137 0020 FFF7FEFF 		bl	IDAC8_1_SetRange
 138              	.LVL8:
 153:main.c        ****     IDAC8_1_SetValue(idac_value);               // set a value between 0 and 255
 139              		.loc 1 153 0
 140 0024 AE4C     		ldr	r4, .L52+4
 141 0026 207A     		ldrb	r0, [r4, #8]	@ zero_extendqisi2
 142 0028 FFF7FEFF 		bl	IDAC8_1_SetValue
 143              	.LVL9:
 154:main.c        ****     
 155:main.c        ****     // Colour Sensing Initialisation & Debugging:
 156:main.c        ****     colour_sensing_algorithm = 0;
 144              		.loc 1 156 0
 145 002c 0025     		movs	r5, #0
 146 002e E560     		str	r5, [r4, #12]
 157:main.c        ****     control_photodiode_Write(colour_sensing_algorithm);            // controls which photodiode is 
 147              		.loc 1 157 0
 148 0030 2846     		mov	r0, r5
 149 0032 FFF7FEFF 		bl	control_photodiode_Write
 150              	.LVL10:
 158:main.c        ****                                                 // 0: wall
 159:main.c        ****                                                 // 1: claw
 160:main.c        ****     control_led_Write(1);   CyDelay(500);  // Ensures all the RGBs are working
 151              		.loc 1 160 0
 152 0036 0120     		movs	r0, #1
 153 0038 FFF7FEFF 		bl	control_led_Write
 154              	.LVL11:
 155 003c 4FF4FA70 		mov	r0, #500
 156 0040 FFF7FEFF 		bl	CyDelay
 157              	.LVL12:
 161:main.c        ****     control_led_Write(2);   CyDelay(500);
 158              		.loc 1 161 0
 159 0044 0220     		movs	r0, #2
 160 0046 FFF7FEFF 		bl	control_led_Write
 161              	.LVL13:
 162 004a 4FF4FA70 		mov	r0, #500
 163 004e FFF7FEFF 		bl	CyDelay
 164              	.LVL14:
 162:main.c        ****     control_led_Write(3);   CyDelay(500);
 165              		.loc 1 162 0
 166 0052 0320     		movs	r0, #3
 167 0054 FFF7FEFF 		bl	control_led_Write
 168              	.LVL15:
 169 0058 4FF4FA70 		mov	r0, #500
 170 005c FFF7FEFF 		bl	CyDelay
 171              	.LVL16:
 163:main.c        ****     control_led_Write(0);   CyDelay(500);
 172              		.loc 1 163 0
 173 0060 2846     		mov	r0, r5
 174 0062 FFF7FEFF 		bl	control_led_Write
 175              	.LVL17:
 176 0066 4FF4FA70 		mov	r0, #500
 177 006a FFF7FEFF 		bl	CyDelay
 178              	.LVL18:
 164:main.c        ****     colourSensingInitialise();                  // Initialises the colour sensor
ARM GAS  C:\Users\Misha\AppData\Local\Temp\cc40ki4b.s 			page 7


 179              		.loc 1 164 0
 180 006e FFF7FEFF 		bl	colourSensingInitialise
 181              	.LVL19:
 165:main.c        ****     
 166:main.c        **** 
 167:main.c        ****     //Servos for the arm instatination
 168:main.c        ****     Rack_Servo_PWM_Start();
 182              		.loc 1 168 0
 183 0072 FFF7FEFF 		bl	Rack_Servo_PWM_Start
 184              	.LVL20:
 169:main.c        ****     Rack_Servo_PWM_WriteCompare(1000);          // BRINGs rack to highest position, so not to mess 
 185              		.loc 1 169 0
 186 0076 4FF47A70 		mov	r0, #1000
 187 007a FFF7FEFF 		bl	Rack_Servo_PWM_WriteCompare
 188              	.LVL21:
 170:main.c        ****     CyDelay(500);
 189              		.loc 1 170 0
 190 007e 4FF4FA70 		mov	r0, #500
 191 0082 FFF7FEFF 		bl	CyDelay
 192              	.LVL22:
 171:main.c        ****     Rack_Servo_PWM_Sleep();
 193              		.loc 1 171 0
 194 0086 FFF7FEFF 		bl	Rack_Servo_PWM_Sleep
 195              	.LVL23:
 172:main.c        ****     
 173:main.c        ****     Gripper_Servo_PWM_Start();
 196              		.loc 1 173 0
 197 008a FFF7FEFF 		bl	Gripper_Servo_PWM_Start
 198              	.LVL24:
 174:main.c        ****     Gripper_Servo_PWM_WriteCompare(1120);       //This is the open gripper position
 199              		.loc 1 174 0
 200 008e 4FF48C60 		mov	r0, #1120
 201 0092 FFF7FEFF 		bl	Gripper_Servo_PWM_WriteCompare
 202              	.LVL25:
 175:main.c        ****     CyDelay(500);
 203              		.loc 1 175 0
 204 0096 4FF4FA70 		mov	r0, #500
 205 009a FFF7FEFF 		bl	CyDelay
 206              	.LVL26:
 176:main.c        ****     Gripper_Servo_PWM_Sleep();
 207              		.loc 1 176 0
 208 009e FFF7FEFF 		bl	Gripper_Servo_PWM_Sleep
 209              	.LVL27:
 177:main.c        ****     
 178:main.c        ****     // Motors Initialisation:
 179:main.c        ****     Motor_Left_Driver_Start();
 210              		.loc 1 179 0
 211 00a2 FFF7FEFF 		bl	Motor_Left_Driver_Start
 212              	.LVL28:
 180:main.c        ****     Motor_Right_Driver_Start();
 213              		.loc 1 180 0
 214 00a6 FFF7FEFF 		bl	Motor_Right_Driver_Start
 215              	.LVL29:
 181:main.c        ****     Motor_Left_Driver_WriteCompare(0);          // sets the motors to 0 so it will be smooth next t
 216              		.loc 1 181 0
 217 00aa 2846     		mov	r0, r5
 218 00ac FFF7FEFF 		bl	Motor_Left_Driver_WriteCompare
ARM GAS  C:\Users\Misha\AppData\Local\Temp\cc40ki4b.s 			page 8


 219              	.LVL30:
 182:main.c        ****     Motor_Right_Driver_WriteCompare(0);
 220              		.loc 1 182 0
 221 00b0 2846     		mov	r0, r5
 222 00b2 FFF7FEFF 		bl	Motor_Right_Driver_WriteCompare
 223              	.LVL31:
 183:main.c        ****     Motor_Left_Driver_Sleep();                  // Puts motor to sleep
 224              		.loc 1 183 0
 225 00b6 FFF7FEFF 		bl	Motor_Left_Driver_Sleep
 226              	.LVL32:
 184:main.c        ****     Motor_Right_Driver_Sleep();                 // Puts motor to sleep
 227              		.loc 1 184 0
 228 00ba FFF7FEFF 		bl	Motor_Right_Driver_Sleep
 229              	.LVL33:
 185:main.c        ****     
 186:main.c        ****     Motor_Left_Decoder_Start();
 230              		.loc 1 186 0
 231 00be FFF7FEFF 		bl	Motor_Left_Decoder_Start
 232              	.LVL34:
 187:main.c        ****     Motor_Right_Decoder_Start();
 233              		.loc 1 187 0
 234 00c2 FFF7FEFF 		bl	Motor_Right_Decoder_Start
 235              	.LVL35:
 188:main.c        ****     
 189:main.c        ****     internal_orientation = WEST;                // robot initial starts in the East direction
 236              		.loc 1 189 0
 237 00c6 0326     		movs	r6, #3
 238 00c8 864B     		ldr	r3, .L52+8
 239 00ca 1E60     		str	r6, [r3]
 190:main.c        ****     
 191:main.c        ****     // Timer and ISR instantiation
 192:main.c        ****     Timer_1_Start();                
 240              		.loc 1 192 0
 241 00cc FFF7FEFF 		bl	Timer_1_Start
 242              	.LVL36:
 193:main.c        ****     Timer_1_ReadStatusRegister();
 243              		.loc 1 193 0
 244 00d0 FFF7FEFF 		bl	Timer_1_ReadStatusRegister
 245              	.LVL37:
 194:main.c        ****     Sonic_StartEx(TIH);
 246              		.loc 1 194 0
 247 00d4 8448     		ldr	r0, .L52+12
 248 00d6 FFF7FEFF 		bl	Sonic_StartEx
 249              	.LVL38:
 195:main.c        ****     Start_StartEx(StartIH);
 250              		.loc 1 195 0
 251 00da 8448     		ldr	r0, .L52+16
 252 00dc FFF7FEFF 		bl	Start_StartEx
 253              	.LVL39:
 196:main.c        ****     beginNavigation = 1; // Set to true after it has run ISR at least once
 254              		.loc 1 196 0
 255 00e0 0127     		movs	r7, #1
 256 00e2 2760     		str	r7, [r4]
 197:main.c        ****     
 198:main.c        ****     // Ultrasonic Initialisation & Calibration:
 199:main.c        ****     // The ultrasonics take several test measurements to ensure they are working
 200:main.c        ****         
ARM GAS  C:\Users\Misha\AppData\Local\Temp\cc40ki4b.s 			page 9


 201:main.c        ****     UART_1_PutString("Ultrasonic Calibration tests: \n");
 257              		.loc 1 201 0
 258 00e4 8248     		ldr	r0, .L52+20
 259 00e6 FFF7FEFF 		bl	UART_1_PutString
 260              	.LVL40:
 202:main.c        ****     safetyDistanceCheck();
 261              		.loc 1 202 0
 262 00ea FFF7FEFF 		bl	safetyDistanceCheck
 263              	.LVL41:
 203:main.c        ****     safetyDistanceCheck();
 264              		.loc 1 203 0
 265 00ee FFF7FEFF 		bl	safetyDistanceCheck
 266              	.LVL42:
 204:main.c        ****     safetyDistanceCheck();
 267              		.loc 1 204 0
 268 00f2 FFF7FEFF 		bl	safetyDistanceCheck
 269              	.LVL43:
 205:main.c        ****     
 206:main.c        ****     /*  OLD CODE FROM NIDHIN:
 207:main.c        ****     //Initialising DC motors
 208:main.c        ****     Motor_1_driver_Start();
 209:main.c        ****     Motor_2_driver_Start();
 210:main.c        ****     motorDutyCycleUpdate(0,0,0,0);//Have the motors stand still
 211:main.c        ****     
 212:main.c        ****     
 213:main.c        ****     //Initialising counters
 214:main.c        ****     Motor_1_Encoder_Counts_Start();
 215:main.c        ****     Motor_2_Encoder_Counts_Start();
 216:main.c        ****     
 217:main.c        ****     //Initialising timers
 218:main.c        ****     Drift_Check_Timer_Start();
 219:main.c        ****     
 220:main.c        ****     //Starts and enables the interrupts for the motor encoder counts
 221:main.c        ****     Encoder_Counts_1_Interrupt_StartEx(Encoder_Counts_1_IH); 
 222:main.c        ****     Encoder_Counts_2_Interrupt_StartEx(Encoder_Counts_2_IH);
 223:main.c        ****     Drift_Check_Interrupt_StartEx(Drift_Check_IH);		
 224:main.c        ****     */
 225:main.c        **** 
 226:main.c        ****     // FORCING STATE:
 227:main.c        ****     // Manual state set for testing
 228:main.c        ****     state = STATE_PRE_RUN;
 270              		.loc 1 228 0
 271 00f6 6560     		str	r5, [r4, #4]
 229:main.c        ****     puckConstructionPlan[0] = RED;
 272              		.loc 1 229 0
 273 00f8 2761     		str	r7, [r4, #16]
 230:main.c        ****     puckConstructionPlan[1] = GREEN;
 274              		.loc 1 230 0
 275 00fa 0223     		movs	r3, #2
 276 00fc 6361     		str	r3, [r4, #20]
 231:main.c        ****     puckConstructionPlan[2] = BLUE;
 277              		.loc 1 231 0
 278 00fe A661     		str	r6, [r4, #24]
 279              	.LVL44:
 280              	.L49:
 232:main.c        ****     int block_and_puck_edge_midpoint = 0;
 233:main.c        ****     
ARM GAS  C:\Users\Misha\AppData\Local\Temp\cc40ki4b.s 			page 10


 234:main.c        **** 
 235:main.c        ****     // Main Loop for States
 236:main.c        ****     
 237:main.c        ****     //while(1){}
 238:main.c        ****     
 239:main.c        ****     for(;;)
 240:main.c        ****     {
 241:main.c        **** 
 242:main.c        ****         if (state == STATE_PRE_RUN){
 243:main.c        ****         
 244:main.c        ****         }
 245:main.c        ****         
 246:main.c        ****         //changeOrientation(SOUTH, SPEED);
 247:main.c        ****         //changeOrientation(NORTH, SPEED);
 248:main.c        ****         //changeOrientation(WEST, SPEED);
 249:main.c        ****         
 250:main.c        ****         //while(1) {}
 251:main.c        ****         
 252:main.c        **** 
 253:main.c        ****         
 254:main.c        ****         
 255:main.c        ****         while(0) {
 256:main.c        ****                 UART_1_PutString("turning left\n");
 257:main.c        ****                 moveSwivel(-25,20,FALSE);
 258:main.c        ****                 UART_1_PutString("turning right \n");
 259:main.c        ****                 moveSwivel(25,20,FALSE);
 260:main.c        ****         }
 261:main.c        ****         
 262:main.c        ****         while(0){
 263:main.c        ****             distanceSensor(SIDE_LEFT);
 264:main.c        ****             CyDelay(60);
 265:main.c        ****             sprintf(output, "%d \t", ultrasonic_distances_mm[SIDE_LEFT]);
 266:main.c        ****             UART_1_PutString(output);
 267:main.c        ****         }
 268:main.c        ****         
 269:main.c        ****         
 270:main.c        ****         
 271:main.c        ****         
 272:main.c        ****         
 273:main.c        ****         //changeHeightToPuck(GROUND,NEITHER);
 274:main.c        ****         //moveUntilPuck(CLAW_BLACK_PUCK_ALGORITHM);
 275:main.c        ****         //translateUntil(150, LEFT, LESS_THAN, SIDE_LEFT, SPEED);
 276:main.c        ****         
 277:main.c        ****         //while(1);
 278:main.c        ****         
 279:main.c        ****        
 280:main.c        ****         
 281:main.c        ****         /*
 282:main.c        ****         for (int i = 0; i < 6; i++) {
 283:main.c        ****             translateMoveDynamic(10, -15, 100, FALSE);      // This will translate to the right by 
 284:main.c        ****         }
 285:main.c        ****         
 286:main.c        ****         for (int i = 0; i < 6; i++) {
 287:main.c        ****             translateMoveDynamic(-10, 15, 100, FALSE);      // This will translate to the left by o
 288:main.c        ****         }
 289:main.c        ****         */
 290:main.c        ****         
ARM GAS  C:\Users\Misha\AppData\Local\Temp\cc40ki4b.s 			page 11


 291:main.c        ****         
 292:main.c        ****         // checks the distance measured by the ultrasonic
 293:main.c        ****         //moveDynamic(move,SPEED,TRUE);
 294:main.c        ****         //moveDynamic(-move,SPEED,TRUE);
 295:main.c        ****         
 296:main.c        ****         // wasnt moving for some of the tests 
 297:main.c        ****             
 298:main.c        ****         
 299:main.c        ****     
 300:main.c        ****         // Start button is pressed so quit sensing
 301:main.c        **** 
 302:main.c        ****         
 303:main.c        ****         /*
 304:main.c        ****         while (beginNavigation == 0) {
 305:main.c        ****             distanceCheck();           
 306:main.c        ****             UART_1_PutString("\n");
 307:main.c        ****             CyDelay(1000); // Check distance once a second.
 308:main.c        ****                 
 309:main.c        ****         }
 310:main.c        ****         */
 311:main.c        ****         
 312:main.c        ****         
 313:main.c        ****         
 314:main.c        ****         
 315:main.c        ****         
 316:main.c        ****         // Enter picking up puck state for the moment FOR TESTING
 317:main.c        ****         //colour_sensing_algorithm = 1;
 318:main.c        ****         //control_photodiode_Write(1);
 319:main.c        ****         //state = STATE_FIND_REQUIRED_PUCK;
 320:main.c        ****         
 321:main.c        ****         
 322:main.c        ****      
 323:main.c        ****         
 324:main.c        ****         //state = STATE_FIND_REQUIRED_PUCK;
 325:main.c        ****         
 326:main.c        ****         //moveUntil(100,FORWARD,GREATER_THAN,SIDE_LEFT,SPEED);
 327:main.c        ****         
 328:main.c        ****         //while(1) {};
 329:main.c        ****         
 330:main.c        ****         
 331:main.c        ****         // state = STATE_LOCATE_BLOCK_AND_PUCKS;
 332:main.c        ****         
 333:main.c        ****         
 334:main.c        ****         //UART_1_PutString("hI");
 335:main.c        ****         
 336:main.c        ****         //changeOrientation(NORTH, SPEED);
 337:main.c        ****         //changeOrientation(WEST, SPEED);
 338:main.c        ****                 
 339:main.c        ****         //state = STATE_DEPOSIT_PUCK;
 340:main.c        ****         //currentPuckStackSize = 2;
 341:main.c        ****         //current_stage = 3;
 342:main.c        ****          
 343:main.c        **** //
 344:main.c        **** // *** 1. STATE SCAN PLAN: *** // 
 345:main.c        **** //
 346:main.c        ****         
 347:main.c        **** 
ARM GAS  C:\Users\Misha\AppData\Local\Temp\cc40ki4b.s 			page 12


 348:main.c        ****         
 349:main.c        ****         
 350:main.c        ****         
 351:main.c        ****         if (state == STATE_SCAN_PLAN) {              // colour sensing, while switch has not been p
 281              		.loc 1 351 0
 282 0100 774B     		ldr	r3, .L52+4
 283 0102 5B68     		ldr	r3, [r3, #4]
 284 0104 012B     		cmp	r3, #1
 285 0106 4ED1     		bne	.L9
 286              	.LBB2:
 352:main.c        ****             
 353:main.c        ****             
 354:main.c        ****             
 355:main.c        ****             // Debugging: 
 356:main.c        ****         
 357:main.c        ****             ultimateDebugging();        // If any of the debugging flags are activated, this will b
 287              		.loc 1 357 0
 288 0108 FFF7FEFF 		bl	ultimateDebugging
 289              	.LVL45:
 358:main.c        **** 
 359:main.c        ****             
 360:main.c        ****             
 361:main.c        ****             // Checking translating function:
 362:main.c        ****             
 363:main.c        ****             //straightAdjust();
 364:main.c        ****             //blinkLED(GREEN,1000);
 365:main.c        ****             //moveSwivel(180, SPEED_LOW, FALSE);
 366:main.c        ****             //straightAdjustBack();
 367:main.c        ****             //blinkLED(GREEN, 1000);
 368:main.c        ****             
 369:main.c        ****             //while(1) {}
 370:main.c        ****             
 371:main.c        ****             // TRUE START:
 372:main.c        ****                 
 373:main.c        ****             
 374:main.c        ****             while(0){
 375:main.c        ****                 moveUntil(400, FORWARD, LESS_THAN, FRONT_LEFT, SPEED, TRUE);
 376:main.c        ****                 moveDynamic(-450, SPEED, TRUE);
 377:main.c        ****                 CyDelay(500);   
 378:main.c        ****                 colourSensingInitialise();      // Initialises wall colour sensor against the black
 379:main.c        ****                 CyDelay(500);
 380:main.c        ****                 moveDynamic(170, SPEED, TRUE);
 381:main.c        ****                 CyDelay(500);
 382:main.c        ****                 
 383:main.c        ****                 
 384:main.c        ****                 
 385:main.c        ****                 for (int i = 0; i < 5; i++) {                       // scan each of the pucks 
 386:main.c        ****                     puckRackColours[i] = colourSensingOutput();
 387:main.c        ****                     CyDelay(500);
 388:main.c        ****                     moveDynamic(61, SPEED, TRUE);
 389:main.c        ****                     CyDelay(500);
 390:main.c        ****                 }
 391:main.c        ****             
 392:main.c        ****             }
 393:main.c        **** 
 394:main.c        **** 
 395:main.c        ****             
ARM GAS  C:\Users\Misha\AppData\Local\Temp\cc40ki4b.s 			page 13


 396:main.c        ****             straightAdjust();
 290              		.loc 1 396 0
 291 010c FFF7FEFF 		bl	straightAdjust
 292              	.LVL46:
 397:main.c        ****             moveUntil(-100, BACKWARD, LESS_THAN, BACK, SPEED, TRUE);
 293              		.loc 1 397 0
 294 0110 0123     		movs	r3, #1
 295 0112 0193     		str	r3, [sp, #4]
 296 0114 C823     		movs	r3, #200
 297 0116 0093     		str	r3, [sp]
 298 0118 0423     		movs	r3, #4
 299 011a 1A46     		mov	r2, r3
 300 011c 0021     		movs	r1, #0
 301 011e 6FF06300 		mvn	r0, #99
 302 0122 FFF7FEFF 		bl	moveUntil
 303              	.LVL47:
 398:main.c        ****             colourSensingInitialise();      // Initialises wall colour sensor against the black wal
 304              		.loc 1 398 0
 305 0126 FFF7FEFF 		bl	colourSensingInitialise
 306              	.LVL48:
 307              	.LBB3:
 399:main.c        ****                         
 400:main.c        ****             
 401:main.c        ****             
 402:main.c        ****             for (int i = 0; i < 5; i++) { 
 308              		.loc 1 402 0
 309 012a 0024     		movs	r4, #0
 310 012c 0AE0     		b	.L10
 311              	.LVL49:
 312              	.L11:
 403:main.c        ****                 // scan each of the pucks 
 404:main.c        ****                 //moveUntil(puckRackOffsetsFromWest[i]);
 405:main.c        ****                 puckRackColours[i] = colourSensingOutput();
 313              		.loc 1 405 0 discriminator 3
 314 012e FFF7FEFF 		bl	colourSensingOutput
 315              	.LVL50:
 316 0132 6B4B     		ldr	r3, .L52+4
 317 0134 03EB8403 		add	r3, r3, r4, lsl #2
 318 0138 D861     		str	r0, [r3, #28]
 406:main.c        ****                 CyDelay(500);
 319              		.loc 1 406 0 discriminator 3
 320 013a 4FF4FA70 		mov	r0, #500
 321 013e FFF7FEFF 		bl	CyDelay
 322              	.LVL51:
 402:main.c        ****                 // scan each of the pucks 
 323              		.loc 1 402 0 discriminator 3
 324 0142 0134     		adds	r4, r4, #1
 325              	.LVL52:
 326              	.L10:
 402:main.c        ****                 // scan each of the pucks 
 327              		.loc 1 402 0 is_stmt 0 discriminator 1
 328 0144 042C     		cmp	r4, #4
 329 0146 F2DD     		ble	.L11
 330              	.LBE3:
 407:main.c        **** 
 408:main.c        ****             //straightAdjust();
 409:main.c        ****             }
ARM GAS  C:\Users\Misha\AppData\Local\Temp\cc40ki4b.s 			page 14


 410:main.c        ****             
 411:main.c        ****             UART_1_PutString("Found Colours: \n");
 331              		.loc 1 411 0 is_stmt 1
 332 0148 6A48     		ldr	r0, .L52+24
 333 014a FFF7FEFF 		bl	UART_1_PutString
 334              	.LVL53:
 335              	.LBB4:
 412:main.c        ****             for (int i = 0; i < 5; i++) 
 336              		.loc 1 412 0
 337 014e 0024     		movs	r4, #0
 338              	.LVL54:
 339 0150 0CE0     		b	.L12
 340              	.LVL55:
 341              	.L13:
 413:main.c        ****             {
 414:main.c        ****                 sprintf(output, "%i \n", puckRackColours[i]);    // updates UART showing values of 
 342              		.loc 1 414 0 discriminator 3
 343 0152 634B     		ldr	r3, .L52+4
 344 0154 03EB8403 		add	r3, r3, r4, lsl #2
 345 0158 674D     		ldr	r5, .L52+28
 346 015a DA69     		ldr	r2, [r3, #28]
 347 015c 6749     		ldr	r1, .L52+32
 348 015e 2846     		mov	r0, r5
 349 0160 FFF7FEFF 		bl	sprintf
 350              	.LVL56:
 415:main.c        ****                 UART_1_PutString(output);
 351              		.loc 1 415 0 discriminator 3
 352 0164 2846     		mov	r0, r5
 353 0166 FFF7FEFF 		bl	UART_1_PutString
 354              	.LVL57:
 412:main.c        ****             for (int i = 0; i < 5; i++) 
 355              		.loc 1 412 0 discriminator 3
 356 016a 0134     		adds	r4, r4, #1
 357              	.LVL58:
 358              	.L12:
 412:main.c        ****             for (int i = 0; i < 5; i++) 
 359              		.loc 1 412 0 is_stmt 0 discriminator 1
 360 016c 042C     		cmp	r4, #4
 361 016e F0DD     		ble	.L13
 362              	.LBE4:
 416:main.c        ****             }
 417:main.c        ****             
 418:main.c        ****             
 419:main.c        ****             control_photodiode_Write(CLAW_SENSING);    // changes to claw photodiode
 363              		.loc 1 419 0 is_stmt 1
 364 0170 0120     		movs	r0, #1
 365 0172 FFF7FEFF 		bl	control_photodiode_Write
 366              	.LVL59:
 420:main.c        ****             colour_sensing_algorithm = CLAW_1_ALGORITHM;   // changes it to claw algorithm
 367              		.loc 1 420 0
 368 0176 0122     		movs	r2, #1
 369 0178 594B     		ldr	r3, .L52+4
 370 017a DA60     		str	r2, [r3, #12]
 371              	.LVL60:
 372              	.LBB5:
 421:main.c        ****                                  
 422:main.c        ****             // THEN WE FILTER THE NO PUCK VALUES:
ARM GAS  C:\Users\Misha\AppData\Local\Temp\cc40ki4b.s 			page 15


 423:main.c        ****             int puckConstructionPlanIndex = 0; // Will be used to iterate through the 3 puck colour
 424:main.c        ****             
 425:main.c        ****             // Iterate over all 5 rack slots and place the 3 colours into puckConstructionPlan.
 426:main.c        ****             for (int puckRackIndex = 0; puckRackIndex < 5; puckRackIndex++){
 373              		.loc 1 426 0
 374 017c 0023     		movs	r3, #0
 375              	.LBE5:
 423:main.c        ****             
 376              		.loc 1 423 0
 377 017e 1A46     		mov	r2, r3
 378              	.LBB6:
 379              		.loc 1 426 0
 380 0180 0CE0     		b	.L14
 381              	.LVL61:
 382              	.L16:
 427:main.c        ****                 if (puckRackColours[puckRackIndex] != BLANK && puckConstructionPlanIndex != 3){
 383              		.loc 1 427 0
 384 0182 5749     		ldr	r1, .L52+4
 385 0184 01EB8301 		add	r1, r1, r3, lsl #2
 386 0188 C869     		ldr	r0, [r1, #28]
 387 018a 30B1     		cbz	r0, .L15
 388              		.loc 1 427 0 is_stmt 0 discriminator 1
 389 018c 032A     		cmp	r2, #3
 390 018e 04D0     		beq	.L15
 428:main.c        ****                     puckConstructionPlan[puckConstructionPlanIndex] = puckRackColours[puckRackIndex
 391              		.loc 1 428 0 is_stmt 1
 392 0190 5349     		ldr	r1, .L52+4
 393 0192 01EB8201 		add	r1, r1, r2, lsl #2
 394 0196 0861     		str	r0, [r1, #16]
 429:main.c        ****                     puckConstructionPlanIndex++;
 395              		.loc 1 429 0
 396 0198 0132     		adds	r2, r2, #1
 397              	.LVL62:
 398              	.L15:
 426:main.c        ****                 if (puckRackColours[puckRackIndex] != BLANK && puckConstructionPlanIndex != 3){
 399              		.loc 1 426 0 discriminator 2
 400 019a 0133     		adds	r3, r3, #1
 401              	.LVL63:
 402              	.L14:
 426:main.c        ****                 if (puckRackColours[puckRackIndex] != BLANK && puckConstructionPlanIndex != 3){
 403              		.loc 1 426 0 is_stmt 0 discriminator 1
 404 019c 042B     		cmp	r3, #4
 405 019e F0DD     		ble	.L16
 406              	.LBE6:
 430:main.c        ****                 }
 431:main.c        ****             }
 432:main.c        ****                     
 433:main.c        ****             // MOVE into the next state: 
 434:main.c        ****             state = STATE_LOCATE_BLOCK_AND_PUCKS;
 407              		.loc 1 434 0 is_stmt 1
 408 01a0 0222     		movs	r2, #2
 409              	.LVL64:
 410 01a2 4F4B     		ldr	r3, .L52+4
 411              	.LVL65:
 412 01a4 5A60     		str	r2, [r3, #4]
 413              	.LVL66:
 414              	.L9:
ARM GAS  C:\Users\Misha\AppData\Local\Temp\cc40ki4b.s 			page 16


 415              	.LBE2:
 435:main.c        ****             
 436:main.c        ****             /*
 437:main.c        ****             if (!moving){
 438:main.c        ****                 moving = 1;
 439:main.c        ****             if (initialisation){moveBackwardIndefinitely(); initialisation = 0;}
 440:main.c        ****             else {moveForwardIndefinitely();}        
 441:main.c        **** 
 442:main.c        ****             moveAndAngle(SCAN_INITIALISE_HORIZONTAL,PLAN_SCAN_VERTICAL,WEST_ANGLE); // Move beyond 
 443:main.c        ****             
 444:main.c        ****             // Read the black wall
 445:main.c        ****             
 446:main.c        ****             for (currentPuckRackScanningIndex = 0; currentPuckRackScanningIndex <= 4; currentPuckRa
 447:main.c        ****                 moveAndAngle(puckRackOffsetsFromWest[currentPuckRackScanningIndex],PLAN_SCAN_VERTIC
 448:main.c        ****                 puckRackColours[currentPuckRackScanningIndex] = colourSensingOutput();
 449:main.c        ****             }
 450:main.c        ****    
 451:main.c        ****             */
 452:main.c        ****         }
 453:main.c        **** 
 454:main.c        **** //
 455:main.c        **** // *** 2. STATE LOCATE BLOCKS AND PUCKS: *** // 
 456:main.c        **** //
 457:main.c        ****         
 458:main.c        ****     	if (state == STATE_LOCATE_BLOCK_AND_PUCKS){
 416              		.loc 1 458 0
 417 01a6 4E4B     		ldr	r3, .L52+4
 418 01a8 5B68     		ldr	r3, [r3, #4]
 419 01aa 022B     		cmp	r3, #2
 420 01ac 40F0E781 		bne	.L17
 421              	.LBB7:
 459:main.c        ****             
 460:main.c        **** 
 461:main.c        ****             ultimateDebugging();   
 422              		.loc 1 461 0
 423 01b0 FFF7FEFF 		bl	ultimateDebugging
 424              	.LVL67:
 462:main.c        **** 
 463:main.c        ****             // move away from home base:
 464:main.c        ****             
 465:main.c        ****             translateMoveDynamic(25, -35, 100, FALSE);
 425              		.loc 1 465 0
 426 01b4 0023     		movs	r3, #0
 427 01b6 6422     		movs	r2, #100
 428 01b8 6FF02201 		mvn	r1, #34
 429 01bc 1920     		movs	r0, #25
 430 01be FFF7FEFF 		bl	translateMoveDynamic
 431              	.LVL68:
 466:main.c        ****             straightAdjust();
 432              		.loc 1 466 0
 433 01c2 FFF7FEFF 		bl	straightAdjust
 434              	.LVL69:
 467:main.c        ****     
 468:main.c        ****             // Move until construction zone            
 469:main.c        ****             moveUntil(130, FORWARD, LESS_THAN, FRONT_LEFT, SPEED, TRUE);  // Move to west wall
 435              		.loc 1 469 0
 436 01c6 0121     		movs	r1, #1
ARM GAS  C:\Users\Misha\AppData\Local\Temp\cc40ki4b.s 			page 17


 437 01c8 0191     		str	r1, [sp, #4]
 438 01ca C823     		movs	r3, #200
 439 01cc 0093     		str	r3, [sp]
 440 01ce 0023     		movs	r3, #0
 441 01d0 0422     		movs	r2, #4
 442 01d2 8220     		movs	r0, #130
 443 01d4 FFF7FEFF 		bl	moveUntil
 444              	.LVL70:
 470:main.c        ****             straightAdjust();                                       // straighten against west wall
 445              		.loc 1 470 0
 446 01d8 FFF7FEFF 		bl	straightAdjust
 447              	.LVL71:
 471:main.c        ****             
 472:main.c        ****             // SCAN FOR BLOCKS:
 473:main.c        ****             
 474:main.c        ****             distanceSensor(SIDE_LEFT);  // takes how far we are away from home base wall
 448              		.loc 1 474 0
 449 01dc 0220     		movs	r0, #2
 450 01de FFF7FEFF 		bl	distanceSensor
 451              	.LVL72:
 475:main.c        ****             while (ultrasonic_distances_mm[SIDE_LEFT] > (BLOCK_ZONE_SOUTH - WIDTH_SENSOR_TO_SENSOR)
 452              		.loc 1 475 0
 453 01e2 02E0     		b	.L18
 454              	.L19:
 476:main.c        ****                 // stays in while loop until side left value taken is appropriate
 477:main.c        ****                 // E.g. the side left value should be less than BLOCK_ZONE_SOUTH - WIDTH_SENSOR_TO_
 478:main.c        ****                 // So, it should be less than 500mm - 220mm = 280mm
 479:main.c        ****                 distanceSensor(SIDE_LEFT);
 455              		.loc 1 479 0
 456 01e4 0220     		movs	r0, #2
 457 01e6 FFF7FEFF 		bl	distanceSensor
 458              	.LVL73:
 459              	.L18:
 475:main.c        ****             while (ultrasonic_distances_mm[SIDE_LEFT] > (BLOCK_ZONE_SOUTH - WIDTH_SENSOR_TO_SENSOR)
 460              		.loc 1 475 0
 461 01ea 454B     		ldr	r3, .L52+36
 462 01ec 9D68     		ldr	r5, [r3, #8]
 463 01ee B5F58C7F 		cmp	r5, #280
 464 01f2 F7DC     		bgt	.L19
 480:main.c        ****                } 
 481:main.c        ****             
 482:main.c        ****             
 483:main.c        ****             int block_check = BLOCK_ZONE_NORTH - ultrasonic_distances_mm[SIDE_LEFT] - WIDTH_SENSOR_
 465              		.loc 1 483 0
 466 01f4 C5F50375 		rsb	r5, r5, #524
 467 01f8 0135     		adds	r5, r5, #1
 468              	.LVL74:
 484:main.c        ****                 // TAKES our distance from north wall, 
 485:main.c        ****                 // takes distance from arena, takes away 
 486:main.c        ****                 // minus 50 is a tolerance
 487:main.c        ****                 // This equals 700MM - leftside - 220mm + 45 = 525mm maximum, but we'll be away fro
 488:main.c        ****             
 489:main.c        ****             sprintf(output, "distance from robot to block: %d \t", block_check);
 469              		.loc 1 489 0
 470 01fa 3F4C     		ldr	r4, .L52+28
 471 01fc 2A46     		mov	r2, r5
 472 01fe 4149     		ldr	r1, .L52+40
ARM GAS  C:\Users\Misha\AppData\Local\Temp\cc40ki4b.s 			page 18


 473 0200 2046     		mov	r0, r4
 474 0202 FFF7FEFF 		bl	sprintf
 475              	.LVL75:
 490:main.c        ****             UART_1_PutString(output);
 476              		.loc 1 490 0
 477 0206 2046     		mov	r0, r4
 478 0208 FFF7FEFF 		bl	UART_1_PutString
 479              	.LVL76:
 491:main.c        ****             
 492:main.c        ****             //block_check = 350;  // This is a default length that isn't dynamic, the block check
 493:main.c        ****             
 494:main.c        ****             
 495:main.c        ****             // Stopping at the West side of the block: 
 496:main.c        ****             moveUntil(block_check, BACKWARD, LESS_THAN, SIDE_RIGHT, SPEED, TRUE);   
 480              		.loc 1 496 0
 481 020c 0123     		movs	r3, #1
 482 020e 0193     		str	r3, [sp, #4]
 483 0210 C823     		movs	r3, #200
 484 0212 0093     		str	r3, [sp]
 485 0214 0323     		movs	r3, #3
 486 0216 0422     		movs	r2, #4
 487 0218 0021     		movs	r1, #0
 488 021a 2846     		mov	r0, r5
 489 021c FFF7FEFF 		bl	moveUntil
 490              	.LVL77:
 497:main.c        ****                                 // this will move backwards until it hits the block or the wall
 498:main.c        ****             blinkLED(GREEN,1000);      // To show it ended at the correct spot
 491              		.loc 1 498 0
 492 0220 4FF47A71 		mov	r1, #1000
 493 0224 0220     		movs	r0, #2
 494 0226 FFF7FEFF 		bl	blinkLED
 495              	.LVL78:
 499:main.c        ****             
 500:main.c        ****             
 501:main.c        ****             // Update the west clearance of the block: 
 502:main.c        ****             
 503:main.c        ****             //toleranceCheck();       // This checks if the values being polled are appropriate 
 504:main.c        ****             
 505:main.c        ****             straightAdjust();
 496              		.loc 1 505 0
 497 022a FFF7FEFF 		bl	straightAdjust
 498              	.LVL79:
 506:main.c        ****             distanceSensor(FRONT_LEFT); // Use front_right instead? 
 499              		.loc 1 506 0
 500 022e 0020     		movs	r0, #0
 501 0230 FFF7FEFF 		bl	distanceSensor
 502              	.LVL80:
 507:main.c        ****             CyDelay(DELAY);
 503              		.loc 1 507 0
 504 0234 3C20     		movs	r0, #60
 505 0236 FFF7FEFF 		bl	CyDelay
 506              	.LVL81:
 508:main.c        ****             
 509:main.c        ****             block_location[WEST] = ultrasonic_distances_mm[FRONT_LEFT] + DISTANCE_FRONT_SENSOR_TO_S
 507              		.loc 1 509 0
 508 023a 314C     		ldr	r4, .L52+36
 509 023c 2368     		ldr	r3, [r4]
ARM GAS  C:\Users\Misha\AppData\Local\Temp\cc40ki4b.s 			page 19


 510 023e 9633     		adds	r3, r3, #150
 511 0240 274E     		ldr	r6, .L52+4
 512 0242 F363     		str	r3, [r6, #60]
 510:main.c        ****             
 511:main.c        ****  
 512:main.c        ****             //straightAdjust();                   // Ensure we are straight to take measurements
 513:main.c        ****                                                   // may need to readjust this 
 514:main.c        ****             
 515:main.c        ****             
 516:main.c        ****             // Move back a bit to find the left side and right side values (adds a bit of tolerance
 517:main.c        ****             //moveDynamic(-(BLOCK_WIDTH/2), SPEED, TRUE);   
 518:main.c        ****             // Double check if the above is required
 519:main.c        ****             
 520:main.c        ****             //straightAdjust();                   // Ensure we are straight to take measurements
 521:main.c        ****                                                 // may need to readjust this 
 522:main.c        ****             
 523:main.c        ****             
 524:main.c        ****             // Updating the South Clearances of the object: 
 525:main.c        ****             
 526:main.c        ****             distanceSensor(SIDE_RIGHT); 
 513              		.loc 1 526 0
 514 0244 0320     		movs	r0, #3
 515 0246 FFF7FEFF 		bl	distanceSensor
 516              	.LVL82:
 527:main.c        ****             CyDelay(60); 
 517              		.loc 1 527 0
 518 024a 3C20     		movs	r0, #60
 519 024c FFF7FEFF 		bl	CyDelay
 520              	.LVL83:
 528:main.c        ****             distanceSensor(SIDE_LEFT); 
 521              		.loc 1 528 0
 522 0250 0220     		movs	r0, #2
 523 0252 FFF7FEFF 		bl	distanceSensor
 524              	.LVL84:
 529:main.c        ****             CyDelay(60); 
 525              		.loc 1 529 0
 526 0256 3C20     		movs	r0, #60
 527 0258 FFF7FEFF 		bl	CyDelay
 528              	.LVL85:
 530:main.c        ****             
 531:main.c        ****             block_location[SOUTH] = ultrasonic_distances_mm[SIDE_LEFT] + WIDTH_SENSOR_TO_SENSOR + u
 529              		.loc 1 531 0
 530 025c A368     		ldr	r3, [r4, #8]
 531 025e 03F1DC02 		add	r2, r3, #220
 532 0262 E368     		ldr	r3, [r4, #12]
 533 0264 1344     		add	r3, r3, r2
 534 0266 B363     		str	r3, [r6, #56]
 532:main.c        ****             
 533:main.c        ****             // Check that the value makes sense: 
 534:main.c        ****             if (block_location[SOUTH] > block_check) {
 535              		.loc 1 534 0
 536 0268 9D42     		cmp	r5, r3
 537 026a 17DA     		bge	.L20
 535:main.c        ****                 moveDynamic(-(BLOCK_WIDTH/2),SPEED,TRUE);
 538              		.loc 1 535 0
 539 026c 0122     		movs	r2, #1
 540 026e C821     		movs	r1, #200
ARM GAS  C:\Users\Misha\AppData\Local\Temp\cc40ki4b.s 			page 20


 541 0270 6FF02C00 		mvn	r0, #44
 542 0274 FFF7FEFF 		bl	moveDynamic
 543              	.LVL86:
 536:main.c        ****                 
 537:main.c        ****                 distanceSensor(SIDE_RIGHT); 
 544              		.loc 1 537 0
 545 0278 0320     		movs	r0, #3
 546 027a FFF7FEFF 		bl	distanceSensor
 547              	.LVL87:
 538:main.c        ****                 CyDelay(60); 
 548              		.loc 1 538 0
 549 027e 3C20     		movs	r0, #60
 550 0280 FFF7FEFF 		bl	CyDelay
 551              	.LVL88:
 539:main.c        ****                 distanceSensor(SIDE_LEFT); 
 552              		.loc 1 539 0
 553 0284 0220     		movs	r0, #2
 554 0286 FFF7FEFF 		bl	distanceSensor
 555              	.LVL89:
 540:main.c        ****                 CyDelay(60); 
 556              		.loc 1 540 0
 557 028a 3C20     		movs	r0, #60
 558 028c FFF7FEFF 		bl	CyDelay
 559              	.LVL90:
 541:main.c        ****             
 542:main.c        ****             block_location[SOUTH] = ultrasonic_distances_mm[SIDE_LEFT] + WIDTH_SENSOR_TO_SENSOR + u
 560              		.loc 1 542 0
 561 0290 A368     		ldr	r3, [r4, #8]
 562 0292 03F1DC02 		add	r2, r3, #220
 563 0296 E368     		ldr	r3, [r4, #12]
 564 0298 1344     		add	r3, r3, r2
 565 029a B363     		str	r3, [r6, #56]
 566              	.L20:
 543:main.c        ****             }
 544:main.c        ****             
 545:main.c        ****             // Stopping at the East side of the block: 
 546:main.c        ****             moveUntil(block_check, BACKWARD, GREATER_THAN, SIDE_RIGHT, SPEED, TRUE);  
 567              		.loc 1 546 0
 568 029c 0123     		movs	r3, #1
 569 029e 0193     		str	r3, [sp, #4]
 570 02a0 C823     		movs	r3, #200
 571 02a2 0093     		str	r3, [sp]
 572 02a4 0323     		movs	r3, #3
 573 02a6 0522     		movs	r2, #5
 574 02a8 0021     		movs	r1, #0
 575 02aa 2846     		mov	r0, r5
 576 02ac FFF7FEFF 		bl	moveUntil
 577              	.LVL91:
 547:main.c        ****                                 // this will move backwards until no longer hitting the block, or t
 548:main.c        ****             blinkLED(GREEN,1000);      // To show it ended at the correct spot
 578              		.loc 1 548 0
 579 02b0 4FF47A71 		mov	r1, #1000
 580 02b4 0220     		movs	r0, #2
 581 02b6 FFF7FEFF 		bl	blinkLED
 582              	.LVL92:
 549:main.c        ****             
 550:main.c        ****             // Updating the East Clearance:
ARM GAS  C:\Users\Misha\AppData\Local\Temp\cc40ki4b.s 			page 21


 551:main.c        ****             block_location[EAST] = ultrasonic_distances_mm[BACK] + DISTANCE_BACK_SENSOR_TO_SIDE_SEN
 583              		.loc 1 551 0
 584 02ba 114B     		ldr	r3, .L52+36
 585 02bc 1B69     		ldr	r3, [r3, #16]
 586 02be 6433     		adds	r3, r3, #100
 587 02c0 074A     		ldr	r2, .L52+4
 588 02c2 5363     		str	r3, [r2, #52]
 552:main.c        ****                                                         // double check the distance back sensor to
 553:main.c        ****                 
 554:main.c        ****             // Updating the North Clearance: 
 555:main.c        ****             if (ARENA_WIDTH - block_location[EAST] - block_location[EAST] > BLOCK_WIDTH) {
 589              		.loc 1 555 0
 590 02c4 C3F59662 		rsb	r2, r3, #1200
 591 02c8 D31A     		subs	r3, r2, r3
 592 02ca 5A2B     		cmp	r3, #90
 593 02cc 1CDD     		ble	.L21
 556:main.c        ****                 // block is " -- " this orientation
 557:main.c        ****                 block_location[NORTH] = ARENA_WIDTH - block_location[SOUTH] - BLOCK_WIDTH;         
 594              		.loc 1 557 0
 595 02ce 044A     		ldr	r2, .L52+4
 596 02d0 936B     		ldr	r3, [r2, #56]
 597 02d2 C3F58A63 		rsb	r3, r3, #1104
 598 02d6 0633     		adds	r3, r3, #6
 599 02d8 1363     		str	r3, [r2, #48]
 600 02da 1BE0     		b	.L22
 601              	.L53:
 602              		.align	2
 603              	.L52:
 604 02dc 18000000 		.word	.LC1
 605 02e0 00000000 		.word	.LANCHOR0
 606 02e4 00000000 		.word	internal_orientation
 607 02e8 00000000 		.word	TIH
 608 02ec 00000000 		.word	StartIH
 609 02f0 30000000 		.word	.LC2
 610 02f4 50000000 		.word	.LC3
 611 02f8 00000000 		.word	output
 612 02fc 64000000 		.word	.LC4
 613 0300 00000000 		.word	ultrasonic_distances_mm
 614 0304 6C000000 		.word	.LC5
 615              	.L21:
 558:main.c        ****             }
 559:main.c        ****             else {
 560:main.c        ****                 // block is " | " this orientation
 561:main.c        ****                 block_location[NORTH] = ARENA_WIDTH - block_location[SOUTH] - BLOCK_LENGTH;
 616              		.loc 1 561 0
 617 0308 B94A     		ldr	r2, .L54+8
 618 030a 936B     		ldr	r3, [r2, #56]
 619 030c C3F56D73 		rsb	r3, r3, #948
 620 0310 0233     		adds	r3, r3, #2
 621 0312 1363     		str	r3, [r2, #48]
 622              	.L22:
 562:main.c        ****             }
 563:main.c        ****             
 564:main.c        **** 
 565:main.c        ****             /*
 566:main.c        ****             // If either of the following cases are true, we can just put in default values, 
 567:main.c        ****                 // as it will be easy to circumvent the block
ARM GAS  C:\Users\Misha\AppData\Local\Temp\cc40ki4b.s 			page 22


 568:main.c        ****                 // This orientation will be unlikely 
 569:main.c        ****             
 570:main.c        ****             if (ultrasonic_distances_mm[BACK] < SAFETY_MARGIN + 50) {
 571:main.c        ****                 // block is " | " this orientation, and close to the side wall
 572:main.c        ****                 
 573:main.c        ****                 // Fill out all the details: 
 574:main.c        ****                 block_location[NORTH] = ARENA_WIDTH - ultrasonic_distances_mm[SIDE_LEFT] - ultrason
 575:main.c        ****                 block_location[EAST] = 0;
 576:main.c        ****                 block_location[SOUTH] = ultrasonic_distances_mm[SIDE_LEFT] + WIDTH_SENSOR_TO_SENSOR
 577:main.c        ****                 block_location[WEST] = ARENA_WIDTH - BLOCK_WIDTH; 
 578:main.c        ****                 
 579:main.c        ****             }
 580:main.c        ****             if (ultrasonic_distances_mm[BACK] < BLOCK_LENGTH + 50) {
 581:main.c        ****                 // block is " -- " this orientation, and close to the side wall 
 582:main.c        ****                 
 583:main.c        ****                 // Fill out all the details: 
 584:main.c        ****                 block_location[NORTH] = ARENA_WIDTH - ultrasonic_distances_mm[SIDE_LEFT] - ultrason
 585:main.c        ****                 block_location[EAST] = 0;
 586:main.c        ****                 block_location[SOUTH] = ultrasonic_distances_mm[SIDE_LEFT] + WIDTH_SENSOR_TO_SENSOR
 587:main.c        ****                 block_location[WEST] = ARENA_WIDTH - BLOCK_LENGTH; 
 588:main.c        ****             }
 589:main.c        ****             
 590:main.c        **** 
 591:main.c        ****             // Block location values:
 592:main.c        ****             block_location[SOUTH] = ultrasonic_distances_mm[SIDE_LEFT] + WIDTH_SENSOR_TO_SENSOR + u
 593:main.c        ****             block_location[WEST] = ultrasonic_distances_mm[FRONT_LEFT] + DISTANCE_FRONT_SENSOR_TO_S
 594:main.c        ****             CyDelay(1000);         
 595:main.c        ****             
 596:main.c        ****             */
 597:main.c        ****             
 598:main.c        ****             
 599:main.c        ****             //PRINTING BLOCK LOCATIONS: 
 600:main.c        ****             sprintf(output, "north: %d, \n", block_location[NORTH]);       
 623              		.loc 1 600 0
 624 0314 B64F     		ldr	r7, .L54+8
 625 0316 B74C     		ldr	r4, .L54+12
 626 0318 3A6B     		ldr	r2, [r7, #48]
 627 031a B749     		ldr	r1, .L54+16
 628 031c 2046     		mov	r0, r4
 629 031e FFF7FEFF 		bl	sprintf
 630              	.LVL93:
 601:main.c        ****             UART_1_PutString(output);
 631              		.loc 1 601 0
 632 0322 2046     		mov	r0, r4
 633 0324 FFF7FEFF 		bl	UART_1_PutString
 634              	.LVL94:
 602:main.c        ****             sprintf(output, "east: %d, \n", block_location[EAST]);       
 635              		.loc 1 602 0
 636 0328 7A6B     		ldr	r2, [r7, #52]
 637 032a B449     		ldr	r1, .L54+20
 638 032c 2046     		mov	r0, r4
 639 032e FFF7FEFF 		bl	sprintf
 640              	.LVL95:
 603:main.c        ****             UART_1_PutString(output);
 641              		.loc 1 603 0
 642 0332 2046     		mov	r0, r4
 643 0334 FFF7FEFF 		bl	UART_1_PutString
ARM GAS  C:\Users\Misha\AppData\Local\Temp\cc40ki4b.s 			page 23


 644              	.LVL96:
 604:main.c        ****             sprintf(output, "south: %d, \n", block_location[SOUTH]);       
 645              		.loc 1 604 0
 646 0338 BA6B     		ldr	r2, [r7, #56]
 647 033a B149     		ldr	r1, .L54+24
 648 033c 2046     		mov	r0, r4
 649 033e FFF7FEFF 		bl	sprintf
 650              	.LVL97:
 605:main.c        ****             UART_1_PutString(output);
 651              		.loc 1 605 0
 652 0342 2046     		mov	r0, r4
 653 0344 FFF7FEFF 		bl	UART_1_PutString
 654              	.LVL98:
 606:main.c        ****             sprintf(output, "west: %d, \n", block_location[WEST]);       
 655              		.loc 1 606 0
 656 0348 FA6B     		ldr	r2, [r7, #60]
 657 034a AE49     		ldr	r1, .L54+28
 658 034c 2046     		mov	r0, r4
 659 034e FFF7FEFF 		bl	sprintf
 660              	.LVL99:
 607:main.c        ****             UART_1_PutString(output);
 661              		.loc 1 607 0
 662 0352 2046     		mov	r0, r4
 663 0354 FFF7FEFF 		bl	UART_1_PutString
 664              	.LVL100:
 608:main.c        ****             
 609:main.c        ****             
 610:main.c        ****             // Start moving forward to find the location of the PUCKS:           
 611:main.c        ****             changeOrientation(EAST, SPEED);                             // No matter where we are t
 665              		.loc 1 611 0
 666 0358 C821     		movs	r1, #200
 667 035a 0120     		movs	r0, #1
 668 035c FFF7FEFF 		bl	changeOrientation
 669              	.LVL101:
 612:main.c        ****             moveUntil(150, FORWARD, LESS_THAN, FRONT_LEFT, SPEED, TRUE);
 670              		.loc 1 612 0
 671 0360 4FF00109 		mov	r9, #1
 672 0364 CDF80490 		str	r9, [sp, #4]
 673 0368 4FF0C80A 		mov	r10, #200
 674 036c CDF800A0 		str	r10, [sp]
 675 0370 0023     		movs	r3, #0
 676 0372 0422     		movs	r2, #4
 677 0374 4946     		mov	r1, r9
 678 0376 9620     		movs	r0, #150
 679 0378 FFF7FEFF 		bl	moveUntil
 680              	.LVL102:
 613:main.c        ****                     // above code could be inefficient if puck is closer to west side of arena 
 614:main.c        ****             straightAdjust();
 681              		.loc 1 614 0
 682 037c FFF7FEFF 		bl	straightAdjust
 683              	.LVL103:
 615:main.c        ****             
 616:main.c        ****             distanceSensor(SIDE_RIGHT);
 684              		.loc 1 616 0
 685 0380 0320     		movs	r0, #3
 686 0382 FFF7FEFF 		bl	distanceSensor
 687              	.LVL104:
ARM GAS  C:\Users\Misha\AppData\Local\Temp\cc40ki4b.s 			page 24


 617:main.c        ****             CyDelay(50);
 688              		.loc 1 617 0
 689 0386 3220     		movs	r0, #50
 690 0388 FFF7FEFF 		bl	CyDelay
 691              	.LVL105:
 618:main.c        ****             
 619:main.c        ****             sprintf(output, "%d \t", ultrasonic_distances_mm[SIDE_RIGHT]);
 692              		.loc 1 619 0
 693 038c DFF88082 		ldr	r8, .L54+40
 694 0390 D8F80C20 		ldr	r2, [r8, #12]
 695 0394 9C49     		ldr	r1, .L54+32
 696 0396 2046     		mov	r0, r4
 697 0398 FFF7FEFF 		bl	sprintf
 698              	.LVL106:
 620:main.c        ****             UART_1_PutString(output);
 699              		.loc 1 620 0
 700 039c 2046     		mov	r0, r4
 701 039e FFF7FEFF 		bl	UART_1_PutString
 702              	.LVL107:
 621:main.c        ****             
 622:main.c        ****             int puck_check = ARENA_LENGTH - PUCK_GRID_FROM_NORTH - ultrasonic_distances_mm[SIDE_RIG
 703              		.loc 1 622 0
 704 03a2 D8F80C60 		ldr	r6, [r8, #12]
 705 03a6 C6F54976 		rsb	r6, r6, #804
 706 03aa 4E44     		add	r6, r6, r9
 707              	.LVL108:
 623:main.c        ****             //puck_check = 700;
 624:main.c        ****             
 625:main.c        ****             sprintf(output, "puck check: %d, \n", puck_check);       
 708              		.loc 1 625 0
 709 03ac 3246     		mov	r2, r6
 710 03ae 9749     		ldr	r1, .L54+36
 711 03b0 2046     		mov	r0, r4
 712 03b2 FFF7FEFF 		bl	sprintf
 713              	.LVL109:
 626:main.c        ****             UART_1_PutString(output);
 714              		.loc 1 626 0
 715 03b6 2046     		mov	r0, r4
 716 03b8 FFF7FEFF 		bl	UART_1_PutString
 717              	.LVL110:
 627:main.c        ****                         
 628:main.c        ****             // Check front and back sensors:
 629:main.c        ****             moveUntil(puck_check, BACKWARD, LESS_THAN, SIDE_LEFT, SPEED, TRUE);   // this will move
 718              		.loc 1 629 0
 719 03bc CDF80490 		str	r9, [sp, #4]
 720 03c0 CDF800A0 		str	r10, [sp]
 721 03c4 0223     		movs	r3, #2
 722 03c6 0422     		movs	r2, #4
 723 03c8 0021     		movs	r1, #0
 724 03ca 3046     		mov	r0, r6
 725 03cc FFF7FEFF 		bl	moveUntil
 726              	.LVL111:
 630:main.c        ****             
 631:main.c        ****             
 632:main.c        ****             distanceSensor(FRONT_LEFT);
 727              		.loc 1 632 0
 728 03d0 0020     		movs	r0, #0
ARM GAS  C:\Users\Misha\AppData\Local\Temp\cc40ki4b.s 			page 25


 729 03d2 FFF7FEFF 		bl	distanceSensor
 730              	.LVL112:
 633:main.c        ****             CyDelay(DELAY);
 731              		.loc 1 633 0
 732 03d6 3C20     		movs	r0, #60
 733 03d8 FFF7FEFF 		bl	CyDelay
 734              	.LVL113:
 634:main.c        ****             distanceSensor(BACK);
 735              		.loc 1 634 0
 736 03dc 0420     		movs	r0, #4
 737 03de FFF7FEFF 		bl	distanceSensor
 738              	.LVL114:
 635:main.c        ****             CyDelay(DELAY);
 739              		.loc 1 635 0
 740 03e2 3C20     		movs	r0, #60
 741 03e4 FFF7FEFF 		bl	CyDelay
 742              	.LVL115:
 636:main.c        ****             
 637:main.c        ****             
 638:main.c        ****             
 639:main.c        ****             // checking if accidentally detected block:
 640:main.c        ****             // if the distance we are at is less than the block, we can say we didnt detect the blo
 641:main.c        ****                 // or the distance measured hittin the puck is greater than the puck threshold 
 642:main.c        ****             if (ultrasonic_distances_mm[FRONT_LEFT] + DISTANCE_FRONT_SENSOR_TO_SIDE_SENSOR < block_
 743              		.loc 1 642 0
 744 03e8 D8F80040 		ldr	r4, [r8]
 745 03ec 9634     		adds	r4, r4, #150
 746 03ee 7B6B     		ldr	r3, [r7, #52]
 747 03f0 9C42     		cmp	r4, r3
 748 03f2 03DB     		blt	.L23
 643:main.c        ****                     || ultrasonic_distances_mm[SIDE_LEFT] > block_check)
 749              		.loc 1 643 0
 750 03f4 D8F80830 		ldr	r3, [r8, #8]
 751 03f8 9D42     		cmp	r5, r3
 752 03fa 17DA     		bge	.L24
 753              	.L23:
 754              	.LBB8:
 644:main.c        ****             {
 645:main.c        ****                 
 646:main.c        ****                 int offset = ultrasonic_distances_mm[SIDE_LEFT]*sin(18*M_PI/180);
 755              		.loc 1 646 0
 756 03fc 844B     		ldr	r3, .L54+40
 757 03fe 9868     		ldr	r0, [r3, #8]
 758 0400 FFF7FEFF 		bl	__aeabi_i2d
 759              	.LVL116:
 760 0404 78A3     		adr	r3, .L54
 761 0406 D3E90023 		ldrd	r2, [r3]
 762 040a FFF7FEFF 		bl	__aeabi_dmul
 763              	.LVL117:
 764 040e FFF7FEFF 		bl	__aeabi_d2iz
 765              	.LVL118:
 647:main.c        ****                 // puck detected
 648:main.c        ****                 // puck detectedDISTANCE_FRONT_SENSOR_TO_SIDE_SENSOR
 649:main.c        ****                 puck_location[EAST] = ultrasonic_distances_mm[FRONT_LEFT] + DISTANCE_FRONT_SENSOR_T
 766              		.loc 1 649 0
 767 0412 2044     		add	r0, r0, r4
 768              	.LVL119:
ARM GAS  C:\Users\Misha\AppData\Local\Temp\cc40ki4b.s 			page 26


 769 0414 764A     		ldr	r2, .L54+8
 770 0416 5064     		str	r0, [r2, #68]
 650:main.c        ****                 puck_location[WEST] = ARENA_WIDTH - puck_location[EAST] - PUCK_GRID_WIDTH;
 771              		.loc 1 650 0
 772 0418 C0F56873 		rsb	r3, r0, #928
 773 041c 0233     		adds	r3, r3, #2
 774 041e D364     		str	r3, [r2, #76]
 651:main.c        ****                 
 652:main.c        ****                 blinkLED(GREEN,1000);   // puck location was succesfully found
 775              		.loc 1 652 0
 776 0420 4FF47A71 		mov	r1, #1000
 777 0424 0220     		movs	r0, #2
 778 0426 FFF7FEFF 		bl	blinkLED
 779              	.LVL120:
 780              	.LBE8:
 644:main.c        ****                 
 781              		.loc 1 644 0
 782 042a 49E0     		b	.L25
 783              	.L24:
 784              	.LBB9:
 653:main.c        ****             }
 654:main.c        ****             else {
 655:main.c        ****                 // block detected & rescans from opposite side:
 656:main.c        ****                 
 657:main.c        ****                 blinkLED(RED,1000); // indicates we hit the block instead 
 785              		.loc 1 657 0
 786 042c 4FF47A71 		mov	r1, #1000
 787 0430 0120     		movs	r0, #1
 788 0432 FFF7FEFF 		bl	blinkLED
 789              	.LVL121:
 658:main.c        ****                 
 659:main.c        ****                 moveUntil(200, BACKWARD, LESS_THAN, BACK, SPEED, TRUE);   // This should take us to
 790              		.loc 1 659 0
 791 0436 0125     		movs	r5, #1
 792              	.LVL122:
 793 0438 0195     		str	r5, [sp, #4]
 794 043a C824     		movs	r4, #200
 795 043c 0094     		str	r4, [sp]
 796 043e 0423     		movs	r3, #4
 797 0440 1A46     		mov	r2, r3
 798 0442 0021     		movs	r1, #0
 799 0444 2046     		mov	r0, r4
 800 0446 FFF7FEFF 		bl	moveUntil
 801              	.LVL123:
 660:main.c        ****                 changeOrientation(WEST, SPEED);
 802              		.loc 1 660 0
 803 044a 2146     		mov	r1, r4
 804 044c 0320     		movs	r0, #3
 805 044e FFF7FEFF 		bl	changeOrientation
 806              	.LVL124:
 661:main.c        ****                 moveUntil(130, FORWARD, LESS_THAN, FRONT_LEFT, SPEED, TRUE);
 807              		.loc 1 661 0
 808 0452 0195     		str	r5, [sp, #4]
 809 0454 0094     		str	r4, [sp]
 810 0456 0023     		movs	r3, #0
 811 0458 0422     		movs	r2, #4
 812 045a 2946     		mov	r1, r5
ARM GAS  C:\Users\Misha\AppData\Local\Temp\cc40ki4b.s 			page 27


 813 045c 8220     		movs	r0, #130
 814 045e FFF7FEFF 		bl	moveUntil
 815              	.LVL125:
 662:main.c        ****                 straightAdjust();   // adjusts against the wall
 816              		.loc 1 662 0
 817 0462 FFF7FEFF 		bl	straightAdjust
 818              	.LVL126:
 663:main.c        ****                 moveUntil(puck_check, BACKWARD, LESS_THAN, SIDE_RIGHT, SPEED, TRUE);   // this will
 819              		.loc 1 663 0
 820 0466 0195     		str	r5, [sp, #4]
 821 0468 0094     		str	r4, [sp]
 822 046a 0323     		movs	r3, #3
 823 046c 0422     		movs	r2, #4
 824 046e 0021     		movs	r1, #0
 825 0470 3046     		mov	r0, r6
 826 0472 FFF7FEFF 		bl	moveUntil
 827              	.LVL127:
 664:main.c        ****                 blinkLED(GREEN,1000);   // Find the edge of the puck zone 
 828              		.loc 1 664 0
 829 0476 4FF47A71 		mov	r1, #1000
 830 047a 0220     		movs	r0, #2
 831 047c FFF7FEFF 		bl	blinkLED
 832              	.LVL128:
 665:main.c        ****                                 
 666:main.c        ****                 distanceSensor(FRONT_LEFT);
 833              		.loc 1 666 0
 834 0480 0020     		movs	r0, #0
 835 0482 FFF7FEFF 		bl	distanceSensor
 836              	.LVL129:
 667:main.c        ****                 CyDelay(DELAY);
 837              		.loc 1 667 0
 838 0486 3C20     		movs	r0, #60
 839 0488 FFF7FEFF 		bl	CyDelay
 840              	.LVL130:
 668:main.c        ****                 distanceSensor(BACK);
 841              		.loc 1 668 0
 842 048c 0420     		movs	r0, #4
 843 048e FFF7FEFF 		bl	distanceSensor
 844              	.LVL131:
 669:main.c        ****                 CyDelay(DELAY);
 845              		.loc 1 669 0
 846 0492 3C20     		movs	r0, #60
 847 0494 FFF7FEFF 		bl	CyDelay
 848              	.LVL132:
 670:main.c        ****                 
 671:main.c        ****                 int offset = ultrasonic_distances_mm[SIDE_RIGHT]*sin(18*M_PI/180);
 849              		.loc 1 671 0
 850 0498 5D4C     		ldr	r4, .L54+40
 851 049a E068     		ldr	r0, [r4, #12]
 852 049c FFF7FEFF 		bl	__aeabi_i2d
 853              	.LVL133:
 854 04a0 51A3     		adr	r3, .L54
 855 04a2 D3E90023 		ldrd	r2, [r3]
 856 04a6 FFF7FEFF 		bl	__aeabi_dmul
 857              	.LVL134:
 858 04aa FFF7FEFF 		bl	__aeabi_d2iz
 859              	.LVL135:
ARM GAS  C:\Users\Misha\AppData\Local\Temp\cc40ki4b.s 			page 28


 672:main.c        ****                 
 673:main.c        ****                 puck_location[WEST] = ultrasonic_distances_mm[FRONT_LEFT] + DISTANCE_FRONT_SENSOR_T
 860              		.loc 1 673 0
 861 04ae 2368     		ldr	r3, [r4]
 862 04b0 9633     		adds	r3, r3, #150
 863 04b2 1844     		add	r0, r0, r3
 864              	.LVL136:
 865 04b4 4E4A     		ldr	r2, .L54+8
 866 04b6 D064     		str	r0, [r2, #76]
 674:main.c        ****                 puck_location[EAST] = ARENA_WIDTH - puck_location[WEST] - PUCK_GRID_WIDTH;
 867              		.loc 1 674 0
 868 04b8 C0F56873 		rsb	r3, r0, #928
 869 04bc 0233     		adds	r3, r3, #2
 870 04be 5364     		str	r3, [r2, #68]
 871              	.L25:
 872              	.LBE9:
 675:main.c        ****                 
 676:main.c        ****             }
 677:main.c        ****             
 678:main.c        ****             
 679:main.c        ****             sprintf(output, "east puck: %d, \n", puck_location[EAST]);       
 873              		.loc 1 679 0
 874 04c0 4B4D     		ldr	r5, .L54+8
 875 04c2 4C4C     		ldr	r4, .L54+12
 876 04c4 6A6C     		ldr	r2, [r5, #68]
 877 04c6 5349     		ldr	r1, .L54+44
 878 04c8 2046     		mov	r0, r4
 879 04ca FFF7FEFF 		bl	sprintf
 880              	.LVL137:
 680:main.c        ****             UART_1_PutString(output);
 881              		.loc 1 680 0
 882 04ce 2046     		mov	r0, r4
 883 04d0 FFF7FEFF 		bl	UART_1_PutString
 884              	.LVL138:
 681:main.c        ****             sprintf(output, "west puck: %d, \n", puck_location[WEST]);       
 885              		.loc 1 681 0
 886 04d4 EA6C     		ldr	r2, [r5, #76]
 887 04d6 5049     		ldr	r1, .L54+48
 888 04d8 2046     		mov	r0, r4
 889 04da FFF7FEFF 		bl	sprintf
 890              	.LVL139:
 682:main.c        ****             UART_1_PutString(output);
 891              		.loc 1 682 0
 892 04de 2046     		mov	r0, r4
 893 04e0 FFF7FEFF 		bl	UART_1_PutString
 894              	.LVL140:
 683:main.c        ****             sprintf(output, "east block: %d, \n", block_location[EAST]);       
 895              		.loc 1 683 0
 896 04e4 6A6B     		ldr	r2, [r5, #52]
 897 04e6 4D49     		ldr	r1, .L54+52
 898 04e8 2046     		mov	r0, r4
 899 04ea FFF7FEFF 		bl	sprintf
 900              	.LVL141:
 684:main.c        ****             UART_1_PutString(output);
 901              		.loc 1 684 0
 902 04ee 2046     		mov	r0, r4
 903 04f0 FFF7FEFF 		bl	UART_1_PutString
ARM GAS  C:\Users\Misha\AppData\Local\Temp\cc40ki4b.s 			page 29


 904              	.LVL142:
 685:main.c        ****             sprintf(output, "west block: %d, \n", block_location[WEST]);       
 905              		.loc 1 685 0
 906 04f4 EA6B     		ldr	r2, [r5, #60]
 907 04f6 4A49     		ldr	r1, .L54+56
 908 04f8 2046     		mov	r0, r4
 909 04fa FFF7FEFF 		bl	sprintf
 910              	.LVL143:
 686:main.c        ****             UART_1_PutString(output);
 911              		.loc 1 686 0
 912 04fe 2046     		mov	r0, r4
 913 0500 FFF7FEFF 		bl	UART_1_PutString
 914              	.LVL144:
 687:main.c        ****             
 688:main.c        ****             
 689:main.c        ****             
 690:main.c        ****             
 691:main.c        ****             
 692:main.c        ****             
 693:main.c        ****             // Finding the different block & puck clearances: 
 694:main.c        ****             
 695:main.c        ****                     // there should be a threshold that allows the robot to travel through a cleara
 696:main.c        ****                     // E.g. robot width + 100mm
 697:main.c        ****             
 698:main.c        ****                     // the robot will travel to the chosen (block_clearance/2) and travel down ther
 699:main.c        ****                     // so it is in the middle of the block clearance and the wall 
 700:main.c        ****             
 701:main.c        ****                     // check if between the edge of the block and the puck zone gives enough cleara
 702:main.c        ****                     
 703:main.c        ****             
 704:main.c        ****             if (block_location[EAST] > WIDTH_WHEEL_TO_WHEEL + BLOCK_TOLERANCE) {
 915              		.loc 1 704 0
 916 0504 6B6B     		ldr	r3, [r5, #52]
 917 0506 B3F5847F 		cmp	r3, #264
 918 050a 02DD     		ble	.L26
 705:main.c        ****                 // the east clearance of block check
 706:main.c        ****               blockEastClearance = 1;  
 919              		.loc 1 706 0
 920 050c 0122     		movs	r2, #1
 921 050e A5F85020 		strh	r2, [r5, #80]	@ movhi
 922              	.L26:
 707:main.c        ****             }
 708:main.c        ****             if (block_location[WEST] > WIDTH_WHEEL_TO_WHEEL + BLOCK_TOLERANCE) {
 923              		.loc 1 708 0
 924 0512 374B     		ldr	r3, .L54+8
 925 0514 DB6B     		ldr	r3, [r3, #60]
 926 0516 B3F5847F 		cmp	r3, #264
 927 051a 03DD     		ble	.L27
 709:main.c        ****                 // the east clearance of block check
 710:main.c        ****               blockWestClearance = 1;  
 928              		.loc 1 710 0
 929 051c 0122     		movs	r2, #1
 930 051e 344B     		ldr	r3, .L54+8
 931 0520 A3F85220 		strh	r2, [r3, #82]	@ movhi
 932              	.L27:
 711:main.c        ****             }
 712:main.c        ****             if (puck_location[EAST] > WIDTH_WHEEL_TO_WHEEL + BLOCK_TOLERANCE) {
ARM GAS  C:\Users\Misha\AppData\Local\Temp\cc40ki4b.s 			page 30


 713:main.c        ****                 // the east clearance of block check
 714:main.c        ****               puckEastClearance = 1;  
 715:main.c        ****             }
 716:main.c        ****             if (puck_location[WEST] > WIDTH_WHEEL_TO_WHEEL + BLOCK_TOLERANCE) {
 717:main.c        ****                 // the east clearance of block check
 718:main.c        ****               puckWestClearance = 1;  
 719:main.c        ****             }
 720:main.c        ****             
 721:main.c        ****             //Temp delete later
 722:main.c        ****             puckEastClearance = 0;
 933              		.loc 1 722 0
 934 0524 324F     		ldr	r7, .L54+8
 935 0526 0026     		movs	r6, #0
 936              	.LVL145:
 937 0528 A7F85460 		strh	r6, [r7, #84]	@ movhi
 723:main.c        ****             puckWestClearance = 1;
 938              		.loc 1 723 0
 939 052c 0125     		movs	r5, #1
 940 052e A7F85650 		strh	r5, [r7, #86]	@ movhi
 724:main.c        ****             
 725:main.c        ****             
 726:main.c        ****             //changeOrientation(WEST,SPEED);
 727:main.c        ****             //moveDynamic(-600, SPEED, TRUE);
 728:main.c        ****             //moveUntil((puck_location[EAST]/2),FORWARD, LESS_THAN, FRONT_LEFT, SPEED, TRUE);
 729:main.c        ****             //straightAdjust();
 730:main.c        ****             //changeOrientation(WEST,SPEED);
 731:main.c        ****             //moveUntil((PUCK_GRID_FROM_NORTH/2), FORWARD, LESS_THAN, FRONT_LEFT, SPEED,TRUE);
 732:main.c        ****             //straightAdjust();
 733:main.c        ****             //changeOrientation(EAST, SPEED);
 734:main.c        ****             ///oveDynamic(1200, SPEED, TRUE);
 735:main.c        ****             
 736:main.c        ****             moveUntil(200, BACKWARD, GREATER_THAN, FRONT_LEFT, SPEED, TRUE);
 941              		.loc 1 736 0
 942 0532 0195     		str	r5, [sp, #4]
 943 0534 C824     		movs	r4, #200
 944 0536 0094     		str	r4, [sp]
 945 0538 3346     		mov	r3, r6
 946 053a 0522     		movs	r2, #5
 947 053c 3146     		mov	r1, r6
 948 053e 2046     		mov	r0, r4
 949 0540 FFF7FEFF 		bl	moveUntil
 950              	.LVL146:
 737:main.c        ****             changeOrientation(SOUTH,SPEED);
 951              		.loc 1 737 0
 952 0544 2146     		mov	r1, r4
 953 0546 0220     		movs	r0, #2
 954 0548 FFF7FEFF 		bl	changeOrientation
 955              	.LVL147:
 738:main.c        ****             changeOrientation(EAST, SPEED);
 956              		.loc 1 738 0
 957 054c 2146     		mov	r1, r4
 958 054e 2846     		mov	r0, r5
 959 0550 FFF7FEFF 		bl	changeOrientation
 960              	.LVL148:
 739:main.c        ****             straightAdjust();
 961              		.loc 1 739 0
 962 0554 FFF7FEFF 		bl	straightAdjust
ARM GAS  C:\Users\Misha\AppData\Local\Temp\cc40ki4b.s 			page 31


 963              	.LVL149:
 740:main.c        ****             moveUntil(CLEARANCE_RADIUS_CENTER_TO_FRONT + SAFETY_MARGIN/2, FORWARD, LESS_THAN, FRONT
 964              		.loc 1 740 0
 965 0558 0195     		str	r5, [sp, #4]
 966 055a 0094     		str	r4, [sp]
 967 055c 3346     		mov	r3, r6
 968 055e 0422     		movs	r2, #4
 969 0560 2946     		mov	r1, r5
 970 0562 AC20     		movs	r0, #172
 971 0564 FFF7FEFF 		bl	moveUntil
 972              	.LVL150:
 741:main.c        ****             translateUntil(CLEARANCE_RADIUS_CENTER_TO_BACK - SAFETY_MARGIN, LEFT, GREATER_THAN, SID
 973              		.loc 1 741 0
 974 0568 0094     		str	r4, [sp]
 975 056a 0323     		movs	r3, #3
 976 056c 0522     		movs	r2, #5
 977 056e 0221     		movs	r1, #2
 978 0570 9B20     		movs	r0, #155
 979 0572 FFF7FEFF 		bl	translateUntil
 980              	.LVL151:
 742:main.c        ****             straightAdjust();
 981              		.loc 1 742 0
 982 0576 FFF7FEFF 		bl	straightAdjust
 983              	.LVL152:
 743:main.c        ****             
 744:main.c        ****             
 745:main.c        ****             // PUCK has now been found, enter the IF statements to locate and pick up pucks 
 746:main.c        ****             state = STATE_GO_TO_PUCKS;
 984              		.loc 1 746 0
 985 057a 0323     		movs	r3, #3
 986 057c 7B60     		str	r3, [r7, #4]
 987              	.L17:
 988              	.LBE7:
 747:main.c        **** 	    }     
 748:main.c        **** 
 749:main.c        **** //
 750:main.c        **** // *** 3. STATE GO TO PUCKS: *** // 
 751:main.c        **** //
 752:main.c        **** 
 753:main.c        ****         // Ensure that we are @ east wall facing east at a minimum verticaldistance so we can turn 
 754:main.c        ****         
 755:main.c        ****         if (state == STATE_GO_TO_PUCKS){
 989              		.loc 1 755 0
 990 057e 1C4B     		ldr	r3, .L54+8
 991 0580 5B68     		ldr	r3, [r3, #4]
 992 0582 032B     		cmp	r3, #3
 993 0584 40F0CB80 		bne	.L30
 756:main.c        ****             
 757:main.c        **** 
 758:main.c        ****             // The different route finding Algorithms for the different combinations: 
 759:main.c        ****             
 760:main.c        ****             if (blockEastClearance && puckEastClearance){
 994              		.loc 1 760 0
 995 0588 194B     		ldr	r3, .L54+8
 996 058a B3F95020 		ldrsh	r2, [r3, #80]
 997 058e 002A     		cmp	r2, #0
 998 0590 48D0     		beq	.L31
ARM GAS  C:\Users\Misha\AppData\Local\Temp\cc40ki4b.s 			page 32


 999              		.loc 1 760 0 is_stmt 0 discriminator 1
 1000 0592 B3F95430 		ldrsh	r3, [r3, #84]
 1001 0596 002B     		cmp	r3, #0
 1002 0598 44D0     		beq	.L31
 761:main.c        ****                 
 762:main.c        ****                 moveUntil(WALL_CLEARANCE_FRONT, BACKWARD, GREATER_THAN, FRONT_LEFT, SPEED, TRUE);
 1003              		.loc 1 762 0 is_stmt 1
 1004 059a 0125     		movs	r5, #1
 1005 059c 0195     		str	r5, [sp, #4]
 1006 059e C824     		movs	r4, #200
 1007 05a0 0094     		str	r4, [sp]
 1008 05a2 0023     		movs	r3, #0
 1009 05a4 0522     		movs	r2, #5
 1010 05a6 1946     		mov	r1, r3
 1011 05a8 AF20     		movs	r0, #175
 1012 05aa FFF7FEFF 		bl	moveUntil
 1013              	.LVL153:
 763:main.c        ****                 straightAdjust();
 1014              		.loc 1 763 0
 1015 05ae FFF7FEFF 		bl	straightAdjust
 1016              	.LVL154:
 764:main.c        ****                 changeOrientation(NORTH, SPEED);
 1017              		.loc 1 764 0
 1018 05b2 2146     		mov	r1, r4
 1019 05b4 0020     		movs	r0, #0
 1020 05b6 FFF7FEFF 		bl	changeOrientation
 1021              	.LVL155:
 765:main.c        ****                 //straightAdjust();
 766:main.c        ****                 moveUntil(PUCK_GRID_FROM_NORTH - DISTANCE_FRONT_SENSOR_FROM_CENTER - PUCK_GRID_DIST
 1022              		.loc 1 766 0
 1023 05ba 0D4B     		ldr	r3, .L54+8
 1024 05bc 986D     		ldr	r0, [r3, #88]
 1025 05be 6FF03603 		mvn	r3, #54
 1026 05c2 03FB00F0 		mul	r0, r3, r0
 1027 05c6 0195     		str	r5, [sp, #4]
 1028 05c8 0094     		str	r4, [sp]
 1029 05ca 0023     		movs	r3, #0
 1030 05cc 0422     		movs	r2, #4
 1031 05ce 2946     		mov	r1, r5
 1032 05d0 E130     		adds	r0, r0, #225
 1033 05d2 FFF7FEFF 		bl	moveUntil
 1034              	.LVL156:
 767:main.c        ****                 straightAdjust();
 1035              		.loc 1 767 0
 1036 05d6 FFF7FEFF 		bl	straightAdjust
 1037              	.LVL157:
 768:main.c        ****                 changeOrientation(WEST, SPEED);
 1038              		.loc 1 768 0
 1039 05da 2146     		mov	r1, r4
 1040 05dc 0320     		movs	r0, #3
 1041 05de FFF7FEFF 		bl	changeOrientation
 1042              	.LVL158:
 1043 05e2 99E0     		b	.L32
 1044              	.L55:
 1045 05e4 AFF30080 		.align	3
 1046              	.L54:
 1047 05e8 4FE92F37 		.word	925886799
ARM GAS  C:\Users\Misha\AppData\Local\Temp\cc40ki4b.s 			page 33


 1048 05ec EFC6D33F 		.word	1070843631
 1049 05f0 00000000 		.word	.LANCHOR0
 1050 05f4 00000000 		.word	output
 1051 05f8 90000000 		.word	.LC6
 1052 05fc A0000000 		.word	.LC7
 1053 0600 AC000000 		.word	.LC8
 1054 0604 BC000000 		.word	.LC9
 1055 0608 C8000000 		.word	.LC10
 1056 060c D0000000 		.word	.LC11
 1057 0610 00000000 		.word	ultrasonic_distances_mm
 1058 0614 E4000000 		.word	.LC12
 1059 0618 F8000000 		.word	.LC13
 1060 061c 0C010000 		.word	.LC14
 1061 0620 20010000 		.word	.LC15
 1062              	.L31:
 769:main.c        **** 
 770:main.c        ****                 
 771:main.c        ****                 
 772:main.c        ****             }
 773:main.c        ****             
 774:main.c        ****             else if (blockWestClearance && puckWestClearance){
 1063              		.loc 1 774 0
 1064 0624 964B     		ldr	r3, .L56
 1065 0626 B3F95230 		ldrsh	r3, [r3, #82]
 1066 062a 53B3     		cbz	r3, .L33
 1067              		.loc 1 774 0 is_stmt 0 discriminator 1
 1068 062c 9449     		ldr	r1, .L56
 1069 062e B1F95610 		ldrsh	r1, [r1, #86]
 1070 0632 31B3     		cbz	r1, .L33
 775:main.c        ****             
 776:main.c        ****                 //moveUntil(CLEARANCE_RADIUS_CENTER_TO_FRONT, BACKWARD, GREATER_THAN, FRONT_LEFT, S
 777:main.c        ****                 moveUntil(CLEARANCE_RADIUS_CENTER_TO_BACK - DISTANCE_BACK_SENSOR_FROM_CENTER, BACKW
 1071              		.loc 1 777 0 is_stmt 1
 1072 0634 0124     		movs	r4, #1
 1073 0636 0194     		str	r4, [sp, #4]
 1074 0638 C825     		movs	r5, #200
 1075 063a 0095     		str	r5, [sp]
 1076 063c 0423     		movs	r3, #4
 1077 063e 1A46     		mov	r2, r3
 1078 0640 0021     		movs	r1, #0
 1079 0642 0A20     		movs	r0, #10
 1080 0644 FFF7FEFF 		bl	moveUntil
 1081              	.LVL159:
 778:main.c        ****                 straightAdjust(); //? Remove if it fucks things up
 1082              		.loc 1 778 0
 1083 0648 FFF7FEFF 		bl	straightAdjust
 1084              	.LVL160:
 779:main.c        ****                 changeOrientation(NORTH, SPEED);
 1085              		.loc 1 779 0
 1086 064c 2946     		mov	r1, r5
 1087 064e 0020     		movs	r0, #0
 1088 0650 FFF7FEFF 		bl	changeOrientation
 1089              	.LVL161:
 780:main.c        ****                 straightAdjust(); //? Remove if it fucks things up
 1090              		.loc 1 780 0
 1091 0654 FFF7FEFF 		bl	straightAdjust
 1092              	.LVL162:
ARM GAS  C:\Users\Misha\AppData\Local\Temp\cc40ki4b.s 			page 34


 781:main.c        ****                 moveUntil(PUCK_GRID_FROM_NORTH - DISTANCE_FRONT_SENSOR_FROM_CENTER - PUCK_GRID_DIST
 1093              		.loc 1 781 0
 1094 0658 894B     		ldr	r3, .L56
 1095 065a 986D     		ldr	r0, [r3, #88]
 1096 065c 6FF03603 		mvn	r3, #54
 1097 0660 03FB00F0 		mul	r0, r3, r0
 1098 0664 0194     		str	r4, [sp, #4]
 1099 0666 0095     		str	r5, [sp]
 1100 0668 0023     		movs	r3, #0
 1101 066a 0422     		movs	r2, #4
 1102 066c 2146     		mov	r1, r4
 1103 066e E130     		adds	r0, r0, #225
 1104 0670 FFF7FEFF 		bl	moveUntil
 1105              	.LVL163:
 782:main.c        ****                 //translateMoveDynamic(CLEARANCE_RADIUS_CENTER_TO_BACK, 10, SPEED, FALSE); // Chang
 783:main.c        ****                 straightAdjust();
 1106              		.loc 1 783 0
 1107 0674 FFF7FEFF 		bl	straightAdjust
 1108              	.LVL164:
 784:main.c        ****                 changeOrientation(EAST, SPEED);
 1109              		.loc 1 784 0
 1110 0678 2946     		mov	r1, r5
 1111 067a 2046     		mov	r0, r4
 1112 067c FFF7FEFF 		bl	changeOrientation
 1113              	.LVL165:
 1114 0680 4AE0     		b	.L32
 1115              	.L33:
 785:main.c        **** 
 786:main.c        ****                             
 787:main.c        ****             }
 788:main.c        ****             
 789:main.c        ****             
 790:main.c        ****             else if (blockEastClearance && puckWestClearance){
 1116              		.loc 1 790 0
 1117 0682 22B3     		cbz	r2, .L34
 1118              		.loc 1 790 0 is_stmt 0 discriminator 1
 1119 0684 7E4A     		ldr	r2, .L56
 1120 0686 B2F95620 		ldrsh	r2, [r2, #86]
 1121 068a 02B3     		cbz	r2, .L34
 791:main.c        **** 
 792:main.c        ****                 moveUntil(block_and_puck_edge_midpoint - DISTANCE_BACK_SENSOR_FROM_CENTER, BACKWARD
 1122              		.loc 1 792 0 is_stmt 1
 1123 068c 0124     		movs	r4, #1
 1124 068e 0194     		str	r4, [sp, #4]
 1125 0690 C825     		movs	r5, #200
 1126 0692 0095     		str	r5, [sp]
 1127 0694 0423     		movs	r3, #4
 1128 0696 1A46     		mov	r2, r3
 1129 0698 0021     		movs	r1, #0
 1130 069a 6FF0E500 		mvn	r0, #229
 1131 069e FFF7FEFF 		bl	moveUntil
 1132              	.LVL166:
 793:main.c        ****                 straightAdjust();
 1133              		.loc 1 793 0
 1134 06a2 FFF7FEFF 		bl	straightAdjust
 1135              	.LVL167:
 794:main.c        ****                 changeOrientation(NORTH, SPEED);
ARM GAS  C:\Users\Misha\AppData\Local\Temp\cc40ki4b.s 			page 35


 1136              		.loc 1 794 0
 1137 06a6 2946     		mov	r1, r5
 1138 06a8 0020     		movs	r0, #0
 1139 06aa FFF7FEFF 		bl	changeOrientation
 1140              	.LVL168:
 795:main.c        ****                 straightAdjust();
 1141              		.loc 1 795 0
 1142 06ae FFF7FEFF 		bl	straightAdjust
 1143              	.LVL169:
 796:main.c        ****                 moveUntil(PUCK_GRID_FROM_NORTH, FORWARD, LESS_THAN, FRONT_LEFT, SPEED, TRUE);
 1144              		.loc 1 796 0
 1145 06b2 0194     		str	r4, [sp, #4]
 1146 06b4 0095     		str	r5, [sp]
 1147 06b6 0023     		movs	r3, #0
 1148 06b8 0422     		movs	r2, #4
 1149 06ba 2146     		mov	r1, r4
 1150 06bc 40F21310 		movw	r0, #275
 1151 06c0 FFF7FEFF 		bl	moveUntil
 1152              	.LVL170:
 797:main.c        ****                 //displaceLeft(); Repeatedly call this if below function not implemented
 798:main.c        ****                 //displaceLeftUntil(CLEARANCE_RADIUS_CENTER_TO_BACK,RIGHT);
 799:main.c        ****                 changeOrientation(EAST, SPEED);
 1153              		.loc 1 799 0
 1154 06c4 2946     		mov	r1, r5
 1155 06c6 2046     		mov	r0, r4
 1156 06c8 FFF7FEFF 		bl	changeOrientation
 1157              	.LVL171:
 1158 06cc 24E0     		b	.L32
 1159              	.L34:
 800:main.c        ****                 //displaceLeft();
 801:main.c        ****                 //displaceLeftUntil(DISTANCE_PUCKS_FROM_NORTH + WIDTH_SENSOR_TO_CENTER ,RIGHT);
 802:main.c        ****                 //moveUntil(DISTANCE_STOPPED_FROM_PUCK, FORWARD, LESS_THAN, FRONT_LEFT, SPEED, TRUE
 803:main.c        ****                 
 804:main.c        ****             }
 805:main.c        ****             
 806:main.c        ****             else if (blockWestClearance && puckEastClearance){
 1160              		.loc 1 806 0
 1161 06ce 1BB3     		cbz	r3, .L32
 1162              		.loc 1 806 0 is_stmt 0 discriminator 1
 1163 06d0 6B4B     		ldr	r3, .L56
 1164 06d2 B3F95430 		ldrsh	r3, [r3, #84]
 1165 06d6 FBB1     		cbz	r3, .L32
 807:main.c        ****                 
 808:main.c        ****                 moveUntil(block_and_puck_edge_midpoint - DISTANCE_BACK_SENSOR_FROM_CENTER, BACKWARD
 1166              		.loc 1 808 0 is_stmt 1
 1167 06d8 0125     		movs	r5, #1
 1168 06da 0195     		str	r5, [sp, #4]
 1169 06dc C824     		movs	r4, #200
 1170 06de 0094     		str	r4, [sp]
 1171 06e0 0423     		movs	r3, #4
 1172 06e2 1A46     		mov	r2, r3
 1173 06e4 0021     		movs	r1, #0
 1174 06e6 6FF0E500 		mvn	r0, #229
 1175 06ea FFF7FEFF 		bl	moveUntil
 1176              	.LVL172:
 809:main.c        ****                 straightAdjust();
 1177              		.loc 1 809 0
ARM GAS  C:\Users\Misha\AppData\Local\Temp\cc40ki4b.s 			page 36


 1178 06ee FFF7FEFF 		bl	straightAdjust
 1179              	.LVL173:
 810:main.c        ****                 changeOrientation(NORTH, SPEED);
 1180              		.loc 1 810 0
 1181 06f2 2146     		mov	r1, r4
 1182 06f4 0020     		movs	r0, #0
 1183 06f6 FFF7FEFF 		bl	changeOrientation
 1184              	.LVL174:
 811:main.c        ****                 straightAdjust();
 1185              		.loc 1 811 0
 1186 06fa FFF7FEFF 		bl	straightAdjust
 1187              	.LVL175:
 812:main.c        ****                 moveUntil(PUCK_GRID_FROM_NORTH, FORWARD, LESS_THAN, FRONT_LEFT, SPEED, TRUE);
 1188              		.loc 1 812 0
 1189 06fe 0195     		str	r5, [sp, #4]
 1190 0700 0094     		str	r4, [sp]
 1191 0702 0023     		movs	r3, #0
 1192 0704 0422     		movs	r2, #4
 1193 0706 2946     		mov	r1, r5
 1194 0708 40F21310 		movw	r0, #275
 1195 070c FFF7FEFF 		bl	moveUntil
 1196              	.LVL176:
 813:main.c        ****                 //displaceLeft(); Repeatedly call this if below function not implemented
 814:main.c        ****                 //displaceLeftUntil(CLEARANCE_RADIUS_CENTER_TO_BACK,RIGHT);
 815:main.c        ****                 changeOrientation(WEST, SPEED);
 1197              		.loc 1 815 0
 1198 0710 2146     		mov	r1, r4
 1199 0712 0320     		movs	r0, #3
 1200 0714 FFF7FEFF 		bl	changeOrientation
 1201              	.LVL177:
 1202              	.L32:
 816:main.c        ****                 //displaceLeft();
 817:main.c        ****                 //displaceLeftUntil(DISTANCE_PUCKS_FROM_NORTH + WIDTH_SENSOR_TO_CENTER ,RIGHT);
 818:main.c        ****                 //moveUntil(DISTANCE_STOPPED_FROM_PUCK, FORWARD, LESS_THAN, FRONT_LEFT, SPEED, TRUE
 819:main.c        ****                 
 820:main.c        ****             }
 821:main.c        ****             
 822:main.c        ****             state = STATE_FIND_REQUIRED_PUCK;
 1203              		.loc 1 822 0
 1204 0718 0422     		movs	r2, #4
 1205 071a 594B     		ldr	r3, .L56
 1206 071c 5A60     		str	r2, [r3, #4]
 1207              	.L30:
 823:main.c        **** 
 824:main.c        ****         }
 825:main.c        ****  
 826:main.c        **** //        
 827:main.c        **** // *** 4. STATE FIND REQUIRED PUCK: *** // 
 828:main.c        **** //
 829:main.c        ****         
 830:main.c        ****         
 831:main.c        ****         if (state == STATE_FIND_REQUIRED_PUCK){
 1208              		.loc 1 831 0
 1209 071e 584B     		ldr	r3, .L56
 1210 0720 5B68     		ldr	r3, [r3, #4]
 1211 0722 042B     		cmp	r3, #4
 1212 0724 19D1     		bne	.L35
ARM GAS  C:\Users\Misha\AppData\Local\Temp\cc40ki4b.s 			page 37


 1213              	.LVL178:
 1214              	.LBB10:
 832:main.c        ****         
 833:main.c        ****         int puck_correct = FALSE;   // A flag to determine if the correct puck has been picked up
 834:main.c        ****         int puck_scan;
 835:main.c        ****         
 836:main.c        ****     
 837:main.c        ****         //Temp delete after teesting!!!!!!!!!!!!!!!!!!!!!
 838:main.c        ****         puck_correct = TRUE;
 839:main.c        ****         
 840:main.c        ****             
 841:main.c        ****         // Scanning puck:
 842:main.c        ****             
 843:main.c        ****         safety_override = TRUE;     // DEACTIVATES the safety override so pucks don't interfere  
 1215              		.loc 1 843 0
 1216 0726 564C     		ldr	r4, .L56
 1217 0728 0125     		movs	r5, #1
 1218 072a E565     		str	r5, [r4, #92]
 844:main.c        **** 
 845:main.c        ****         while (puck_correct == FALSE) 
 846:main.c        ****         {
 847:main.c        ****             moveDynamic(50, SPEED_LOW, TRUE);  // robot moves forward towards puck
 848:main.c        ****                                     // could replace this with the distance gathered from the ultra
 849:main.c        ****             changeHeightToPuck(ABOVE_1_PUCK, NEITHER);  // arm lowers onto robot
 850:main.c        ****             puck_scan = colourSensingOutput();  // colour sensor takes a scan
 851:main.c        ****             changeHeightToPuck(ABOVE_3_PUCK, NEITHER);  // arm returns to high position
 852:main.c        ****             moveDynamic(-50, SPEED, TRUE);   // robot moves backwards
 853:main.c        ****             if (puck_scan == puckConstructionPlan[current_stage-1]) {puck_correct = TRUE;}         
 854:main.c        ****             else 
 855:main.c        ****             {
 856:main.c        ****                 /*
 857:main.c        ****                 // Bring us to the next puck along: 
 858:main.c        ****                 moveSwivel(45, SPEED, TRUE);
 859:main.c        ****                 moveDynamic(-30,SPEED, TRUE);
 860:main.c        ****                 moveSwivel(-30, SPEED, TRUE);
 861:main.c        ****                 */
 862:main.c        ****             }
 863:main.c        ****         }
 864:main.c        **** 
 865:main.c        ****         changeHeightToPuck(GROUND, NEITHER);      // arm lowers to ground
 1219              		.loc 1 865 0
 1220 072c 0221     		movs	r1, #2
 1221 072e 0020     		movs	r0, #0
 1222 0730 FFF7FEFF 		bl	changeHeightToPuck
 1223              	.LVL179:
 866:main.c        ****         //armClose();
 867:main.c        ****         //changeHeightToPuck(1);
 868:main.c        ****         moveUntilPuck(CLAW_GROUND_ALGORITHM);
 1224              		.loc 1 868 0
 1225 0734 0520     		movs	r0, #5
 1226 0736 FFF7FEFF 		bl	moveUntilPuck
 1227              	.LVL180:
 869:main.c        ****         //moveDynamic(60);       // robot moves forward
 870:main.c        ****         armClose();                 // claw closes on puck
 1228              		.loc 1 870 0
 1229 073a FFF7FEFF 		bl	armClose
 1230              	.LVL181:
ARM GAS  C:\Users\Misha\AppData\Local\Temp\cc40ki4b.s 			page 38


 871:main.c        ****         changeHeightToPuck(ABOVE_3_PUCK, CLOSE);      // arm lifts up to highest position
 1231              		.loc 1 871 0
 1232 073e 2946     		mov	r1, r5
 1233 0740 0320     		movs	r0, #3
 1234 0742 FFF7FEFF 		bl	changeHeightToPuck
 1235              	.LVL182:
 872:main.c        ****         moveDynamic(-60, SPEED, TRUE);       // robot moves back away from puck area 
 1236              		.loc 1 872 0
 1237 0746 2A46     		mov	r2, r5
 1238 0748 C821     		movs	r1, #200
 1239 074a 6FF03B00 		mvn	r0, #59
 1240 074e FFF7FEFF 		bl	moveDynamic
 1241              	.LVL183:
 873:main.c        ****         
 874:main.c        ****         
 875:main.c        ****         safety_override = FALSE;        // reactivate safety override
 1242              		.loc 1 875 0
 1243 0752 0023     		movs	r3, #0
 1244 0754 E365     		str	r3, [r4, #92]
 876:main.c        ****     
 877:main.c        ****         state = STATE_RETURN_TO_SOUTH;
 1245              		.loc 1 877 0
 1246 0756 0523     		movs	r3, #5
 1247 0758 6360     		str	r3, [r4, #4]
 1248              	.LVL184:
 1249              	.L35:
 1250              	.LBE10:
 878:main.c        ****    
 879:main.c        ****         }
 880:main.c        ****  
 881:main.c        ****         
 882:main.c        **** //
 883:main.c        **** // *** 5. STATE RETURN TO SOUTH: *** // 
 884:main.c        **** //      
 885:main.c        ****         
 886:main.c        ****         // Assume that we are currently in the north side of the arena facing the pucks.
 887:main.c        ****         // This state will return us to the south side of the block and face east at the east wall.
 888:main.c        ****         if (state == STATE_RETURN_TO_SOUTH){
 1251              		.loc 1 888 0
 1252 075a 494B     		ldr	r3, .L56
 1253 075c 5B68     		ldr	r3, [r3, #4]
 1254 075e 052B     		cmp	r3, #5
 1255 0760 40F0BF80 		bne	.L36
 889:main.c        ****             if (blockEastClearance && puckEastClearance){
 1256              		.loc 1 889 0
 1257 0764 464B     		ldr	r3, .L56
 1258 0766 B3F95020 		ldrsh	r2, [r3, #80]
 1259 076a 5AB3     		cbz	r2, .L37
 1260              		.loc 1 889 0 is_stmt 0 discriminator 1
 1261 076c B3F95430 		ldrsh	r3, [r3, #84]
 1262 0770 43B3     		cbz	r3, .L37
 890:main.c        ****                 
 891:main.c        ****                 moveUntil(CLEARANCE_RADIUS_CENTER_TO_BACK - 190, BACKWARD, LESS_THAN, BACK, SPEED, 
 1263              		.loc 1 891 0 is_stmt 1
 1264 0772 0124     		movs	r4, #1
 1265 0774 0194     		str	r4, [sp, #4]
 1266 0776 C825     		movs	r5, #200
ARM GAS  C:\Users\Misha\AppData\Local\Temp\cc40ki4b.s 			page 39


 1267 0778 0095     		str	r5, [sp]
 1268 077a 0423     		movs	r3, #4
 1269 077c 1A46     		mov	r2, r3
 1270 077e 0021     		movs	r1, #0
 1271 0780 3220     		movs	r0, #50
 1272 0782 FFF7FEFF 		bl	moveUntil
 1273              	.LVL185:
 892:main.c        ****                 // straightAdjust() using back sensor?
 893:main.c        ****                 changeOrientation(NORTH,SPEED);
 1274              		.loc 1 893 0
 1275 0786 2946     		mov	r1, r5
 1276 0788 0020     		movs	r0, #0
 1277 078a FFF7FEFF 		bl	changeOrientation
 1278              	.LVL186:
 894:main.c        ****                 straightAdjust();
 1279              		.loc 1 894 0
 1280 078e FFF7FEFF 		bl	straightAdjust
 1281              	.LVL187:
 895:main.c        ****                 moveUntil(CLEARANCE_RADIUS_CENTER_TO_BACK - 140, BACKWARD, LESS_THAN, BACK, SPEED, 
 1282              		.loc 1 895 0
 1283 0792 0194     		str	r4, [sp, #4]
 1284 0794 0095     		str	r5, [sp]
 1285 0796 0423     		movs	r3, #4
 1286 0798 1A46     		mov	r2, r3
 1287 079a 0021     		movs	r1, #0
 1288 079c 6420     		movs	r0, #100
 1289 079e FFF7FEFF 		bl	moveUntil
 1290              	.LVL188:
 896:main.c        ****                 //straightAdjust();
 897:main.c        ****                 changeOrientation(EAST,SPEED);
 1291              		.loc 1 897 0
 1292 07a2 2946     		mov	r1, r5
 1293 07a4 2046     		mov	r0, r4
 1294 07a6 FFF7FEFF 		bl	changeOrientation
 1295              	.LVL189:
 898:main.c        ****                 straightAdjust();
 1296              		.loc 1 898 0
 1297 07aa FFF7FEFF 		bl	straightAdjust
 1298              	.LVL190:
 899:main.c        ****                 moveUntil(WALL_CLEARANCE_FRONT, FORWARD, LESS_THAN, FRONT_LEFT, SPEED, TRUE);
 1299              		.loc 1 899 0
 1300 07ae 0194     		str	r4, [sp, #4]
 1301 07b0 0095     		str	r5, [sp]
 1302 07b2 0023     		movs	r3, #0
 1303 07b4 0422     		movs	r2, #4
 1304 07b6 2146     		mov	r1, r4
 1305 07b8 AF20     		movs	r0, #175
 1306 07ba FFF7FEFF 		bl	moveUntil
 1307              	.LVL191:
 900:main.c        ****                 straightAdjust();
 1308              		.loc 1 900 0
 1309 07be FFF7FEFF 		bl	straightAdjust
 1310              	.LVL192:
 1311 07c2 8BE0     		b	.L38
 1312              	.L37:
 901:main.c        ****                 
 902:main.c        ****             }
ARM GAS  C:\Users\Misha\AppData\Local\Temp\cc40ki4b.s 			page 40


 903:main.c        ****             
 904:main.c        ****             else if (blockWestClearance && puckWestClearance){
 1313              		.loc 1 904 0
 1314 07c4 2E4B     		ldr	r3, .L56
 1315 07c6 B3F95230 		ldrsh	r3, [r3, #82]
 1316 07ca 63B3     		cbz	r3, .L39
 1317              		.loc 1 904 0 is_stmt 0 discriminator 1
 1318 07cc 2C49     		ldr	r1, .L56
 1319 07ce B1F95610 		ldrsh	r1, [r1, #86]
 1320 07d2 41B3     		cbz	r1, .L39
 905:main.c        ****             
 906:main.c        ****                 moveUntil(CLEARANCE_RADIUS_CENTER_TO_BACK - DISTANCE_BACK_SENSOR_FROM_CENTER, BACKW
 1321              		.loc 1 906 0 is_stmt 1
 1322 07d4 0124     		movs	r4, #1
 1323 07d6 0194     		str	r4, [sp, #4]
 1324 07d8 C825     		movs	r5, #200
 1325 07da 0095     		str	r5, [sp]
 1326 07dc 0423     		movs	r3, #4
 1327 07de 1A46     		mov	r2, r3
 1328 07e0 0021     		movs	r1, #0
 1329 07e2 0A20     		movs	r0, #10
 1330 07e4 FFF7FEFF 		bl	moveUntil
 1331              	.LVL193:
 907:main.c        ****                 // straightAdjust() using back sensor?
 908:main.c        ****                 changeOrientation(NORTH,SPEED);
 1332              		.loc 1 908 0
 1333 07e8 2946     		mov	r1, r5
 1334 07ea 0020     		movs	r0, #0
 1335 07ec FFF7FEFF 		bl	changeOrientation
 1336              	.LVL194:
 909:main.c        ****                 straightAdjust();
 1337              		.loc 1 909 0
 1338 07f0 FFF7FEFF 		bl	straightAdjust
 1339              	.LVL195:
 910:main.c        ****                 moveUntil(CLEARANCE_RADIUS_CENTER_TO_BACK - 140, BACKWARD, LESS_THAN, BACK, SPEED, 
 1340              		.loc 1 910 0
 1341 07f4 0194     		str	r4, [sp, #4]
 1342 07f6 0095     		str	r5, [sp]
 1343 07f8 0423     		movs	r3, #4
 1344 07fa 1A46     		mov	r2, r3
 1345 07fc 0021     		movs	r1, #0
 1346 07fe 6420     		movs	r0, #100
 1347 0800 FFF7FEFF 		bl	moveUntil
 1348              	.LVL196:
 911:main.c        ****                 //straightAdjust();
 912:main.c        ****                 changeOrientation(EAST,SPEED);
 1349              		.loc 1 912 0
 1350 0804 2946     		mov	r1, r5
 1351 0806 2046     		mov	r0, r4
 1352 0808 FFF7FEFF 		bl	changeOrientation
 1353              	.LVL197:
 913:main.c        ****                 straightAdjust();
 1354              		.loc 1 913 0
 1355 080c FFF7FEFF 		bl	straightAdjust
 1356              	.LVL198:
 914:main.c        ****                 moveUntil(WALL_CLEARANCE_FRONT, FORWARD, LESS_THAN, FRONT_LEFT, SPEED, TRUE);
 1357              		.loc 1 914 0
ARM GAS  C:\Users\Misha\AppData\Local\Temp\cc40ki4b.s 			page 41


 1358 0810 0194     		str	r4, [sp, #4]
 1359 0812 0095     		str	r5, [sp]
 1360 0814 0023     		movs	r3, #0
 1361 0816 0422     		movs	r2, #4
 1362 0818 2146     		mov	r1, r4
 1363 081a AF20     		movs	r0, #175
 1364 081c FFF7FEFF 		bl	moveUntil
 1365              	.LVL199:
 915:main.c        ****                 straightAdjust();
 1366              		.loc 1 915 0
 1367 0820 FFF7FEFF 		bl	straightAdjust
 1368              	.LVL200:
 1369 0824 5AE0     		b	.L38
 1370              	.L39:
 916:main.c        ****               
 917:main.c        ****             }
 918:main.c        ****             
 919:main.c        ****             
 920:main.c        ****             else if (blockEastClearance && puckWestClearance){
 1371              		.loc 1 920 0
 1372 0826 6AB3     		cbz	r2, .L40
 1373              		.loc 1 920 0 is_stmt 0 discriminator 1
 1374 0828 154A     		ldr	r2, .L56
 1375 082a B2F95620 		ldrsh	r2, [r2, #86]
 1376 082e 4AB3     		cbz	r2, .L40
 921:main.c        **** 
 922:main.c        ****                 moveUntil(block_and_puck_edge_midpoint - DISTANCE_BACK_SENSOR_FROM_CENTER, BACKWARD
 1377              		.loc 1 922 0 is_stmt 1
 1378 0830 0124     		movs	r4, #1
 1379 0832 0194     		str	r4, [sp, #4]
 1380 0834 C825     		movs	r5, #200
 1381 0836 0095     		str	r5, [sp]
 1382 0838 0423     		movs	r3, #4
 1383 083a 1A46     		mov	r2, r3
 1384 083c 0021     		movs	r1, #0
 1385 083e 6FF0E500 		mvn	r0, #229
 1386 0842 FFF7FEFF 		bl	moveUntil
 1387              	.LVL201:
 923:main.c        ****                 straightAdjust();
 1388              		.loc 1 923 0
 1389 0846 FFF7FEFF 		bl	straightAdjust
 1390              	.LVL202:
 924:main.c        ****                 changeOrientation(NORTH, SPEED);
 1391              		.loc 1 924 0
 1392 084a 2946     		mov	r1, r5
 1393 084c 0020     		movs	r0, #0
 1394 084e FFF7FEFF 		bl	changeOrientation
 1395              	.LVL203:
 925:main.c        ****                 straightAdjust();
 1396              		.loc 1 925 0
 1397 0852 FFF7FEFF 		bl	straightAdjust
 1398              	.LVL204:
 926:main.c        ****                 moveUntil(CLEARANCE_RADIUS_CENTER_TO_FRONT, FORWARD, LESS_THAN, FRONT_LEFT, SPEED, 
 1399              		.loc 1 926 0
 1400 0856 0194     		str	r4, [sp, #4]
 1401 0858 0095     		str	r5, [sp]
 1402 085a 0023     		movs	r3, #0
ARM GAS  C:\Users\Misha\AppData\Local\Temp\cc40ki4b.s 			page 42


 1403 085c 0422     		movs	r2, #4
 1404 085e 2146     		mov	r1, r4
 1405 0860 8220     		movs	r0, #130
 1406 0862 FFF7FEFF 		bl	moveUntil
 1407              	.LVL205:
 927:main.c        ****                 //displaceLeft(); Repeatedly call this if below function not implemented
 928:main.c        ****                 //displaceLeftUntil(CLEARANCE_RADIUS_CENTER_TO_BACK,RIGHT);
 929:main.c        ****                 changeOrientation(EAST, SPEED);
 1408              		.loc 1 929 0
 1409 0866 2946     		mov	r1, r5
 1410 0868 2046     		mov	r0, r4
 1411 086a FFF7FEFF 		bl	changeOrientation
 1412              	.LVL206:
 930:main.c        ****                 //displaceLeft();
 931:main.c        ****                 //displaceLeftUntil(DISTANCE_PUCKS_FROM_NORTH + WIDTH_SENSOR_TO_CENTER ,RIGHT);
 932:main.c        ****                 moveUntil(DISTANCE_STOPPED_FROM_PUCK, FORWARD, LESS_THAN, FRONT_LEFT, SPEED, TRUE);
 1413              		.loc 1 932 0
 1414 086e 0194     		str	r4, [sp, #4]
 1415 0870 0095     		str	r5, [sp]
 1416 0872 0023     		movs	r3, #0
 1417 0874 0422     		movs	r2, #4
 1418 0876 2146     		mov	r1, r4
 1419 0878 3220     		movs	r0, #50
 1420 087a FFF7FEFF 		bl	moveUntil
 1421              	.LVL207:
 1422 087e 2DE0     		b	.L38
 1423              	.L57:
 1424              		.align	2
 1425              	.L56:
 1426 0880 00000000 		.word	.LANCHOR0
 1427              	.L40:
 933:main.c        ****                 
 934:main.c        ****             }
 935:main.c        ****             
 936:main.c        ****             else if (blockWestClearance && puckEastClearance){
 1428              		.loc 1 936 0
 1429 0884 53B3     		cbz	r3, .L38
 1430              		.loc 1 936 0 is_stmt 0 discriminator 1
 1431 0886 8B4B     		ldr	r3, .L58
 1432 0888 B3F95430 		ldrsh	r3, [r3, #84]
 1433 088c 33B3     		cbz	r3, .L38
 937:main.c        ****                 
 938:main.c        ****                 moveUntil(block_and_puck_edge_midpoint - DISTANCE_BACK_SENSOR_FROM_CENTER, BACKWARD
 1434              		.loc 1 938 0 is_stmt 1
 1435 088e 0124     		movs	r4, #1
 1436 0890 0194     		str	r4, [sp, #4]
 1437 0892 C825     		movs	r5, #200
 1438 0894 0095     		str	r5, [sp]
 1439 0896 0423     		movs	r3, #4
 1440 0898 1A46     		mov	r2, r3
 1441 089a 0021     		movs	r1, #0
 1442 089c 6FF0E500 		mvn	r0, #229
 1443 08a0 FFF7FEFF 		bl	moveUntil
 1444              	.LVL208:
 939:main.c        ****                 straightAdjust();
 1445              		.loc 1 939 0
 1446 08a4 FFF7FEFF 		bl	straightAdjust
ARM GAS  C:\Users\Misha\AppData\Local\Temp\cc40ki4b.s 			page 43


 1447              	.LVL209:
 940:main.c        ****                 changeOrientation(NORTH, SPEED);
 1448              		.loc 1 940 0
 1449 08a8 2946     		mov	r1, r5
 1450 08aa 0020     		movs	r0, #0
 1451 08ac FFF7FEFF 		bl	changeOrientation
 1452              	.LVL210:
 941:main.c        ****                 straightAdjust();
 1453              		.loc 1 941 0
 1454 08b0 FFF7FEFF 		bl	straightAdjust
 1455              	.LVL211:
 942:main.c        ****                 moveUntil(CLEARANCE_RADIUS_CENTER_TO_FRONT, FORWARD, LESS_THAN, FRONT_LEFT, SPEED, 
 1456              		.loc 1 942 0
 1457 08b4 0194     		str	r4, [sp, #4]
 1458 08b6 0095     		str	r5, [sp]
 1459 08b8 0023     		movs	r3, #0
 1460 08ba 0422     		movs	r2, #4
 1461 08bc 2146     		mov	r1, r4
 1462 08be 8220     		movs	r0, #130
 1463 08c0 FFF7FEFF 		bl	moveUntil
 1464              	.LVL212:
 943:main.c        ****                 //displaceLeft(); Repeatedly call this if below function not implemented
 944:main.c        ****                 //displaceLeftUntil(CLEARANCE_RADIUS_CENTER_TO_BACK,RIGHT);
 945:main.c        ****                 changeOrientation(WEST, SPEED);
 1465              		.loc 1 945 0
 1466 08c4 2946     		mov	r1, r5
 1467 08c6 0320     		movs	r0, #3
 1468 08c8 FFF7FEFF 		bl	changeOrientation
 1469              	.LVL213:
 946:main.c        ****                 //displaceLeft();
 947:main.c        ****                 //displaceLeftUntil(DISTANCE_PUCKS_FROM_NORTH + WIDTH_SENSOR_TO_CENTER ,RIGHT);
 948:main.c        ****                 moveUntil(DISTANCE_STOPPED_FROM_PUCK, FORWARD, LESS_THAN, FRONT_LEFT, SPEED, TRUE);
 1470              		.loc 1 948 0
 1471 08cc 0194     		str	r4, [sp, #4]
 1472 08ce 0095     		str	r5, [sp]
 1473 08d0 0023     		movs	r3, #0
 1474 08d2 0422     		movs	r2, #4
 1475 08d4 2146     		mov	r1, r4
 1476 08d6 3220     		movs	r0, #50
 1477 08d8 FFF7FEFF 		bl	moveUntil
 1478              	.LVL214:
 1479              	.L38:
 949:main.c        ****                 
 950:main.c        ****             }   
 951:main.c        ****             
 952:main.c        ****             state = STATE_DEPOSIT_PUCK;
 1480              		.loc 1 952 0
 1481 08dc 0622     		movs	r2, #6
 1482 08de 754B     		ldr	r3, .L58
 1483 08e0 5A60     		str	r2, [r3, #4]
 1484              	.L36:
 953:main.c        ****         }
 954:main.c        ****         
 955:main.c        **** //        
 956:main.c        **** // *** 6. STATE DEPOSIT PUCK: *** // 
 957:main.c        **** //
 958:main.c        ****         
ARM GAS  C:\Users\Misha\AppData\Local\Temp\cc40ki4b.s 			page 44


 959:main.c        ****         // We choose where we put the puck. Depending if its needed now, later or never.
 960:main.c        ****         if (state == STATE_DEPOSIT_PUCK){
 1485              		.loc 1 960 0
 1486 08e2 744B     		ldr	r3, .L58
 1487 08e4 5B68     		ldr	r3, [r3, #4]
 1488 08e6 062B     		cmp	r3, #6
 1489 08e8 40F0B480 		bne	.L41
 1490              	.LBB11:
 961:main.c        ****                 
 962:main.c        ****             
 963:main.c        ****             // Temp grab puck
 964:main.c        ****             control_photodiode_Write(CLAW_SENSING);    // changes to claw photodiode
 1491              		.loc 1 964 0
 1492 08ec 0120     		movs	r0, #1
 1493 08ee FFF7FEFF 		bl	control_photodiode_Write
 1494              	.LVL215:
 965:main.c        ****             colour_sensing_algorithm = CLAW_GROUND_ALGORITHM;   // changes it to claw algorithm
 1495              		.loc 1 965 0
 1496 08f2 704C     		ldr	r4, .L58
 1497 08f4 0523     		movs	r3, #5
 1498 08f6 E360     		str	r3, [r4, #12]
 966:main.c        ****             
 967:main.c        ****             /*
 968:main.c        ****             armOpen();
 969:main.c        ****             colourSensingInitialise();
 970:main.c        ****             CyDelay(2000);
 971:main.c        ****             armClose();
 972:main.c        ****             */
 973:main.c        ****             
 974:main.c        ****             
 975:main.c        ****             
 976:main.c        ****             int heldColour = colourSensingOutput();
 1499              		.loc 1 976 0
 1500 08f8 FFF7FEFF 		bl	colourSensingOutput
 1501              	.LVL216:
 977:main.c        ****             //blinkLED(heldColour,500);
 978:main.c        ****             
 979:main.c        ****             
 980:main.c        ****             // TO DELETE
 981:main.c        ****             heldColour = current_stage; // temp checking it can stack with a fixed rgb order for si
 1502              		.loc 1 981 0
 1503 08fc 6E4B     		ldr	r3, .L58+4
 1504 08fe 1B68     		ldr	r3, [r3]
 1505              	.LVL217:
 982:main.c        ****             
 983:main.c        ****             
 984:main.c        ****             if (heldColour == puckConstructionPlan[currentPuckStackSize] ) { // The currently held 
 1506              		.loc 1 984 0
 1507 0900 A26D     		ldr	r2, [r4, #88]
 1508 0902 04EB8204 		add	r4, r4, r2, lsl #2
 1509 0906 2269     		ldr	r2, [r4, #16]
 1510 0908 9342     		cmp	r3, r2
 1511 090a 1DD1     		bne	.L42
 985:main.c        ****                 moveUntil(HOME_MIDPOINT - DISTANCE_FRONT_SENSOR_FROM_CENTER, BACKWARD, GREATER_THAN
 1512              		.loc 1 985 0
 1513 090c 0125     		movs	r5, #1
 1514 090e 0195     		str	r5, [sp, #4]
ARM GAS  C:\Users\Misha\AppData\Local\Temp\cc40ki4b.s 			page 45


 1515 0910 C824     		movs	r4, #200
 1516 0912 0094     		str	r4, [sp]
 1517 0914 0023     		movs	r3, #0
 1518              	.LVL218:
 1519 0916 0522     		movs	r2, #5
 1520 0918 1946     		mov	r1, r3
 1521 091a 40F22620 		movw	r0, #550
 1522 091e FFF7FEFF 		bl	moveUntil
 1523              	.LVL219:
 986:main.c        ****                 changeOrientation(NORTH,SPEED);
 1524              		.loc 1 986 0
 1525 0922 2146     		mov	r1, r4
 1526 0924 0020     		movs	r0, #0
 1527 0926 FFF7FEFF 		bl	changeOrientation
 1528              	.LVL220:
 987:main.c        ****                 changeOrientation(WEST,SPEED);
 1529              		.loc 1 987 0
 1530 092a 2146     		mov	r1, r4
 1531 092c 0320     		movs	r0, #3
 1532 092e FFF7FEFF 		bl	changeOrientation
 1533              	.LVL221:
 988:main.c        ****                 moveUntil(CONSTRUCTION_MIDPOINT - DISTANCE_FRONT_SENSOR_FROM_CENTER - 30, FORWARD, 
 1534              		.loc 1 988 0
 1535 0932 0195     		str	r5, [sp, #4]
 1536 0934 0094     		str	r4, [sp]
 1537 0936 0023     		movs	r3, #0
 1538 0938 0422     		movs	r2, #4
 1539 093a 2946     		mov	r1, r5
 1540 093c AA20     		movs	r0, #170
 1541 093e FFF7FEFF 		bl	moveUntil
 1542              	.LVL222:
 989:main.c        ****                 straightAdjust();
 1543              		.loc 1 989 0
 1544 0942 FFF7FEFF 		bl	straightAdjust
 1545              	.LVL223:
 1546 0946 1FE0     		b	.L43
 1547              	.LVL224:
 1548              	.L42:
 990:main.c        ****                 /*
 991:main.c        ****                 changeOrientation(SOUTH, SPEED);
 992:main.c        ****                 straightAdjust();
 993:main.c        ****                 moveUntil(CONSTRUCTION_MIDPOINT - DISTANCE_FRONT_SENSOR_FROM_CENTER, FORWARD, LESS_
 994:main.c        ****                 straightAdjust();
 995:main.c        ****                 */
 996:main.c        ****                 
 997:main.c        ****             }
 998:main.c        ****             else if ( heldColour == puckConstructionPlan[1] || heldColour == puckConstructionPlan[2
 1549              		.loc 1 998 0
 1550 0948 5A4A     		ldr	r2, .L58
 1551 094a 5269     		ldr	r2, [r2, #20]
 1552 094c 9342     		cmp	r3, r2
 1553 094e 03D0     		beq	.L44
 1554              		.loc 1 998 0 is_stmt 0 discriminator 1
 1555 0950 584A     		ldr	r2, .L58
 1556 0952 9269     		ldr	r2, [r2, #24]
 1557 0954 9342     		cmp	r3, r2
 1558 0956 0DD1     		bne	.L45
ARM GAS  C:\Users\Misha\AppData\Local\Temp\cc40ki4b.s 			page 46


 1559              	.L44:
 999:main.c        ****                 moveUntil(ARENA_WIDTH - FIRST_TEMP_DROPOFF + DISTANCE_FRONT_SENSOR_FROM_CENTER, BAC
 1560              		.loc 1 999 0 is_stmt 1
 1561 0958 0123     		movs	r3, #1
 1562              	.LVL225:
 1563 095a 0193     		str	r3, [sp, #4]
 1564 095c C823     		movs	r3, #200
 1565 095e 0093     		str	r3, [sp]
 1566 0960 0023     		movs	r3, #0
 1567 0962 0522     		movs	r2, #5
 1568 0964 1946     		mov	r1, r3
 1569 0966 40F20D20 		movw	r0, #525
 1570 096a FFF7FEFF 		bl	moveUntil
 1571              	.LVL226:
1000:main.c        ****                 straightAdjust();
 1572              		.loc 1 1000 0
 1573 096e FFF7FEFF 		bl	straightAdjust
 1574              	.LVL227:
 1575 0972 09E0     		b	.L43
 1576              	.LVL228:
 1577              	.L45:
1001:main.c        ****             }
1002:main.c        ****             
1003:main.c        ****             else {
1004:main.c        ****                 moveUntil(ARENA_WIDTH-FIRST_DISCARD_ZONE + DISTANCE_FRONT_SENSOR_FROM_CENTER, BACKW
 1578              		.loc 1 1004 0
 1579 0974 0123     		movs	r3, #1
 1580              	.LVL229:
 1581 0976 0193     		str	r3, [sp, #4]
 1582 0978 C823     		movs	r3, #200
 1583 097a 0093     		str	r3, [sp]
 1584 097c 0023     		movs	r3, #0
 1585 097e 0522     		movs	r2, #5
 1586 0980 1946     		mov	r1, r3
 1587 0982 FA20     		movs	r0, #250
 1588 0984 FFF7FEFF 		bl	moveUntil
 1589              	.LVL230:
 1590              	.L43:
1005:main.c        ****             } // Discard the puck so drop it in rubbish pile
1006:main.c        **** 
1007:main.c        ****             changeOrientation(SOUTH,SPEED);    
 1591              		.loc 1 1007 0
 1592 0988 C821     		movs	r1, #200
 1593 098a 0220     		movs	r0, #2
 1594 098c FFF7FEFF 		bl	changeOrientation
 1595              	.LVL231:
1008:main.c        ****             changeHeightToPuck(ABOVE_3_PUCK, CLOSE); // Lift claw above stack to avoid hitting the 
 1596              		.loc 1 1008 0
 1597 0990 0121     		movs	r1, #1
 1598 0992 0320     		movs	r0, #3
 1599 0994 FFF7FEFF 		bl	changeHeightToPuck
 1600              	.LVL232:
1009:main.c        ****             
1010:main.c        ****             if (currentPuckStackSize == 0){
 1601              		.loc 1 1010 0
 1602 0998 464B     		ldr	r3, .L58
 1603 099a 9B6D     		ldr	r3, [r3, #88]
ARM GAS  C:\Users\Misha\AppData\Local\Temp\cc40ki4b.s 			page 47


 1604 099c 5BB9     		cbnz	r3, .L46
1011:main.c        ****                 straightAdjust();
 1605              		.loc 1 1011 0
 1606 099e FFF7FEFF 		bl	straightAdjust
 1607              	.LVL233:
1012:main.c        ****                 moveUntil(CONSTRUCTION_DISTANCE_FROM_WALL, FORWARD, LESS_THAN, FRONT_LEFT, SPEED,TR
 1608              		.loc 1 1012 0
 1609 09a2 0121     		movs	r1, #1
 1610 09a4 0191     		str	r1, [sp, #4]
 1611 09a6 C823     		movs	r3, #200
 1612 09a8 0093     		str	r3, [sp]
 1613 09aa 0023     		movs	r3, #0
 1614 09ac 0422     		movs	r2, #4
 1615 09ae 8220     		movs	r0, #130
 1616 09b0 FFF7FEFF 		bl	moveUntil
 1617              	.LVL234:
 1618 09b4 09E0     		b	.L47
 1619              	.L46:
1013:main.c        ****                
1014:main.c        ****             }
1015:main.c        ****             else {
1016:main.c        ****                 moveUntil(DISTANCE_BEFORE_STACK_MIDDLE_SENSOR, FORWARD, LESS_THAN, FRONT_MIDDLE, SP
 1620              		.loc 1 1016 0
 1621 09b6 0023     		movs	r3, #0
 1622 09b8 0193     		str	r3, [sp, #4]
 1623 09ba 4623     		movs	r3, #70
 1624 09bc 0093     		str	r3, [sp]
 1625 09be 0523     		movs	r3, #5
 1626 09c0 0422     		movs	r2, #4
 1627 09c2 0121     		movs	r1, #1
 1628 09c4 5F20     		movs	r0, #95
 1629 09c6 FFF7FEFF 		bl	moveUntil
 1630              	.LVL235:
 1631              	.L47:
1017:main.c        ****                 //moveDynamic(140, SPEED, FALSE);            
1018:main.c        ****             }
1019:main.c        ****             
1020:main.c        ****             //moveDynamic(CONSTRUCTION_DISTANCE_CLEAR_FROM_STACK - CONSTRUCTION_DISTANCE_FROM_WALL,
1021:main.c        ****             
1022:main.c        ****             changeHeightToPuck(currentPuckStackSize, OPEN);
 1632              		.loc 1 1022 0
 1633 09ca 0021     		movs	r1, #0
 1634 09cc 394B     		ldr	r3, .L58
 1635 09ce 986D     		ldr	r0, [r3, #88]
 1636 09d0 FFF7FEFF 		bl	changeHeightToPuck
 1637              	.LVL236:
1023:main.c        ****             //else {changeHeightToPuck(0, NEITHER);}
1024:main.c        ****             //armOpen();
1025:main.c        ****             changeHeightToPuck(ABOVE_3_PUCK, OPEN); // Move higher than stack to avoid hitting it.
 1638              		.loc 1 1025 0
 1639 09d4 0021     		movs	r1, #0
 1640 09d6 0320     		movs	r0, #3
 1641 09d8 FFF7FEFF 		bl	changeHeightToPuck
 1642              	.LVL237:
1026:main.c        ****             
1027:main.c        **** 
1028:main.c        ****             if (current_stage >= 3){state = STATE_PARK_HOME;}        // Returns to home 
ARM GAS  C:\Users\Misha\AppData\Local\Temp\cc40ki4b.s 			page 48


 1643              		.loc 1 1028 0
 1644 09dc 364B     		ldr	r3, .L58+4
 1645 09de 1B68     		ldr	r3, [r3]
 1646 09e0 022B     		cmp	r3, #2
 1647 09e2 03DD     		ble	.L48
 1648              		.loc 1 1028 0 is_stmt 0 discriminator 1
 1649 09e4 0722     		movs	r2, #7
 1650 09e6 334B     		ldr	r3, .L58
 1651 09e8 5A60     		str	r2, [r3, #4]
 1652 09ea 33E0     		b	.L41
 1653              	.L48:
1029:main.c        ****             else {current_stage++; currentPuckStackSize++;
 1654              		.loc 1 1029 0 is_stmt 1
 1655 09ec 0133     		adds	r3, r3, #1
 1656 09ee 324A     		ldr	r2, .L58+4
 1657 09f0 1360     		str	r3, [r2]
 1658 09f2 304E     		ldr	r6, .L58
 1659 09f4 B36D     		ldr	r3, [r6, #88]
 1660 09f6 0133     		adds	r3, r3, #1
 1661 09f8 B365     		str	r3, [r6, #88]
1030:main.c        ****             // Need to go back to the east wall facing east.
1031:main.c        ****                 //moveUntil(CONSTRUCTION_DISTANCE_CLEAR_FROM_STACK, BACKWARD, GREATER_THAN, FRONT_L
1032:main.c        ****                 moveDynamic(-150,SPEED,TRUE);
 1662              		.loc 1 1032 0
 1663 09fa 0122     		movs	r2, #1
 1664 09fc C821     		movs	r1, #200
 1665 09fe 6FF09500 		mvn	r0, #149
 1666 0a02 FFF7FEFF 		bl	moveDynamic
 1667              	.LVL238:
1033:main.c        ****                 changeOrientation(WEST,SPEED);
 1668              		.loc 1 1033 0
 1669 0a06 C821     		movs	r1, #200
 1670 0a08 0320     		movs	r0, #3
 1671 0a0a FFF7FEFF 		bl	changeOrientation
 1672              	.LVL239:
1034:main.c        ****                 straightAdjust();
 1673              		.loc 1 1034 0
 1674 0a0e FFF7FEFF 		bl	straightAdjust
 1675              	.LVL240:
1035:main.c        ****                 moveUntil(HOME_MIDPOINT - DISTANCE_FRONT_SENSOR_FROM_CENTER, BACKWARD, GREATER_THAN
 1676              		.loc 1 1035 0
 1677 0a12 0124     		movs	r4, #1
 1678 0a14 0194     		str	r4, [sp, #4]
 1679 0a16 C825     		movs	r5, #200
 1680 0a18 0095     		str	r5, [sp]
 1681 0a1a 0023     		movs	r3, #0
 1682 0a1c 0522     		movs	r2, #5
 1683 0a1e 1946     		mov	r1, r3
 1684 0a20 40F22620 		movw	r0, #550
 1685 0a24 FFF7FEFF 		bl	moveUntil
 1686              	.LVL241:
1036:main.c        ****                 straightAdjust();
 1687              		.loc 1 1036 0
 1688 0a28 FFF7FEFF 		bl	straightAdjust
 1689              	.LVL242:
1037:main.c        ****                 changeOrientation(SOUTH,SPEED);
 1690              		.loc 1 1037 0
ARM GAS  C:\Users\Misha\AppData\Local\Temp\cc40ki4b.s 			page 49


 1691 0a2c 2946     		mov	r1, r5
 1692 0a2e 0220     		movs	r0, #2
 1693 0a30 FFF7FEFF 		bl	changeOrientation
 1694              	.LVL243:
1038:main.c        ****                 changeOrientation(EAST,SPEED);
 1695              		.loc 1 1038 0
 1696 0a34 2946     		mov	r1, r5
 1697 0a36 2046     		mov	r0, r4
 1698 0a38 FFF7FEFF 		bl	changeOrientation
 1699              	.LVL244:
1039:main.c        ****                 moveUntil(DISTANCE_FRONT_SENSOR_FROM_CENTER + SAFETY_MARGIN + 50, FORWARD, LESS_THA
 1700              		.loc 1 1039 0
 1701 0a3c 0194     		str	r4, [sp, #4]
 1702 0a3e 0095     		str	r5, [sp]
 1703 0a40 0023     		movs	r3, #0
 1704 0a42 0422     		movs	r2, #4
 1705 0a44 2146     		mov	r1, r4
 1706 0a46 B920     		movs	r0, #185
 1707 0a48 FFF7FEFF 		bl	moveUntil
 1708              	.LVL245:
1040:main.c        ****                 straightAdjust();
 1709              		.loc 1 1040 0
 1710 0a4c FFF7FEFF 		bl	straightAdjust
 1711              	.LVL246:
1041:main.c        ****                 
1042:main.c        ****                 
1043:main.c        ****                 //Usually we will check if the next colour we need is in home base already
1044:main.c        ****                 //
1045:main.c        ****                 // If in east edge of home base
1046:main.c        ****                 if ( puckConstructionPlan[currentPuckStackSize] == puckColoursTempPile[0]){
1047:main.c        ****                     
1048:main.c        ****                 }
1049:main.c        ****                 //If in west edge of home base
1050:main.c        ****                 else if(puckConstructionPlan[currentPuckStackSize] == puckColoursTempPile[1]){
1051:main.c        ****                          
1052:main.c        ****                 }
1053:main.c        ****                 
1054:main.c        ****                 state = STATE_GO_TO_PUCKS; // Go grab the next puck from the pile since it isn't in
 1712              		.loc 1 1054 0
 1713 0a50 0323     		movs	r3, #3
 1714 0a52 7360     		str	r3, [r6, #4]
 1715              	.L41:
 1716              	.LBE11:
1055:main.c        ****             }
1056:main.c        ****             
1057:main.c        ****             
1058:main.c        **** 
1059:main.c        ****         }
1060:main.c        ****  
1061:main.c        **** //        
1062:main.c        **** // *** 7. STATE PARK HOME: *** // 
1063:main.c        **** //        
1064:main.c        ****         
1065:main.c        ****         if (state == STATE_PARK_HOME){
 1717              		.loc 1 1065 0
 1718 0a54 174B     		ldr	r3, .L58
 1719 0a56 5B68     		ldr	r3, [r3, #4]
ARM GAS  C:\Users\Misha\AppData\Local\Temp\cc40ki4b.s 			page 50


 1720 0a58 072B     		cmp	r3, #7
 1721 0a5a 7FF451AB 		bne	.L49
1066:main.c        ****             
1067:main.c        ****             // When we enter this state we can assume that we have just deposited the final puck on
1068:main.c        ****             // Thus we are facing the stack.
1069:main.c        ****             
1070:main.c        ****             
1071:main.c        ****             moveUntil(CONSTRUCTION_DISTANCE_CLEAR_FROM_STACK, BACKWARD, GREATER_THAN, FRONT_LEFT, S
 1722              		.loc 1 1071 0
 1723 0a5e 0024     		movs	r4, #0
 1724 0a60 0194     		str	r4, [sp, #4]
 1725 0a62 C825     		movs	r5, #200
 1726 0a64 0095     		str	r5, [sp]
 1727 0a66 2346     		mov	r3, r4
 1728 0a68 0522     		movs	r2, #5
 1729 0a6a 2146     		mov	r1, r4
 1730 0a6c D220     		movs	r0, #210
 1731 0a6e FFF7FEFF 		bl	moveUntil
 1732              	.LVL247:
1072:main.c        ****             changeOrientation(WEST,SPEED);
 1733              		.loc 1 1072 0
 1734 0a72 2946     		mov	r1, r5
 1735 0a74 0320     		movs	r0, #3
 1736 0a76 FFF7FEFF 		bl	changeOrientation
 1737              	.LVL248:
1073:main.c        ****             straightAdjust();
 1738              		.loc 1 1073 0
 1739 0a7a FFF7FEFF 		bl	straightAdjust
 1740              	.LVL249:
1074:main.c        ****             moveUntil(HOME_MIDPOINT - DISTANCE_FRONT_SENSOR_FROM_CENTER - 45 , BACKWARD, GREATER_TH
 1741              		.loc 1 1074 0
 1742 0a7e 0126     		movs	r6, #1
 1743 0a80 0196     		str	r6, [sp, #4]
 1744 0a82 0095     		str	r5, [sp]
 1745 0a84 3346     		mov	r3, r6
 1746 0a86 0522     		movs	r2, #5
 1747 0a88 2146     		mov	r1, r4
 1748 0a8a 40F2F910 		movw	r0, #505
 1749 0a8e FFF7FEFF 		bl	moveUntil
 1750              	.LVL250:
1075:main.c        ****             changeOrientation(NORTH,SPEED);
 1751              		.loc 1 1075 0
 1752 0a92 2946     		mov	r1, r5
 1753 0a94 2046     		mov	r0, r4
 1754 0a96 FFF7FEFF 		bl	changeOrientation
 1755              	.LVL251:
1076:main.c        ****             moveUntil(HOME_PARKING_DISTANCE , BACKWARD, LESS_THAN, BACK, SPEED, TRUE);
 1756              		.loc 1 1076 0
 1757 0a9a 0196     		str	r6, [sp, #4]
 1758 0a9c 0095     		str	r5, [sp]
 1759 0a9e 0423     		movs	r3, #4
 1760 0aa0 1A46     		mov	r2, r3
 1761 0aa2 2146     		mov	r1, r4
 1762 0aa4 2820     		movs	r0, #40
 1763 0aa6 FFF7FEFF 		bl	moveUntil
 1764              	.LVL252:
1077:main.c        **** 
ARM GAS  C:\Users\Misha\AppData\Local\Temp\cc40ki4b.s 			page 51


1078:main.c        ****             // END Congratulations:
1079:main.c        ****             changeHeightToPuck(GROUND, NEITHER);
 1765              		.loc 1 1079 0
 1766 0aaa 0221     		movs	r1, #2
 1767 0aac 2046     		mov	r0, r4
 1768 0aae FFF7FEFF 		bl	changeHeightToPuck
 1769              	.LVL253:
 1770              	.L50:
 1771 0ab2 FEE7     		b	.L50
 1772              	.L59:
 1773              		.align	2
 1774              	.L58:
 1775 0ab4 00000000 		.word	.LANCHOR0
 1776 0ab8 00000000 		.word	.LANCHOR1
 1777              		.cfi_endproc
 1778              	.LFE66:
 1779              		.size	main, .-main
 1780              		.comm	distance_returned_global,4,4
 1781              		.global	current_stage
 1782              		.global	PLAN_SCAN_VERTICAL
 1783              		.global	moving
 1784              		.global	colour_sensing_algorithm
 1785              		.global	colour_flag
 1786              		.global	idac_value
 1787              		.global	puckWestClearance
 1788              		.global	puckEastClearance
 1789              		.global	blockWestClearance
 1790              		.global	blockEastClearance
 1791              		.global	safety_override
 1792              		.global	puck_location
 1793              		.global	block_location
 1794              		.comm	pathPastBlock,4,4
 1795              		.comm	pathToPucks,4,4
 1796              		.global	beginNavigation
 1797              		.global	horizontalPuckGrid
 1798              		.global	puckColoursTempPile
 1799              		.global	puckConstructionPlan
 1800              		.global	currentPuckStackSize
 1801              		.global	running
 1802              		.global	state
 1803              		.comm	ultrasonic_flag,4,4
 1804              		.comm	initialisation,4,4
 1805              		.comm	output,32,4
 1806              		.comm	turningRightFlag,2,2
 1807              		.comm	turningLeftFlag,2,2
 1808              		.comm	drivingBackwardFlag,2,2
 1809              		.comm	drivingForwardFlag,2,2
 1810              		.comm	puckPileLocation,4,4
 1811              		.global	block_edge_location
 1812              		.global	sweeping
 1813              		.global	puckRackOffsetsFromWest
 1814              		.global	puckRackColours
 1815              		.global	currentPuckRackScanningIndex
 1816              		.comm	driveStraightEnable,4,4
 1817              		.comm	internal_orientation,4,4
 1818              		.section	.rodata
 1819              		.align	2
ARM GAS  C:\Users\Misha\AppData\Local\Temp\cc40ki4b.s 			page 52


 1820              		.type	PLAN_SCAN_VERTICAL, %object
 1821              		.size	PLAN_SCAN_VERTICAL, 4
 1822              	PLAN_SCAN_VERTICAL:
 1823 0000 0A000000 		.word	10
 1824              		.data
 1825              		.align	2
 1826              		.set	.LANCHOR1,. + 0
 1827              		.type	current_stage, %object
 1828              		.size	current_stage, 4
 1829              	current_stage:
 1830 0000 01000000 		.word	1
 1831              		.type	colour_flag, %object
 1832              		.size	colour_flag, 4
 1833              	colour_flag:
 1834 0004 01000000 		.word	1
 1835              		.type	running, %object
 1836              		.size	running, 4
 1837              	running:
 1838 0008 01000000 		.word	1
 1839              		.type	puckRackOffsetsFromWest, %object
 1840              		.size	puckRackOffsetsFromWest, 20
 1841              	puckRackOffsetsFromWest:
 1842 000c D0020000 		.word	720
 1843 0010 94020000 		.word	660
 1844 0014 58020000 		.word	600
 1845 0018 1C020000 		.word	540
 1846 001c E0010000 		.word	480
 1847              		.section	.rodata.str1.4,"aMS",%progbits,1
 1848              		.align	2
 1849              	.LC0:
 1850 0000 42656769 		.ascii	"Beginning Navigation \012\000"
 1850      6E6E696E 
 1850      67204E61 
 1850      76696761 
 1850      74696F6E 
 1851 0017 00       		.space	1
 1852              	.LC1:
 1853 0018 55415254 		.ascii	"UART commencing... \012\000"
 1853      20636F6D 
 1853      6D656E63 
 1853      696E672E 
 1853      2E2E200A 
 1854 002d 000000   		.space	3
 1855              	.LC2:
 1856 0030 556C7472 		.ascii	"Ultrasonic Calibration tests: \012\000"
 1856      61736F6E 
 1856      69632043 
 1856      616C6962 
 1856      72617469 
 1857              	.LC3:
 1858 0050 466F756E 		.ascii	"Found Colours: \012\000"
 1858      6420436F 
 1858      6C6F7572 
 1858      733A200A 
 1858      00
 1859 0061 000000   		.space	3
 1860              	.LC4:
ARM GAS  C:\Users\Misha\AppData\Local\Temp\cc40ki4b.s 			page 53


 1861 0064 2569200A 		.ascii	"%i \012\000"
 1861      00
 1862 0069 000000   		.space	3
 1863              	.LC5:
 1864 006c 64697374 		.ascii	"distance from robot to block: %d \011\000"
 1864      616E6365 
 1864      2066726F 
 1864      6D20726F 
 1864      626F7420 
 1865 008f 00       		.space	1
 1866              	.LC6:
 1867 0090 6E6F7274 		.ascii	"north: %d, \012\000"
 1867      683A2025 
 1867      642C200A 
 1867      00
 1868 009d 000000   		.space	3
 1869              	.LC7:
 1870 00a0 65617374 		.ascii	"east: %d, \012\000"
 1870      3A202564 
 1870      2C200A00 
 1871              	.LC8:
 1872 00ac 736F7574 		.ascii	"south: %d, \012\000"
 1872      683A2025 
 1872      642C200A 
 1872      00
 1873 00b9 000000   		.space	3
 1874              	.LC9:
 1875 00bc 77657374 		.ascii	"west: %d, \012\000"
 1875      3A202564 
 1875      2C200A00 
 1876              	.LC10:
 1877 00c8 25642009 		.ascii	"%d \011\000"
 1877      00
 1878 00cd 000000   		.space	3
 1879              	.LC11:
 1880 00d0 7075636B 		.ascii	"puck check: %d, \012\000"
 1880      20636865 
 1880      636B3A20 
 1880      25642C20 
 1880      0A00
 1881 00e2 0000     		.space	2
 1882              	.LC12:
 1883 00e4 65617374 		.ascii	"east puck: %d, \012\000"
 1883      20707563 
 1883      6B3A2025 
 1883      642C200A 
 1883      00
 1884 00f5 000000   		.space	3
 1885              	.LC13:
 1886 00f8 77657374 		.ascii	"west puck: %d, \012\000"
 1886      20707563 
 1886      6B3A2025 
 1886      642C200A 
 1886      00
 1887 0109 000000   		.space	3
 1888              	.LC14:
 1889 010c 65617374 		.ascii	"east block: %d, \012\000"
ARM GAS  C:\Users\Misha\AppData\Local\Temp\cc40ki4b.s 			page 54


 1889      20626C6F 
 1889      636B3A20 
 1889      25642C20 
 1889      0A00
 1890 011e 0000     		.space	2
 1891              	.LC15:
 1892 0120 77657374 		.ascii	"west block: %d, \012\000"
 1892      20626C6F 
 1892      636B3A20 
 1892      25642C20 
 1892      0A00
 1893              		.bss
 1894              		.align	2
 1895              		.set	.LANCHOR0,. + 0
 1896              		.type	beginNavigation, %object
 1897              		.size	beginNavigation, 4
 1898              	beginNavigation:
 1899 0000 00000000 		.space	4
 1900              		.type	state, %object
 1901              		.size	state, 4
 1902              	state:
 1903 0004 00000000 		.space	4
 1904              		.type	idac_value, %object
 1905              		.size	idac_value, 4
 1906              	idac_value:
 1907 0008 00000000 		.space	4
 1908              		.type	colour_sensing_algorithm, %object
 1909              		.size	colour_sensing_algorithm, 4
 1910              	colour_sensing_algorithm:
 1911 000c 00000000 		.space	4
 1912              		.type	puckConstructionPlan, %object
 1913              		.size	puckConstructionPlan, 12
 1914              	puckConstructionPlan:
 1915 0010 00000000 		.space	12
 1915      00000000 
 1915      00000000 
 1916              		.type	puckRackColours, %object
 1917              		.size	puckRackColours, 20
 1918              	puckRackColours:
 1919 001c 00000000 		.space	20
 1919      00000000 
 1919      00000000 
 1919      00000000 
 1919      00000000 
 1920              		.type	block_location, %object
 1921              		.size	block_location, 16
 1922              	block_location:
 1923 0030 00000000 		.space	16
 1923      00000000 
 1923      00000000 
 1923      00000000 
 1924              		.type	puck_location, %object
 1925              		.size	puck_location, 16
 1926              	puck_location:
 1927 0040 00000000 		.space	16
 1927      00000000 
 1927      00000000 
ARM GAS  C:\Users\Misha\AppData\Local\Temp\cc40ki4b.s 			page 55


 1927      00000000 
 1928              		.type	blockEastClearance, %object
 1929              		.size	blockEastClearance, 2
 1930              	blockEastClearance:
 1931 0050 0000     		.space	2
 1932              		.type	blockWestClearance, %object
 1933              		.size	blockWestClearance, 2
 1934              	blockWestClearance:
 1935 0052 0000     		.space	2
 1936              		.type	puckEastClearance, %object
 1937              		.size	puckEastClearance, 2
 1938              	puckEastClearance:
 1939 0054 0000     		.space	2
 1940              		.type	puckWestClearance, %object
 1941              		.size	puckWestClearance, 2
 1942              	puckWestClearance:
 1943 0056 0000     		.space	2
 1944              		.type	currentPuckStackSize, %object
 1945              		.size	currentPuckStackSize, 4
 1946              	currentPuckStackSize:
 1947 0058 00000000 		.space	4
 1948              		.type	safety_override, %object
 1949              		.size	safety_override, 4
 1950              	safety_override:
 1951 005c 00000000 		.space	4
 1952              		.type	moving, %object
 1953              		.size	moving, 4
 1954              	moving:
 1955 0060 00000000 		.space	4
 1956              		.type	horizontalPuckGrid, %object
 1957              		.size	horizontalPuckGrid, 4
 1958              	horizontalPuckGrid:
 1959 0064 00000000 		.space	4
 1960              		.type	puckColoursTempPile, %object
 1961              		.size	puckColoursTempPile, 8
 1962              	puckColoursTempPile:
 1963 0068 00000000 		.space	8
 1963      00000000 
 1964              		.type	block_edge_location, %object
 1965              		.size	block_edge_location, 16
 1966              	block_edge_location:
 1967 0070 00000000 		.space	16
 1967      00000000 
 1967      00000000 
 1967      00000000 
 1968              		.type	sweeping, %object
 1969              		.size	sweeping, 4
 1970              	sweeping:
 1971 0080 00000000 		.space	4
 1972              		.type	currentPuckRackScanningIndex, %object
 1973              		.size	currentPuckRackScanningIndex, 4
 1974              	currentPuckRackScanningIndex:
 1975 0084 00000000 		.space	4
 1976              		.text
 1977              	.Letext0:
 1978              		.file 2 "c:\\program files (x86)\\cypress\\psoc creator\\4.2\\psoc creator\\import\\gnu\\arm\\5.4.
 1979              		.file 3 "c:\\program files (x86)\\cypress\\psoc creator\\4.2\\psoc creator\\import\\gnu\\arm\\5.4.
ARM GAS  C:\Users\Misha\AppData\Local\Temp\cc40ki4b.s 			page 56


 1980              		.file 4 "Generated_Source\\PSoC5/core_cm3.h"
 1981              		.file 5 "navigation.h"
 1982              		.file 6 "ultrasonic.h"
 1983              		.file 7 "main.h"
 1984              		.file 8 "Generated_Source\\PSoC5/CyLib.h"
 1985              		.file 9 "Generated_Source\\PSoC5/UART_1.h"
 1986              		.file 10 "colour.h"
 1987              		.file 11 "c:\\program files (x86)\\cypress\\psoc creator\\4.2\\psoc creator\\import\\gnu\\arm\\5.4
 1988              		.file 12 "debugging.h"
 1989              		.file 13 "Generated_Source\\PSoC5/control_photodiode.h"
 1990              		.file 14 "motor.h"
 1991              		.file 15 "servo.h"
 1992              		.file 16 "Generated_Source\\PSoC5/TIA_1.h"
 1993              		.file 17 "Generated_Source\\PSoC5/ADC.h"
 1994              		.file 18 "Generated_Source\\PSoC5/IDAC8_1.h"
 1995              		.file 19 "Generated_Source\\PSoC5/control_led.h"
 1996              		.file 20 "Generated_Source\\PSoC5/Rack_Servo_PWM.h"
 1997              		.file 21 "Generated_Source\\PSoC5/Gripper_Servo_PWM.h"
 1998              		.file 22 "Generated_Source\\PSoC5/Motor_Left_Driver.h"
 1999              		.file 23 "Generated_Source\\PSoC5/Motor_Right_Driver.h"
 2000              		.file 24 "Generated_Source\\PSoC5/Motor_Left_Decoder.h"
 2001              		.file 25 "Generated_Source\\PSoC5/Motor_Right_Decoder.h"
 2002              		.file 26 "Generated_Source\\PSoC5/Timer_1.h"
 2003              		.file 27 "Generated_Source\\PSoC5/Sonic.h"
 2004              		.file 28 "Generated_Source\\PSoC5/Start.h"
 2005              		.section	.debug_info,"",%progbits
 2006              	.Ldebug_info0:
 2007 0000 F31B0000 		.4byte	0x1bf3
 2008 0004 0400     		.2byte	0x4
 2009 0006 00000000 		.4byte	.Ldebug_abbrev0
 2010 000a 04       		.byte	0x4
 2011 000b 01       		.uleb128 0x1
 2012 000c 37070000 		.4byte	.LASF110
 2013 0010 0C       		.byte	0xc
 2014 0011 B9050000 		.4byte	.LASF111
 2015 0015 70060000 		.4byte	.LASF112
 2016 0019 18000000 		.4byte	.Ldebug_ranges0+0x18
 2017 001d 00000000 		.4byte	0
 2018 0021 00000000 		.4byte	.Ldebug_line0
 2019 0025 02       		.uleb128 0x2
 2020 0026 01       		.byte	0x1
 2021 0027 06       		.byte	0x6
 2022 0028 4E040000 		.4byte	.LASF0
 2023 002c 02       		.uleb128 0x2
 2024 002d 01       		.byte	0x1
 2025 002e 08       		.byte	0x8
 2026 002f 93030000 		.4byte	.LASF1
 2027 0033 02       		.uleb128 0x2
 2028 0034 02       		.byte	0x2
 2029 0035 05       		.byte	0x5
 2030 0036 6E000000 		.4byte	.LASF2
 2031 003a 02       		.uleb128 0x2
 2032 003b 02       		.byte	0x2
 2033 003c 07       		.byte	0x7
 2034 003d 95050000 		.4byte	.LASF3
 2035 0041 03       		.uleb128 0x3
 2036 0042 53060000 		.4byte	.LASF9
ARM GAS  C:\Users\Misha\AppData\Local\Temp\cc40ki4b.s 			page 57


 2037 0046 02       		.byte	0x2
 2038 0047 3F       		.byte	0x3f
 2039 0048 4C000000 		.4byte	0x4c
 2040 004c 02       		.uleb128 0x2
 2041 004d 04       		.byte	0x4
 2042 004e 05       		.byte	0x5
 2043 004f 8D020000 		.4byte	.LASF4
 2044 0053 02       		.uleb128 0x2
 2045 0054 04       		.byte	0x4
 2046 0055 07       		.byte	0x7
 2047 0056 C8050000 		.4byte	.LASF5
 2048 005a 02       		.uleb128 0x2
 2049 005b 08       		.byte	0x8
 2050 005c 05       		.byte	0x5
 2051 005d 3F020000 		.4byte	.LASF6
 2052 0061 02       		.uleb128 0x2
 2053 0062 08       		.byte	0x8
 2054 0063 07       		.byte	0x7
 2055 0064 6E040000 		.4byte	.LASF7
 2056 0068 04       		.uleb128 0x4
 2057 0069 04       		.byte	0x4
 2058 006a 05       		.byte	0x5
 2059 006b 696E7400 		.ascii	"int\000"
 2060 006f 02       		.uleb128 0x2
 2061 0070 04       		.byte	0x4
 2062 0071 07       		.byte	0x7
 2063 0072 97040000 		.4byte	.LASF8
 2064 0076 03       		.uleb128 0x3
 2065 0077 B3000000 		.4byte	.LASF10
 2066 007b 03       		.byte	0x3
 2067 007c 2C       		.byte	0x2c
 2068 007d 41000000 		.4byte	0x41
 2069 0081 02       		.uleb128 0x2
 2070 0082 04       		.byte	0x4
 2071 0083 04       		.byte	0x4
 2072 0084 26020000 		.4byte	.LASF11
 2073 0088 02       		.uleb128 0x2
 2074 0089 08       		.byte	0x8
 2075 008a 04       		.byte	0x4
 2076 008b 0A070000 		.4byte	.LASF12
 2077 008f 02       		.uleb128 0x2
 2078 0090 01       		.byte	0x1
 2079 0091 08       		.byte	0x8
 2080 0092 1A050000 		.4byte	.LASF13
 2081 0096 02       		.uleb128 0x2
 2082 0097 08       		.byte	0x8
 2083 0098 04       		.byte	0x4
 2084 0099 FC000000 		.4byte	.LASF14
 2085 009d 02       		.uleb128 0x2
 2086 009e 04       		.byte	0x4
 2087 009f 07       		.byte	0x7
 2088 00a0 FA060000 		.4byte	.LASF15
 2089 00a4 05       		.uleb128 0x5
 2090 00a5 54494800 		.ascii	"TIH\000"
 2091 00a9 01       		.byte	0x1
 2092 00aa 66       		.byte	0x66
 2093 00ab 00000000 		.4byte	.LFB64
ARM GAS  C:\Users\Misha\AppData\Local\Temp\cc40ki4b.s 			page 58


 2094 00af 08000000 		.4byte	.LFE64-.LFB64
 2095 00b3 01       		.uleb128 0x1
 2096 00b4 9C       		.byte	0x9c
 2097 00b5 C3000000 		.4byte	0xc3
 2098 00b9 06       		.uleb128 0x6
 2099 00ba 06000000 		.4byte	.LVL0
 2100 00be 071A0000 		.4byte	0x1a07
 2101 00c2 00       		.byte	0
 2102 00c3 07       		.uleb128 0x7
 2103 00c4 C0050000 		.4byte	.LASF16
 2104 00c8 01       		.byte	0x1
 2105 00c9 6B       		.byte	0x6b
 2106 00ca 00000000 		.4byte	.LFB65
 2107 00ce 24000000 		.4byte	.LFE65-.LFB65
 2108 00d2 01       		.uleb128 0x1
 2109 00d3 9C       		.byte	0x9c
 2110 00d4 00010000 		.4byte	0x100
 2111 00d8 08       		.uleb128 0x8
 2112 00d9 08000000 		.4byte	.LVL1
 2113 00dd 121A0000 		.4byte	0x1a12
 2114 00e1 EC000000 		.4byte	0xec
 2115 00e5 09       		.uleb128 0x9
 2116 00e6 01       		.uleb128 0x1
 2117 00e7 50       		.byte	0x50
 2118 00e8 02       		.uleb128 0x2
 2119 00e9 08       		.byte	0x8
 2120 00ea 64       		.byte	0x64
 2121 00eb 00       		.byte	0
 2122 00ec 0A       		.uleb128 0xa
 2123 00ed 14000000 		.4byte	.LVL2
 2124 00f1 1D1A0000 		.4byte	0x1a1d
 2125 00f5 09       		.uleb128 0x9
 2126 00f6 01       		.uleb128 0x1
 2127 00f7 50       		.byte	0x50
 2128 00f8 05       		.uleb128 0x5
 2129 00f9 03       		.byte	0x3
 2130 00fa 00000000 		.4byte	.LC0
 2131 00fe 00       		.byte	0
 2132 00ff 00       		.byte	0
 2133 0100 0B       		.uleb128 0xb
 2134 0101 31050000 		.4byte	.LASF113
 2135 0105 01       		.byte	0x1
 2136 0106 88       		.byte	0x88
 2137 0107 68000000 		.4byte	0x68
 2138 010b 00000000 		.4byte	.LFB66
 2139 010f BC0A0000 		.4byte	.LFE66-.LFB66
 2140 0113 01       		.uleb128 0x1
 2141 0114 9C       		.byte	0x9c
 2142 0115 F0160000 		.4byte	0x16f0
 2143 0119 0C       		.uleb128 0xc
 2144 011a 4D020000 		.4byte	.LASF17
 2145 011e 01       		.byte	0x1
 2146 011f E8       		.byte	0xe8
 2147 0120 68000000 		.4byte	0x68
 2148 0124 00       		.byte	0
 2149 0125 0D       		.uleb128 0xd
 2150 0126 08010000 		.4byte	.LBB2
ARM GAS  C:\Users\Misha\AppData\Local\Temp\cc40ki4b.s 			page 59


 2151 012a 9E000000 		.4byte	.LBE2-.LBB2
 2152 012e 4D020000 		.4byte	0x24d
 2153 0132 0E       		.uleb128 0xe
 2154 0133 C5070000 		.4byte	.LASF18
 2155 0137 01       		.byte	0x1
 2156 0138 A701     		.2byte	0x1a7
 2157 013a 68000000 		.4byte	0x68
 2158 013e 00000000 		.4byte	.LLST0
 2159 0142 0D       		.uleb128 0xd
 2160 0143 2A010000 		.4byte	.LBB3
 2161 0147 1E000000 		.4byte	.LBE3-.LBB3
 2162 014b 78010000 		.4byte	0x178
 2163 014f 0F       		.uleb128 0xf
 2164 0150 6900     		.ascii	"i\000"
 2165 0152 01       		.byte	0x1
 2166 0153 9201     		.2byte	0x192
 2167 0155 68000000 		.4byte	0x68
 2168 0159 1F000000 		.4byte	.LLST1
 2169 015d 06       		.uleb128 0x6
 2170 015e 32010000 		.4byte	.LVL50
 2171 0162 281A0000 		.4byte	0x1a28
 2172 0166 0A       		.uleb128 0xa
 2173 0167 42010000 		.4byte	.LVL51
 2174 016b 121A0000 		.4byte	0x1a12
 2175 016f 09       		.uleb128 0x9
 2176 0170 01       		.uleb128 0x1
 2177 0171 50       		.byte	0x50
 2178 0172 03       		.uleb128 0x3
 2179 0173 0A       		.byte	0xa
 2180 0174 F401     		.2byte	0x1f4
 2181 0176 00       		.byte	0
 2182 0177 00       		.byte	0
 2183 0178 0D       		.uleb128 0xd
 2184 0179 4E010000 		.4byte	.LBB4
 2185 017d 22000000 		.4byte	.LBE4-.LBB4
 2186 0181 C1010000 		.4byte	0x1c1
 2187 0185 0F       		.uleb128 0xf
 2188 0186 6900     		.ascii	"i\000"
 2189 0188 01       		.byte	0x1
 2190 0189 9C01     		.2byte	0x19c
 2191 018b 68000000 		.4byte	0x68
 2192 018f 3E000000 		.4byte	.LLST2
 2193 0193 08       		.uleb128 0x8
 2194 0194 64010000 		.4byte	.LVL56
 2195 0198 331A0000 		.4byte	0x1a33
 2196 019c B0010000 		.4byte	0x1b0
 2197 01a0 09       		.uleb128 0x9
 2198 01a1 01       		.uleb128 0x1
 2199 01a2 50       		.byte	0x50
 2200 01a3 02       		.uleb128 0x2
 2201 01a4 75       		.byte	0x75
 2202 01a5 00       		.sleb128 0
 2203 01a6 09       		.uleb128 0x9
 2204 01a7 01       		.uleb128 0x1
 2205 01a8 51       		.byte	0x51
 2206 01a9 05       		.uleb128 0x5
 2207 01aa 03       		.byte	0x3
ARM GAS  C:\Users\Misha\AppData\Local\Temp\cc40ki4b.s 			page 60


 2208 01ab 64000000 		.4byte	.LC4
 2209 01af 00       		.byte	0
 2210 01b0 0A       		.uleb128 0xa
 2211 01b1 6A010000 		.4byte	.LVL57
 2212 01b5 1D1A0000 		.4byte	0x1a1d
 2213 01b9 09       		.uleb128 0x9
 2214 01ba 01       		.uleb128 0x1
 2215 01bb 50       		.byte	0x50
 2216 01bc 02       		.uleb128 0x2
 2217 01bd 75       		.byte	0x75
 2218 01be 00       		.sleb128 0
 2219 01bf 00       		.byte	0
 2220 01c0 00       		.byte	0
 2221 01c1 10       		.uleb128 0x10
 2222 01c2 00000000 		.4byte	.Ldebug_ranges0+0
 2223 01c6 DB010000 		.4byte	0x1db
 2224 01ca 0E       		.uleb128 0xe
 2225 01cb 08010000 		.4byte	.LASF19
 2226 01cf 01       		.byte	0x1
 2227 01d0 AA01     		.2byte	0x1aa
 2228 01d2 68000000 		.4byte	0x68
 2229 01d6 5D000000 		.4byte	.LLST3
 2230 01da 00       		.byte	0
 2231 01db 06       		.uleb128 0x6
 2232 01dc 0C010000 		.4byte	.LVL45
 2233 01e0 3E1A0000 		.4byte	0x1a3e
 2234 01e4 06       		.uleb128 0x6
 2235 01e5 10010000 		.4byte	.LVL46
 2236 01e9 491A0000 		.4byte	0x1a49
 2237 01ed 08       		.uleb128 0x8
 2238 01ee 26010000 		.4byte	.LVL47
 2239 01f2 541A0000 		.4byte	0x1a54
 2240 01f6 1D020000 		.4byte	0x21d
 2241 01fa 09       		.uleb128 0x9
 2242 01fb 01       		.uleb128 0x1
 2243 01fc 50       		.byte	0x50
 2244 01fd 02       		.uleb128 0x2
 2245 01fe 09       		.byte	0x9
 2246 01ff 9C       		.byte	0x9c
 2247 0200 09       		.uleb128 0x9
 2248 0201 01       		.uleb128 0x1
 2249 0202 51       		.byte	0x51
 2250 0203 01       		.uleb128 0x1
 2251 0204 30       		.byte	0x30
 2252 0205 09       		.uleb128 0x9
 2253 0206 01       		.uleb128 0x1
 2254 0207 52       		.byte	0x52
 2255 0208 01       		.uleb128 0x1
 2256 0209 34       		.byte	0x34
 2257 020a 09       		.uleb128 0x9
 2258 020b 01       		.uleb128 0x1
 2259 020c 53       		.byte	0x53
 2260 020d 01       		.uleb128 0x1
 2261 020e 34       		.byte	0x34
 2262 020f 09       		.uleb128 0x9
 2263 0210 02       		.uleb128 0x2
 2264 0211 7D       		.byte	0x7d
ARM GAS  C:\Users\Misha\AppData\Local\Temp\cc40ki4b.s 			page 61


 2265 0212 00       		.sleb128 0
 2266 0213 02       		.uleb128 0x2
 2267 0214 08       		.byte	0x8
 2268 0215 C8       		.byte	0xc8
 2269 0216 09       		.uleb128 0x9
 2270 0217 02       		.uleb128 0x2
 2271 0218 7D       		.byte	0x7d
 2272 0219 04       		.sleb128 4
 2273 021a 01       		.uleb128 0x1
 2274 021b 31       		.byte	0x31
 2275 021c 00       		.byte	0
 2276 021d 06       		.uleb128 0x6
 2277 021e 2A010000 		.4byte	.LVL48
 2278 0222 5F1A0000 		.4byte	0x1a5f
 2279 0226 08       		.uleb128 0x8
 2280 0227 4E010000 		.4byte	.LVL53
 2281 022b 1D1A0000 		.4byte	0x1a1d
 2282 022f 3D020000 		.4byte	0x23d
 2283 0233 09       		.uleb128 0x9
 2284 0234 01       		.uleb128 0x1
 2285 0235 50       		.byte	0x50
 2286 0236 05       		.uleb128 0x5
 2287 0237 03       		.byte	0x3
 2288 0238 50000000 		.4byte	.LC3
 2289 023c 00       		.byte	0
 2290 023d 0A       		.uleb128 0xa
 2291 023e 76010000 		.4byte	.LVL59
 2292 0242 6A1A0000 		.4byte	0x1a6a
 2293 0246 09       		.uleb128 0x9
 2294 0247 01       		.uleb128 0x1
 2295 0248 50       		.byte	0x50
 2296 0249 01       		.uleb128 0x1
 2297 024a 31       		.byte	0x31
 2298 024b 00       		.byte	0
 2299 024c 00       		.byte	0
 2300 024d 0D       		.uleb128 0xd
 2301 024e B0010000 		.4byte	.LBB7
 2302 0252 CE030000 		.4byte	.LBE7-.LBB7
 2303 0256 0C0A0000 		.4byte	0xa0c
 2304 025a 0E       		.uleb128 0xe
 2305 025b 3D060000 		.4byte	.LASF20
 2306 025f 01       		.byte	0x1
 2307 0260 E301     		.2byte	0x1e3
 2308 0262 68000000 		.4byte	0x68
 2309 0266 7C000000 		.4byte	.LLST4
 2310 026a 0E       		.uleb128 0xe
 2311 026b 2E010000 		.4byte	.LASF21
 2312 026f 01       		.byte	0x1
 2313 0270 6E02     		.2byte	0x26e
 2314 0272 68000000 		.4byte	0x68
 2315 0276 8F000000 		.4byte	.LLST5
 2316 027a 0D       		.uleb128 0xd
 2317 027b FC030000 		.4byte	.LBB8
 2318 027f 2E000000 		.4byte	.LBE8-.LBB8
 2319 0283 AE020000 		.4byte	0x2ae
 2320 0287 0E       		.uleb128 0xe
 2321 0288 C4020000 		.4byte	.LASF22
ARM GAS  C:\Users\Misha\AppData\Local\Temp\cc40ki4b.s 			page 62


 2322 028c 01       		.byte	0x1
 2323 028d 8602     		.2byte	0x286
 2324 028f 68000000 		.4byte	0x68
 2325 0293 A2000000 		.4byte	.LLST6
 2326 0297 0A       		.uleb128 0xa
 2327 0298 2A040000 		.4byte	.LVL120
 2328 029c 751A0000 		.4byte	0x1a75
 2329 02a0 09       		.uleb128 0x9
 2330 02a1 01       		.uleb128 0x1
 2331 02a2 50       		.byte	0x50
 2332 02a3 01       		.uleb128 0x1
 2333 02a4 32       		.byte	0x32
 2334 02a5 09       		.uleb128 0x9
 2335 02a6 01       		.uleb128 0x1
 2336 02a7 51       		.byte	0x51
 2337 02a8 03       		.uleb128 0x3
 2338 02a9 0A       		.byte	0xa
 2339 02aa E803     		.2byte	0x3e8
 2340 02ac 00       		.byte	0
 2341 02ad 00       		.byte	0
 2342 02ae 0D       		.uleb128 0xd
 2343 02af 2C040000 		.4byte	.LBB9
 2344 02b3 94000000 		.4byte	.LBE9-.LBB9
 2345 02b7 01040000 		.4byte	0x401
 2346 02bb 0E       		.uleb128 0xe
 2347 02bc C4020000 		.4byte	.LASF22
 2348 02c0 01       		.byte	0x1
 2349 02c1 9F02     		.2byte	0x29f
 2350 02c3 68000000 		.4byte	0x68
 2351 02c7 B5000000 		.4byte	.LLST7
 2352 02cb 08       		.uleb128 0x8
 2353 02cc 36040000 		.4byte	.LVL121
 2354 02d0 751A0000 		.4byte	0x1a75
 2355 02d4 E6020000 		.4byte	0x2e6
 2356 02d8 09       		.uleb128 0x9
 2357 02d9 01       		.uleb128 0x1
 2358 02da 50       		.byte	0x50
 2359 02db 02       		.uleb128 0x2
 2360 02dc 79       		.byte	0x79
 2361 02dd 00       		.sleb128 0
 2362 02de 09       		.uleb128 0x9
 2363 02df 01       		.uleb128 0x1
 2364 02e0 51       		.byte	0x51
 2365 02e1 03       		.uleb128 0x3
 2366 02e2 0A       		.byte	0xa
 2367 02e3 E803     		.2byte	0x3e8
 2368 02e5 00       		.byte	0
 2369 02e6 08       		.uleb128 0x8
 2370 02e7 4A040000 		.4byte	.LVL123
 2371 02eb 541A0000 		.4byte	0x1a54
 2372 02ef 17030000 		.4byte	0x317
 2373 02f3 09       		.uleb128 0x9
 2374 02f4 01       		.uleb128 0x1
 2375 02f5 50       		.byte	0x50
 2376 02f6 02       		.uleb128 0x2
 2377 02f7 7A       		.byte	0x7a
 2378 02f8 00       		.sleb128 0
ARM GAS  C:\Users\Misha\AppData\Local\Temp\cc40ki4b.s 			page 63


 2379 02f9 09       		.uleb128 0x9
 2380 02fa 01       		.uleb128 0x1
 2381 02fb 51       		.byte	0x51
 2382 02fc 01       		.uleb128 0x1
 2383 02fd 30       		.byte	0x30
 2384 02fe 09       		.uleb128 0x9
 2385 02ff 01       		.uleb128 0x1
 2386 0300 52       		.byte	0x52
 2387 0301 01       		.uleb128 0x1
 2388 0302 34       		.byte	0x34
 2389 0303 09       		.uleb128 0x9
 2390 0304 01       		.uleb128 0x1
 2391 0305 53       		.byte	0x53
 2392 0306 01       		.uleb128 0x1
 2393 0307 34       		.byte	0x34
 2394 0308 09       		.uleb128 0x9
 2395 0309 02       		.uleb128 0x2
 2396 030a 7D       		.byte	0x7d
 2397 030b 00       		.sleb128 0
 2398 030c 02       		.uleb128 0x2
 2399 030d 7A       		.byte	0x7a
 2400 030e 00       		.sleb128 0
 2401 030f 09       		.uleb128 0x9
 2402 0310 02       		.uleb128 0x2
 2403 0311 7D       		.byte	0x7d
 2404 0312 04       		.sleb128 4
 2405 0313 02       		.uleb128 0x2
 2406 0314 79       		.byte	0x79
 2407 0315 00       		.sleb128 0
 2408 0316 00       		.byte	0
 2409 0317 08       		.uleb128 0x8
 2410 0318 52040000 		.4byte	.LVL124
 2411 031c 801A0000 		.4byte	0x1a80
 2412 0320 30030000 		.4byte	0x330
 2413 0324 09       		.uleb128 0x9
 2414 0325 01       		.uleb128 0x1
 2415 0326 50       		.byte	0x50
 2416 0327 01       		.uleb128 0x1
 2417 0328 33       		.byte	0x33
 2418 0329 09       		.uleb128 0x9
 2419 032a 01       		.uleb128 0x1
 2420 032b 51       		.byte	0x51
 2421 032c 02       		.uleb128 0x2
 2422 032d 7A       		.byte	0x7a
 2423 032e 00       		.sleb128 0
 2424 032f 00       		.byte	0
 2425 0330 08       		.uleb128 0x8
 2426 0331 62040000 		.4byte	.LVL125
 2427 0335 541A0000 		.4byte	0x1a54
 2428 0339 62030000 		.4byte	0x362
 2429 033d 09       		.uleb128 0x9
 2430 033e 01       		.uleb128 0x1
 2431 033f 50       		.byte	0x50
 2432 0340 02       		.uleb128 0x2
 2433 0341 08       		.byte	0x8
 2434 0342 82       		.byte	0x82
 2435 0343 09       		.uleb128 0x9
ARM GAS  C:\Users\Misha\AppData\Local\Temp\cc40ki4b.s 			page 64


 2436 0344 01       		.uleb128 0x1
 2437 0345 51       		.byte	0x51
 2438 0346 02       		.uleb128 0x2
 2439 0347 79       		.byte	0x79
 2440 0348 00       		.sleb128 0
 2441 0349 09       		.uleb128 0x9
 2442 034a 01       		.uleb128 0x1
 2443 034b 52       		.byte	0x52
 2444 034c 01       		.uleb128 0x1
 2445 034d 34       		.byte	0x34
 2446 034e 09       		.uleb128 0x9
 2447 034f 01       		.uleb128 0x1
 2448 0350 53       		.byte	0x53
 2449 0351 01       		.uleb128 0x1
 2450 0352 30       		.byte	0x30
 2451 0353 09       		.uleb128 0x9
 2452 0354 02       		.uleb128 0x2
 2453 0355 7D       		.byte	0x7d
 2454 0356 00       		.sleb128 0
 2455 0357 02       		.uleb128 0x2
 2456 0358 7A       		.byte	0x7a
 2457 0359 00       		.sleb128 0
 2458 035a 09       		.uleb128 0x9
 2459 035b 02       		.uleb128 0x2
 2460 035c 7D       		.byte	0x7d
 2461 035d 04       		.sleb128 4
 2462 035e 02       		.uleb128 0x2
 2463 035f 79       		.byte	0x79
 2464 0360 00       		.sleb128 0
 2465 0361 00       		.byte	0
 2466 0362 06       		.uleb128 0x6
 2467 0363 66040000 		.4byte	.LVL126
 2468 0367 491A0000 		.4byte	0x1a49
 2469 036b 08       		.uleb128 0x8
 2470 036c 76040000 		.4byte	.LVL127
 2471 0370 541A0000 		.4byte	0x1a54
 2472 0374 9C030000 		.4byte	0x39c
 2473 0378 09       		.uleb128 0x9
 2474 0379 01       		.uleb128 0x1
 2475 037a 50       		.byte	0x50
 2476 037b 02       		.uleb128 0x2
 2477 037c 76       		.byte	0x76
 2478 037d 00       		.sleb128 0
 2479 037e 09       		.uleb128 0x9
 2480 037f 01       		.uleb128 0x1
 2481 0380 51       		.byte	0x51
 2482 0381 01       		.uleb128 0x1
 2483 0382 30       		.byte	0x30
 2484 0383 09       		.uleb128 0x9
 2485 0384 01       		.uleb128 0x1
 2486 0385 52       		.byte	0x52
 2487 0386 01       		.uleb128 0x1
 2488 0387 34       		.byte	0x34
 2489 0388 09       		.uleb128 0x9
 2490 0389 01       		.uleb128 0x1
 2491 038a 53       		.byte	0x53
 2492 038b 01       		.uleb128 0x1
ARM GAS  C:\Users\Misha\AppData\Local\Temp\cc40ki4b.s 			page 65


 2493 038c 33       		.byte	0x33
 2494 038d 09       		.uleb128 0x9
 2495 038e 02       		.uleb128 0x2
 2496 038f 7D       		.byte	0x7d
 2497 0390 00       		.sleb128 0
 2498 0391 02       		.uleb128 0x2
 2499 0392 7A       		.byte	0x7a
 2500 0393 00       		.sleb128 0
 2501 0394 09       		.uleb128 0x9
 2502 0395 02       		.uleb128 0x2
 2503 0396 7D       		.byte	0x7d
 2504 0397 04       		.sleb128 4
 2505 0398 02       		.uleb128 0x2
 2506 0399 79       		.byte	0x79
 2507 039a 00       		.sleb128 0
 2508 039b 00       		.byte	0
 2509 039c 08       		.uleb128 0x8
 2510 039d 80040000 		.4byte	.LVL128
 2511 03a1 751A0000 		.4byte	0x1a75
 2512 03a5 B6030000 		.4byte	0x3b6
 2513 03a9 09       		.uleb128 0x9
 2514 03aa 01       		.uleb128 0x1
 2515 03ab 50       		.byte	0x50
 2516 03ac 01       		.uleb128 0x1
 2517 03ad 32       		.byte	0x32
 2518 03ae 09       		.uleb128 0x9
 2519 03af 01       		.uleb128 0x1
 2520 03b0 51       		.byte	0x51
 2521 03b1 03       		.uleb128 0x3
 2522 03b2 0A       		.byte	0xa
 2523 03b3 E803     		.2byte	0x3e8
 2524 03b5 00       		.byte	0
 2525 03b6 08       		.uleb128 0x8
 2526 03b7 86040000 		.4byte	.LVL129
 2527 03bb 8B1A0000 		.4byte	0x1a8b
 2528 03bf C9030000 		.4byte	0x3c9
 2529 03c3 09       		.uleb128 0x9
 2530 03c4 01       		.uleb128 0x1
 2531 03c5 50       		.byte	0x50
 2532 03c6 01       		.uleb128 0x1
 2533 03c7 30       		.byte	0x30
 2534 03c8 00       		.byte	0
 2535 03c9 08       		.uleb128 0x8
 2536 03ca 8C040000 		.4byte	.LVL130
 2537 03ce 121A0000 		.4byte	0x1a12
 2538 03d2 DD030000 		.4byte	0x3dd
 2539 03d6 09       		.uleb128 0x9
 2540 03d7 01       		.uleb128 0x1
 2541 03d8 50       		.byte	0x50
 2542 03d9 02       		.uleb128 0x2
 2543 03da 08       		.byte	0x8
 2544 03db 3C       		.byte	0x3c
 2545 03dc 00       		.byte	0
 2546 03dd 08       		.uleb128 0x8
 2547 03de 92040000 		.4byte	.LVL131
 2548 03e2 8B1A0000 		.4byte	0x1a8b
 2549 03e6 F0030000 		.4byte	0x3f0
ARM GAS  C:\Users\Misha\AppData\Local\Temp\cc40ki4b.s 			page 66


 2550 03ea 09       		.uleb128 0x9
 2551 03eb 01       		.uleb128 0x1
 2552 03ec 50       		.byte	0x50
 2553 03ed 01       		.uleb128 0x1
 2554 03ee 34       		.byte	0x34
 2555 03ef 00       		.byte	0
 2556 03f0 0A       		.uleb128 0xa
 2557 03f1 98040000 		.4byte	.LVL132
 2558 03f5 121A0000 		.4byte	0x1a12
 2559 03f9 09       		.uleb128 0x9
 2560 03fa 01       		.uleb128 0x1
 2561 03fb 50       		.byte	0x50
 2562 03fc 02       		.uleb128 0x2
 2563 03fd 08       		.byte	0x8
 2564 03fe 3C       		.byte	0x3c
 2565 03ff 00       		.byte	0
 2566 0400 00       		.byte	0
 2567 0401 06       		.uleb128 0x6
 2568 0402 B4010000 		.4byte	.LVL67
 2569 0406 3E1A0000 		.4byte	0x1a3e
 2570 040a 08       		.uleb128 0x8
 2571 040b C2010000 		.4byte	.LVL68
 2572 040f 961A0000 		.4byte	0x1a96
 2573 0413 2E040000 		.4byte	0x42e
 2574 0417 09       		.uleb128 0x9
 2575 0418 01       		.uleb128 0x1
 2576 0419 50       		.byte	0x50
 2577 041a 01       		.uleb128 0x1
 2578 041b 49       		.byte	0x49
 2579 041c 09       		.uleb128 0x9
 2580 041d 01       		.uleb128 0x1
 2581 041e 51       		.byte	0x51
 2582 041f 02       		.uleb128 0x2
 2583 0420 09       		.byte	0x9
 2584 0421 DD       		.byte	0xdd
 2585 0422 09       		.uleb128 0x9
 2586 0423 01       		.uleb128 0x1
 2587 0424 52       		.byte	0x52
 2588 0425 02       		.uleb128 0x2
 2589 0426 08       		.byte	0x8
 2590 0427 64       		.byte	0x64
 2591 0428 09       		.uleb128 0x9
 2592 0429 01       		.uleb128 0x1
 2593 042a 53       		.byte	0x53
 2594 042b 01       		.uleb128 0x1
 2595 042c 30       		.byte	0x30
 2596 042d 00       		.byte	0
 2597 042e 06       		.uleb128 0x6
 2598 042f C6010000 		.4byte	.LVL69
 2599 0433 491A0000 		.4byte	0x1a49
 2600 0437 08       		.uleb128 0x8
 2601 0438 D8010000 		.4byte	.LVL70
 2602 043c 541A0000 		.4byte	0x1a54
 2603 0440 67040000 		.4byte	0x467
 2604 0444 09       		.uleb128 0x9
 2605 0445 01       		.uleb128 0x1
 2606 0446 50       		.byte	0x50
ARM GAS  C:\Users\Misha\AppData\Local\Temp\cc40ki4b.s 			page 67


 2607 0447 02       		.uleb128 0x2
 2608 0448 08       		.byte	0x8
 2609 0449 82       		.byte	0x82
 2610 044a 09       		.uleb128 0x9
 2611 044b 01       		.uleb128 0x1
 2612 044c 51       		.byte	0x51
 2613 044d 01       		.uleb128 0x1
 2614 044e 31       		.byte	0x31
 2615 044f 09       		.uleb128 0x9
 2616 0450 01       		.uleb128 0x1
 2617 0451 52       		.byte	0x52
 2618 0452 01       		.uleb128 0x1
 2619 0453 34       		.byte	0x34
 2620 0454 09       		.uleb128 0x9
 2621 0455 01       		.uleb128 0x1
 2622 0456 53       		.byte	0x53
 2623 0457 01       		.uleb128 0x1
 2624 0458 30       		.byte	0x30
 2625 0459 09       		.uleb128 0x9
 2626 045a 02       		.uleb128 0x2
 2627 045b 7D       		.byte	0x7d
 2628 045c 00       		.sleb128 0
 2629 045d 02       		.uleb128 0x2
 2630 045e 08       		.byte	0x8
 2631 045f C8       		.byte	0xc8
 2632 0460 09       		.uleb128 0x9
 2633 0461 02       		.uleb128 0x2
 2634 0462 7D       		.byte	0x7d
 2635 0463 04       		.sleb128 4
 2636 0464 01       		.uleb128 0x1
 2637 0465 31       		.byte	0x31
 2638 0466 00       		.byte	0
 2639 0467 06       		.uleb128 0x6
 2640 0468 DC010000 		.4byte	.LVL71
 2641 046c 491A0000 		.4byte	0x1a49
 2642 0470 08       		.uleb128 0x8
 2643 0471 E2010000 		.4byte	.LVL72
 2644 0475 8B1A0000 		.4byte	0x1a8b
 2645 0479 83040000 		.4byte	0x483
 2646 047d 09       		.uleb128 0x9
 2647 047e 01       		.uleb128 0x1
 2648 047f 50       		.byte	0x50
 2649 0480 01       		.uleb128 0x1
 2650 0481 32       		.byte	0x32
 2651 0482 00       		.byte	0
 2652 0483 08       		.uleb128 0x8
 2653 0484 EA010000 		.4byte	.LVL73
 2654 0488 8B1A0000 		.4byte	0x1a8b
 2655 048c 96040000 		.4byte	0x496
 2656 0490 09       		.uleb128 0x9
 2657 0491 01       		.uleb128 0x1
 2658 0492 50       		.byte	0x50
 2659 0493 01       		.uleb128 0x1
 2660 0494 32       		.byte	0x32
 2661 0495 00       		.byte	0
 2662 0496 08       		.uleb128 0x8
 2663 0497 06020000 		.4byte	.LVL75
ARM GAS  C:\Users\Misha\AppData\Local\Temp\cc40ki4b.s 			page 68


 2664 049b 331A0000 		.4byte	0x1a33
 2665 049f B9040000 		.4byte	0x4b9
 2666 04a3 09       		.uleb128 0x9
 2667 04a4 01       		.uleb128 0x1
 2668 04a5 50       		.byte	0x50
 2669 04a6 02       		.uleb128 0x2
 2670 04a7 74       		.byte	0x74
 2671 04a8 00       		.sleb128 0
 2672 04a9 09       		.uleb128 0x9
 2673 04aa 01       		.uleb128 0x1
 2674 04ab 51       		.byte	0x51
 2675 04ac 05       		.uleb128 0x5
 2676 04ad 03       		.byte	0x3
 2677 04ae 6C000000 		.4byte	.LC5
 2678 04b2 09       		.uleb128 0x9
 2679 04b3 01       		.uleb128 0x1
 2680 04b4 52       		.byte	0x52
 2681 04b5 02       		.uleb128 0x2
 2682 04b6 75       		.byte	0x75
 2683 04b7 00       		.sleb128 0
 2684 04b8 00       		.byte	0
 2685 04b9 08       		.uleb128 0x8
 2686 04ba 0C020000 		.4byte	.LVL76
 2687 04be 1D1A0000 		.4byte	0x1a1d
 2688 04c2 CD040000 		.4byte	0x4cd
 2689 04c6 09       		.uleb128 0x9
 2690 04c7 01       		.uleb128 0x1
 2691 04c8 50       		.byte	0x50
 2692 04c9 02       		.uleb128 0x2
 2693 04ca 74       		.byte	0x74
 2694 04cb 00       		.sleb128 0
 2695 04cc 00       		.byte	0
 2696 04cd 08       		.uleb128 0x8
 2697 04ce 20020000 		.4byte	.LVL77
 2698 04d2 541A0000 		.4byte	0x1a54
 2699 04d6 FD040000 		.4byte	0x4fd
 2700 04da 09       		.uleb128 0x9
 2701 04db 01       		.uleb128 0x1
 2702 04dc 50       		.byte	0x50
 2703 04dd 02       		.uleb128 0x2
 2704 04de 75       		.byte	0x75
 2705 04df 00       		.sleb128 0
 2706 04e0 09       		.uleb128 0x9
 2707 04e1 01       		.uleb128 0x1
 2708 04e2 51       		.byte	0x51
 2709 04e3 01       		.uleb128 0x1
 2710 04e4 30       		.byte	0x30
 2711 04e5 09       		.uleb128 0x9
 2712 04e6 01       		.uleb128 0x1
 2713 04e7 52       		.byte	0x52
 2714 04e8 01       		.uleb128 0x1
 2715 04e9 34       		.byte	0x34
 2716 04ea 09       		.uleb128 0x9
 2717 04eb 01       		.uleb128 0x1
 2718 04ec 53       		.byte	0x53
 2719 04ed 01       		.uleb128 0x1
 2720 04ee 33       		.byte	0x33
ARM GAS  C:\Users\Misha\AppData\Local\Temp\cc40ki4b.s 			page 69


 2721 04ef 09       		.uleb128 0x9
 2722 04f0 02       		.uleb128 0x2
 2723 04f1 7D       		.byte	0x7d
 2724 04f2 00       		.sleb128 0
 2725 04f3 02       		.uleb128 0x2
 2726 04f4 08       		.byte	0x8
 2727 04f5 C8       		.byte	0xc8
 2728 04f6 09       		.uleb128 0x9
 2729 04f7 02       		.uleb128 0x2
 2730 04f8 7D       		.byte	0x7d
 2731 04f9 04       		.sleb128 4
 2732 04fa 01       		.uleb128 0x1
 2733 04fb 31       		.byte	0x31
 2734 04fc 00       		.byte	0
 2735 04fd 08       		.uleb128 0x8
 2736 04fe 2A020000 		.4byte	.LVL78
 2737 0502 751A0000 		.4byte	0x1a75
 2738 0506 17050000 		.4byte	0x517
 2739 050a 09       		.uleb128 0x9
 2740 050b 01       		.uleb128 0x1
 2741 050c 50       		.byte	0x50
 2742 050d 01       		.uleb128 0x1
 2743 050e 32       		.byte	0x32
 2744 050f 09       		.uleb128 0x9
 2745 0510 01       		.uleb128 0x1
 2746 0511 51       		.byte	0x51
 2747 0512 03       		.uleb128 0x3
 2748 0513 0A       		.byte	0xa
 2749 0514 E803     		.2byte	0x3e8
 2750 0516 00       		.byte	0
 2751 0517 06       		.uleb128 0x6
 2752 0518 2E020000 		.4byte	.LVL79
 2753 051c 491A0000 		.4byte	0x1a49
 2754 0520 08       		.uleb128 0x8
 2755 0521 34020000 		.4byte	.LVL80
 2756 0525 8B1A0000 		.4byte	0x1a8b
 2757 0529 33050000 		.4byte	0x533
 2758 052d 09       		.uleb128 0x9
 2759 052e 01       		.uleb128 0x1
 2760 052f 50       		.byte	0x50
 2761 0530 01       		.uleb128 0x1
 2762 0531 30       		.byte	0x30
 2763 0532 00       		.byte	0
 2764 0533 08       		.uleb128 0x8
 2765 0534 3A020000 		.4byte	.LVL81
 2766 0538 121A0000 		.4byte	0x1a12
 2767 053c 47050000 		.4byte	0x547
 2768 0540 09       		.uleb128 0x9
 2769 0541 01       		.uleb128 0x1
 2770 0542 50       		.byte	0x50
 2771 0543 02       		.uleb128 0x2
 2772 0544 08       		.byte	0x8
 2773 0545 3C       		.byte	0x3c
 2774 0546 00       		.byte	0
 2775 0547 08       		.uleb128 0x8
 2776 0548 4A020000 		.4byte	.LVL82
 2777 054c 8B1A0000 		.4byte	0x1a8b
ARM GAS  C:\Users\Misha\AppData\Local\Temp\cc40ki4b.s 			page 70


 2778 0550 5A050000 		.4byte	0x55a
 2779 0554 09       		.uleb128 0x9
 2780 0555 01       		.uleb128 0x1
 2781 0556 50       		.byte	0x50
 2782 0557 01       		.uleb128 0x1
 2783 0558 33       		.byte	0x33
 2784 0559 00       		.byte	0
 2785 055a 08       		.uleb128 0x8
 2786 055b 50020000 		.4byte	.LVL83
 2787 055f 121A0000 		.4byte	0x1a12
 2788 0563 6E050000 		.4byte	0x56e
 2789 0567 09       		.uleb128 0x9
 2790 0568 01       		.uleb128 0x1
 2791 0569 50       		.byte	0x50
 2792 056a 02       		.uleb128 0x2
 2793 056b 08       		.byte	0x8
 2794 056c 3C       		.byte	0x3c
 2795 056d 00       		.byte	0
 2796 056e 08       		.uleb128 0x8
 2797 056f 56020000 		.4byte	.LVL84
 2798 0573 8B1A0000 		.4byte	0x1a8b
 2799 0577 81050000 		.4byte	0x581
 2800 057b 09       		.uleb128 0x9
 2801 057c 01       		.uleb128 0x1
 2802 057d 50       		.byte	0x50
 2803 057e 01       		.uleb128 0x1
 2804 057f 32       		.byte	0x32
 2805 0580 00       		.byte	0
 2806 0581 08       		.uleb128 0x8
 2807 0582 5C020000 		.4byte	.LVL85
 2808 0586 121A0000 		.4byte	0x1a12
 2809 058a 95050000 		.4byte	0x595
 2810 058e 09       		.uleb128 0x9
 2811 058f 01       		.uleb128 0x1
 2812 0590 50       		.byte	0x50
 2813 0591 02       		.uleb128 0x2
 2814 0592 08       		.byte	0x8
 2815 0593 3C       		.byte	0x3c
 2816 0594 00       		.byte	0
 2817 0595 08       		.uleb128 0x8
 2818 0596 78020000 		.4byte	.LVL86
 2819 059a A11A0000 		.4byte	0x1aa1
 2820 059e B4050000 		.4byte	0x5b4
 2821 05a2 09       		.uleb128 0x9
 2822 05a3 01       		.uleb128 0x1
 2823 05a4 50       		.byte	0x50
 2824 05a5 02       		.uleb128 0x2
 2825 05a6 09       		.byte	0x9
 2826 05a7 D3       		.byte	0xd3
 2827 05a8 09       		.uleb128 0x9
 2828 05a9 01       		.uleb128 0x1
 2829 05aa 51       		.byte	0x51
 2830 05ab 02       		.uleb128 0x2
 2831 05ac 08       		.byte	0x8
 2832 05ad C8       		.byte	0xc8
 2833 05ae 09       		.uleb128 0x9
 2834 05af 01       		.uleb128 0x1
ARM GAS  C:\Users\Misha\AppData\Local\Temp\cc40ki4b.s 			page 71


 2835 05b0 52       		.byte	0x52
 2836 05b1 01       		.uleb128 0x1
 2837 05b2 31       		.byte	0x31
 2838 05b3 00       		.byte	0
 2839 05b4 08       		.uleb128 0x8
 2840 05b5 7E020000 		.4byte	.LVL87
 2841 05b9 8B1A0000 		.4byte	0x1a8b
 2842 05bd C7050000 		.4byte	0x5c7
 2843 05c1 09       		.uleb128 0x9
 2844 05c2 01       		.uleb128 0x1
 2845 05c3 50       		.byte	0x50
 2846 05c4 01       		.uleb128 0x1
 2847 05c5 33       		.byte	0x33
 2848 05c6 00       		.byte	0
 2849 05c7 08       		.uleb128 0x8
 2850 05c8 84020000 		.4byte	.LVL88
 2851 05cc 121A0000 		.4byte	0x1a12
 2852 05d0 DB050000 		.4byte	0x5db
 2853 05d4 09       		.uleb128 0x9
 2854 05d5 01       		.uleb128 0x1
 2855 05d6 50       		.byte	0x50
 2856 05d7 02       		.uleb128 0x2
 2857 05d8 08       		.byte	0x8
 2858 05d9 3C       		.byte	0x3c
 2859 05da 00       		.byte	0
 2860 05db 08       		.uleb128 0x8
 2861 05dc 8A020000 		.4byte	.LVL89
 2862 05e0 8B1A0000 		.4byte	0x1a8b
 2863 05e4 EE050000 		.4byte	0x5ee
 2864 05e8 09       		.uleb128 0x9
 2865 05e9 01       		.uleb128 0x1
 2866 05ea 50       		.byte	0x50
 2867 05eb 01       		.uleb128 0x1
 2868 05ec 32       		.byte	0x32
 2869 05ed 00       		.byte	0
 2870 05ee 08       		.uleb128 0x8
 2871 05ef 90020000 		.4byte	.LVL90
 2872 05f3 121A0000 		.4byte	0x1a12
 2873 05f7 02060000 		.4byte	0x602
 2874 05fb 09       		.uleb128 0x9
 2875 05fc 01       		.uleb128 0x1
 2876 05fd 50       		.byte	0x50
 2877 05fe 02       		.uleb128 0x2
 2878 05ff 08       		.byte	0x8
 2879 0600 3C       		.byte	0x3c
 2880 0601 00       		.byte	0
 2881 0602 08       		.uleb128 0x8
 2882 0603 B0020000 		.4byte	.LVL91
 2883 0607 541A0000 		.4byte	0x1a54
 2884 060b 32060000 		.4byte	0x632
 2885 060f 09       		.uleb128 0x9
 2886 0610 01       		.uleb128 0x1
 2887 0611 50       		.byte	0x50
 2888 0612 02       		.uleb128 0x2
 2889 0613 75       		.byte	0x75
 2890 0614 00       		.sleb128 0
 2891 0615 09       		.uleb128 0x9
ARM GAS  C:\Users\Misha\AppData\Local\Temp\cc40ki4b.s 			page 72


 2892 0616 01       		.uleb128 0x1
 2893 0617 51       		.byte	0x51
 2894 0618 01       		.uleb128 0x1
 2895 0619 30       		.byte	0x30
 2896 061a 09       		.uleb128 0x9
 2897 061b 01       		.uleb128 0x1
 2898 061c 52       		.byte	0x52
 2899 061d 01       		.uleb128 0x1
 2900 061e 35       		.byte	0x35
 2901 061f 09       		.uleb128 0x9
 2902 0620 01       		.uleb128 0x1
 2903 0621 53       		.byte	0x53
 2904 0622 01       		.uleb128 0x1
 2905 0623 33       		.byte	0x33
 2906 0624 09       		.uleb128 0x9
 2907 0625 02       		.uleb128 0x2
 2908 0626 7D       		.byte	0x7d
 2909 0627 00       		.sleb128 0
 2910 0628 02       		.uleb128 0x2
 2911 0629 08       		.byte	0x8
 2912 062a C8       		.byte	0xc8
 2913 062b 09       		.uleb128 0x9
 2914 062c 02       		.uleb128 0x2
 2915 062d 7D       		.byte	0x7d
 2916 062e 04       		.sleb128 4
 2917 062f 01       		.uleb128 0x1
 2918 0630 31       		.byte	0x31
 2919 0631 00       		.byte	0
 2920 0632 08       		.uleb128 0x8
 2921 0633 BA020000 		.4byte	.LVL92
 2922 0637 751A0000 		.4byte	0x1a75
 2923 063b 4C060000 		.4byte	0x64c
 2924 063f 09       		.uleb128 0x9
 2925 0640 01       		.uleb128 0x1
 2926 0641 50       		.byte	0x50
 2927 0642 01       		.uleb128 0x1
 2928 0643 32       		.byte	0x32
 2929 0644 09       		.uleb128 0x9
 2930 0645 01       		.uleb128 0x1
 2931 0646 51       		.byte	0x51
 2932 0647 03       		.uleb128 0x3
 2933 0648 0A       		.byte	0xa
 2934 0649 E803     		.2byte	0x3e8
 2935 064b 00       		.byte	0
 2936 064c 08       		.uleb128 0x8
 2937 064d 22030000 		.4byte	.LVL93
 2938 0651 331A0000 		.4byte	0x1a33
 2939 0655 69060000 		.4byte	0x669
 2940 0659 09       		.uleb128 0x9
 2941 065a 01       		.uleb128 0x1
 2942 065b 50       		.byte	0x50
 2943 065c 02       		.uleb128 0x2
 2944 065d 74       		.byte	0x74
 2945 065e 00       		.sleb128 0
 2946 065f 09       		.uleb128 0x9
 2947 0660 01       		.uleb128 0x1
 2948 0661 51       		.byte	0x51
ARM GAS  C:\Users\Misha\AppData\Local\Temp\cc40ki4b.s 			page 73


 2949 0662 05       		.uleb128 0x5
 2950 0663 03       		.byte	0x3
 2951 0664 90000000 		.4byte	.LC6
 2952 0668 00       		.byte	0
 2953 0669 08       		.uleb128 0x8
 2954 066a 28030000 		.4byte	.LVL94
 2955 066e 1D1A0000 		.4byte	0x1a1d
 2956 0672 7D060000 		.4byte	0x67d
 2957 0676 09       		.uleb128 0x9
 2958 0677 01       		.uleb128 0x1
 2959 0678 50       		.byte	0x50
 2960 0679 02       		.uleb128 0x2
 2961 067a 74       		.byte	0x74
 2962 067b 00       		.sleb128 0
 2963 067c 00       		.byte	0
 2964 067d 08       		.uleb128 0x8
 2965 067e 32030000 		.4byte	.LVL95
 2966 0682 331A0000 		.4byte	0x1a33
 2967 0686 9A060000 		.4byte	0x69a
 2968 068a 09       		.uleb128 0x9
 2969 068b 01       		.uleb128 0x1
 2970 068c 50       		.byte	0x50
 2971 068d 02       		.uleb128 0x2
 2972 068e 74       		.byte	0x74
 2973 068f 00       		.sleb128 0
 2974 0690 09       		.uleb128 0x9
 2975 0691 01       		.uleb128 0x1
 2976 0692 51       		.byte	0x51
 2977 0693 05       		.uleb128 0x5
 2978 0694 03       		.byte	0x3
 2979 0695 A0000000 		.4byte	.LC7
 2980 0699 00       		.byte	0
 2981 069a 08       		.uleb128 0x8
 2982 069b 38030000 		.4byte	.LVL96
 2983 069f 1D1A0000 		.4byte	0x1a1d
 2984 06a3 AE060000 		.4byte	0x6ae
 2985 06a7 09       		.uleb128 0x9
 2986 06a8 01       		.uleb128 0x1
 2987 06a9 50       		.byte	0x50
 2988 06aa 02       		.uleb128 0x2
 2989 06ab 74       		.byte	0x74
 2990 06ac 00       		.sleb128 0
 2991 06ad 00       		.byte	0
 2992 06ae 08       		.uleb128 0x8
 2993 06af 42030000 		.4byte	.LVL97
 2994 06b3 331A0000 		.4byte	0x1a33
 2995 06b7 CB060000 		.4byte	0x6cb
 2996 06bb 09       		.uleb128 0x9
 2997 06bc 01       		.uleb128 0x1
 2998 06bd 50       		.byte	0x50
 2999 06be 02       		.uleb128 0x2
 3000 06bf 74       		.byte	0x74
 3001 06c0 00       		.sleb128 0
 3002 06c1 09       		.uleb128 0x9
 3003 06c2 01       		.uleb128 0x1
 3004 06c3 51       		.byte	0x51
 3005 06c4 05       		.uleb128 0x5
ARM GAS  C:\Users\Misha\AppData\Local\Temp\cc40ki4b.s 			page 74


 3006 06c5 03       		.byte	0x3
 3007 06c6 AC000000 		.4byte	.LC8
 3008 06ca 00       		.byte	0
 3009 06cb 08       		.uleb128 0x8
 3010 06cc 48030000 		.4byte	.LVL98
 3011 06d0 1D1A0000 		.4byte	0x1a1d
 3012 06d4 DF060000 		.4byte	0x6df
 3013 06d8 09       		.uleb128 0x9
 3014 06d9 01       		.uleb128 0x1
 3015 06da 50       		.byte	0x50
 3016 06db 02       		.uleb128 0x2
 3017 06dc 74       		.byte	0x74
 3018 06dd 00       		.sleb128 0
 3019 06de 00       		.byte	0
 3020 06df 08       		.uleb128 0x8
 3021 06e0 52030000 		.4byte	.LVL99
 3022 06e4 331A0000 		.4byte	0x1a33
 3023 06e8 FC060000 		.4byte	0x6fc
 3024 06ec 09       		.uleb128 0x9
 3025 06ed 01       		.uleb128 0x1
 3026 06ee 50       		.byte	0x50
 3027 06ef 02       		.uleb128 0x2
 3028 06f0 74       		.byte	0x74
 3029 06f1 00       		.sleb128 0
 3030 06f2 09       		.uleb128 0x9
 3031 06f3 01       		.uleb128 0x1
 3032 06f4 51       		.byte	0x51
 3033 06f5 05       		.uleb128 0x5
 3034 06f6 03       		.byte	0x3
 3035 06f7 BC000000 		.4byte	.LC9
 3036 06fb 00       		.byte	0
 3037 06fc 08       		.uleb128 0x8
 3038 06fd 58030000 		.4byte	.LVL100
 3039 0701 1D1A0000 		.4byte	0x1a1d
 3040 0705 10070000 		.4byte	0x710
 3041 0709 09       		.uleb128 0x9
 3042 070a 01       		.uleb128 0x1
 3043 070b 50       		.byte	0x50
 3044 070c 02       		.uleb128 0x2
 3045 070d 74       		.byte	0x74
 3046 070e 00       		.sleb128 0
 3047 070f 00       		.byte	0
 3048 0710 08       		.uleb128 0x8
 3049 0711 60030000 		.4byte	.LVL101
 3050 0715 801A0000 		.4byte	0x1a80
 3051 0719 29070000 		.4byte	0x729
 3052 071d 09       		.uleb128 0x9
 3053 071e 01       		.uleb128 0x1
 3054 071f 50       		.byte	0x50
 3055 0720 01       		.uleb128 0x1
 3056 0721 31       		.byte	0x31
 3057 0722 09       		.uleb128 0x9
 3058 0723 01       		.uleb128 0x1
 3059 0724 51       		.byte	0x51
 3060 0725 02       		.uleb128 0x2
 3061 0726 08       		.byte	0x8
 3062 0727 C8       		.byte	0xc8
ARM GAS  C:\Users\Misha\AppData\Local\Temp\cc40ki4b.s 			page 75


 3063 0728 00       		.byte	0
 3064 0729 08       		.uleb128 0x8
 3065 072a 7C030000 		.4byte	.LVL102
 3066 072e 541A0000 		.4byte	0x1a54
 3067 0732 5B070000 		.4byte	0x75b
 3068 0736 09       		.uleb128 0x9
 3069 0737 01       		.uleb128 0x1
 3070 0738 50       		.byte	0x50
 3071 0739 02       		.uleb128 0x2
 3072 073a 08       		.byte	0x8
 3073 073b 96       		.byte	0x96
 3074 073c 09       		.uleb128 0x9
 3075 073d 01       		.uleb128 0x1
 3076 073e 51       		.byte	0x51
 3077 073f 02       		.uleb128 0x2
 3078 0740 79       		.byte	0x79
 3079 0741 00       		.sleb128 0
 3080 0742 09       		.uleb128 0x9
 3081 0743 01       		.uleb128 0x1
 3082 0744 52       		.byte	0x52
 3083 0745 01       		.uleb128 0x1
 3084 0746 34       		.byte	0x34
 3085 0747 09       		.uleb128 0x9
 3086 0748 01       		.uleb128 0x1
 3087 0749 53       		.byte	0x53
 3088 074a 01       		.uleb128 0x1
 3089 074b 30       		.byte	0x30
 3090 074c 09       		.uleb128 0x9
 3091 074d 02       		.uleb128 0x2
 3092 074e 7D       		.byte	0x7d
 3093 074f 00       		.sleb128 0
 3094 0750 02       		.uleb128 0x2
 3095 0751 7A       		.byte	0x7a
 3096 0752 00       		.sleb128 0
 3097 0753 09       		.uleb128 0x9
 3098 0754 02       		.uleb128 0x2
 3099 0755 7D       		.byte	0x7d
 3100 0756 04       		.sleb128 4
 3101 0757 02       		.uleb128 0x2
 3102 0758 79       		.byte	0x79
 3103 0759 00       		.sleb128 0
 3104 075a 00       		.byte	0
 3105 075b 06       		.uleb128 0x6
 3106 075c 80030000 		.4byte	.LVL103
 3107 0760 491A0000 		.4byte	0x1a49
 3108 0764 08       		.uleb128 0x8
 3109 0765 86030000 		.4byte	.LVL104
 3110 0769 8B1A0000 		.4byte	0x1a8b
 3111 076d 77070000 		.4byte	0x777
 3112 0771 09       		.uleb128 0x9
 3113 0772 01       		.uleb128 0x1
 3114 0773 50       		.byte	0x50
 3115 0774 01       		.uleb128 0x1
 3116 0775 33       		.byte	0x33
 3117 0776 00       		.byte	0
 3118 0777 08       		.uleb128 0x8
 3119 0778 8C030000 		.4byte	.LVL105
ARM GAS  C:\Users\Misha\AppData\Local\Temp\cc40ki4b.s 			page 76


 3120 077c 121A0000 		.4byte	0x1a12
 3121 0780 8B070000 		.4byte	0x78b
 3122 0784 09       		.uleb128 0x9
 3123 0785 01       		.uleb128 0x1
 3124 0786 50       		.byte	0x50
 3125 0787 02       		.uleb128 0x2
 3126 0788 08       		.byte	0x8
 3127 0789 32       		.byte	0x32
 3128 078a 00       		.byte	0
 3129 078b 08       		.uleb128 0x8
 3130 078c 9C030000 		.4byte	.LVL106
 3131 0790 331A0000 		.4byte	0x1a33
 3132 0794 A8070000 		.4byte	0x7a8
 3133 0798 09       		.uleb128 0x9
 3134 0799 01       		.uleb128 0x1
 3135 079a 50       		.byte	0x50
 3136 079b 02       		.uleb128 0x2
 3137 079c 74       		.byte	0x74
 3138 079d 00       		.sleb128 0
 3139 079e 09       		.uleb128 0x9
 3140 079f 01       		.uleb128 0x1
 3141 07a0 51       		.byte	0x51
 3142 07a1 05       		.uleb128 0x5
 3143 07a2 03       		.byte	0x3
 3144 07a3 C8000000 		.4byte	.LC10
 3145 07a7 00       		.byte	0
 3146 07a8 08       		.uleb128 0x8
 3147 07a9 A2030000 		.4byte	.LVL107
 3148 07ad 1D1A0000 		.4byte	0x1a1d
 3149 07b1 BC070000 		.4byte	0x7bc
 3150 07b5 09       		.uleb128 0x9
 3151 07b6 01       		.uleb128 0x1
 3152 07b7 50       		.byte	0x50
 3153 07b8 02       		.uleb128 0x2
 3154 07b9 74       		.byte	0x74
 3155 07ba 00       		.sleb128 0
 3156 07bb 00       		.byte	0
 3157 07bc 08       		.uleb128 0x8
 3158 07bd B6030000 		.4byte	.LVL109
 3159 07c1 331A0000 		.4byte	0x1a33
 3160 07c5 DF070000 		.4byte	0x7df
 3161 07c9 09       		.uleb128 0x9
 3162 07ca 01       		.uleb128 0x1
 3163 07cb 50       		.byte	0x50
 3164 07cc 02       		.uleb128 0x2
 3165 07cd 74       		.byte	0x74
 3166 07ce 00       		.sleb128 0
 3167 07cf 09       		.uleb128 0x9
 3168 07d0 01       		.uleb128 0x1
 3169 07d1 51       		.byte	0x51
 3170 07d2 05       		.uleb128 0x5
 3171 07d3 03       		.byte	0x3
 3172 07d4 D0000000 		.4byte	.LC11
 3173 07d8 09       		.uleb128 0x9
 3174 07d9 01       		.uleb128 0x1
 3175 07da 52       		.byte	0x52
 3176 07db 02       		.uleb128 0x2
ARM GAS  C:\Users\Misha\AppData\Local\Temp\cc40ki4b.s 			page 77


 3177 07dc 76       		.byte	0x76
 3178 07dd 00       		.sleb128 0
 3179 07de 00       		.byte	0
 3180 07df 08       		.uleb128 0x8
 3181 07e0 BC030000 		.4byte	.LVL110
 3182 07e4 1D1A0000 		.4byte	0x1a1d
 3183 07e8 F3070000 		.4byte	0x7f3
 3184 07ec 09       		.uleb128 0x9
 3185 07ed 01       		.uleb128 0x1
 3186 07ee 50       		.byte	0x50
 3187 07ef 02       		.uleb128 0x2
 3188 07f0 74       		.byte	0x74
 3189 07f1 00       		.sleb128 0
 3190 07f2 00       		.byte	0
 3191 07f3 08       		.uleb128 0x8
 3192 07f4 D0030000 		.4byte	.LVL111
 3193 07f8 541A0000 		.4byte	0x1a54
 3194 07fc 24080000 		.4byte	0x824
 3195 0800 09       		.uleb128 0x9
 3196 0801 01       		.uleb128 0x1
 3197 0802 50       		.byte	0x50
 3198 0803 02       		.uleb128 0x2
 3199 0804 76       		.byte	0x76
 3200 0805 00       		.sleb128 0
 3201 0806 09       		.uleb128 0x9
 3202 0807 01       		.uleb128 0x1
 3203 0808 51       		.byte	0x51
 3204 0809 01       		.uleb128 0x1
 3205 080a 30       		.byte	0x30
 3206 080b 09       		.uleb128 0x9
 3207 080c 01       		.uleb128 0x1
 3208 080d 52       		.byte	0x52
 3209 080e 01       		.uleb128 0x1
 3210 080f 34       		.byte	0x34
 3211 0810 09       		.uleb128 0x9
 3212 0811 01       		.uleb128 0x1
 3213 0812 53       		.byte	0x53
 3214 0813 01       		.uleb128 0x1
 3215 0814 32       		.byte	0x32
 3216 0815 09       		.uleb128 0x9
 3217 0816 02       		.uleb128 0x2
 3218 0817 7D       		.byte	0x7d
 3219 0818 00       		.sleb128 0
 3220 0819 02       		.uleb128 0x2
 3221 081a 7A       		.byte	0x7a
 3222 081b 00       		.sleb128 0
 3223 081c 09       		.uleb128 0x9
 3224 081d 02       		.uleb128 0x2
 3225 081e 7D       		.byte	0x7d
 3226 081f 04       		.sleb128 4
 3227 0820 02       		.uleb128 0x2
 3228 0821 79       		.byte	0x79
 3229 0822 00       		.sleb128 0
 3230 0823 00       		.byte	0
 3231 0824 08       		.uleb128 0x8
 3232 0825 D6030000 		.4byte	.LVL112
 3233 0829 8B1A0000 		.4byte	0x1a8b
ARM GAS  C:\Users\Misha\AppData\Local\Temp\cc40ki4b.s 			page 78


 3234 082d 37080000 		.4byte	0x837
 3235 0831 09       		.uleb128 0x9
 3236 0832 01       		.uleb128 0x1
 3237 0833 50       		.byte	0x50
 3238 0834 01       		.uleb128 0x1
 3239 0835 30       		.byte	0x30
 3240 0836 00       		.byte	0
 3241 0837 08       		.uleb128 0x8
 3242 0838 DC030000 		.4byte	.LVL113
 3243 083c 121A0000 		.4byte	0x1a12
 3244 0840 4B080000 		.4byte	0x84b
 3245 0844 09       		.uleb128 0x9
 3246 0845 01       		.uleb128 0x1
 3247 0846 50       		.byte	0x50
 3248 0847 02       		.uleb128 0x2
 3249 0848 08       		.byte	0x8
 3250 0849 3C       		.byte	0x3c
 3251 084a 00       		.byte	0
 3252 084b 08       		.uleb128 0x8
 3253 084c E2030000 		.4byte	.LVL114
 3254 0850 8B1A0000 		.4byte	0x1a8b
 3255 0854 5E080000 		.4byte	0x85e
 3256 0858 09       		.uleb128 0x9
 3257 0859 01       		.uleb128 0x1
 3258 085a 50       		.byte	0x50
 3259 085b 01       		.uleb128 0x1
 3260 085c 34       		.byte	0x34
 3261 085d 00       		.byte	0
 3262 085e 08       		.uleb128 0x8
 3263 085f E8030000 		.4byte	.LVL115
 3264 0863 121A0000 		.4byte	0x1a12
 3265 0867 72080000 		.4byte	0x872
 3266 086b 09       		.uleb128 0x9
 3267 086c 01       		.uleb128 0x1
 3268 086d 50       		.byte	0x50
 3269 086e 02       		.uleb128 0x2
 3270 086f 08       		.byte	0x8
 3271 0870 3C       		.byte	0x3c
 3272 0871 00       		.byte	0
 3273 0872 08       		.uleb128 0x8
 3274 0873 CE040000 		.4byte	.LVL137
 3275 0877 331A0000 		.4byte	0x1a33
 3276 087b 8F080000 		.4byte	0x88f
 3277 087f 09       		.uleb128 0x9
 3278 0880 01       		.uleb128 0x1
 3279 0881 50       		.byte	0x50
 3280 0882 02       		.uleb128 0x2
 3281 0883 74       		.byte	0x74
 3282 0884 00       		.sleb128 0
 3283 0885 09       		.uleb128 0x9
 3284 0886 01       		.uleb128 0x1
 3285 0887 51       		.byte	0x51
 3286 0888 05       		.uleb128 0x5
 3287 0889 03       		.byte	0x3
 3288 088a E4000000 		.4byte	.LC12
 3289 088e 00       		.byte	0
 3290 088f 08       		.uleb128 0x8
ARM GAS  C:\Users\Misha\AppData\Local\Temp\cc40ki4b.s 			page 79


 3291 0890 D4040000 		.4byte	.LVL138
 3292 0894 1D1A0000 		.4byte	0x1a1d
 3293 0898 A3080000 		.4byte	0x8a3
 3294 089c 09       		.uleb128 0x9
 3295 089d 01       		.uleb128 0x1
 3296 089e 50       		.byte	0x50
 3297 089f 02       		.uleb128 0x2
 3298 08a0 74       		.byte	0x74
 3299 08a1 00       		.sleb128 0
 3300 08a2 00       		.byte	0
 3301 08a3 08       		.uleb128 0x8
 3302 08a4 DE040000 		.4byte	.LVL139
 3303 08a8 331A0000 		.4byte	0x1a33
 3304 08ac C0080000 		.4byte	0x8c0
 3305 08b0 09       		.uleb128 0x9
 3306 08b1 01       		.uleb128 0x1
 3307 08b2 50       		.byte	0x50
 3308 08b3 02       		.uleb128 0x2
 3309 08b4 74       		.byte	0x74
 3310 08b5 00       		.sleb128 0
 3311 08b6 09       		.uleb128 0x9
 3312 08b7 01       		.uleb128 0x1
 3313 08b8 51       		.byte	0x51
 3314 08b9 05       		.uleb128 0x5
 3315 08ba 03       		.byte	0x3
 3316 08bb F8000000 		.4byte	.LC13
 3317 08bf 00       		.byte	0
 3318 08c0 08       		.uleb128 0x8
 3319 08c1 E4040000 		.4byte	.LVL140
 3320 08c5 1D1A0000 		.4byte	0x1a1d
 3321 08c9 D4080000 		.4byte	0x8d4
 3322 08cd 09       		.uleb128 0x9
 3323 08ce 01       		.uleb128 0x1
 3324 08cf 50       		.byte	0x50
 3325 08d0 02       		.uleb128 0x2
 3326 08d1 74       		.byte	0x74
 3327 08d2 00       		.sleb128 0
 3328 08d3 00       		.byte	0
 3329 08d4 08       		.uleb128 0x8
 3330 08d5 EE040000 		.4byte	.LVL141
 3331 08d9 331A0000 		.4byte	0x1a33
 3332 08dd F1080000 		.4byte	0x8f1
 3333 08e1 09       		.uleb128 0x9
 3334 08e2 01       		.uleb128 0x1
 3335 08e3 50       		.byte	0x50
 3336 08e4 02       		.uleb128 0x2
 3337 08e5 74       		.byte	0x74
 3338 08e6 00       		.sleb128 0
 3339 08e7 09       		.uleb128 0x9
 3340 08e8 01       		.uleb128 0x1
 3341 08e9 51       		.byte	0x51
 3342 08ea 05       		.uleb128 0x5
 3343 08eb 03       		.byte	0x3
 3344 08ec 0C010000 		.4byte	.LC14
 3345 08f0 00       		.byte	0
 3346 08f1 08       		.uleb128 0x8
 3347 08f2 F4040000 		.4byte	.LVL142
ARM GAS  C:\Users\Misha\AppData\Local\Temp\cc40ki4b.s 			page 80


 3348 08f6 1D1A0000 		.4byte	0x1a1d
 3349 08fa 05090000 		.4byte	0x905
 3350 08fe 09       		.uleb128 0x9
 3351 08ff 01       		.uleb128 0x1
 3352 0900 50       		.byte	0x50
 3353 0901 02       		.uleb128 0x2
 3354 0902 74       		.byte	0x74
 3355 0903 00       		.sleb128 0
 3356 0904 00       		.byte	0
 3357 0905 08       		.uleb128 0x8
 3358 0906 FE040000 		.4byte	.LVL143
 3359 090a 331A0000 		.4byte	0x1a33
 3360 090e 22090000 		.4byte	0x922
 3361 0912 09       		.uleb128 0x9
 3362 0913 01       		.uleb128 0x1
 3363 0914 50       		.byte	0x50
 3364 0915 02       		.uleb128 0x2
 3365 0916 74       		.byte	0x74
 3366 0917 00       		.sleb128 0
 3367 0918 09       		.uleb128 0x9
 3368 0919 01       		.uleb128 0x1
 3369 091a 51       		.byte	0x51
 3370 091b 05       		.uleb128 0x5
 3371 091c 03       		.byte	0x3
 3372 091d 20010000 		.4byte	.LC15
 3373 0921 00       		.byte	0
 3374 0922 08       		.uleb128 0x8
 3375 0923 04050000 		.4byte	.LVL144
 3376 0927 1D1A0000 		.4byte	0x1a1d
 3377 092b 36090000 		.4byte	0x936
 3378 092f 09       		.uleb128 0x9
 3379 0930 01       		.uleb128 0x1
 3380 0931 50       		.byte	0x50
 3381 0932 02       		.uleb128 0x2
 3382 0933 74       		.byte	0x74
 3383 0934 00       		.sleb128 0
 3384 0935 00       		.byte	0
 3385 0936 08       		.uleb128 0x8
 3386 0937 44050000 		.4byte	.LVL146
 3387 093b 541A0000 		.4byte	0x1a54
 3388 093f 69090000 		.4byte	0x969
 3389 0943 09       		.uleb128 0x9
 3390 0944 01       		.uleb128 0x1
 3391 0945 50       		.byte	0x50
 3392 0946 02       		.uleb128 0x2
 3393 0947 7A       		.byte	0x7a
 3394 0948 00       		.sleb128 0
 3395 0949 09       		.uleb128 0x9
 3396 094a 01       		.uleb128 0x1
 3397 094b 51       		.byte	0x51
 3398 094c 02       		.uleb128 0x2
 3399 094d 76       		.byte	0x76
 3400 094e 00       		.sleb128 0
 3401 094f 09       		.uleb128 0x9
 3402 0950 01       		.uleb128 0x1
 3403 0951 52       		.byte	0x52
 3404 0952 01       		.uleb128 0x1
ARM GAS  C:\Users\Misha\AppData\Local\Temp\cc40ki4b.s 			page 81


 3405 0953 35       		.byte	0x35
 3406 0954 09       		.uleb128 0x9
 3407 0955 01       		.uleb128 0x1
 3408 0956 53       		.byte	0x53
 3409 0957 02       		.uleb128 0x2
 3410 0958 76       		.byte	0x76
 3411 0959 00       		.sleb128 0
 3412 095a 09       		.uleb128 0x9
 3413 095b 02       		.uleb128 0x2
 3414 095c 7D       		.byte	0x7d
 3415 095d 00       		.sleb128 0
 3416 095e 02       		.uleb128 0x2
 3417 095f 7A       		.byte	0x7a
 3418 0960 00       		.sleb128 0
 3419 0961 09       		.uleb128 0x9
 3420 0962 02       		.uleb128 0x2
 3421 0963 7D       		.byte	0x7d
 3422 0964 04       		.sleb128 4
 3423 0965 02       		.uleb128 0x2
 3424 0966 75       		.byte	0x75
 3425 0967 00       		.sleb128 0
 3426 0968 00       		.byte	0
 3427 0969 08       		.uleb128 0x8
 3428 096a 4C050000 		.4byte	.LVL147
 3429 096e 801A0000 		.4byte	0x1a80
 3430 0972 82090000 		.4byte	0x982
 3431 0976 09       		.uleb128 0x9
 3432 0977 01       		.uleb128 0x1
 3433 0978 50       		.byte	0x50
 3434 0979 01       		.uleb128 0x1
 3435 097a 32       		.byte	0x32
 3436 097b 09       		.uleb128 0x9
 3437 097c 01       		.uleb128 0x1
 3438 097d 51       		.byte	0x51
 3439 097e 02       		.uleb128 0x2
 3440 097f 7A       		.byte	0x7a
 3441 0980 00       		.sleb128 0
 3442 0981 00       		.byte	0
 3443 0982 08       		.uleb128 0x8
 3444 0983 54050000 		.4byte	.LVL148
 3445 0987 801A0000 		.4byte	0x1a80
 3446 098b 9C090000 		.4byte	0x99c
 3447 098f 09       		.uleb128 0x9
 3448 0990 01       		.uleb128 0x1
 3449 0991 50       		.byte	0x50
 3450 0992 02       		.uleb128 0x2
 3451 0993 75       		.byte	0x75
 3452 0994 00       		.sleb128 0
 3453 0995 09       		.uleb128 0x9
 3454 0996 01       		.uleb128 0x1
 3455 0997 51       		.byte	0x51
 3456 0998 02       		.uleb128 0x2
 3457 0999 7A       		.byte	0x7a
 3458 099a 00       		.sleb128 0
 3459 099b 00       		.byte	0
 3460 099c 06       		.uleb128 0x6
 3461 099d 58050000 		.4byte	.LVL149
ARM GAS  C:\Users\Misha\AppData\Local\Temp\cc40ki4b.s 			page 82


 3462 09a1 491A0000 		.4byte	0x1a49
 3463 09a5 08       		.uleb128 0x8
 3464 09a6 68050000 		.4byte	.LVL150
 3465 09aa 541A0000 		.4byte	0x1a54
 3466 09ae D8090000 		.4byte	0x9d8
 3467 09b2 09       		.uleb128 0x9
 3468 09b3 01       		.uleb128 0x1
 3469 09b4 50       		.byte	0x50
 3470 09b5 02       		.uleb128 0x2
 3471 09b6 08       		.byte	0x8
 3472 09b7 AC       		.byte	0xac
 3473 09b8 09       		.uleb128 0x9
 3474 09b9 01       		.uleb128 0x1
 3475 09ba 51       		.byte	0x51
 3476 09bb 02       		.uleb128 0x2
 3477 09bc 75       		.byte	0x75
 3478 09bd 00       		.sleb128 0
 3479 09be 09       		.uleb128 0x9
 3480 09bf 01       		.uleb128 0x1
 3481 09c0 52       		.byte	0x52
 3482 09c1 01       		.uleb128 0x1
 3483 09c2 34       		.byte	0x34
 3484 09c3 09       		.uleb128 0x9
 3485 09c4 01       		.uleb128 0x1
 3486 09c5 53       		.byte	0x53
 3487 09c6 02       		.uleb128 0x2
 3488 09c7 76       		.byte	0x76
 3489 09c8 00       		.sleb128 0
 3490 09c9 09       		.uleb128 0x9
 3491 09ca 02       		.uleb128 0x2
 3492 09cb 7D       		.byte	0x7d
 3493 09cc 00       		.sleb128 0
 3494 09cd 02       		.uleb128 0x2
 3495 09ce 7A       		.byte	0x7a
 3496 09cf 00       		.sleb128 0
 3497 09d0 09       		.uleb128 0x9
 3498 09d1 02       		.uleb128 0x2
 3499 09d2 7D       		.byte	0x7d
 3500 09d3 04       		.sleb128 4
 3501 09d4 02       		.uleb128 0x2
 3502 09d5 75       		.byte	0x75
 3503 09d6 00       		.sleb128 0
 3504 09d7 00       		.byte	0
 3505 09d8 08       		.uleb128 0x8
 3506 09d9 76050000 		.4byte	.LVL151
 3507 09dd AC1A0000 		.4byte	0x1aac
 3508 09e1 020A0000 		.4byte	0xa02
 3509 09e5 09       		.uleb128 0x9
 3510 09e6 01       		.uleb128 0x1
 3511 09e7 50       		.byte	0x50
 3512 09e8 02       		.uleb128 0x2
 3513 09e9 08       		.byte	0x8
 3514 09ea 9B       		.byte	0x9b
 3515 09eb 09       		.uleb128 0x9
 3516 09ec 01       		.uleb128 0x1
 3517 09ed 51       		.byte	0x51
 3518 09ee 01       		.uleb128 0x1
ARM GAS  C:\Users\Misha\AppData\Local\Temp\cc40ki4b.s 			page 83


 3519 09ef 32       		.byte	0x32
 3520 09f0 09       		.uleb128 0x9
 3521 09f1 01       		.uleb128 0x1
 3522 09f2 52       		.byte	0x52
 3523 09f3 01       		.uleb128 0x1
 3524 09f4 35       		.byte	0x35
 3525 09f5 09       		.uleb128 0x9
 3526 09f6 01       		.uleb128 0x1
 3527 09f7 53       		.byte	0x53
 3528 09f8 01       		.uleb128 0x1
 3529 09f9 33       		.byte	0x33
 3530 09fa 09       		.uleb128 0x9
 3531 09fb 02       		.uleb128 0x2
 3532 09fc 7D       		.byte	0x7d
 3533 09fd 00       		.sleb128 0
 3534 09fe 02       		.uleb128 0x2
 3535 09ff 7A       		.byte	0x7a
 3536 0a00 00       		.sleb128 0
 3537 0a01 00       		.byte	0
 3538 0a02 06       		.uleb128 0x6
 3539 0a03 7A050000 		.4byte	.LVL152
 3540 0a07 491A0000 		.4byte	0x1a49
 3541 0a0b 00       		.byte	0
 3542 0a0c 0D       		.uleb128 0xd
 3543 0a0d 26070000 		.4byte	.LBB10
 3544 0a11 34000000 		.4byte	.LBE10-.LBB10
 3545 0a15 9F0A0000 		.4byte	0xa9f
 3546 0a19 0E       		.uleb128 0xe
 3547 0a1a ED010000 		.4byte	.LASF23
 3548 0a1e 01       		.byte	0x1
 3549 0a1f 4103     		.2byte	0x341
 3550 0a21 68000000 		.4byte	0x68
 3551 0a25 C8000000 		.4byte	.LLST8
 3552 0a29 11       		.uleb128 0x11
 3553 0a2a 49060000 		.4byte	.LASF114
 3554 0a2e 01       		.byte	0x1
 3555 0a2f 4203     		.2byte	0x342
 3556 0a31 68000000 		.4byte	0x68
 3557 0a35 08       		.uleb128 0x8
 3558 0a36 34070000 		.4byte	.LVL179
 3559 0a3a B71A0000 		.4byte	0x1ab7
 3560 0a3e 4D0A0000 		.4byte	0xa4d
 3561 0a42 09       		.uleb128 0x9
 3562 0a43 01       		.uleb128 0x1
 3563 0a44 50       		.byte	0x50
 3564 0a45 01       		.uleb128 0x1
 3565 0a46 30       		.byte	0x30
 3566 0a47 09       		.uleb128 0x9
 3567 0a48 01       		.uleb128 0x1
 3568 0a49 51       		.byte	0x51
 3569 0a4a 01       		.uleb128 0x1
 3570 0a4b 32       		.byte	0x32
 3571 0a4c 00       		.byte	0
 3572 0a4d 08       		.uleb128 0x8
 3573 0a4e 3A070000 		.4byte	.LVL180
 3574 0a52 C21A0000 		.4byte	0x1ac2
 3575 0a56 600A0000 		.4byte	0xa60
ARM GAS  C:\Users\Misha\AppData\Local\Temp\cc40ki4b.s 			page 84


 3576 0a5a 09       		.uleb128 0x9
 3577 0a5b 01       		.uleb128 0x1
 3578 0a5c 50       		.byte	0x50
 3579 0a5d 01       		.uleb128 0x1
 3580 0a5e 35       		.byte	0x35
 3581 0a5f 00       		.byte	0
 3582 0a60 06       		.uleb128 0x6
 3583 0a61 3E070000 		.4byte	.LVL181
 3584 0a65 CD1A0000 		.4byte	0x1acd
 3585 0a69 08       		.uleb128 0x8
 3586 0a6a 46070000 		.4byte	.LVL182
 3587 0a6e B71A0000 		.4byte	0x1ab7
 3588 0a72 820A0000 		.4byte	0xa82
 3589 0a76 09       		.uleb128 0x9
 3590 0a77 01       		.uleb128 0x1
 3591 0a78 50       		.byte	0x50
 3592 0a79 01       		.uleb128 0x1
 3593 0a7a 33       		.byte	0x33
 3594 0a7b 09       		.uleb128 0x9
 3595 0a7c 01       		.uleb128 0x1
 3596 0a7d 51       		.byte	0x51
 3597 0a7e 02       		.uleb128 0x2
 3598 0a7f 75       		.byte	0x75
 3599 0a80 00       		.sleb128 0
 3600 0a81 00       		.byte	0
 3601 0a82 0A       		.uleb128 0xa
 3602 0a83 52070000 		.4byte	.LVL183
 3603 0a87 A11A0000 		.4byte	0x1aa1
 3604 0a8b 09       		.uleb128 0x9
 3605 0a8c 01       		.uleb128 0x1
 3606 0a8d 50       		.byte	0x50
 3607 0a8e 02       		.uleb128 0x2
 3608 0a8f 09       		.byte	0x9
 3609 0a90 C4       		.byte	0xc4
 3610 0a91 09       		.uleb128 0x9
 3611 0a92 01       		.uleb128 0x1
 3612 0a93 51       		.byte	0x51
 3613 0a94 02       		.uleb128 0x2
 3614 0a95 08       		.byte	0x8
 3615 0a96 C8       		.byte	0xc8
 3616 0a97 09       		.uleb128 0x9
 3617 0a98 01       		.uleb128 0x1
 3618 0a99 52       		.byte	0x52
 3619 0a9a 02       		.uleb128 0x2
 3620 0a9b 75       		.byte	0x75
 3621 0a9c 00       		.sleb128 0
 3622 0a9d 00       		.byte	0
 3623 0a9e 00       		.byte	0
 3624 0a9f 0D       		.uleb128 0xd
 3625 0aa0 EC080000 		.4byte	.LBB11
 3626 0aa4 68010000 		.4byte	.LBE11-.LBB11
 3627 0aa8 920D0000 		.4byte	0xd92
 3628 0aac 0E       		.uleb128 0xe
 3629 0aad 32060000 		.4byte	.LASF24
 3630 0ab1 01       		.byte	0x1
 3631 0ab2 D003     		.2byte	0x3d0
 3632 0ab4 68000000 		.4byte	0x68
ARM GAS  C:\Users\Misha\AppData\Local\Temp\cc40ki4b.s 			page 85


 3633 0ab8 DC000000 		.4byte	.LLST9
 3634 0abc 08       		.uleb128 0x8
 3635 0abd F2080000 		.4byte	.LVL215
 3636 0ac1 6A1A0000 		.4byte	0x1a6a
 3637 0ac5 CF0A0000 		.4byte	0xacf
 3638 0ac9 09       		.uleb128 0x9
 3639 0aca 01       		.uleb128 0x1
 3640 0acb 50       		.byte	0x50
 3641 0acc 01       		.uleb128 0x1
 3642 0acd 31       		.byte	0x31
 3643 0ace 00       		.byte	0
 3644 0acf 06       		.uleb128 0x6
 3645 0ad0 FC080000 		.4byte	.LVL216
 3646 0ad4 281A0000 		.4byte	0x1a28
 3647 0ad8 08       		.uleb128 0x8
 3648 0ad9 22090000 		.4byte	.LVL219
 3649 0add 541A0000 		.4byte	0x1a54
 3650 0ae1 0A0B0000 		.4byte	0xb0a
 3651 0ae5 09       		.uleb128 0x9
 3652 0ae6 01       		.uleb128 0x1
 3653 0ae7 50       		.byte	0x50
 3654 0ae8 03       		.uleb128 0x3
 3655 0ae9 0A       		.byte	0xa
 3656 0aea 2602     		.2byte	0x226
 3657 0aec 09       		.uleb128 0x9
 3658 0aed 01       		.uleb128 0x1
 3659 0aee 51       		.byte	0x51
 3660 0aef 01       		.uleb128 0x1
 3661 0af0 30       		.byte	0x30
 3662 0af1 09       		.uleb128 0x9
 3663 0af2 01       		.uleb128 0x1
 3664 0af3 52       		.byte	0x52
 3665 0af4 01       		.uleb128 0x1
 3666 0af5 35       		.byte	0x35
 3667 0af6 09       		.uleb128 0x9
 3668 0af7 01       		.uleb128 0x1
 3669 0af8 53       		.byte	0x53
 3670 0af9 01       		.uleb128 0x1
 3671 0afa 30       		.byte	0x30
 3672 0afb 09       		.uleb128 0x9
 3673 0afc 02       		.uleb128 0x2
 3674 0afd 7D       		.byte	0x7d
 3675 0afe 00       		.sleb128 0
 3676 0aff 02       		.uleb128 0x2
 3677 0b00 74       		.byte	0x74
 3678 0b01 00       		.sleb128 0
 3679 0b02 09       		.uleb128 0x9
 3680 0b03 02       		.uleb128 0x2
 3681 0b04 7D       		.byte	0x7d
 3682 0b05 04       		.sleb128 4
 3683 0b06 02       		.uleb128 0x2
 3684 0b07 75       		.byte	0x75
 3685 0b08 00       		.sleb128 0
 3686 0b09 00       		.byte	0
 3687 0b0a 08       		.uleb128 0x8
 3688 0b0b 2A090000 		.4byte	.LVL220
 3689 0b0f 801A0000 		.4byte	0x1a80
ARM GAS  C:\Users\Misha\AppData\Local\Temp\cc40ki4b.s 			page 86


 3690 0b13 230B0000 		.4byte	0xb23
 3691 0b17 09       		.uleb128 0x9
 3692 0b18 01       		.uleb128 0x1
 3693 0b19 50       		.byte	0x50
 3694 0b1a 01       		.uleb128 0x1
 3695 0b1b 30       		.byte	0x30
 3696 0b1c 09       		.uleb128 0x9
 3697 0b1d 01       		.uleb128 0x1
 3698 0b1e 51       		.byte	0x51
 3699 0b1f 02       		.uleb128 0x2
 3700 0b20 74       		.byte	0x74
 3701 0b21 00       		.sleb128 0
 3702 0b22 00       		.byte	0
 3703 0b23 08       		.uleb128 0x8
 3704 0b24 32090000 		.4byte	.LVL221
 3705 0b28 801A0000 		.4byte	0x1a80
 3706 0b2c 3C0B0000 		.4byte	0xb3c
 3707 0b30 09       		.uleb128 0x9
 3708 0b31 01       		.uleb128 0x1
 3709 0b32 50       		.byte	0x50
 3710 0b33 01       		.uleb128 0x1
 3711 0b34 33       		.byte	0x33
 3712 0b35 09       		.uleb128 0x9
 3713 0b36 01       		.uleb128 0x1
 3714 0b37 51       		.byte	0x51
 3715 0b38 02       		.uleb128 0x2
 3716 0b39 74       		.byte	0x74
 3717 0b3a 00       		.sleb128 0
 3718 0b3b 00       		.byte	0
 3719 0b3c 08       		.uleb128 0x8
 3720 0b3d 42090000 		.4byte	.LVL222
 3721 0b41 541A0000 		.4byte	0x1a54
 3722 0b45 6E0B0000 		.4byte	0xb6e
 3723 0b49 09       		.uleb128 0x9
 3724 0b4a 01       		.uleb128 0x1
 3725 0b4b 50       		.byte	0x50
 3726 0b4c 02       		.uleb128 0x2
 3727 0b4d 08       		.byte	0x8
 3728 0b4e AA       		.byte	0xaa
 3729 0b4f 09       		.uleb128 0x9
 3730 0b50 01       		.uleb128 0x1
 3731 0b51 51       		.byte	0x51
 3732 0b52 02       		.uleb128 0x2
 3733 0b53 75       		.byte	0x75
 3734 0b54 00       		.sleb128 0
 3735 0b55 09       		.uleb128 0x9
 3736 0b56 01       		.uleb128 0x1
 3737 0b57 52       		.byte	0x52
 3738 0b58 01       		.uleb128 0x1
 3739 0b59 34       		.byte	0x34
 3740 0b5a 09       		.uleb128 0x9
 3741 0b5b 01       		.uleb128 0x1
 3742 0b5c 53       		.byte	0x53
 3743 0b5d 01       		.uleb128 0x1
 3744 0b5e 30       		.byte	0x30
 3745 0b5f 09       		.uleb128 0x9
 3746 0b60 02       		.uleb128 0x2
ARM GAS  C:\Users\Misha\AppData\Local\Temp\cc40ki4b.s 			page 87


 3747 0b61 7D       		.byte	0x7d
 3748 0b62 00       		.sleb128 0
 3749 0b63 02       		.uleb128 0x2
 3750 0b64 74       		.byte	0x74
 3751 0b65 00       		.sleb128 0
 3752 0b66 09       		.uleb128 0x9
 3753 0b67 02       		.uleb128 0x2
 3754 0b68 7D       		.byte	0x7d
 3755 0b69 04       		.sleb128 4
 3756 0b6a 02       		.uleb128 0x2
 3757 0b6b 75       		.byte	0x75
 3758 0b6c 00       		.sleb128 0
 3759 0b6d 00       		.byte	0
 3760 0b6e 06       		.uleb128 0x6
 3761 0b6f 46090000 		.4byte	.LVL223
 3762 0b73 491A0000 		.4byte	0x1a49
 3763 0b77 08       		.uleb128 0x8
 3764 0b78 6E090000 		.4byte	.LVL226
 3765 0b7c 541A0000 		.4byte	0x1a54
 3766 0b80 A80B0000 		.4byte	0xba8
 3767 0b84 09       		.uleb128 0x9
 3768 0b85 01       		.uleb128 0x1
 3769 0b86 50       		.byte	0x50
 3770 0b87 03       		.uleb128 0x3
 3771 0b88 0A       		.byte	0xa
 3772 0b89 0D02     		.2byte	0x20d
 3773 0b8b 09       		.uleb128 0x9
 3774 0b8c 01       		.uleb128 0x1
 3775 0b8d 51       		.byte	0x51
 3776 0b8e 01       		.uleb128 0x1
 3777 0b8f 30       		.byte	0x30
 3778 0b90 09       		.uleb128 0x9
 3779 0b91 01       		.uleb128 0x1
 3780 0b92 52       		.byte	0x52
 3781 0b93 01       		.uleb128 0x1
 3782 0b94 35       		.byte	0x35
 3783 0b95 09       		.uleb128 0x9
 3784 0b96 01       		.uleb128 0x1
 3785 0b97 53       		.byte	0x53
 3786 0b98 01       		.uleb128 0x1
 3787 0b99 30       		.byte	0x30
 3788 0b9a 09       		.uleb128 0x9
 3789 0b9b 02       		.uleb128 0x2
 3790 0b9c 7D       		.byte	0x7d
 3791 0b9d 00       		.sleb128 0
 3792 0b9e 02       		.uleb128 0x2
 3793 0b9f 08       		.byte	0x8
 3794 0ba0 C8       		.byte	0xc8
 3795 0ba1 09       		.uleb128 0x9
 3796 0ba2 02       		.uleb128 0x2
 3797 0ba3 7D       		.byte	0x7d
 3798 0ba4 04       		.sleb128 4
 3799 0ba5 01       		.uleb128 0x1
 3800 0ba6 31       		.byte	0x31
 3801 0ba7 00       		.byte	0
 3802 0ba8 06       		.uleb128 0x6
 3803 0ba9 72090000 		.4byte	.LVL227
ARM GAS  C:\Users\Misha\AppData\Local\Temp\cc40ki4b.s 			page 88


 3804 0bad 491A0000 		.4byte	0x1a49
 3805 0bb1 08       		.uleb128 0x8
 3806 0bb2 88090000 		.4byte	.LVL230
 3807 0bb6 541A0000 		.4byte	0x1a54
 3808 0bba E10B0000 		.4byte	0xbe1
 3809 0bbe 09       		.uleb128 0x9
 3810 0bbf 01       		.uleb128 0x1
 3811 0bc0 50       		.byte	0x50
 3812 0bc1 02       		.uleb128 0x2
 3813 0bc2 08       		.byte	0x8
 3814 0bc3 FA       		.byte	0xfa
 3815 0bc4 09       		.uleb128 0x9
 3816 0bc5 01       		.uleb128 0x1
 3817 0bc6 51       		.byte	0x51
 3818 0bc7 01       		.uleb128 0x1
 3819 0bc8 30       		.byte	0x30
 3820 0bc9 09       		.uleb128 0x9
 3821 0bca 01       		.uleb128 0x1
 3822 0bcb 52       		.byte	0x52
 3823 0bcc 01       		.uleb128 0x1
 3824 0bcd 35       		.byte	0x35
 3825 0bce 09       		.uleb128 0x9
 3826 0bcf 01       		.uleb128 0x1
 3827 0bd0 53       		.byte	0x53
 3828 0bd1 01       		.uleb128 0x1
 3829 0bd2 30       		.byte	0x30
 3830 0bd3 09       		.uleb128 0x9
 3831 0bd4 02       		.uleb128 0x2
 3832 0bd5 7D       		.byte	0x7d
 3833 0bd6 00       		.sleb128 0
 3834 0bd7 02       		.uleb128 0x2
 3835 0bd8 08       		.byte	0x8
 3836 0bd9 C8       		.byte	0xc8
 3837 0bda 09       		.uleb128 0x9
 3838 0bdb 02       		.uleb128 0x2
 3839 0bdc 7D       		.byte	0x7d
 3840 0bdd 04       		.sleb128 4
 3841 0bde 01       		.uleb128 0x1
 3842 0bdf 31       		.byte	0x31
 3843 0be0 00       		.byte	0
 3844 0be1 08       		.uleb128 0x8
 3845 0be2 90090000 		.4byte	.LVL231
 3846 0be6 801A0000 		.4byte	0x1a80
 3847 0bea FA0B0000 		.4byte	0xbfa
 3848 0bee 09       		.uleb128 0x9
 3849 0bef 01       		.uleb128 0x1
 3850 0bf0 50       		.byte	0x50
 3851 0bf1 01       		.uleb128 0x1
 3852 0bf2 32       		.byte	0x32
 3853 0bf3 09       		.uleb128 0x9
 3854 0bf4 01       		.uleb128 0x1
 3855 0bf5 51       		.byte	0x51
 3856 0bf6 02       		.uleb128 0x2
 3857 0bf7 08       		.byte	0x8
 3858 0bf8 C8       		.byte	0xc8
 3859 0bf9 00       		.byte	0
 3860 0bfa 08       		.uleb128 0x8
ARM GAS  C:\Users\Misha\AppData\Local\Temp\cc40ki4b.s 			page 89


 3861 0bfb 98090000 		.4byte	.LVL232
 3862 0bff B71A0000 		.4byte	0x1ab7
 3863 0c03 120C0000 		.4byte	0xc12
 3864 0c07 09       		.uleb128 0x9
 3865 0c08 01       		.uleb128 0x1
 3866 0c09 50       		.byte	0x50
 3867 0c0a 01       		.uleb128 0x1
 3868 0c0b 33       		.byte	0x33
 3869 0c0c 09       		.uleb128 0x9
 3870 0c0d 01       		.uleb128 0x1
 3871 0c0e 51       		.byte	0x51
 3872 0c0f 01       		.uleb128 0x1
 3873 0c10 31       		.byte	0x31
 3874 0c11 00       		.byte	0
 3875 0c12 06       		.uleb128 0x6
 3876 0c13 A2090000 		.4byte	.LVL233
 3877 0c17 491A0000 		.4byte	0x1a49
 3878 0c1b 08       		.uleb128 0x8
 3879 0c1c B4090000 		.4byte	.LVL234
 3880 0c20 541A0000 		.4byte	0x1a54
 3881 0c24 4B0C0000 		.4byte	0xc4b
 3882 0c28 09       		.uleb128 0x9
 3883 0c29 01       		.uleb128 0x1
 3884 0c2a 50       		.byte	0x50
 3885 0c2b 02       		.uleb128 0x2
 3886 0c2c 08       		.byte	0x8
 3887 0c2d 82       		.byte	0x82
 3888 0c2e 09       		.uleb128 0x9
 3889 0c2f 01       		.uleb128 0x1
 3890 0c30 51       		.byte	0x51
 3891 0c31 01       		.uleb128 0x1
 3892 0c32 31       		.byte	0x31
 3893 0c33 09       		.uleb128 0x9
 3894 0c34 01       		.uleb128 0x1
 3895 0c35 52       		.byte	0x52
 3896 0c36 01       		.uleb128 0x1
 3897 0c37 34       		.byte	0x34
 3898 0c38 09       		.uleb128 0x9
 3899 0c39 01       		.uleb128 0x1
 3900 0c3a 53       		.byte	0x53
 3901 0c3b 01       		.uleb128 0x1
 3902 0c3c 30       		.byte	0x30
 3903 0c3d 09       		.uleb128 0x9
 3904 0c3e 02       		.uleb128 0x2
 3905 0c3f 7D       		.byte	0x7d
 3906 0c40 00       		.sleb128 0
 3907 0c41 02       		.uleb128 0x2
 3908 0c42 08       		.byte	0x8
 3909 0c43 C8       		.byte	0xc8
 3910 0c44 09       		.uleb128 0x9
 3911 0c45 02       		.uleb128 0x2
 3912 0c46 7D       		.byte	0x7d
 3913 0c47 04       		.sleb128 4
 3914 0c48 01       		.uleb128 0x1
 3915 0c49 31       		.byte	0x31
 3916 0c4a 00       		.byte	0
 3917 0c4b 08       		.uleb128 0x8
ARM GAS  C:\Users\Misha\AppData\Local\Temp\cc40ki4b.s 			page 90


 3918 0c4c CA090000 		.4byte	.LVL235
 3919 0c50 541A0000 		.4byte	0x1a54
 3920 0c54 7B0C0000 		.4byte	0xc7b
 3921 0c58 09       		.uleb128 0x9
 3922 0c59 01       		.uleb128 0x1
 3923 0c5a 50       		.byte	0x50
 3924 0c5b 02       		.uleb128 0x2
 3925 0c5c 08       		.byte	0x8
 3926 0c5d 5F       		.byte	0x5f
 3927 0c5e 09       		.uleb128 0x9
 3928 0c5f 01       		.uleb128 0x1
 3929 0c60 51       		.byte	0x51
 3930 0c61 01       		.uleb128 0x1
 3931 0c62 31       		.byte	0x31
 3932 0c63 09       		.uleb128 0x9
 3933 0c64 01       		.uleb128 0x1
 3934 0c65 52       		.byte	0x52
 3935 0c66 01       		.uleb128 0x1
 3936 0c67 34       		.byte	0x34
 3937 0c68 09       		.uleb128 0x9
 3938 0c69 01       		.uleb128 0x1
 3939 0c6a 53       		.byte	0x53
 3940 0c6b 01       		.uleb128 0x1
 3941 0c6c 35       		.byte	0x35
 3942 0c6d 09       		.uleb128 0x9
 3943 0c6e 02       		.uleb128 0x2
 3944 0c6f 7D       		.byte	0x7d
 3945 0c70 00       		.sleb128 0
 3946 0c71 02       		.uleb128 0x2
 3947 0c72 08       		.byte	0x8
 3948 0c73 46       		.byte	0x46
 3949 0c74 09       		.uleb128 0x9
 3950 0c75 02       		.uleb128 0x2
 3951 0c76 7D       		.byte	0x7d
 3952 0c77 04       		.sleb128 4
 3953 0c78 01       		.uleb128 0x1
 3954 0c79 30       		.byte	0x30
 3955 0c7a 00       		.byte	0
 3956 0c7b 08       		.uleb128 0x8
 3957 0c7c D4090000 		.4byte	.LVL236
 3958 0c80 B71A0000 		.4byte	0x1ab7
 3959 0c84 8E0C0000 		.4byte	0xc8e
 3960 0c88 09       		.uleb128 0x9
 3961 0c89 01       		.uleb128 0x1
 3962 0c8a 51       		.byte	0x51
 3963 0c8b 01       		.uleb128 0x1
 3964 0c8c 30       		.byte	0x30
 3965 0c8d 00       		.byte	0
 3966 0c8e 08       		.uleb128 0x8
 3967 0c8f DC090000 		.4byte	.LVL237
 3968 0c93 B71A0000 		.4byte	0x1ab7
 3969 0c97 A60C0000 		.4byte	0xca6
 3970 0c9b 09       		.uleb128 0x9
 3971 0c9c 01       		.uleb128 0x1
 3972 0c9d 50       		.byte	0x50
 3973 0c9e 01       		.uleb128 0x1
 3974 0c9f 33       		.byte	0x33
ARM GAS  C:\Users\Misha\AppData\Local\Temp\cc40ki4b.s 			page 91


 3975 0ca0 09       		.uleb128 0x9
 3976 0ca1 01       		.uleb128 0x1
 3977 0ca2 51       		.byte	0x51
 3978 0ca3 01       		.uleb128 0x1
 3979 0ca4 30       		.byte	0x30
 3980 0ca5 00       		.byte	0
 3981 0ca6 08       		.uleb128 0x8
 3982 0ca7 060A0000 		.4byte	.LVL238
 3983 0cab A11A0000 		.4byte	0x1aa1
 3984 0caf C60C0000 		.4byte	0xcc6
 3985 0cb3 09       		.uleb128 0x9
 3986 0cb4 01       		.uleb128 0x1
 3987 0cb5 50       		.byte	0x50
 3988 0cb6 03       		.uleb128 0x3
 3989 0cb7 0B       		.byte	0xb
 3990 0cb8 6AFF     		.2byte	0xff6a
 3991 0cba 09       		.uleb128 0x9
 3992 0cbb 01       		.uleb128 0x1
 3993 0cbc 51       		.byte	0x51
 3994 0cbd 02       		.uleb128 0x2
 3995 0cbe 08       		.byte	0x8
 3996 0cbf C8       		.byte	0xc8
 3997 0cc0 09       		.uleb128 0x9
 3998 0cc1 01       		.uleb128 0x1
 3999 0cc2 52       		.byte	0x52
 4000 0cc3 01       		.uleb128 0x1
 4001 0cc4 31       		.byte	0x31
 4002 0cc5 00       		.byte	0
 4003 0cc6 08       		.uleb128 0x8
 4004 0cc7 0E0A0000 		.4byte	.LVL239
 4005 0ccb 801A0000 		.4byte	0x1a80
 4006 0ccf DF0C0000 		.4byte	0xcdf
 4007 0cd3 09       		.uleb128 0x9
 4008 0cd4 01       		.uleb128 0x1
 4009 0cd5 50       		.byte	0x50
 4010 0cd6 01       		.uleb128 0x1
 4011 0cd7 33       		.byte	0x33
 4012 0cd8 09       		.uleb128 0x9
 4013 0cd9 01       		.uleb128 0x1
 4014 0cda 51       		.byte	0x51
 4015 0cdb 02       		.uleb128 0x2
 4016 0cdc 08       		.byte	0x8
 4017 0cdd C8       		.byte	0xc8
 4018 0cde 00       		.byte	0
 4019 0cdf 06       		.uleb128 0x6
 4020 0ce0 120A0000 		.4byte	.LVL240
 4021 0ce4 491A0000 		.4byte	0x1a49
 4022 0ce8 08       		.uleb128 0x8
 4023 0ce9 280A0000 		.4byte	.LVL241
 4024 0ced 541A0000 		.4byte	0x1a54
 4025 0cf1 1A0D0000 		.4byte	0xd1a
 4026 0cf5 09       		.uleb128 0x9
 4027 0cf6 01       		.uleb128 0x1
 4028 0cf7 50       		.byte	0x50
 4029 0cf8 03       		.uleb128 0x3
 4030 0cf9 0A       		.byte	0xa
 4031 0cfa 2602     		.2byte	0x226
ARM GAS  C:\Users\Misha\AppData\Local\Temp\cc40ki4b.s 			page 92


 4032 0cfc 09       		.uleb128 0x9
 4033 0cfd 01       		.uleb128 0x1
 4034 0cfe 51       		.byte	0x51
 4035 0cff 01       		.uleb128 0x1
 4036 0d00 30       		.byte	0x30
 4037 0d01 09       		.uleb128 0x9
 4038 0d02 01       		.uleb128 0x1
 4039 0d03 52       		.byte	0x52
 4040 0d04 01       		.uleb128 0x1
 4041 0d05 35       		.byte	0x35
 4042 0d06 09       		.uleb128 0x9
 4043 0d07 01       		.uleb128 0x1
 4044 0d08 53       		.byte	0x53
 4045 0d09 01       		.uleb128 0x1
 4046 0d0a 30       		.byte	0x30
 4047 0d0b 09       		.uleb128 0x9
 4048 0d0c 02       		.uleb128 0x2
 4049 0d0d 7D       		.byte	0x7d
 4050 0d0e 00       		.sleb128 0
 4051 0d0f 02       		.uleb128 0x2
 4052 0d10 75       		.byte	0x75
 4053 0d11 00       		.sleb128 0
 4054 0d12 09       		.uleb128 0x9
 4055 0d13 02       		.uleb128 0x2
 4056 0d14 7D       		.byte	0x7d
 4057 0d15 04       		.sleb128 4
 4058 0d16 02       		.uleb128 0x2
 4059 0d17 74       		.byte	0x74
 4060 0d18 00       		.sleb128 0
 4061 0d19 00       		.byte	0
 4062 0d1a 06       		.uleb128 0x6
 4063 0d1b 2C0A0000 		.4byte	.LVL242
 4064 0d1f 491A0000 		.4byte	0x1a49
 4065 0d23 08       		.uleb128 0x8
 4066 0d24 340A0000 		.4byte	.LVL243
 4067 0d28 801A0000 		.4byte	0x1a80
 4068 0d2c 3C0D0000 		.4byte	0xd3c
 4069 0d30 09       		.uleb128 0x9
 4070 0d31 01       		.uleb128 0x1
 4071 0d32 50       		.byte	0x50
 4072 0d33 01       		.uleb128 0x1
 4073 0d34 32       		.byte	0x32
 4074 0d35 09       		.uleb128 0x9
 4075 0d36 01       		.uleb128 0x1
 4076 0d37 51       		.byte	0x51
 4077 0d38 02       		.uleb128 0x2
 4078 0d39 75       		.byte	0x75
 4079 0d3a 00       		.sleb128 0
 4080 0d3b 00       		.byte	0
 4081 0d3c 08       		.uleb128 0x8
 4082 0d3d 3C0A0000 		.4byte	.LVL244
 4083 0d41 801A0000 		.4byte	0x1a80
 4084 0d45 560D0000 		.4byte	0xd56
 4085 0d49 09       		.uleb128 0x9
 4086 0d4a 01       		.uleb128 0x1
 4087 0d4b 50       		.byte	0x50
 4088 0d4c 02       		.uleb128 0x2
ARM GAS  C:\Users\Misha\AppData\Local\Temp\cc40ki4b.s 			page 93


 4089 0d4d 74       		.byte	0x74
 4090 0d4e 00       		.sleb128 0
 4091 0d4f 09       		.uleb128 0x9
 4092 0d50 01       		.uleb128 0x1
 4093 0d51 51       		.byte	0x51
 4094 0d52 02       		.uleb128 0x2
 4095 0d53 75       		.byte	0x75
 4096 0d54 00       		.sleb128 0
 4097 0d55 00       		.byte	0
 4098 0d56 08       		.uleb128 0x8
 4099 0d57 4C0A0000 		.4byte	.LVL245
 4100 0d5b 541A0000 		.4byte	0x1a54
 4101 0d5f 880D0000 		.4byte	0xd88
 4102 0d63 09       		.uleb128 0x9
 4103 0d64 01       		.uleb128 0x1
 4104 0d65 50       		.byte	0x50
 4105 0d66 02       		.uleb128 0x2
 4106 0d67 08       		.byte	0x8
 4107 0d68 B9       		.byte	0xb9
 4108 0d69 09       		.uleb128 0x9
 4109 0d6a 01       		.uleb128 0x1
 4110 0d6b 51       		.byte	0x51
 4111 0d6c 02       		.uleb128 0x2
 4112 0d6d 74       		.byte	0x74
 4113 0d6e 00       		.sleb128 0
 4114 0d6f 09       		.uleb128 0x9
 4115 0d70 01       		.uleb128 0x1
 4116 0d71 52       		.byte	0x52
 4117 0d72 01       		.uleb128 0x1
 4118 0d73 34       		.byte	0x34
 4119 0d74 09       		.uleb128 0x9
 4120 0d75 01       		.uleb128 0x1
 4121 0d76 53       		.byte	0x53
 4122 0d77 01       		.uleb128 0x1
 4123 0d78 30       		.byte	0x30
 4124 0d79 09       		.uleb128 0x9
 4125 0d7a 02       		.uleb128 0x2
 4126 0d7b 7D       		.byte	0x7d
 4127 0d7c 00       		.sleb128 0
 4128 0d7d 02       		.uleb128 0x2
 4129 0d7e 75       		.byte	0x75
 4130 0d7f 00       		.sleb128 0
 4131 0d80 09       		.uleb128 0x9
 4132 0d81 02       		.uleb128 0x2
 4133 0d82 7D       		.byte	0x7d
 4134 0d83 04       		.sleb128 4
 4135 0d84 02       		.uleb128 0x2
 4136 0d85 74       		.byte	0x74
 4137 0d86 00       		.sleb128 0
 4138 0d87 00       		.byte	0
 4139 0d88 06       		.uleb128 0x6
 4140 0d89 500A0000 		.4byte	.LVL246
 4141 0d8d 491A0000 		.4byte	0x1a49
 4142 0d91 00       		.byte	0
 4143 0d92 06       		.uleb128 0x6
 4144 0d93 0C000000 		.4byte	.LVL3
 4145 0d97 D81A0000 		.4byte	0x1ad8
ARM GAS  C:\Users\Misha\AppData\Local\Temp\cc40ki4b.s 			page 94


 4146 0d9b 06       		.uleb128 0x6
 4147 0d9c 10000000 		.4byte	.LVL4
 4148 0da0 E31A0000 		.4byte	0x1ae3
 4149 0da4 08       		.uleb128 0x8
 4150 0da5 16000000 		.4byte	.LVL5
 4151 0da9 1D1A0000 		.4byte	0x1a1d
 4152 0dad BB0D0000 		.4byte	0xdbb
 4153 0db1 09       		.uleb128 0x9
 4154 0db2 01       		.uleb128 0x1
 4155 0db3 50       		.byte	0x50
 4156 0db4 05       		.uleb128 0x5
 4157 0db5 03       		.byte	0x3
 4158 0db6 18000000 		.4byte	.LC1
 4159 0dba 00       		.byte	0
 4160 0dbb 06       		.uleb128 0x6
 4161 0dbc 1A000000 		.4byte	.LVL6
 4162 0dc0 EE1A0000 		.4byte	0x1aee
 4163 0dc4 06       		.uleb128 0x6
 4164 0dc5 1E000000 		.4byte	.LVL7
 4165 0dc9 F91A0000 		.4byte	0x1af9
 4166 0dcd 08       		.uleb128 0x8
 4167 0dce 24000000 		.4byte	.LVL8
 4168 0dd2 041B0000 		.4byte	0x1b04
 4169 0dd6 E00D0000 		.4byte	0xde0
 4170 0dda 09       		.uleb128 0x9
 4171 0ddb 01       		.uleb128 0x1
 4172 0ddc 50       		.byte	0x50
 4173 0ddd 01       		.uleb128 0x1
 4174 0dde 30       		.byte	0x30
 4175 0ddf 00       		.byte	0
 4176 0de0 06       		.uleb128 0x6
 4177 0de1 2C000000 		.4byte	.LVL9
 4178 0de5 0F1B0000 		.4byte	0x1b0f
 4179 0de9 08       		.uleb128 0x8
 4180 0dea 36000000 		.4byte	.LVL10
 4181 0dee 6A1A0000 		.4byte	0x1a6a
 4182 0df2 FD0D0000 		.4byte	0xdfd
 4183 0df6 09       		.uleb128 0x9
 4184 0df7 01       		.uleb128 0x1
 4185 0df8 50       		.byte	0x50
 4186 0df9 02       		.uleb128 0x2
 4187 0dfa 75       		.byte	0x75
 4188 0dfb 00       		.sleb128 0
 4189 0dfc 00       		.byte	0
 4190 0dfd 08       		.uleb128 0x8
 4191 0dfe 3C000000 		.4byte	.LVL11
 4192 0e02 1A1B0000 		.4byte	0x1b1a
 4193 0e06 100E0000 		.4byte	0xe10
 4194 0e0a 09       		.uleb128 0x9
 4195 0e0b 01       		.uleb128 0x1
 4196 0e0c 50       		.byte	0x50
 4197 0e0d 01       		.uleb128 0x1
 4198 0e0e 31       		.byte	0x31
 4199 0e0f 00       		.byte	0
 4200 0e10 08       		.uleb128 0x8
 4201 0e11 44000000 		.4byte	.LVL12
 4202 0e15 121A0000 		.4byte	0x1a12
ARM GAS  C:\Users\Misha\AppData\Local\Temp\cc40ki4b.s 			page 95


 4203 0e19 250E0000 		.4byte	0xe25
 4204 0e1d 09       		.uleb128 0x9
 4205 0e1e 01       		.uleb128 0x1
 4206 0e1f 50       		.byte	0x50
 4207 0e20 03       		.uleb128 0x3
 4208 0e21 0A       		.byte	0xa
 4209 0e22 F401     		.2byte	0x1f4
 4210 0e24 00       		.byte	0
 4211 0e25 08       		.uleb128 0x8
 4212 0e26 4A000000 		.4byte	.LVL13
 4213 0e2a 1A1B0000 		.4byte	0x1b1a
 4214 0e2e 380E0000 		.4byte	0xe38
 4215 0e32 09       		.uleb128 0x9
 4216 0e33 01       		.uleb128 0x1
 4217 0e34 50       		.byte	0x50
 4218 0e35 01       		.uleb128 0x1
 4219 0e36 32       		.byte	0x32
 4220 0e37 00       		.byte	0
 4221 0e38 08       		.uleb128 0x8
 4222 0e39 52000000 		.4byte	.LVL14
 4223 0e3d 121A0000 		.4byte	0x1a12
 4224 0e41 4D0E0000 		.4byte	0xe4d
 4225 0e45 09       		.uleb128 0x9
 4226 0e46 01       		.uleb128 0x1
 4227 0e47 50       		.byte	0x50
 4228 0e48 03       		.uleb128 0x3
 4229 0e49 0A       		.byte	0xa
 4230 0e4a F401     		.2byte	0x1f4
 4231 0e4c 00       		.byte	0
 4232 0e4d 08       		.uleb128 0x8
 4233 0e4e 58000000 		.4byte	.LVL15
 4234 0e52 1A1B0000 		.4byte	0x1b1a
 4235 0e56 600E0000 		.4byte	0xe60
 4236 0e5a 09       		.uleb128 0x9
 4237 0e5b 01       		.uleb128 0x1
 4238 0e5c 50       		.byte	0x50
 4239 0e5d 01       		.uleb128 0x1
 4240 0e5e 33       		.byte	0x33
 4241 0e5f 00       		.byte	0
 4242 0e60 08       		.uleb128 0x8
 4243 0e61 60000000 		.4byte	.LVL16
 4244 0e65 121A0000 		.4byte	0x1a12
 4245 0e69 750E0000 		.4byte	0xe75
 4246 0e6d 09       		.uleb128 0x9
 4247 0e6e 01       		.uleb128 0x1
 4248 0e6f 50       		.byte	0x50
 4249 0e70 03       		.uleb128 0x3
 4250 0e71 0A       		.byte	0xa
 4251 0e72 F401     		.2byte	0x1f4
 4252 0e74 00       		.byte	0
 4253 0e75 08       		.uleb128 0x8
 4254 0e76 66000000 		.4byte	.LVL17
 4255 0e7a 1A1B0000 		.4byte	0x1b1a
 4256 0e7e 890E0000 		.4byte	0xe89
 4257 0e82 09       		.uleb128 0x9
 4258 0e83 01       		.uleb128 0x1
 4259 0e84 50       		.byte	0x50
ARM GAS  C:\Users\Misha\AppData\Local\Temp\cc40ki4b.s 			page 96


 4260 0e85 02       		.uleb128 0x2
 4261 0e86 75       		.byte	0x75
 4262 0e87 00       		.sleb128 0
 4263 0e88 00       		.byte	0
 4264 0e89 08       		.uleb128 0x8
 4265 0e8a 6E000000 		.4byte	.LVL18
 4266 0e8e 121A0000 		.4byte	0x1a12
 4267 0e92 9E0E0000 		.4byte	0xe9e
 4268 0e96 09       		.uleb128 0x9
 4269 0e97 01       		.uleb128 0x1
 4270 0e98 50       		.byte	0x50
 4271 0e99 03       		.uleb128 0x3
 4272 0e9a 0A       		.byte	0xa
 4273 0e9b F401     		.2byte	0x1f4
 4274 0e9d 00       		.byte	0
 4275 0e9e 06       		.uleb128 0x6
 4276 0e9f 72000000 		.4byte	.LVL19
 4277 0ea3 5F1A0000 		.4byte	0x1a5f
 4278 0ea7 06       		.uleb128 0x6
 4279 0ea8 76000000 		.4byte	.LVL20
 4280 0eac 251B0000 		.4byte	0x1b25
 4281 0eb0 08       		.uleb128 0x8
 4282 0eb1 7E000000 		.4byte	.LVL21
 4283 0eb5 301B0000 		.4byte	0x1b30
 4284 0eb9 C50E0000 		.4byte	0xec5
 4285 0ebd 09       		.uleb128 0x9
 4286 0ebe 01       		.uleb128 0x1
 4287 0ebf 50       		.byte	0x50
 4288 0ec0 03       		.uleb128 0x3
 4289 0ec1 0A       		.byte	0xa
 4290 0ec2 E803     		.2byte	0x3e8
 4291 0ec4 00       		.byte	0
 4292 0ec5 08       		.uleb128 0x8
 4293 0ec6 86000000 		.4byte	.LVL22
 4294 0eca 121A0000 		.4byte	0x1a12
 4295 0ece DA0E0000 		.4byte	0xeda
 4296 0ed2 09       		.uleb128 0x9
 4297 0ed3 01       		.uleb128 0x1
 4298 0ed4 50       		.byte	0x50
 4299 0ed5 03       		.uleb128 0x3
 4300 0ed6 0A       		.byte	0xa
 4301 0ed7 F401     		.2byte	0x1f4
 4302 0ed9 00       		.byte	0
 4303 0eda 06       		.uleb128 0x6
 4304 0edb 8A000000 		.4byte	.LVL23
 4305 0edf 3B1B0000 		.4byte	0x1b3b
 4306 0ee3 06       		.uleb128 0x6
 4307 0ee4 8E000000 		.4byte	.LVL24
 4308 0ee8 461B0000 		.4byte	0x1b46
 4309 0eec 08       		.uleb128 0x8
 4310 0eed 96000000 		.4byte	.LVL25
 4311 0ef1 511B0000 		.4byte	0x1b51
 4312 0ef5 010F0000 		.4byte	0xf01
 4313 0ef9 09       		.uleb128 0x9
 4314 0efa 01       		.uleb128 0x1
 4315 0efb 50       		.byte	0x50
 4316 0efc 03       		.uleb128 0x3
ARM GAS  C:\Users\Misha\AppData\Local\Temp\cc40ki4b.s 			page 97


 4317 0efd 0A       		.byte	0xa
 4318 0efe 6004     		.2byte	0x460
 4319 0f00 00       		.byte	0
 4320 0f01 08       		.uleb128 0x8
 4321 0f02 9E000000 		.4byte	.LVL26
 4322 0f06 121A0000 		.4byte	0x1a12
 4323 0f0a 160F0000 		.4byte	0xf16
 4324 0f0e 09       		.uleb128 0x9
 4325 0f0f 01       		.uleb128 0x1
 4326 0f10 50       		.byte	0x50
 4327 0f11 03       		.uleb128 0x3
 4328 0f12 0A       		.byte	0xa
 4329 0f13 F401     		.2byte	0x1f4
 4330 0f15 00       		.byte	0
 4331 0f16 06       		.uleb128 0x6
 4332 0f17 A2000000 		.4byte	.LVL27
 4333 0f1b 5C1B0000 		.4byte	0x1b5c
 4334 0f1f 06       		.uleb128 0x6
 4335 0f20 A6000000 		.4byte	.LVL28
 4336 0f24 671B0000 		.4byte	0x1b67
 4337 0f28 06       		.uleb128 0x6
 4338 0f29 AA000000 		.4byte	.LVL29
 4339 0f2d 721B0000 		.4byte	0x1b72
 4340 0f31 08       		.uleb128 0x8
 4341 0f32 B0000000 		.4byte	.LVL30
 4342 0f36 7D1B0000 		.4byte	0x1b7d
 4343 0f3a 450F0000 		.4byte	0xf45
 4344 0f3e 09       		.uleb128 0x9
 4345 0f3f 01       		.uleb128 0x1
 4346 0f40 50       		.byte	0x50
 4347 0f41 02       		.uleb128 0x2
 4348 0f42 75       		.byte	0x75
 4349 0f43 00       		.sleb128 0
 4350 0f44 00       		.byte	0
 4351 0f45 08       		.uleb128 0x8
 4352 0f46 B6000000 		.4byte	.LVL31
 4353 0f4a 881B0000 		.4byte	0x1b88
 4354 0f4e 590F0000 		.4byte	0xf59
 4355 0f52 09       		.uleb128 0x9
 4356 0f53 01       		.uleb128 0x1
 4357 0f54 50       		.byte	0x50
 4358 0f55 02       		.uleb128 0x2
 4359 0f56 75       		.byte	0x75
 4360 0f57 00       		.sleb128 0
 4361 0f58 00       		.byte	0
 4362 0f59 06       		.uleb128 0x6
 4363 0f5a BA000000 		.4byte	.LVL32
 4364 0f5e 931B0000 		.4byte	0x1b93
 4365 0f62 06       		.uleb128 0x6
 4366 0f63 BE000000 		.4byte	.LVL33
 4367 0f67 9E1B0000 		.4byte	0x1b9e
 4368 0f6b 06       		.uleb128 0x6
 4369 0f6c C2000000 		.4byte	.LVL34
 4370 0f70 A91B0000 		.4byte	0x1ba9
 4371 0f74 06       		.uleb128 0x6
 4372 0f75 C6000000 		.4byte	.LVL35
 4373 0f79 B41B0000 		.4byte	0x1bb4
ARM GAS  C:\Users\Misha\AppData\Local\Temp\cc40ki4b.s 			page 98


 4374 0f7d 06       		.uleb128 0x6
 4375 0f7e D0000000 		.4byte	.LVL36
 4376 0f82 BF1B0000 		.4byte	0x1bbf
 4377 0f86 06       		.uleb128 0x6
 4378 0f87 D4000000 		.4byte	.LVL37
 4379 0f8b CA1B0000 		.4byte	0x1bca
 4380 0f8f 08       		.uleb128 0x8
 4381 0f90 DA000000 		.4byte	.LVL38
 4382 0f94 D51B0000 		.4byte	0x1bd5
 4383 0f98 A60F0000 		.4byte	0xfa6
 4384 0f9c 09       		.uleb128 0x9
 4385 0f9d 01       		.uleb128 0x1
 4386 0f9e 50       		.byte	0x50
 4387 0f9f 05       		.uleb128 0x5
 4388 0fa0 03       		.byte	0x3
 4389 0fa1 00000000 		.4byte	TIH
 4390 0fa5 00       		.byte	0
 4391 0fa6 08       		.uleb128 0x8
 4392 0fa7 E0000000 		.4byte	.LVL39
 4393 0fab E01B0000 		.4byte	0x1be0
 4394 0faf BD0F0000 		.4byte	0xfbd
 4395 0fb3 09       		.uleb128 0x9
 4396 0fb4 01       		.uleb128 0x1
 4397 0fb5 50       		.byte	0x50
 4398 0fb6 05       		.uleb128 0x5
 4399 0fb7 03       		.byte	0x3
 4400 0fb8 00000000 		.4byte	StartIH
 4401 0fbc 00       		.byte	0
 4402 0fbd 08       		.uleb128 0x8
 4403 0fbe EA000000 		.4byte	.LVL40
 4404 0fc2 1D1A0000 		.4byte	0x1a1d
 4405 0fc6 D40F0000 		.4byte	0xfd4
 4406 0fca 09       		.uleb128 0x9
 4407 0fcb 01       		.uleb128 0x1
 4408 0fcc 50       		.byte	0x50
 4409 0fcd 05       		.uleb128 0x5
 4410 0fce 03       		.byte	0x3
 4411 0fcf 30000000 		.4byte	.LC2
 4412 0fd3 00       		.byte	0
 4413 0fd4 06       		.uleb128 0x6
 4414 0fd5 EE000000 		.4byte	.LVL41
 4415 0fd9 EB1B0000 		.4byte	0x1beb
 4416 0fdd 06       		.uleb128 0x6
 4417 0fde F2000000 		.4byte	.LVL42
 4418 0fe2 EB1B0000 		.4byte	0x1beb
 4419 0fe6 06       		.uleb128 0x6
 4420 0fe7 F6000000 		.4byte	.LVL43
 4421 0feb EB1B0000 		.4byte	0x1beb
 4422 0fef 08       		.uleb128 0x8
 4423 0ff0 AE050000 		.4byte	.LVL153
 4424 0ff4 541A0000 		.4byte	0x1a54
 4425 0ff8 20100000 		.4byte	0x1020
 4426 0ffc 09       		.uleb128 0x9
 4427 0ffd 01       		.uleb128 0x1
 4428 0ffe 50       		.byte	0x50
 4429 0fff 02       		.uleb128 0x2
 4430 1000 08       		.byte	0x8
ARM GAS  C:\Users\Misha\AppData\Local\Temp\cc40ki4b.s 			page 99


 4431 1001 AF       		.byte	0xaf
 4432 1002 09       		.uleb128 0x9
 4433 1003 01       		.uleb128 0x1
 4434 1004 51       		.byte	0x51
 4435 1005 01       		.uleb128 0x1
 4436 1006 30       		.byte	0x30
 4437 1007 09       		.uleb128 0x9
 4438 1008 01       		.uleb128 0x1
 4439 1009 52       		.byte	0x52
 4440 100a 01       		.uleb128 0x1
 4441 100b 35       		.byte	0x35
 4442 100c 09       		.uleb128 0x9
 4443 100d 01       		.uleb128 0x1
 4444 100e 53       		.byte	0x53
 4445 100f 01       		.uleb128 0x1
 4446 1010 30       		.byte	0x30
 4447 1011 09       		.uleb128 0x9
 4448 1012 02       		.uleb128 0x2
 4449 1013 7D       		.byte	0x7d
 4450 1014 00       		.sleb128 0
 4451 1015 02       		.uleb128 0x2
 4452 1016 74       		.byte	0x74
 4453 1017 00       		.sleb128 0
 4454 1018 09       		.uleb128 0x9
 4455 1019 02       		.uleb128 0x2
 4456 101a 7D       		.byte	0x7d
 4457 101b 04       		.sleb128 4
 4458 101c 02       		.uleb128 0x2
 4459 101d 75       		.byte	0x75
 4460 101e 00       		.sleb128 0
 4461 101f 00       		.byte	0
 4462 1020 06       		.uleb128 0x6
 4463 1021 B2050000 		.4byte	.LVL154
 4464 1025 491A0000 		.4byte	0x1a49
 4465 1029 08       		.uleb128 0x8
 4466 102a BA050000 		.4byte	.LVL155
 4467 102e 801A0000 		.4byte	0x1a80
 4468 1032 42100000 		.4byte	0x1042
 4469 1036 09       		.uleb128 0x9
 4470 1037 01       		.uleb128 0x1
 4471 1038 50       		.byte	0x50
 4472 1039 01       		.uleb128 0x1
 4473 103a 30       		.byte	0x30
 4474 103b 09       		.uleb128 0x9
 4475 103c 01       		.uleb128 0x1
 4476 103d 51       		.byte	0x51
 4477 103e 02       		.uleb128 0x2
 4478 103f 74       		.byte	0x74
 4479 1040 00       		.sleb128 0
 4480 1041 00       		.byte	0
 4481 1042 08       		.uleb128 0x8
 4482 1043 D6050000 		.4byte	.LVL156
 4483 1047 541A0000 		.4byte	0x1a54
 4484 104b 6E100000 		.4byte	0x106e
 4485 104f 09       		.uleb128 0x9
 4486 1050 01       		.uleb128 0x1
 4487 1051 51       		.byte	0x51
ARM GAS  C:\Users\Misha\AppData\Local\Temp\cc40ki4b.s 			page 100


 4488 1052 02       		.uleb128 0x2
 4489 1053 75       		.byte	0x75
 4490 1054 00       		.sleb128 0
 4491 1055 09       		.uleb128 0x9
 4492 1056 01       		.uleb128 0x1
 4493 1057 52       		.byte	0x52
 4494 1058 01       		.uleb128 0x1
 4495 1059 34       		.byte	0x34
 4496 105a 09       		.uleb128 0x9
 4497 105b 01       		.uleb128 0x1
 4498 105c 53       		.byte	0x53
 4499 105d 01       		.uleb128 0x1
 4500 105e 30       		.byte	0x30
 4501 105f 09       		.uleb128 0x9
 4502 1060 02       		.uleb128 0x2
 4503 1061 7D       		.byte	0x7d
 4504 1062 00       		.sleb128 0
 4505 1063 02       		.uleb128 0x2
 4506 1064 74       		.byte	0x74
 4507 1065 00       		.sleb128 0
 4508 1066 09       		.uleb128 0x9
 4509 1067 02       		.uleb128 0x2
 4510 1068 7D       		.byte	0x7d
 4511 1069 04       		.sleb128 4
 4512 106a 02       		.uleb128 0x2
 4513 106b 75       		.byte	0x75
 4514 106c 00       		.sleb128 0
 4515 106d 00       		.byte	0
 4516 106e 06       		.uleb128 0x6
 4517 106f DA050000 		.4byte	.LVL157
 4518 1073 491A0000 		.4byte	0x1a49
 4519 1077 08       		.uleb128 0x8
 4520 1078 E2050000 		.4byte	.LVL158
 4521 107c 801A0000 		.4byte	0x1a80
 4522 1080 90100000 		.4byte	0x1090
 4523 1084 09       		.uleb128 0x9
 4524 1085 01       		.uleb128 0x1
 4525 1086 50       		.byte	0x50
 4526 1087 01       		.uleb128 0x1
 4527 1088 33       		.byte	0x33
 4528 1089 09       		.uleb128 0x9
 4529 108a 01       		.uleb128 0x1
 4530 108b 51       		.byte	0x51
 4531 108c 02       		.uleb128 0x2
 4532 108d 74       		.byte	0x74
 4533 108e 00       		.sleb128 0
 4534 108f 00       		.byte	0
 4535 1090 08       		.uleb128 0x8
 4536 1091 48060000 		.4byte	.LVL159
 4537 1095 541A0000 		.4byte	0x1a54
 4538 1099 C0100000 		.4byte	0x10c0
 4539 109d 09       		.uleb128 0x9
 4540 109e 01       		.uleb128 0x1
 4541 109f 50       		.byte	0x50
 4542 10a0 01       		.uleb128 0x1
 4543 10a1 3A       		.byte	0x3a
 4544 10a2 09       		.uleb128 0x9
ARM GAS  C:\Users\Misha\AppData\Local\Temp\cc40ki4b.s 			page 101


 4545 10a3 01       		.uleb128 0x1
 4546 10a4 51       		.byte	0x51
 4547 10a5 01       		.uleb128 0x1
 4548 10a6 30       		.byte	0x30
 4549 10a7 09       		.uleb128 0x9
 4550 10a8 01       		.uleb128 0x1
 4551 10a9 52       		.byte	0x52
 4552 10aa 01       		.uleb128 0x1
 4553 10ab 34       		.byte	0x34
 4554 10ac 09       		.uleb128 0x9
 4555 10ad 01       		.uleb128 0x1
 4556 10ae 53       		.byte	0x53
 4557 10af 01       		.uleb128 0x1
 4558 10b0 34       		.byte	0x34
 4559 10b1 09       		.uleb128 0x9
 4560 10b2 02       		.uleb128 0x2
 4561 10b3 7D       		.byte	0x7d
 4562 10b4 00       		.sleb128 0
 4563 10b5 02       		.uleb128 0x2
 4564 10b6 75       		.byte	0x75
 4565 10b7 00       		.sleb128 0
 4566 10b8 09       		.uleb128 0x9
 4567 10b9 02       		.uleb128 0x2
 4568 10ba 7D       		.byte	0x7d
 4569 10bb 04       		.sleb128 4
 4570 10bc 02       		.uleb128 0x2
 4571 10bd 74       		.byte	0x74
 4572 10be 00       		.sleb128 0
 4573 10bf 00       		.byte	0
 4574 10c0 06       		.uleb128 0x6
 4575 10c1 4C060000 		.4byte	.LVL160
 4576 10c5 491A0000 		.4byte	0x1a49
 4577 10c9 08       		.uleb128 0x8
 4578 10ca 54060000 		.4byte	.LVL161
 4579 10ce 801A0000 		.4byte	0x1a80
 4580 10d2 E2100000 		.4byte	0x10e2
 4581 10d6 09       		.uleb128 0x9
 4582 10d7 01       		.uleb128 0x1
 4583 10d8 50       		.byte	0x50
 4584 10d9 01       		.uleb128 0x1
 4585 10da 30       		.byte	0x30
 4586 10db 09       		.uleb128 0x9
 4587 10dc 01       		.uleb128 0x1
 4588 10dd 51       		.byte	0x51
 4589 10de 02       		.uleb128 0x2
 4590 10df 75       		.byte	0x75
 4591 10e0 00       		.sleb128 0
 4592 10e1 00       		.byte	0
 4593 10e2 06       		.uleb128 0x6
 4594 10e3 58060000 		.4byte	.LVL162
 4595 10e7 491A0000 		.4byte	0x1a49
 4596 10eb 08       		.uleb128 0x8
 4597 10ec 74060000 		.4byte	.LVL163
 4598 10f0 541A0000 		.4byte	0x1a54
 4599 10f4 17110000 		.4byte	0x1117
 4600 10f8 09       		.uleb128 0x9
 4601 10f9 01       		.uleb128 0x1
ARM GAS  C:\Users\Misha\AppData\Local\Temp\cc40ki4b.s 			page 102


 4602 10fa 51       		.byte	0x51
 4603 10fb 02       		.uleb128 0x2
 4604 10fc 74       		.byte	0x74
 4605 10fd 00       		.sleb128 0
 4606 10fe 09       		.uleb128 0x9
 4607 10ff 01       		.uleb128 0x1
 4608 1100 52       		.byte	0x52
 4609 1101 01       		.uleb128 0x1
 4610 1102 34       		.byte	0x34
 4611 1103 09       		.uleb128 0x9
 4612 1104 01       		.uleb128 0x1
 4613 1105 53       		.byte	0x53
 4614 1106 01       		.uleb128 0x1
 4615 1107 30       		.byte	0x30
 4616 1108 09       		.uleb128 0x9
 4617 1109 02       		.uleb128 0x2
 4618 110a 7D       		.byte	0x7d
 4619 110b 00       		.sleb128 0
 4620 110c 02       		.uleb128 0x2
 4621 110d 75       		.byte	0x75
 4622 110e 00       		.sleb128 0
 4623 110f 09       		.uleb128 0x9
 4624 1110 02       		.uleb128 0x2
 4625 1111 7D       		.byte	0x7d
 4626 1112 04       		.sleb128 4
 4627 1113 02       		.uleb128 0x2
 4628 1114 74       		.byte	0x74
 4629 1115 00       		.sleb128 0
 4630 1116 00       		.byte	0
 4631 1117 06       		.uleb128 0x6
 4632 1118 78060000 		.4byte	.LVL164
 4633 111c 491A0000 		.4byte	0x1a49
 4634 1120 08       		.uleb128 0x8
 4635 1121 80060000 		.4byte	.LVL165
 4636 1125 801A0000 		.4byte	0x1a80
 4637 1129 3A110000 		.4byte	0x113a
 4638 112d 09       		.uleb128 0x9
 4639 112e 01       		.uleb128 0x1
 4640 112f 50       		.byte	0x50
 4641 1130 02       		.uleb128 0x2
 4642 1131 74       		.byte	0x74
 4643 1132 00       		.sleb128 0
 4644 1133 09       		.uleb128 0x9
 4645 1134 01       		.uleb128 0x1
 4646 1135 51       		.byte	0x51
 4647 1136 02       		.uleb128 0x2
 4648 1137 75       		.byte	0x75
 4649 1138 00       		.sleb128 0
 4650 1139 00       		.byte	0
 4651 113a 08       		.uleb128 0x8
 4652 113b A2060000 		.4byte	.LVL166
 4653 113f 541A0000 		.4byte	0x1a54
 4654 1143 6C110000 		.4byte	0x116c
 4655 1147 09       		.uleb128 0x9
 4656 1148 01       		.uleb128 0x1
 4657 1149 50       		.byte	0x50
 4658 114a 03       		.uleb128 0x3
ARM GAS  C:\Users\Misha\AppData\Local\Temp\cc40ki4b.s 			page 103


 4659 114b 0B       		.byte	0xb
 4660 114c 1AFF     		.2byte	0xff1a
 4661 114e 09       		.uleb128 0x9
 4662 114f 01       		.uleb128 0x1
 4663 1150 51       		.byte	0x51
 4664 1151 01       		.uleb128 0x1
 4665 1152 30       		.byte	0x30
 4666 1153 09       		.uleb128 0x9
 4667 1154 01       		.uleb128 0x1
 4668 1155 52       		.byte	0x52
 4669 1156 01       		.uleb128 0x1
 4670 1157 34       		.byte	0x34
 4671 1158 09       		.uleb128 0x9
 4672 1159 01       		.uleb128 0x1
 4673 115a 53       		.byte	0x53
 4674 115b 01       		.uleb128 0x1
 4675 115c 34       		.byte	0x34
 4676 115d 09       		.uleb128 0x9
 4677 115e 02       		.uleb128 0x2
 4678 115f 7D       		.byte	0x7d
 4679 1160 00       		.sleb128 0
 4680 1161 02       		.uleb128 0x2
 4681 1162 75       		.byte	0x75
 4682 1163 00       		.sleb128 0
 4683 1164 09       		.uleb128 0x9
 4684 1165 02       		.uleb128 0x2
 4685 1166 7D       		.byte	0x7d
 4686 1167 04       		.sleb128 4
 4687 1168 02       		.uleb128 0x2
 4688 1169 74       		.byte	0x74
 4689 116a 00       		.sleb128 0
 4690 116b 00       		.byte	0
 4691 116c 06       		.uleb128 0x6
 4692 116d A6060000 		.4byte	.LVL167
 4693 1171 491A0000 		.4byte	0x1a49
 4694 1175 08       		.uleb128 0x8
 4695 1176 AE060000 		.4byte	.LVL168
 4696 117a 801A0000 		.4byte	0x1a80
 4697 117e 8E110000 		.4byte	0x118e
 4698 1182 09       		.uleb128 0x9
 4699 1183 01       		.uleb128 0x1
 4700 1184 50       		.byte	0x50
 4701 1185 01       		.uleb128 0x1
 4702 1186 30       		.byte	0x30
 4703 1187 09       		.uleb128 0x9
 4704 1188 01       		.uleb128 0x1
 4705 1189 51       		.byte	0x51
 4706 118a 02       		.uleb128 0x2
 4707 118b 75       		.byte	0x75
 4708 118c 00       		.sleb128 0
 4709 118d 00       		.byte	0
 4710 118e 06       		.uleb128 0x6
 4711 118f B2060000 		.4byte	.LVL169
 4712 1193 491A0000 		.4byte	0x1a49
 4713 1197 08       		.uleb128 0x8
 4714 1198 C4060000 		.4byte	.LVL170
 4715 119c 541A0000 		.4byte	0x1a54
ARM GAS  C:\Users\Misha\AppData\Local\Temp\cc40ki4b.s 			page 104


 4716 11a0 CA110000 		.4byte	0x11ca
 4717 11a4 09       		.uleb128 0x9
 4718 11a5 01       		.uleb128 0x1
 4719 11a6 50       		.byte	0x50
 4720 11a7 03       		.uleb128 0x3
 4721 11a8 0A       		.byte	0xa
 4722 11a9 1301     		.2byte	0x113
 4723 11ab 09       		.uleb128 0x9
 4724 11ac 01       		.uleb128 0x1
 4725 11ad 51       		.byte	0x51
 4726 11ae 02       		.uleb128 0x2
 4727 11af 74       		.byte	0x74
 4728 11b0 00       		.sleb128 0
 4729 11b1 09       		.uleb128 0x9
 4730 11b2 01       		.uleb128 0x1
 4731 11b3 52       		.byte	0x52
 4732 11b4 01       		.uleb128 0x1
 4733 11b5 34       		.byte	0x34
 4734 11b6 09       		.uleb128 0x9
 4735 11b7 01       		.uleb128 0x1
 4736 11b8 53       		.byte	0x53
 4737 11b9 01       		.uleb128 0x1
 4738 11ba 30       		.byte	0x30
 4739 11bb 09       		.uleb128 0x9
 4740 11bc 02       		.uleb128 0x2
 4741 11bd 7D       		.byte	0x7d
 4742 11be 00       		.sleb128 0
 4743 11bf 02       		.uleb128 0x2
 4744 11c0 75       		.byte	0x75
 4745 11c1 00       		.sleb128 0
 4746 11c2 09       		.uleb128 0x9
 4747 11c3 02       		.uleb128 0x2
 4748 11c4 7D       		.byte	0x7d
 4749 11c5 04       		.sleb128 4
 4750 11c6 02       		.uleb128 0x2
 4751 11c7 74       		.byte	0x74
 4752 11c8 00       		.sleb128 0
 4753 11c9 00       		.byte	0
 4754 11ca 08       		.uleb128 0x8
 4755 11cb CC060000 		.4byte	.LVL171
 4756 11cf 801A0000 		.4byte	0x1a80
 4757 11d3 E4110000 		.4byte	0x11e4
 4758 11d7 09       		.uleb128 0x9
 4759 11d8 01       		.uleb128 0x1
 4760 11d9 50       		.byte	0x50
 4761 11da 02       		.uleb128 0x2
 4762 11db 74       		.byte	0x74
 4763 11dc 00       		.sleb128 0
 4764 11dd 09       		.uleb128 0x9
 4765 11de 01       		.uleb128 0x1
 4766 11df 51       		.byte	0x51
 4767 11e0 02       		.uleb128 0x2
 4768 11e1 75       		.byte	0x75
 4769 11e2 00       		.sleb128 0
 4770 11e3 00       		.byte	0
 4771 11e4 08       		.uleb128 0x8
 4772 11e5 EE060000 		.4byte	.LVL172
ARM GAS  C:\Users\Misha\AppData\Local\Temp\cc40ki4b.s 			page 105


 4773 11e9 541A0000 		.4byte	0x1a54
 4774 11ed 16120000 		.4byte	0x1216
 4775 11f1 09       		.uleb128 0x9
 4776 11f2 01       		.uleb128 0x1
 4777 11f3 50       		.byte	0x50
 4778 11f4 03       		.uleb128 0x3
 4779 11f5 0B       		.byte	0xb
 4780 11f6 1AFF     		.2byte	0xff1a
 4781 11f8 09       		.uleb128 0x9
 4782 11f9 01       		.uleb128 0x1
 4783 11fa 51       		.byte	0x51
 4784 11fb 01       		.uleb128 0x1
 4785 11fc 30       		.byte	0x30
 4786 11fd 09       		.uleb128 0x9
 4787 11fe 01       		.uleb128 0x1
 4788 11ff 52       		.byte	0x52
 4789 1200 01       		.uleb128 0x1
 4790 1201 34       		.byte	0x34
 4791 1202 09       		.uleb128 0x9
 4792 1203 01       		.uleb128 0x1
 4793 1204 53       		.byte	0x53
 4794 1205 01       		.uleb128 0x1
 4795 1206 34       		.byte	0x34
 4796 1207 09       		.uleb128 0x9
 4797 1208 02       		.uleb128 0x2
 4798 1209 7D       		.byte	0x7d
 4799 120a 00       		.sleb128 0
 4800 120b 02       		.uleb128 0x2
 4801 120c 74       		.byte	0x74
 4802 120d 00       		.sleb128 0
 4803 120e 09       		.uleb128 0x9
 4804 120f 02       		.uleb128 0x2
 4805 1210 7D       		.byte	0x7d
 4806 1211 04       		.sleb128 4
 4807 1212 02       		.uleb128 0x2
 4808 1213 75       		.byte	0x75
 4809 1214 00       		.sleb128 0
 4810 1215 00       		.byte	0
 4811 1216 06       		.uleb128 0x6
 4812 1217 F2060000 		.4byte	.LVL173
 4813 121b 491A0000 		.4byte	0x1a49
 4814 121f 08       		.uleb128 0x8
 4815 1220 FA060000 		.4byte	.LVL174
 4816 1224 801A0000 		.4byte	0x1a80
 4817 1228 38120000 		.4byte	0x1238
 4818 122c 09       		.uleb128 0x9
 4819 122d 01       		.uleb128 0x1
 4820 122e 50       		.byte	0x50
 4821 122f 01       		.uleb128 0x1
 4822 1230 30       		.byte	0x30
 4823 1231 09       		.uleb128 0x9
 4824 1232 01       		.uleb128 0x1
 4825 1233 51       		.byte	0x51
 4826 1234 02       		.uleb128 0x2
 4827 1235 74       		.byte	0x74
 4828 1236 00       		.sleb128 0
 4829 1237 00       		.byte	0
ARM GAS  C:\Users\Misha\AppData\Local\Temp\cc40ki4b.s 			page 106


 4830 1238 06       		.uleb128 0x6
 4831 1239 FE060000 		.4byte	.LVL175
 4832 123d 491A0000 		.4byte	0x1a49
 4833 1241 08       		.uleb128 0x8
 4834 1242 10070000 		.4byte	.LVL176
 4835 1246 541A0000 		.4byte	0x1a54
 4836 124a 74120000 		.4byte	0x1274
 4837 124e 09       		.uleb128 0x9
 4838 124f 01       		.uleb128 0x1
 4839 1250 50       		.byte	0x50
 4840 1251 03       		.uleb128 0x3
 4841 1252 0A       		.byte	0xa
 4842 1253 1301     		.2byte	0x113
 4843 1255 09       		.uleb128 0x9
 4844 1256 01       		.uleb128 0x1
 4845 1257 51       		.byte	0x51
 4846 1258 02       		.uleb128 0x2
 4847 1259 75       		.byte	0x75
 4848 125a 00       		.sleb128 0
 4849 125b 09       		.uleb128 0x9
 4850 125c 01       		.uleb128 0x1
 4851 125d 52       		.byte	0x52
 4852 125e 01       		.uleb128 0x1
 4853 125f 34       		.byte	0x34
 4854 1260 09       		.uleb128 0x9
 4855 1261 01       		.uleb128 0x1
 4856 1262 53       		.byte	0x53
 4857 1263 01       		.uleb128 0x1
 4858 1264 30       		.byte	0x30
 4859 1265 09       		.uleb128 0x9
 4860 1266 02       		.uleb128 0x2
 4861 1267 7D       		.byte	0x7d
 4862 1268 00       		.sleb128 0
 4863 1269 02       		.uleb128 0x2
 4864 126a 74       		.byte	0x74
 4865 126b 00       		.sleb128 0
 4866 126c 09       		.uleb128 0x9
 4867 126d 02       		.uleb128 0x2
 4868 126e 7D       		.byte	0x7d
 4869 126f 04       		.sleb128 4
 4870 1270 02       		.uleb128 0x2
 4871 1271 75       		.byte	0x75
 4872 1272 00       		.sleb128 0
 4873 1273 00       		.byte	0
 4874 1274 08       		.uleb128 0x8
 4875 1275 18070000 		.4byte	.LVL177
 4876 1279 801A0000 		.4byte	0x1a80
 4877 127d 8D120000 		.4byte	0x128d
 4878 1281 09       		.uleb128 0x9
 4879 1282 01       		.uleb128 0x1
 4880 1283 50       		.byte	0x50
 4881 1284 01       		.uleb128 0x1
 4882 1285 33       		.byte	0x33
 4883 1286 09       		.uleb128 0x9
 4884 1287 01       		.uleb128 0x1
 4885 1288 51       		.byte	0x51
 4886 1289 02       		.uleb128 0x2
ARM GAS  C:\Users\Misha\AppData\Local\Temp\cc40ki4b.s 			page 107


 4887 128a 74       		.byte	0x74
 4888 128b 00       		.sleb128 0
 4889 128c 00       		.byte	0
 4890 128d 08       		.uleb128 0x8
 4891 128e 86070000 		.4byte	.LVL185
 4892 1292 541A0000 		.4byte	0x1a54
 4893 1296 BE120000 		.4byte	0x12be
 4894 129a 09       		.uleb128 0x9
 4895 129b 01       		.uleb128 0x1
 4896 129c 50       		.byte	0x50
 4897 129d 02       		.uleb128 0x2
 4898 129e 08       		.byte	0x8
 4899 129f 32       		.byte	0x32
 4900 12a0 09       		.uleb128 0x9
 4901 12a1 01       		.uleb128 0x1
 4902 12a2 51       		.byte	0x51
 4903 12a3 01       		.uleb128 0x1
 4904 12a4 30       		.byte	0x30
 4905 12a5 09       		.uleb128 0x9
 4906 12a6 01       		.uleb128 0x1
 4907 12a7 52       		.byte	0x52
 4908 12a8 01       		.uleb128 0x1
 4909 12a9 34       		.byte	0x34
 4910 12aa 09       		.uleb128 0x9
 4911 12ab 01       		.uleb128 0x1
 4912 12ac 53       		.byte	0x53
 4913 12ad 01       		.uleb128 0x1
 4914 12ae 34       		.byte	0x34
 4915 12af 09       		.uleb128 0x9
 4916 12b0 02       		.uleb128 0x2
 4917 12b1 7D       		.byte	0x7d
 4918 12b2 00       		.sleb128 0
 4919 12b3 02       		.uleb128 0x2
 4920 12b4 75       		.byte	0x75
 4921 12b5 00       		.sleb128 0
 4922 12b6 09       		.uleb128 0x9
 4923 12b7 02       		.uleb128 0x2
 4924 12b8 7D       		.byte	0x7d
 4925 12b9 04       		.sleb128 4
 4926 12ba 02       		.uleb128 0x2
 4927 12bb 74       		.byte	0x74
 4928 12bc 00       		.sleb128 0
 4929 12bd 00       		.byte	0
 4930 12be 08       		.uleb128 0x8
 4931 12bf 8E070000 		.4byte	.LVL186
 4932 12c3 801A0000 		.4byte	0x1a80
 4933 12c7 D7120000 		.4byte	0x12d7
 4934 12cb 09       		.uleb128 0x9
 4935 12cc 01       		.uleb128 0x1
 4936 12cd 50       		.byte	0x50
 4937 12ce 01       		.uleb128 0x1
 4938 12cf 30       		.byte	0x30
 4939 12d0 09       		.uleb128 0x9
 4940 12d1 01       		.uleb128 0x1
 4941 12d2 51       		.byte	0x51
 4942 12d3 02       		.uleb128 0x2
 4943 12d4 75       		.byte	0x75
ARM GAS  C:\Users\Misha\AppData\Local\Temp\cc40ki4b.s 			page 108


 4944 12d5 00       		.sleb128 0
 4945 12d6 00       		.byte	0
 4946 12d7 06       		.uleb128 0x6
 4947 12d8 92070000 		.4byte	.LVL187
 4948 12dc 491A0000 		.4byte	0x1a49
 4949 12e0 08       		.uleb128 0x8
 4950 12e1 A2070000 		.4byte	.LVL188
 4951 12e5 541A0000 		.4byte	0x1a54
 4952 12e9 11130000 		.4byte	0x1311
 4953 12ed 09       		.uleb128 0x9
 4954 12ee 01       		.uleb128 0x1
 4955 12ef 50       		.byte	0x50
 4956 12f0 02       		.uleb128 0x2
 4957 12f1 08       		.byte	0x8
 4958 12f2 64       		.byte	0x64
 4959 12f3 09       		.uleb128 0x9
 4960 12f4 01       		.uleb128 0x1
 4961 12f5 51       		.byte	0x51
 4962 12f6 01       		.uleb128 0x1
 4963 12f7 30       		.byte	0x30
 4964 12f8 09       		.uleb128 0x9
 4965 12f9 01       		.uleb128 0x1
 4966 12fa 52       		.byte	0x52
 4967 12fb 01       		.uleb128 0x1
 4968 12fc 34       		.byte	0x34
 4969 12fd 09       		.uleb128 0x9
 4970 12fe 01       		.uleb128 0x1
 4971 12ff 53       		.byte	0x53
 4972 1300 01       		.uleb128 0x1
 4973 1301 34       		.byte	0x34
 4974 1302 09       		.uleb128 0x9
 4975 1303 02       		.uleb128 0x2
 4976 1304 7D       		.byte	0x7d
 4977 1305 00       		.sleb128 0
 4978 1306 02       		.uleb128 0x2
 4979 1307 75       		.byte	0x75
 4980 1308 00       		.sleb128 0
 4981 1309 09       		.uleb128 0x9
 4982 130a 02       		.uleb128 0x2
 4983 130b 7D       		.byte	0x7d
 4984 130c 04       		.sleb128 4
 4985 130d 02       		.uleb128 0x2
 4986 130e 74       		.byte	0x74
 4987 130f 00       		.sleb128 0
 4988 1310 00       		.byte	0
 4989 1311 08       		.uleb128 0x8
 4990 1312 AA070000 		.4byte	.LVL189
 4991 1316 801A0000 		.4byte	0x1a80
 4992 131a 2B130000 		.4byte	0x132b
 4993 131e 09       		.uleb128 0x9
 4994 131f 01       		.uleb128 0x1
 4995 1320 50       		.byte	0x50
 4996 1321 02       		.uleb128 0x2
 4997 1322 74       		.byte	0x74
 4998 1323 00       		.sleb128 0
 4999 1324 09       		.uleb128 0x9
 5000 1325 01       		.uleb128 0x1
ARM GAS  C:\Users\Misha\AppData\Local\Temp\cc40ki4b.s 			page 109


 5001 1326 51       		.byte	0x51
 5002 1327 02       		.uleb128 0x2
 5003 1328 75       		.byte	0x75
 5004 1329 00       		.sleb128 0
 5005 132a 00       		.byte	0
 5006 132b 06       		.uleb128 0x6
 5007 132c AE070000 		.4byte	.LVL190
 5008 1330 491A0000 		.4byte	0x1a49
 5009 1334 08       		.uleb128 0x8
 5010 1335 BE070000 		.4byte	.LVL191
 5011 1339 541A0000 		.4byte	0x1a54
 5012 133d 66130000 		.4byte	0x1366
 5013 1341 09       		.uleb128 0x9
 5014 1342 01       		.uleb128 0x1
 5015 1343 50       		.byte	0x50
 5016 1344 02       		.uleb128 0x2
 5017 1345 08       		.byte	0x8
 5018 1346 AF       		.byte	0xaf
 5019 1347 09       		.uleb128 0x9
 5020 1348 01       		.uleb128 0x1
 5021 1349 51       		.byte	0x51
 5022 134a 02       		.uleb128 0x2
 5023 134b 74       		.byte	0x74
 5024 134c 00       		.sleb128 0
 5025 134d 09       		.uleb128 0x9
 5026 134e 01       		.uleb128 0x1
 5027 134f 52       		.byte	0x52
 5028 1350 01       		.uleb128 0x1
 5029 1351 34       		.byte	0x34
 5030 1352 09       		.uleb128 0x9
 5031 1353 01       		.uleb128 0x1
 5032 1354 53       		.byte	0x53
 5033 1355 01       		.uleb128 0x1
 5034 1356 30       		.byte	0x30
 5035 1357 09       		.uleb128 0x9
 5036 1358 02       		.uleb128 0x2
 5037 1359 7D       		.byte	0x7d
 5038 135a 00       		.sleb128 0
 5039 135b 02       		.uleb128 0x2
 5040 135c 75       		.byte	0x75
 5041 135d 00       		.sleb128 0
 5042 135e 09       		.uleb128 0x9
 5043 135f 02       		.uleb128 0x2
 5044 1360 7D       		.byte	0x7d
 5045 1361 04       		.sleb128 4
 5046 1362 02       		.uleb128 0x2
 5047 1363 74       		.byte	0x74
 5048 1364 00       		.sleb128 0
 5049 1365 00       		.byte	0
 5050 1366 06       		.uleb128 0x6
 5051 1367 C2070000 		.4byte	.LVL192
 5052 136b 491A0000 		.4byte	0x1a49
 5053 136f 08       		.uleb128 0x8
 5054 1370 E8070000 		.4byte	.LVL193
 5055 1374 541A0000 		.4byte	0x1a54
 5056 1378 9F130000 		.4byte	0x139f
 5057 137c 09       		.uleb128 0x9
ARM GAS  C:\Users\Misha\AppData\Local\Temp\cc40ki4b.s 			page 110


 5058 137d 01       		.uleb128 0x1
 5059 137e 50       		.byte	0x50
 5060 137f 01       		.uleb128 0x1
 5061 1380 3A       		.byte	0x3a
 5062 1381 09       		.uleb128 0x9
 5063 1382 01       		.uleb128 0x1
 5064 1383 51       		.byte	0x51
 5065 1384 01       		.uleb128 0x1
 5066 1385 30       		.byte	0x30
 5067 1386 09       		.uleb128 0x9
 5068 1387 01       		.uleb128 0x1
 5069 1388 52       		.byte	0x52
 5070 1389 01       		.uleb128 0x1
 5071 138a 34       		.byte	0x34
 5072 138b 09       		.uleb128 0x9
 5073 138c 01       		.uleb128 0x1
 5074 138d 53       		.byte	0x53
 5075 138e 01       		.uleb128 0x1
 5076 138f 34       		.byte	0x34
 5077 1390 09       		.uleb128 0x9
 5078 1391 02       		.uleb128 0x2
 5079 1392 7D       		.byte	0x7d
 5080 1393 00       		.sleb128 0
 5081 1394 02       		.uleb128 0x2
 5082 1395 75       		.byte	0x75
 5083 1396 00       		.sleb128 0
 5084 1397 09       		.uleb128 0x9
 5085 1398 02       		.uleb128 0x2
 5086 1399 7D       		.byte	0x7d
 5087 139a 04       		.sleb128 4
 5088 139b 02       		.uleb128 0x2
 5089 139c 74       		.byte	0x74
 5090 139d 00       		.sleb128 0
 5091 139e 00       		.byte	0
 5092 139f 08       		.uleb128 0x8
 5093 13a0 F0070000 		.4byte	.LVL194
 5094 13a4 801A0000 		.4byte	0x1a80
 5095 13a8 B8130000 		.4byte	0x13b8
 5096 13ac 09       		.uleb128 0x9
 5097 13ad 01       		.uleb128 0x1
 5098 13ae 50       		.byte	0x50
 5099 13af 01       		.uleb128 0x1
 5100 13b0 30       		.byte	0x30
 5101 13b1 09       		.uleb128 0x9
 5102 13b2 01       		.uleb128 0x1
 5103 13b3 51       		.byte	0x51
 5104 13b4 02       		.uleb128 0x2
 5105 13b5 75       		.byte	0x75
 5106 13b6 00       		.sleb128 0
 5107 13b7 00       		.byte	0
 5108 13b8 06       		.uleb128 0x6
 5109 13b9 F4070000 		.4byte	.LVL195
 5110 13bd 491A0000 		.4byte	0x1a49
 5111 13c1 08       		.uleb128 0x8
 5112 13c2 04080000 		.4byte	.LVL196
 5113 13c6 541A0000 		.4byte	0x1a54
 5114 13ca F2130000 		.4byte	0x13f2
ARM GAS  C:\Users\Misha\AppData\Local\Temp\cc40ki4b.s 			page 111


 5115 13ce 09       		.uleb128 0x9
 5116 13cf 01       		.uleb128 0x1
 5117 13d0 50       		.byte	0x50
 5118 13d1 02       		.uleb128 0x2
 5119 13d2 08       		.byte	0x8
 5120 13d3 64       		.byte	0x64
 5121 13d4 09       		.uleb128 0x9
 5122 13d5 01       		.uleb128 0x1
 5123 13d6 51       		.byte	0x51
 5124 13d7 01       		.uleb128 0x1
 5125 13d8 30       		.byte	0x30
 5126 13d9 09       		.uleb128 0x9
 5127 13da 01       		.uleb128 0x1
 5128 13db 52       		.byte	0x52
 5129 13dc 01       		.uleb128 0x1
 5130 13dd 34       		.byte	0x34
 5131 13de 09       		.uleb128 0x9
 5132 13df 01       		.uleb128 0x1
 5133 13e0 53       		.byte	0x53
 5134 13e1 01       		.uleb128 0x1
 5135 13e2 34       		.byte	0x34
 5136 13e3 09       		.uleb128 0x9
 5137 13e4 02       		.uleb128 0x2
 5138 13e5 7D       		.byte	0x7d
 5139 13e6 00       		.sleb128 0
 5140 13e7 02       		.uleb128 0x2
 5141 13e8 75       		.byte	0x75
 5142 13e9 00       		.sleb128 0
 5143 13ea 09       		.uleb128 0x9
 5144 13eb 02       		.uleb128 0x2
 5145 13ec 7D       		.byte	0x7d
 5146 13ed 04       		.sleb128 4
 5147 13ee 02       		.uleb128 0x2
 5148 13ef 74       		.byte	0x74
 5149 13f0 00       		.sleb128 0
 5150 13f1 00       		.byte	0
 5151 13f2 08       		.uleb128 0x8
 5152 13f3 0C080000 		.4byte	.LVL197
 5153 13f7 801A0000 		.4byte	0x1a80
 5154 13fb 0C140000 		.4byte	0x140c
 5155 13ff 09       		.uleb128 0x9
 5156 1400 01       		.uleb128 0x1
 5157 1401 50       		.byte	0x50
 5158 1402 02       		.uleb128 0x2
 5159 1403 74       		.byte	0x74
 5160 1404 00       		.sleb128 0
 5161 1405 09       		.uleb128 0x9
 5162 1406 01       		.uleb128 0x1
 5163 1407 51       		.byte	0x51
 5164 1408 02       		.uleb128 0x2
 5165 1409 75       		.byte	0x75
 5166 140a 00       		.sleb128 0
 5167 140b 00       		.byte	0
 5168 140c 06       		.uleb128 0x6
 5169 140d 10080000 		.4byte	.LVL198
 5170 1411 491A0000 		.4byte	0x1a49
 5171 1415 08       		.uleb128 0x8
ARM GAS  C:\Users\Misha\AppData\Local\Temp\cc40ki4b.s 			page 112


 5172 1416 20080000 		.4byte	.LVL199
 5173 141a 541A0000 		.4byte	0x1a54
 5174 141e 47140000 		.4byte	0x1447
 5175 1422 09       		.uleb128 0x9
 5176 1423 01       		.uleb128 0x1
 5177 1424 50       		.byte	0x50
 5178 1425 02       		.uleb128 0x2
 5179 1426 08       		.byte	0x8
 5180 1427 AF       		.byte	0xaf
 5181 1428 09       		.uleb128 0x9
 5182 1429 01       		.uleb128 0x1
 5183 142a 51       		.byte	0x51
 5184 142b 02       		.uleb128 0x2
 5185 142c 74       		.byte	0x74
 5186 142d 00       		.sleb128 0
 5187 142e 09       		.uleb128 0x9
 5188 142f 01       		.uleb128 0x1
 5189 1430 52       		.byte	0x52
 5190 1431 01       		.uleb128 0x1
 5191 1432 34       		.byte	0x34
 5192 1433 09       		.uleb128 0x9
 5193 1434 01       		.uleb128 0x1
 5194 1435 53       		.byte	0x53
 5195 1436 01       		.uleb128 0x1
 5196 1437 30       		.byte	0x30
 5197 1438 09       		.uleb128 0x9
 5198 1439 02       		.uleb128 0x2
 5199 143a 7D       		.byte	0x7d
 5200 143b 00       		.sleb128 0
 5201 143c 02       		.uleb128 0x2
 5202 143d 75       		.byte	0x75
 5203 143e 00       		.sleb128 0
 5204 143f 09       		.uleb128 0x9
 5205 1440 02       		.uleb128 0x2
 5206 1441 7D       		.byte	0x7d
 5207 1442 04       		.sleb128 4
 5208 1443 02       		.uleb128 0x2
 5209 1444 74       		.byte	0x74
 5210 1445 00       		.sleb128 0
 5211 1446 00       		.byte	0
 5212 1447 06       		.uleb128 0x6
 5213 1448 24080000 		.4byte	.LVL200
 5214 144c 491A0000 		.4byte	0x1a49
 5215 1450 08       		.uleb128 0x8
 5216 1451 46080000 		.4byte	.LVL201
 5217 1455 541A0000 		.4byte	0x1a54
 5218 1459 82140000 		.4byte	0x1482
 5219 145d 09       		.uleb128 0x9
 5220 145e 01       		.uleb128 0x1
 5221 145f 50       		.byte	0x50
 5222 1460 03       		.uleb128 0x3
 5223 1461 0B       		.byte	0xb
 5224 1462 1AFF     		.2byte	0xff1a
 5225 1464 09       		.uleb128 0x9
 5226 1465 01       		.uleb128 0x1
 5227 1466 51       		.byte	0x51
 5228 1467 01       		.uleb128 0x1
ARM GAS  C:\Users\Misha\AppData\Local\Temp\cc40ki4b.s 			page 113


 5229 1468 30       		.byte	0x30
 5230 1469 09       		.uleb128 0x9
 5231 146a 01       		.uleb128 0x1
 5232 146b 52       		.byte	0x52
 5233 146c 01       		.uleb128 0x1
 5234 146d 34       		.byte	0x34
 5235 146e 09       		.uleb128 0x9
 5236 146f 01       		.uleb128 0x1
 5237 1470 53       		.byte	0x53
 5238 1471 01       		.uleb128 0x1
 5239 1472 34       		.byte	0x34
 5240 1473 09       		.uleb128 0x9
 5241 1474 02       		.uleb128 0x2
 5242 1475 7D       		.byte	0x7d
 5243 1476 00       		.sleb128 0
 5244 1477 02       		.uleb128 0x2
 5245 1478 75       		.byte	0x75
 5246 1479 00       		.sleb128 0
 5247 147a 09       		.uleb128 0x9
 5248 147b 02       		.uleb128 0x2
 5249 147c 7D       		.byte	0x7d
 5250 147d 04       		.sleb128 4
 5251 147e 02       		.uleb128 0x2
 5252 147f 74       		.byte	0x74
 5253 1480 00       		.sleb128 0
 5254 1481 00       		.byte	0
 5255 1482 06       		.uleb128 0x6
 5256 1483 4A080000 		.4byte	.LVL202
 5257 1487 491A0000 		.4byte	0x1a49
 5258 148b 08       		.uleb128 0x8
 5259 148c 52080000 		.4byte	.LVL203
 5260 1490 801A0000 		.4byte	0x1a80
 5261 1494 A4140000 		.4byte	0x14a4
 5262 1498 09       		.uleb128 0x9
 5263 1499 01       		.uleb128 0x1
 5264 149a 50       		.byte	0x50
 5265 149b 01       		.uleb128 0x1
 5266 149c 30       		.byte	0x30
 5267 149d 09       		.uleb128 0x9
 5268 149e 01       		.uleb128 0x1
 5269 149f 51       		.byte	0x51
 5270 14a0 02       		.uleb128 0x2
 5271 14a1 75       		.byte	0x75
 5272 14a2 00       		.sleb128 0
 5273 14a3 00       		.byte	0
 5274 14a4 06       		.uleb128 0x6
 5275 14a5 56080000 		.4byte	.LVL204
 5276 14a9 491A0000 		.4byte	0x1a49
 5277 14ad 08       		.uleb128 0x8
 5278 14ae 66080000 		.4byte	.LVL205
 5279 14b2 541A0000 		.4byte	0x1a54
 5280 14b6 DF140000 		.4byte	0x14df
 5281 14ba 09       		.uleb128 0x9
 5282 14bb 01       		.uleb128 0x1
 5283 14bc 50       		.byte	0x50
 5284 14bd 02       		.uleb128 0x2
 5285 14be 08       		.byte	0x8
ARM GAS  C:\Users\Misha\AppData\Local\Temp\cc40ki4b.s 			page 114


 5286 14bf 82       		.byte	0x82
 5287 14c0 09       		.uleb128 0x9
 5288 14c1 01       		.uleb128 0x1
 5289 14c2 51       		.byte	0x51
 5290 14c3 02       		.uleb128 0x2
 5291 14c4 74       		.byte	0x74
 5292 14c5 00       		.sleb128 0
 5293 14c6 09       		.uleb128 0x9
 5294 14c7 01       		.uleb128 0x1
 5295 14c8 52       		.byte	0x52
 5296 14c9 01       		.uleb128 0x1
 5297 14ca 34       		.byte	0x34
 5298 14cb 09       		.uleb128 0x9
 5299 14cc 01       		.uleb128 0x1
 5300 14cd 53       		.byte	0x53
 5301 14ce 01       		.uleb128 0x1
 5302 14cf 30       		.byte	0x30
 5303 14d0 09       		.uleb128 0x9
 5304 14d1 02       		.uleb128 0x2
 5305 14d2 7D       		.byte	0x7d
 5306 14d3 00       		.sleb128 0
 5307 14d4 02       		.uleb128 0x2
 5308 14d5 75       		.byte	0x75
 5309 14d6 00       		.sleb128 0
 5310 14d7 09       		.uleb128 0x9
 5311 14d8 02       		.uleb128 0x2
 5312 14d9 7D       		.byte	0x7d
 5313 14da 04       		.sleb128 4
 5314 14db 02       		.uleb128 0x2
 5315 14dc 74       		.byte	0x74
 5316 14dd 00       		.sleb128 0
 5317 14de 00       		.byte	0
 5318 14df 08       		.uleb128 0x8
 5319 14e0 6E080000 		.4byte	.LVL206
 5320 14e4 801A0000 		.4byte	0x1a80
 5321 14e8 F9140000 		.4byte	0x14f9
 5322 14ec 09       		.uleb128 0x9
 5323 14ed 01       		.uleb128 0x1
 5324 14ee 50       		.byte	0x50
 5325 14ef 02       		.uleb128 0x2
 5326 14f0 74       		.byte	0x74
 5327 14f1 00       		.sleb128 0
 5328 14f2 09       		.uleb128 0x9
 5329 14f3 01       		.uleb128 0x1
 5330 14f4 51       		.byte	0x51
 5331 14f5 02       		.uleb128 0x2
 5332 14f6 75       		.byte	0x75
 5333 14f7 00       		.sleb128 0
 5334 14f8 00       		.byte	0
 5335 14f9 08       		.uleb128 0x8
 5336 14fa 7E080000 		.4byte	.LVL207
 5337 14fe 541A0000 		.4byte	0x1a54
 5338 1502 2B150000 		.4byte	0x152b
 5339 1506 09       		.uleb128 0x9
 5340 1507 01       		.uleb128 0x1
 5341 1508 50       		.byte	0x50
 5342 1509 02       		.uleb128 0x2
ARM GAS  C:\Users\Misha\AppData\Local\Temp\cc40ki4b.s 			page 115


 5343 150a 08       		.byte	0x8
 5344 150b 32       		.byte	0x32
 5345 150c 09       		.uleb128 0x9
 5346 150d 01       		.uleb128 0x1
 5347 150e 51       		.byte	0x51
 5348 150f 02       		.uleb128 0x2
 5349 1510 74       		.byte	0x74
 5350 1511 00       		.sleb128 0
 5351 1512 09       		.uleb128 0x9
 5352 1513 01       		.uleb128 0x1
 5353 1514 52       		.byte	0x52
 5354 1515 01       		.uleb128 0x1
 5355 1516 34       		.byte	0x34
 5356 1517 09       		.uleb128 0x9
 5357 1518 01       		.uleb128 0x1
 5358 1519 53       		.byte	0x53
 5359 151a 01       		.uleb128 0x1
 5360 151b 30       		.byte	0x30
 5361 151c 09       		.uleb128 0x9
 5362 151d 02       		.uleb128 0x2
 5363 151e 7D       		.byte	0x7d
 5364 151f 00       		.sleb128 0
 5365 1520 02       		.uleb128 0x2
 5366 1521 75       		.byte	0x75
 5367 1522 00       		.sleb128 0
 5368 1523 09       		.uleb128 0x9
 5369 1524 02       		.uleb128 0x2
 5370 1525 7D       		.byte	0x7d
 5371 1526 04       		.sleb128 4
 5372 1527 02       		.uleb128 0x2
 5373 1528 74       		.byte	0x74
 5374 1529 00       		.sleb128 0
 5375 152a 00       		.byte	0
 5376 152b 08       		.uleb128 0x8
 5377 152c A4080000 		.4byte	.LVL208
 5378 1530 541A0000 		.4byte	0x1a54
 5379 1534 5D150000 		.4byte	0x155d
 5380 1538 09       		.uleb128 0x9
 5381 1539 01       		.uleb128 0x1
 5382 153a 50       		.byte	0x50
 5383 153b 03       		.uleb128 0x3
 5384 153c 0B       		.byte	0xb
 5385 153d 1AFF     		.2byte	0xff1a
 5386 153f 09       		.uleb128 0x9
 5387 1540 01       		.uleb128 0x1
 5388 1541 51       		.byte	0x51
 5389 1542 01       		.uleb128 0x1
 5390 1543 30       		.byte	0x30
 5391 1544 09       		.uleb128 0x9
 5392 1545 01       		.uleb128 0x1
 5393 1546 52       		.byte	0x52
 5394 1547 01       		.uleb128 0x1
 5395 1548 34       		.byte	0x34
 5396 1549 09       		.uleb128 0x9
 5397 154a 01       		.uleb128 0x1
 5398 154b 53       		.byte	0x53
 5399 154c 01       		.uleb128 0x1
ARM GAS  C:\Users\Misha\AppData\Local\Temp\cc40ki4b.s 			page 116


 5400 154d 34       		.byte	0x34
 5401 154e 09       		.uleb128 0x9
 5402 154f 02       		.uleb128 0x2
 5403 1550 7D       		.byte	0x7d
 5404 1551 00       		.sleb128 0
 5405 1552 02       		.uleb128 0x2
 5406 1553 75       		.byte	0x75
 5407 1554 00       		.sleb128 0
 5408 1555 09       		.uleb128 0x9
 5409 1556 02       		.uleb128 0x2
 5410 1557 7D       		.byte	0x7d
 5411 1558 04       		.sleb128 4
 5412 1559 02       		.uleb128 0x2
 5413 155a 74       		.byte	0x74
 5414 155b 00       		.sleb128 0
 5415 155c 00       		.byte	0
 5416 155d 06       		.uleb128 0x6
 5417 155e A8080000 		.4byte	.LVL209
 5418 1562 491A0000 		.4byte	0x1a49
 5419 1566 08       		.uleb128 0x8
 5420 1567 B0080000 		.4byte	.LVL210
 5421 156b 801A0000 		.4byte	0x1a80
 5422 156f 7F150000 		.4byte	0x157f
 5423 1573 09       		.uleb128 0x9
 5424 1574 01       		.uleb128 0x1
 5425 1575 50       		.byte	0x50
 5426 1576 01       		.uleb128 0x1
 5427 1577 30       		.byte	0x30
 5428 1578 09       		.uleb128 0x9
 5429 1579 01       		.uleb128 0x1
 5430 157a 51       		.byte	0x51
 5431 157b 02       		.uleb128 0x2
 5432 157c 75       		.byte	0x75
 5433 157d 00       		.sleb128 0
 5434 157e 00       		.byte	0
 5435 157f 06       		.uleb128 0x6
 5436 1580 B4080000 		.4byte	.LVL211
 5437 1584 491A0000 		.4byte	0x1a49
 5438 1588 08       		.uleb128 0x8
 5439 1589 C4080000 		.4byte	.LVL212
 5440 158d 541A0000 		.4byte	0x1a54
 5441 1591 BA150000 		.4byte	0x15ba
 5442 1595 09       		.uleb128 0x9
 5443 1596 01       		.uleb128 0x1
 5444 1597 50       		.byte	0x50
 5445 1598 02       		.uleb128 0x2
 5446 1599 08       		.byte	0x8
 5447 159a 82       		.byte	0x82
 5448 159b 09       		.uleb128 0x9
 5449 159c 01       		.uleb128 0x1
 5450 159d 51       		.byte	0x51
 5451 159e 02       		.uleb128 0x2
 5452 159f 74       		.byte	0x74
 5453 15a0 00       		.sleb128 0
 5454 15a1 09       		.uleb128 0x9
 5455 15a2 01       		.uleb128 0x1
 5456 15a3 52       		.byte	0x52
ARM GAS  C:\Users\Misha\AppData\Local\Temp\cc40ki4b.s 			page 117


 5457 15a4 01       		.uleb128 0x1
 5458 15a5 34       		.byte	0x34
 5459 15a6 09       		.uleb128 0x9
 5460 15a7 01       		.uleb128 0x1
 5461 15a8 53       		.byte	0x53
 5462 15a9 01       		.uleb128 0x1
 5463 15aa 30       		.byte	0x30
 5464 15ab 09       		.uleb128 0x9
 5465 15ac 02       		.uleb128 0x2
 5466 15ad 7D       		.byte	0x7d
 5467 15ae 00       		.sleb128 0
 5468 15af 02       		.uleb128 0x2
 5469 15b0 75       		.byte	0x75
 5470 15b1 00       		.sleb128 0
 5471 15b2 09       		.uleb128 0x9
 5472 15b3 02       		.uleb128 0x2
 5473 15b4 7D       		.byte	0x7d
 5474 15b5 04       		.sleb128 4
 5475 15b6 02       		.uleb128 0x2
 5476 15b7 74       		.byte	0x74
 5477 15b8 00       		.sleb128 0
 5478 15b9 00       		.byte	0
 5479 15ba 08       		.uleb128 0x8
 5480 15bb CC080000 		.4byte	.LVL213
 5481 15bf 801A0000 		.4byte	0x1a80
 5482 15c3 D3150000 		.4byte	0x15d3
 5483 15c7 09       		.uleb128 0x9
 5484 15c8 01       		.uleb128 0x1
 5485 15c9 50       		.byte	0x50
 5486 15ca 01       		.uleb128 0x1
 5487 15cb 33       		.byte	0x33
 5488 15cc 09       		.uleb128 0x9
 5489 15cd 01       		.uleb128 0x1
 5490 15ce 51       		.byte	0x51
 5491 15cf 02       		.uleb128 0x2
 5492 15d0 75       		.byte	0x75
 5493 15d1 00       		.sleb128 0
 5494 15d2 00       		.byte	0
 5495 15d3 08       		.uleb128 0x8
 5496 15d4 DC080000 		.4byte	.LVL214
 5497 15d8 541A0000 		.4byte	0x1a54
 5498 15dc 05160000 		.4byte	0x1605
 5499 15e0 09       		.uleb128 0x9
 5500 15e1 01       		.uleb128 0x1
 5501 15e2 50       		.byte	0x50
 5502 15e3 02       		.uleb128 0x2
 5503 15e4 08       		.byte	0x8
 5504 15e5 32       		.byte	0x32
 5505 15e6 09       		.uleb128 0x9
 5506 15e7 01       		.uleb128 0x1
 5507 15e8 51       		.byte	0x51
 5508 15e9 02       		.uleb128 0x2
 5509 15ea 74       		.byte	0x74
 5510 15eb 00       		.sleb128 0
 5511 15ec 09       		.uleb128 0x9
 5512 15ed 01       		.uleb128 0x1
 5513 15ee 52       		.byte	0x52
ARM GAS  C:\Users\Misha\AppData\Local\Temp\cc40ki4b.s 			page 118


 5514 15ef 01       		.uleb128 0x1
 5515 15f0 34       		.byte	0x34
 5516 15f1 09       		.uleb128 0x9
 5517 15f2 01       		.uleb128 0x1
 5518 15f3 53       		.byte	0x53
 5519 15f4 01       		.uleb128 0x1
 5520 15f5 30       		.byte	0x30
 5521 15f6 09       		.uleb128 0x9
 5522 15f7 02       		.uleb128 0x2
 5523 15f8 7D       		.byte	0x7d
 5524 15f9 00       		.sleb128 0
 5525 15fa 02       		.uleb128 0x2
 5526 15fb 75       		.byte	0x75
 5527 15fc 00       		.sleb128 0
 5528 15fd 09       		.uleb128 0x9
 5529 15fe 02       		.uleb128 0x2
 5530 15ff 7D       		.byte	0x7d
 5531 1600 04       		.sleb128 4
 5532 1601 02       		.uleb128 0x2
 5533 1602 74       		.byte	0x74
 5534 1603 00       		.sleb128 0
 5535 1604 00       		.byte	0
 5536 1605 08       		.uleb128 0x8
 5537 1606 720A0000 		.4byte	.LVL247
 5538 160a 541A0000 		.4byte	0x1a54
 5539 160e 38160000 		.4byte	0x1638
 5540 1612 09       		.uleb128 0x9
 5541 1613 01       		.uleb128 0x1
 5542 1614 50       		.byte	0x50
 5543 1615 02       		.uleb128 0x2
 5544 1616 08       		.byte	0x8
 5545 1617 D2       		.byte	0xd2
 5546 1618 09       		.uleb128 0x9
 5547 1619 01       		.uleb128 0x1
 5548 161a 51       		.byte	0x51
 5549 161b 02       		.uleb128 0x2
 5550 161c 74       		.byte	0x74
 5551 161d 00       		.sleb128 0
 5552 161e 09       		.uleb128 0x9
 5553 161f 01       		.uleb128 0x1
 5554 1620 52       		.byte	0x52
 5555 1621 01       		.uleb128 0x1
 5556 1622 35       		.byte	0x35
 5557 1623 09       		.uleb128 0x9
 5558 1624 01       		.uleb128 0x1
 5559 1625 53       		.byte	0x53
 5560 1626 02       		.uleb128 0x2
 5561 1627 74       		.byte	0x74
 5562 1628 00       		.sleb128 0
 5563 1629 09       		.uleb128 0x9
 5564 162a 02       		.uleb128 0x2
 5565 162b 7D       		.byte	0x7d
 5566 162c 00       		.sleb128 0
 5567 162d 02       		.uleb128 0x2
 5568 162e 75       		.byte	0x75
 5569 162f 00       		.sleb128 0
 5570 1630 09       		.uleb128 0x9
ARM GAS  C:\Users\Misha\AppData\Local\Temp\cc40ki4b.s 			page 119


 5571 1631 02       		.uleb128 0x2
 5572 1632 7D       		.byte	0x7d
 5573 1633 04       		.sleb128 4
 5574 1634 02       		.uleb128 0x2
 5575 1635 74       		.byte	0x74
 5576 1636 00       		.sleb128 0
 5577 1637 00       		.byte	0
 5578 1638 08       		.uleb128 0x8
 5579 1639 7A0A0000 		.4byte	.LVL248
 5580 163d 801A0000 		.4byte	0x1a80
 5581 1641 51160000 		.4byte	0x1651
 5582 1645 09       		.uleb128 0x9
 5583 1646 01       		.uleb128 0x1
 5584 1647 50       		.byte	0x50
 5585 1648 01       		.uleb128 0x1
 5586 1649 33       		.byte	0x33
 5587 164a 09       		.uleb128 0x9
 5588 164b 01       		.uleb128 0x1
 5589 164c 51       		.byte	0x51
 5590 164d 02       		.uleb128 0x2
 5591 164e 75       		.byte	0x75
 5592 164f 00       		.sleb128 0
 5593 1650 00       		.byte	0
 5594 1651 06       		.uleb128 0x6
 5595 1652 7E0A0000 		.4byte	.LVL249
 5596 1656 491A0000 		.4byte	0x1a49
 5597 165a 08       		.uleb128 0x8
 5598 165b 920A0000 		.4byte	.LVL250
 5599 165f 541A0000 		.4byte	0x1a54
 5600 1663 8E160000 		.4byte	0x168e
 5601 1667 09       		.uleb128 0x9
 5602 1668 01       		.uleb128 0x1
 5603 1669 50       		.byte	0x50
 5604 166a 03       		.uleb128 0x3
 5605 166b 0A       		.byte	0xa
 5606 166c F901     		.2byte	0x1f9
 5607 166e 09       		.uleb128 0x9
 5608 166f 01       		.uleb128 0x1
 5609 1670 51       		.byte	0x51
 5610 1671 02       		.uleb128 0x2
 5611 1672 74       		.byte	0x74
 5612 1673 00       		.sleb128 0
 5613 1674 09       		.uleb128 0x9
 5614 1675 01       		.uleb128 0x1
 5615 1676 52       		.byte	0x52
 5616 1677 01       		.uleb128 0x1
 5617 1678 35       		.byte	0x35
 5618 1679 09       		.uleb128 0x9
 5619 167a 01       		.uleb128 0x1
 5620 167b 53       		.byte	0x53
 5621 167c 02       		.uleb128 0x2
 5622 167d 76       		.byte	0x76
 5623 167e 00       		.sleb128 0
 5624 167f 09       		.uleb128 0x9
 5625 1680 02       		.uleb128 0x2
 5626 1681 7D       		.byte	0x7d
 5627 1682 00       		.sleb128 0
ARM GAS  C:\Users\Misha\AppData\Local\Temp\cc40ki4b.s 			page 120


 5628 1683 02       		.uleb128 0x2
 5629 1684 75       		.byte	0x75
 5630 1685 00       		.sleb128 0
 5631 1686 09       		.uleb128 0x9
 5632 1687 02       		.uleb128 0x2
 5633 1688 7D       		.byte	0x7d
 5634 1689 04       		.sleb128 4
 5635 168a 02       		.uleb128 0x2
 5636 168b 76       		.byte	0x76
 5637 168c 00       		.sleb128 0
 5638 168d 00       		.byte	0
 5639 168e 08       		.uleb128 0x8
 5640 168f 9A0A0000 		.4byte	.LVL251
 5641 1693 801A0000 		.4byte	0x1a80
 5642 1697 A8160000 		.4byte	0x16a8
 5643 169b 09       		.uleb128 0x9
 5644 169c 01       		.uleb128 0x1
 5645 169d 50       		.byte	0x50
 5646 169e 02       		.uleb128 0x2
 5647 169f 74       		.byte	0x74
 5648 16a0 00       		.sleb128 0
 5649 16a1 09       		.uleb128 0x9
 5650 16a2 01       		.uleb128 0x1
 5651 16a3 51       		.byte	0x51
 5652 16a4 02       		.uleb128 0x2
 5653 16a5 75       		.byte	0x75
 5654 16a6 00       		.sleb128 0
 5655 16a7 00       		.byte	0
 5656 16a8 08       		.uleb128 0x8
 5657 16a9 AA0A0000 		.4byte	.LVL252
 5658 16ad 541A0000 		.4byte	0x1a54
 5659 16b1 DA160000 		.4byte	0x16da
 5660 16b5 09       		.uleb128 0x9
 5661 16b6 01       		.uleb128 0x1
 5662 16b7 50       		.byte	0x50
 5663 16b8 02       		.uleb128 0x2
 5664 16b9 08       		.byte	0x8
 5665 16ba 28       		.byte	0x28
 5666 16bb 09       		.uleb128 0x9
 5667 16bc 01       		.uleb128 0x1
 5668 16bd 51       		.byte	0x51
 5669 16be 02       		.uleb128 0x2
 5670 16bf 74       		.byte	0x74
 5671 16c0 00       		.sleb128 0
 5672 16c1 09       		.uleb128 0x9
 5673 16c2 01       		.uleb128 0x1
 5674 16c3 52       		.byte	0x52
 5675 16c4 01       		.uleb128 0x1
 5676 16c5 34       		.byte	0x34
 5677 16c6 09       		.uleb128 0x9
 5678 16c7 01       		.uleb128 0x1
 5679 16c8 53       		.byte	0x53
 5680 16c9 01       		.uleb128 0x1
 5681 16ca 34       		.byte	0x34
 5682 16cb 09       		.uleb128 0x9
 5683 16cc 02       		.uleb128 0x2
 5684 16cd 7D       		.byte	0x7d
ARM GAS  C:\Users\Misha\AppData\Local\Temp\cc40ki4b.s 			page 121


 5685 16ce 00       		.sleb128 0
 5686 16cf 02       		.uleb128 0x2
 5687 16d0 75       		.byte	0x75
 5688 16d1 00       		.sleb128 0
 5689 16d2 09       		.uleb128 0x9
 5690 16d3 02       		.uleb128 0x2
 5691 16d4 7D       		.byte	0x7d
 5692 16d5 04       		.sleb128 4
 5693 16d6 02       		.uleb128 0x2
 5694 16d7 76       		.byte	0x76
 5695 16d8 00       		.sleb128 0
 5696 16d9 00       		.byte	0
 5697 16da 0A       		.uleb128 0xa
 5698 16db B20A0000 		.4byte	.LVL253
 5699 16df B71A0000 		.4byte	0x1ab7
 5700 16e3 09       		.uleb128 0x9
 5701 16e4 01       		.uleb128 0x1
 5702 16e5 50       		.byte	0x50
 5703 16e6 02       		.uleb128 0x2
 5704 16e7 74       		.byte	0x74
 5705 16e8 00       		.sleb128 0
 5706 16e9 09       		.uleb128 0x9
 5707 16ea 01       		.uleb128 0x1
 5708 16eb 51       		.byte	0x51
 5709 16ec 01       		.uleb128 0x1
 5710 16ed 32       		.byte	0x32
 5711 16ee 00       		.byte	0
 5712 16ef 00       		.byte	0
 5713 16f0 12       		.uleb128 0x12
 5714 16f1 2A070000 		.4byte	.LASF25
 5715 16f5 04       		.byte	0x4
 5716 16f6 1207     		.2byte	0x712
 5717 16f8 FC160000 		.4byte	0x16fc
 5718 16fc 13       		.uleb128 0x13
 5719 16fd 76000000 		.4byte	0x76
 5720 1701 14       		.uleb128 0x14
 5721 1702 96020000 		.4byte	.LASF26
 5722 1706 05       		.byte	0x5
 5723 1707 1F       		.byte	0x1f
 5724 1708 68000000 		.4byte	0x68
 5725 170c 05       		.uleb128 0x5
 5726 170d 03       		.byte	0x3
 5727 170e 00000000 		.4byte	internal_orientation
 5728 1712 14       		.uleb128 0x14
 5729 1713 95010000 		.4byte	.LASF27
 5730 1717 06       		.byte	0x6
 5731 1718 1D       		.byte	0x1d
 5732 1719 68000000 		.4byte	0x68
 5733 171d 05       		.uleb128 0x5
 5734 171e 03       		.byte	0x3
 5735 171f 00000000 		.4byte	driveStraightEnable
 5736 1723 14       		.uleb128 0x14
 5737 1724 35030000 		.4byte	.LASF28
 5738 1728 01       		.byte	0x1
 5739 1729 2D       		.byte	0x2d
 5740 172a 68000000 		.4byte	0x68
 5741 172e 05       		.uleb128 0x5
ARM GAS  C:\Users\Misha\AppData\Local\Temp\cc40ki4b.s 			page 122


 5742 172f 03       		.byte	0x3
 5743 1730 00000000 		.4byte	currentPuckRackScanningIndex
 5744 1734 15       		.uleb128 0x15
 5745 1735 68000000 		.4byte	0x68
 5746 1739 44170000 		.4byte	0x1744
 5747 173d 16       		.uleb128 0x16
 5748 173e 9D000000 		.4byte	0x9d
 5749 1742 04       		.byte	0x4
 5750 1743 00       		.byte	0
 5751 1744 14       		.uleb128 0x14
 5752 1745 36050000 		.4byte	.LASF29
 5753 1749 01       		.byte	0x1
 5754 174a 2B       		.byte	0x2b
 5755 174b 34170000 		.4byte	0x1734
 5756 174f 05       		.uleb128 0x5
 5757 1750 03       		.byte	0x3
 5758 1751 00000000 		.4byte	puckRackColours
 5759 1755 14       		.uleb128 0x14
 5760 1756 E4000000 		.4byte	.LASF30
 5761 175a 01       		.byte	0x1
 5762 175b 2E       		.byte	0x2e
 5763 175c 34170000 		.4byte	0x1734
 5764 1760 05       		.uleb128 0x5
 5765 1761 03       		.byte	0x3
 5766 1762 00000000 		.4byte	puckRackOffsetsFromWest
 5767 1766 14       		.uleb128 0x14
 5768 1767 8C010000 		.4byte	.LASF31
 5769 176b 01       		.byte	0x1
 5770 176c 26       		.byte	0x26
 5771 176d 68000000 		.4byte	0x68
 5772 1771 05       		.uleb128 0x5
 5773 1772 03       		.byte	0x3
 5774 1773 00000000 		.4byte	sweeping
 5775 1777 15       		.uleb128 0x15
 5776 1778 81000000 		.4byte	0x81
 5777 177c 87170000 		.4byte	0x1787
 5778 1780 16       		.uleb128 0x16
 5779 1781 9D000000 		.4byte	0x9d
 5780 1785 03       		.byte	0x3
 5781 1786 00       		.byte	0
 5782 1787 14       		.uleb128 0x14
 5783 1788 5A040000 		.4byte	.LASF32
 5784 178c 01       		.byte	0x1
 5785 178d 27       		.byte	0x27
 5786 178e 77170000 		.4byte	0x1777
 5787 1792 05       		.uleb128 0x5
 5788 1793 03       		.byte	0x3
 5789 1794 00000000 		.4byte	block_edge_location
 5790 1798 14       		.uleb128 0x14
 5791 1799 10030000 		.4byte	.LASF33
 5792 179d 07       		.byte	0x7
 5793 179e BD       		.byte	0xbd
 5794 179f 81000000 		.4byte	0x81
 5795 17a3 05       		.uleb128 0x5
 5796 17a4 03       		.byte	0x3
 5797 17a5 00000000 		.4byte	puckPileLocation
 5798 17a9 14       		.uleb128 0x14
ARM GAS  C:\Users\Misha\AppData\Local\Temp\cc40ki4b.s 			page 123


 5799 17aa 78000000 		.4byte	.LASF34
 5800 17ae 06       		.byte	0x6
 5801 17af 25       		.byte	0x25
 5802 17b0 33000000 		.4byte	0x33
 5803 17b4 05       		.uleb128 0x5
 5804 17b5 03       		.byte	0x3
 5805 17b6 00000000 		.4byte	drivingForwardFlag
 5806 17ba 14       		.uleb128 0x14
 5807 17bb 21030000 		.4byte	.LASF35
 5808 17bf 06       		.byte	0x6
 5809 17c0 26       		.byte	0x26
 5810 17c1 33000000 		.4byte	0x33
 5811 17c5 05       		.uleb128 0x5
 5812 17c6 03       		.byte	0x3
 5813 17c7 00000000 		.4byte	drivingBackwardFlag
 5814 17cb 14       		.uleb128 0x14
 5815 17cc 4F000000 		.4byte	.LASF36
 5816 17d0 06       		.byte	0x6
 5817 17d1 27       		.byte	0x27
 5818 17d2 33000000 		.4byte	0x33
 5819 17d6 05       		.uleb128 0x5
 5820 17d7 03       		.byte	0x3
 5821 17d8 00000000 		.4byte	turningLeftFlag
 5822 17dc 14       		.uleb128 0x14
 5823 17dd 15020000 		.4byte	.LASF37
 5824 17e1 06       		.byte	0x6
 5825 17e2 28       		.byte	0x28
 5826 17e3 33000000 		.4byte	0x33
 5827 17e7 05       		.uleb128 0x5
 5828 17e8 03       		.byte	0x3
 5829 17e9 00000000 		.4byte	turningRightFlag
 5830 17ed 14       		.uleb128 0x14
 5831 17ee 26080000 		.4byte	.LASF38
 5832 17f2 06       		.byte	0x6
 5833 17f3 2B       		.byte	0x2b
 5834 17f4 68000000 		.4byte	0x68
 5835 17f8 05       		.uleb128 0x5
 5836 17f9 03       		.byte	0x3
 5837 17fa 00000000 		.4byte	initialisation
 5838 17fe 15       		.uleb128 0x15
 5839 17ff 8F000000 		.4byte	0x8f
 5840 1803 0E180000 		.4byte	0x180e
 5841 1807 16       		.uleb128 0x16
 5842 1808 9D000000 		.4byte	0x9d
 5843 180c 1F       		.byte	0x1f
 5844 180d 00       		.byte	0
 5845 180e 14       		.uleb128 0x14
 5846 180f 03070000 		.4byte	.LASF39
 5847 1813 01       		.byte	0x1
 5848 1814 21       		.byte	0x21
 5849 1815 FE170000 		.4byte	0x17fe
 5850 1819 05       		.uleb128 0x5
 5851 181a 03       		.byte	0x3
 5852 181b 00000000 		.4byte	output
 5853 181f 15       		.uleb128 0x15
 5854 1820 68000000 		.4byte	0x68
 5855 1824 2F180000 		.4byte	0x182f
ARM GAS  C:\Users\Misha\AppData\Local\Temp\cc40ki4b.s 			page 124


 5856 1828 16       		.uleb128 0x16
 5857 1829 9D000000 		.4byte	0x9d
 5858 182d 05       		.byte	0x5
 5859 182e 00       		.byte	0
 5860 182f 17       		.uleb128 0x17
 5861 1830 16010000 		.4byte	.LASF40
 5862 1834 07       		.byte	0x7
 5863 1835 CE       		.byte	0xce
 5864 1836 1F180000 		.4byte	0x181f
 5865 183a 14       		.uleb128 0x14
 5866 183b A1030000 		.4byte	.LASF41
 5867 183f 01       		.byte	0x1
 5868 1840 54       		.byte	0x54
 5869 1841 68000000 		.4byte	0x68
 5870 1845 05       		.uleb128 0x5
 5871 1846 03       		.byte	0x3
 5872 1847 00000000 		.4byte	colour_flag
 5873 184b 14       		.uleb128 0x14
 5874 184c 6E030000 		.4byte	.LASF42
 5875 1850 01       		.byte	0x1
 5876 1851 24       		.byte	0x24
 5877 1852 68000000 		.4byte	0x68
 5878 1856 05       		.uleb128 0x5
 5879 1857 03       		.byte	0x3
 5880 1858 00000000 		.4byte	state
 5881 185c 14       		.uleb128 0x14
 5882 185d 72050000 		.4byte	.LASF43
 5883 1861 01       		.byte	0x1
 5884 1862 5A       		.byte	0x5a
 5885 1863 68000000 		.4byte	0x68
 5886 1867 05       		.uleb128 0x5
 5887 1868 03       		.byte	0x3
 5888 1869 00000000 		.4byte	moving
 5889 186d 14       		.uleb128 0x14
 5890 186e 39010000 		.4byte	.LASF44
 5891 1872 06       		.byte	0x6
 5892 1873 2D       		.byte	0x2d
 5893 1874 68000000 		.4byte	0x68
 5894 1878 05       		.uleb128 0x5
 5895 1879 03       		.byte	0x3
 5896 187a 00000000 		.4byte	ultrasonic_flag
 5897 187e 15       		.uleb128 0x15
 5898 187f 68000000 		.4byte	0x68
 5899 1883 8E180000 		.4byte	0x188e
 5900 1887 16       		.uleb128 0x16
 5901 1888 9D000000 		.4byte	0x9d
 5902 188c 02       		.byte	0x2
 5903 188d 00       		.byte	0
 5904 188e 14       		.uleb128 0x14
 5905 188f 05060000 		.4byte	.LASF45
 5906 1893 01       		.byte	0x1
 5907 1894 2C       		.byte	0x2c
 5908 1895 7E180000 		.4byte	0x187e
 5909 1899 05       		.uleb128 0x5
 5910 189a 03       		.byte	0x3
 5911 189b 00000000 		.4byte	puckConstructionPlan
 5912 189f 14       		.uleb128 0x14
ARM GAS  C:\Users\Misha\AppData\Local\Temp\cc40ki4b.s 			page 125


 5913 18a0 D2040000 		.4byte	.LASF46
 5914 18a4 01       		.byte	0x1
 5915 18a5 5E       		.byte	0x5e
 5916 18a6 68000000 		.4byte	0x68
 5917 18aa 05       		.uleb128 0x5
 5918 18ab 03       		.byte	0x3
 5919 18ac 00000000 		.4byte	current_stage
 5920 18b0 14       		.uleb128 0x14
 5921 18b1 59050000 		.4byte	.LASF47
 5922 18b5 01       		.byte	0x1
 5923 18b6 55       		.byte	0x55
 5924 18b7 68000000 		.4byte	0x68
 5925 18bb 05       		.uleb128 0x5
 5926 18bc 03       		.byte	0x3
 5927 18bd 00000000 		.4byte	colour_sensing_algorithm
 5928 18c1 14       		.uleb128 0x14
 5929 18c2 ED020000 		.4byte	.LASF48
 5930 18c6 01       		.byte	0x1
 5931 18c7 48       		.byte	0x48
 5932 18c8 68000000 		.4byte	0x68
 5933 18cc 05       		.uleb128 0x5
 5934 18cd 03       		.byte	0x3
 5935 18ce 00000000 		.4byte	safety_override
 5936 18d2 14       		.uleb128 0x14
 5937 18d3 BE010000 		.4byte	.LASF49
 5938 18d7 01       		.byte	0x1
 5939 18d8 25       		.byte	0x25
 5940 18d9 68000000 		.4byte	0x68
 5941 18dd 05       		.uleb128 0x5
 5942 18de 03       		.byte	0x3
 5943 18df 00000000 		.4byte	running
 5944 18e3 14       		.uleb128 0x14
 5945 18e4 A9010000 		.4byte	.LASF50
 5946 18e8 01       		.byte	0x1
 5947 18e9 2A       		.byte	0x2a
 5948 18ea 68000000 		.4byte	0x68
 5949 18ee 05       		.uleb128 0x5
 5950 18ef 03       		.byte	0x3
 5951 18f0 00000000 		.4byte	currentPuckStackSize
 5952 18f4 15       		.uleb128 0x15
 5953 18f5 68000000 		.4byte	0x68
 5954 18f9 04190000 		.4byte	0x1904
 5955 18fd 16       		.uleb128 0x16
 5956 18fe 9D000000 		.4byte	0x9d
 5957 1902 01       		.byte	0x1
 5958 1903 00       		.byte	0
 5959 1904 14       		.uleb128 0x14
 5960 1905 F3070000 		.4byte	.LASF51
 5961 1909 01       		.byte	0x1
 5962 190a 34       		.byte	0x34
 5963 190b F4180000 		.4byte	0x18f4
 5964 190f 05       		.uleb128 0x5
 5965 1910 03       		.byte	0x3
 5966 1911 00000000 		.4byte	puckColoursTempPile
 5967 1915 14       		.uleb128 0x14
 5968 1916 5E010000 		.4byte	.LASF52
 5969 191a 01       		.byte	0x1
ARM GAS  C:\Users\Misha\AppData\Local\Temp\cc40ki4b.s 			page 126


 5970 191b 36       		.byte	0x36
 5971 191c 81000000 		.4byte	0x81
 5972 1920 05       		.uleb128 0x5
 5973 1921 03       		.byte	0x3
 5974 1922 00000000 		.4byte	horizontalPuckGrid
 5975 1926 14       		.uleb128 0x14
 5976 1927 BB000000 		.4byte	.LASF53
 5977 192b 01       		.byte	0x1
 5978 192c 3A       		.byte	0x3a
 5979 192d 68000000 		.4byte	0x68
 5980 1931 05       		.uleb128 0x5
 5981 1932 03       		.byte	0x3
 5982 1933 00000000 		.4byte	beginNavigation
 5983 1937 14       		.uleb128 0x14
 5984 1938 E7070000 		.4byte	.LASF54
 5985 193c 01       		.byte	0x1
 5986 193d 3B       		.byte	0x3b
 5987 193e 68000000 		.4byte	0x68
 5988 1942 05       		.uleb128 0x5
 5989 1943 03       		.byte	0x3
 5990 1944 00000000 		.4byte	pathToPucks
 5991 1948 14       		.uleb128 0x14
 5992 1949 87050000 		.4byte	.LASF55
 5993 194d 01       		.byte	0x1
 5994 194e 3C       		.byte	0x3c
 5995 194f 68000000 		.4byte	0x68
 5996 1953 05       		.uleb128 0x5
 5997 1954 03       		.byte	0x3
 5998 1955 00000000 		.4byte	pathPastBlock
 5999 1959 15       		.uleb128 0x15
 6000 195a 68000000 		.4byte	0x68
 6001 195e 69190000 		.4byte	0x1969
 6002 1962 16       		.uleb128 0x16
 6003 1963 9D000000 		.4byte	0x9d
 6004 1967 03       		.byte	0x3
 6005 1968 00       		.byte	0
 6006 1969 14       		.uleb128 0x14
 6007 196a C6010000 		.4byte	.LASF56
 6008 196e 01       		.byte	0x1
 6009 196f 3D       		.byte	0x3d
 6010 1970 59190000 		.4byte	0x1959
 6011 1974 05       		.uleb128 0x5
 6012 1975 03       		.byte	0x3
 6013 1976 00000000 		.4byte	block_location
 6014 197a 14       		.uleb128 0x14
 6015 197b EB030000 		.4byte	.LASF57
 6016 197f 01       		.byte	0x1
 6017 1980 42       		.byte	0x42
 6018 1981 59190000 		.4byte	0x1959
 6019 1985 05       		.uleb128 0x5
 6020 1986 03       		.byte	0x3
 6021 1987 00000000 		.4byte	puck_location
 6022 198b 14       		.uleb128 0x14
 6023 198c FD020000 		.4byte	.LASF58
 6024 1990 01       		.byte	0x1
 6025 1991 4C       		.byte	0x4c
 6026 1992 33000000 		.4byte	0x33
ARM GAS  C:\Users\Misha\AppData\Local\Temp\cc40ki4b.s 			page 127


 6027 1996 05       		.uleb128 0x5
 6028 1997 03       		.byte	0x3
 6029 1998 00000000 		.4byte	blockEastClearance
 6030 199c 14       		.uleb128 0x14
 6031 199d 5D060000 		.4byte	.LASF59
 6032 19a1 01       		.byte	0x1
 6033 19a2 4D       		.byte	0x4d
 6034 19a3 33000000 		.4byte	0x33
 6035 19a7 05       		.uleb128 0x5
 6036 19a8 03       		.byte	0x3
 6037 19a9 00000000 		.4byte	blockWestClearance
 6038 19ad 14       		.uleb128 0x14
 6039 19ae DE060000 		.4byte	.LASF60
 6040 19b2 01       		.byte	0x1
 6041 19b3 4E       		.byte	0x4e
 6042 19b4 33000000 		.4byte	0x33
 6043 19b8 05       		.uleb128 0x5
 6044 19b9 03       		.byte	0x3
 6045 19ba 00000000 		.4byte	puckEastClearance
 6046 19be 14       		.uleb128 0x14
 6047 19bf 1F050000 		.4byte	.LASF61
 6048 19c3 01       		.byte	0x1
 6049 19c4 4F       		.byte	0x4f
 6050 19c5 33000000 		.4byte	0x33
 6051 19c9 05       		.uleb128 0x5
 6052 19ca 03       		.byte	0x3
 6053 19cb 00000000 		.4byte	puckWestClearance
 6054 19cf 14       		.uleb128 0x14
 6055 19d0 A4040000 		.4byte	.LASF62
 6056 19d4 01       		.byte	0x1
 6057 19d5 53       		.byte	0x53
 6058 19d6 68000000 		.4byte	0x68
 6059 19da 05       		.uleb128 0x5
 6060 19db 03       		.byte	0x3
 6061 19dc 00000000 		.4byte	idac_value
 6062 19e0 14       		.uleb128 0x14
 6063 19e1 46050000 		.4byte	.LASF63
 6064 19e5 01       		.byte	0x1
 6065 19e6 5C       		.byte	0x5c
 6066 19e7 F1190000 		.4byte	0x19f1
 6067 19eb 05       		.uleb128 0x5
 6068 19ec 03       		.byte	0x3
 6069 19ed 00000000 		.4byte	PLAN_SCAN_VERTICAL
 6070 19f1 18       		.uleb128 0x18
 6071 19f2 68000000 		.4byte	0x68
 6072 19f6 14       		.uleb128 0x14
 6073 19f7 11070000 		.4byte	.LASF64
 6074 19fb 01       		.byte	0x1
 6075 19fc 62       		.byte	0x62
 6076 19fd 68000000 		.4byte	0x68
 6077 1a01 05       		.uleb128 0x5
 6078 1a02 03       		.byte	0x3
 6079 1a03 00000000 		.4byte	distance_returned_global
 6080 1a07 19       		.uleb128 0x19
 6081 1a08 FA010000 		.4byte	.LASF65
 6082 1a0c FA010000 		.4byte	.LASF65
 6083 1a10 06       		.byte	0x6
ARM GAS  C:\Users\Misha\AppData\Local\Temp\cc40ki4b.s 			page 128


 6084 1a11 19       		.byte	0x19
 6085 1a12 19       		.uleb128 0x19
 6086 1a13 DF070000 		.4byte	.LASF66
 6087 1a17 DF070000 		.4byte	.LASF66
 6088 1a1b 08       		.byte	0x8
 6089 1a1c 76       		.byte	0x76
 6090 1a1d 19       		.uleb128 0x19
 6091 1a1e F4050000 		.4byte	.LASF67
 6092 1a22 F4050000 		.4byte	.LASF67
 6093 1a26 09       		.byte	0x9
 6094 1a27 8B       		.byte	0x8b
 6095 1a28 19       		.uleb128 0x19
 6096 1a29 3B000000 		.4byte	.LASF68
 6097 1a2d 3B000000 		.4byte	.LASF68
 6098 1a31 0A       		.byte	0xa
 6099 1a32 1D       		.byte	0x1d
 6100 1a33 19       		.uleb128 0x19
 6101 1a34 F9030000 		.4byte	.LASF69
 6102 1a38 F9030000 		.4byte	.LASF69
 6103 1a3c 0B       		.byte	0xb
 6104 1a3d E7       		.byte	0xe7
 6105 1a3e 19       		.uleb128 0x19
 6106 1a3f 09000000 		.4byte	.LASF70
 6107 1a43 09000000 		.4byte	.LASF70
 6108 1a47 0C       		.byte	0xc
 6109 1a48 0E       		.byte	0xe
 6110 1a49 19       		.uleb128 0x19
 6111 1a4a 5F000000 		.4byte	.LASF71
 6112 1a4e 5F000000 		.4byte	.LASF71
 6113 1a52 05       		.byte	0x5
 6114 1a53 10       		.byte	0x10
 6115 1a54 19       		.uleb128 0x19
 6116 1a55 F0060000 		.4byte	.LASF72
 6117 1a59 F0060000 		.4byte	.LASF72
 6118 1a5d 05       		.byte	0x5
 6119 1a5e 12       		.byte	0x12
 6120 1a5f 19       		.uleb128 0x19
 6121 1a60 01040000 		.4byte	.LASF73
 6122 1a64 01040000 		.4byte	.LASF73
 6123 1a68 0A       		.byte	0xa
 6124 1a69 19       		.byte	0x19
 6125 1a6a 19       		.uleb128 0x19
 6126 1a6b D4020000 		.4byte	.LASF74
 6127 1a6f D4020000 		.4byte	.LASF74
 6128 1a73 0D       		.byte	0xd
 6129 1a74 2F       		.byte	0x2f
 6130 1a75 19       		.uleb128 0x19
 6131 1a76 CB020000 		.4byte	.LASF75
 6132 1a7a CB020000 		.4byte	.LASF75
 6133 1a7e 0A       		.byte	0xa
 6134 1a7f 1C       		.byte	0x1c
 6135 1a80 19       		.uleb128 0x19
 6136 1a81 81030000 		.4byte	.LASF76
 6137 1a85 81030000 		.4byte	.LASF76
 6138 1a89 05       		.byte	0x5
 6139 1a8a 15       		.byte	0x15
 6140 1a8b 19       		.uleb128 0x19
ARM GAS  C:\Users\Misha\AppData\Local\Temp\cc40ki4b.s 			page 129


 6141 1a8c 0B050000 		.4byte	.LASF77
 6142 1a90 0B050000 		.4byte	.LASF77
 6143 1a94 06       		.byte	0x6
 6144 1a95 16       		.byte	0x16
 6145 1a96 19       		.uleb128 0x19
 6146 1a97 19040000 		.4byte	.LASF78
 6147 1a9b 19040000 		.4byte	.LASF78
 6148 1a9f 0E       		.byte	0xe
 6149 1aa0 0F       		.byte	0xf
 6150 1aa1 19       		.uleb128 0x19
 6151 1aa2 E8050000 		.4byte	.LASF79
 6152 1aa6 E8050000 		.4byte	.LASF79
 6153 1aaa 0E       		.byte	0xe
 6154 1aab 0E       		.byte	0xe
 6155 1aac 19       		.uleb128 0x19
 6156 1aad 3F040000 		.4byte	.LASF80
 6157 1ab1 3F040000 		.4byte	.LASF80
 6158 1ab5 05       		.byte	0x5
 6159 1ab6 13       		.byte	0x13
 6160 1ab7 19       		.uleb128 0x19
 6161 1ab8 2C020000 		.4byte	.LASF81
 6162 1abc 2C020000 		.4byte	.LASF81
 6163 1ac0 0F       		.byte	0xf
 6164 1ac1 0F       		.byte	0xf
 6165 1ac2 19       		.uleb128 0x19
 6166 1ac3 C5030000 		.4byte	.LASF82
 6167 1ac7 C5030000 		.4byte	.LASF82
 6168 1acb 05       		.byte	0x5
 6169 1acc 0F       		.byte	0xf
 6170 1acd 19       		.uleb128 0x19
 6171 1ace 00000000 		.4byte	.LASF83
 6172 1ad2 00000000 		.4byte	.LASF83
 6173 1ad6 0F       		.byte	0xf
 6174 1ad7 11       		.byte	0x11
 6175 1ad8 19       		.uleb128 0x19
 6176 1ad9 FF040000 		.4byte	.LASF84
 6177 1add FF040000 		.4byte	.LASF84
 6178 1ae1 10       		.byte	0x10
 6179 1ae2 3D       		.byte	0x3d
 6180 1ae3 19       		.uleb128 0x19
 6181 1ae4 74030000 		.4byte	.LASF85
 6182 1ae8 74030000 		.4byte	.LASF85
 6183 1aec 09       		.byte	0x9
 6184 1aed 54       		.byte	0x54
 6185 1aee 19       		.uleb128 0x19
 6186 1aef 83020000 		.4byte	.LASF86
 6187 1af3 83020000 		.4byte	.LASF86
 6188 1af7 11       		.byte	0x11
 6189 1af8 3A       		.byte	0x3a
 6190 1af9 19       		.uleb128 0x19
 6191 1afa AF040000 		.4byte	.LASF87
 6192 1afe AF040000 		.4byte	.LASF87
 6193 1b02 12       		.byte	0x12
 6194 1b03 3C       		.byte	0x3c
 6195 1b04 19       		.uleb128 0x19
 6196 1b05 2E040000 		.4byte	.LASF88
 6197 1b09 2E040000 		.4byte	.LASF88
ARM GAS  C:\Users\Misha\AppData\Local\Temp\cc40ki4b.s 			page 130


 6198 1b0d 12       		.byte	0x12
 6199 1b0e 40       		.byte	0x40
 6200 1b0f 19       		.uleb128 0x19
 6201 1b10 A8050000 		.4byte	.LASF89
 6202 1b14 A8050000 		.4byte	.LASF89
 6203 1b18 12       		.byte	0x12
 6204 1b19 41       		.byte	0x41
 6205 1b1a 19       		.uleb128 0x19
 6206 1b1b 85040000 		.4byte	.LASF90
 6207 1b1f 85040000 		.4byte	.LASF90
 6208 1b23 13       		.byte	0x13
 6209 1b24 2F       		.byte	0x2f
 6210 1b25 19       		.uleb128 0x19
 6211 1b26 BD040000 		.4byte	.LASF91
 6212 1b2a BD040000 		.4byte	.LASF91
 6213 1b2e 14       		.byte	0x14
 6214 1b2f 92       		.byte	0x92
 6215 1b30 19       		.uleb128 0x19
 6216 1b31 52030000 		.4byte	.LASF92
 6217 1b35 52030000 		.4byte	.LASF92
 6218 1b39 14       		.byte	0x14
 6219 1b3a C3       		.byte	0xc3
 6220 1b3b 19       		.uleb128 0x19
 6221 1b3c 49010000 		.4byte	.LASF93
 6222 1b40 49010000 		.4byte	.LASF93
 6223 1b44 14       		.byte	0x14
 6224 1b45 DC       		.byte	0xdc
 6225 1b46 19       		.uleb128 0x19
 6226 1b47 D5010000 		.4byte	.LASF94
 6227 1b4b D5010000 		.4byte	.LASF94
 6228 1b4f 15       		.byte	0x15
 6229 1b50 92       		.byte	0x92
 6230 1b51 19       		.uleb128 0x19
 6231 1b52 E0040000 		.4byte	.LASF95
 6232 1b56 E0040000 		.4byte	.LASF95
 6233 1b5a 15       		.byte	0x15
 6234 1b5b C3       		.byte	0xc3
 6235 1b5c 19       		.uleb128 0x19
 6236 1b5d 1A060000 		.4byte	.LASF96
 6237 1b61 1A060000 		.4byte	.LASF96
 6238 1b65 15       		.byte	0x15
 6239 1b66 DC       		.byte	0xdc
 6240 1b67 19       		.uleb128 0x19
 6241 1b68 D3030000 		.4byte	.LASF97
 6242 1b6c D3030000 		.4byte	.LASF97
 6243 1b70 16       		.byte	0x16
 6244 1b71 92       		.byte	0x92
 6245 1b72 19       		.uleb128 0x19
 6246 1b73 AB020000 		.4byte	.LASF98
 6247 1b77 AB020000 		.4byte	.LASF98
 6248 1b7b 17       		.byte	0x17
 6249 1b7c 92       		.byte	0x92
 6250 1b7d 19       		.uleb128 0x19
 6251 1b7e 07080000 		.4byte	.LASF99
 6252 1b82 07080000 		.4byte	.LASF99
 6253 1b86 16       		.byte	0x16
 6254 1b87 C3       		.byte	0xc3
ARM GAS  C:\Users\Misha\AppData\Local\Temp\cc40ki4b.s 			page 131


 6255 1b88 19       		.uleb128 0x19
 6256 1b89 1B000000 		.4byte	.LASF100
 6257 1b8d 1B000000 		.4byte	.LASF100
 6258 1b91 17       		.byte	0x17
 6259 1b92 C3       		.byte	0xc3
 6260 1b93 19       		.uleb128 0x19
 6261 1b94 AD030000 		.4byte	.LASF101
 6262 1b98 AD030000 		.4byte	.LASF101
 6263 1b9c 16       		.byte	0x16
 6264 1b9d DC       		.byte	0xdc
 6265 1b9e 19       		.uleb128 0x19
 6266 1b9f 6A020000 		.4byte	.LASF102
 6267 1ba3 6A020000 		.4byte	.LASF102
 6268 1ba7 17       		.byte	0x17
 6269 1ba8 DC       		.byte	0xdc
 6270 1ba9 19       		.uleb128 0x19
 6271 1baa CB000000 		.4byte	.LASF103
 6272 1bae CB000000 		.4byte	.LASF103
 6273 1bb2 18       		.byte	0x18
 6274 1bb3 48       		.byte	0x48
 6275 1bb4 19       		.uleb128 0x19
 6276 1bb5 99000000 		.4byte	.LASF104
 6277 1bb9 99000000 		.4byte	.LASF104
 6278 1bbd 19       		.byte	0x19
 6279 1bbe 48       		.byte	0x48
 6280 1bbf 19       		.uleb128 0x19
 6281 1bc0 79050000 		.4byte	.LASF105
 6282 1bc4 79050000 		.4byte	.LASF105
 6283 1bc8 1A       		.byte	0x1a
 6284 1bc9 5A       		.byte	0x5a
 6285 1bca 19       		.uleb128 0x19
 6286 1bcb 71010000 		.4byte	.LASF106
 6287 1bcf 71010000 		.4byte	.LASF106
 6288 1bd3 1A       		.byte	0x1a
 6289 1bd4 5E       		.byte	0x5e
 6290 1bd5 19       		.uleb128 0x19
 6291 1bd6 8B000000 		.4byte	.LASF107
 6292 1bda 8B000000 		.4byte	.LASF107
 6293 1bde 1B       		.byte	0x1b
 6294 1bdf 18       		.byte	0x18
 6295 1be0 19       		.uleb128 0x19
 6296 1be1 DA050000 		.4byte	.LASF108
 6297 1be5 DA050000 		.4byte	.LASF108
 6298 1be9 1C       		.byte	0x1c
 6299 1bea 18       		.byte	0x18
 6300 1beb 19       		.uleb128 0x19
 6301 1bec CA060000 		.4byte	.LASF109
 6302 1bf0 CA060000 		.4byte	.LASF109
 6303 1bf4 06       		.byte	0x6
 6304 1bf5 1A       		.byte	0x1a
 6305 1bf6 00       		.byte	0
 6306              		.section	.debug_abbrev,"",%progbits
 6307              	.Ldebug_abbrev0:
 6308 0000 01       		.uleb128 0x1
 6309 0001 11       		.uleb128 0x11
 6310 0002 01       		.byte	0x1
 6311 0003 25       		.uleb128 0x25
ARM GAS  C:\Users\Misha\AppData\Local\Temp\cc40ki4b.s 			page 132


 6312 0004 0E       		.uleb128 0xe
 6313 0005 13       		.uleb128 0x13
 6314 0006 0B       		.uleb128 0xb
 6315 0007 03       		.uleb128 0x3
 6316 0008 0E       		.uleb128 0xe
 6317 0009 1B       		.uleb128 0x1b
 6318 000a 0E       		.uleb128 0xe
 6319 000b 55       		.uleb128 0x55
 6320 000c 17       		.uleb128 0x17
 6321 000d 11       		.uleb128 0x11
 6322 000e 01       		.uleb128 0x1
 6323 000f 10       		.uleb128 0x10
 6324 0010 17       		.uleb128 0x17
 6325 0011 00       		.byte	0
 6326 0012 00       		.byte	0
 6327 0013 02       		.uleb128 0x2
 6328 0014 24       		.uleb128 0x24
 6329 0015 00       		.byte	0
 6330 0016 0B       		.uleb128 0xb
 6331 0017 0B       		.uleb128 0xb
 6332 0018 3E       		.uleb128 0x3e
 6333 0019 0B       		.uleb128 0xb
 6334 001a 03       		.uleb128 0x3
 6335 001b 0E       		.uleb128 0xe
 6336 001c 00       		.byte	0
 6337 001d 00       		.byte	0
 6338 001e 03       		.uleb128 0x3
 6339 001f 16       		.uleb128 0x16
 6340 0020 00       		.byte	0
 6341 0021 03       		.uleb128 0x3
 6342 0022 0E       		.uleb128 0xe
 6343 0023 3A       		.uleb128 0x3a
 6344 0024 0B       		.uleb128 0xb
 6345 0025 3B       		.uleb128 0x3b
 6346 0026 0B       		.uleb128 0xb
 6347 0027 49       		.uleb128 0x49
 6348 0028 13       		.uleb128 0x13
 6349 0029 00       		.byte	0
 6350 002a 00       		.byte	0
 6351 002b 04       		.uleb128 0x4
 6352 002c 24       		.uleb128 0x24
 6353 002d 00       		.byte	0
 6354 002e 0B       		.uleb128 0xb
 6355 002f 0B       		.uleb128 0xb
 6356 0030 3E       		.uleb128 0x3e
 6357 0031 0B       		.uleb128 0xb
 6358 0032 03       		.uleb128 0x3
 6359 0033 08       		.uleb128 0x8
 6360 0034 00       		.byte	0
 6361 0035 00       		.byte	0
 6362 0036 05       		.uleb128 0x5
 6363 0037 2E       		.uleb128 0x2e
 6364 0038 01       		.byte	0x1
 6365 0039 3F       		.uleb128 0x3f
 6366 003a 19       		.uleb128 0x19
 6367 003b 03       		.uleb128 0x3
 6368 003c 08       		.uleb128 0x8
ARM GAS  C:\Users\Misha\AppData\Local\Temp\cc40ki4b.s 			page 133


 6369 003d 3A       		.uleb128 0x3a
 6370 003e 0B       		.uleb128 0xb
 6371 003f 3B       		.uleb128 0x3b
 6372 0040 0B       		.uleb128 0xb
 6373 0041 27       		.uleb128 0x27
 6374 0042 19       		.uleb128 0x19
 6375 0043 11       		.uleb128 0x11
 6376 0044 01       		.uleb128 0x1
 6377 0045 12       		.uleb128 0x12
 6378 0046 06       		.uleb128 0x6
 6379 0047 40       		.uleb128 0x40
 6380 0048 18       		.uleb128 0x18
 6381 0049 9742     		.uleb128 0x2117
 6382 004b 19       		.uleb128 0x19
 6383 004c 01       		.uleb128 0x1
 6384 004d 13       		.uleb128 0x13
 6385 004e 00       		.byte	0
 6386 004f 00       		.byte	0
 6387 0050 06       		.uleb128 0x6
 6388 0051 898201   		.uleb128 0x4109
 6389 0054 00       		.byte	0
 6390 0055 11       		.uleb128 0x11
 6391 0056 01       		.uleb128 0x1
 6392 0057 31       		.uleb128 0x31
 6393 0058 13       		.uleb128 0x13
 6394 0059 00       		.byte	0
 6395 005a 00       		.byte	0
 6396 005b 07       		.uleb128 0x7
 6397 005c 2E       		.uleb128 0x2e
 6398 005d 01       		.byte	0x1
 6399 005e 3F       		.uleb128 0x3f
 6400 005f 19       		.uleb128 0x19
 6401 0060 03       		.uleb128 0x3
 6402 0061 0E       		.uleb128 0xe
 6403 0062 3A       		.uleb128 0x3a
 6404 0063 0B       		.uleb128 0xb
 6405 0064 3B       		.uleb128 0x3b
 6406 0065 0B       		.uleb128 0xb
 6407 0066 27       		.uleb128 0x27
 6408 0067 19       		.uleb128 0x19
 6409 0068 11       		.uleb128 0x11
 6410 0069 01       		.uleb128 0x1
 6411 006a 12       		.uleb128 0x12
 6412 006b 06       		.uleb128 0x6
 6413 006c 40       		.uleb128 0x40
 6414 006d 18       		.uleb128 0x18
 6415 006e 9742     		.uleb128 0x2117
 6416 0070 19       		.uleb128 0x19
 6417 0071 01       		.uleb128 0x1
 6418 0072 13       		.uleb128 0x13
 6419 0073 00       		.byte	0
 6420 0074 00       		.byte	0
 6421 0075 08       		.uleb128 0x8
 6422 0076 898201   		.uleb128 0x4109
 6423 0079 01       		.byte	0x1
 6424 007a 11       		.uleb128 0x11
 6425 007b 01       		.uleb128 0x1
ARM GAS  C:\Users\Misha\AppData\Local\Temp\cc40ki4b.s 			page 134


 6426 007c 31       		.uleb128 0x31
 6427 007d 13       		.uleb128 0x13
 6428 007e 01       		.uleb128 0x1
 6429 007f 13       		.uleb128 0x13
 6430 0080 00       		.byte	0
 6431 0081 00       		.byte	0
 6432 0082 09       		.uleb128 0x9
 6433 0083 8A8201   		.uleb128 0x410a
 6434 0086 00       		.byte	0
 6435 0087 02       		.uleb128 0x2
 6436 0088 18       		.uleb128 0x18
 6437 0089 9142     		.uleb128 0x2111
 6438 008b 18       		.uleb128 0x18
 6439 008c 00       		.byte	0
 6440 008d 00       		.byte	0
 6441 008e 0A       		.uleb128 0xa
 6442 008f 898201   		.uleb128 0x4109
 6443 0092 01       		.byte	0x1
 6444 0093 11       		.uleb128 0x11
 6445 0094 01       		.uleb128 0x1
 6446 0095 31       		.uleb128 0x31
 6447 0096 13       		.uleb128 0x13
 6448 0097 00       		.byte	0
 6449 0098 00       		.byte	0
 6450 0099 0B       		.uleb128 0xb
 6451 009a 2E       		.uleb128 0x2e
 6452 009b 01       		.byte	0x1
 6453 009c 3F       		.uleb128 0x3f
 6454 009d 19       		.uleb128 0x19
 6455 009e 03       		.uleb128 0x3
 6456 009f 0E       		.uleb128 0xe
 6457 00a0 3A       		.uleb128 0x3a
 6458 00a1 0B       		.uleb128 0xb
 6459 00a2 3B       		.uleb128 0x3b
 6460 00a3 0B       		.uleb128 0xb
 6461 00a4 27       		.uleb128 0x27
 6462 00a5 19       		.uleb128 0x19
 6463 00a6 49       		.uleb128 0x49
 6464 00a7 13       		.uleb128 0x13
 6465 00a8 8701     		.uleb128 0x87
 6466 00aa 19       		.uleb128 0x19
 6467 00ab 11       		.uleb128 0x11
 6468 00ac 01       		.uleb128 0x1
 6469 00ad 12       		.uleb128 0x12
 6470 00ae 06       		.uleb128 0x6
 6471 00af 40       		.uleb128 0x40
 6472 00b0 18       		.uleb128 0x18
 6473 00b1 9642     		.uleb128 0x2116
 6474 00b3 19       		.uleb128 0x19
 6475 00b4 01       		.uleb128 0x1
 6476 00b5 13       		.uleb128 0x13
 6477 00b6 00       		.byte	0
 6478 00b7 00       		.byte	0
 6479 00b8 0C       		.uleb128 0xc
 6480 00b9 34       		.uleb128 0x34
 6481 00ba 00       		.byte	0
 6482 00bb 03       		.uleb128 0x3
ARM GAS  C:\Users\Misha\AppData\Local\Temp\cc40ki4b.s 			page 135


 6483 00bc 0E       		.uleb128 0xe
 6484 00bd 3A       		.uleb128 0x3a
 6485 00be 0B       		.uleb128 0xb
 6486 00bf 3B       		.uleb128 0x3b
 6487 00c0 0B       		.uleb128 0xb
 6488 00c1 49       		.uleb128 0x49
 6489 00c2 13       		.uleb128 0x13
 6490 00c3 1C       		.uleb128 0x1c
 6491 00c4 0B       		.uleb128 0xb
 6492 00c5 00       		.byte	0
 6493 00c6 00       		.byte	0
 6494 00c7 0D       		.uleb128 0xd
 6495 00c8 0B       		.uleb128 0xb
 6496 00c9 01       		.byte	0x1
 6497 00ca 11       		.uleb128 0x11
 6498 00cb 01       		.uleb128 0x1
 6499 00cc 12       		.uleb128 0x12
 6500 00cd 06       		.uleb128 0x6
 6501 00ce 01       		.uleb128 0x1
 6502 00cf 13       		.uleb128 0x13
 6503 00d0 00       		.byte	0
 6504 00d1 00       		.byte	0
 6505 00d2 0E       		.uleb128 0xe
 6506 00d3 34       		.uleb128 0x34
 6507 00d4 00       		.byte	0
 6508 00d5 03       		.uleb128 0x3
 6509 00d6 0E       		.uleb128 0xe
 6510 00d7 3A       		.uleb128 0x3a
 6511 00d8 0B       		.uleb128 0xb
 6512 00d9 3B       		.uleb128 0x3b
 6513 00da 05       		.uleb128 0x5
 6514 00db 49       		.uleb128 0x49
 6515 00dc 13       		.uleb128 0x13
 6516 00dd 02       		.uleb128 0x2
 6517 00de 17       		.uleb128 0x17
 6518 00df 00       		.byte	0
 6519 00e0 00       		.byte	0
 6520 00e1 0F       		.uleb128 0xf
 6521 00e2 34       		.uleb128 0x34
 6522 00e3 00       		.byte	0
 6523 00e4 03       		.uleb128 0x3
 6524 00e5 08       		.uleb128 0x8
 6525 00e6 3A       		.uleb128 0x3a
 6526 00e7 0B       		.uleb128 0xb
 6527 00e8 3B       		.uleb128 0x3b
 6528 00e9 05       		.uleb128 0x5
 6529 00ea 49       		.uleb128 0x49
 6530 00eb 13       		.uleb128 0x13
 6531 00ec 02       		.uleb128 0x2
 6532 00ed 17       		.uleb128 0x17
 6533 00ee 00       		.byte	0
 6534 00ef 00       		.byte	0
 6535 00f0 10       		.uleb128 0x10
 6536 00f1 0B       		.uleb128 0xb
 6537 00f2 01       		.byte	0x1
 6538 00f3 55       		.uleb128 0x55
 6539 00f4 17       		.uleb128 0x17
ARM GAS  C:\Users\Misha\AppData\Local\Temp\cc40ki4b.s 			page 136


 6540 00f5 01       		.uleb128 0x1
 6541 00f6 13       		.uleb128 0x13
 6542 00f7 00       		.byte	0
 6543 00f8 00       		.byte	0
 6544 00f9 11       		.uleb128 0x11
 6545 00fa 34       		.uleb128 0x34
 6546 00fb 00       		.byte	0
 6547 00fc 03       		.uleb128 0x3
 6548 00fd 0E       		.uleb128 0xe
 6549 00fe 3A       		.uleb128 0x3a
 6550 00ff 0B       		.uleb128 0xb
 6551 0100 3B       		.uleb128 0x3b
 6552 0101 05       		.uleb128 0x5
 6553 0102 49       		.uleb128 0x49
 6554 0103 13       		.uleb128 0x13
 6555 0104 00       		.byte	0
 6556 0105 00       		.byte	0
 6557 0106 12       		.uleb128 0x12
 6558 0107 34       		.uleb128 0x34
 6559 0108 00       		.byte	0
 6560 0109 03       		.uleb128 0x3
 6561 010a 0E       		.uleb128 0xe
 6562 010b 3A       		.uleb128 0x3a
 6563 010c 0B       		.uleb128 0xb
 6564 010d 3B       		.uleb128 0x3b
 6565 010e 05       		.uleb128 0x5
 6566 010f 49       		.uleb128 0x49
 6567 0110 13       		.uleb128 0x13
 6568 0111 3F       		.uleb128 0x3f
 6569 0112 19       		.uleb128 0x19
 6570 0113 3C       		.uleb128 0x3c
 6571 0114 19       		.uleb128 0x19
 6572 0115 00       		.byte	0
 6573 0116 00       		.byte	0
 6574 0117 13       		.uleb128 0x13
 6575 0118 35       		.uleb128 0x35
 6576 0119 00       		.byte	0
 6577 011a 49       		.uleb128 0x49
 6578 011b 13       		.uleb128 0x13
 6579 011c 00       		.byte	0
 6580 011d 00       		.byte	0
 6581 011e 14       		.uleb128 0x14
 6582 011f 34       		.uleb128 0x34
 6583 0120 00       		.byte	0
 6584 0121 03       		.uleb128 0x3
 6585 0122 0E       		.uleb128 0xe
 6586 0123 3A       		.uleb128 0x3a
 6587 0124 0B       		.uleb128 0xb
 6588 0125 3B       		.uleb128 0x3b
 6589 0126 0B       		.uleb128 0xb
 6590 0127 49       		.uleb128 0x49
 6591 0128 13       		.uleb128 0x13
 6592 0129 3F       		.uleb128 0x3f
 6593 012a 19       		.uleb128 0x19
 6594 012b 02       		.uleb128 0x2
 6595 012c 18       		.uleb128 0x18
 6596 012d 00       		.byte	0
ARM GAS  C:\Users\Misha\AppData\Local\Temp\cc40ki4b.s 			page 137


 6597 012e 00       		.byte	0
 6598 012f 15       		.uleb128 0x15
 6599 0130 01       		.uleb128 0x1
 6600 0131 01       		.byte	0x1
 6601 0132 49       		.uleb128 0x49
 6602 0133 13       		.uleb128 0x13
 6603 0134 01       		.uleb128 0x1
 6604 0135 13       		.uleb128 0x13
 6605 0136 00       		.byte	0
 6606 0137 00       		.byte	0
 6607 0138 16       		.uleb128 0x16
 6608 0139 21       		.uleb128 0x21
 6609 013a 00       		.byte	0
 6610 013b 49       		.uleb128 0x49
 6611 013c 13       		.uleb128 0x13
 6612 013d 2F       		.uleb128 0x2f
 6613 013e 0B       		.uleb128 0xb
 6614 013f 00       		.byte	0
 6615 0140 00       		.byte	0
 6616 0141 17       		.uleb128 0x17
 6617 0142 34       		.uleb128 0x34
 6618 0143 00       		.byte	0
 6619 0144 03       		.uleb128 0x3
 6620 0145 0E       		.uleb128 0xe
 6621 0146 3A       		.uleb128 0x3a
 6622 0147 0B       		.uleb128 0xb
 6623 0148 3B       		.uleb128 0x3b
 6624 0149 0B       		.uleb128 0xb
 6625 014a 49       		.uleb128 0x49
 6626 014b 13       		.uleb128 0x13
 6627 014c 3F       		.uleb128 0x3f
 6628 014d 19       		.uleb128 0x19
 6629 014e 3C       		.uleb128 0x3c
 6630 014f 19       		.uleb128 0x19
 6631 0150 00       		.byte	0
 6632 0151 00       		.byte	0
 6633 0152 18       		.uleb128 0x18
 6634 0153 26       		.uleb128 0x26
 6635 0154 00       		.byte	0
 6636 0155 49       		.uleb128 0x49
 6637 0156 13       		.uleb128 0x13
 6638 0157 00       		.byte	0
 6639 0158 00       		.byte	0
 6640 0159 19       		.uleb128 0x19
 6641 015a 2E       		.uleb128 0x2e
 6642 015b 00       		.byte	0
 6643 015c 3F       		.uleb128 0x3f
 6644 015d 19       		.uleb128 0x19
 6645 015e 3C       		.uleb128 0x3c
 6646 015f 19       		.uleb128 0x19
 6647 0160 6E       		.uleb128 0x6e
 6648 0161 0E       		.uleb128 0xe
 6649 0162 03       		.uleb128 0x3
 6650 0163 0E       		.uleb128 0xe
 6651 0164 3A       		.uleb128 0x3a
 6652 0165 0B       		.uleb128 0xb
 6653 0166 3B       		.uleb128 0x3b
ARM GAS  C:\Users\Misha\AppData\Local\Temp\cc40ki4b.s 			page 138


 6654 0167 0B       		.uleb128 0xb
 6655 0168 00       		.byte	0
 6656 0169 00       		.byte	0
 6657 016a 00       		.byte	0
 6658              		.section	.debug_loc,"",%progbits
 6659              	.Ldebug_loc0:
 6660              	.LLST0:
 6661 0000 7C010000 		.4byte	.LVL60
 6662 0004 82010000 		.4byte	.LVL61
 6663 0008 0200     		.2byte	0x2
 6664 000a 30       		.byte	0x30
 6665 000b 9F       		.byte	0x9f
 6666 000c 82010000 		.4byte	.LVL61
 6667 0010 A2010000 		.4byte	.LVL64
 6668 0014 0100     		.2byte	0x1
 6669 0016 52       		.byte	0x52
 6670 0017 00000000 		.4byte	0
 6671 001b 00000000 		.4byte	0
 6672              	.LLST1:
 6673 001f 2A010000 		.4byte	.LVL48
 6674 0023 2E010000 		.4byte	.LVL49
 6675 0027 0200     		.2byte	0x2
 6676 0029 30       		.byte	0x30
 6677 002a 9F       		.byte	0x9f
 6678 002b 2E010000 		.4byte	.LVL49
 6679 002f 50010000 		.4byte	.LVL54
 6680 0033 0100     		.2byte	0x1
 6681 0035 54       		.byte	0x54
 6682 0036 00000000 		.4byte	0
 6683 003a 00000000 		.4byte	0
 6684              	.LLST2:
 6685 003e 4E010000 		.4byte	.LVL53
 6686 0042 52010000 		.4byte	.LVL55
 6687 0046 0200     		.2byte	0x2
 6688 0048 30       		.byte	0x30
 6689 0049 9F       		.byte	0x9f
 6690 004a 52010000 		.4byte	.LVL55
 6691 004e A6010000 		.4byte	.LVL66
 6692 0052 0100     		.2byte	0x1
 6693 0054 54       		.byte	0x54
 6694 0055 00000000 		.4byte	0
 6695 0059 00000000 		.4byte	0
 6696              	.LLST3:
 6697 005d 7C010000 		.4byte	.LVL60
 6698 0061 82010000 		.4byte	.LVL61
 6699 0065 0200     		.2byte	0x2
 6700 0067 30       		.byte	0x30
 6701 0068 9F       		.byte	0x9f
 6702 0069 82010000 		.4byte	.LVL61
 6703 006d A4010000 		.4byte	.LVL65
 6704 0071 0100     		.2byte	0x1
 6705 0073 53       		.byte	0x53
 6706 0074 00000000 		.4byte	0
 6707 0078 00000000 		.4byte	0
 6708              	.LLST4:
 6709 007c FA010000 		.4byte	.LVL74
 6710 0080 38040000 		.4byte	.LVL122
ARM GAS  C:\Users\Misha\AppData\Local\Temp\cc40ki4b.s 			page 139


 6711 0084 0100     		.2byte	0x1
 6712 0086 55       		.byte	0x55
 6713 0087 00000000 		.4byte	0
 6714 008b 00000000 		.4byte	0
 6715              	.LLST5:
 6716 008f AC030000 		.4byte	.LVL108
 6717 0093 28050000 		.4byte	.LVL145
 6718 0097 0100     		.2byte	0x1
 6719 0099 56       		.byte	0x56
 6720 009a 00000000 		.4byte	0
 6721 009e 00000000 		.4byte	0
 6722              	.LLST6:
 6723 00a2 12040000 		.4byte	.LVL118
 6724 00a6 14040000 		.4byte	.LVL119
 6725 00aa 0100     		.2byte	0x1
 6726 00ac 50       		.byte	0x50
 6727 00ad 00000000 		.4byte	0
 6728 00b1 00000000 		.4byte	0
 6729              	.LLST7:
 6730 00b5 AE040000 		.4byte	.LVL135
 6731 00b9 B4040000 		.4byte	.LVL136
 6732 00bd 0100     		.2byte	0x1
 6733 00bf 50       		.byte	0x50
 6734 00c0 00000000 		.4byte	0
 6735 00c4 00000000 		.4byte	0
 6736              	.LLST8:
 6737 00c8 26070000 		.4byte	.LVL178
 6738 00cc 5A070000 		.4byte	.LVL184
 6739 00d0 0200     		.2byte	0x2
 6740 00d2 31       		.byte	0x31
 6741 00d3 9F       		.byte	0x9f
 6742 00d4 00000000 		.4byte	0
 6743 00d8 00000000 		.4byte	0
 6744              	.LLST9:
 6745 00dc 00090000 		.4byte	.LVL217
 6746 00e0 16090000 		.4byte	.LVL218
 6747 00e4 0100     		.2byte	0x1
 6748 00e6 53       		.byte	0x53
 6749 00e7 16090000 		.4byte	.LVL218
 6750 00eb 21090000 		.4byte	.LVL219-1
 6751 00ef 0500     		.2byte	0x5
 6752 00f1 03       		.byte	0x3
 6753 00f2 00000000 		.4byte	current_stage
 6754 00f6 48090000 		.4byte	.LVL224
 6755 00fa 5A090000 		.4byte	.LVL225
 6756 00fe 0100     		.2byte	0x1
 6757 0100 53       		.byte	0x53
 6758 0101 5A090000 		.4byte	.LVL225
 6759 0105 6D090000 		.4byte	.LVL226-1
 6760 0109 0500     		.2byte	0x5
 6761 010b 03       		.byte	0x3
 6762 010c 00000000 		.4byte	current_stage
 6763 0110 74090000 		.4byte	.LVL228
 6764 0114 76090000 		.4byte	.LVL229
 6765 0118 0100     		.2byte	0x1
 6766 011a 53       		.byte	0x53
 6767 011b 76090000 		.4byte	.LVL229
ARM GAS  C:\Users\Misha\AppData\Local\Temp\cc40ki4b.s 			page 140


 6768 011f 87090000 		.4byte	.LVL230-1
 6769 0123 0500     		.2byte	0x5
 6770 0125 03       		.byte	0x3
 6771 0126 00000000 		.4byte	current_stage
 6772 012a 00000000 		.4byte	0
 6773 012e 00000000 		.4byte	0
 6774              		.section	.debug_aranges,"",%progbits
 6775 0000 2C000000 		.4byte	0x2c
 6776 0004 0200     		.2byte	0x2
 6777 0006 00000000 		.4byte	.Ldebug_info0
 6778 000a 04       		.byte	0x4
 6779 000b 00       		.byte	0
 6780 000c 0000     		.2byte	0
 6781 000e 0000     		.2byte	0
 6782 0010 00000000 		.4byte	.LFB64
 6783 0014 08000000 		.4byte	.LFE64-.LFB64
 6784 0018 00000000 		.4byte	.LFB65
 6785 001c 24000000 		.4byte	.LFE65-.LFB65
 6786 0020 00000000 		.4byte	.LFB66
 6787 0024 BC0A0000 		.4byte	.LFE66-.LFB66
 6788 0028 00000000 		.4byte	0
 6789 002c 00000000 		.4byte	0
 6790              		.section	.debug_ranges,"",%progbits
 6791              	.Ldebug_ranges0:
 6792 0000 7C010000 		.4byte	.LBB5
 6793 0004 7E010000 		.4byte	.LBE5
 6794 0008 80010000 		.4byte	.LBB6
 6795 000c A0010000 		.4byte	.LBE6
 6796 0010 00000000 		.4byte	0
 6797 0014 00000000 		.4byte	0
 6798 0018 00000000 		.4byte	.LFB64
 6799 001c 08000000 		.4byte	.LFE64
 6800 0020 00000000 		.4byte	.LFB65
 6801 0024 24000000 		.4byte	.LFE65
 6802 0028 00000000 		.4byte	.LFB66
 6803 002c BC0A0000 		.4byte	.LFE66
 6804 0030 00000000 		.4byte	0
 6805 0034 00000000 		.4byte	0
 6806              		.section	.debug_line,"",%progbits
 6807              	.Ldebug_line0:
 6808 0000 26050000 		.section	.debug_str,"MS",%progbits,1
 6808      02001C03 
 6808      00000201 
 6808      FB0E0D00 
 6808      01010101 
 6809              	.LASF83:
 6810 0000 61726D43 		.ascii	"armClose\000"
 6810      6C6F7365 
 6810      00
 6811              	.LASF70:
 6812 0009 756C7469 		.ascii	"ultimateDebugging\000"
 6812      6D617465 
 6812      44656275 
 6812      6767696E 
 6812      6700
 6813              	.LASF100:
 6814 001b 4D6F746F 		.ascii	"Motor_Right_Driver_WriteCompare\000"
ARM GAS  C:\Users\Misha\AppData\Local\Temp\cc40ki4b.s 			page 141


 6814      725F5269 
 6814      6768745F 
 6814      44726976 
 6814      65725F57 
 6815              	.LASF68:
 6816 003b 636F6C6F 		.ascii	"colourSensingOutput\000"
 6816      75725365 
 6816      6E73696E 
 6816      674F7574 
 6816      70757400 
 6817              	.LASF36:
 6818 004f 7475726E 		.ascii	"turningLeftFlag\000"
 6818      696E674C 
 6818      65667446 
 6818      6C616700 
 6819              	.LASF71:
 6820 005f 73747261 		.ascii	"straightAdjust\000"
 6820      69676874 
 6820      41646A75 
 6820      737400
 6821              	.LASF2:
 6822 006e 73686F72 		.ascii	"short int\000"
 6822      7420696E 
 6822      7400
 6823              	.LASF34:
 6824 0078 64726976 		.ascii	"drivingForwardFlag\000"
 6824      696E6746 
 6824      6F727761 
 6824      7264466C 
 6824      616700
 6825              	.LASF107:
 6826 008b 536F6E69 		.ascii	"Sonic_StartEx\000"
 6826      635F5374 
 6826      61727445 
 6826      7800
 6827              	.LASF104:
 6828 0099 4D6F746F 		.ascii	"Motor_Right_Decoder_Start\000"
 6828      725F5269 
 6828      6768745F 
 6828      4465636F 
 6828      6465725F 
 6829              	.LASF10:
 6830 00b3 696E7433 		.ascii	"int32_t\000"
 6830      325F7400 
 6831              	.LASF53:
 6832 00bb 62656769 		.ascii	"beginNavigation\000"
 6832      6E4E6176 
 6832      69676174 
 6832      696F6E00 
 6833              	.LASF103:
 6834 00cb 4D6F746F 		.ascii	"Motor_Left_Decoder_Start\000"
 6834      725F4C65 
 6834      66745F44 
 6834      65636F64 
 6834      65725F53 
 6835              	.LASF30:
 6836 00e4 7075636B 		.ascii	"puckRackOffsetsFromWest\000"
ARM GAS  C:\Users\Misha\AppData\Local\Temp\cc40ki4b.s 			page 142


 6836      5261636B 
 6836      4F666673 
 6836      65747346 
 6836      726F6D57 
 6837              	.LASF14:
 6838 00fc 6C6F6E67 		.ascii	"long double\000"
 6838      20646F75 
 6838      626C6500 
 6839              	.LASF19:
 6840 0108 7075636B 		.ascii	"puckRackIndex\000"
 6840      5261636B 
 6840      496E6465 
 6840      7800
 6841              	.LASF40:
 6842 0116 756C7472 		.ascii	"ultrasonic_distances_mm\000"
 6842      61736F6E 
 6842      69635F64 
 6842      69737461 
 6842      6E636573 
 6843              	.LASF21:
 6844 012e 7075636B 		.ascii	"puck_check\000"
 6844      5F636865 
 6844      636B00
 6845              	.LASF44:
 6846 0139 756C7472 		.ascii	"ultrasonic_flag\000"
 6846      61736F6E 
 6846      69635F66 
 6846      6C616700 
 6847              	.LASF93:
 6848 0149 5261636B 		.ascii	"Rack_Servo_PWM_Sleep\000"
 6848      5F536572 
 6848      766F5F50 
 6848      574D5F53 
 6848      6C656570 
 6849              	.LASF52:
 6850 015e 686F7269 		.ascii	"horizontalPuckGrid\000"
 6850      7A6F6E74 
 6850      616C5075 
 6850      636B4772 
 6850      696400
 6851              	.LASF106:
 6852 0171 54696D65 		.ascii	"Timer_1_ReadStatusRegister\000"
 6852      725F315F 
 6852      52656164 
 6852      53746174 
 6852      75735265 
 6853              	.LASF31:
 6854 018c 73776565 		.ascii	"sweeping\000"
 6854      70696E67 
 6854      00
 6855              	.LASF27:
 6856 0195 64726976 		.ascii	"driveStraightEnable\000"
 6856      65537472 
 6856      61696768 
 6856      74456E61 
 6856      626C6500 
 6857              	.LASF50:
ARM GAS  C:\Users\Misha\AppData\Local\Temp\cc40ki4b.s 			page 143


 6858 01a9 63757272 		.ascii	"currentPuckStackSize\000"
 6858      656E7450 
 6858      75636B53 
 6858      7461636B 
 6858      53697A65 
 6859              	.LASF49:
 6860 01be 72756E6E 		.ascii	"running\000"
 6860      696E6700 
 6861              	.LASF56:
 6862 01c6 626C6F63 		.ascii	"block_location\000"
 6862      6B5F6C6F 
 6862      63617469 
 6862      6F6E00
 6863              	.LASF94:
 6864 01d5 47726970 		.ascii	"Gripper_Servo_PWM_Start\000"
 6864      7065725F 
 6864      53657276 
 6864      6F5F5057 
 6864      4D5F5374 
 6865              	.LASF23:
 6866 01ed 7075636B 		.ascii	"puck_correct\000"
 6866      5F636F72 
 6866      72656374 
 6866      00
 6867              	.LASF65:
 6868 01fa 756C7472 		.ascii	"ultrasonicInterruptHandler\000"
 6868      61736F6E 
 6868      6963496E 
 6868      74657272 
 6868      75707448 
 6869              	.LASF37:
 6870 0215 7475726E 		.ascii	"turningRightFlag\000"
 6870      696E6752 
 6870      69676874 
 6870      466C6167 
 6870      00
 6871              	.LASF11:
 6872 0226 666C6F61 		.ascii	"float\000"
 6872      7400
 6873              	.LASF81:
 6874 022c 6368616E 		.ascii	"changeHeightToPuck\000"
 6874      67654865 
 6874      69676874 
 6874      546F5075 
 6874      636B00
 6875              	.LASF6:
 6876 023f 6C6F6E67 		.ascii	"long long int\000"
 6876      206C6F6E 
 6876      6720696E 
 6876      7400
 6877              	.LASF17:
 6878 024d 626C6F63 		.ascii	"block_and_puck_edge_midpoint\000"
 6878      6B5F616E 
 6878      645F7075 
 6878      636B5F65 
 6878      6467655F 
 6879              	.LASF102:
ARM GAS  C:\Users\Misha\AppData\Local\Temp\cc40ki4b.s 			page 144


 6880 026a 4D6F746F 		.ascii	"Motor_Right_Driver_Sleep\000"
 6880      725F5269 
 6880      6768745F 
 6880      44726976 
 6880      65725F53 
 6881              	.LASF86:
 6882 0283 4144435F 		.ascii	"ADC_Start\000"
 6882      53746172 
 6882      7400
 6883              	.LASF4:
 6884 028d 6C6F6E67 		.ascii	"long int\000"
 6884      20696E74 
 6884      00
 6885              	.LASF26:
 6886 0296 696E7465 		.ascii	"internal_orientation\000"
 6886      726E616C 
 6886      5F6F7269 
 6886      656E7461 
 6886      74696F6E 
 6887              	.LASF98:
 6888 02ab 4D6F746F 		.ascii	"Motor_Right_Driver_Start\000"
 6888      725F5269 
 6888      6768745F 
 6888      44726976 
 6888      65725F53 
 6889              	.LASF22:
 6890 02c4 6F666673 		.ascii	"offset\000"
 6890      657400
 6891              	.LASF75:
 6892 02cb 626C696E 		.ascii	"blinkLED\000"
 6892      6B4C4544 
 6892      00
 6893              	.LASF74:
 6894 02d4 636F6E74 		.ascii	"control_photodiode_Write\000"
 6894      726F6C5F 
 6894      70686F74 
 6894      6F64696F 
 6894      64655F57 
 6895              	.LASF48:
 6896 02ed 73616665 		.ascii	"safety_override\000"
 6896      74795F6F 
 6896      76657272 
 6896      69646500 
 6897              	.LASF58:
 6898 02fd 626C6F63 		.ascii	"blockEastClearance\000"
 6898      6B456173 
 6898      74436C65 
 6898      6172616E 
 6898      636500
 6899              	.LASF33:
 6900 0310 7075636B 		.ascii	"puckPileLocation\000"
 6900      50696C65 
 6900      4C6F6361 
 6900      74696F6E 
 6900      00
 6901              	.LASF35:
 6902 0321 64726976 		.ascii	"drivingBackwardFlag\000"
ARM GAS  C:\Users\Misha\AppData\Local\Temp\cc40ki4b.s 			page 145


 6902      696E6742 
 6902      61636B77 
 6902      61726446 
 6902      6C616700 
 6903              	.LASF28:
 6904 0335 63757272 		.ascii	"currentPuckRackScanningIndex\000"
 6904      656E7450 
 6904      75636B52 
 6904      61636B53 
 6904      63616E6E 
 6905              	.LASF92:
 6906 0352 5261636B 		.ascii	"Rack_Servo_PWM_WriteCompare\000"
 6906      5F536572 
 6906      766F5F50 
 6906      574D5F57 
 6906      72697465 
 6907              	.LASF42:
 6908 036e 73746174 		.ascii	"state\000"
 6908      6500
 6909              	.LASF85:
 6910 0374 55415254 		.ascii	"UART_1_Start\000"
 6910      5F315F53 
 6910      74617274 
 6910      00
 6911              	.LASF76:
 6912 0381 6368616E 		.ascii	"changeOrientation\000"
 6912      67654F72 
 6912      69656E74 
 6912      6174696F 
 6912      6E00
 6913              	.LASF1:
 6914 0393 756E7369 		.ascii	"unsigned char\000"
 6914      676E6564 
 6914      20636861 
 6914      7200
 6915              	.LASF41:
 6916 03a1 636F6C6F 		.ascii	"colour_flag\000"
 6916      75725F66 
 6916      6C616700 
 6917              	.LASF101:
 6918 03ad 4D6F746F 		.ascii	"Motor_Left_Driver_Sleep\000"
 6918      725F4C65 
 6918      66745F44 
 6918      72697665 
 6918      725F536C 
 6919              	.LASF82:
 6920 03c5 6D6F7665 		.ascii	"moveUntilPuck\000"
 6920      556E7469 
 6920      6C507563 
 6920      6B00
 6921              	.LASF97:
 6922 03d3 4D6F746F 		.ascii	"Motor_Left_Driver_Start\000"
 6922      725F4C65 
 6922      66745F44 
 6922      72697665 
 6922      725F5374 
 6923              	.LASF57:
ARM GAS  C:\Users\Misha\AppData\Local\Temp\cc40ki4b.s 			page 146


 6924 03eb 7075636B 		.ascii	"puck_location\000"
 6924      5F6C6F63 
 6924      6174696F 
 6924      6E00
 6925              	.LASF69:
 6926 03f9 73707269 		.ascii	"sprintf\000"
 6926      6E746600 
 6927              	.LASF73:
 6928 0401 636F6C6F 		.ascii	"colourSensingInitialise\000"
 6928      75725365 
 6928      6E73696E 
 6928      67496E69 
 6928      7469616C 
 6929              	.LASF78:
 6930 0419 7472616E 		.ascii	"translateMoveDynamic\000"
 6930      736C6174 
 6930      654D6F76 
 6930      6544796E 
 6930      616D6963 
 6931              	.LASF88:
 6932 042e 49444143 		.ascii	"IDAC8_1_SetRange\000"
 6932      385F315F 
 6932      53657452 
 6932      616E6765 
 6932      00
 6933              	.LASF80:
 6934 043f 7472616E 		.ascii	"translateUntil\000"
 6934      736C6174 
 6934      65556E74 
 6934      696C00
 6935              	.LASF0:
 6936 044e 7369676E 		.ascii	"signed char\000"
 6936      65642063 
 6936      68617200 
 6937              	.LASF32:
 6938 045a 626C6F63 		.ascii	"block_edge_location\000"
 6938      6B5F6564 
 6938      67655F6C 
 6938      6F636174 
 6938      696F6E00 
 6939              	.LASF7:
 6940 046e 6C6F6E67 		.ascii	"long long unsigned int\000"
 6940      206C6F6E 
 6940      6720756E 
 6940      7369676E 
 6940      65642069 
 6941              	.LASF90:
 6942 0485 636F6E74 		.ascii	"control_led_Write\000"
 6942      726F6C5F 
 6942      6C65645F 
 6942      57726974 
 6942      6500
 6943              	.LASF8:
 6944 0497 756E7369 		.ascii	"unsigned int\000"
 6944      676E6564 
 6944      20696E74 
 6944      00
ARM GAS  C:\Users\Misha\AppData\Local\Temp\cc40ki4b.s 			page 147


 6945              	.LASF62:
 6946 04a4 69646163 		.ascii	"idac_value\000"
 6946      5F76616C 
 6946      756500
 6947              	.LASF87:
 6948 04af 49444143 		.ascii	"IDAC8_1_Start\000"
 6948      385F315F 
 6948      53746172 
 6948      7400
 6949              	.LASF91:
 6950 04bd 5261636B 		.ascii	"Rack_Servo_PWM_Start\000"
 6950      5F536572 
 6950      766F5F50 
 6950      574D5F53 
 6950      74617274 
 6951              	.LASF46:
 6952 04d2 63757272 		.ascii	"current_stage\000"
 6952      656E745F 
 6952      73746167 
 6952      6500
 6953              	.LASF95:
 6954 04e0 47726970 		.ascii	"Gripper_Servo_PWM_WriteCompare\000"
 6954      7065725F 
 6954      53657276 
 6954      6F5F5057 
 6954      4D5F5772 
 6955              	.LASF84:
 6956 04ff 5449415F 		.ascii	"TIA_1_Start\000"
 6956      315F5374 
 6956      61727400 
 6957              	.LASF77:
 6958 050b 64697374 		.ascii	"distanceSensor\000"
 6958      616E6365 
 6958      53656E73 
 6958      6F7200
 6959              	.LASF13:
 6960 051a 63686172 		.ascii	"char\000"
 6960      00
 6961              	.LASF61:
 6962 051f 7075636B 		.ascii	"puckWestClearance\000"
 6962      57657374 
 6962      436C6561 
 6962      72616E63 
 6962      6500
 6963              	.LASF113:
 6964 0531 6D61696E 		.ascii	"main\000"
 6964      00
 6965              	.LASF29:
 6966 0536 7075636B 		.ascii	"puckRackColours\000"
 6966      5261636B 
 6966      436F6C6F 
 6966      75727300 
 6967              	.LASF63:
 6968 0546 504C414E 		.ascii	"PLAN_SCAN_VERTICAL\000"
 6968      5F534341 
 6968      4E5F5645 
 6968      52544943 
ARM GAS  C:\Users\Misha\AppData\Local\Temp\cc40ki4b.s 			page 148


 6968      414C00
 6969              	.LASF47:
 6970 0559 636F6C6F 		.ascii	"colour_sensing_algorithm\000"
 6970      75725F73 
 6970      656E7369 
 6970      6E675F61 
 6970      6C676F72 
 6971              	.LASF43:
 6972 0572 6D6F7669 		.ascii	"moving\000"
 6972      6E6700
 6973              	.LASF105:
 6974 0579 54696D65 		.ascii	"Timer_1_Start\000"
 6974      725F315F 
 6974      53746172 
 6974      7400
 6975              	.LASF55:
 6976 0587 70617468 		.ascii	"pathPastBlock\000"
 6976      50617374 
 6976      426C6F63 
 6976      6B00
 6977              	.LASF3:
 6978 0595 73686F72 		.ascii	"short unsigned int\000"
 6978      7420756E 
 6978      7369676E 
 6978      65642069 
 6978      6E7400
 6979              	.LASF89:
 6980 05a8 49444143 		.ascii	"IDAC8_1_SetValue\000"
 6980      385F315F 
 6980      53657456 
 6980      616C7565 
 6980      00
 6981              	.LASF111:
 6982 05b9 6D61696E 		.ascii	"main.c\000"
 6982      2E6300
 6983              	.LASF16:
 6984 05c0 53746172 		.ascii	"StartIH\000"
 6984      74494800 
 6985              	.LASF5:
 6986 05c8 6C6F6E67 		.ascii	"long unsigned int\000"
 6986      20756E73 
 6986      69676E65 
 6986      6420696E 
 6986      7400
 6987              	.LASF108:
 6988 05da 53746172 		.ascii	"Start_StartEx\000"
 6988      745F5374 
 6988      61727445 
 6988      7800
 6989              	.LASF79:
 6990 05e8 6D6F7665 		.ascii	"moveDynamic\000"
 6990      44796E61 
 6990      6D696300 
 6991              	.LASF67:
 6992 05f4 55415254 		.ascii	"UART_1_PutString\000"
 6992      5F315F50 
 6992      75745374 
ARM GAS  C:\Users\Misha\AppData\Local\Temp\cc40ki4b.s 			page 149


 6992      72696E67 
 6992      00
 6993              	.LASF45:
 6994 0605 7075636B 		.ascii	"puckConstructionPlan\000"
 6994      436F6E73 
 6994      74727563 
 6994      74696F6E 
 6994      506C616E 
 6995              	.LASF96:
 6996 061a 47726970 		.ascii	"Gripper_Servo_PWM_Sleep\000"
 6996      7065725F 
 6996      53657276 
 6996      6F5F5057 
 6996      4D5F536C 
 6997              	.LASF24:
 6998 0632 68656C64 		.ascii	"heldColour\000"
 6998      436F6C6F 
 6998      757200
 6999              	.LASF20:
 7000 063d 626C6F63 		.ascii	"block_check\000"
 7000      6B5F6368 
 7000      65636B00 
 7001              	.LASF114:
 7002 0649 7075636B 		.ascii	"puck_scan\000"
 7002      5F736361 
 7002      6E00
 7003              	.LASF9:
 7004 0653 5F5F696E 		.ascii	"__int32_t\000"
 7004      7433325F 
 7004      7400
 7005              	.LASF59:
 7006 065d 626C6F63 		.ascii	"blockWestClearance\000"
 7006      6B576573 
 7006      74436C65 
 7006      6172616E 
 7006      636500
 7007              	.LASF112:
 7008 0670 433A5C55 		.ascii	"C:\\Users\\Misha\\Documents\\PSoC Creator\\ECE3091_"
 7008      73657273 
 7008      5C4D6973 
 7008      68615C44 
 7008      6F63756D 
 7009 069e 47726F75 		.ascii	"Group17\\Group17RobotReal\\Group17Robot.cydsn\000"
 7009      7031375C 
 7009      47726F75 
 7009      70313752 
 7009      6F626F74 
 7010              	.LASF109:
 7011 06ca 73616665 		.ascii	"safetyDistanceCheck\000"
 7011      74794469 
 7011      7374616E 
 7011      63654368 
 7011      65636B00 
 7012              	.LASF60:
 7013 06de 7075636B 		.ascii	"puckEastClearance\000"
 7013      45617374 
 7013      436C6561 
ARM GAS  C:\Users\Misha\AppData\Local\Temp\cc40ki4b.s 			page 150


 7013      72616E63 
 7013      6500
 7014              	.LASF72:
 7015 06f0 6D6F7665 		.ascii	"moveUntil\000"
 7015      556E7469 
 7015      6C00
 7016              	.LASF15:
 7017 06fa 73697A65 		.ascii	"sizetype\000"
 7017      74797065 
 7017      00
 7018              	.LASF39:
 7019 0703 6F757470 		.ascii	"output\000"
 7019      757400
 7020              	.LASF12:
 7021 070a 646F7562 		.ascii	"double\000"
 7021      6C6500
 7022              	.LASF64:
 7023 0711 64697374 		.ascii	"distance_returned_global\000"
 7023      616E6365 
 7023      5F726574 
 7023      75726E65 
 7023      645F676C 
 7024              	.LASF25:
 7025 072a 49544D5F 		.ascii	"ITM_RxBuffer\000"
 7025      52784275 
 7025      66666572 
 7025      00
 7026              	.LASF110:
 7027 0737 474E5520 		.ascii	"GNU C11 5.4.1 20160609 (release) [ARM/embedded-5-br"
 7027      43313120 
 7027      352E342E 
 7027      31203230 
 7027      31363036 
 7028 076a 616E6368 		.ascii	"anch revision 237715] -mcpu=cortex-m3 -mthumb -g -O"
 7028      20726576 
 7028      6973696F 
 7028      6E203233 
 7028      37373135 
 7029 079d 67202D66 		.ascii	"g -ffunction-sections -ffat-lto-objects\000"
 7029      66756E63 
 7029      74696F6E 
 7029      2D736563 
 7029      74696F6E 
 7030              	.LASF18:
 7031 07c5 7075636B 		.ascii	"puckConstructionPlanIndex\000"
 7031      436F6E73 
 7031      74727563 
 7031      74696F6E 
 7031      506C616E 
 7032              	.LASF66:
 7033 07df 43794465 		.ascii	"CyDelay\000"
 7033      6C617900 
 7034              	.LASF54:
 7035 07e7 70617468 		.ascii	"pathToPucks\000"
 7035      546F5075 
 7035      636B7300 
 7036              	.LASF51:
ARM GAS  C:\Users\Misha\AppData\Local\Temp\cc40ki4b.s 			page 151


 7037 07f3 7075636B 		.ascii	"puckColoursTempPile\000"
 7037      436F6C6F 
 7037      75727354 
 7037      656D7050 
 7037      696C6500 
 7038              	.LASF99:
 7039 0807 4D6F746F 		.ascii	"Motor_Left_Driver_WriteCompare\000"
 7039      725F4C65 
 7039      66745F44 
 7039      72697665 
 7039      725F5772 
 7040              	.LASF38:
 7041 0826 696E6974 		.ascii	"initialisation\000"
 7041      69616C69 
 7041      73617469 
 7041      6F6E00
 7042              		.ident	"GCC: (GNU Tools for ARM Embedded Processors) 5.4.1 20160609 (release) [ARM/embedded-5-bran
