ARM GAS  C:\Users\Misha\AppData\Local\Temp\ccwkTl6l.s 			page 1


   1              		.syntax unified
   2              		.cpu cortex-m3
   3              		.fpu softvfp
   4              		.eabi_attribute 20, 1
   5              		.eabi_attribute 21, 1
   6              		.eabi_attribute 23, 3
   7              		.eabi_attribute 24, 1
   8              		.eabi_attribute 25, 1
   9              		.eabi_attribute 26, 1
  10              		.eabi_attribute 30, 1
  11              		.eabi_attribute 34, 1
  12              		.eabi_attribute 18, 4
  13              		.thumb
  14              		.syntax unified
  15              		.file	"main.c"
  16              		.text
  17              	.Ltext0:
  18              		.cfi_sections	.debug_frame
  19              		.section	.text.TIH,"ax",%progbits
  20              		.align	2
  21              		.global	TIH
  22              		.thumb
  23              		.thumb_func
  24              		.type	TIH, %function
  25              	TIH:
  26              	.LFB64:
  27              		.file 1 "main.c"
   1:main.c        **** 
   2:main.c        **** /* ========================================
   3:main.c        ****  *
   4:main.c        ****  * Copyright Group 17, 2019
   5:main.c        ****  * All Rights Reserved
   6:main.c        ****  * UNPUBLISHED, LICENSED SOFTWARE.
   7:main.c        ****  *
   8:main.c        ****  * CONFIDENTIAL AND PROPRIETARY INFORMATION
   9:main.c        ****  * WHICH IS THE PROPERTY OF Blayke, Misha, Nidhin.
  10:main.c        ****  *
  11:main.c        ****  * ========================================
  12:main.c        **** */
  13:main.c        **** 
  14:main.c        **** // * PSOC LIBRARY * //
  15:main.c        **** #include "project.h"
  16:main.c        **** 
  17:main.c        **** // * C LIBRARIES * // 
  18:main.c        **** #include <stdlib.h>
  19:main.c        **** #include <stdio.h>
  20:main.c        **** #include <math.h>
  21:main.c        **** 
  22:main.c        **** // * OUR LIBRARIES * //
  23:main.c        **** #include "main.h"
  24:main.c        **** #include "colour.h"
  25:main.c        **** #include "ultrasonic.h" 
  26:main.c        **** #include "servo.h"
  27:main.c        **** #include "motor.h"
  28:main.c        **** #include "customMath.h"
  29:main.c        **** #include "navigation.h"
  30:main.c        **** #include "debugging.h"
ARM GAS  C:\Users\Misha\AppData\Local\Temp\ccwkTl6l.s 			page 2


  31:main.c        **** 
  32:main.c        **** 
  33:main.c        **** extern char output[32];   
  34:main.c        **** 
  35:main.c        **** // * STATE VARIABLES * //
  36:main.c        **** int state = STATE_SCAN_PLAN;
  37:main.c        **** int running = 1;
  38:main.c        **** int sweeping = 0;
  39:main.c        **** float block_edge_location[4] = {0,0,0,0}; // N E S W edge positions respectively
  40:main.c        **** 
  41:main.c        **** // * PUCK CONSTRUCTION VARIABLES * //
  42:main.c        **** int currentPuckStackSize = 0; // How many pucks are currently on the construction plate
  43:main.c        **** int puckRackColours[5] = {BLANK,BLANK,BLANK,BLANK,BLANK}; // 5 slots in puck rack.
  44:main.c        **** int puckConstructionPlan[3] = {BLANK,BLANK,BLANK};
  45:main.c        **** int currentPuckRackScanningIndex = 0;
  46:main.c        **** int puckRackOffsetsFromWest[5] = {PUCK_RACK_0_WEST_DISTANCE,
  47:main.c        ****                                 PUCK_RACK_1_WEST_DISTANCE,
  48:main.c        ****                                 PUCK_RACK_2_WEST_DISTANCE,
  49:main.c        ****                                 PUCK_RACK_3_WEST_DISTANCE,
  50:main.c        ****                                 PUCK_RACK_4_WEST_DISTANCE };
  51:main.c        **** 
  52:main.c        **** int puckColoursTempPile[2] = {BLANK,BLANK}; // Index 0 refers to east home base edge, 1 refers to w
  53:main.c        **** 
  54:main.c        **** float horizontalPuckGrid = 0;
  55:main.c        **** 
  56:main.c        **** // * NAVIGATION AND POSITION VARIABLES * //
  57:main.c        **** 
  58:main.c        **** int beginNavigation = 0; // Allow us to break out of the intial phase when powered up
  59:main.c        **** int pathToPucks; // This will give us a corridor that we should initially take when trying to go to
  60:main.c        **** int pathPastBlock;
  61:main.c        **** int block_location[4] = {0,0,0,0};      // The block location values
  62:main.c        ****                                         //#define NORTH 0
  63:main.c        ****                                         //#define EAST 1
  64:main.c        ****                                         //#define SOUTH 2
  65:main.c        ****                                         //#define WEST 3
  66:main.c        **** int puck_location[4] = {0,0,0,0};       // The block location values
  67:main.c        ****                                         //#define NORTH 0
  68:main.c        ****                                         //#define EAST 1
  69:main.c        ****                                         //#define SOUTH 2
  70:main.c        ****                                         //#define WEST 3
  71:main.c        **** 
  72:main.c        **** int safety_override = FALSE;            
  73:main.c        **** 
  74:main.c        **** // These block clearance variables are only true if we have enough room either side of the block to
  75:main.c        **** // And only true for the puck clearance variables if there is enough room to be able to turn at the
  76:main.c        **** short int blockEastClearance = 0;
  77:main.c        **** short int blockWestClearance = 0;
  78:main.c        **** short int puckEastClearance = 0;
  79:main.c        **** short int puckWestClearance = 0;
  80:main.c        **** 
  81:main.c        **** // * COLOUR VARIABLES * //
  82:main.c        **** 
  83:main.c        **** int idac_value = 0;  
  84:main.c        **** int colour_flag = 1;                    // sets which photodiode to use 
  85:main.c        **** int colour_sensing_algorithm = 0;      // Determines which colour sensing algorithm to use:
  86:main.c        ****                                                 // 0: Wall algorithm
  87:main.c        ****                                             // 1: Claw algorithm
ARM GAS  C:\Users\Misha\AppData\Local\Temp\ccwkTl6l.s 			page 3


  88:main.c        ****                                                 // 2: old algorithm
  89:main.c        **** 
  90:main.c        **** int moving = 0; // Temp to stop while loop from repeated runs of scanning plan code
  91:main.c        **** 
  92:main.c        **** const int PLAN_SCAN_VERTICAL = 10; // Set to ultrasonic distance at the home base 
  93:main.c        **** 
  94:main.c        **** int current_stage = 1;      // There are 3 stages, we start at 1
  95:main.c        **** 
  96:main.c        **** 
  97:main.c        **** // GLOBAL VARIABLE
  98:main.c        **** int distance_returned_global;
  99:main.c        **** 
 100:main.c        **** 
 101:main.c        **** // * INTERRUPT HANDLING * // 
 102:main.c        **** CY_ISR(TIH)                             // Ultrasonic ISR Definition
 103:main.c        **** {
  28              		.loc 1 103 0
  29              		.cfi_startproc
  30              		@ args = 0, pretend = 0, frame = 0
  31              		@ frame_needed = 0, uses_anonymous_args = 0
  32 0000 08B5     		push	{r3, lr}
  33              		.cfi_def_cfa_offset 8
  34              		.cfi_offset 3, -8
  35              		.cfi_offset 14, -4
 104:main.c        ****     ultrasonicInterruptHandler();
  36              		.loc 1 104 0
  37 0002 FFF7FEFF 		bl	ultrasonicInterruptHandler
  38              	.LVL0:
  39 0006 08BD     		pop	{r3, pc}
  40              		.cfi_endproc
  41              	.LFE64:
  42              		.size	TIH, .-TIH
  43              		.section	.text.StartIH,"ax",%progbits
  44              		.align	2
  45              		.global	StartIH
  46              		.thumb
  47              		.thumb_func
  48              		.type	StartIH, %function
  49              	StartIH:
  50              	.LFB65:
 105:main.c        **** }
 106:main.c        **** 
 107:main.c        **** CY_ISR(StartIH)                             // Ultrasonic ISR Definition
 108:main.c        **** {
  51              		.loc 1 108 0
  52              		.cfi_startproc
  53              		@ args = 0, pretend = 0, frame = 0
  54              		@ frame_needed = 0, uses_anonymous_args = 0
  55 0000 08B5     		push	{r3, lr}
  56              		.cfi_def_cfa_offset 8
  57              		.cfi_offset 3, -8
  58              		.cfi_offset 14, -4
 109:main.c        ****     CyDelay(100);
  59              		.loc 1 109 0
  60 0002 6420     		movs	r0, #100
  61 0004 FFF7FEFF 		bl	CyDelay
  62              	.LVL1:
ARM GAS  C:\Users\Misha\AppData\Local\Temp\ccwkTl6l.s 			page 4


 110:main.c        ****     
 111:main.c        ****     beginNavigation = 1;
  63              		.loc 1 111 0
  64 0008 0122     		movs	r2, #1
  65 000a 034B     		ldr	r3, .L5
  66 000c 1A60     		str	r2, [r3]
 112:main.c        ****     colour_flag = 0; 
  67              		.loc 1 112 0
  68 000e 0022     		movs	r2, #0
  69 0010 024B     		ldr	r3, .L5+4
  70 0012 1A60     		str	r2, [r3]
  71 0014 08BD     		pop	{r3, pc}
  72              	.L6:
  73 0016 00BF     		.align	2
  74              	.L5:
  75 0018 00000000 		.word	.LANCHOR0
  76 001c 00000000 		.word	.LANCHOR1
  77              		.cfi_endproc
  78              	.LFE65:
  79              		.size	StartIH, .-StartIH
  80              		.section	.text.main,"ax",%progbits
  81              		.align	2
  82              		.global	main
  83              		.thumb
  84              		.thumb_func
  85              		.type	main, %function
  86              	main:
  87              	.LFB66:
 113:main.c        **** }
 114:main.c        ****  
 115:main.c        **** //Interrupt service routines for dcmotor function
 116:main.c        **** /*
 117:main.c        **** CY_ISR(Encoder_Counts_1_IH){
 118:main.c        ****     stopMotor1AndUpdate();
 119:main.c        **** }
 120:main.c        **** 
 121:main.c        **** CY_ISR(Encoder_Counts_2_IH){
 122:main.c        ****     stopMotor2AndUpdate();
 123:main.c        **** }
 124:main.c        **** 
 125:main.c        **** CY_ISR(Drift_Check_IH){    
 126:main.c        ****     Drift_Check_Timer_ReadStatusRegister(); //Clears the interrupt
 127:main.c        ****     Drift_Check_Timer_Stop(); //Stops the timer
 128:main.c        ****     motor1EncoderCounts = Motor_1_Encoder_Counts_ReadCounter();
 129:main.c        ****     motor2EncoderCounts = Motor_2_Encoder_Counts_ReadCounter();
 130:main.c        ****     driftCorrect(); //Does checking
 131:main.c        **** }
 132:main.c        **** */
 133:main.c        **** 
 134:main.c        **** int main(void)
 135:main.c        **** {
  88              		.loc 1 135 0
  89              		.cfi_startproc
  90              		@ args = 0, pretend = 0, frame = 0
  91              		@ frame_needed = 0, uses_anonymous_args = 0
  92 0000 F0B5     		push	{r4, r5, r6, r7, lr}
  93              		.cfi_def_cfa_offset 20
ARM GAS  C:\Users\Misha\AppData\Local\Temp\ccwkTl6l.s 			page 5


  94              		.cfi_offset 4, -20
  95              		.cfi_offset 5, -16
  96              		.cfi_offset 6, -12
  97              		.cfi_offset 7, -8
  98              		.cfi_offset 14, -4
  99 0002 83B0     		sub	sp, sp, #12
 100              		.cfi_def_cfa_offset 32
 136:main.c        ****     CyGlobalIntEnable; /* Enable global interrupts. */
 101              		.loc 1 136 0
 102              		.syntax unified
 103              	@ 136 "main.c" 1
 104 0004 62B6     		CPSIE   i
 105              	@ 0 "" 2
 137:main.c        **** 
 138:main.c        ****     
 139:main.c        ****     TIA_1_Start();
 106              		.loc 1 139 0
 107              		.thumb
 108              		.syntax unified
 109 0006 FFF7FEFF 		bl	TIA_1_Start
 110              	.LVL2:
 140:main.c        ****     UART_1_Start();
 111              		.loc 1 140 0
 112 000a FFF7FEFF 		bl	UART_1_Start
 113              	.LVL3:
 141:main.c        ****     UART_1_PutString("UART commencing... \n");
 114              		.loc 1 141 0
 115 000e 7D48     		ldr	r0, .L50
 116 0010 FFF7FEFF 		bl	UART_1_PutString
 117              	.LVL4:
 142:main.c        ****     ADC_Start();
 118              		.loc 1 142 0
 119 0014 FFF7FEFF 		bl	ADC_Start
 120              	.LVL5:
 143:main.c        ****     IDAC8_1_Start();
 121              		.loc 1 143 0
 122 0018 FFF7FEFF 		bl	IDAC8_1_Start
 123              	.LVL6:
 144:main.c        ****     
 145:main.c        ****     // DEBUGGING:
 146:main.c        ****         // Moved to debugging.c file, set it there
 147:main.c        ****     
 148:main.c        ****     
 149:main.c        ****     // IDAC initialisation: 
 150:main.c        ****     IDAC8_1_SetRange(IDAC8_1_RANGE_32uA);       // Sets the range between 0 and 32uA
 124              		.loc 1 150 0
 125 001c 0020     		movs	r0, #0
 126 001e FFF7FEFF 		bl	IDAC8_1_SetRange
 127              	.LVL7:
 151:main.c        ****     IDAC8_1_SetValue(idac_value);               // set a value between 0 and 255
 128              		.loc 1 151 0
 129 0022 794C     		ldr	r4, .L50+4
 130 0024 2079     		ldrb	r0, [r4, #4]	@ zero_extendqisi2
 131 0026 FFF7FEFF 		bl	IDAC8_1_SetValue
 132              	.LVL8:
 152:main.c        ****     
 153:main.c        ****     // Colour Sensing Initialisation & Debugging:
ARM GAS  C:\Users\Misha\AppData\Local\Temp\ccwkTl6l.s 			page 6


 154:main.c        ****     colour_sensing_algorithm = 0;
 133              		.loc 1 154 0
 134 002a 0025     		movs	r5, #0
 135 002c A560     		str	r5, [r4, #8]
 155:main.c        ****     control_photodiode_Write(colour_sensing_algorithm);            // controls which photodiode is 
 136              		.loc 1 155 0
 137 002e 2846     		mov	r0, r5
 138 0030 FFF7FEFF 		bl	control_photodiode_Write
 139              	.LVL9:
 156:main.c        ****                                                 // 0: wall
 157:main.c        ****                                                 // 1: claw
 158:main.c        ****     control_led_Write(1);   CyDelay(500);  // Ensures all the RGBs are working
 140              		.loc 1 158 0
 141 0034 0120     		movs	r0, #1
 142 0036 FFF7FEFF 		bl	control_led_Write
 143              	.LVL10:
 144 003a 4FF4FA70 		mov	r0, #500
 145 003e FFF7FEFF 		bl	CyDelay
 146              	.LVL11:
 159:main.c        ****     control_led_Write(2);   CyDelay(500);
 147              		.loc 1 159 0
 148 0042 0220     		movs	r0, #2
 149 0044 FFF7FEFF 		bl	control_led_Write
 150              	.LVL12:
 151 0048 4FF4FA70 		mov	r0, #500
 152 004c FFF7FEFF 		bl	CyDelay
 153              	.LVL13:
 160:main.c        ****     control_led_Write(3);   CyDelay(500);
 154              		.loc 1 160 0
 155 0050 0320     		movs	r0, #3
 156 0052 FFF7FEFF 		bl	control_led_Write
 157              	.LVL14:
 158 0056 4FF4FA70 		mov	r0, #500
 159 005a FFF7FEFF 		bl	CyDelay
 160              	.LVL15:
 161:main.c        ****     control_led_Write(0);   CyDelay(500);
 161              		.loc 1 161 0
 162 005e 2846     		mov	r0, r5
 163 0060 FFF7FEFF 		bl	control_led_Write
 164              	.LVL16:
 165 0064 4FF4FA70 		mov	r0, #500
 166 0068 FFF7FEFF 		bl	CyDelay
 167              	.LVL17:
 162:main.c        ****     colourSensingInitialise();                  // Initialises the colour sensor
 168              		.loc 1 162 0
 169 006c FFF7FEFF 		bl	colourSensingInitialise
 170              	.LVL18:
 163:main.c        ****     
 164:main.c        **** 
 165:main.c        ****     //Servos for the arm instatination
 166:main.c        ****     Rack_Servo_PWM_Start();
 171              		.loc 1 166 0
 172 0070 FFF7FEFF 		bl	Rack_Servo_PWM_Start
 173              	.LVL19:
 167:main.c        ****     Rack_Servo_PWM_WriteCompare(1000);          // BRINGs rack to highest position, so not to mess 
 174              		.loc 1 167 0
 175 0074 4FF47A70 		mov	r0, #1000
ARM GAS  C:\Users\Misha\AppData\Local\Temp\ccwkTl6l.s 			page 7


 176 0078 FFF7FEFF 		bl	Rack_Servo_PWM_WriteCompare
 177              	.LVL20:
 168:main.c        ****     CyDelay(500);
 178              		.loc 1 168 0
 179 007c 4FF4FA70 		mov	r0, #500
 180 0080 FFF7FEFF 		bl	CyDelay
 181              	.LVL21:
 169:main.c        ****     Rack_Servo_PWM_Sleep();
 182              		.loc 1 169 0
 183 0084 FFF7FEFF 		bl	Rack_Servo_PWM_Sleep
 184              	.LVL22:
 170:main.c        ****     
 171:main.c        ****     Gripper_Servo_PWM_Start();
 185              		.loc 1 171 0
 186 0088 FFF7FEFF 		bl	Gripper_Servo_PWM_Start
 187              	.LVL23:
 172:main.c        ****     Gripper_Servo_PWM_WriteCompare(1120);       //This is the open gripper position
 188              		.loc 1 172 0
 189 008c 4FF48C60 		mov	r0, #1120
 190 0090 FFF7FEFF 		bl	Gripper_Servo_PWM_WriteCompare
 191              	.LVL24:
 173:main.c        ****     CyDelay(500);
 192              		.loc 1 173 0
 193 0094 4FF4FA70 		mov	r0, #500
 194 0098 FFF7FEFF 		bl	CyDelay
 195              	.LVL25:
 174:main.c        ****     Gripper_Servo_PWM_Sleep();
 196              		.loc 1 174 0
 197 009c FFF7FEFF 		bl	Gripper_Servo_PWM_Sleep
 198              	.LVL26:
 175:main.c        ****     
 176:main.c        ****     // Motors Initialisation:
 177:main.c        ****     Motor_Left_Driver_Start();
 199              		.loc 1 177 0
 200 00a0 FFF7FEFF 		bl	Motor_Left_Driver_Start
 201              	.LVL27:
 178:main.c        ****     Motor_Left_Driver_Sleep();                  // Puts motor to sleep
 202              		.loc 1 178 0
 203 00a4 FFF7FEFF 		bl	Motor_Left_Driver_Sleep
 204              	.LVL28:
 179:main.c        ****     Motor_Right_Driver_Start();
 205              		.loc 1 179 0
 206 00a8 FFF7FEFF 		bl	Motor_Right_Driver_Start
 207              	.LVL29:
 180:main.c        ****     Motor_Right_Driver_Sleep();                 // Puts motor to sleep
 208              		.loc 1 180 0
 209 00ac FFF7FEFF 		bl	Motor_Right_Driver_Sleep
 210              	.LVL30:
 181:main.c        ****     
 182:main.c        ****     Motor_Left_Decoder_Start();
 211              		.loc 1 182 0
 212 00b0 FFF7FEFF 		bl	Motor_Left_Decoder_Start
 213              	.LVL31:
 183:main.c        ****     Motor_Right_Decoder_Start();
 214              		.loc 1 183 0
 215 00b4 FFF7FEFF 		bl	Motor_Right_Decoder_Start
 216              	.LVL32:
ARM GAS  C:\Users\Misha\AppData\Local\Temp\ccwkTl6l.s 			page 8


 184:main.c        ****     
 185:main.c        ****     internal_orientation = WEST;                // robot initial starts in the East direction
 217              		.loc 1 185 0
 218 00b8 544F     		ldr	r7, .L50+8
 219 00ba 0326     		movs	r6, #3
 220 00bc 3E60     		str	r6, [r7]
 186:main.c        ****     
 187:main.c        ****     // Timer and ISR instantiation
 188:main.c        ****     Timer_1_Start();                
 221              		.loc 1 188 0
 222 00be FFF7FEFF 		bl	Timer_1_Start
 223              	.LVL33:
 189:main.c        ****     Timer_1_ReadStatusRegister();
 224              		.loc 1 189 0
 225 00c2 FFF7FEFF 		bl	Timer_1_ReadStatusRegister
 226              	.LVL34:
 190:main.c        ****     Sonic_StartEx(TIH);
 227              		.loc 1 190 0
 228 00c6 5248     		ldr	r0, .L50+12
 229 00c8 FFF7FEFF 		bl	Sonic_StartEx
 230              	.LVL35:
 191:main.c        ****     Start_StartEx(StartIH);
 231              		.loc 1 191 0
 232 00cc 5148     		ldr	r0, .L50+16
 233 00ce FFF7FEFF 		bl	Start_StartEx
 234              	.LVL36:
 192:main.c        ****     beginNavigation = 0;
 235              		.loc 1 192 0
 236 00d2 2560     		str	r5, [r4]
 193:main.c        ****     
 194:main.c        ****     // Ultrasonic Initialisation & Calibration:
 195:main.c        ****     // The ultrasonics take several test measurements to ensure they are working
 196:main.c        ****         
 197:main.c        ****     UART_1_PutString("Ultrasonic Calibration tests: \n");
 237              		.loc 1 197 0
 238 00d4 5048     		ldr	r0, .L50+20
 239 00d6 FFF7FEFF 		bl	UART_1_PutString
 240              	.LVL37:
 198:main.c        ****     safetyDistanceCheck();
 241              		.loc 1 198 0
 242 00da FFF7FEFF 		bl	safetyDistanceCheck
 243              	.LVL38:
 199:main.c        ****     safetyDistanceCheck();
 244              		.loc 1 199 0
 245 00de FFF7FEFF 		bl	safetyDistanceCheck
 246              	.LVL39:
 200:main.c        ****     safetyDistanceCheck();
 247              		.loc 1 200 0
 248 00e2 FFF7FEFF 		bl	safetyDistanceCheck
 249              	.LVL40:
 201:main.c        ****     
 202:main.c        ****     /*  OLD CODE FROM NIDHIN:
 203:main.c        ****     //Initialising DC motors
 204:main.c        ****     Motor_1_driver_Start();
 205:main.c        ****     Motor_2_driver_Start();
 206:main.c        ****     motorDutyCycleUpdate(0,0,0,0);//Have the motors stand still
 207:main.c        ****     
ARM GAS  C:\Users\Misha\AppData\Local\Temp\ccwkTl6l.s 			page 9


 208:main.c        ****     
 209:main.c        ****     //Initialising counters
 210:main.c        ****     Motor_1_Encoder_Counts_Start();
 211:main.c        ****     Motor_2_Encoder_Counts_Start();
 212:main.c        ****     
 213:main.c        ****     //Initialising timers
 214:main.c        ****     Drift_Check_Timer_Start();
 215:main.c        ****     
 216:main.c        ****     //Starts and enables the interrupts for the motor encoder counts
 217:main.c        ****     Encoder_Counts_1_Interrupt_StartEx(Encoder_Counts_1_IH); 
 218:main.c        ****     Encoder_Counts_2_Interrupt_StartEx(Encoder_Counts_2_IH);
 219:main.c        ****     Drift_Check_Interrupt_StartEx(Drift_Check_IH);		
 220:main.c        ****     */
 221:main.c        **** 
 222:main.c        ****       // FORCING STATE:
 223:main.c        ****     // Manual state set for testing
 224:main.c        ****     state = STATE_DEPOSIT_PUCK;
 250              		.loc 1 224 0
 251 00e6 4D4A     		ldr	r2, .L50+24
 252 00e8 0623     		movs	r3, #6
 253 00ea 5360     		str	r3, [r2, #4]
 225:main.c        ****     currentPuckStackSize = 0;
 254              		.loc 1 225 0
 255 00ec E560     		str	r5, [r4, #12]
 226:main.c        ****     current_stage = 1;
 256              		.loc 1 226 0
 257 00ee 0123     		movs	r3, #1
 258 00f0 9360     		str	r3, [r2, #8]
 227:main.c        ****     blockEastClearance = 0;
 259              		.loc 1 227 0
 260 00f2 2582     		strh	r5, [r4, #16]	@ movhi
 228:main.c        ****     blockWestClearance = 1;
 261              		.loc 1 228 0
 262 00f4 6382     		strh	r3, [r4, #18]	@ movhi
 229:main.c        ****     puckEastClearance = 0;
 263              		.loc 1 229 0
 264 00f6 A582     		strh	r5, [r4, #20]	@ movhi
 230:main.c        ****     puckWestClearance = 1;
 265              		.loc 1 230 0
 266 00f8 E382     		strh	r3, [r4, #22]	@ movhi
 267              	.LVL41:
 231:main.c        ****     int block_and_puck_edge_midpoint = 500; // take the midpoint between inner edge between the puc
 232:main.c        ****     internal_orientation = EAST;
 268              		.loc 1 232 0
 269 00fa 3B60     		str	r3, [r7]
 233:main.c        ****     puckConstructionPlan[0] = RED;
 270              		.loc 1 233 0
 271 00fc A361     		str	r3, [r4, #24]
 234:main.c        ****     puckConstructionPlan[1] = GREEN;
 272              		.loc 1 234 0
 273 00fe 0223     		movs	r3, #2
 274 0100 E361     		str	r3, [r4, #28]
 235:main.c        ****     puckConstructionPlan[2] = BLUE;
 275              		.loc 1 235 0
 276 0102 2662     		str	r6, [r4, #32]
 277              	.L46:
 236:main.c        **** 
ARM GAS  C:\Users\Misha\AppData\Local\Temp\ccwkTl6l.s 			page 10


 237:main.c        ****     // Main Loop for States
 238:main.c        ****         
 239:main.c        ****     for(;;)
 240:main.c        ****     {   
 241:main.c        ****         
 242:main.c        ****         ultimateDebugging();        // If any of the debugging flags are activated, this will be ca
 278              		.loc 1 242 0
 279 0104 FFF7FEFF 		bl	ultimateDebugging
 280              	.LVL42:
 243:main.c        ****         
 244:main.c        ****         
 245:main.c        ****         // Start button is pressed so quit sensing
 246:main.c        **** 
 247:main.c        ****         /*
 248:main.c        ****         while (beginNavigation == 0) {
 249:main.c        ****             distanceCheck();           
 250:main.c        ****             UART_1_PutString("\n");
 251:main.c        ****             CyDelay(1000); // Check distance once a second.
 252:main.c        ****                 
 253:main.c        ****         }
 254:main.c        ****         */
 255:main.c        ****         
 256:main.c        ****         
 257:main.c        ****         // Enter picking up puck state for the moment FOR TESTING
 258:main.c        ****         //colour_sensing_algorithm = 1;
 259:main.c        ****         //control_photodiode_Write(1);
 260:main.c        ****         //state = STATE_FIND_REQUIRED_PUCK;
 261:main.c        ****         
 262:main.c        ****         
 263:main.c        ****      
 264:main.c        ****         
 265:main.c        ****         //state = STATE_FIND_REQUIRED_PUCK;
 266:main.c        ****         
 267:main.c        ****         //moveUntil(100,FORWARD,GREATER_THAN,SIDE_LEFT,SPEED);
 268:main.c        ****         
 269:main.c        ****         //while(1) {};
 270:main.c        ****         
 271:main.c        ****         
 272:main.c        ****         // state = STATE_LOCATE_BLOCK_AND_PUCKS;
 273:main.c        ****         
 274:main.c        ****         
 275:main.c        ****         //UART_1_PutString("hI");
 276:main.c        ****         
 277:main.c        ****         //changeOrientation(NORTH, SPEED);
 278:main.c        ****         //changeOrientation(WEST, SPEED);
 279:main.c        ****                 
 280:main.c        ****         //state = STATE_DEPOSIT_PUCK;
 281:main.c        ****         //currentPuckStackSize = 2;
 282:main.c        ****         //current_stage = 3;
 283:main.c        ****          
 284:main.c        **** //
 285:main.c        **** // *** 1. STATE SCAN PLAN: *** // 
 286:main.c        **** //
 287:main.c        ****         
 288:main.c        ****         if (state == STATE_SCAN_PLAN) {              // colour sensing, while switch has not been p
 281              		.loc 1 288 0
 282 0108 444B     		ldr	r3, .L50+24
ARM GAS  C:\Users\Misha\AppData\Local\Temp\ccwkTl6l.s 			page 11


 283 010a 5B68     		ldr	r3, [r3, #4]
 284 010c 012B     		cmp	r3, #1
 285 010e 4CD1     		bne	.L8
 286              	.LBB2:
 289:main.c        ****             
 290:main.c        ****             while(0){
 291:main.c        ****                 moveUntil(400, FORWARD, LESS_THAN, FRONT_LEFT, SPEED, TRUE);
 292:main.c        ****                 moveDynamic(-450, SPEED, TRUE);
 293:main.c        ****                 CyDelay(500);   
 294:main.c        ****                 colourSensingInitialise();      // Initialises wall colour sensor against the black
 295:main.c        ****                 CyDelay(500);
 296:main.c        ****                 moveDynamic(170, SPEED, TRUE);
 297:main.c        ****                 CyDelay(500);
 298:main.c        ****                 
 299:main.c        ****                 for (int i = 0; i < 5; i++) {                       // scan each of the pucks 
 300:main.c        ****                     puckRackColours[i] = colourSensingOutput();
 301:main.c        ****                     CyDelay(500);
 302:main.c        ****                     moveDynamic(61, SPEED, TRUE);
 303:main.c        ****                     CyDelay(500);
 304:main.c        ****                 }
 305:main.c        ****             
 306:main.c        ****             }
 307:main.c        **** 
 308:main.c        **** 
 309:main.c        ****             
 310:main.c        ****             straightAdjust();
 287              		.loc 1 310 0
 288 0110 FFF7FEFF 		bl	straightAdjust
 289              	.LVL43:
 311:main.c        ****             moveUntil(-100, BACKWARD, LESS_THAN, BACK, SPEED, TRUE);
 290              		.loc 1 311 0
 291 0114 0123     		movs	r3, #1
 292 0116 0193     		str	r3, [sp, #4]
 293 0118 AA23     		movs	r3, #170
 294 011a 0093     		str	r3, [sp]
 295 011c 0423     		movs	r3, #4
 296 011e 1A46     		mov	r2, r3
 297 0120 0021     		movs	r1, #0
 298 0122 6FF06300 		mvn	r0, #99
 299 0126 FFF7FEFF 		bl	moveUntil
 300              	.LVL44:
 312:main.c        ****             colourSensingInitialise();      // Initialises wall colour sensor against the black wal
 301              		.loc 1 312 0
 302 012a FFF7FEFF 		bl	colourSensingInitialise
 303              	.LVL45:
 304              	.LBB3:
 313:main.c        ****                         
 314:main.c        ****             for (int i = 0; i < 5; i++) { 
 305              		.loc 1 314 0
 306 012e 0024     		movs	r4, #0
 307 0130 0AE0     		b	.L9
 308              	.LVL46:
 309              	.L10:
 315:main.c        ****                 // scan each of the pucks 
 316:main.c        ****                 //moveUntil(puckRackOffsetsFromWest[i]);
 317:main.c        ****                 puckRackColours[i] = colourSensingOutput();
 310              		.loc 1 317 0 discriminator 3
ARM GAS  C:\Users\Misha\AppData\Local\Temp\ccwkTl6l.s 			page 12


 311 0132 FFF7FEFF 		bl	colourSensingOutput
 312              	.LVL47:
 313 0136 344B     		ldr	r3, .L50+4
 314 0138 03EB8403 		add	r3, r3, r4, lsl #2
 315 013c 5862     		str	r0, [r3, #36]
 318:main.c        ****                 CyDelay(500);
 316              		.loc 1 318 0 discriminator 3
 317 013e 4FF4FA70 		mov	r0, #500
 318 0142 FFF7FEFF 		bl	CyDelay
 319              	.LVL48:
 314:main.c        ****                 // scan each of the pucks 
 320              		.loc 1 314 0 discriminator 3
 321 0146 0134     		adds	r4, r4, #1
 322              	.LVL49:
 323              	.L9:
 314:main.c        ****                 // scan each of the pucks 
 324              		.loc 1 314 0 is_stmt 0 discriminator 1
 325 0148 042C     		cmp	r4, #4
 326 014a F2DD     		ble	.L10
 327              	.LBE3:
 319:main.c        **** 
 320:main.c        ****             //straightAdjust();
 321:main.c        ****             }
 322:main.c        ****                        
 323:main.c        ****             UART_1_PutString("Found Colours: \n");
 328              		.loc 1 323 0 is_stmt 1
 329 014c 3448     		ldr	r0, .L50+28
 330 014e FFF7FEFF 		bl	UART_1_PutString
 331              	.LVL50:
 332              	.LBB4:
 324:main.c        ****             for (int i = 0; i < 5; i++) 
 333              		.loc 1 324 0
 334 0152 0024     		movs	r4, #0
 335              	.LVL51:
 336 0154 0CE0     		b	.L11
 337              	.LVL52:
 338              	.L12:
 325:main.c        ****             {
 326:main.c        ****                 sprintf(output, "%i \n", puckRackColours[i]);    // updates UART showing values of 
 339              		.loc 1 326 0 discriminator 3
 340 0156 2C4B     		ldr	r3, .L50+4
 341 0158 03EB8403 		add	r3, r3, r4, lsl #2
 342 015c 314D     		ldr	r5, .L50+32
 343 015e 5A6A     		ldr	r2, [r3, #36]
 344 0160 3149     		ldr	r1, .L50+36
 345 0162 2846     		mov	r0, r5
 346 0164 FFF7FEFF 		bl	sprintf
 347              	.LVL53:
 327:main.c        ****                 UART_1_PutString(output);
 348              		.loc 1 327 0 discriminator 3
 349 0168 2846     		mov	r0, r5
 350 016a FFF7FEFF 		bl	UART_1_PutString
 351              	.LVL54:
 324:main.c        ****             for (int i = 0; i < 5; i++) 
 352              		.loc 1 324 0 discriminator 3
 353 016e 0134     		adds	r4, r4, #1
 354              	.LVL55:
ARM GAS  C:\Users\Misha\AppData\Local\Temp\ccwkTl6l.s 			page 13


 355              	.L11:
 324:main.c        ****             for (int i = 0; i < 5; i++) 
 356              		.loc 1 324 0 is_stmt 0 discriminator 1
 357 0170 042C     		cmp	r4, #4
 358 0172 F0DD     		ble	.L12
 359              	.LBE4:
 328:main.c        ****             }
 329:main.c        ****             
 330:main.c        ****             
 331:main.c        ****             control_photodiode_Write(CLAW_SENSING);    // changes to claw photodiode
 360              		.loc 1 331 0 is_stmt 1
 361 0174 0120     		movs	r0, #1
 362 0176 FFF7FEFF 		bl	control_photodiode_Write
 363              	.LVL56:
 332:main.c        ****             colour_sensing_algorithm = CLAW_1_ALGORITHM;   // changes it to claw algorithm
 364              		.loc 1 332 0
 365 017a 0122     		movs	r2, #1
 366 017c 224B     		ldr	r3, .L50+4
 367 017e 9A60     		str	r2, [r3, #8]
 368              	.LVL57:
 369              	.LBB5:
 333:main.c        ****                                  
 334:main.c        ****             // THEN WE FILTER THE NO PUCK VALUES:
 335:main.c        ****             int puckConstructionPlanIndex = 0; // Will be used to iterate through the 3 puck colour
 336:main.c        ****             
 337:main.c        ****             // Iterate over all 5 rack slots and place the 3 colours into puckConstructionPlan.
 338:main.c        ****             for (int puckRackIndex = 0; puckRackIndex < 5; puckRackIndex++){
 370              		.loc 1 338 0
 371 0180 0023     		movs	r3, #0
 372              	.LBE5:
 335:main.c        ****             
 373              		.loc 1 335 0
 374 0182 1A46     		mov	r2, r3
 375              	.LBB6:
 376              		.loc 1 338 0
 377 0184 0CE0     		b	.L13
 378              	.LVL58:
 379              	.L15:
 339:main.c        ****                 if (puckRackColours[puckRackIndex] != BLANK && puckConstructionPlanIndex != 3){
 380              		.loc 1 339 0
 381 0186 2049     		ldr	r1, .L50+4
 382 0188 01EB8301 		add	r1, r1, r3, lsl #2
 383 018c 486A     		ldr	r0, [r1, #36]
 384 018e 30B1     		cbz	r0, .L14
 385              		.loc 1 339 0 is_stmt 0 discriminator 1
 386 0190 032A     		cmp	r2, #3
 387 0192 04D0     		beq	.L14
 340:main.c        ****                     puckConstructionPlan[puckConstructionPlanIndex] = puckRackColours[puckRackIndex
 388              		.loc 1 340 0 is_stmt 1
 389 0194 1C49     		ldr	r1, .L50+4
 390 0196 01EB8201 		add	r1, r1, r2, lsl #2
 391 019a 8861     		str	r0, [r1, #24]
 341:main.c        ****                     puckConstructionPlanIndex++;
 392              		.loc 1 341 0
 393 019c 0132     		adds	r2, r2, #1
 394              	.LVL59:
 395              	.L14:
ARM GAS  C:\Users\Misha\AppData\Local\Temp\ccwkTl6l.s 			page 14


 338:main.c        ****                 if (puckRackColours[puckRackIndex] != BLANK && puckConstructionPlanIndex != 3){
 396              		.loc 1 338 0 discriminator 2
 397 019e 0133     		adds	r3, r3, #1
 398              	.LVL60:
 399              	.L13:
 338:main.c        ****                 if (puckRackColours[puckRackIndex] != BLANK && puckConstructionPlanIndex != 3){
 400              		.loc 1 338 0 is_stmt 0 discriminator 1
 401 01a0 042B     		cmp	r3, #4
 402 01a2 F0DD     		ble	.L15
 403              	.LBE6:
 342:main.c        ****                 }
 343:main.c        ****             }
 344:main.c        ****                     
 345:main.c        ****             // MOVE into the next state: 
 346:main.c        ****             state = STATE_LOCATE_BLOCK_AND_PUCKS;
 404              		.loc 1 346 0 is_stmt 1
 405 01a4 0222     		movs	r2, #2
 406              	.LVL61:
 407 01a6 1D4B     		ldr	r3, .L50+24
 408              	.LVL62:
 409 01a8 5A60     		str	r2, [r3, #4]
 410              	.LVL63:
 411              	.L8:
 412              	.LBE2:
 347:main.c        ****             
 348:main.c        ****             /*
 349:main.c        ****             if (!moving){
 350:main.c        ****                 moving = 1;
 351:main.c        ****             if (initialisation){moveBackwardIndefinitely(); initialisation = 0;}
 352:main.c        ****             else {moveForwardIndefinitely();}        
 353:main.c        **** 
 354:main.c        ****             moveAndAngle(SCAN_INITIALISE_HORIZONTAL,PLAN_SCAN_VERTICAL,WEST_ANGLE); // Move beyond 
 355:main.c        ****             
 356:main.c        ****             // Read the black wall
 357:main.c        ****             
 358:main.c        ****             for (currentPuckRackScanningIndex = 0; currentPuckRackScanningIndex <= 4; currentPuckRa
 359:main.c        ****                 moveAndAngle(puckRackOffsetsFromWest[currentPuckRackScanningIndex],PLAN_SCAN_VERTIC
 360:main.c        ****                 puckRackColours[currentPuckRackScanningIndex] = colourSensingOutput();
 361:main.c        ****             }
 362:main.c        ****    
 363:main.c        ****             */
 364:main.c        ****         }
 365:main.c        **** 
 366:main.c        **** //
 367:main.c        **** // *** 2. STATE LOCATE BLOCKS AND PUCKS: *** // 
 368:main.c        **** //
 369:main.c        ****         
 370:main.c        ****     	if (state == STATE_LOCATE_BLOCK_AND_PUCKS){
 413              		.loc 1 370 0
 414 01aa 1C4B     		ldr	r3, .L50+24
 415 01ac 5B68     		ldr	r3, [r3, #4]
 416 01ae 022B     		cmp	r3, #2
 417 01b0 40F0F780 		bne	.L16
 418              	.LBB7:
 371:main.c        ****             
 372:main.c        **** 
 373:main.c        ****             
ARM GAS  C:\Users\Misha\AppData\Local\Temp\ccwkTl6l.s 			page 15


 374:main.c        ****             // move away from home base:
 375:main.c        ****             moveSwivel(-35, SPEED, TRUE);  
 419              		.loc 1 375 0
 420 01b4 0122     		movs	r2, #1
 421 01b6 AA21     		movs	r1, #170
 422 01b8 6FF02200 		mvn	r0, #34
 423 01bc FFF7FEFF 		bl	moveSwivel
 424              	.LVL64:
 376:main.c        ****             moveDynamic(-100, SPEED, TRUE);
 425              		.loc 1 376 0
 426 01c0 0122     		movs	r2, #1
 427 01c2 AA21     		movs	r1, #170
 428 01c4 6FF06300 		mvn	r0, #99
 429 01c8 FFF7FEFF 		bl	moveDynamic
 430              	.LVL65:
 377:main.c        ****             moveSwivel(35, SPEED, TRUE);
 431              		.loc 1 377 0
 432 01cc 0122     		movs	r2, #1
 433 01ce AA21     		movs	r1, #170
 434 01d0 2320     		movs	r0, #35
 435 01d2 FFF7FEFF 		bl	moveSwivel
 436              	.LVL66:
 378:main.c        ****             
 379:main.c        ****             translateMoveDynamic(-100,35,SPEED, TRUE);
 437              		.loc 1 379 0
 438 01d6 0123     		movs	r3, #1
 439 01d8 AA22     		movs	r2, #170
 440 01da 2321     		movs	r1, #35
 441 01dc 6FF06300 		mvn	r0, #99
 442 01e0 FFF7FEFF 		bl	translateMoveDynamic
 443              	.LVL67:
 380:main.c        ****     
 381:main.c        ****             // Move until construction zone            
 382:main.c        ****             moveUntil(130, FORWARD, LESS_THAN, FRONT_LEFT, SPEED, TRUE);  // Move to west wall
 444              		.loc 1 382 0
 445 01e4 0121     		movs	r1, #1
 446 01e6 0191     		str	r1, [sp, #4]
 447 01e8 AA23     		movs	r3, #170
 448 01ea 0093     		str	r3, [sp]
 449 01ec 0023     		movs	r3, #0
 450 01ee 0422     		movs	r2, #4
 451 01f0 8220     		movs	r0, #130
 452 01f2 FFF7FEFF 		bl	moveUntil
 453              	.LVL68:
 383:main.c        ****             straightAdjust();                                       // straighten against west wall
 454              		.loc 1 383 0
 455 01f6 FFF7FEFF 		bl	straightAdjust
 456              	.LVL69:
 384:main.c        ****             
 385:main.c        ****             // SCAN FOR BLOCKS:
 386:main.c        ****             
 387:main.c        ****             distanceSensor(SIDE_LEFT);  // takes how far we are away from home base wall
 457              		.loc 1 387 0
 458 01fa 0220     		movs	r0, #2
 459 01fc FFF7FEFF 		bl	distanceSensor
 460              	.LVL70:
 388:main.c        ****             while (ultrasonic_distances_mm[SIDE_LEFT] > (BLOCK_ZONE_SOUTH - WIDTH_SENSOR_TO_SENSOR)
ARM GAS  C:\Users\Misha\AppData\Local\Temp\ccwkTl6l.s 			page 16


 461              		.loc 1 388 0
 462 0200 17E0     		b	.L17
 463              	.L51:
 464 0202 00BF     		.align	2
 465              	.L50:
 466 0204 00000000 		.word	.LC0
 467 0208 00000000 		.word	.LANCHOR0
 468 020c 00000000 		.word	internal_orientation
 469 0210 00000000 		.word	TIH
 470 0214 00000000 		.word	StartIH
 471 0218 18000000 		.word	.LC1
 472 021c 00000000 		.word	.LANCHOR1
 473 0220 38000000 		.word	.LC2
 474 0224 00000000 		.word	output
 475 0228 4C000000 		.word	.LC3
 476              	.L18:
 389:main.c        ****                 // stays in while loop until side left value taken is appropriate
 390:main.c        ****                 // E.g. the side left value should be less than BLOCK_ZONE_SOUTH - WIDTH_SENSOR_TO_
 391:main.c        ****                 // So, it should be less than 500mm - 220mm = 280mm
 392:main.c        ****                 distanceSensor(SIDE_LEFT);
 477              		.loc 1 392 0
 478 022c 0220     		movs	r0, #2
 479 022e FFF7FEFF 		bl	distanceSensor
 480              	.LVL71:
 481              	.L17:
 388:main.c        ****             while (ultrasonic_distances_mm[SIDE_LEFT] > (BLOCK_ZONE_SOUTH - WIDTH_SENSOR_TO_SENSOR)
 482              		.loc 1 388 0
 483 0232 BE4B     		ldr	r3, .L52
 484 0234 9C68     		ldr	r4, [r3, #8]
 485 0236 B4F58C7F 		cmp	r4, #280
 486 023a F7DC     		bgt	.L18
 393:main.c        ****                } 
 394:main.c        ****             
 395:main.c        ****             
 396:main.c        ****             int block_check = BLOCK_ZONE_NORTH - ultrasonic_distances_mm[SIDE_LEFT] - WIDTH_SENSOR_
 487              		.loc 1 396 0
 488 023c C4F50374 		rsb	r4, r4, #524
 489 0240 0134     		adds	r4, r4, #1
 490              	.LVL72:
 397:main.c        ****                 // TAKES our distance from north wall, 
 398:main.c        ****                 // takes distance from arena, takes away 
 399:main.c        ****                 // minus 50 is a tolerance
 400:main.c        ****                 // This equals 700MM - leftside - 220mm + 45 = 525mm maximum, but we'll be away fro
 401:main.c        ****             
 402:main.c        ****             sprintf(output, "distance from robot to block: %d \t", block_check);
 491              		.loc 1 402 0
 492 0242 BB4D     		ldr	r5, .L52+4
 493 0244 2246     		mov	r2, r4
 494 0246 BB49     		ldr	r1, .L52+8
 495 0248 2846     		mov	r0, r5
 496 024a FFF7FEFF 		bl	sprintf
 497              	.LVL73:
 403:main.c        ****             UART_1_PutString(output);
 498              		.loc 1 403 0
 499 024e 2846     		mov	r0, r5
 500 0250 FFF7FEFF 		bl	UART_1_PutString
 501              	.LVL74:
ARM GAS  C:\Users\Misha\AppData\Local\Temp\ccwkTl6l.s 			page 17


 404:main.c        ****             
 405:main.c        ****             // block_check = 350;  // This is a default length that isn't dynamic, the block check
 406:main.c        **** 
 407:main.c        ****             moveUntil(block_check, BACKWARD, LESS_THAN, SIDE_RIGHT, SPEED, TRUE);   
 502              		.loc 1 407 0
 503 0254 0126     		movs	r6, #1
 504 0256 0196     		str	r6, [sp, #4]
 505 0258 AA25     		movs	r5, #170
 506 025a 0095     		str	r5, [sp]
 507 025c 0323     		movs	r3, #3
 508 025e 0422     		movs	r2, #4
 509 0260 0021     		movs	r1, #0
 510 0262 2046     		mov	r0, r4
 511 0264 FFF7FEFF 		bl	moveUntil
 512              	.LVL75:
 408:main.c        ****                                 // this will move backwards until it hits the block or the wall
 409:main.c        ****             blinkLED(GREEN,1000);      // To show it ended at the correct spot
 513              		.loc 1 409 0
 514 0268 4FF47A71 		mov	r1, #1000
 515 026c 0220     		movs	r0, #2
 516 026e FFF7FEFF 		bl	blinkLED
 517              	.LVL76:
 410:main.c        ****                     
 411:main.c        ****             //straightAdjust();                   // Ensure we are straight to take measurements
 412:main.c        ****                                                   // may need to readjust this 
 413:main.c        ****             
 414:main.c        ****             
 415:main.c        ****             // Move back a bit to find the left side and right side values (adds a bit of tolerance
 416:main.c        ****             moveDynamic(-(BLOCK_WIDTH/2), SPEED, TRUE);   
 518              		.loc 1 416 0
 519 0272 3246     		mov	r2, r6
 520 0274 2946     		mov	r1, r5
 521 0276 6FF02C00 		mvn	r0, #44
 522 027a FFF7FEFF 		bl	moveDynamic
 523              	.LVL77:
 417:main.c        ****             // Double check if the above is required
 418:main.c        ****             
 419:main.c        ****             //straightAdjust();                   // Ensure we are straight to take measurements
 420:main.c        ****                                                 // may need to readjust this 
 421:main.c        ****             
 422:main.c        ****             distanceSensor(SIDE_RIGHT); 
 524              		.loc 1 422 0
 525 027e 0320     		movs	r0, #3
 526 0280 FFF7FEFF 		bl	distanceSensor
 527              	.LVL78:
 423:main.c        ****             CyDelay(60); 
 528              		.loc 1 423 0
 529 0284 3C20     		movs	r0, #60
 530 0286 FFF7FEFF 		bl	CyDelay
 531              	.LVL79:
 424:main.c        ****             distanceSensor(SIDE_LEFT); 
 532              		.loc 1 424 0
 533 028a 0220     		movs	r0, #2
 534 028c FFF7FEFF 		bl	distanceSensor
 535              	.LVL80:
 425:main.c        ****             CyDelay(60); 
 536              		.loc 1 425 0
ARM GAS  C:\Users\Misha\AppData\Local\Temp\ccwkTl6l.s 			page 18


 537 0290 3C20     		movs	r0, #60
 538 0292 FFF7FEFF 		bl	CyDelay
 539              	.LVL81:
 426:main.c        ****             
 427:main.c        ****             // FAILSAFE if the block is at the very end of west wall:
 428:main.c        ****             distanceSensor(BACK);
 540              		.loc 1 428 0
 541 0296 0420     		movs	r0, #4
 542 0298 FFF7FEFF 		bl	distanceSensor
 543              	.LVL82:
 429:main.c        ****             CyDelay(60);
 544              		.loc 1 429 0
 545 029c 3C20     		movs	r0, #60
 546 029e FFF7FEFF 		bl	CyDelay
 547              	.LVL83:
 430:main.c        ****             
 431:main.c        ****             // Failsafe where we check the front and back sensors to see if they allign
 432:main.c        ****                 // FRONT_LEFT + BACK + WIDTH_BACK_TO_FRONT + TOLERANCE < 1200
 433:main.c        ****             
 434:main.c        ****             distanceSensor(FRONT_LEFT);
 548              		.loc 1 434 0
 549 02a2 0020     		movs	r0, #0
 550 02a4 FFF7FEFF 		bl	distanceSensor
 551              	.LVL84:
 435:main.c        ****             CyDelay(60);
 552              		.loc 1 435 0
 553 02a8 3C20     		movs	r0, #60
 554 02aa FFF7FEFF 		bl	CyDelay
 555              	.LVL85:
 436:main.c        ****             distanceSensor(BACK);
 556              		.loc 1 436 0
 557 02ae 0420     		movs	r0, #4
 558 02b0 FFF7FEFF 		bl	distanceSensor
 559              	.LVL86:
 437:main.c        ****             CyDelay(60);
 560              		.loc 1 437 0
 561 02b4 3C20     		movs	r0, #60
 562 02b6 FFF7FEFF 		bl	CyDelay
 563              	.LVL87:
 564              	.L19:
 438:main.c        ****             
 439:main.c        ****             while (ultrasonic_distances_mm[FRONT_LEFT] + ultrasonic_distances_mm[BACK] + 100 < 1200
 565              		.loc 1 439 0 discriminator 1
 566 02ba 9C4A     		ldr	r2, .L52
 567 02bc 1368     		ldr	r3, [r2]
 568 02be 1069     		ldr	r0, [r2, #16]
 569 02c0 0344     		add	r3, r3, r0
 570 02c2 6433     		adds	r3, r3, #100
 571 02c4 B3F5966F 		cmp	r3, #1200
 572 02c8 F7DB     		blt	.L19
 440:main.c        ****             
 441:main.c        ****             
 442:main.c        ****             // If either of the following cases are true, we can just put in default values, 
 443:main.c        ****                 // as it will be easy to circumvent the block
 444:main.c        ****                 // This orientation will be unlikely 
 445:main.c        ****             
 446:main.c        ****             if (ultrasonic_distances_mm[BACK] < SAFETY_MARGIN + 50) {
ARM GAS  C:\Users\Misha\AppData\Local\Temp\ccwkTl6l.s 			page 19


 573              		.loc 1 446 0
 574 02ca 7C28     		cmp	r0, #124
 575 02cc 11DC     		bgt	.L20
 447:main.c        ****                 // block is " | " this orientation, and close to the side wall
 448:main.c        ****                 
 449:main.c        ****                 // Fill out all the details: 
 450:main.c        ****                 block_location[NORTH] = ARENA_WIDTH - ultrasonic_distances_mm[SIDE_LEFT] - ultrason
 576              		.loc 1 450 0
 577 02ce 1146     		mov	r1, r2
 578 02d0 9368     		ldr	r3, [r2, #8]
 579 02d2 C3F59662 		rsb	r2, r3, #1200
 580 02d6 CD68     		ldr	r5, [r1, #12]
 581 02d8 521B     		subs	r2, r2, r5
 582 02da A2F5EB72 		sub	r2, r2, #470
 583 02de 9649     		ldr	r1, .L52+12
 584 02e0 8A63     		str	r2, [r1, #56]
 451:main.c        ****                 block_location[EAST] = 0;
 585              		.loc 1 451 0
 586 02e2 0022     		movs	r2, #0
 587 02e4 CA63     		str	r2, [r1, #60]
 452:main.c        ****                 block_location[SOUTH] = ultrasonic_distances_mm[SIDE_LEFT] + WIDTH_SENSOR_TO_SENSOR
 588              		.loc 1 452 0
 589 02e6 DC33     		adds	r3, r3, #220
 590 02e8 2B44     		add	r3, r3, r5
 591 02ea 0B64     		str	r3, [r1, #64]
 453:main.c        ****                 block_location[WEST] = ARENA_WIDTH - BLOCK_WIDTH; 
 592              		.loc 1 453 0
 593 02ec 40F25643 		movw	r3, #1110
 594 02f0 4B64     		str	r3, [r1, #68]
 595              	.L20:
 454:main.c        ****                 
 455:main.c        ****             }
 456:main.c        ****             if (ultrasonic_distances_mm[BACK] < BLOCK_LENGTH + 50) {
 596              		.loc 1 456 0
 597 02f2 B0F5967F 		cmp	r0, #300
 598 02f6 11DA     		bge	.L21
 457:main.c        ****                 // block is " -- " this orientation, and close to the side wall 
 458:main.c        ****                 
 459:main.c        ****                 // Fill out all the details: 
 460:main.c        ****                 block_location[NORTH] = ARENA_WIDTH - ultrasonic_distances_mm[SIDE_LEFT] - ultrason
 599              		.loc 1 460 0
 600 02f8 8C48     		ldr	r0, .L52
 601 02fa 8368     		ldr	r3, [r0, #8]
 602 02fc C3F59662 		rsb	r2, r3, #1200
 603 0300 D21A     		subs	r2, r2, r3
 604 0302 A2F5EB72 		sub	r2, r2, #470
 605 0306 8C49     		ldr	r1, .L52+12
 606 0308 8A63     		str	r2, [r1, #56]
 461:main.c        ****                 block_location[EAST] = 0;
 607              		.loc 1 461 0
 608 030a 0022     		movs	r2, #0
 609 030c CA63     		str	r2, [r1, #60]
 462:main.c        ****                 block_location[SOUTH] = ultrasonic_distances_mm[SIDE_LEFT] + WIDTH_SENSOR_TO_SENSOR
 610              		.loc 1 462 0
 611 030e DC33     		adds	r3, r3, #220
 612 0310 C268     		ldr	r2, [r0, #12]
 613 0312 1344     		add	r3, r3, r2
ARM GAS  C:\Users\Misha\AppData\Local\Temp\ccwkTl6l.s 			page 20


 614 0314 0B64     		str	r3, [r1, #64]
 463:main.c        ****                 block_location[WEST] = ARENA_WIDTH - BLOCK_LENGTH; 
 615              		.loc 1 463 0
 616 0316 40F2B633 		movw	r3, #950
 617 031a 4B64     		str	r3, [r1, #68]
 618              	.L21:
 464:main.c        ****             }
 465:main.c        ****             
 466:main.c        ****             moveUntil(block_check, BACKWARD, GREATER_THAN, SIDE_RIGHT, SPEED, TRUE);  
 619              		.loc 1 466 0
 620 031c 0125     		movs	r5, #1
 621 031e 0195     		str	r5, [sp, #4]
 622 0320 AA26     		movs	r6, #170
 623 0322 0096     		str	r6, [sp]
 624 0324 0323     		movs	r3, #3
 625 0326 0522     		movs	r2, #5
 626 0328 0021     		movs	r1, #0
 627 032a 2046     		mov	r0, r4
 628 032c FFF7FEFF 		bl	moveUntil
 629              	.LVL88:
 467:main.c        ****                                 // this will move backwards until no longer hitting the block, or t
 468:main.c        ****             blinkLED(GREEN,1000);      // To show it ended at the correct spot
 630              		.loc 1 468 0
 631 0330 4FF47A71 		mov	r1, #1000
 632 0334 0220     		movs	r0, #2
 633 0336 FFF7FEFF 		bl	blinkLED
 634              	.LVL89:
 469:main.c        ****             
 470:main.c        **** 
 471:main.c        ****             CyDelay(1000);                      // To show it ended at the correct spot
 635              		.loc 1 471 0
 636 033a 4FF47A70 		mov	r0, #1000
 637 033e FFF7FEFF 		bl	CyDelay
 638              	.LVL90:
 472:main.c        ****             distanceSensor(FRONT_LEFT);
 639              		.loc 1 472 0
 640 0342 0020     		movs	r0, #0
 641 0344 FFF7FEFF 		bl	distanceSensor
 642              	.LVL91:
 473:main.c        ****             CyDelay(60);
 643              		.loc 1 473 0
 644 0348 3C20     		movs	r0, #60
 645 034a FFF7FEFF 		bl	CyDelay
 646              	.LVL92:
 474:main.c        ****             distanceSensor(FRONT_RIGHT);        // might run some code to see if theres a differenc
 647              		.loc 1 474 0
 648 034e 2846     		mov	r0, r5
 649 0350 FFF7FEFF 		bl	distanceSensor
 650              	.LVL93:
 475:main.c        ****             CyDelay(60);
 651              		.loc 1 475 0
 652 0354 3C20     		movs	r0, #60
 653 0356 FFF7FEFF 		bl	CyDelay
 654              	.LVL94:
 476:main.c        ****             distanceSensor(SIDE_LEFT);        // might run some code to see if theres a difference 
 655              		.loc 1 476 0
 656 035a 0220     		movs	r0, #2
ARM GAS  C:\Users\Misha\AppData\Local\Temp\ccwkTl6l.s 			page 21


 657 035c FFF7FEFF 		bl	distanceSensor
 658              	.LVL95:
 477:main.c        ****             CyDelay(60);
 659              		.loc 1 477 0
 660 0360 3C20     		movs	r0, #60
 661 0362 FFF7FEFF 		bl	CyDelay
 662              	.LVL96:
 478:main.c        ****             
 479:main.c        ****             // Block location values:
 480:main.c        ****             block_location[SOUTH] = ultrasonic_distances_mm[SIDE_LEFT] + WIDTH_SENSOR_TO_SENSOR + u
 663              		.loc 1 480 0
 664 0366 714B     		ldr	r3, .L52
 665 0368 9A68     		ldr	r2, [r3, #8]
 666 036a 02F1DC01 		add	r1, r2, #220
 667 036e DA68     		ldr	r2, [r3, #12]
 668 0370 0A44     		add	r2, r2, r1
 669 0372 7149     		ldr	r1, .L52+12
 670 0374 0A64     		str	r2, [r1, #64]
 481:main.c        ****             block_location[WEST] = ultrasonic_distances_mm[FRONT_LEFT] + DISTANCE_FRONT_SENSOR_TO_S
 671              		.loc 1 481 0
 672 0376 1B68     		ldr	r3, [r3]
 673 0378 9633     		adds	r3, r3, #150
 674 037a 4B64     		str	r3, [r1, #68]
 482:main.c        ****             CyDelay(1000);         
 675              		.loc 1 482 0
 676 037c 4FF47A70 		mov	r0, #1000
 677 0380 FFF7FEFF 		bl	CyDelay
 678              	.LVL97:
 483:main.c        ****             
 484:main.c        ****             // Start moving forward to find the location of the PUCKS:           
 485:main.c        ****             changeOrientation(EAST, SPEED);                             // No matter where we are t
 679              		.loc 1 485 0
 680 0384 3146     		mov	r1, r6
 681 0386 2846     		mov	r0, r5
 682 0388 FFF7FEFF 		bl	changeOrientation
 683              	.LVL98:
 486:main.c        ****             moveUntil(150, FORWARD, LESS_THAN, FRONT_LEFT, SPEED, TRUE);
 684              		.loc 1 486 0
 685 038c 0195     		str	r5, [sp, #4]
 686 038e 0096     		str	r6, [sp]
 687 0390 0023     		movs	r3, #0
 688 0392 0422     		movs	r2, #4
 689 0394 2946     		mov	r1, r5
 690 0396 9620     		movs	r0, #150
 691 0398 FFF7FEFF 		bl	moveUntil
 692              	.LVL99:
 487:main.c        ****             straightAdjust();
 693              		.loc 1 487 0
 694 039c FFF7FEFF 		bl	straightAdjust
 695              	.LVL100:
 696              	.L22:
 697 03a0 FEE7     		b	.L22
 698              	.LVL101:
 699              	.L16:
 700              	.LBE7:
 488:main.c        ****             int puck_check = ARENA_LENGTH - PUCK_GRID_FROM_NORTH;       
 489:main.c        ****             
ARM GAS  C:\Users\Misha\AppData\Local\Temp\ccwkTl6l.s 			page 22


 490:main.c        ****             
 491:main.c        ****             while(1) {};
 492:main.c        ****             
 493:main.c        ****             // Check front and back sensors:
 494:main.c        ****             moveUntil(puck_check, LESS_THAN, BACKWARD, SIDE_LEFT, SPEED, TRUE);   // this will move
 495:main.c        ****             CyDelay(1000);
 496:main.c        ****             
 497:main.c        ****             distanceSensor(FRONT_LEFT);
 498:main.c        ****             CyDelay(DELAY);
 499:main.c        ****             distanceSensor(BACK);
 500:main.c        ****             CyDelay(DELAY);
 501:main.c        ****             
 502:main.c        ****             // checking if accidentally detected block:
 503:main.c        ****             // if the distance we are at is less than the block, we can say we didnt detect the blo
 504:main.c        ****             if (ultrasonic_distances_mm[FRONT_LEFT] + DISTANCE_FRONT_SENSOR_TO_SIDE_SENSOR < block_
 505:main.c        ****             {
 506:main.c        ****                 // puck detected
 507:main.c        ****                 // puck detectedDISTANCE_FRONT_SENSOR_TO_SIDE_SENSOR
 508:main.c        ****                 puck_location[EAST] = ultrasonic_distances_mm[FRONT_LEFT] + DISTANCE_FRONT_SENSOR_T
 509:main.c        ****                 puck_location[WEST] = ARENA_WIDTH - puck_location[EAST] - PUCK_GRID_WIDTH;
 510:main.c        ****                 
 511:main.c        ****                 blinkLED(GREEN,1000);   // puck location was succesfully found
 512:main.c        ****             }
 513:main.c        ****             else {
 514:main.c        ****                 // block detected & rescans from opposite side:
 515:main.c        ****                 
 516:main.c        ****                 moveUntil(200, BACKWARD, LESS_THAN, BACK, SPEED, TRUE);   // This should take us to
 517:main.c        ****                 changeOrientation(WEST, SPEED);
 518:main.c        ****                 moveUntil(100, FORWARD, LESS_THAN, FRONT_LEFT, SPEED, TRUE);
 519:main.c        ****                 straightAdjust();   // adjusts against the wall
 520:main.c        ****                 moveUntil(puck_check, LESS_THAN, BACKWARD, SIDE_RIGHT, SPEED, TRUE);   // this will
 521:main.c        ****                 blinkLED(GREEN,1000);   // Find the edge of the puck zone 
 522:main.c        ****                                 
 523:main.c        ****                 distanceSensor(FRONT_LEFT);
 524:main.c        ****                 CyDelay(DELAY);
 525:main.c        ****                 distanceSensor(BACK);
 526:main.c        ****                 CyDelay(DELAY);
 527:main.c        ****                 
 528:main.c        ****                 
 529:main.c        ****             }
 530:main.c        ****             
 531:main.c        ****             // PUCK has now been found, enter the IF statements to locate and pick up pucks 
 532:main.c        ****             state = STATE_GO_TO_PUCKS;
 533:main.c        **** 	    }     
 534:main.c        **** 
 535:main.c        **** //
 536:main.c        **** // *** 3. STATE GO TO PUCKS: *** // 
 537:main.c        **** //
 538:main.c        **** 
 539:main.c        ****         // Ensure that we are @ east wall facing east at a minimum verticaldistance so we can turn 
 540:main.c        ****         
 541:main.c        ****         if (state == STATE_GO_TO_PUCKS){
 701              		.loc 1 541 0
 702 03a2 032B     		cmp	r3, #3
 703 03a4 40F0B680 		bne	.L23
 542:main.c        ****             
 543:main.c        ****             if (blockEastClearance && puckEastClearance){
ARM GAS  C:\Users\Misha\AppData\Local\Temp\ccwkTl6l.s 			page 23


 704              		.loc 1 543 0
 705 03a8 634B     		ldr	r3, .L52+12
 706 03aa B3F91020 		ldrsh	r2, [r3, #16]
 707 03ae 4AB3     		cbz	r2, .L24
 708              		.loc 1 543 0 is_stmt 0 discriminator 1
 709 03b0 B3F91430 		ldrsh	r3, [r3, #20]
 710 03b4 33B3     		cbz	r3, .L24
 544:main.c        ****                 
 545:main.c        ****                 //moveUntil(CLEARANCE_RADIUS_CENTER_TO_FRONT, BACKWARD, GREATER_THAN, FRONT_LEFT, S
 546:main.c        ****                 moveUntil(CLEARANCE_RADIUS_CENTER_TO_FRONT + 100, BACKWARD, GREATER_THAN, FRONT_LEF
 711              		.loc 1 546 0 is_stmt 1
 712 03b6 0124     		movs	r4, #1
 713 03b8 0194     		str	r4, [sp, #4]
 714 03ba AA25     		movs	r5, #170
 715 03bc 0095     		str	r5, [sp]
 716 03be 0023     		movs	r3, #0
 717 03c0 0522     		movs	r2, #5
 718 03c2 1946     		mov	r1, r3
 719 03c4 E620     		movs	r0, #230
 720 03c6 FFF7FEFF 		bl	moveUntil
 721              	.LVL102:
 547:main.c        ****                 straightAdjust();
 722              		.loc 1 547 0
 723 03ca FFF7FEFF 		bl	straightAdjust
 724              	.LVL103:
 548:main.c        ****                 changeOrientation(NORTH, SPEED);
 725              		.loc 1 548 0
 726 03ce 2946     		mov	r1, r5
 727 03d0 0020     		movs	r0, #0
 728 03d2 FFF7FEFF 		bl	changeOrientation
 729              	.LVL104:
 549:main.c        ****                 straightAdjust();
 730              		.loc 1 549 0
 731 03d6 FFF7FEFF 		bl	straightAdjust
 732              	.LVL105:
 550:main.c        ****                 moveUntil(CLEARANCE_RADIUS_CENTER_TO_FRONT, FORWARD, LESS_THAN, FRONT_LEFT, SPEED, 
 733              		.loc 1 550 0
 734 03da 0194     		str	r4, [sp, #4]
 735 03dc 0095     		str	r5, [sp]
 736 03de 0023     		movs	r3, #0
 737 03e0 0422     		movs	r2, #4
 738 03e2 2146     		mov	r1, r4
 739 03e4 8220     		movs	r0, #130
 740 03e6 FFF7FEFF 		bl	moveUntil
 741              	.LVL106:
 551:main.c        ****                 //displaceLeft(); Repeatedly call this if below function not implemented
 552:main.c        ****                 //displaceLeftUntil(CLEARANCE_RADIUS_CENTER_TO_BACK,RIGHT);
 553:main.c        ****                 changeOrientation(WEST, SPEED);
 742              		.loc 1 553 0
 743 03ea 2946     		mov	r1, r5
 744 03ec 0320     		movs	r0, #3
 745 03ee FFF7FEFF 		bl	changeOrientation
 746              	.LVL107:
 554:main.c        ****                 //displaceLeft();
 555:main.c        ****                 //displaceLeftUntil(DISTANCE_PUCKS_FROM_NORTH + WIDTH_SENSOR_TO_CENTER ,RIGHT);
 556:main.c        ****                 moveUntil(DISTANCE_STOPPED_FROM_PUCK, FORWARD, LESS_THAN, FRONT_LEFT, SPEED, TRUE);
 747              		.loc 1 556 0
ARM GAS  C:\Users\Misha\AppData\Local\Temp\ccwkTl6l.s 			page 24


 748 03f2 0194     		str	r4, [sp, #4]
 749 03f4 0095     		str	r5, [sp]
 750 03f6 0023     		movs	r3, #0
 751 03f8 0422     		movs	r2, #4
 752 03fa 2146     		mov	r1, r4
 753 03fc 3220     		movs	r0, #50
 754 03fe FFF7FEFF 		bl	moveUntil
 755              	.LVL108:
 756 0402 87E0     		b	.L23
 757              	.L24:
 557:main.c        ****                 
 558:main.c        ****             }
 559:main.c        ****             
 560:main.c        ****             else if (blockWestClearance && puckWestClearance){
 758              		.loc 1 560 0
 759 0404 4C4B     		ldr	r3, .L52+12
 760 0406 B3F91230 		ldrsh	r3, [r3, #18]
 761 040a 53B3     		cbz	r3, .L25
 762              		.loc 1 560 0 is_stmt 0 discriminator 1
 763 040c 4A49     		ldr	r1, .L52+12
 764 040e B1F91610 		ldrsh	r1, [r1, #22]
 765 0412 31B3     		cbz	r1, .L25
 561:main.c        ****             
 562:main.c        ****                 //moveUntil(CLEARANCE_RADIUS_CENTER_TO_FRONT, BACKWARD, GREATER_THAN, FRONT_LEFT, S
 563:main.c        ****                 moveUntil(CLEARANCE_RADIUS_CENTER_TO_BACK, BACKWARD, LESS_THAN, BACK, SPEED, TRUE);
 766              		.loc 1 563 0 is_stmt 1
 767 0414 0124     		movs	r4, #1
 768 0416 0194     		str	r4, [sp, #4]
 769 0418 AA25     		movs	r5, #170
 770 041a 0095     		str	r5, [sp]
 771 041c 0423     		movs	r3, #4
 772 041e 1A46     		mov	r2, r3
 773 0420 0021     		movs	r1, #0
 774 0422 F020     		movs	r0, #240
 775 0424 FFF7FEFF 		bl	moveUntil
 776              	.LVL109:
 564:main.c        ****                 straightAdjust();
 777              		.loc 1 564 0
 778 0428 FFF7FEFF 		bl	straightAdjust
 779              	.LVL110:
 565:main.c        ****                 changeOrientation(NORTH, SPEED);
 780              		.loc 1 565 0
 781 042c 2946     		mov	r1, r5
 782 042e 0020     		movs	r0, #0
 783 0430 FFF7FEFF 		bl	changeOrientation
 784              	.LVL111:
 566:main.c        ****                 straightAdjust();
 785              		.loc 1 566 0
 786 0434 FFF7FEFF 		bl	straightAdjust
 787              	.LVL112:
 567:main.c        ****                 moveUntil(CLEARANCE_RADIUS_CENTER_TO_FRONT, FORWARD, LESS_THAN, FRONT_LEFT, SPEED, 
 788              		.loc 1 567 0
 789 0438 0194     		str	r4, [sp, #4]
 790 043a 0095     		str	r5, [sp]
 791 043c 0023     		movs	r3, #0
 792 043e 0422     		movs	r2, #4
 793 0440 2146     		mov	r1, r4
ARM GAS  C:\Users\Misha\AppData\Local\Temp\ccwkTl6l.s 			page 25


 794 0442 8220     		movs	r0, #130
 795 0444 FFF7FEFF 		bl	moveUntil
 796              	.LVL113:
 568:main.c        ****                 //displaceLeft(); Repeatedly call this if below function not implemented
 569:main.c        ****                 //displaceLeftUntil(CLEARANCE_RADIUS_CENTER_TO_BACK,RIGHT);
 570:main.c        ****                 changeOrientation(EAST, SPEED);
 797              		.loc 1 570 0
 798 0448 2946     		mov	r1, r5
 799 044a 2046     		mov	r0, r4
 800 044c FFF7FEFF 		bl	changeOrientation
 801              	.LVL114:
 571:main.c        ****                 //displaceLeft();
 572:main.c        ****                 //displaceLeftUntil(DISTANCE_PUCKS_FROM_NORTH + WIDTH_SENSOR_TO_CENTER ,RIGHT);
 573:main.c        ****                 moveUntil(DISTANCE_STOPPED_FROM_PUCK, FORWARD, LESS_THAN, FRONT_LEFT, SPEED, TRUE);
 802              		.loc 1 573 0
 803 0450 0194     		str	r4, [sp, #4]
 804 0452 0095     		str	r5, [sp]
 805 0454 0023     		movs	r3, #0
 806 0456 0422     		movs	r2, #4
 807 0458 2146     		mov	r1, r4
 808 045a 3220     		movs	r0, #50
 809 045c FFF7FEFF 		bl	moveUntil
 810              	.LVL115:
 811 0460 58E0     		b	.L23
 812              	.L25:
 574:main.c        ****                             
 575:main.c        ****             }
 576:main.c        ****             
 577:main.c        ****             
 578:main.c        ****             else if (blockEastClearance && puckWestClearance){
 813              		.loc 1 578 0
 814 0462 5AB3     		cbz	r2, .L26
 815              		.loc 1 578 0 is_stmt 0 discriminator 1
 816 0464 344A     		ldr	r2, .L52+12
 817 0466 B2F91620 		ldrsh	r2, [r2, #22]
 818 046a 3AB3     		cbz	r2, .L26
 579:main.c        **** 
 580:main.c        ****                 moveUntil(block_and_puck_edge_midpoint - DISTANCE_BACK_SENSOR_FROM_CENTER, BACKWARD
 819              		.loc 1 580 0 is_stmt 1
 820 046c 0124     		movs	r4, #1
 821 046e 0194     		str	r4, [sp, #4]
 822 0470 AA25     		movs	r5, #170
 823 0472 0095     		str	r5, [sp]
 824 0474 0423     		movs	r3, #4
 825 0476 1A46     		mov	r2, r3
 826 0478 0021     		movs	r1, #0
 827 047a 4FF48770 		mov	r0, #270
 828 047e FFF7FEFF 		bl	moveUntil
 829              	.LVL116:
 581:main.c        ****                 straightAdjust();
 830              		.loc 1 581 0
 831 0482 FFF7FEFF 		bl	straightAdjust
 832              	.LVL117:
 582:main.c        ****                 changeOrientation(NORTH, SPEED);
 833              		.loc 1 582 0
 834 0486 2946     		mov	r1, r5
 835 0488 0020     		movs	r0, #0
ARM GAS  C:\Users\Misha\AppData\Local\Temp\ccwkTl6l.s 			page 26


 836 048a FFF7FEFF 		bl	changeOrientation
 837              	.LVL118:
 583:main.c        ****                 straightAdjust();
 838              		.loc 1 583 0
 839 048e FFF7FEFF 		bl	straightAdjust
 840              	.LVL119:
 584:main.c        ****                 moveUntil(CLEARANCE_RADIUS_CENTER_TO_FRONT, FORWARD, LESS_THAN, FRONT_LEFT, SPEED, 
 841              		.loc 1 584 0
 842 0492 0194     		str	r4, [sp, #4]
 843 0494 0095     		str	r5, [sp]
 844 0496 0023     		movs	r3, #0
 845 0498 0422     		movs	r2, #4
 846 049a 2146     		mov	r1, r4
 847 049c 8220     		movs	r0, #130
 848 049e FFF7FEFF 		bl	moveUntil
 849              	.LVL120:
 585:main.c        ****                 //displaceLeft(); Repeatedly call this if below function not implemented
 586:main.c        ****                 //displaceLeftUntil(CLEARANCE_RADIUS_CENTER_TO_BACK,RIGHT);
 587:main.c        ****                 changeOrientation(EAST, SPEED);
 850              		.loc 1 587 0
 851 04a2 2946     		mov	r1, r5
 852 04a4 2046     		mov	r0, r4
 853 04a6 FFF7FEFF 		bl	changeOrientation
 854              	.LVL121:
 588:main.c        ****                 //displaceLeft();
 589:main.c        ****                 //displaceLeftUntil(DISTANCE_PUCKS_FROM_NORTH + WIDTH_SENSOR_TO_CENTER ,RIGHT);
 590:main.c        ****                 moveUntil(DISTANCE_STOPPED_FROM_PUCK, FORWARD, LESS_THAN, FRONT_LEFT, SPEED, TRUE);
 855              		.loc 1 590 0
 856 04aa 0194     		str	r4, [sp, #4]
 857 04ac 0095     		str	r5, [sp]
 858 04ae 0023     		movs	r3, #0
 859 04b0 0422     		movs	r2, #4
 860 04b2 2146     		mov	r1, r4
 861 04b4 3220     		movs	r0, #50
 862 04b6 FFF7FEFF 		bl	moveUntil
 863              	.LVL122:
 864 04ba 2BE0     		b	.L23
 865              	.L26:
 591:main.c        ****                 
 592:main.c        ****             }
 593:main.c        ****             
 594:main.c        ****             else if (blockWestClearance && puckEastClearance){
 866              		.loc 1 594 0
 867 04bc 53B3     		cbz	r3, .L23
 868              		.loc 1 594 0 is_stmt 0 discriminator 1
 869 04be 1E4B     		ldr	r3, .L52+12
 870 04c0 B3F91430 		ldrsh	r3, [r3, #20]
 871 04c4 33B3     		cbz	r3, .L23
 595:main.c        ****                 
 596:main.c        ****                 moveUntil(block_and_puck_edge_midpoint - DISTANCE_BACK_SENSOR_FROM_CENTER, BACKWARD
 872              		.loc 1 596 0 is_stmt 1
 873 04c6 0124     		movs	r4, #1
 874 04c8 0194     		str	r4, [sp, #4]
 875 04ca AA25     		movs	r5, #170
 876 04cc 0095     		str	r5, [sp]
 877 04ce 0423     		movs	r3, #4
 878 04d0 1A46     		mov	r2, r3
ARM GAS  C:\Users\Misha\AppData\Local\Temp\ccwkTl6l.s 			page 27


 879 04d2 0021     		movs	r1, #0
 880 04d4 4FF48770 		mov	r0, #270
 881 04d8 FFF7FEFF 		bl	moveUntil
 882              	.LVL123:
 597:main.c        ****                 straightAdjust();
 883              		.loc 1 597 0
 884 04dc FFF7FEFF 		bl	straightAdjust
 885              	.LVL124:
 598:main.c        ****                 changeOrientation(NORTH, SPEED);
 886              		.loc 1 598 0
 887 04e0 2946     		mov	r1, r5
 888 04e2 0020     		movs	r0, #0
 889 04e4 FFF7FEFF 		bl	changeOrientation
 890              	.LVL125:
 599:main.c        ****                 straightAdjust();
 891              		.loc 1 599 0
 892 04e8 FFF7FEFF 		bl	straightAdjust
 893              	.LVL126:
 600:main.c        ****                 moveUntil(CLEARANCE_RADIUS_CENTER_TO_FRONT, FORWARD, LESS_THAN, FRONT_LEFT, SPEED, 
 894              		.loc 1 600 0
 895 04ec 0194     		str	r4, [sp, #4]
 896 04ee 0095     		str	r5, [sp]
 897 04f0 0023     		movs	r3, #0
 898 04f2 0422     		movs	r2, #4
 899 04f4 2146     		mov	r1, r4
 900 04f6 8220     		movs	r0, #130
 901 04f8 FFF7FEFF 		bl	moveUntil
 902              	.LVL127:
 601:main.c        ****                 //displaceLeft(); Repeatedly call this if below function not implemented
 602:main.c        ****                 //displaceLeftUntil(CLEARANCE_RADIUS_CENTER_TO_BACK,RIGHT);
 603:main.c        ****                 changeOrientation(WEST, SPEED);
 903              		.loc 1 603 0
 904 04fc 2946     		mov	r1, r5
 905 04fe 0320     		movs	r0, #3
 906 0500 FFF7FEFF 		bl	changeOrientation
 907              	.LVL128:
 604:main.c        ****                 //displaceLeft();
 605:main.c        ****                 //displaceLeftUntil(DISTANCE_PUCKS_FROM_NORTH + WIDTH_SENSOR_TO_CENTER ,RIGHT);
 606:main.c        ****                 moveUntil(DISTANCE_STOPPED_FROM_PUCK, FORWARD, LESS_THAN, FRONT_LEFT, SPEED, TRUE);
 908              		.loc 1 606 0
 909 0504 0194     		str	r4, [sp, #4]
 910 0506 0095     		str	r5, [sp]
 911 0508 0023     		movs	r3, #0
 912 050a 0422     		movs	r2, #4
 913 050c 2146     		mov	r1, r4
 914 050e 3220     		movs	r0, #50
 915 0510 FFF7FEFF 		bl	moveUntil
 916              	.LVL129:
 917              	.L23:
 607:main.c        ****                 
 608:main.c        ****             }
 609:main.c        **** 
 610:main.c        ****         }
 611:main.c        ****  
 612:main.c        **** //        
 613:main.c        **** // *** 4. STATE FIND REQUIRED PUCK: *** // 
 614:main.c        **** //
ARM GAS  C:\Users\Misha\AppData\Local\Temp\ccwkTl6l.s 			page 28


 615:main.c        ****         
 616:main.c        ****         if (state == STATE_FIND_REQUIRED_PUCK){
 918              		.loc 1 616 0
 919 0514 094B     		ldr	r3, .L52+16
 920 0516 5B68     		ldr	r3, [r3, #4]
 921 0518 042B     		cmp	r3, #4
 922 051a 5BD1     		bne	.L27
 923              	.LVL130:
 924              	.LBB8:
 617:main.c        ****         
 618:main.c        ****         int puck_correct = FALSE;   // A flag to determine if the correct puck has been picked up
 619:main.c        ****         int puck_scan;
 620:main.c        ****         
 621:main.c        ****         current_stage = 1;
 925              		.loc 1 621 0
 926 051c 0123     		movs	r3, #1
 927 051e 074A     		ldr	r2, .L52+16
 928 0520 9360     		str	r3, [r2, #8]
 622:main.c        ****         puckConstructionPlan[0] = RED;
 929              		.loc 1 622 0
 930 0522 054A     		ldr	r2, .L52+12
 931 0524 9361     		str	r3, [r2, #24]
 623:main.c        ****     
 624:main.c        ****         // Scanning puck:
 625:main.c        ****             
 626:main.c        ****         safety_override = TRUE;     // DEACTIVATES the safety override so pucks don't interfere  
 932              		.loc 1 626 0
 933 0526 9364     		str	r3, [r2, #72]
 618:main.c        ****         int puck_scan;
 934              		.loc 1 618 0
 935 0528 0025     		movs	r5, #0
 627:main.c        **** 
 628:main.c        ****         while (puck_correct == FALSE) 
 936              		.loc 1 628 0
 937 052a 3BE0     		b	.L29
 938              	.L53:
 939              		.align	2
 940              	.L52:
 941 052c 00000000 		.word	ultrasonic_distances_mm
 942 0530 00000000 		.word	output
 943 0534 54000000 		.word	.LC4
 944 0538 00000000 		.word	.LANCHOR0
 945 053c 00000000 		.word	.LANCHOR1
 946              	.LVL131:
 947              	.L30:
 629:main.c        ****         {
 630:main.c        ****             moveDynamic(50, SPEED_LOW, TRUE);  // robot moves forward towards puck
 948              		.loc 1 630 0
 949 0540 0122     		movs	r2, #1
 950 0542 4621     		movs	r1, #70
 951 0544 3220     		movs	r0, #50
 952 0546 FFF7FEFF 		bl	moveDynamic
 953              	.LVL132:
 631:main.c        ****                                     // could replace this with the distance gathered from the ultra
 632:main.c        ****             changeHeightToPuck(ABOVE_1_PUCK, NEITHER);  // arm lowers onto robot
 954              		.loc 1 632 0
 955 054a 0221     		movs	r1, #2
ARM GAS  C:\Users\Misha\AppData\Local\Temp\ccwkTl6l.s 			page 29


 956 054c 0120     		movs	r0, #1
 957 054e FFF7FEFF 		bl	changeHeightToPuck
 958              	.LVL133:
 633:main.c        ****             puck_scan = colourSensingOutput();  // colour sensor takes a scan
 959              		.loc 1 633 0
 960 0552 FFF7FEFF 		bl	colourSensingOutput
 961              	.LVL134:
 962 0556 0446     		mov	r4, r0
 963              	.LVL135:
 634:main.c        ****             changeHeightToPuck(ABOVE_3_PUCK, NEITHER);  // arm returns to high position
 964              		.loc 1 634 0
 965 0558 0221     		movs	r1, #2
 966 055a 0320     		movs	r0, #3
 967              	.LVL136:
 968 055c FFF7FEFF 		bl	changeHeightToPuck
 969              	.LVL137:
 635:main.c        ****             moveDynamic(-50, SPEED, TRUE);   // robot moves backwards
 970              		.loc 1 635 0
 971 0560 0122     		movs	r2, #1
 972 0562 AA21     		movs	r1, #170
 973 0564 6FF03100 		mvn	r0, #49
 974 0568 FFF7FEFF 		bl	moveDynamic
 975              	.LVL138:
 636:main.c        ****             if (puck_scan == puckConstructionPlan[current_stage-1]) {puck_correct = TRUE;}         
 976              		.loc 1 636 0
 977 056c BC4B     		ldr	r3, .L54
 978 056e 9B68     		ldr	r3, [r3, #8]
 979 0570 5A1E     		subs	r2, r3, #1
 980 0572 BC4B     		ldr	r3, .L54+4
 981 0574 03EB8203 		add	r3, r3, r2, lsl #2
 982 0578 9B69     		ldr	r3, [r3, #24]
 983 057a 9C42     		cmp	r4, r3
 984 057c 11D0     		beq	.L48
 637:main.c        ****             else 
 638:main.c        ****             {
 639:main.c        ****                 // Bring us to the next puck along: 
 640:main.c        ****                 moveSwivel(45, SPEED, TRUE);
 985              		.loc 1 640 0
 986 057e 0122     		movs	r2, #1
 987 0580 AA21     		movs	r1, #170
 988 0582 2D20     		movs	r0, #45
 989 0584 FFF7FEFF 		bl	moveSwivel
 990              	.LVL139:
 641:main.c        ****                 moveDynamic(-30,SPEED, TRUE);
 991              		.loc 1 641 0
 992 0588 0122     		movs	r2, #1
 993 058a AA21     		movs	r1, #170
 994 058c 6FF01D00 		mvn	r0, #29
 995 0590 FFF7FEFF 		bl	moveDynamic
 996              	.LVL140:
 642:main.c        ****                 moveSwivel(-30, SPEED, TRUE);        
 997              		.loc 1 642 0
 998 0594 0122     		movs	r2, #1
 999 0596 AA21     		movs	r1, #170
 1000 0598 6FF01D00 		mvn	r0, #29
 1001 059c FFF7FEFF 		bl	moveSwivel
 1002              	.LVL141:
ARM GAS  C:\Users\Misha\AppData\Local\Temp\ccwkTl6l.s 			page 30


 1003 05a0 00E0     		b	.L29
 1004              	.L48:
 636:main.c        ****             else 
 1005              		.loc 1 636 0
 1006 05a2 0125     		movs	r5, #1
 1007              	.LVL142:
 1008              	.L29:
 628:main.c        ****         {
 1009              		.loc 1 628 0
 1010 05a4 002D     		cmp	r5, #0
 1011 05a6 CBD0     		beq	.L30
 643:main.c        ****             }
 644:main.c        ****         }
 645:main.c        ****                 
 646:main.c        ****         
 647:main.c        ****         
 648:main.c        ****         changeHeightToPuck(GROUND, NEITHER);      // arm lowers to ground
 1012              		.loc 1 648 0
 1013 05a8 0221     		movs	r1, #2
 1014 05aa 0020     		movs	r0, #0
 1015 05ac FFF7FEFF 		bl	changeHeightToPuck
 1016              	.LVL143:
 649:main.c        ****         //armClose();
 650:main.c        ****         //changeHeightToPuck(1);
 651:main.c        ****         moveUntilPuck(CLAW_GROUND_ALGORITHM);
 1017              		.loc 1 651 0
 1018 05b0 0220     		movs	r0, #2
 1019 05b2 FFF7FEFF 		bl	moveUntilPuck
 1020              	.LVL144:
 652:main.c        ****         //moveDynamic(60);       // robot moves forward
 653:main.c        ****         armClose();                 // claw closes on puck
 1021              		.loc 1 653 0
 1022 05b6 FFF7FEFF 		bl	armClose
 1023              	.LVL145:
 654:main.c        ****         changeHeightToPuck(ABOVE_3_PUCK, NEITHER);      // arm lifts up to highest position
 1024              		.loc 1 654 0
 1025 05ba 0221     		movs	r1, #2
 1026 05bc 0320     		movs	r0, #3
 1027 05be FFF7FEFF 		bl	changeHeightToPuck
 1028              	.LVL146:
 655:main.c        ****         moveDynamic(-60, SPEED, TRUE);       // robot moves back away from puck area 
 1029              		.loc 1 655 0
 1030 05c2 0122     		movs	r2, #1
 1031 05c4 AA21     		movs	r1, #170
 1032 05c6 6FF03B00 		mvn	r0, #59
 1033 05ca FFF7FEFF 		bl	moveDynamic
 1034              	.LVL147:
 656:main.c        ****         
 657:main.c        ****         
 658:main.c        ****         safety_override = FALSE;        // reactivate safety override
 1035              		.loc 1 658 0
 1036 05ce 0022     		movs	r2, #0
 1037 05d0 A44B     		ldr	r3, .L54+4
 1038 05d2 9A64     		str	r2, [r3, #72]
 1039              	.LVL148:
 1040              	.L27:
 1041              	.LBE8:
ARM GAS  C:\Users\Misha\AppData\Local\Temp\ccwkTl6l.s 			page 31


 659:main.c        ****         
 660:main.c        ****             
 661:main.c        ****             /*
 662:main.c        ****             int requiredColour = puckConstructionPlan[currentPuckStackSize];
 663:main.c        ****             int puckFound = 0;
 664:main.c        ****             
 665:main.c        ****             
 666:main.c        ****             // Let's assume that we get to the east or west of the puck pile and we are as close to
 667:main.c        ****             if (roundDirection() == NORTH){
 668:main.c        **** 
 669:main.c        ****             }
 670:main.c        ****             else if (roundDirection() == EAST){
 671:main.c        ****                 // Poll ultrasonics, displaceRight until no longer see the pucks
 672:main.c        ****                 // Drive up to the middle puck
 673:main.c        ****                 // We know that we used moveAndAngle() to get to the exact vertical position of the
 674:main.c        ****                 moveForwardIndefinitely();
 675:main.c        ****                 
 676:main.c        ****                 // May need to displaceRight a bit to ensure that we are perfectly centered with th
 677:main.c        ****                 // Now we need to inch forward with the claw lifted
 678:main.c        ****                 // Also store the horizontal location of the pucks based off our current position. 
 679:main.c        ****                 
 680:main.c        ****                 horizontalPuckGrid = currentPosition[0]; // Take our horizontal position as a refer
 681:main.c        ****                 
 682:main.c        ****                 changeHeightToPuck(1); // Lift up enough so we dont hit the pucks when scanning the
 683:main.c        ****                 moveForward(DISTANCE_STOPPED_FROM_PUCK); // Move forward until colour sensor above 
 684:main.c        ****                
 685:main.c        ****                 if (colourSensingOutput() == puckConstructionPlan[currentPuckStackSize]){ 
 686:main.c        ****                     // This is the puck we need
 687:main.c        ****                     moveBackward(DISTANCE_STOPPED_FROM_PUCK); // Reverse to make room for lowering 
 688:main.c        ****                     lowerAndOpen(0); // We are grabbing the pucks from the ground.
 689:main.c        ****                     moveForward(DISTANCE_STOPPED_FROM_PUCK);
 690:main.c        ****                     closeAndRaise(1); // Lift above the height of the ground pucks
 691:main.c        **** 
 692:main.c        ****                 }
 693:main.c        ****                 
 694:main.c        ****                 // If the colour isn't what we need, we could pick it up and drop it somewhere out 
 695:main.c        ****                 else {
 696:main.c        ****                     moveBackward(DISTANCE_STOPPED_FROM_PUCK); // Need to check the next puck
 697:main.c        ****                     displaceLeft(5,22);
 698:main.c        ****                     changeHeightToPuck(1); // Lift up enough so we dont hit the pucks when scanning
 699:main.c        ****                     moveForward(DISTANCE_STOPPED_FROM_PUCK); // Move forward until colour sensor ab
 700:main.c        ****                     
 701:main.c        ****                     // Scan the next puck
 702:main.c        ****                     if (colourSensingOutput() == puckConstructionPlan[currentPuckStackSize]){ 
 703:main.c        ****                         // This is the puck we need
 704:main.c        ****                         moveBackward(DISTANCE_STOPPED_FROM_PUCK); // Reverse to make room for lower
 705:main.c        ****                         lowerAndOpen(0); // We are grabbing the pucks from the ground.
 706:main.c        ****                         moveForward(DISTANCE_STOPPED_FROM_PUCK);
 707:main.c        ****                         closeAndRaise(1); // Lift above the height of the ground pucks
 708:main.c        **** 
 709:main.c        ****                     }
 710:main.c        ****                     
 711:main.c        ****                     else {
 712:main.c        ****                         moveBackward(DISTANCE_STOPPED_FROM_PUCK); // Need to check the next puck
 713:main.c        ****                         displaceLeft(5,22);
 714:main.c        ****                         changeHeightToPuck(1); // Lift up enough so we dont hit the pucks when scan
 715:main.c        ****                         moveForward(DISTANCE_STOPPED_FROM_PUCK); // Move forward until colour senso
ARM GAS  C:\Users\Misha\AppData\Local\Temp\ccwkTl6l.s 			page 32


 716:main.c        ****                         
 717:main.c        ****                         if (colourSensingOutput() == puckConstructionPlan[currentPuckStackSize]){ 
 718:main.c        ****                             // This is the puck we need
 719:main.c        ****                             moveBackward(DISTANCE_STOPPED_FROM_PUCK); // Reverse to make room for l
 720:main.c        ****                             lowerAndOpen(0); // We are grabbing the pucks from the ground.
 721:main.c        ****                             moveForward(DISTANCE_STOPPED_FROM_PUCK);
 722:main.c        ****                             closeAndRaise(1); // Lift above the height of the ground pucks
 723:main.c        **** 
 724:main.c        ****                         }
 725:main.c        ****                     
 726:main.c        ****                     }
 727:main.c        ****                 }
 728:main.c        ****                 
 729:main.c        ****                 if (colourSensingOutput() == puckConstructionPlan[currentPuckStackSize]){ 
 730:main.c        ****                     // This is the puck we need
 731:main.c        ****                     moveBackward(DISTANCE_STOPPED_FROM_PUCK); // Reverse to make room for lowering 
 732:main.c        ****                     lowerAndOpen(0); // We are grabbing the pucks from the ground.
 733:main.c        ****                     moveForward(DISTANCE_STOPPED_FROM_PUCK);
 734:main.c        ****                     closeAndRaise(1); // Lift above the height of the ground pucks
 735:main.c        **** 
 736:main.c        ****                 }
 737:main.c        ****                 
 738:main.c        ****             }
 739:main.c        ****             
 740:main.c        ****             else if (roundDirection() == WEST){
 741:main.c        ****                 // Poll ultrasonics, displaceRight until no longer see the pucks
 742:main.c        ****                 // Drive up to the middle puck
 743:main.c        ****                 // We know that we used moveAndAngle() to get to the exact vertical position of the
 744:main.c        ****                 moveForwardIndefinitely();
 745:main.c        ****             }
 746:main.c        ****             
 747:main.c        ****             */
 748:main.c        ****             
 749:main.c        ****             /*
 750:main.c        ****             while(!puckFound){
 751:main.c        ****                   
 752:main.c        ****             }
 753:main.c        ****             */
 754:main.c        ****             
 755:main.c        ****             
 756:main.c        ****         }
 757:main.c        ****  
 758:main.c        ****         
 759:main.c        **** //
 760:main.c        **** // *** 5. STATE RETURN TO SOUTH: *** // 
 761:main.c        **** //      
 762:main.c        ****         
 763:main.c        ****         // Assume that we are currently in the north side of the arena facing the pucks.
 764:main.c        ****         // This state will return us to the south side of the block and face east at the east wall.
 765:main.c        ****         if (state == STATE_RETURN_TO_SOUTH){
 1042              		.loc 1 765 0
 1043 05d4 A24B     		ldr	r3, .L54
 1044 05d6 5B68     		ldr	r3, [r3, #4]
 1045 05d8 052B     		cmp	r3, #5
 1046 05da 40F0E780 		bne	.L31
 766:main.c        ****             if (blockEastClearance && puckEastClearance){
 1047              		.loc 1 766 0
ARM GAS  C:\Users\Misha\AppData\Local\Temp\ccwkTl6l.s 			page 33


 1048 05de A14B     		ldr	r3, .L54+4
 1049 05e0 B3F91020 		ldrsh	r2, [r3, #16]
 1050 05e4 6AB3     		cbz	r2, .L32
 1051              		.loc 1 766 0 is_stmt 0 discriminator 1
 1052 05e6 B3F91430 		ldrsh	r3, [r3, #20]
 1053 05ea 53B3     		cbz	r3, .L32
 767:main.c        ****                 
 768:main.c        ****                 moveUntil(CLEARANCE_RADIUS_CENTER_TO_BACK - 140, BACKWARD, LESS_THAN, BACK, SPEED, 
 1054              		.loc 1 768 0 is_stmt 1
 1055 05ec 0124     		movs	r4, #1
 1056 05ee 0194     		str	r4, [sp, #4]
 1057 05f0 AA25     		movs	r5, #170
 1058 05f2 0095     		str	r5, [sp]
 1059 05f4 0423     		movs	r3, #4
 1060 05f6 1A46     		mov	r2, r3
 1061 05f8 0021     		movs	r1, #0
 1062 05fa 6420     		movs	r0, #100
 1063 05fc FFF7FEFF 		bl	moveUntil
 1064              	.LVL149:
 769:main.c        ****                 // straightAdjust() using back sensor?
 770:main.c        ****                 changeOrientation(NORTH,SPEED);
 1065              		.loc 1 770 0
 1066 0600 2946     		mov	r1, r5
 1067 0602 0020     		movs	r0, #0
 1068 0604 FFF7FEFF 		bl	changeOrientation
 1069              	.LVL150:
 771:main.c        ****                 straightAdjust();
 1070              		.loc 1 771 0
 1071 0608 FFF7FEFF 		bl	straightAdjust
 1072              	.LVL151:
 772:main.c        ****                 moveUntil(CLEARANCE_RADIUS_CENTER_TO_BACK, BACKWARD, LESS_THAN, BACK, SPEED, TRUE);
 1073              		.loc 1 772 0
 1074 060c 0194     		str	r4, [sp, #4]
 1075 060e 0095     		str	r5, [sp]
 1076 0610 0423     		movs	r3, #4
 1077 0612 1A46     		mov	r2, r3
 1078 0614 0021     		movs	r1, #0
 1079 0616 F020     		movs	r0, #240
 1080 0618 FFF7FEFF 		bl	moveUntil
 1081              	.LVL152:
 773:main.c        ****                 straightAdjust();
 1082              		.loc 1 773 0
 1083 061c FFF7FEFF 		bl	straightAdjust
 1084              	.LVL153:
 774:main.c        ****                 changeOrientation(EAST,SPEED);
 1085              		.loc 1 774 0
 1086 0620 2946     		mov	r1, r5
 1087 0622 2046     		mov	r0, r4
 1088 0624 FFF7FEFF 		bl	changeOrientation
 1089              	.LVL154:
 775:main.c        ****                 straightAdjust();
 1090              		.loc 1 775 0
 1091 0628 FFF7FEFF 		bl	straightAdjust
 1092              	.LVL155:
 776:main.c        ****                 moveUntil(CLEARANCE_RADIUS_CENTER_TO_FRONT, FORWARD, LESS_THAN, FRONT_LEFT, SPEED, 
 1093              		.loc 1 776 0
 1094 062c 0194     		str	r4, [sp, #4]
ARM GAS  C:\Users\Misha\AppData\Local\Temp\ccwkTl6l.s 			page 34


 1095 062e 0095     		str	r5, [sp]
 1096 0630 0023     		movs	r3, #0
 1097 0632 0422     		movs	r2, #4
 1098 0634 2146     		mov	r1, r4
 1099 0636 8220     		movs	r0, #130
 1100 0638 FFF7FEFF 		bl	moveUntil
 1101              	.LVL156:
 777:main.c        ****                 straightAdjust();
 1102              		.loc 1 777 0
 1103 063c FFF7FEFF 		bl	straightAdjust
 1104              	.LVL157:
 1105 0640 B1E0     		b	.L33
 1106              	.L32:
 778:main.c        ****                 
 779:main.c        ****             }
 780:main.c        ****             
 781:main.c        ****             else if (blockWestClearance && puckWestClearance){
 1107              		.loc 1 781 0
 1108 0642 884B     		ldr	r3, .L54+4
 1109 0644 B3F91230 		ldrsh	r3, [r3, #18]
 1110 0648 002B     		cmp	r3, #0
 1111 064a 53D0     		beq	.L34
 1112              		.loc 1 781 0 is_stmt 0 discriminator 1
 1113 064c 8549     		ldr	r1, .L54+4
 1114 064e B1F91610 		ldrsh	r1, [r1, #22]
 1115 0652 0029     		cmp	r1, #0
 1116 0654 4ED0     		beq	.L34
 782:main.c        ****             
 783:main.c        ****                 moveUntil(CLEARANCE_RADIUS_CENTER_TO_BACK - 140, BACKWARD, LESS_THAN, BACK, SPEED, 
 1117              		.loc 1 783 0 is_stmt 1
 1118 0656 0124     		movs	r4, #1
 1119 0658 0194     		str	r4, [sp, #4]
 1120 065a AA25     		movs	r5, #170
 1121 065c 0095     		str	r5, [sp]
 1122 065e 0423     		movs	r3, #4
 1123 0660 1A46     		mov	r2, r3
 1124 0662 0021     		movs	r1, #0
 1125 0664 6420     		movs	r0, #100
 1126 0666 FFF7FEFF 		bl	moveUntil
 1127              	.LVL158:
 784:main.c        ****                 // straightAdjust() using back sensor?
 785:main.c        ****                 changeOrientation(NORTH,SPEED);
 1128              		.loc 1 785 0
 1129 066a 2946     		mov	r1, r5
 1130 066c 0020     		movs	r0, #0
 1131 066e FFF7FEFF 		bl	changeOrientation
 1132              	.LVL159:
 786:main.c        ****                 straightAdjust();
 1133              		.loc 1 786 0
 1134 0672 FFF7FEFF 		bl	straightAdjust
 1135              	.LVL160:
 787:main.c        ****                 moveUntil(CLEARANCE_RADIUS_CENTER_TO_BACK, BACKWARD, LESS_THAN, BACK, SPEED, TRUE);
 1136              		.loc 1 787 0
 1137 0676 0194     		str	r4, [sp, #4]
 1138 0678 0095     		str	r5, [sp]
 1139 067a 0423     		movs	r3, #4
 1140 067c 1A46     		mov	r2, r3
ARM GAS  C:\Users\Misha\AppData\Local\Temp\ccwkTl6l.s 			page 35


 1141 067e 0021     		movs	r1, #0
 1142 0680 F020     		movs	r0, #240
 1143 0682 FFF7FEFF 		bl	moveUntil
 1144              	.LVL161:
 788:main.c        ****                 straightAdjust();
 1145              		.loc 1 788 0
 1146 0686 FFF7FEFF 		bl	straightAdjust
 1147              	.LVL162:
 789:main.c        ****                 changeOrientation(EAST,SPEED);
 1148              		.loc 1 789 0
 1149 068a 2946     		mov	r1, r5
 1150 068c 2046     		mov	r0, r4
 1151 068e FFF7FEFF 		bl	changeOrientation
 1152              	.LVL163:
 790:main.c        ****                 straightAdjust();
 1153              		.loc 1 790 0
 1154 0692 FFF7FEFF 		bl	straightAdjust
 1155              	.LVL164:
 791:main.c        ****                 moveUntil(CLEARANCE_RADIUS_CENTER_TO_FRONT, FORWARD, LESS_THAN, FRONT_LEFT, SPEED, 
 1156              		.loc 1 791 0
 1157 0696 0194     		str	r4, [sp, #4]
 1158 0698 0095     		str	r5, [sp]
 1159 069a 0023     		movs	r3, #0
 1160 069c 0422     		movs	r2, #4
 1161 069e 2146     		mov	r1, r4
 1162 06a0 8220     		movs	r0, #130
 1163 06a2 FFF7FEFF 		bl	moveUntil
 1164              	.LVL165:
 792:main.c        ****                 straightAdjust();
 1165              		.loc 1 792 0
 1166 06a6 FFF7FEFF 		bl	straightAdjust
 1167              	.LVL166:
 793:main.c        **** 
 794:main.c        ****                 
 795:main.c        ****                 //moveUntil(CLEARANCE_RADIUS_CENTER_TO_FRONT, BACKWARD, GREATER_THAN, FRONT_LEFT, S
 796:main.c        ****                 moveUntil(CLEARANCE_RADIUS_CENTER_TO_BACK, BACKWARD, LESS_THAN, BACK, SPEED, TRUE);
 1168              		.loc 1 796 0
 1169 06aa 0194     		str	r4, [sp, #4]
 1170 06ac 0095     		str	r5, [sp]
 1171 06ae 0423     		movs	r3, #4
 1172 06b0 1A46     		mov	r2, r3
 1173 06b2 0021     		movs	r1, #0
 1174 06b4 F020     		movs	r0, #240
 1175 06b6 FFF7FEFF 		bl	moveUntil
 1176              	.LVL167:
 797:main.c        ****                 straightAdjust();
 1177              		.loc 1 797 0
 1178 06ba FFF7FEFF 		bl	straightAdjust
 1179              	.LVL168:
 798:main.c        ****                 changeOrientation(NORTH, SPEED);
 1180              		.loc 1 798 0
 1181 06be 2946     		mov	r1, r5
 1182 06c0 0020     		movs	r0, #0
 1183 06c2 FFF7FEFF 		bl	changeOrientation
 1184              	.LVL169:
 799:main.c        ****                 straightAdjust();
 1185              		.loc 1 799 0
ARM GAS  C:\Users\Misha\AppData\Local\Temp\ccwkTl6l.s 			page 36


 1186 06c6 FFF7FEFF 		bl	straightAdjust
 1187              	.LVL170:
 800:main.c        ****                 moveUntil(CLEARANCE_RADIUS_CENTER_TO_FRONT, FORWARD, LESS_THAN, FRONT_LEFT, SPEED, 
 1188              		.loc 1 800 0
 1189 06ca 0194     		str	r4, [sp, #4]
 1190 06cc 0095     		str	r5, [sp]
 1191 06ce 0023     		movs	r3, #0
 1192 06d0 0422     		movs	r2, #4
 1193 06d2 2146     		mov	r1, r4
 1194 06d4 8220     		movs	r0, #130
 1195 06d6 FFF7FEFF 		bl	moveUntil
 1196              	.LVL171:
 801:main.c        ****                 //displaceLeft(); Repeatedly call this if below function not implemented
 802:main.c        ****                 //displaceLeftUntil(CLEARANCE_RADIUS_CENTER_TO_BACK,RIGHT);
 803:main.c        ****                 changeOrientation(EAST, SPEED);
 1197              		.loc 1 803 0
 1198 06da 2946     		mov	r1, r5
 1199 06dc 2046     		mov	r0, r4
 1200 06de FFF7FEFF 		bl	changeOrientation
 1201              	.LVL172:
 804:main.c        ****                 //displaceLeft();
 805:main.c        ****                 //displaceLeftUntil(DISTANCE_PUCKS_FROM_NORTH + WIDTH_SENSOR_TO_CENTER ,RIGHT);
 806:main.c        ****                 moveUntil(DISTANCE_STOPPED_FROM_PUCK, FORWARD, LESS_THAN, FRONT_LEFT, SPEED, TRUE);
 1202              		.loc 1 806 0
 1203 06e2 0194     		str	r4, [sp, #4]
 1204 06e4 0095     		str	r5, [sp]
 1205 06e6 0023     		movs	r3, #0
 1206 06e8 0422     		movs	r2, #4
 1207 06ea 2146     		mov	r1, r4
 1208 06ec 3220     		movs	r0, #50
 1209 06ee FFF7FEFF 		bl	moveUntil
 1210              	.LVL173:
 1211 06f2 58E0     		b	.L33
 1212              	.L34:
 807:main.c        ****                             
 808:main.c        ****             }
 809:main.c        ****             
 810:main.c        ****             
 811:main.c        ****             else if (blockEastClearance && puckWestClearance){
 1213              		.loc 1 811 0
 1214 06f4 5AB3     		cbz	r2, .L35
 1215              		.loc 1 811 0 is_stmt 0 discriminator 1
 1216 06f6 5B4A     		ldr	r2, .L54+4
 1217 06f8 B2F91620 		ldrsh	r2, [r2, #22]
 1218 06fc 3AB3     		cbz	r2, .L35
 812:main.c        **** 
 813:main.c        ****                 moveUntil(block_and_puck_edge_midpoint - DISTANCE_BACK_SENSOR_FROM_CENTER, BACKWARD
 1219              		.loc 1 813 0 is_stmt 1
 1220 06fe 0124     		movs	r4, #1
 1221 0700 0194     		str	r4, [sp, #4]
 1222 0702 AA25     		movs	r5, #170
 1223 0704 0095     		str	r5, [sp]
 1224 0706 0423     		movs	r3, #4
 1225 0708 1A46     		mov	r2, r3
 1226 070a 0021     		movs	r1, #0
 1227 070c 4FF48770 		mov	r0, #270
 1228 0710 FFF7FEFF 		bl	moveUntil
ARM GAS  C:\Users\Misha\AppData\Local\Temp\ccwkTl6l.s 			page 37


 1229              	.LVL174:
 814:main.c        ****                 straightAdjust();
 1230              		.loc 1 814 0
 1231 0714 FFF7FEFF 		bl	straightAdjust
 1232              	.LVL175:
 815:main.c        ****                 changeOrientation(NORTH, SPEED);
 1233              		.loc 1 815 0
 1234 0718 2946     		mov	r1, r5
 1235 071a 0020     		movs	r0, #0
 1236 071c FFF7FEFF 		bl	changeOrientation
 1237              	.LVL176:
 816:main.c        ****                 straightAdjust();
 1238              		.loc 1 816 0
 1239 0720 FFF7FEFF 		bl	straightAdjust
 1240              	.LVL177:
 817:main.c        ****                 moveUntil(CLEARANCE_RADIUS_CENTER_TO_FRONT, FORWARD, LESS_THAN, FRONT_LEFT, SPEED, 
 1241              		.loc 1 817 0
 1242 0724 0194     		str	r4, [sp, #4]
 1243 0726 0095     		str	r5, [sp]
 1244 0728 0023     		movs	r3, #0
 1245 072a 0422     		movs	r2, #4
 1246 072c 2146     		mov	r1, r4
 1247 072e 8220     		movs	r0, #130
 1248 0730 FFF7FEFF 		bl	moveUntil
 1249              	.LVL178:
 818:main.c        ****                 //displaceLeft(); Repeatedly call this if below function not implemented
 819:main.c        ****                 //displaceLeftUntil(CLEARANCE_RADIUS_CENTER_TO_BACK,RIGHT);
 820:main.c        ****                 changeOrientation(EAST, SPEED);
 1250              		.loc 1 820 0
 1251 0734 2946     		mov	r1, r5
 1252 0736 2046     		mov	r0, r4
 1253 0738 FFF7FEFF 		bl	changeOrientation
 1254              	.LVL179:
 821:main.c        ****                 //displaceLeft();
 822:main.c        ****                 //displaceLeftUntil(DISTANCE_PUCKS_FROM_NORTH + WIDTH_SENSOR_TO_CENTER ,RIGHT);
 823:main.c        ****                 moveUntil(DISTANCE_STOPPED_FROM_PUCK, FORWARD, LESS_THAN, FRONT_LEFT, SPEED, TRUE);
 1255              		.loc 1 823 0
 1256 073c 0194     		str	r4, [sp, #4]
 1257 073e 0095     		str	r5, [sp]
 1258 0740 0023     		movs	r3, #0
 1259 0742 0422     		movs	r2, #4
 1260 0744 2146     		mov	r1, r4
 1261 0746 3220     		movs	r0, #50
 1262 0748 FFF7FEFF 		bl	moveUntil
 1263              	.LVL180:
 1264 074c 2BE0     		b	.L33
 1265              	.L35:
 824:main.c        ****                 
 825:main.c        ****             }
 826:main.c        ****             
 827:main.c        ****             else if (blockWestClearance && puckEastClearance){
 1266              		.loc 1 827 0
 1267 074e 53B3     		cbz	r3, .L33
 1268              		.loc 1 827 0 is_stmt 0 discriminator 1
 1269 0750 444B     		ldr	r3, .L54+4
 1270 0752 B3F91430 		ldrsh	r3, [r3, #20]
 1271 0756 33B3     		cbz	r3, .L33
ARM GAS  C:\Users\Misha\AppData\Local\Temp\ccwkTl6l.s 			page 38


 828:main.c        ****                 
 829:main.c        ****                 moveUntil(block_and_puck_edge_midpoint - DISTANCE_BACK_SENSOR_FROM_CENTER, BACKWARD
 1272              		.loc 1 829 0 is_stmt 1
 1273 0758 0124     		movs	r4, #1
 1274 075a 0194     		str	r4, [sp, #4]
 1275 075c AA25     		movs	r5, #170
 1276 075e 0095     		str	r5, [sp]
 1277 0760 0423     		movs	r3, #4
 1278 0762 1A46     		mov	r2, r3
 1279 0764 0021     		movs	r1, #0
 1280 0766 4FF48770 		mov	r0, #270
 1281 076a FFF7FEFF 		bl	moveUntil
 1282              	.LVL181:
 830:main.c        ****                 straightAdjust();
 1283              		.loc 1 830 0
 1284 076e FFF7FEFF 		bl	straightAdjust
 1285              	.LVL182:
 831:main.c        ****                 changeOrientation(NORTH, SPEED);
 1286              		.loc 1 831 0
 1287 0772 2946     		mov	r1, r5
 1288 0774 0020     		movs	r0, #0
 1289 0776 FFF7FEFF 		bl	changeOrientation
 1290              	.LVL183:
 832:main.c        ****                 straightAdjust();
 1291              		.loc 1 832 0
 1292 077a FFF7FEFF 		bl	straightAdjust
 1293              	.LVL184:
 833:main.c        ****                 moveUntil(CLEARANCE_RADIUS_CENTER_TO_FRONT, FORWARD, LESS_THAN, FRONT_LEFT, SPEED, 
 1294              		.loc 1 833 0
 1295 077e 0194     		str	r4, [sp, #4]
 1296 0780 0095     		str	r5, [sp]
 1297 0782 0023     		movs	r3, #0
 1298 0784 0422     		movs	r2, #4
 1299 0786 2146     		mov	r1, r4
 1300 0788 8220     		movs	r0, #130
 1301 078a FFF7FEFF 		bl	moveUntil
 1302              	.LVL185:
 834:main.c        ****                 //displaceLeft(); Repeatedly call this if below function not implemented
 835:main.c        ****                 //displaceLeftUntil(CLEARANCE_RADIUS_CENTER_TO_BACK,RIGHT);
 836:main.c        ****                 changeOrientation(WEST, SPEED);
 1303              		.loc 1 836 0
 1304 078e 2946     		mov	r1, r5
 1305 0790 0320     		movs	r0, #3
 1306 0792 FFF7FEFF 		bl	changeOrientation
 1307              	.LVL186:
 837:main.c        ****                 //displaceLeft();
 838:main.c        ****                 //displaceLeftUntil(DISTANCE_PUCKS_FROM_NORTH + WIDTH_SENSOR_TO_CENTER ,RIGHT);
 839:main.c        ****                 moveUntil(DISTANCE_STOPPED_FROM_PUCK, FORWARD, LESS_THAN, FRONT_LEFT, SPEED, TRUE);
 1308              		.loc 1 839 0
 1309 0796 0194     		str	r4, [sp, #4]
 1310 0798 0095     		str	r5, [sp]
 1311 079a 0023     		movs	r3, #0
 1312 079c 0422     		movs	r2, #4
 1313 079e 2146     		mov	r1, r4
 1314 07a0 3220     		movs	r0, #50
 1315 07a2 FFF7FEFF 		bl	moveUntil
 1316              	.LVL187:
ARM GAS  C:\Users\Misha\AppData\Local\Temp\ccwkTl6l.s 			page 39


 1317              	.L33:
 840:main.c        ****                 
 841:main.c        ****             }   
 842:main.c        ****             
 843:main.c        ****             state = STATE_DEPOSIT_PUCK;
 1318              		.loc 1 843 0
 1319 07a6 0622     		movs	r2, #6
 1320 07a8 2D4B     		ldr	r3, .L54
 1321 07aa 5A60     		str	r2, [r3, #4]
 1322              	.L31:
 844:main.c        ****         }
 845:main.c        ****         
 846:main.c        **** //        
 847:main.c        **** // *** 6. STATE DEPOSIT PUCK: *** // 
 848:main.c        **** //
 849:main.c        ****         
 850:main.c        ****         // We choose where we put the puck. Depending if its needed now, later or never.
 851:main.c        ****         if (state == STATE_DEPOSIT_PUCK){
 1323              		.loc 1 851 0
 1324 07ac 2C4B     		ldr	r3, .L54
 1325 07ae 5B68     		ldr	r3, [r3, #4]
 1326 07b0 062B     		cmp	r3, #6
 1327 07b2 40F0EF80 		bne	.L36
 1328              	.LBB9:
 852:main.c        ****                 
 853:main.c        ****             
 854:main.c        ****             // Temp grab puck
 855:main.c        ****             control_photodiode_Write(CLAW_SENSING);    // changes to claw photodiode
 1329              		.loc 1 855 0
 1330 07b6 0120     		movs	r0, #1
 1331 07b8 FFF7FEFF 		bl	control_photodiode_Write
 1332              	.LVL188:
 856:main.c        ****             colour_sensing_algorithm = CLAW_GROUND_ALGORITHM;   // changes it to claw algorithm
 1333              		.loc 1 856 0
 1334 07bc 294C     		ldr	r4, .L54+4
 1335 07be 0223     		movs	r3, #2
 1336 07c0 A360     		str	r3, [r4, #8]
 857:main.c        ****             
 858:main.c        ****             armOpen();
 1337              		.loc 1 858 0
 1338 07c2 FFF7FEFF 		bl	armOpen
 1339              	.LVL189:
 859:main.c        ****             colourSensingInitialise();
 1340              		.loc 1 859 0
 1341 07c6 FFF7FEFF 		bl	colourSensingInitialise
 1342              	.LVL190:
 860:main.c        ****             CyDelay(2000);
 1343              		.loc 1 860 0
 1344 07ca 4FF4FA60 		mov	r0, #2000
 1345 07ce FFF7FEFF 		bl	CyDelay
 1346              	.LVL191:
 861:main.c        ****             armClose();
 1347              		.loc 1 861 0
 1348 07d2 FFF7FEFF 		bl	armClose
 1349              	.LVL192:
 862:main.c        ****             
 863:main.c        ****             
ARM GAS  C:\Users\Misha\AppData\Local\Temp\ccwkTl6l.s 			page 40


 864:main.c        ****             
 865:main.c        ****             
 866:main.c        ****             int heldColour = colourSensingOutput();
 1350              		.loc 1 866 0
 1351 07d6 FFF7FEFF 		bl	colourSensingOutput
 1352              	.LVL193:
 867:main.c        ****             //blinkLED(heldColour,500);
 868:main.c        ****             
 869:main.c        ****             
 870:main.c        ****             // TO DELETE
 871:main.c        ****             heldColour = current_stage; // temp checking it can stack with a fixed rgb order for si
 1353              		.loc 1 871 0
 1354 07da 214B     		ldr	r3, .L54
 1355 07dc 9D68     		ldr	r5, [r3, #8]
 1356              	.LVL194:
 872:main.c        ****             
 873:main.c        ****             
 874:main.c        ****             if (heldColour == puckConstructionPlan[currentPuckStackSize] ) { // The currently held 
 1357              		.loc 1 874 0
 1358 07de E368     		ldr	r3, [r4, #12]
 1359 07e0 04EB8304 		add	r4, r4, r3, lsl #2
 1360 07e4 A369     		ldr	r3, [r4, #24]
 1361 07e6 9D42     		cmp	r5, r3
 1362 07e8 23D1     		bne	.L37
 875:main.c        ****                 moveUntil(HOME_MIDPOINT - DISTANCE_FRONT_SENSOR_FROM_CENTER, BACKWARD, GREATER_THAN
 1363              		.loc 1 875 0
 1364 07ea 0124     		movs	r4, #1
 1365 07ec 0194     		str	r4, [sp, #4]
 1366 07ee AA26     		movs	r6, #170
 1367 07f0 0096     		str	r6, [sp]
 1368 07f2 0023     		movs	r3, #0
 1369 07f4 0522     		movs	r2, #5
 1370 07f6 1946     		mov	r1, r3
 1371 07f8 40F22620 		movw	r0, #550
 1372 07fc FFF7FEFF 		bl	moveUntil
 1373              	.LVL195:
 876:main.c        ****                 changeOrientation(WEST,SPEED);
 1374              		.loc 1 876 0
 1375 0800 3146     		mov	r1, r6
 1376 0802 0320     		movs	r0, #3
 1377 0804 FFF7FEFF 		bl	changeOrientation
 1378              	.LVL196:
 877:main.c        ****                 moveUntil(CONSTRUCTION_MIDPOINT - DISTANCE_FRONT_SENSOR_FROM_CENTER, FORWARD, LESS_
 1379              		.loc 1 877 0
 1380 0808 0194     		str	r4, [sp, #4]
 1381 080a 0096     		str	r6, [sp]
 1382 080c 0023     		movs	r3, #0
 1383 080e 0422     		movs	r2, #4
 1384 0810 2146     		mov	r1, r4
 1385 0812 FA20     		movs	r0, #250
 1386 0814 FFF7FEFF 		bl	moveUntil
 1387              	.LVL197:
 878:main.c        ****                 straightAdjust();
 1388              		.loc 1 878 0
 1389 0818 FFF7FEFF 		bl	straightAdjust
 1390              	.LVL198:
 879:main.c        ****                 moveUntil(CONSTRUCTION_MIDPOINT - DISTANCE_FRONT_SENSOR_FROM_CENTER, FORWARD, LESS_
ARM GAS  C:\Users\Misha\AppData\Local\Temp\ccwkTl6l.s 			page 41


 1391              		.loc 1 879 0
 1392 081c 0194     		str	r4, [sp, #4]
 1393 081e 0096     		str	r6, [sp]
 1394 0820 0023     		movs	r3, #0
 1395 0822 0422     		movs	r2, #4
 1396 0824 2146     		mov	r1, r4
 1397 0826 FA20     		movs	r0, #250
 1398 0828 FFF7FEFF 		bl	moveUntil
 1399              	.LVL199:
 880:main.c        ****                 straightAdjust();
 1400              		.loc 1 880 0
 1401 082c FFF7FEFF 		bl	straightAdjust
 1402              	.LVL200:
 1403 0830 24E0     		b	.L38
 1404              	.L37:
 881:main.c        ****                 /*
 882:main.c        ****                 changeOrientation(SOUTH, SPEED);
 883:main.c        ****                 straightAdjust();
 884:main.c        ****                 moveUntil(CONSTRUCTION_MIDPOINT - DISTANCE_FRONT_SENSOR_FROM_CENTER, FORWARD, LESS_
 885:main.c        ****                 straightAdjust();
 886:main.c        ****                 */
 887:main.c        ****                 
 888:main.c        ****             }
 889:main.c        ****             else if ( heldColour == puckConstructionPlan[1] || heldColour == puckConstructionPlan[2
 1405              		.loc 1 889 0
 1406 0832 0C4B     		ldr	r3, .L54+4
 1407 0834 DB69     		ldr	r3, [r3, #28]
 1408 0836 9D42     		cmp	r5, r3
 1409 0838 03D0     		beq	.L39
 1410              		.loc 1 889 0 is_stmt 0 discriminator 1
 1411 083a 0A4B     		ldr	r3, .L54+4
 1412 083c 1B6A     		ldr	r3, [r3, #32]
 1413 083e 9D42     		cmp	r5, r3
 1414 0840 12D1     		bne	.L40
 1415              	.L39:
 890:main.c        ****                 moveUntil(ARENA_WIDTH - FIRST_TEMP_DROPOFF + DISTANCE_FRONT_SENSOR_FROM_CENTER, BAC
 1416              		.loc 1 890 0 is_stmt 1
 1417 0842 0123     		movs	r3, #1
 1418 0844 0193     		str	r3, [sp, #4]
 1419 0846 AA23     		movs	r3, #170
 1420 0848 0093     		str	r3, [sp]
 1421 084a 0023     		movs	r3, #0
 1422 084c 0522     		movs	r2, #5
 1423 084e 1946     		mov	r1, r3
 1424 0850 40F20D20 		movw	r0, #525
 1425 0854 FFF7FEFF 		bl	moveUntil
 1426              	.LVL201:
 891:main.c        ****                 straightAdjust();
 1427              		.loc 1 891 0
 1428 0858 FFF7FEFF 		bl	straightAdjust
 1429              	.LVL202:
 1430 085c 0EE0     		b	.L38
 1431              	.L55:
 1432 085e 00BF     		.align	2
 1433              	.L54:
 1434 0860 00000000 		.word	.LANCHOR1
 1435 0864 00000000 		.word	.LANCHOR0
ARM GAS  C:\Users\Misha\AppData\Local\Temp\ccwkTl6l.s 			page 42


 1436              	.L40:
 892:main.c        ****             }
 893:main.c        ****             
 894:main.c        ****             else {
 895:main.c        ****                 moveUntil(ARENA_WIDTH-FIRST_DISCARD_ZONE + DISTANCE_FRONT_SENSOR_FROM_CENTER, BACKW
 1437              		.loc 1 895 0
 1438 0868 0123     		movs	r3, #1
 1439 086a 0193     		str	r3, [sp, #4]
 1440 086c AA23     		movs	r3, #170
 1441 086e 0093     		str	r3, [sp]
 1442 0870 0023     		movs	r3, #0
 1443 0872 0522     		movs	r2, #5
 1444 0874 1946     		mov	r1, r3
 1445 0876 FA20     		movs	r0, #250
 1446 0878 FFF7FEFF 		bl	moveUntil
 1447              	.LVL203:
 1448              	.L38:
 896:main.c        ****             } // Discard the puck so drop it in rubbish pile
 897:main.c        **** 
 898:main.c        ****             changeOrientation(SOUTH,SPEED);    
 1449              		.loc 1 898 0
 1450 087c AA21     		movs	r1, #170
 1451 087e 0220     		movs	r0, #2
 1452 0880 FFF7FEFF 		bl	changeOrientation
 1453              	.LVL204:
 899:main.c        ****             changeHeightToPuck(currentPuckStackSize + 1, NEITHER); // Lift claw above stack to avoi
 1454              		.loc 1 899 0
 1455 0884 584C     		ldr	r4, .L56
 1456 0886 E068     		ldr	r0, [r4, #12]
 1457 0888 0221     		movs	r1, #2
 1458 088a 0130     		adds	r0, r0, #1
 1459 088c FFF7FEFF 		bl	changeHeightToPuck
 1460              	.LVL205:
 900:main.c        ****             
 901:main.c        ****             moveUntil(CONSTRUCTION_DISTANCE_FROM_WALL, FORWARD, LESS_THAN, FRONT_LEFT, SPEED, TRUE)
 1461              		.loc 1 901 0
 1462 0890 0121     		movs	r1, #1
 1463 0892 0191     		str	r1, [sp, #4]
 1464 0894 AA23     		movs	r3, #170
 1465 0896 0093     		str	r3, [sp]
 1466 0898 0023     		movs	r3, #0
 1467 089a 0422     		movs	r2, #4
 1468 089c 8C20     		movs	r0, #140
 1469 089e FFF7FEFF 		bl	moveUntil
 1470              	.LVL206:
 902:main.c        ****             if (currentPuckStackSize == 0){
 1471              		.loc 1 902 0
 1472 08a2 E368     		ldr	r3, [r4, #12]
 1473 08a4 4BB9     		cbnz	r3, .L41
 903:main.c        ****                moveUntil(CONSTRUCTION_DISTANCE_FROM_WALL, FORWARD, LESS_THAN, FRONT_LEFT, SPEED,TRU
 1474              		.loc 1 903 0
 1475 08a6 0121     		movs	r1, #1
 1476 08a8 0191     		str	r1, [sp, #4]
 1477 08aa AA23     		movs	r3, #170
 1478 08ac 0093     		str	r3, [sp]
 1479 08ae 0023     		movs	r3, #0
 1480 08b0 0422     		movs	r2, #4
ARM GAS  C:\Users\Misha\AppData\Local\Temp\ccwkTl6l.s 			page 43


 1481 08b2 8C20     		movs	r0, #140
 1482 08b4 FFF7FEFF 		bl	moveUntil
 1483              	.LVL207:
 1484 08b8 08E0     		b	.L42
 1485              	.L41:
 904:main.c        ****             }
 905:main.c        ****             else {
 906:main.c        ****                 moveUntil(CONSTRUCTION_DISTANCE_FROM_WALL - 50, FORWARD, LESS_THAN, FRONT_LEFT, SPE
 1486              		.loc 1 906 0
 1487 08ba 0023     		movs	r3, #0
 1488 08bc 0193     		str	r3, [sp, #4]
 1489 08be AA22     		movs	r2, #170
 1490 08c0 0092     		str	r2, [sp]
 1491 08c2 0422     		movs	r2, #4
 1492 08c4 0121     		movs	r1, #1
 1493 08c6 5A20     		movs	r0, #90
 1494 08c8 FFF7FEFF 		bl	moveUntil
 1495              	.LVL208:
 1496              	.L42:
 907:main.c        ****             }
 908:main.c        ****             
 909:main.c        ****             //moveDynamic(CONSTRUCTION_DISTANCE_CLEAR_FROM_STACK - CONSTRUCTION_DISTANCE_FROM_WALL,
 910:main.c        ****             
 911:main.c        ****             if (heldColour == puckConstructionPlan[currentPuckStackSize]){changeHeightToPuck(curren
 1497              		.loc 1 911 0
 1498 08cc 464B     		ldr	r3, .L56
 1499 08ce D868     		ldr	r0, [r3, #12]
 1500 08d0 03EB8003 		add	r3, r3, r0, lsl #2
 1501 08d4 9B69     		ldr	r3, [r3, #24]
 1502 08d6 9D42     		cmp	r5, r3
 1503 08d8 03D1     		bne	.L43
 1504              		.loc 1 911 0 is_stmt 0 discriminator 1
 1505 08da 0221     		movs	r1, #2
 1506 08dc FFF7FEFF 		bl	changeHeightToPuck
 1507              	.LVL209:
 1508 08e0 03E0     		b	.L44
 1509              	.L43:
 912:main.c        ****             else {changeHeightToPuck(0, NEITHER);}
 1510              		.loc 1 912 0 is_stmt 1
 1511 08e2 0221     		movs	r1, #2
 1512 08e4 0020     		movs	r0, #0
 1513 08e6 FFF7FEFF 		bl	changeHeightToPuck
 1514              	.LVL210:
 1515              	.L44:
 913:main.c        ****             armOpen();
 1516              		.loc 1 913 0
 1517 08ea FFF7FEFF 		bl	armOpen
 1518              	.LVL211:
 914:main.c        ****             changeHeightToPuck(currentPuckStackSize + 1, NEITHER); // Move higher than stack to avo
 1519              		.loc 1 914 0
 1520 08ee 3E4B     		ldr	r3, .L56
 1521 08f0 D868     		ldr	r0, [r3, #12]
 1522 08f2 0221     		movs	r1, #2
 1523 08f4 0130     		adds	r0, r0, #1
 1524 08f6 FFF7FEFF 		bl	changeHeightToPuck
 1525              	.LVL212:
 915:main.c        ****             
ARM GAS  C:\Users\Misha\AppData\Local\Temp\ccwkTl6l.s 			page 44


 916:main.c        **** 
 917:main.c        ****             if (current_stage >= 3){state = STATE_PARK_HOME;}        // Returns to home 
 1526              		.loc 1 917 0
 1527 08fa 3C4B     		ldr	r3, .L56+4
 1528 08fc 9B68     		ldr	r3, [r3, #8]
 1529 08fe 022B     		cmp	r3, #2
 1530 0900 03DD     		ble	.L45
 1531              		.loc 1 917 0 is_stmt 0 discriminator 1
 1532 0902 0722     		movs	r2, #7
 1533 0904 394B     		ldr	r3, .L56+4
 1534 0906 5A60     		str	r2, [r3, #4]
 1535 0908 44E0     		b	.L36
 1536              	.L45:
 918:main.c        ****             else {current_stage++; currentPuckStackSize++;
 1537              		.loc 1 918 0 is_stmt 1
 1538 090a 384E     		ldr	r6, .L56+4
 1539 090c 0133     		adds	r3, r3, #1
 1540 090e B360     		str	r3, [r6, #8]
 1541 0910 354A     		ldr	r2, .L56
 1542 0912 D368     		ldr	r3, [r2, #12]
 1543 0914 0133     		adds	r3, r3, #1
 1544 0916 D360     		str	r3, [r2, #12]
 919:main.c        ****             // Need to go back to the east wall facing east.
 920:main.c        ****                 moveUntil(CONSTRUCTION_DISTANCE_CLEAR_FROM_STACK, BACKWARD, GREATER_THAN, FRONT_LEF
 1545              		.loc 1 920 0
 1546 0918 0124     		movs	r4, #1
 1547 091a 0194     		str	r4, [sp, #4]
 1548 091c AA25     		movs	r5, #170
 1549              	.LVL213:
 1550 091e 0095     		str	r5, [sp]
 1551 0920 0023     		movs	r3, #0
 1552 0922 0522     		movs	r2, #5
 1553 0924 1946     		mov	r1, r3
 1554 0926 D220     		movs	r0, #210
 1555 0928 FFF7FEFF 		bl	moveUntil
 1556              	.LVL214:
 921:main.c        ****                 changeOrientation(WEST,SPEED);
 1557              		.loc 1 921 0
 1558 092c 2946     		mov	r1, r5
 1559 092e 0320     		movs	r0, #3
 1560 0930 FFF7FEFF 		bl	changeOrientation
 1561              	.LVL215:
 922:main.c        ****                 moveUntil(HOME_MIDPOINT - DISTANCE_FRONT_SENSOR_FROM_CENTER, BACKWARD, GREATER_THAN
 1562              		.loc 1 922 0
 1563 0934 0194     		str	r4, [sp, #4]
 1564 0936 0095     		str	r5, [sp]
 1565 0938 0023     		movs	r3, #0
 1566 093a 0522     		movs	r2, #5
 1567 093c 1946     		mov	r1, r3
 1568 093e 40F22620 		movw	r0, #550
 1569 0942 FFF7FEFF 		bl	moveUntil
 1570              	.LVL216:
 923:main.c        ****                 straightAdjust();
 1571              		.loc 1 923 0
 1572 0946 FFF7FEFF 		bl	straightAdjust
 1573              	.LVL217:
 924:main.c        ****                 moveUntil(HOME_MIDPOINT - DISTANCE_FRONT_SENSOR_FROM_CENTER, BACKWARD, GREATER_THAN
ARM GAS  C:\Users\Misha\AppData\Local\Temp\ccwkTl6l.s 			page 45


 1574              		.loc 1 924 0
 1575 094a 0194     		str	r4, [sp, #4]
 1576 094c 0095     		str	r5, [sp]
 1577 094e 0023     		movs	r3, #0
 1578 0950 0522     		movs	r2, #5
 1579 0952 1946     		mov	r1, r3
 1580 0954 40F22620 		movw	r0, #550
 1581 0958 FFF7FEFF 		bl	moveUntil
 1582              	.LVL218:
 925:main.c        ****                 straightAdjust();
 1583              		.loc 1 925 0
 1584 095c FFF7FEFF 		bl	straightAdjust
 1585              	.LVL219:
 926:main.c        ****                 changeOrientation(EAST,SPEED);
 1586              		.loc 1 926 0
 1587 0960 2946     		mov	r1, r5
 1588 0962 2046     		mov	r0, r4
 1589 0964 FFF7FEFF 		bl	changeOrientation
 1590              	.LVL220:
 927:main.c        ****                 moveUntil(DISTANCE_FRONT_SENSOR_FROM_CENTER + SAFETY_MARGIN, BACKWARD, GREATER_THAN
 1591              		.loc 1 927 0
 1592 0968 0194     		str	r4, [sp, #4]
 1593 096a 0095     		str	r5, [sp]
 1594 096c 0023     		movs	r3, #0
 1595 096e 0522     		movs	r2, #5
 1596 0970 1946     		mov	r1, r3
 1597 0972 7D20     		movs	r0, #125
 1598 0974 FFF7FEFF 		bl	moveUntil
 1599              	.LVL221:
 928:main.c        ****                 straightAdjust();
 1600              		.loc 1 928 0
 1601 0978 FFF7FEFF 		bl	straightAdjust
 1602              	.LVL222:
 929:main.c        ****                 moveUntil(DISTANCE_FRONT_SENSOR_FROM_CENTER + SAFETY_MARGIN + 50, FORWARD, LESS_THA
 1603              		.loc 1 929 0
 1604 097c 0194     		str	r4, [sp, #4]
 1605 097e 0095     		str	r5, [sp]
 1606 0980 0023     		movs	r3, #0
 1607 0982 0422     		movs	r2, #4
 1608 0984 2146     		mov	r1, r4
 1609 0986 AF20     		movs	r0, #175
 1610 0988 FFF7FEFF 		bl	moveUntil
 1611              	.LVL223:
 930:main.c        ****                 straightAdjust();
 1612              		.loc 1 930 0
 1613 098c FFF7FEFF 		bl	straightAdjust
 1614              	.LVL224:
 931:main.c        ****                 
 932:main.c        ****                 
 933:main.c        ****                 //Usually we will check if the next colour we need is in home base already
 934:main.c        ****                 //
 935:main.c        ****                 // If in east edge of home base
 936:main.c        ****                 if ( puckConstructionPlan[currentPuckStackSize] == puckColoursTempPile[0]){
 937:main.c        ****                     
 938:main.c        ****                 }
 939:main.c        ****                 //If in west edge of home base
 940:main.c        ****                 else if(puckConstructionPlan[currentPuckStackSize] == puckColoursTempPile[1]){
ARM GAS  C:\Users\Misha\AppData\Local\Temp\ccwkTl6l.s 			page 46


 941:main.c        ****                          
 942:main.c        ****                 }
 943:main.c        ****                 
 944:main.c        ****                 
 945:main.c        ****                 //DELETE
 946:main.c        ****                 state = STATE_DEPOSIT_PUCK;
 1615              		.loc 1 946 0
 1616 0990 0623     		movs	r3, #6
 1617 0992 7360     		str	r3, [r6, #4]
 1618              	.L36:
 1619              	.LBE9:
 947:main.c        ****             }
 948:main.c        ****             
 949:main.c        ****             
 950:main.c        **** 
 951:main.c        ****         }
 952:main.c        ****  
 953:main.c        **** //        
 954:main.c        **** // *** 7. STATE PARK HOME: *** // 
 955:main.c        **** //        
 956:main.c        ****         
 957:main.c        ****         if (state == STATE_PARK_HOME){
 1620              		.loc 1 957 0
 1621 0994 154B     		ldr	r3, .L56+4
 1622 0996 5B68     		ldr	r3, [r3, #4]
 1623 0998 072B     		cmp	r3, #7
 1624 099a 7FF4B3AB 		bne	.L46
 958:main.c        ****             
 959:main.c        ****             // When we enter this state we can assume that we have just deposited the final puck on
 960:main.c        ****             // Thus we are facing the stack.
 961:main.c        ****             
 962:main.c        ****             
 963:main.c        ****             moveSwivel(90, SPEED, TRUE);
 1625              		.loc 1 963 0
 1626 099e 0122     		movs	r2, #1
 1627 09a0 AA21     		movs	r1, #170
 1628 09a2 5A20     		movs	r0, #90
 1629 09a4 FFF7FEFF 		bl	moveSwivel
 1630              	.LVL225:
 964:main.c        ****             straightAdjust();
 1631              		.loc 1 964 0
 1632 09a8 FFF7FEFF 		bl	straightAdjust
 1633              	.LVL226:
 965:main.c        ****             moveUntil(HOME_MIDPOINT - DISTANCE_FRONT_SENSOR_FROM_CENTER - 30 , BACKWARD, GREATER_TH
 1634              		.loc 1 965 0
 1635 09ac 0124     		movs	r4, #1
 1636 09ae 0194     		str	r4, [sp, #4]
 1637 09b0 AA25     		movs	r5, #170
 1638 09b2 0095     		str	r5, [sp]
 1639 09b4 2346     		mov	r3, r4
 1640 09b6 0522     		movs	r2, #5
 1641 09b8 0021     		movs	r1, #0
 1642 09ba 4FF40270 		mov	r0, #520
 1643 09be FFF7FEFF 		bl	moveUntil
 1644              	.LVL227:
 966:main.c        ****             moveSwivel(90, SPEED, TRUE);
 1645              		.loc 1 966 0
ARM GAS  C:\Users\Misha\AppData\Local\Temp\ccwkTl6l.s 			page 47


 1646 09c2 2246     		mov	r2, r4
 1647 09c4 2946     		mov	r1, r5
 1648 09c6 5A20     		movs	r0, #90
 1649 09c8 FFF7FEFF 		bl	moveSwivel
 1650              	.LVL228:
 967:main.c        ****             moveUntil(HOME_PARKING_DISTANCE , BACKWARD, LESS_THAN, BACK, SPEED, TRUE);
 1651              		.loc 1 967 0
 1652 09cc 0194     		str	r4, [sp, #4]
 1653 09ce 0095     		str	r5, [sp]
 1654 09d0 0423     		movs	r3, #4
 1655 09d2 1A46     		mov	r2, r3
 1656 09d4 0021     		movs	r1, #0
 1657 09d6 2820     		movs	r0, #40
 1658 09d8 FFF7FEFF 		bl	moveUntil
 1659              	.LVL229:
 968:main.c        ****             
 969:main.c        ****             
 970:main.c        ****             // END Congratulations:
 971:main.c        ****             changeHeightToPuck(GROUND, NEITHER);
 1660              		.loc 1 971 0
 1661 09dc 0221     		movs	r1, #2
 1662 09de 0020     		movs	r0, #0
 1663 09e0 FFF7FEFF 		bl	changeHeightToPuck
 1664              	.LVL230:
 1665              	.L47:
 1666 09e4 FEE7     		b	.L47
 1667              	.L57:
 1668 09e6 00BF     		.align	2
 1669              	.L56:
 1670 09e8 00000000 		.word	.LANCHOR0
 1671 09ec 00000000 		.word	.LANCHOR1
 1672              		.cfi_endproc
 1673              	.LFE66:
 1674              		.size	main, .-main
 1675              		.comm	distance_returned_global,4,4
 1676              		.global	current_stage
 1677              		.global	PLAN_SCAN_VERTICAL
 1678              		.global	moving
 1679              		.global	colour_sensing_algorithm
 1680              		.global	colour_flag
 1681              		.global	idac_value
 1682              		.global	puckWestClearance
 1683              		.global	puckEastClearance
 1684              		.global	blockWestClearance
 1685              		.global	blockEastClearance
 1686              		.global	safety_override
 1687              		.global	puck_location
 1688              		.global	block_location
 1689              		.comm	pathPastBlock,4,4
 1690              		.comm	pathToPucks,4,4
 1691              		.global	beginNavigation
 1692              		.global	horizontalPuckGrid
 1693              		.global	puckColoursTempPile
 1694              		.global	puckConstructionPlan
 1695              		.global	currentPuckStackSize
 1696              		.global	running
 1697              		.global	state
ARM GAS  C:\Users\Misha\AppData\Local\Temp\ccwkTl6l.s 			page 48


 1698              		.comm	ultrasonic_flag,4,4
 1699              		.comm	initialisation,4,4
 1700              		.comm	output,32,4
 1701              		.comm	turningRightFlag,2,2
 1702              		.comm	turningLeftFlag,2,2
 1703              		.comm	drivingBackwardFlag,2,2
 1704              		.comm	drivingForwardFlag,2,2
 1705              		.comm	puckPileLocation,4,4
 1706              		.global	block_edge_location
 1707              		.global	sweeping
 1708              		.global	puckRackOffsetsFromWest
 1709              		.global	puckRackColours
 1710              		.global	currentPuckRackScanningIndex
 1711              		.comm	driveStraightEnable,4,4
 1712              		.comm	internal_orientation,4,4
 1713              		.section	.rodata
 1714              		.align	2
 1715              		.type	PLAN_SCAN_VERTICAL, %object
 1716              		.size	PLAN_SCAN_VERTICAL, 4
 1717              	PLAN_SCAN_VERTICAL:
 1718 0000 0A000000 		.word	10
 1719              		.data
 1720              		.align	2
 1721              		.set	.LANCHOR1,. + 0
 1722              		.type	colour_flag, %object
 1723              		.size	colour_flag, 4
 1724              	colour_flag:
 1725 0000 01000000 		.word	1
 1726              		.type	state, %object
 1727              		.size	state, 4
 1728              	state:
 1729 0004 01000000 		.word	1
 1730              		.type	current_stage, %object
 1731              		.size	current_stage, 4
 1732              	current_stage:
 1733 0008 01000000 		.word	1
 1734              		.type	running, %object
 1735              		.size	running, 4
 1736              	running:
 1737 000c 01000000 		.word	1
 1738              		.type	puckRackOffsetsFromWest, %object
 1739              		.size	puckRackOffsetsFromWest, 20
 1740              	puckRackOffsetsFromWest:
 1741 0010 D0020000 		.word	720
 1742 0014 94020000 		.word	660
 1743 0018 58020000 		.word	600
 1744 001c 1C020000 		.word	540
 1745 0020 E0010000 		.word	480
 1746              		.section	.rodata.str1.4,"aMS",%progbits,1
 1747              		.align	2
 1748              	.LC0:
 1749 0000 55415254 		.ascii	"UART commencing... \012\000"
 1749      20636F6D 
 1749      6D656E63 
 1749      696E672E 
 1749      2E2E200A 
 1750 0015 000000   		.space	3
ARM GAS  C:\Users\Misha\AppData\Local\Temp\ccwkTl6l.s 			page 49


 1751              	.LC1:
 1752 0018 556C7472 		.ascii	"Ultrasonic Calibration tests: \012\000"
 1752      61736F6E 
 1752      69632043 
 1752      616C6962 
 1752      72617469 
 1753              	.LC2:
 1754 0038 466F756E 		.ascii	"Found Colours: \012\000"
 1754      6420436F 
 1754      6C6F7572 
 1754      733A200A 
 1754      00
 1755 0049 000000   		.space	3
 1756              	.LC3:
 1757 004c 2569200A 		.ascii	"%i \012\000"
 1757      00
 1758 0051 000000   		.space	3
 1759              	.LC4:
 1760 0054 64697374 		.ascii	"distance from robot to block: %d \011\000"
 1760      616E6365 
 1760      2066726F 
 1760      6D20726F 
 1760      626F7420 
 1761              		.bss
 1762              		.align	2
 1763              		.set	.LANCHOR0,. + 0
 1764              		.type	beginNavigation, %object
 1765              		.size	beginNavigation, 4
 1766              	beginNavigation:
 1767 0000 00000000 		.space	4
 1768              		.type	idac_value, %object
 1769              		.size	idac_value, 4
 1770              	idac_value:
 1771 0004 00000000 		.space	4
 1772              		.type	colour_sensing_algorithm, %object
 1773              		.size	colour_sensing_algorithm, 4
 1774              	colour_sensing_algorithm:
 1775 0008 00000000 		.space	4
 1776              		.type	currentPuckStackSize, %object
 1777              		.size	currentPuckStackSize, 4
 1778              	currentPuckStackSize:
 1779 000c 00000000 		.space	4
 1780              		.type	blockEastClearance, %object
 1781              		.size	blockEastClearance, 2
 1782              	blockEastClearance:
 1783 0010 0000     		.space	2
 1784              		.type	blockWestClearance, %object
 1785              		.size	blockWestClearance, 2
 1786              	blockWestClearance:
 1787 0012 0000     		.space	2
 1788              		.type	puckEastClearance, %object
 1789              		.size	puckEastClearance, 2
 1790              	puckEastClearance:
 1791 0014 0000     		.space	2
 1792              		.type	puckWestClearance, %object
 1793              		.size	puckWestClearance, 2
 1794              	puckWestClearance:
ARM GAS  C:\Users\Misha\AppData\Local\Temp\ccwkTl6l.s 			page 50


 1795 0016 0000     		.space	2
 1796              		.type	puckConstructionPlan, %object
 1797              		.size	puckConstructionPlan, 12
 1798              	puckConstructionPlan:
 1799 0018 00000000 		.space	12
 1799      00000000 
 1799      00000000 
 1800              		.type	puckRackColours, %object
 1801              		.size	puckRackColours, 20
 1802              	puckRackColours:
 1803 0024 00000000 		.space	20
 1803      00000000 
 1803      00000000 
 1803      00000000 
 1803      00000000 
 1804              		.type	block_location, %object
 1805              		.size	block_location, 16
 1806              	block_location:
 1807 0038 00000000 		.space	16
 1807      00000000 
 1807      00000000 
 1807      00000000 
 1808              		.type	safety_override, %object
 1809              		.size	safety_override, 4
 1810              	safety_override:
 1811 0048 00000000 		.space	4
 1812              		.type	moving, %object
 1813              		.size	moving, 4
 1814              	moving:
 1815 004c 00000000 		.space	4
 1816              		.type	puck_location, %object
 1817              		.size	puck_location, 16
 1818              	puck_location:
 1819 0050 00000000 		.space	16
 1819      00000000 
 1819      00000000 
 1819      00000000 
 1820              		.type	horizontalPuckGrid, %object
 1821              		.size	horizontalPuckGrid, 4
 1822              	horizontalPuckGrid:
 1823 0060 00000000 		.space	4
 1824              		.type	puckColoursTempPile, %object
 1825              		.size	puckColoursTempPile, 8
 1826              	puckColoursTempPile:
 1827 0064 00000000 		.space	8
 1827      00000000 
 1828              		.type	block_edge_location, %object
 1829              		.size	block_edge_location, 16
 1830              	block_edge_location:
 1831 006c 00000000 		.space	16
 1831      00000000 
 1831      00000000 
 1831      00000000 
 1832              		.type	sweeping, %object
 1833              		.size	sweeping, 4
 1834              	sweeping:
 1835 007c 00000000 		.space	4
ARM GAS  C:\Users\Misha\AppData\Local\Temp\ccwkTl6l.s 			page 51


 1836              		.type	currentPuckRackScanningIndex, %object
 1837              		.size	currentPuckRackScanningIndex, 4
 1838              	currentPuckRackScanningIndex:
 1839 0080 00000000 		.space	4
 1840              		.text
 1841              	.Letext0:
 1842              		.file 2 "c:\\program files (x86)\\cypress\\psoc creator\\4.2\\psoc creator\\import\\gnu\\arm\\5.4.
 1843              		.file 3 "c:\\program files (x86)\\cypress\\psoc creator\\4.2\\psoc creator\\import\\gnu\\arm\\5.4.
 1844              		.file 4 "Generated_Source\\PSoC5/core_cm3.h"
 1845              		.file 5 "navigation.h"
 1846              		.file 6 "ultrasonic.h"
 1847              		.file 7 "main.h"
 1848              		.file 8 "Generated_Source\\PSoC5/CyLib.h"
 1849              		.file 9 "colour.h"
 1850              		.file 10 "c:\\program files (x86)\\cypress\\psoc creator\\4.2\\psoc creator\\import\\gnu\\arm\\5.4
 1851              		.file 11 "Generated_Source\\PSoC5/UART_1.h"
 1852              		.file 12 "Generated_Source\\PSoC5/control_photodiode.h"
 1853              		.file 13 "motor.h"
 1854              		.file 14 "servo.h"
 1855              		.file 15 "Generated_Source\\PSoC5/TIA_1.h"
 1856              		.file 16 "Generated_Source\\PSoC5/ADC.h"
 1857              		.file 17 "Generated_Source\\PSoC5/IDAC8_1.h"
 1858              		.file 18 "Generated_Source\\PSoC5/control_led.h"
 1859              		.file 19 "Generated_Source\\PSoC5/Rack_Servo_PWM.h"
 1860              		.file 20 "Generated_Source\\PSoC5/Gripper_Servo_PWM.h"
 1861              		.file 21 "Generated_Source\\PSoC5/Motor_Left_Driver.h"
 1862              		.file 22 "Generated_Source\\PSoC5/Motor_Right_Driver.h"
 1863              		.file 23 "Generated_Source\\PSoC5/Motor_Left_Decoder.h"
 1864              		.file 24 "Generated_Source\\PSoC5/Motor_Right_Decoder.h"
 1865              		.file 25 "Generated_Source\\PSoC5/Timer_1.h"
 1866              		.file 26 "Generated_Source\\PSoC5/Sonic.h"
 1867              		.file 27 "Generated_Source\\PSoC5/Start.h"
 1868              		.file 28 "debugging.h"
 1869              		.section	.debug_info,"",%progbits
 1870              	.Ldebug_info0:
 1871 0000 E61A0000 		.4byte	0x1ae6
 1872 0004 0400     		.2byte	0x4
 1873 0006 00000000 		.4byte	.Ldebug_abbrev0
 1874 000a 04       		.byte	0x4
 1875 000b 01       		.uleb128 0x1
 1876 000c 1D070000 		.4byte	.LASF109
 1877 0010 0C       		.byte	0xc
 1878 0011 9F050000 		.4byte	.LASF110
 1879 0015 56060000 		.4byte	.LASF111
 1880 0019 18000000 		.4byte	.Ldebug_ranges0+0x18
 1881 001d 00000000 		.4byte	0
 1882 0021 00000000 		.4byte	.Ldebug_line0
 1883 0025 02       		.uleb128 0x2
 1884 0026 01       		.byte	0x1
 1885 0027 06       		.byte	0x6
 1886 0028 34040000 		.4byte	.LASF0
 1887 002c 02       		.uleb128 0x2
 1888 002d 01       		.byte	0x1
 1889 002e 08       		.byte	0x8
 1890 002f 74030000 		.4byte	.LASF1
 1891 0033 02       		.uleb128 0x2
 1892 0034 02       		.byte	0x2
ARM GAS  C:\Users\Misha\AppData\Local\Temp\ccwkTl6l.s 			page 52


 1893 0035 05       		.byte	0x5
 1894 0036 56000000 		.4byte	.LASF2
 1895 003a 02       		.uleb128 0x2
 1896 003b 02       		.byte	0x2
 1897 003c 07       		.byte	0x7
 1898 003d 7B050000 		.4byte	.LASF3
 1899 0041 03       		.uleb128 0x3
 1900 0042 39060000 		.4byte	.LASF9
 1901 0046 02       		.byte	0x2
 1902 0047 3F       		.byte	0x3f
 1903 0048 4C000000 		.4byte	0x4c
 1904 004c 02       		.uleb128 0x2
 1905 004d 04       		.byte	0x4
 1906 004e 05       		.byte	0x5
 1907 004f 75020000 		.4byte	.LASF4
 1908 0053 02       		.uleb128 0x2
 1909 0054 04       		.byte	0x4
 1910 0055 07       		.byte	0x7
 1911 0056 AE050000 		.4byte	.LASF5
 1912 005a 02       		.uleb128 0x2
 1913 005b 08       		.byte	0x8
 1914 005c 05       		.byte	0x5
 1915 005d 27020000 		.4byte	.LASF6
 1916 0061 02       		.uleb128 0x2
 1917 0062 08       		.byte	0x8
 1918 0063 07       		.byte	0x7
 1919 0064 54040000 		.4byte	.LASF7
 1920 0068 04       		.uleb128 0x4
 1921 0069 04       		.byte	0x4
 1922 006a 05       		.byte	0x5
 1923 006b 696E7400 		.ascii	"int\000"
 1924 006f 02       		.uleb128 0x2
 1925 0070 04       		.byte	0x4
 1926 0071 07       		.byte	0x7
 1927 0072 7D040000 		.4byte	.LASF8
 1928 0076 03       		.uleb128 0x3
 1929 0077 9B000000 		.4byte	.LASF10
 1930 007b 03       		.byte	0x3
 1931 007c 2C       		.byte	0x2c
 1932 007d 41000000 		.4byte	0x41
 1933 0081 02       		.uleb128 0x2
 1934 0082 04       		.byte	0x4
 1935 0083 04       		.byte	0x4
 1936 0084 0E020000 		.4byte	.LASF11
 1937 0088 02       		.uleb128 0x2
 1938 0089 08       		.byte	0x8
 1939 008a 04       		.byte	0x4
 1940 008b F0060000 		.4byte	.LASF12
 1941 008f 02       		.uleb128 0x2
 1942 0090 01       		.byte	0x1
 1943 0091 08       		.byte	0x8
 1944 0092 00050000 		.4byte	.LASF13
 1945 0096 02       		.uleb128 0x2
 1946 0097 08       		.byte	0x8
 1947 0098 04       		.byte	0x4
 1948 0099 E4000000 		.4byte	.LASF14
 1949 009d 02       		.uleb128 0x2
ARM GAS  C:\Users\Misha\AppData\Local\Temp\ccwkTl6l.s 			page 53


 1950 009e 04       		.byte	0x4
 1951 009f 07       		.byte	0x7
 1952 00a0 E0060000 		.4byte	.LASF15
 1953 00a4 05       		.uleb128 0x5
 1954 00a5 54494800 		.ascii	"TIH\000"
 1955 00a9 01       		.byte	0x1
 1956 00aa 66       		.byte	0x66
 1957 00ab 00000000 		.4byte	.LFB64
 1958 00af 08000000 		.4byte	.LFE64-.LFB64
 1959 00b3 01       		.uleb128 0x1
 1960 00b4 9C       		.byte	0x9c
 1961 00b5 C3000000 		.4byte	0xc3
 1962 00b9 06       		.uleb128 0x6
 1963 00ba 06000000 		.4byte	.LVL0
 1964 00be 05190000 		.4byte	0x1905
 1965 00c2 00       		.byte	0
 1966 00c3 07       		.uleb128 0x7
 1967 00c4 A6050000 		.4byte	.LASF16
 1968 00c8 01       		.byte	0x1
 1969 00c9 6B       		.byte	0x6b
 1970 00ca 00000000 		.4byte	.LFB65
 1971 00ce 20000000 		.4byte	.LFE65-.LFB65
 1972 00d2 01       		.uleb128 0x1
 1973 00d3 9C       		.byte	0x9c
 1974 00d4 E9000000 		.4byte	0xe9
 1975 00d8 08       		.uleb128 0x8
 1976 00d9 08000000 		.4byte	.LVL1
 1977 00dd 10190000 		.4byte	0x1910
 1978 00e1 09       		.uleb128 0x9
 1979 00e2 01       		.uleb128 0x1
 1980 00e3 50       		.byte	0x50
 1981 00e4 02       		.uleb128 0x2
 1982 00e5 08       		.byte	0x8
 1983 00e6 64       		.byte	0x64
 1984 00e7 00       		.byte	0
 1985 00e8 00       		.byte	0
 1986 00e9 0A       		.uleb128 0xa
 1987 00ea 17050000 		.4byte	.LASF112
 1988 00ee 01       		.byte	0x1
 1989 00ef 86       		.byte	0x86
 1990 00f0 68000000 		.4byte	0x68
 1991 00f4 00000000 		.4byte	.LFB66
 1992 00f8 F0090000 		.4byte	.LFE66-.LFB66
 1993 00fc 01       		.uleb128 0x1
 1994 00fd 9C       		.byte	0x9c
 1995 00fe FE150000 		.4byte	0x15fe
 1996 0102 0B       		.uleb128 0xb
 1997 0103 35020000 		.4byte	.LASF17
 1998 0107 01       		.byte	0x1
 1999 0108 E7       		.byte	0xe7
 2000 0109 68000000 		.4byte	0x68
 2001 010d F401     		.2byte	0x1f4
 2002 010f 0C       		.uleb128 0xc
 2003 0110 10010000 		.4byte	.LBB2
 2004 0114 9A000000 		.4byte	.LBE2-.LBB2
 2005 0118 2E020000 		.4byte	0x22e
 2006 011c 0D       		.uleb128 0xd
ARM GAS  C:\Users\Misha\AppData\Local\Temp\ccwkTl6l.s 			page 54


 2007 011d AB070000 		.4byte	.LASF18
 2008 0121 01       		.byte	0x1
 2009 0122 4F01     		.2byte	0x14f
 2010 0124 68000000 		.4byte	0x68
 2011 0128 00000000 		.4byte	.LLST0
 2012 012c 0C       		.uleb128 0xc
 2013 012d 2E010000 		.4byte	.LBB3
 2014 0131 1E000000 		.4byte	.LBE3-.LBB3
 2015 0135 62010000 		.4byte	0x162
 2016 0139 0E       		.uleb128 0xe
 2017 013a 6900     		.ascii	"i\000"
 2018 013c 01       		.byte	0x1
 2019 013d 3A01     		.2byte	0x13a
 2020 013f 68000000 		.4byte	0x68
 2021 0143 1F000000 		.4byte	.LLST1
 2022 0147 06       		.uleb128 0x6
 2023 0148 36010000 		.4byte	.LVL47
 2024 014c 1B190000 		.4byte	0x191b
 2025 0150 08       		.uleb128 0x8
 2026 0151 46010000 		.4byte	.LVL48
 2027 0155 10190000 		.4byte	0x1910
 2028 0159 09       		.uleb128 0x9
 2029 015a 01       		.uleb128 0x1
 2030 015b 50       		.byte	0x50
 2031 015c 03       		.uleb128 0x3
 2032 015d 0A       		.byte	0xa
 2033 015e F401     		.2byte	0x1f4
 2034 0160 00       		.byte	0
 2035 0161 00       		.byte	0
 2036 0162 0C       		.uleb128 0xc
 2037 0163 52010000 		.4byte	.LBB4
 2038 0167 22000000 		.4byte	.LBE4-.LBB4
 2039 016b AB010000 		.4byte	0x1ab
 2040 016f 0E       		.uleb128 0xe
 2041 0170 6900     		.ascii	"i\000"
 2042 0172 01       		.byte	0x1
 2043 0173 4401     		.2byte	0x144
 2044 0175 68000000 		.4byte	0x68
 2045 0179 3E000000 		.4byte	.LLST2
 2046 017d 0F       		.uleb128 0xf
 2047 017e 68010000 		.4byte	.LVL53
 2048 0182 26190000 		.4byte	0x1926
 2049 0186 9A010000 		.4byte	0x19a
 2050 018a 09       		.uleb128 0x9
 2051 018b 01       		.uleb128 0x1
 2052 018c 50       		.byte	0x50
 2053 018d 02       		.uleb128 0x2
 2054 018e 75       		.byte	0x75
 2055 018f 00       		.sleb128 0
 2056 0190 09       		.uleb128 0x9
 2057 0191 01       		.uleb128 0x1
 2058 0192 51       		.byte	0x51
 2059 0193 05       		.uleb128 0x5
 2060 0194 03       		.byte	0x3
 2061 0195 4C000000 		.4byte	.LC3
 2062 0199 00       		.byte	0
 2063 019a 08       		.uleb128 0x8
ARM GAS  C:\Users\Misha\AppData\Local\Temp\ccwkTl6l.s 			page 55


 2064 019b 6E010000 		.4byte	.LVL54
 2065 019f 31190000 		.4byte	0x1931
 2066 01a3 09       		.uleb128 0x9
 2067 01a4 01       		.uleb128 0x1
 2068 01a5 50       		.byte	0x50
 2069 01a6 02       		.uleb128 0x2
 2070 01a7 75       		.byte	0x75
 2071 01a8 00       		.sleb128 0
 2072 01a9 00       		.byte	0
 2073 01aa 00       		.byte	0
 2074 01ab 10       		.uleb128 0x10
 2075 01ac 00000000 		.4byte	.Ldebug_ranges0+0
 2076 01b0 C5010000 		.4byte	0x1c5
 2077 01b4 0D       		.uleb128 0xd
 2078 01b5 F0000000 		.4byte	.LASF19
 2079 01b9 01       		.byte	0x1
 2080 01ba 5201     		.2byte	0x152
 2081 01bc 68000000 		.4byte	0x68
 2082 01c0 5D000000 		.4byte	.LLST3
 2083 01c4 00       		.byte	0
 2084 01c5 06       		.uleb128 0x6
 2085 01c6 14010000 		.4byte	.LVL43
 2086 01ca 3C190000 		.4byte	0x193c
 2087 01ce 0F       		.uleb128 0xf
 2088 01cf 2A010000 		.4byte	.LVL44
 2089 01d3 47190000 		.4byte	0x1947
 2090 01d7 FE010000 		.4byte	0x1fe
 2091 01db 09       		.uleb128 0x9
 2092 01dc 01       		.uleb128 0x1
 2093 01dd 50       		.byte	0x50
 2094 01de 02       		.uleb128 0x2
 2095 01df 09       		.byte	0x9
 2096 01e0 9C       		.byte	0x9c
 2097 01e1 09       		.uleb128 0x9
 2098 01e2 01       		.uleb128 0x1
 2099 01e3 51       		.byte	0x51
 2100 01e4 01       		.uleb128 0x1
 2101 01e5 30       		.byte	0x30
 2102 01e6 09       		.uleb128 0x9
 2103 01e7 01       		.uleb128 0x1
 2104 01e8 52       		.byte	0x52
 2105 01e9 01       		.uleb128 0x1
 2106 01ea 34       		.byte	0x34
 2107 01eb 09       		.uleb128 0x9
 2108 01ec 01       		.uleb128 0x1
 2109 01ed 53       		.byte	0x53
 2110 01ee 01       		.uleb128 0x1
 2111 01ef 34       		.byte	0x34
 2112 01f0 09       		.uleb128 0x9
 2113 01f1 02       		.uleb128 0x2
 2114 01f2 7D       		.byte	0x7d
 2115 01f3 00       		.sleb128 0
 2116 01f4 02       		.uleb128 0x2
 2117 01f5 08       		.byte	0x8
 2118 01f6 AA       		.byte	0xaa
 2119 01f7 09       		.uleb128 0x9
 2120 01f8 02       		.uleb128 0x2
ARM GAS  C:\Users\Misha\AppData\Local\Temp\ccwkTl6l.s 			page 56


 2121 01f9 7D       		.byte	0x7d
 2122 01fa 04       		.sleb128 4
 2123 01fb 01       		.uleb128 0x1
 2124 01fc 31       		.byte	0x31
 2125 01fd 00       		.byte	0
 2126 01fe 06       		.uleb128 0x6
 2127 01ff 2E010000 		.4byte	.LVL45
 2128 0203 52190000 		.4byte	0x1952
 2129 0207 0F       		.uleb128 0xf
 2130 0208 52010000 		.4byte	.LVL50
 2131 020c 31190000 		.4byte	0x1931
 2132 0210 1E020000 		.4byte	0x21e
 2133 0214 09       		.uleb128 0x9
 2134 0215 01       		.uleb128 0x1
 2135 0216 50       		.byte	0x50
 2136 0217 05       		.uleb128 0x5
 2137 0218 03       		.byte	0x3
 2138 0219 38000000 		.4byte	.LC2
 2139 021d 00       		.byte	0
 2140 021e 08       		.uleb128 0x8
 2141 021f 7A010000 		.4byte	.LVL56
 2142 0223 5D190000 		.4byte	0x195d
 2143 0227 09       		.uleb128 0x9
 2144 0228 01       		.uleb128 0x1
 2145 0229 50       		.byte	0x50
 2146 022a 01       		.uleb128 0x1
 2147 022b 31       		.byte	0x31
 2148 022c 00       		.byte	0
 2149 022d 00       		.byte	0
 2150 022e 0C       		.uleb128 0xc
 2151 022f B4010000 		.4byte	.LBB7
 2152 0233 EE010000 		.4byte	.LBE7-.LBB7
 2153 0237 E2050000 		.4byte	0x5e2
 2154 023b 0D       		.uleb128 0xd
 2155 023c 23060000 		.4byte	.LASF20
 2156 0240 01       		.byte	0x1
 2157 0241 8C01     		.2byte	0x18c
 2158 0243 68000000 		.4byte	0x68
 2159 0247 7C000000 		.4byte	.LLST4
 2160 024b 0D       		.uleb128 0xd
 2161 024c 16010000 		.4byte	.LASF21
 2162 0250 01       		.byte	0x1
 2163 0251 E801     		.2byte	0x1e8
 2164 0253 68000000 		.4byte	0x68
 2165 0257 8F000000 		.4byte	.LLST5
 2166 025b 0F       		.uleb128 0xf
 2167 025c C0010000 		.4byte	.LVL64
 2168 0260 68190000 		.4byte	0x1968
 2169 0264 7A020000 		.4byte	0x27a
 2170 0268 09       		.uleb128 0x9
 2171 0269 01       		.uleb128 0x1
 2172 026a 50       		.byte	0x50
 2173 026b 02       		.uleb128 0x2
 2174 026c 09       		.byte	0x9
 2175 026d DD       		.byte	0xdd
 2176 026e 09       		.uleb128 0x9
 2177 026f 01       		.uleb128 0x1
ARM GAS  C:\Users\Misha\AppData\Local\Temp\ccwkTl6l.s 			page 57


 2178 0270 51       		.byte	0x51
 2179 0271 02       		.uleb128 0x2
 2180 0272 08       		.byte	0x8
 2181 0273 AA       		.byte	0xaa
 2182 0274 09       		.uleb128 0x9
 2183 0275 01       		.uleb128 0x1
 2184 0276 52       		.byte	0x52
 2185 0277 01       		.uleb128 0x1
 2186 0278 31       		.byte	0x31
 2187 0279 00       		.byte	0
 2188 027a 0F       		.uleb128 0xf
 2189 027b CC010000 		.4byte	.LVL65
 2190 027f 73190000 		.4byte	0x1973
 2191 0283 99020000 		.4byte	0x299
 2192 0287 09       		.uleb128 0x9
 2193 0288 01       		.uleb128 0x1
 2194 0289 50       		.byte	0x50
 2195 028a 02       		.uleb128 0x2
 2196 028b 09       		.byte	0x9
 2197 028c 9C       		.byte	0x9c
 2198 028d 09       		.uleb128 0x9
 2199 028e 01       		.uleb128 0x1
 2200 028f 51       		.byte	0x51
 2201 0290 02       		.uleb128 0x2
 2202 0291 08       		.byte	0x8
 2203 0292 AA       		.byte	0xaa
 2204 0293 09       		.uleb128 0x9
 2205 0294 01       		.uleb128 0x1
 2206 0295 52       		.byte	0x52
 2207 0296 01       		.uleb128 0x1
 2208 0297 31       		.byte	0x31
 2209 0298 00       		.byte	0
 2210 0299 0F       		.uleb128 0xf
 2211 029a D6010000 		.4byte	.LVL66
 2212 029e 68190000 		.4byte	0x1968
 2213 02a2 B8020000 		.4byte	0x2b8
 2214 02a6 09       		.uleb128 0x9
 2215 02a7 01       		.uleb128 0x1
 2216 02a8 50       		.byte	0x50
 2217 02a9 02       		.uleb128 0x2
 2218 02aa 08       		.byte	0x8
 2219 02ab 23       		.byte	0x23
 2220 02ac 09       		.uleb128 0x9
 2221 02ad 01       		.uleb128 0x1
 2222 02ae 51       		.byte	0x51
 2223 02af 02       		.uleb128 0x2
 2224 02b0 08       		.byte	0x8
 2225 02b1 AA       		.byte	0xaa
 2226 02b2 09       		.uleb128 0x9
 2227 02b3 01       		.uleb128 0x1
 2228 02b4 52       		.byte	0x52
 2229 02b5 01       		.uleb128 0x1
 2230 02b6 31       		.byte	0x31
 2231 02b7 00       		.byte	0
 2232 02b8 0F       		.uleb128 0xf
 2233 02b9 E4010000 		.4byte	.LVL67
 2234 02bd 7E190000 		.4byte	0x197e
ARM GAS  C:\Users\Misha\AppData\Local\Temp\ccwkTl6l.s 			page 58


 2235 02c1 DD020000 		.4byte	0x2dd
 2236 02c5 09       		.uleb128 0x9
 2237 02c6 01       		.uleb128 0x1
 2238 02c7 50       		.byte	0x50
 2239 02c8 02       		.uleb128 0x2
 2240 02c9 09       		.byte	0x9
 2241 02ca 9C       		.byte	0x9c
 2242 02cb 09       		.uleb128 0x9
 2243 02cc 01       		.uleb128 0x1
 2244 02cd 51       		.byte	0x51
 2245 02ce 02       		.uleb128 0x2
 2246 02cf 08       		.byte	0x8
 2247 02d0 23       		.byte	0x23
 2248 02d1 09       		.uleb128 0x9
 2249 02d2 01       		.uleb128 0x1
 2250 02d3 52       		.byte	0x52
 2251 02d4 02       		.uleb128 0x2
 2252 02d5 08       		.byte	0x8
 2253 02d6 AA       		.byte	0xaa
 2254 02d7 09       		.uleb128 0x9
 2255 02d8 01       		.uleb128 0x1
 2256 02d9 53       		.byte	0x53
 2257 02da 01       		.uleb128 0x1
 2258 02db 31       		.byte	0x31
 2259 02dc 00       		.byte	0
 2260 02dd 0F       		.uleb128 0xf
 2261 02de F6010000 		.4byte	.LVL68
 2262 02e2 47190000 		.4byte	0x1947
 2263 02e6 0D030000 		.4byte	0x30d
 2264 02ea 09       		.uleb128 0x9
 2265 02eb 01       		.uleb128 0x1
 2266 02ec 50       		.byte	0x50
 2267 02ed 02       		.uleb128 0x2
 2268 02ee 08       		.byte	0x8
 2269 02ef 82       		.byte	0x82
 2270 02f0 09       		.uleb128 0x9
 2271 02f1 01       		.uleb128 0x1
 2272 02f2 51       		.byte	0x51
 2273 02f3 01       		.uleb128 0x1
 2274 02f4 31       		.byte	0x31
 2275 02f5 09       		.uleb128 0x9
 2276 02f6 01       		.uleb128 0x1
 2277 02f7 52       		.byte	0x52
 2278 02f8 01       		.uleb128 0x1
 2279 02f9 34       		.byte	0x34
 2280 02fa 09       		.uleb128 0x9
 2281 02fb 01       		.uleb128 0x1
 2282 02fc 53       		.byte	0x53
 2283 02fd 01       		.uleb128 0x1
 2284 02fe 30       		.byte	0x30
 2285 02ff 09       		.uleb128 0x9
 2286 0300 02       		.uleb128 0x2
 2287 0301 7D       		.byte	0x7d
 2288 0302 00       		.sleb128 0
 2289 0303 02       		.uleb128 0x2
 2290 0304 08       		.byte	0x8
 2291 0305 AA       		.byte	0xaa
ARM GAS  C:\Users\Misha\AppData\Local\Temp\ccwkTl6l.s 			page 59


 2292 0306 09       		.uleb128 0x9
 2293 0307 02       		.uleb128 0x2
 2294 0308 7D       		.byte	0x7d
 2295 0309 04       		.sleb128 4
 2296 030a 01       		.uleb128 0x1
 2297 030b 31       		.byte	0x31
 2298 030c 00       		.byte	0
 2299 030d 06       		.uleb128 0x6
 2300 030e FA010000 		.4byte	.LVL69
 2301 0312 3C190000 		.4byte	0x193c
 2302 0316 0F       		.uleb128 0xf
 2303 0317 00020000 		.4byte	.LVL70
 2304 031b 89190000 		.4byte	0x1989
 2305 031f 29030000 		.4byte	0x329
 2306 0323 09       		.uleb128 0x9
 2307 0324 01       		.uleb128 0x1
 2308 0325 50       		.byte	0x50
 2309 0326 01       		.uleb128 0x1
 2310 0327 32       		.byte	0x32
 2311 0328 00       		.byte	0
 2312 0329 0F       		.uleb128 0xf
 2313 032a 32020000 		.4byte	.LVL71
 2314 032e 89190000 		.4byte	0x1989
 2315 0332 3C030000 		.4byte	0x33c
 2316 0336 09       		.uleb128 0x9
 2317 0337 01       		.uleb128 0x1
 2318 0338 50       		.byte	0x50
 2319 0339 01       		.uleb128 0x1
 2320 033a 32       		.byte	0x32
 2321 033b 00       		.byte	0
 2322 033c 0F       		.uleb128 0xf
 2323 033d 4E020000 		.4byte	.LVL73
 2324 0341 26190000 		.4byte	0x1926
 2325 0345 5F030000 		.4byte	0x35f
 2326 0349 09       		.uleb128 0x9
 2327 034a 01       		.uleb128 0x1
 2328 034b 50       		.byte	0x50
 2329 034c 02       		.uleb128 0x2
 2330 034d 75       		.byte	0x75
 2331 034e 00       		.sleb128 0
 2332 034f 09       		.uleb128 0x9
 2333 0350 01       		.uleb128 0x1
 2334 0351 51       		.byte	0x51
 2335 0352 05       		.uleb128 0x5
 2336 0353 03       		.byte	0x3
 2337 0354 54000000 		.4byte	.LC4
 2338 0358 09       		.uleb128 0x9
 2339 0359 01       		.uleb128 0x1
 2340 035a 52       		.byte	0x52
 2341 035b 02       		.uleb128 0x2
 2342 035c 74       		.byte	0x74
 2343 035d 00       		.sleb128 0
 2344 035e 00       		.byte	0
 2345 035f 0F       		.uleb128 0xf
 2346 0360 54020000 		.4byte	.LVL74
 2347 0364 31190000 		.4byte	0x1931
 2348 0368 73030000 		.4byte	0x373
ARM GAS  C:\Users\Misha\AppData\Local\Temp\ccwkTl6l.s 			page 60


 2349 036c 09       		.uleb128 0x9
 2350 036d 01       		.uleb128 0x1
 2351 036e 50       		.byte	0x50
 2352 036f 02       		.uleb128 0x2
 2353 0370 75       		.byte	0x75
 2354 0371 00       		.sleb128 0
 2355 0372 00       		.byte	0
 2356 0373 0F       		.uleb128 0xf
 2357 0374 68020000 		.4byte	.LVL75
 2358 0378 47190000 		.4byte	0x1947
 2359 037c A4030000 		.4byte	0x3a4
 2360 0380 09       		.uleb128 0x9
 2361 0381 01       		.uleb128 0x1
 2362 0382 50       		.byte	0x50
 2363 0383 02       		.uleb128 0x2
 2364 0384 74       		.byte	0x74
 2365 0385 00       		.sleb128 0
 2366 0386 09       		.uleb128 0x9
 2367 0387 01       		.uleb128 0x1
 2368 0388 51       		.byte	0x51
 2369 0389 01       		.uleb128 0x1
 2370 038a 30       		.byte	0x30
 2371 038b 09       		.uleb128 0x9
 2372 038c 01       		.uleb128 0x1
 2373 038d 52       		.byte	0x52
 2374 038e 01       		.uleb128 0x1
 2375 038f 34       		.byte	0x34
 2376 0390 09       		.uleb128 0x9
 2377 0391 01       		.uleb128 0x1
 2378 0392 53       		.byte	0x53
 2379 0393 01       		.uleb128 0x1
 2380 0394 33       		.byte	0x33
 2381 0395 09       		.uleb128 0x9
 2382 0396 02       		.uleb128 0x2
 2383 0397 7D       		.byte	0x7d
 2384 0398 00       		.sleb128 0
 2385 0399 02       		.uleb128 0x2
 2386 039a 75       		.byte	0x75
 2387 039b 00       		.sleb128 0
 2388 039c 09       		.uleb128 0x9
 2389 039d 02       		.uleb128 0x2
 2390 039e 7D       		.byte	0x7d
 2391 039f 04       		.sleb128 4
 2392 03a0 02       		.uleb128 0x2
 2393 03a1 76       		.byte	0x76
 2394 03a2 00       		.sleb128 0
 2395 03a3 00       		.byte	0
 2396 03a4 0F       		.uleb128 0xf
 2397 03a5 72020000 		.4byte	.LVL76
 2398 03a9 94190000 		.4byte	0x1994
 2399 03ad BE030000 		.4byte	0x3be
 2400 03b1 09       		.uleb128 0x9
 2401 03b2 01       		.uleb128 0x1
 2402 03b3 50       		.byte	0x50
 2403 03b4 01       		.uleb128 0x1
 2404 03b5 32       		.byte	0x32
 2405 03b6 09       		.uleb128 0x9
ARM GAS  C:\Users\Misha\AppData\Local\Temp\ccwkTl6l.s 			page 61


 2406 03b7 01       		.uleb128 0x1
 2407 03b8 51       		.byte	0x51
 2408 03b9 03       		.uleb128 0x3
 2409 03ba 0A       		.byte	0xa
 2410 03bb E803     		.2byte	0x3e8
 2411 03bd 00       		.byte	0
 2412 03be 0F       		.uleb128 0xf
 2413 03bf 7E020000 		.4byte	.LVL77
 2414 03c3 73190000 		.4byte	0x1973
 2415 03c7 DE030000 		.4byte	0x3de
 2416 03cb 09       		.uleb128 0x9
 2417 03cc 01       		.uleb128 0x1
 2418 03cd 50       		.byte	0x50
 2419 03ce 02       		.uleb128 0x2
 2420 03cf 09       		.byte	0x9
 2421 03d0 D3       		.byte	0xd3
 2422 03d1 09       		.uleb128 0x9
 2423 03d2 01       		.uleb128 0x1
 2424 03d3 51       		.byte	0x51
 2425 03d4 02       		.uleb128 0x2
 2426 03d5 75       		.byte	0x75
 2427 03d6 00       		.sleb128 0
 2428 03d7 09       		.uleb128 0x9
 2429 03d8 01       		.uleb128 0x1
 2430 03d9 52       		.byte	0x52
 2431 03da 02       		.uleb128 0x2
 2432 03db 76       		.byte	0x76
 2433 03dc 00       		.sleb128 0
 2434 03dd 00       		.byte	0
 2435 03de 0F       		.uleb128 0xf
 2436 03df 84020000 		.4byte	.LVL78
 2437 03e3 89190000 		.4byte	0x1989
 2438 03e7 F1030000 		.4byte	0x3f1
 2439 03eb 09       		.uleb128 0x9
 2440 03ec 01       		.uleb128 0x1
 2441 03ed 50       		.byte	0x50
 2442 03ee 01       		.uleb128 0x1
 2443 03ef 33       		.byte	0x33
 2444 03f0 00       		.byte	0
 2445 03f1 0F       		.uleb128 0xf
 2446 03f2 8A020000 		.4byte	.LVL79
 2447 03f6 10190000 		.4byte	0x1910
 2448 03fa 05040000 		.4byte	0x405
 2449 03fe 09       		.uleb128 0x9
 2450 03ff 01       		.uleb128 0x1
 2451 0400 50       		.byte	0x50
 2452 0401 02       		.uleb128 0x2
 2453 0402 08       		.byte	0x8
 2454 0403 3C       		.byte	0x3c
 2455 0404 00       		.byte	0
 2456 0405 0F       		.uleb128 0xf
 2457 0406 90020000 		.4byte	.LVL80
 2458 040a 89190000 		.4byte	0x1989
 2459 040e 18040000 		.4byte	0x418
 2460 0412 09       		.uleb128 0x9
 2461 0413 01       		.uleb128 0x1
 2462 0414 50       		.byte	0x50
ARM GAS  C:\Users\Misha\AppData\Local\Temp\ccwkTl6l.s 			page 62


 2463 0415 01       		.uleb128 0x1
 2464 0416 32       		.byte	0x32
 2465 0417 00       		.byte	0
 2466 0418 0F       		.uleb128 0xf
 2467 0419 96020000 		.4byte	.LVL81
 2468 041d 10190000 		.4byte	0x1910
 2469 0421 2C040000 		.4byte	0x42c
 2470 0425 09       		.uleb128 0x9
 2471 0426 01       		.uleb128 0x1
 2472 0427 50       		.byte	0x50
 2473 0428 02       		.uleb128 0x2
 2474 0429 08       		.byte	0x8
 2475 042a 3C       		.byte	0x3c
 2476 042b 00       		.byte	0
 2477 042c 0F       		.uleb128 0xf
 2478 042d 9C020000 		.4byte	.LVL82
 2479 0431 89190000 		.4byte	0x1989
 2480 0435 3F040000 		.4byte	0x43f
 2481 0439 09       		.uleb128 0x9
 2482 043a 01       		.uleb128 0x1
 2483 043b 50       		.byte	0x50
 2484 043c 01       		.uleb128 0x1
 2485 043d 34       		.byte	0x34
 2486 043e 00       		.byte	0
 2487 043f 0F       		.uleb128 0xf
 2488 0440 A2020000 		.4byte	.LVL83
 2489 0444 10190000 		.4byte	0x1910
 2490 0448 53040000 		.4byte	0x453
 2491 044c 09       		.uleb128 0x9
 2492 044d 01       		.uleb128 0x1
 2493 044e 50       		.byte	0x50
 2494 044f 02       		.uleb128 0x2
 2495 0450 08       		.byte	0x8
 2496 0451 3C       		.byte	0x3c
 2497 0452 00       		.byte	0
 2498 0453 0F       		.uleb128 0xf
 2499 0454 A8020000 		.4byte	.LVL84
 2500 0458 89190000 		.4byte	0x1989
 2501 045c 66040000 		.4byte	0x466
 2502 0460 09       		.uleb128 0x9
 2503 0461 01       		.uleb128 0x1
 2504 0462 50       		.byte	0x50
 2505 0463 01       		.uleb128 0x1
 2506 0464 30       		.byte	0x30
 2507 0465 00       		.byte	0
 2508 0466 0F       		.uleb128 0xf
 2509 0467 AE020000 		.4byte	.LVL85
 2510 046b 10190000 		.4byte	0x1910
 2511 046f 7A040000 		.4byte	0x47a
 2512 0473 09       		.uleb128 0x9
 2513 0474 01       		.uleb128 0x1
 2514 0475 50       		.byte	0x50
 2515 0476 02       		.uleb128 0x2
 2516 0477 08       		.byte	0x8
 2517 0478 3C       		.byte	0x3c
 2518 0479 00       		.byte	0
 2519 047a 0F       		.uleb128 0xf
ARM GAS  C:\Users\Misha\AppData\Local\Temp\ccwkTl6l.s 			page 63


 2520 047b B4020000 		.4byte	.LVL86
 2521 047f 89190000 		.4byte	0x1989
 2522 0483 8D040000 		.4byte	0x48d
 2523 0487 09       		.uleb128 0x9
 2524 0488 01       		.uleb128 0x1
 2525 0489 50       		.byte	0x50
 2526 048a 01       		.uleb128 0x1
 2527 048b 34       		.byte	0x34
 2528 048c 00       		.byte	0
 2529 048d 0F       		.uleb128 0xf
 2530 048e BA020000 		.4byte	.LVL87
 2531 0492 10190000 		.4byte	0x1910
 2532 0496 A1040000 		.4byte	0x4a1
 2533 049a 09       		.uleb128 0x9
 2534 049b 01       		.uleb128 0x1
 2535 049c 50       		.byte	0x50
 2536 049d 02       		.uleb128 0x2
 2537 049e 08       		.byte	0x8
 2538 049f 3C       		.byte	0x3c
 2539 04a0 00       		.byte	0
 2540 04a1 0F       		.uleb128 0xf
 2541 04a2 30030000 		.4byte	.LVL88
 2542 04a6 47190000 		.4byte	0x1947
 2543 04aa D2040000 		.4byte	0x4d2
 2544 04ae 09       		.uleb128 0x9
 2545 04af 01       		.uleb128 0x1
 2546 04b0 50       		.byte	0x50
 2547 04b1 02       		.uleb128 0x2
 2548 04b2 74       		.byte	0x74
 2549 04b3 00       		.sleb128 0
 2550 04b4 09       		.uleb128 0x9
 2551 04b5 01       		.uleb128 0x1
 2552 04b6 51       		.byte	0x51
 2553 04b7 01       		.uleb128 0x1
 2554 04b8 30       		.byte	0x30
 2555 04b9 09       		.uleb128 0x9
 2556 04ba 01       		.uleb128 0x1
 2557 04bb 52       		.byte	0x52
 2558 04bc 01       		.uleb128 0x1
 2559 04bd 35       		.byte	0x35
 2560 04be 09       		.uleb128 0x9
 2561 04bf 01       		.uleb128 0x1
 2562 04c0 53       		.byte	0x53
 2563 04c1 01       		.uleb128 0x1
 2564 04c2 33       		.byte	0x33
 2565 04c3 09       		.uleb128 0x9
 2566 04c4 02       		.uleb128 0x2
 2567 04c5 7D       		.byte	0x7d
 2568 04c6 00       		.sleb128 0
 2569 04c7 02       		.uleb128 0x2
 2570 04c8 76       		.byte	0x76
 2571 04c9 00       		.sleb128 0
 2572 04ca 09       		.uleb128 0x9
 2573 04cb 02       		.uleb128 0x2
 2574 04cc 7D       		.byte	0x7d
 2575 04cd 04       		.sleb128 4
 2576 04ce 02       		.uleb128 0x2
ARM GAS  C:\Users\Misha\AppData\Local\Temp\ccwkTl6l.s 			page 64


 2577 04cf 75       		.byte	0x75
 2578 04d0 00       		.sleb128 0
 2579 04d1 00       		.byte	0
 2580 04d2 0F       		.uleb128 0xf
 2581 04d3 3A030000 		.4byte	.LVL89
 2582 04d7 94190000 		.4byte	0x1994
 2583 04db EC040000 		.4byte	0x4ec
 2584 04df 09       		.uleb128 0x9
 2585 04e0 01       		.uleb128 0x1
 2586 04e1 50       		.byte	0x50
 2587 04e2 01       		.uleb128 0x1
 2588 04e3 32       		.byte	0x32
 2589 04e4 09       		.uleb128 0x9
 2590 04e5 01       		.uleb128 0x1
 2591 04e6 51       		.byte	0x51
 2592 04e7 03       		.uleb128 0x3
 2593 04e8 0A       		.byte	0xa
 2594 04e9 E803     		.2byte	0x3e8
 2595 04eb 00       		.byte	0
 2596 04ec 0F       		.uleb128 0xf
 2597 04ed 42030000 		.4byte	.LVL90
 2598 04f1 10190000 		.4byte	0x1910
 2599 04f5 01050000 		.4byte	0x501
 2600 04f9 09       		.uleb128 0x9
 2601 04fa 01       		.uleb128 0x1
 2602 04fb 50       		.byte	0x50
 2603 04fc 03       		.uleb128 0x3
 2604 04fd 0A       		.byte	0xa
 2605 04fe E803     		.2byte	0x3e8
 2606 0500 00       		.byte	0
 2607 0501 0F       		.uleb128 0xf
 2608 0502 48030000 		.4byte	.LVL91
 2609 0506 89190000 		.4byte	0x1989
 2610 050a 14050000 		.4byte	0x514
 2611 050e 09       		.uleb128 0x9
 2612 050f 01       		.uleb128 0x1
 2613 0510 50       		.byte	0x50
 2614 0511 01       		.uleb128 0x1
 2615 0512 30       		.byte	0x30
 2616 0513 00       		.byte	0
 2617 0514 0F       		.uleb128 0xf
 2618 0515 4E030000 		.4byte	.LVL92
 2619 0519 10190000 		.4byte	0x1910
 2620 051d 28050000 		.4byte	0x528
 2621 0521 09       		.uleb128 0x9
 2622 0522 01       		.uleb128 0x1
 2623 0523 50       		.byte	0x50
 2624 0524 02       		.uleb128 0x2
 2625 0525 08       		.byte	0x8
 2626 0526 3C       		.byte	0x3c
 2627 0527 00       		.byte	0
 2628 0528 0F       		.uleb128 0xf
 2629 0529 54030000 		.4byte	.LVL93
 2630 052d 89190000 		.4byte	0x1989
 2631 0531 3C050000 		.4byte	0x53c
 2632 0535 09       		.uleb128 0x9
 2633 0536 01       		.uleb128 0x1
ARM GAS  C:\Users\Misha\AppData\Local\Temp\ccwkTl6l.s 			page 65


 2634 0537 50       		.byte	0x50
 2635 0538 02       		.uleb128 0x2
 2636 0539 75       		.byte	0x75
 2637 053a 00       		.sleb128 0
 2638 053b 00       		.byte	0
 2639 053c 0F       		.uleb128 0xf
 2640 053d 5A030000 		.4byte	.LVL94
 2641 0541 10190000 		.4byte	0x1910
 2642 0545 50050000 		.4byte	0x550
 2643 0549 09       		.uleb128 0x9
 2644 054a 01       		.uleb128 0x1
 2645 054b 50       		.byte	0x50
 2646 054c 02       		.uleb128 0x2
 2647 054d 08       		.byte	0x8
 2648 054e 3C       		.byte	0x3c
 2649 054f 00       		.byte	0
 2650 0550 0F       		.uleb128 0xf
 2651 0551 60030000 		.4byte	.LVL95
 2652 0555 89190000 		.4byte	0x1989
 2653 0559 63050000 		.4byte	0x563
 2654 055d 09       		.uleb128 0x9
 2655 055e 01       		.uleb128 0x1
 2656 055f 50       		.byte	0x50
 2657 0560 01       		.uleb128 0x1
 2658 0561 32       		.byte	0x32
 2659 0562 00       		.byte	0
 2660 0563 0F       		.uleb128 0xf
 2661 0564 66030000 		.4byte	.LVL96
 2662 0568 10190000 		.4byte	0x1910
 2663 056c 77050000 		.4byte	0x577
 2664 0570 09       		.uleb128 0x9
 2665 0571 01       		.uleb128 0x1
 2666 0572 50       		.byte	0x50
 2667 0573 02       		.uleb128 0x2
 2668 0574 08       		.byte	0x8
 2669 0575 3C       		.byte	0x3c
 2670 0576 00       		.byte	0
 2671 0577 0F       		.uleb128 0xf
 2672 0578 84030000 		.4byte	.LVL97
 2673 057c 10190000 		.4byte	0x1910
 2674 0580 8C050000 		.4byte	0x58c
 2675 0584 09       		.uleb128 0x9
 2676 0585 01       		.uleb128 0x1
 2677 0586 50       		.byte	0x50
 2678 0587 03       		.uleb128 0x3
 2679 0588 0A       		.byte	0xa
 2680 0589 E803     		.2byte	0x3e8
 2681 058b 00       		.byte	0
 2682 058c 0F       		.uleb128 0xf
 2683 058d 8C030000 		.4byte	.LVL98
 2684 0591 9F190000 		.4byte	0x199f
 2685 0595 A6050000 		.4byte	0x5a6
 2686 0599 09       		.uleb128 0x9
 2687 059a 01       		.uleb128 0x1
 2688 059b 50       		.byte	0x50
 2689 059c 02       		.uleb128 0x2
 2690 059d 75       		.byte	0x75
ARM GAS  C:\Users\Misha\AppData\Local\Temp\ccwkTl6l.s 			page 66


 2691 059e 00       		.sleb128 0
 2692 059f 09       		.uleb128 0x9
 2693 05a0 01       		.uleb128 0x1
 2694 05a1 51       		.byte	0x51
 2695 05a2 02       		.uleb128 0x2
 2696 05a3 76       		.byte	0x76
 2697 05a4 00       		.sleb128 0
 2698 05a5 00       		.byte	0
 2699 05a6 0F       		.uleb128 0xf
 2700 05a7 9C030000 		.4byte	.LVL99
 2701 05ab 47190000 		.4byte	0x1947
 2702 05af D8050000 		.4byte	0x5d8
 2703 05b3 09       		.uleb128 0x9
 2704 05b4 01       		.uleb128 0x1
 2705 05b5 50       		.byte	0x50
 2706 05b6 02       		.uleb128 0x2
 2707 05b7 08       		.byte	0x8
 2708 05b8 96       		.byte	0x96
 2709 05b9 09       		.uleb128 0x9
 2710 05ba 01       		.uleb128 0x1
 2711 05bb 51       		.byte	0x51
 2712 05bc 02       		.uleb128 0x2
 2713 05bd 75       		.byte	0x75
 2714 05be 00       		.sleb128 0
 2715 05bf 09       		.uleb128 0x9
 2716 05c0 01       		.uleb128 0x1
 2717 05c1 52       		.byte	0x52
 2718 05c2 01       		.uleb128 0x1
 2719 05c3 34       		.byte	0x34
 2720 05c4 09       		.uleb128 0x9
 2721 05c5 01       		.uleb128 0x1
 2722 05c6 53       		.byte	0x53
 2723 05c7 01       		.uleb128 0x1
 2724 05c8 30       		.byte	0x30
 2725 05c9 09       		.uleb128 0x9
 2726 05ca 02       		.uleb128 0x2
 2727 05cb 7D       		.byte	0x7d
 2728 05cc 00       		.sleb128 0
 2729 05cd 02       		.uleb128 0x2
 2730 05ce 76       		.byte	0x76
 2731 05cf 00       		.sleb128 0
 2732 05d0 09       		.uleb128 0x9
 2733 05d1 02       		.uleb128 0x2
 2734 05d2 7D       		.byte	0x7d
 2735 05d3 04       		.sleb128 4
 2736 05d4 02       		.uleb128 0x2
 2737 05d5 75       		.byte	0x75
 2738 05d6 00       		.sleb128 0
 2739 05d7 00       		.byte	0
 2740 05d8 06       		.uleb128 0x6
 2741 05d9 A0030000 		.4byte	.LVL100
 2742 05dd 3C190000 		.4byte	0x193c
 2743 05e1 00       		.byte	0
 2744 05e2 0C       		.uleb128 0xc
 2745 05e3 1C050000 		.4byte	.LBB8
 2746 05e7 B8000000 		.4byte	.LBE8-.LBB8
 2747 05eb 4B070000 		.4byte	0x74b
ARM GAS  C:\Users\Misha\AppData\Local\Temp\ccwkTl6l.s 			page 67


 2748 05ef 0D       		.uleb128 0xd
 2749 05f0 D5010000 		.4byte	.LASF22
 2750 05f4 01       		.byte	0x1
 2751 05f5 6A02     		.2byte	0x26a
 2752 05f7 68000000 		.4byte	0x68
 2753 05fb A5000000 		.4byte	.LLST6
 2754 05ff 0D       		.uleb128 0xd
 2755 0600 2F060000 		.4byte	.LASF23
 2756 0604 01       		.byte	0x1
 2757 0605 6B02     		.2byte	0x26b
 2758 0607 68000000 		.4byte	0x68
 2759 060b C4000000 		.4byte	.LLST7
 2760 060f 0F       		.uleb128 0xf
 2761 0610 4A050000 		.4byte	.LVL132
 2762 0614 73190000 		.4byte	0x1973
 2763 0618 2E060000 		.4byte	0x62e
 2764 061c 09       		.uleb128 0x9
 2765 061d 01       		.uleb128 0x1
 2766 061e 50       		.byte	0x50
 2767 061f 02       		.uleb128 0x2
 2768 0620 08       		.byte	0x8
 2769 0621 32       		.byte	0x32
 2770 0622 09       		.uleb128 0x9
 2771 0623 01       		.uleb128 0x1
 2772 0624 51       		.byte	0x51
 2773 0625 02       		.uleb128 0x2
 2774 0626 08       		.byte	0x8
 2775 0627 46       		.byte	0x46
 2776 0628 09       		.uleb128 0x9
 2777 0629 01       		.uleb128 0x1
 2778 062a 52       		.byte	0x52
 2779 062b 01       		.uleb128 0x1
 2780 062c 31       		.byte	0x31
 2781 062d 00       		.byte	0
 2782 062e 0F       		.uleb128 0xf
 2783 062f 52050000 		.4byte	.LVL133
 2784 0633 AA190000 		.4byte	0x19aa
 2785 0637 46060000 		.4byte	0x646
 2786 063b 09       		.uleb128 0x9
 2787 063c 01       		.uleb128 0x1
 2788 063d 50       		.byte	0x50
 2789 063e 01       		.uleb128 0x1
 2790 063f 31       		.byte	0x31
 2791 0640 09       		.uleb128 0x9
 2792 0641 01       		.uleb128 0x1
 2793 0642 51       		.byte	0x51
 2794 0643 01       		.uleb128 0x1
 2795 0644 32       		.byte	0x32
 2796 0645 00       		.byte	0
 2797 0646 06       		.uleb128 0x6
 2798 0647 56050000 		.4byte	.LVL134
 2799 064b 1B190000 		.4byte	0x191b
 2800 064f 0F       		.uleb128 0xf
 2801 0650 60050000 		.4byte	.LVL137
 2802 0654 AA190000 		.4byte	0x19aa
 2803 0658 67060000 		.4byte	0x667
 2804 065c 09       		.uleb128 0x9
ARM GAS  C:\Users\Misha\AppData\Local\Temp\ccwkTl6l.s 			page 68


 2805 065d 01       		.uleb128 0x1
 2806 065e 50       		.byte	0x50
 2807 065f 01       		.uleb128 0x1
 2808 0660 33       		.byte	0x33
 2809 0661 09       		.uleb128 0x9
 2810 0662 01       		.uleb128 0x1
 2811 0663 51       		.byte	0x51
 2812 0664 01       		.uleb128 0x1
 2813 0665 32       		.byte	0x32
 2814 0666 00       		.byte	0
 2815 0667 0F       		.uleb128 0xf
 2816 0668 6C050000 		.4byte	.LVL138
 2817 066c 73190000 		.4byte	0x1973
 2818 0670 86060000 		.4byte	0x686
 2819 0674 09       		.uleb128 0x9
 2820 0675 01       		.uleb128 0x1
 2821 0676 50       		.byte	0x50
 2822 0677 02       		.uleb128 0x2
 2823 0678 09       		.byte	0x9
 2824 0679 CE       		.byte	0xce
 2825 067a 09       		.uleb128 0x9
 2826 067b 01       		.uleb128 0x1
 2827 067c 51       		.byte	0x51
 2828 067d 02       		.uleb128 0x2
 2829 067e 08       		.byte	0x8
 2830 067f AA       		.byte	0xaa
 2831 0680 09       		.uleb128 0x9
 2832 0681 01       		.uleb128 0x1
 2833 0682 52       		.byte	0x52
 2834 0683 01       		.uleb128 0x1
 2835 0684 31       		.byte	0x31
 2836 0685 00       		.byte	0
 2837 0686 0F       		.uleb128 0xf
 2838 0687 88050000 		.4byte	.LVL139
 2839 068b 68190000 		.4byte	0x1968
 2840 068f A5060000 		.4byte	0x6a5
 2841 0693 09       		.uleb128 0x9
 2842 0694 01       		.uleb128 0x1
 2843 0695 50       		.byte	0x50
 2844 0696 02       		.uleb128 0x2
 2845 0697 08       		.byte	0x8
 2846 0698 2D       		.byte	0x2d
 2847 0699 09       		.uleb128 0x9
 2848 069a 01       		.uleb128 0x1
 2849 069b 51       		.byte	0x51
 2850 069c 02       		.uleb128 0x2
 2851 069d 08       		.byte	0x8
 2852 069e AA       		.byte	0xaa
 2853 069f 09       		.uleb128 0x9
 2854 06a0 01       		.uleb128 0x1
 2855 06a1 52       		.byte	0x52
 2856 06a2 01       		.uleb128 0x1
 2857 06a3 31       		.byte	0x31
 2858 06a4 00       		.byte	0
 2859 06a5 0F       		.uleb128 0xf
 2860 06a6 94050000 		.4byte	.LVL140
 2861 06aa 73190000 		.4byte	0x1973
ARM GAS  C:\Users\Misha\AppData\Local\Temp\ccwkTl6l.s 			page 69


 2862 06ae C4060000 		.4byte	0x6c4
 2863 06b2 09       		.uleb128 0x9
 2864 06b3 01       		.uleb128 0x1
 2865 06b4 50       		.byte	0x50
 2866 06b5 02       		.uleb128 0x2
 2867 06b6 09       		.byte	0x9
 2868 06b7 E2       		.byte	0xe2
 2869 06b8 09       		.uleb128 0x9
 2870 06b9 01       		.uleb128 0x1
 2871 06ba 51       		.byte	0x51
 2872 06bb 02       		.uleb128 0x2
 2873 06bc 08       		.byte	0x8
 2874 06bd AA       		.byte	0xaa
 2875 06be 09       		.uleb128 0x9
 2876 06bf 01       		.uleb128 0x1
 2877 06c0 52       		.byte	0x52
 2878 06c1 01       		.uleb128 0x1
 2879 06c2 31       		.byte	0x31
 2880 06c3 00       		.byte	0
 2881 06c4 0F       		.uleb128 0xf
 2882 06c5 A0050000 		.4byte	.LVL141
 2883 06c9 68190000 		.4byte	0x1968
 2884 06cd E3060000 		.4byte	0x6e3
 2885 06d1 09       		.uleb128 0x9
 2886 06d2 01       		.uleb128 0x1
 2887 06d3 50       		.byte	0x50
 2888 06d4 02       		.uleb128 0x2
 2889 06d5 09       		.byte	0x9
 2890 06d6 E2       		.byte	0xe2
 2891 06d7 09       		.uleb128 0x9
 2892 06d8 01       		.uleb128 0x1
 2893 06d9 51       		.byte	0x51
 2894 06da 02       		.uleb128 0x2
 2895 06db 08       		.byte	0x8
 2896 06dc AA       		.byte	0xaa
 2897 06dd 09       		.uleb128 0x9
 2898 06de 01       		.uleb128 0x1
 2899 06df 52       		.byte	0x52
 2900 06e0 01       		.uleb128 0x1
 2901 06e1 31       		.byte	0x31
 2902 06e2 00       		.byte	0
 2903 06e3 0F       		.uleb128 0xf
 2904 06e4 B0050000 		.4byte	.LVL143
 2905 06e8 AA190000 		.4byte	0x19aa
 2906 06ec FB060000 		.4byte	0x6fb
 2907 06f0 09       		.uleb128 0x9
 2908 06f1 01       		.uleb128 0x1
 2909 06f2 50       		.byte	0x50
 2910 06f3 01       		.uleb128 0x1
 2911 06f4 30       		.byte	0x30
 2912 06f5 09       		.uleb128 0x9
 2913 06f6 01       		.uleb128 0x1
 2914 06f7 51       		.byte	0x51
 2915 06f8 01       		.uleb128 0x1
 2916 06f9 32       		.byte	0x32
 2917 06fa 00       		.byte	0
 2918 06fb 0F       		.uleb128 0xf
ARM GAS  C:\Users\Misha\AppData\Local\Temp\ccwkTl6l.s 			page 70


 2919 06fc B6050000 		.4byte	.LVL144
 2920 0700 B5190000 		.4byte	0x19b5
 2921 0704 0E070000 		.4byte	0x70e
 2922 0708 09       		.uleb128 0x9
 2923 0709 01       		.uleb128 0x1
 2924 070a 50       		.byte	0x50
 2925 070b 01       		.uleb128 0x1
 2926 070c 32       		.byte	0x32
 2927 070d 00       		.byte	0
 2928 070e 06       		.uleb128 0x6
 2929 070f BA050000 		.4byte	.LVL145
 2930 0713 C0190000 		.4byte	0x19c0
 2931 0717 0F       		.uleb128 0xf
 2932 0718 C2050000 		.4byte	.LVL146
 2933 071c AA190000 		.4byte	0x19aa
 2934 0720 2F070000 		.4byte	0x72f
 2935 0724 09       		.uleb128 0x9
 2936 0725 01       		.uleb128 0x1
 2937 0726 50       		.byte	0x50
 2938 0727 01       		.uleb128 0x1
 2939 0728 33       		.byte	0x33
 2940 0729 09       		.uleb128 0x9
 2941 072a 01       		.uleb128 0x1
 2942 072b 51       		.byte	0x51
 2943 072c 01       		.uleb128 0x1
 2944 072d 32       		.byte	0x32
 2945 072e 00       		.byte	0
 2946 072f 08       		.uleb128 0x8
 2947 0730 CE050000 		.4byte	.LVL147
 2948 0734 73190000 		.4byte	0x1973
 2949 0738 09       		.uleb128 0x9
 2950 0739 01       		.uleb128 0x1
 2951 073a 50       		.byte	0x50
 2952 073b 02       		.uleb128 0x2
 2953 073c 09       		.byte	0x9
 2954 073d C4       		.byte	0xc4
 2955 073e 09       		.uleb128 0x9
 2956 073f 01       		.uleb128 0x1
 2957 0740 51       		.byte	0x51
 2958 0741 02       		.uleb128 0x2
 2959 0742 08       		.byte	0x8
 2960 0743 AA       		.byte	0xaa
 2961 0744 09       		.uleb128 0x9
 2962 0745 01       		.uleb128 0x1
 2963 0746 52       		.byte	0x52
 2964 0747 01       		.uleb128 0x1
 2965 0748 31       		.byte	0x31
 2966 0749 00       		.byte	0
 2967 074a 00       		.byte	0
 2968 074b 0C       		.uleb128 0xc
 2969 074c B6070000 		.4byte	.LBB9
 2970 0750 DE010000 		.4byte	.LBE9-.LBB9
 2971 0754 320B0000 		.4byte	0xb32
 2972 0758 0D       		.uleb128 0xd
 2973 0759 18060000 		.4byte	.LASF24
 2974 075d 01       		.byte	0x1
 2975 075e 6203     		.2byte	0x362
ARM GAS  C:\Users\Misha\AppData\Local\Temp\ccwkTl6l.s 			page 71


 2976 0760 68000000 		.4byte	0x68
 2977 0764 E2000000 		.4byte	.LLST8
 2978 0768 0F       		.uleb128 0xf
 2979 0769 BC070000 		.4byte	.LVL188
 2980 076d 5D190000 		.4byte	0x195d
 2981 0771 7B070000 		.4byte	0x77b
 2982 0775 09       		.uleb128 0x9
 2983 0776 01       		.uleb128 0x1
 2984 0777 50       		.byte	0x50
 2985 0778 01       		.uleb128 0x1
 2986 0779 31       		.byte	0x31
 2987 077a 00       		.byte	0
 2988 077b 06       		.uleb128 0x6
 2989 077c C6070000 		.4byte	.LVL189
 2990 0780 CB190000 		.4byte	0x19cb
 2991 0784 06       		.uleb128 0x6
 2992 0785 CA070000 		.4byte	.LVL190
 2993 0789 52190000 		.4byte	0x1952
 2994 078d 0F       		.uleb128 0xf
 2995 078e D2070000 		.4byte	.LVL191
 2996 0792 10190000 		.4byte	0x1910
 2997 0796 A2070000 		.4byte	0x7a2
 2998 079a 09       		.uleb128 0x9
 2999 079b 01       		.uleb128 0x1
 3000 079c 50       		.byte	0x50
 3001 079d 03       		.uleb128 0x3
 3002 079e 0A       		.byte	0xa
 3003 079f D007     		.2byte	0x7d0
 3004 07a1 00       		.byte	0
 3005 07a2 06       		.uleb128 0x6
 3006 07a3 D6070000 		.4byte	.LVL192
 3007 07a7 C0190000 		.4byte	0x19c0
 3008 07ab 06       		.uleb128 0x6
 3009 07ac DA070000 		.4byte	.LVL193
 3010 07b0 1B190000 		.4byte	0x191b
 3011 07b4 0F       		.uleb128 0xf
 3012 07b5 00080000 		.4byte	.LVL195
 3013 07b9 47190000 		.4byte	0x1947
 3014 07bd E6070000 		.4byte	0x7e6
 3015 07c1 09       		.uleb128 0x9
 3016 07c2 01       		.uleb128 0x1
 3017 07c3 50       		.byte	0x50
 3018 07c4 03       		.uleb128 0x3
 3019 07c5 0A       		.byte	0xa
 3020 07c6 2602     		.2byte	0x226
 3021 07c8 09       		.uleb128 0x9
 3022 07c9 01       		.uleb128 0x1
 3023 07ca 51       		.byte	0x51
 3024 07cb 01       		.uleb128 0x1
 3025 07cc 30       		.byte	0x30
 3026 07cd 09       		.uleb128 0x9
 3027 07ce 01       		.uleb128 0x1
 3028 07cf 52       		.byte	0x52
 3029 07d0 01       		.uleb128 0x1
 3030 07d1 35       		.byte	0x35
 3031 07d2 09       		.uleb128 0x9
 3032 07d3 01       		.uleb128 0x1
ARM GAS  C:\Users\Misha\AppData\Local\Temp\ccwkTl6l.s 			page 72


 3033 07d4 53       		.byte	0x53
 3034 07d5 01       		.uleb128 0x1
 3035 07d6 30       		.byte	0x30
 3036 07d7 09       		.uleb128 0x9
 3037 07d8 02       		.uleb128 0x2
 3038 07d9 7D       		.byte	0x7d
 3039 07da 00       		.sleb128 0
 3040 07db 02       		.uleb128 0x2
 3041 07dc 76       		.byte	0x76
 3042 07dd 00       		.sleb128 0
 3043 07de 09       		.uleb128 0x9
 3044 07df 02       		.uleb128 0x2
 3045 07e0 7D       		.byte	0x7d
 3046 07e1 04       		.sleb128 4
 3047 07e2 02       		.uleb128 0x2
 3048 07e3 74       		.byte	0x74
 3049 07e4 00       		.sleb128 0
 3050 07e5 00       		.byte	0
 3051 07e6 0F       		.uleb128 0xf
 3052 07e7 08080000 		.4byte	.LVL196
 3053 07eb 9F190000 		.4byte	0x199f
 3054 07ef FF070000 		.4byte	0x7ff
 3055 07f3 09       		.uleb128 0x9
 3056 07f4 01       		.uleb128 0x1
 3057 07f5 50       		.byte	0x50
 3058 07f6 01       		.uleb128 0x1
 3059 07f7 33       		.byte	0x33
 3060 07f8 09       		.uleb128 0x9
 3061 07f9 01       		.uleb128 0x1
 3062 07fa 51       		.byte	0x51
 3063 07fb 02       		.uleb128 0x2
 3064 07fc 76       		.byte	0x76
 3065 07fd 00       		.sleb128 0
 3066 07fe 00       		.byte	0
 3067 07ff 0F       		.uleb128 0xf
 3068 0800 18080000 		.4byte	.LVL197
 3069 0804 47190000 		.4byte	0x1947
 3070 0808 31080000 		.4byte	0x831
 3071 080c 09       		.uleb128 0x9
 3072 080d 01       		.uleb128 0x1
 3073 080e 50       		.byte	0x50
 3074 080f 02       		.uleb128 0x2
 3075 0810 08       		.byte	0x8
 3076 0811 FA       		.byte	0xfa
 3077 0812 09       		.uleb128 0x9
 3078 0813 01       		.uleb128 0x1
 3079 0814 51       		.byte	0x51
 3080 0815 02       		.uleb128 0x2
 3081 0816 74       		.byte	0x74
 3082 0817 00       		.sleb128 0
 3083 0818 09       		.uleb128 0x9
 3084 0819 01       		.uleb128 0x1
 3085 081a 52       		.byte	0x52
 3086 081b 01       		.uleb128 0x1
 3087 081c 34       		.byte	0x34
 3088 081d 09       		.uleb128 0x9
 3089 081e 01       		.uleb128 0x1
ARM GAS  C:\Users\Misha\AppData\Local\Temp\ccwkTl6l.s 			page 73


 3090 081f 53       		.byte	0x53
 3091 0820 01       		.uleb128 0x1
 3092 0821 30       		.byte	0x30
 3093 0822 09       		.uleb128 0x9
 3094 0823 02       		.uleb128 0x2
 3095 0824 7D       		.byte	0x7d
 3096 0825 00       		.sleb128 0
 3097 0826 02       		.uleb128 0x2
 3098 0827 76       		.byte	0x76
 3099 0828 00       		.sleb128 0
 3100 0829 09       		.uleb128 0x9
 3101 082a 02       		.uleb128 0x2
 3102 082b 7D       		.byte	0x7d
 3103 082c 04       		.sleb128 4
 3104 082d 02       		.uleb128 0x2
 3105 082e 74       		.byte	0x74
 3106 082f 00       		.sleb128 0
 3107 0830 00       		.byte	0
 3108 0831 06       		.uleb128 0x6
 3109 0832 1C080000 		.4byte	.LVL198
 3110 0836 3C190000 		.4byte	0x193c
 3111 083a 0F       		.uleb128 0xf
 3112 083b 2C080000 		.4byte	.LVL199
 3113 083f 47190000 		.4byte	0x1947
 3114 0843 6C080000 		.4byte	0x86c
 3115 0847 09       		.uleb128 0x9
 3116 0848 01       		.uleb128 0x1
 3117 0849 50       		.byte	0x50
 3118 084a 02       		.uleb128 0x2
 3119 084b 08       		.byte	0x8
 3120 084c FA       		.byte	0xfa
 3121 084d 09       		.uleb128 0x9
 3122 084e 01       		.uleb128 0x1
 3123 084f 51       		.byte	0x51
 3124 0850 02       		.uleb128 0x2
 3125 0851 74       		.byte	0x74
 3126 0852 00       		.sleb128 0
 3127 0853 09       		.uleb128 0x9
 3128 0854 01       		.uleb128 0x1
 3129 0855 52       		.byte	0x52
 3130 0856 01       		.uleb128 0x1
 3131 0857 34       		.byte	0x34
 3132 0858 09       		.uleb128 0x9
 3133 0859 01       		.uleb128 0x1
 3134 085a 53       		.byte	0x53
 3135 085b 01       		.uleb128 0x1
 3136 085c 30       		.byte	0x30
 3137 085d 09       		.uleb128 0x9
 3138 085e 02       		.uleb128 0x2
 3139 085f 7D       		.byte	0x7d
 3140 0860 00       		.sleb128 0
 3141 0861 02       		.uleb128 0x2
 3142 0862 76       		.byte	0x76
 3143 0863 00       		.sleb128 0
 3144 0864 09       		.uleb128 0x9
 3145 0865 02       		.uleb128 0x2
 3146 0866 7D       		.byte	0x7d
ARM GAS  C:\Users\Misha\AppData\Local\Temp\ccwkTl6l.s 			page 74


 3147 0867 04       		.sleb128 4
 3148 0868 02       		.uleb128 0x2
 3149 0869 74       		.byte	0x74
 3150 086a 00       		.sleb128 0
 3151 086b 00       		.byte	0
 3152 086c 06       		.uleb128 0x6
 3153 086d 30080000 		.4byte	.LVL200
 3154 0871 3C190000 		.4byte	0x193c
 3155 0875 0F       		.uleb128 0xf
 3156 0876 58080000 		.4byte	.LVL201
 3157 087a 47190000 		.4byte	0x1947
 3158 087e A6080000 		.4byte	0x8a6
 3159 0882 09       		.uleb128 0x9
 3160 0883 01       		.uleb128 0x1
 3161 0884 50       		.byte	0x50
 3162 0885 03       		.uleb128 0x3
 3163 0886 0A       		.byte	0xa
 3164 0887 0D02     		.2byte	0x20d
 3165 0889 09       		.uleb128 0x9
 3166 088a 01       		.uleb128 0x1
 3167 088b 51       		.byte	0x51
 3168 088c 01       		.uleb128 0x1
 3169 088d 30       		.byte	0x30
 3170 088e 09       		.uleb128 0x9
 3171 088f 01       		.uleb128 0x1
 3172 0890 52       		.byte	0x52
 3173 0891 01       		.uleb128 0x1
 3174 0892 35       		.byte	0x35
 3175 0893 09       		.uleb128 0x9
 3176 0894 01       		.uleb128 0x1
 3177 0895 53       		.byte	0x53
 3178 0896 01       		.uleb128 0x1
 3179 0897 30       		.byte	0x30
 3180 0898 09       		.uleb128 0x9
 3181 0899 02       		.uleb128 0x2
 3182 089a 7D       		.byte	0x7d
 3183 089b 00       		.sleb128 0
 3184 089c 02       		.uleb128 0x2
 3185 089d 08       		.byte	0x8
 3186 089e AA       		.byte	0xaa
 3187 089f 09       		.uleb128 0x9
 3188 08a0 02       		.uleb128 0x2
 3189 08a1 7D       		.byte	0x7d
 3190 08a2 04       		.sleb128 4
 3191 08a3 01       		.uleb128 0x1
 3192 08a4 31       		.byte	0x31
 3193 08a5 00       		.byte	0
 3194 08a6 06       		.uleb128 0x6
 3195 08a7 5C080000 		.4byte	.LVL202
 3196 08ab 3C190000 		.4byte	0x193c
 3197 08af 0F       		.uleb128 0xf
 3198 08b0 7C080000 		.4byte	.LVL203
 3199 08b4 47190000 		.4byte	0x1947
 3200 08b8 DF080000 		.4byte	0x8df
 3201 08bc 09       		.uleb128 0x9
 3202 08bd 01       		.uleb128 0x1
 3203 08be 50       		.byte	0x50
ARM GAS  C:\Users\Misha\AppData\Local\Temp\ccwkTl6l.s 			page 75


 3204 08bf 02       		.uleb128 0x2
 3205 08c0 08       		.byte	0x8
 3206 08c1 FA       		.byte	0xfa
 3207 08c2 09       		.uleb128 0x9
 3208 08c3 01       		.uleb128 0x1
 3209 08c4 51       		.byte	0x51
 3210 08c5 01       		.uleb128 0x1
 3211 08c6 30       		.byte	0x30
 3212 08c7 09       		.uleb128 0x9
 3213 08c8 01       		.uleb128 0x1
 3214 08c9 52       		.byte	0x52
 3215 08ca 01       		.uleb128 0x1
 3216 08cb 35       		.byte	0x35
 3217 08cc 09       		.uleb128 0x9
 3218 08cd 01       		.uleb128 0x1
 3219 08ce 53       		.byte	0x53
 3220 08cf 01       		.uleb128 0x1
 3221 08d0 30       		.byte	0x30
 3222 08d1 09       		.uleb128 0x9
 3223 08d2 02       		.uleb128 0x2
 3224 08d3 7D       		.byte	0x7d
 3225 08d4 00       		.sleb128 0
 3226 08d5 02       		.uleb128 0x2
 3227 08d6 08       		.byte	0x8
 3228 08d7 AA       		.byte	0xaa
 3229 08d8 09       		.uleb128 0x9
 3230 08d9 02       		.uleb128 0x2
 3231 08da 7D       		.byte	0x7d
 3232 08db 04       		.sleb128 4
 3233 08dc 01       		.uleb128 0x1
 3234 08dd 31       		.byte	0x31
 3235 08de 00       		.byte	0
 3236 08df 0F       		.uleb128 0xf
 3237 08e0 84080000 		.4byte	.LVL204
 3238 08e4 9F190000 		.4byte	0x199f
 3239 08e8 F8080000 		.4byte	0x8f8
 3240 08ec 09       		.uleb128 0x9
 3241 08ed 01       		.uleb128 0x1
 3242 08ee 50       		.byte	0x50
 3243 08ef 01       		.uleb128 0x1
 3244 08f0 32       		.byte	0x32
 3245 08f1 09       		.uleb128 0x9
 3246 08f2 01       		.uleb128 0x1
 3247 08f3 51       		.byte	0x51
 3248 08f4 02       		.uleb128 0x2
 3249 08f5 08       		.byte	0x8
 3250 08f6 AA       		.byte	0xaa
 3251 08f7 00       		.byte	0
 3252 08f8 0F       		.uleb128 0xf
 3253 08f9 90080000 		.4byte	.LVL205
 3254 08fd AA190000 		.4byte	0x19aa
 3255 0901 0B090000 		.4byte	0x90b
 3256 0905 09       		.uleb128 0x9
 3257 0906 01       		.uleb128 0x1
 3258 0907 51       		.byte	0x51
 3259 0908 01       		.uleb128 0x1
 3260 0909 32       		.byte	0x32
ARM GAS  C:\Users\Misha\AppData\Local\Temp\ccwkTl6l.s 			page 76


 3261 090a 00       		.byte	0
 3262 090b 0F       		.uleb128 0xf
 3263 090c A2080000 		.4byte	.LVL206
 3264 0910 47190000 		.4byte	0x1947
 3265 0914 3B090000 		.4byte	0x93b
 3266 0918 09       		.uleb128 0x9
 3267 0919 01       		.uleb128 0x1
 3268 091a 50       		.byte	0x50
 3269 091b 02       		.uleb128 0x2
 3270 091c 08       		.byte	0x8
 3271 091d 8C       		.byte	0x8c
 3272 091e 09       		.uleb128 0x9
 3273 091f 01       		.uleb128 0x1
 3274 0920 51       		.byte	0x51
 3275 0921 01       		.uleb128 0x1
 3276 0922 31       		.byte	0x31
 3277 0923 09       		.uleb128 0x9
 3278 0924 01       		.uleb128 0x1
 3279 0925 52       		.byte	0x52
 3280 0926 01       		.uleb128 0x1
 3281 0927 34       		.byte	0x34
 3282 0928 09       		.uleb128 0x9
 3283 0929 01       		.uleb128 0x1
 3284 092a 53       		.byte	0x53
 3285 092b 01       		.uleb128 0x1
 3286 092c 30       		.byte	0x30
 3287 092d 09       		.uleb128 0x9
 3288 092e 02       		.uleb128 0x2
 3289 092f 7D       		.byte	0x7d
 3290 0930 00       		.sleb128 0
 3291 0931 02       		.uleb128 0x2
 3292 0932 08       		.byte	0x8
 3293 0933 AA       		.byte	0xaa
 3294 0934 09       		.uleb128 0x9
 3295 0935 02       		.uleb128 0x2
 3296 0936 7D       		.byte	0x7d
 3297 0937 04       		.sleb128 4
 3298 0938 01       		.uleb128 0x1
 3299 0939 31       		.byte	0x31
 3300 093a 00       		.byte	0
 3301 093b 0F       		.uleb128 0xf
 3302 093c B8080000 		.4byte	.LVL207
 3303 0940 47190000 		.4byte	0x1947
 3304 0944 6B090000 		.4byte	0x96b
 3305 0948 09       		.uleb128 0x9
 3306 0949 01       		.uleb128 0x1
 3307 094a 50       		.byte	0x50
 3308 094b 02       		.uleb128 0x2
 3309 094c 08       		.byte	0x8
 3310 094d 8C       		.byte	0x8c
 3311 094e 09       		.uleb128 0x9
 3312 094f 01       		.uleb128 0x1
 3313 0950 51       		.byte	0x51
 3314 0951 01       		.uleb128 0x1
 3315 0952 31       		.byte	0x31
 3316 0953 09       		.uleb128 0x9
 3317 0954 01       		.uleb128 0x1
ARM GAS  C:\Users\Misha\AppData\Local\Temp\ccwkTl6l.s 			page 77


 3318 0955 52       		.byte	0x52
 3319 0956 01       		.uleb128 0x1
 3320 0957 34       		.byte	0x34
 3321 0958 09       		.uleb128 0x9
 3322 0959 01       		.uleb128 0x1
 3323 095a 53       		.byte	0x53
 3324 095b 01       		.uleb128 0x1
 3325 095c 30       		.byte	0x30
 3326 095d 09       		.uleb128 0x9
 3327 095e 02       		.uleb128 0x2
 3328 095f 7D       		.byte	0x7d
 3329 0960 00       		.sleb128 0
 3330 0961 02       		.uleb128 0x2
 3331 0962 08       		.byte	0x8
 3332 0963 AA       		.byte	0xaa
 3333 0964 09       		.uleb128 0x9
 3334 0965 02       		.uleb128 0x2
 3335 0966 7D       		.byte	0x7d
 3336 0967 04       		.sleb128 4
 3337 0968 01       		.uleb128 0x1
 3338 0969 31       		.byte	0x31
 3339 096a 00       		.byte	0
 3340 096b 0F       		.uleb128 0xf
 3341 096c CC080000 		.4byte	.LVL208
 3342 0970 47190000 		.4byte	0x1947
 3343 0974 9B090000 		.4byte	0x99b
 3344 0978 09       		.uleb128 0x9
 3345 0979 01       		.uleb128 0x1
 3346 097a 50       		.byte	0x50
 3347 097b 02       		.uleb128 0x2
 3348 097c 08       		.byte	0x8
 3349 097d 5A       		.byte	0x5a
 3350 097e 09       		.uleb128 0x9
 3351 097f 01       		.uleb128 0x1
 3352 0980 51       		.byte	0x51
 3353 0981 01       		.uleb128 0x1
 3354 0982 31       		.byte	0x31
 3355 0983 09       		.uleb128 0x9
 3356 0984 01       		.uleb128 0x1
 3357 0985 52       		.byte	0x52
 3358 0986 01       		.uleb128 0x1
 3359 0987 34       		.byte	0x34
 3360 0988 09       		.uleb128 0x9
 3361 0989 01       		.uleb128 0x1
 3362 098a 53       		.byte	0x53
 3363 098b 01       		.uleb128 0x1
 3364 098c 30       		.byte	0x30
 3365 098d 09       		.uleb128 0x9
 3366 098e 02       		.uleb128 0x2
 3367 098f 7D       		.byte	0x7d
 3368 0990 00       		.sleb128 0
 3369 0991 02       		.uleb128 0x2
 3370 0992 08       		.byte	0x8
 3371 0993 AA       		.byte	0xaa
 3372 0994 09       		.uleb128 0x9
 3373 0995 02       		.uleb128 0x2
 3374 0996 7D       		.byte	0x7d
ARM GAS  C:\Users\Misha\AppData\Local\Temp\ccwkTl6l.s 			page 78


 3375 0997 04       		.sleb128 4
 3376 0998 01       		.uleb128 0x1
 3377 0999 30       		.byte	0x30
 3378 099a 00       		.byte	0
 3379 099b 0F       		.uleb128 0xf
 3380 099c E0080000 		.4byte	.LVL209
 3381 09a0 AA190000 		.4byte	0x19aa
 3382 09a4 AE090000 		.4byte	0x9ae
 3383 09a8 09       		.uleb128 0x9
 3384 09a9 01       		.uleb128 0x1
 3385 09aa 51       		.byte	0x51
 3386 09ab 01       		.uleb128 0x1
 3387 09ac 32       		.byte	0x32
 3388 09ad 00       		.byte	0
 3389 09ae 0F       		.uleb128 0xf
 3390 09af EA080000 		.4byte	.LVL210
 3391 09b3 AA190000 		.4byte	0x19aa
 3392 09b7 C6090000 		.4byte	0x9c6
 3393 09bb 09       		.uleb128 0x9
 3394 09bc 01       		.uleb128 0x1
 3395 09bd 50       		.byte	0x50
 3396 09be 01       		.uleb128 0x1
 3397 09bf 30       		.byte	0x30
 3398 09c0 09       		.uleb128 0x9
 3399 09c1 01       		.uleb128 0x1
 3400 09c2 51       		.byte	0x51
 3401 09c3 01       		.uleb128 0x1
 3402 09c4 32       		.byte	0x32
 3403 09c5 00       		.byte	0
 3404 09c6 06       		.uleb128 0x6
 3405 09c7 EE080000 		.4byte	.LVL211
 3406 09cb CB190000 		.4byte	0x19cb
 3407 09cf 0F       		.uleb128 0xf
 3408 09d0 FA080000 		.4byte	.LVL212
 3409 09d4 AA190000 		.4byte	0x19aa
 3410 09d8 E2090000 		.4byte	0x9e2
 3411 09dc 09       		.uleb128 0x9
 3412 09dd 01       		.uleb128 0x1
 3413 09de 51       		.byte	0x51
 3414 09df 01       		.uleb128 0x1
 3415 09e0 32       		.byte	0x32
 3416 09e1 00       		.byte	0
 3417 09e2 0F       		.uleb128 0xf
 3418 09e3 2C090000 		.4byte	.LVL214
 3419 09e7 47190000 		.4byte	0x1947
 3420 09eb 130A0000 		.4byte	0xa13
 3421 09ef 09       		.uleb128 0x9
 3422 09f0 01       		.uleb128 0x1
 3423 09f1 50       		.byte	0x50
 3424 09f2 02       		.uleb128 0x2
 3425 09f3 08       		.byte	0x8
 3426 09f4 D2       		.byte	0xd2
 3427 09f5 09       		.uleb128 0x9
 3428 09f6 01       		.uleb128 0x1
 3429 09f7 51       		.byte	0x51
 3430 09f8 01       		.uleb128 0x1
 3431 09f9 30       		.byte	0x30
ARM GAS  C:\Users\Misha\AppData\Local\Temp\ccwkTl6l.s 			page 79


 3432 09fa 09       		.uleb128 0x9
 3433 09fb 01       		.uleb128 0x1
 3434 09fc 52       		.byte	0x52
 3435 09fd 01       		.uleb128 0x1
 3436 09fe 35       		.byte	0x35
 3437 09ff 09       		.uleb128 0x9
 3438 0a00 01       		.uleb128 0x1
 3439 0a01 53       		.byte	0x53
 3440 0a02 01       		.uleb128 0x1
 3441 0a03 30       		.byte	0x30
 3442 0a04 09       		.uleb128 0x9
 3443 0a05 02       		.uleb128 0x2
 3444 0a06 7D       		.byte	0x7d
 3445 0a07 00       		.sleb128 0
 3446 0a08 02       		.uleb128 0x2
 3447 0a09 75       		.byte	0x75
 3448 0a0a 00       		.sleb128 0
 3449 0a0b 09       		.uleb128 0x9
 3450 0a0c 02       		.uleb128 0x2
 3451 0a0d 7D       		.byte	0x7d
 3452 0a0e 04       		.sleb128 4
 3453 0a0f 02       		.uleb128 0x2
 3454 0a10 74       		.byte	0x74
 3455 0a11 00       		.sleb128 0
 3456 0a12 00       		.byte	0
 3457 0a13 0F       		.uleb128 0xf
 3458 0a14 34090000 		.4byte	.LVL215
 3459 0a18 9F190000 		.4byte	0x199f
 3460 0a1c 2C0A0000 		.4byte	0xa2c
 3461 0a20 09       		.uleb128 0x9
 3462 0a21 01       		.uleb128 0x1
 3463 0a22 50       		.byte	0x50
 3464 0a23 01       		.uleb128 0x1
 3465 0a24 33       		.byte	0x33
 3466 0a25 09       		.uleb128 0x9
 3467 0a26 01       		.uleb128 0x1
 3468 0a27 51       		.byte	0x51
 3469 0a28 02       		.uleb128 0x2
 3470 0a29 75       		.byte	0x75
 3471 0a2a 00       		.sleb128 0
 3472 0a2b 00       		.byte	0
 3473 0a2c 0F       		.uleb128 0xf
 3474 0a2d 46090000 		.4byte	.LVL216
 3475 0a31 47190000 		.4byte	0x1947
 3476 0a35 5E0A0000 		.4byte	0xa5e
 3477 0a39 09       		.uleb128 0x9
 3478 0a3a 01       		.uleb128 0x1
 3479 0a3b 50       		.byte	0x50
 3480 0a3c 03       		.uleb128 0x3
 3481 0a3d 0A       		.byte	0xa
 3482 0a3e 2602     		.2byte	0x226
 3483 0a40 09       		.uleb128 0x9
 3484 0a41 01       		.uleb128 0x1
 3485 0a42 51       		.byte	0x51
 3486 0a43 01       		.uleb128 0x1
 3487 0a44 30       		.byte	0x30
 3488 0a45 09       		.uleb128 0x9
ARM GAS  C:\Users\Misha\AppData\Local\Temp\ccwkTl6l.s 			page 80


 3489 0a46 01       		.uleb128 0x1
 3490 0a47 52       		.byte	0x52
 3491 0a48 01       		.uleb128 0x1
 3492 0a49 35       		.byte	0x35
 3493 0a4a 09       		.uleb128 0x9
 3494 0a4b 01       		.uleb128 0x1
 3495 0a4c 53       		.byte	0x53
 3496 0a4d 01       		.uleb128 0x1
 3497 0a4e 30       		.byte	0x30
 3498 0a4f 09       		.uleb128 0x9
 3499 0a50 02       		.uleb128 0x2
 3500 0a51 7D       		.byte	0x7d
 3501 0a52 00       		.sleb128 0
 3502 0a53 02       		.uleb128 0x2
 3503 0a54 75       		.byte	0x75
 3504 0a55 00       		.sleb128 0
 3505 0a56 09       		.uleb128 0x9
 3506 0a57 02       		.uleb128 0x2
 3507 0a58 7D       		.byte	0x7d
 3508 0a59 04       		.sleb128 4
 3509 0a5a 02       		.uleb128 0x2
 3510 0a5b 74       		.byte	0x74
 3511 0a5c 00       		.sleb128 0
 3512 0a5d 00       		.byte	0
 3513 0a5e 06       		.uleb128 0x6
 3514 0a5f 4A090000 		.4byte	.LVL217
 3515 0a63 3C190000 		.4byte	0x193c
 3516 0a67 0F       		.uleb128 0xf
 3517 0a68 5C090000 		.4byte	.LVL218
 3518 0a6c 47190000 		.4byte	0x1947
 3519 0a70 990A0000 		.4byte	0xa99
 3520 0a74 09       		.uleb128 0x9
 3521 0a75 01       		.uleb128 0x1
 3522 0a76 50       		.byte	0x50
 3523 0a77 03       		.uleb128 0x3
 3524 0a78 0A       		.byte	0xa
 3525 0a79 2602     		.2byte	0x226
 3526 0a7b 09       		.uleb128 0x9
 3527 0a7c 01       		.uleb128 0x1
 3528 0a7d 51       		.byte	0x51
 3529 0a7e 01       		.uleb128 0x1
 3530 0a7f 30       		.byte	0x30
 3531 0a80 09       		.uleb128 0x9
 3532 0a81 01       		.uleb128 0x1
 3533 0a82 52       		.byte	0x52
 3534 0a83 01       		.uleb128 0x1
 3535 0a84 35       		.byte	0x35
 3536 0a85 09       		.uleb128 0x9
 3537 0a86 01       		.uleb128 0x1
 3538 0a87 53       		.byte	0x53
 3539 0a88 01       		.uleb128 0x1
 3540 0a89 30       		.byte	0x30
 3541 0a8a 09       		.uleb128 0x9
 3542 0a8b 02       		.uleb128 0x2
 3543 0a8c 7D       		.byte	0x7d
 3544 0a8d 00       		.sleb128 0
 3545 0a8e 02       		.uleb128 0x2
ARM GAS  C:\Users\Misha\AppData\Local\Temp\ccwkTl6l.s 			page 81


 3546 0a8f 75       		.byte	0x75
 3547 0a90 00       		.sleb128 0
 3548 0a91 09       		.uleb128 0x9
 3549 0a92 02       		.uleb128 0x2
 3550 0a93 7D       		.byte	0x7d
 3551 0a94 04       		.sleb128 4
 3552 0a95 02       		.uleb128 0x2
 3553 0a96 74       		.byte	0x74
 3554 0a97 00       		.sleb128 0
 3555 0a98 00       		.byte	0
 3556 0a99 06       		.uleb128 0x6
 3557 0a9a 60090000 		.4byte	.LVL219
 3558 0a9e 3C190000 		.4byte	0x193c
 3559 0aa2 0F       		.uleb128 0xf
 3560 0aa3 68090000 		.4byte	.LVL220
 3561 0aa7 9F190000 		.4byte	0x199f
 3562 0aab BC0A0000 		.4byte	0xabc
 3563 0aaf 09       		.uleb128 0x9
 3564 0ab0 01       		.uleb128 0x1
 3565 0ab1 50       		.byte	0x50
 3566 0ab2 02       		.uleb128 0x2
 3567 0ab3 74       		.byte	0x74
 3568 0ab4 00       		.sleb128 0
 3569 0ab5 09       		.uleb128 0x9
 3570 0ab6 01       		.uleb128 0x1
 3571 0ab7 51       		.byte	0x51
 3572 0ab8 02       		.uleb128 0x2
 3573 0ab9 75       		.byte	0x75
 3574 0aba 00       		.sleb128 0
 3575 0abb 00       		.byte	0
 3576 0abc 0F       		.uleb128 0xf
 3577 0abd 78090000 		.4byte	.LVL221
 3578 0ac1 47190000 		.4byte	0x1947
 3579 0ac5 ED0A0000 		.4byte	0xaed
 3580 0ac9 09       		.uleb128 0x9
 3581 0aca 01       		.uleb128 0x1
 3582 0acb 50       		.byte	0x50
 3583 0acc 02       		.uleb128 0x2
 3584 0acd 08       		.byte	0x8
 3585 0ace 7D       		.byte	0x7d
 3586 0acf 09       		.uleb128 0x9
 3587 0ad0 01       		.uleb128 0x1
 3588 0ad1 51       		.byte	0x51
 3589 0ad2 01       		.uleb128 0x1
 3590 0ad3 30       		.byte	0x30
 3591 0ad4 09       		.uleb128 0x9
 3592 0ad5 01       		.uleb128 0x1
 3593 0ad6 52       		.byte	0x52
 3594 0ad7 01       		.uleb128 0x1
 3595 0ad8 35       		.byte	0x35
 3596 0ad9 09       		.uleb128 0x9
 3597 0ada 01       		.uleb128 0x1
 3598 0adb 53       		.byte	0x53
 3599 0adc 01       		.uleb128 0x1
 3600 0add 30       		.byte	0x30
 3601 0ade 09       		.uleb128 0x9
 3602 0adf 02       		.uleb128 0x2
ARM GAS  C:\Users\Misha\AppData\Local\Temp\ccwkTl6l.s 			page 82


 3603 0ae0 7D       		.byte	0x7d
 3604 0ae1 00       		.sleb128 0
 3605 0ae2 02       		.uleb128 0x2
 3606 0ae3 75       		.byte	0x75
 3607 0ae4 00       		.sleb128 0
 3608 0ae5 09       		.uleb128 0x9
 3609 0ae6 02       		.uleb128 0x2
 3610 0ae7 7D       		.byte	0x7d
 3611 0ae8 04       		.sleb128 4
 3612 0ae9 02       		.uleb128 0x2
 3613 0aea 74       		.byte	0x74
 3614 0aeb 00       		.sleb128 0
 3615 0aec 00       		.byte	0
 3616 0aed 06       		.uleb128 0x6
 3617 0aee 7C090000 		.4byte	.LVL222
 3618 0af2 3C190000 		.4byte	0x193c
 3619 0af6 0F       		.uleb128 0xf
 3620 0af7 8C090000 		.4byte	.LVL223
 3621 0afb 47190000 		.4byte	0x1947
 3622 0aff 280B0000 		.4byte	0xb28
 3623 0b03 09       		.uleb128 0x9
 3624 0b04 01       		.uleb128 0x1
 3625 0b05 50       		.byte	0x50
 3626 0b06 02       		.uleb128 0x2
 3627 0b07 08       		.byte	0x8
 3628 0b08 AF       		.byte	0xaf
 3629 0b09 09       		.uleb128 0x9
 3630 0b0a 01       		.uleb128 0x1
 3631 0b0b 51       		.byte	0x51
 3632 0b0c 02       		.uleb128 0x2
 3633 0b0d 74       		.byte	0x74
 3634 0b0e 00       		.sleb128 0
 3635 0b0f 09       		.uleb128 0x9
 3636 0b10 01       		.uleb128 0x1
 3637 0b11 52       		.byte	0x52
 3638 0b12 01       		.uleb128 0x1
 3639 0b13 34       		.byte	0x34
 3640 0b14 09       		.uleb128 0x9
 3641 0b15 01       		.uleb128 0x1
 3642 0b16 53       		.byte	0x53
 3643 0b17 01       		.uleb128 0x1
 3644 0b18 30       		.byte	0x30
 3645 0b19 09       		.uleb128 0x9
 3646 0b1a 02       		.uleb128 0x2
 3647 0b1b 7D       		.byte	0x7d
 3648 0b1c 00       		.sleb128 0
 3649 0b1d 02       		.uleb128 0x2
 3650 0b1e 75       		.byte	0x75
 3651 0b1f 00       		.sleb128 0
 3652 0b20 09       		.uleb128 0x9
 3653 0b21 02       		.uleb128 0x2
 3654 0b22 7D       		.byte	0x7d
 3655 0b23 04       		.sleb128 4
 3656 0b24 02       		.uleb128 0x2
 3657 0b25 74       		.byte	0x74
 3658 0b26 00       		.sleb128 0
 3659 0b27 00       		.byte	0
ARM GAS  C:\Users\Misha\AppData\Local\Temp\ccwkTl6l.s 			page 83


 3660 0b28 06       		.uleb128 0x6
 3661 0b29 90090000 		.4byte	.LVL224
 3662 0b2d 3C190000 		.4byte	0x193c
 3663 0b31 00       		.byte	0
 3664 0b32 06       		.uleb128 0x6
 3665 0b33 0A000000 		.4byte	.LVL2
 3666 0b37 D6190000 		.4byte	0x19d6
 3667 0b3b 06       		.uleb128 0x6
 3668 0b3c 0E000000 		.4byte	.LVL3
 3669 0b40 E1190000 		.4byte	0x19e1
 3670 0b44 0F       		.uleb128 0xf
 3671 0b45 14000000 		.4byte	.LVL4
 3672 0b49 31190000 		.4byte	0x1931
 3673 0b4d 5B0B0000 		.4byte	0xb5b
 3674 0b51 09       		.uleb128 0x9
 3675 0b52 01       		.uleb128 0x1
 3676 0b53 50       		.byte	0x50
 3677 0b54 05       		.uleb128 0x5
 3678 0b55 03       		.byte	0x3
 3679 0b56 00000000 		.4byte	.LC0
 3680 0b5a 00       		.byte	0
 3681 0b5b 06       		.uleb128 0x6
 3682 0b5c 18000000 		.4byte	.LVL5
 3683 0b60 EC190000 		.4byte	0x19ec
 3684 0b64 06       		.uleb128 0x6
 3685 0b65 1C000000 		.4byte	.LVL6
 3686 0b69 F7190000 		.4byte	0x19f7
 3687 0b6d 0F       		.uleb128 0xf
 3688 0b6e 22000000 		.4byte	.LVL7
 3689 0b72 021A0000 		.4byte	0x1a02
 3690 0b76 800B0000 		.4byte	0xb80
 3691 0b7a 09       		.uleb128 0x9
 3692 0b7b 01       		.uleb128 0x1
 3693 0b7c 50       		.byte	0x50
 3694 0b7d 01       		.uleb128 0x1
 3695 0b7e 30       		.byte	0x30
 3696 0b7f 00       		.byte	0
 3697 0b80 06       		.uleb128 0x6
 3698 0b81 2A000000 		.4byte	.LVL8
 3699 0b85 0D1A0000 		.4byte	0x1a0d
 3700 0b89 0F       		.uleb128 0xf
 3701 0b8a 34000000 		.4byte	.LVL9
 3702 0b8e 5D190000 		.4byte	0x195d
 3703 0b92 9D0B0000 		.4byte	0xb9d
 3704 0b96 09       		.uleb128 0x9
 3705 0b97 01       		.uleb128 0x1
 3706 0b98 50       		.byte	0x50
 3707 0b99 02       		.uleb128 0x2
 3708 0b9a 75       		.byte	0x75
 3709 0b9b 00       		.sleb128 0
 3710 0b9c 00       		.byte	0
 3711 0b9d 0F       		.uleb128 0xf
 3712 0b9e 3A000000 		.4byte	.LVL10
 3713 0ba2 181A0000 		.4byte	0x1a18
 3714 0ba6 B00B0000 		.4byte	0xbb0
 3715 0baa 09       		.uleb128 0x9
 3716 0bab 01       		.uleb128 0x1
ARM GAS  C:\Users\Misha\AppData\Local\Temp\ccwkTl6l.s 			page 84


 3717 0bac 50       		.byte	0x50
 3718 0bad 01       		.uleb128 0x1
 3719 0bae 31       		.byte	0x31
 3720 0baf 00       		.byte	0
 3721 0bb0 0F       		.uleb128 0xf
 3722 0bb1 42000000 		.4byte	.LVL11
 3723 0bb5 10190000 		.4byte	0x1910
 3724 0bb9 C50B0000 		.4byte	0xbc5
 3725 0bbd 09       		.uleb128 0x9
 3726 0bbe 01       		.uleb128 0x1
 3727 0bbf 50       		.byte	0x50
 3728 0bc0 03       		.uleb128 0x3
 3729 0bc1 0A       		.byte	0xa
 3730 0bc2 F401     		.2byte	0x1f4
 3731 0bc4 00       		.byte	0
 3732 0bc5 0F       		.uleb128 0xf
 3733 0bc6 48000000 		.4byte	.LVL12
 3734 0bca 181A0000 		.4byte	0x1a18
 3735 0bce D80B0000 		.4byte	0xbd8
 3736 0bd2 09       		.uleb128 0x9
 3737 0bd3 01       		.uleb128 0x1
 3738 0bd4 50       		.byte	0x50
 3739 0bd5 01       		.uleb128 0x1
 3740 0bd6 32       		.byte	0x32
 3741 0bd7 00       		.byte	0
 3742 0bd8 0F       		.uleb128 0xf
 3743 0bd9 50000000 		.4byte	.LVL13
 3744 0bdd 10190000 		.4byte	0x1910
 3745 0be1 ED0B0000 		.4byte	0xbed
 3746 0be5 09       		.uleb128 0x9
 3747 0be6 01       		.uleb128 0x1
 3748 0be7 50       		.byte	0x50
 3749 0be8 03       		.uleb128 0x3
 3750 0be9 0A       		.byte	0xa
 3751 0bea F401     		.2byte	0x1f4
 3752 0bec 00       		.byte	0
 3753 0bed 0F       		.uleb128 0xf
 3754 0bee 56000000 		.4byte	.LVL14
 3755 0bf2 181A0000 		.4byte	0x1a18
 3756 0bf6 000C0000 		.4byte	0xc00
 3757 0bfa 09       		.uleb128 0x9
 3758 0bfb 01       		.uleb128 0x1
 3759 0bfc 50       		.byte	0x50
 3760 0bfd 01       		.uleb128 0x1
 3761 0bfe 33       		.byte	0x33
 3762 0bff 00       		.byte	0
 3763 0c00 0F       		.uleb128 0xf
 3764 0c01 5E000000 		.4byte	.LVL15
 3765 0c05 10190000 		.4byte	0x1910
 3766 0c09 150C0000 		.4byte	0xc15
 3767 0c0d 09       		.uleb128 0x9
 3768 0c0e 01       		.uleb128 0x1
 3769 0c0f 50       		.byte	0x50
 3770 0c10 03       		.uleb128 0x3
 3771 0c11 0A       		.byte	0xa
 3772 0c12 F401     		.2byte	0x1f4
 3773 0c14 00       		.byte	0
ARM GAS  C:\Users\Misha\AppData\Local\Temp\ccwkTl6l.s 			page 85


 3774 0c15 0F       		.uleb128 0xf
 3775 0c16 64000000 		.4byte	.LVL16
 3776 0c1a 181A0000 		.4byte	0x1a18
 3777 0c1e 290C0000 		.4byte	0xc29
 3778 0c22 09       		.uleb128 0x9
 3779 0c23 01       		.uleb128 0x1
 3780 0c24 50       		.byte	0x50
 3781 0c25 02       		.uleb128 0x2
 3782 0c26 75       		.byte	0x75
 3783 0c27 00       		.sleb128 0
 3784 0c28 00       		.byte	0
 3785 0c29 0F       		.uleb128 0xf
 3786 0c2a 6C000000 		.4byte	.LVL17
 3787 0c2e 10190000 		.4byte	0x1910
 3788 0c32 3E0C0000 		.4byte	0xc3e
 3789 0c36 09       		.uleb128 0x9
 3790 0c37 01       		.uleb128 0x1
 3791 0c38 50       		.byte	0x50
 3792 0c39 03       		.uleb128 0x3
 3793 0c3a 0A       		.byte	0xa
 3794 0c3b F401     		.2byte	0x1f4
 3795 0c3d 00       		.byte	0
 3796 0c3e 06       		.uleb128 0x6
 3797 0c3f 70000000 		.4byte	.LVL18
 3798 0c43 52190000 		.4byte	0x1952
 3799 0c47 06       		.uleb128 0x6
 3800 0c48 74000000 		.4byte	.LVL19
 3801 0c4c 231A0000 		.4byte	0x1a23
 3802 0c50 0F       		.uleb128 0xf
 3803 0c51 7C000000 		.4byte	.LVL20
 3804 0c55 2E1A0000 		.4byte	0x1a2e
 3805 0c59 650C0000 		.4byte	0xc65
 3806 0c5d 09       		.uleb128 0x9
 3807 0c5e 01       		.uleb128 0x1
 3808 0c5f 50       		.byte	0x50
 3809 0c60 03       		.uleb128 0x3
 3810 0c61 0A       		.byte	0xa
 3811 0c62 E803     		.2byte	0x3e8
 3812 0c64 00       		.byte	0
 3813 0c65 0F       		.uleb128 0xf
 3814 0c66 84000000 		.4byte	.LVL21
 3815 0c6a 10190000 		.4byte	0x1910
 3816 0c6e 7A0C0000 		.4byte	0xc7a
 3817 0c72 09       		.uleb128 0x9
 3818 0c73 01       		.uleb128 0x1
 3819 0c74 50       		.byte	0x50
 3820 0c75 03       		.uleb128 0x3
 3821 0c76 0A       		.byte	0xa
 3822 0c77 F401     		.2byte	0x1f4
 3823 0c79 00       		.byte	0
 3824 0c7a 06       		.uleb128 0x6
 3825 0c7b 88000000 		.4byte	.LVL22
 3826 0c7f 391A0000 		.4byte	0x1a39
 3827 0c83 06       		.uleb128 0x6
 3828 0c84 8C000000 		.4byte	.LVL23
 3829 0c88 441A0000 		.4byte	0x1a44
 3830 0c8c 0F       		.uleb128 0xf
ARM GAS  C:\Users\Misha\AppData\Local\Temp\ccwkTl6l.s 			page 86


 3831 0c8d 94000000 		.4byte	.LVL24
 3832 0c91 4F1A0000 		.4byte	0x1a4f
 3833 0c95 A10C0000 		.4byte	0xca1
 3834 0c99 09       		.uleb128 0x9
 3835 0c9a 01       		.uleb128 0x1
 3836 0c9b 50       		.byte	0x50
 3837 0c9c 03       		.uleb128 0x3
 3838 0c9d 0A       		.byte	0xa
 3839 0c9e 6004     		.2byte	0x460
 3840 0ca0 00       		.byte	0
 3841 0ca1 0F       		.uleb128 0xf
 3842 0ca2 9C000000 		.4byte	.LVL25
 3843 0ca6 10190000 		.4byte	0x1910
 3844 0caa B60C0000 		.4byte	0xcb6
 3845 0cae 09       		.uleb128 0x9
 3846 0caf 01       		.uleb128 0x1
 3847 0cb0 50       		.byte	0x50
 3848 0cb1 03       		.uleb128 0x3
 3849 0cb2 0A       		.byte	0xa
 3850 0cb3 F401     		.2byte	0x1f4
 3851 0cb5 00       		.byte	0
 3852 0cb6 06       		.uleb128 0x6
 3853 0cb7 A0000000 		.4byte	.LVL26
 3854 0cbb 5A1A0000 		.4byte	0x1a5a
 3855 0cbf 06       		.uleb128 0x6
 3856 0cc0 A4000000 		.4byte	.LVL27
 3857 0cc4 651A0000 		.4byte	0x1a65
 3858 0cc8 06       		.uleb128 0x6
 3859 0cc9 A8000000 		.4byte	.LVL28
 3860 0ccd 701A0000 		.4byte	0x1a70
 3861 0cd1 06       		.uleb128 0x6
 3862 0cd2 AC000000 		.4byte	.LVL29
 3863 0cd6 7B1A0000 		.4byte	0x1a7b
 3864 0cda 06       		.uleb128 0x6
 3865 0cdb B0000000 		.4byte	.LVL30
 3866 0cdf 861A0000 		.4byte	0x1a86
 3867 0ce3 06       		.uleb128 0x6
 3868 0ce4 B4000000 		.4byte	.LVL31
 3869 0ce8 911A0000 		.4byte	0x1a91
 3870 0cec 06       		.uleb128 0x6
 3871 0ced B8000000 		.4byte	.LVL32
 3872 0cf1 9C1A0000 		.4byte	0x1a9c
 3873 0cf5 06       		.uleb128 0x6
 3874 0cf6 C2000000 		.4byte	.LVL33
 3875 0cfa A71A0000 		.4byte	0x1aa7
 3876 0cfe 06       		.uleb128 0x6
 3877 0cff C6000000 		.4byte	.LVL34
 3878 0d03 B21A0000 		.4byte	0x1ab2
 3879 0d07 0F       		.uleb128 0xf
 3880 0d08 CC000000 		.4byte	.LVL35
 3881 0d0c BD1A0000 		.4byte	0x1abd
 3882 0d10 1E0D0000 		.4byte	0xd1e
 3883 0d14 09       		.uleb128 0x9
 3884 0d15 01       		.uleb128 0x1
 3885 0d16 50       		.byte	0x50
 3886 0d17 05       		.uleb128 0x5
 3887 0d18 03       		.byte	0x3
ARM GAS  C:\Users\Misha\AppData\Local\Temp\ccwkTl6l.s 			page 87


 3888 0d19 00000000 		.4byte	TIH
 3889 0d1d 00       		.byte	0
 3890 0d1e 0F       		.uleb128 0xf
 3891 0d1f D2000000 		.4byte	.LVL36
 3892 0d23 C81A0000 		.4byte	0x1ac8
 3893 0d27 350D0000 		.4byte	0xd35
 3894 0d2b 09       		.uleb128 0x9
 3895 0d2c 01       		.uleb128 0x1
 3896 0d2d 50       		.byte	0x50
 3897 0d2e 05       		.uleb128 0x5
 3898 0d2f 03       		.byte	0x3
 3899 0d30 00000000 		.4byte	StartIH
 3900 0d34 00       		.byte	0
 3901 0d35 0F       		.uleb128 0xf
 3902 0d36 DA000000 		.4byte	.LVL37
 3903 0d3a 31190000 		.4byte	0x1931
 3904 0d3e 4C0D0000 		.4byte	0xd4c
 3905 0d42 09       		.uleb128 0x9
 3906 0d43 01       		.uleb128 0x1
 3907 0d44 50       		.byte	0x50
 3908 0d45 05       		.uleb128 0x5
 3909 0d46 03       		.byte	0x3
 3910 0d47 18000000 		.4byte	.LC1
 3911 0d4b 00       		.byte	0
 3912 0d4c 06       		.uleb128 0x6
 3913 0d4d DE000000 		.4byte	.LVL38
 3914 0d51 D31A0000 		.4byte	0x1ad3
 3915 0d55 06       		.uleb128 0x6
 3916 0d56 E2000000 		.4byte	.LVL39
 3917 0d5a D31A0000 		.4byte	0x1ad3
 3918 0d5e 06       		.uleb128 0x6
 3919 0d5f E6000000 		.4byte	.LVL40
 3920 0d63 D31A0000 		.4byte	0x1ad3
 3921 0d67 06       		.uleb128 0x6
 3922 0d68 08010000 		.4byte	.LVL42
 3923 0d6c DE1A0000 		.4byte	0x1ade
 3924 0d70 0F       		.uleb128 0xf
 3925 0d71 CA030000 		.4byte	.LVL102
 3926 0d75 47190000 		.4byte	0x1947
 3927 0d79 A10D0000 		.4byte	0xda1
 3928 0d7d 09       		.uleb128 0x9
 3929 0d7e 01       		.uleb128 0x1
 3930 0d7f 50       		.byte	0x50
 3931 0d80 02       		.uleb128 0x2
 3932 0d81 08       		.byte	0x8
 3933 0d82 E6       		.byte	0xe6
 3934 0d83 09       		.uleb128 0x9
 3935 0d84 01       		.uleb128 0x1
 3936 0d85 51       		.byte	0x51
 3937 0d86 01       		.uleb128 0x1
 3938 0d87 30       		.byte	0x30
 3939 0d88 09       		.uleb128 0x9
 3940 0d89 01       		.uleb128 0x1
 3941 0d8a 52       		.byte	0x52
 3942 0d8b 01       		.uleb128 0x1
 3943 0d8c 35       		.byte	0x35
 3944 0d8d 09       		.uleb128 0x9
ARM GAS  C:\Users\Misha\AppData\Local\Temp\ccwkTl6l.s 			page 88


 3945 0d8e 01       		.uleb128 0x1
 3946 0d8f 53       		.byte	0x53
 3947 0d90 01       		.uleb128 0x1
 3948 0d91 30       		.byte	0x30
 3949 0d92 09       		.uleb128 0x9
 3950 0d93 02       		.uleb128 0x2
 3951 0d94 7D       		.byte	0x7d
 3952 0d95 00       		.sleb128 0
 3953 0d96 02       		.uleb128 0x2
 3954 0d97 75       		.byte	0x75
 3955 0d98 00       		.sleb128 0
 3956 0d99 09       		.uleb128 0x9
 3957 0d9a 02       		.uleb128 0x2
 3958 0d9b 7D       		.byte	0x7d
 3959 0d9c 04       		.sleb128 4
 3960 0d9d 02       		.uleb128 0x2
 3961 0d9e 74       		.byte	0x74
 3962 0d9f 00       		.sleb128 0
 3963 0da0 00       		.byte	0
 3964 0da1 06       		.uleb128 0x6
 3965 0da2 CE030000 		.4byte	.LVL103
 3966 0da6 3C190000 		.4byte	0x193c
 3967 0daa 0F       		.uleb128 0xf
 3968 0dab D6030000 		.4byte	.LVL104
 3969 0daf 9F190000 		.4byte	0x199f
 3970 0db3 C30D0000 		.4byte	0xdc3
 3971 0db7 09       		.uleb128 0x9
 3972 0db8 01       		.uleb128 0x1
 3973 0db9 50       		.byte	0x50
 3974 0dba 01       		.uleb128 0x1
 3975 0dbb 30       		.byte	0x30
 3976 0dbc 09       		.uleb128 0x9
 3977 0dbd 01       		.uleb128 0x1
 3978 0dbe 51       		.byte	0x51
 3979 0dbf 02       		.uleb128 0x2
 3980 0dc0 75       		.byte	0x75
 3981 0dc1 00       		.sleb128 0
 3982 0dc2 00       		.byte	0
 3983 0dc3 06       		.uleb128 0x6
 3984 0dc4 DA030000 		.4byte	.LVL105
 3985 0dc8 3C190000 		.4byte	0x193c
 3986 0dcc 0F       		.uleb128 0xf
 3987 0dcd EA030000 		.4byte	.LVL106
 3988 0dd1 47190000 		.4byte	0x1947
 3989 0dd5 FE0D0000 		.4byte	0xdfe
 3990 0dd9 09       		.uleb128 0x9
 3991 0dda 01       		.uleb128 0x1
 3992 0ddb 50       		.byte	0x50
 3993 0ddc 02       		.uleb128 0x2
 3994 0ddd 08       		.byte	0x8
 3995 0dde 82       		.byte	0x82
 3996 0ddf 09       		.uleb128 0x9
 3997 0de0 01       		.uleb128 0x1
 3998 0de1 51       		.byte	0x51
 3999 0de2 02       		.uleb128 0x2
 4000 0de3 74       		.byte	0x74
 4001 0de4 00       		.sleb128 0
ARM GAS  C:\Users\Misha\AppData\Local\Temp\ccwkTl6l.s 			page 89


 4002 0de5 09       		.uleb128 0x9
 4003 0de6 01       		.uleb128 0x1
 4004 0de7 52       		.byte	0x52
 4005 0de8 01       		.uleb128 0x1
 4006 0de9 34       		.byte	0x34
 4007 0dea 09       		.uleb128 0x9
 4008 0deb 01       		.uleb128 0x1
 4009 0dec 53       		.byte	0x53
 4010 0ded 01       		.uleb128 0x1
 4011 0dee 30       		.byte	0x30
 4012 0def 09       		.uleb128 0x9
 4013 0df0 02       		.uleb128 0x2
 4014 0df1 7D       		.byte	0x7d
 4015 0df2 00       		.sleb128 0
 4016 0df3 02       		.uleb128 0x2
 4017 0df4 75       		.byte	0x75
 4018 0df5 00       		.sleb128 0
 4019 0df6 09       		.uleb128 0x9
 4020 0df7 02       		.uleb128 0x2
 4021 0df8 7D       		.byte	0x7d
 4022 0df9 04       		.sleb128 4
 4023 0dfa 02       		.uleb128 0x2
 4024 0dfb 74       		.byte	0x74
 4025 0dfc 00       		.sleb128 0
 4026 0dfd 00       		.byte	0
 4027 0dfe 0F       		.uleb128 0xf
 4028 0dff F2030000 		.4byte	.LVL107
 4029 0e03 9F190000 		.4byte	0x199f
 4030 0e07 170E0000 		.4byte	0xe17
 4031 0e0b 09       		.uleb128 0x9
 4032 0e0c 01       		.uleb128 0x1
 4033 0e0d 50       		.byte	0x50
 4034 0e0e 01       		.uleb128 0x1
 4035 0e0f 33       		.byte	0x33
 4036 0e10 09       		.uleb128 0x9
 4037 0e11 01       		.uleb128 0x1
 4038 0e12 51       		.byte	0x51
 4039 0e13 02       		.uleb128 0x2
 4040 0e14 75       		.byte	0x75
 4041 0e15 00       		.sleb128 0
 4042 0e16 00       		.byte	0
 4043 0e17 0F       		.uleb128 0xf
 4044 0e18 02040000 		.4byte	.LVL108
 4045 0e1c 47190000 		.4byte	0x1947
 4046 0e20 490E0000 		.4byte	0xe49
 4047 0e24 09       		.uleb128 0x9
 4048 0e25 01       		.uleb128 0x1
 4049 0e26 50       		.byte	0x50
 4050 0e27 02       		.uleb128 0x2
 4051 0e28 08       		.byte	0x8
 4052 0e29 32       		.byte	0x32
 4053 0e2a 09       		.uleb128 0x9
 4054 0e2b 01       		.uleb128 0x1
 4055 0e2c 51       		.byte	0x51
 4056 0e2d 02       		.uleb128 0x2
 4057 0e2e 74       		.byte	0x74
 4058 0e2f 00       		.sleb128 0
ARM GAS  C:\Users\Misha\AppData\Local\Temp\ccwkTl6l.s 			page 90


 4059 0e30 09       		.uleb128 0x9
 4060 0e31 01       		.uleb128 0x1
 4061 0e32 52       		.byte	0x52
 4062 0e33 01       		.uleb128 0x1
 4063 0e34 34       		.byte	0x34
 4064 0e35 09       		.uleb128 0x9
 4065 0e36 01       		.uleb128 0x1
 4066 0e37 53       		.byte	0x53
 4067 0e38 01       		.uleb128 0x1
 4068 0e39 30       		.byte	0x30
 4069 0e3a 09       		.uleb128 0x9
 4070 0e3b 02       		.uleb128 0x2
 4071 0e3c 7D       		.byte	0x7d
 4072 0e3d 00       		.sleb128 0
 4073 0e3e 02       		.uleb128 0x2
 4074 0e3f 75       		.byte	0x75
 4075 0e40 00       		.sleb128 0
 4076 0e41 09       		.uleb128 0x9
 4077 0e42 02       		.uleb128 0x2
 4078 0e43 7D       		.byte	0x7d
 4079 0e44 04       		.sleb128 4
 4080 0e45 02       		.uleb128 0x2
 4081 0e46 74       		.byte	0x74
 4082 0e47 00       		.sleb128 0
 4083 0e48 00       		.byte	0
 4084 0e49 0F       		.uleb128 0xf
 4085 0e4a 28040000 		.4byte	.LVL109
 4086 0e4e 47190000 		.4byte	0x1947
 4087 0e52 7A0E0000 		.4byte	0xe7a
 4088 0e56 09       		.uleb128 0x9
 4089 0e57 01       		.uleb128 0x1
 4090 0e58 50       		.byte	0x50
 4091 0e59 02       		.uleb128 0x2
 4092 0e5a 08       		.byte	0x8
 4093 0e5b F0       		.byte	0xf0
 4094 0e5c 09       		.uleb128 0x9
 4095 0e5d 01       		.uleb128 0x1
 4096 0e5e 51       		.byte	0x51
 4097 0e5f 01       		.uleb128 0x1
 4098 0e60 30       		.byte	0x30
 4099 0e61 09       		.uleb128 0x9
 4100 0e62 01       		.uleb128 0x1
 4101 0e63 52       		.byte	0x52
 4102 0e64 01       		.uleb128 0x1
 4103 0e65 34       		.byte	0x34
 4104 0e66 09       		.uleb128 0x9
 4105 0e67 01       		.uleb128 0x1
 4106 0e68 53       		.byte	0x53
 4107 0e69 01       		.uleb128 0x1
 4108 0e6a 34       		.byte	0x34
 4109 0e6b 09       		.uleb128 0x9
 4110 0e6c 02       		.uleb128 0x2
 4111 0e6d 7D       		.byte	0x7d
 4112 0e6e 00       		.sleb128 0
 4113 0e6f 02       		.uleb128 0x2
 4114 0e70 75       		.byte	0x75
 4115 0e71 00       		.sleb128 0
ARM GAS  C:\Users\Misha\AppData\Local\Temp\ccwkTl6l.s 			page 91


 4116 0e72 09       		.uleb128 0x9
 4117 0e73 02       		.uleb128 0x2
 4118 0e74 7D       		.byte	0x7d
 4119 0e75 04       		.sleb128 4
 4120 0e76 02       		.uleb128 0x2
 4121 0e77 74       		.byte	0x74
 4122 0e78 00       		.sleb128 0
 4123 0e79 00       		.byte	0
 4124 0e7a 06       		.uleb128 0x6
 4125 0e7b 2C040000 		.4byte	.LVL110
 4126 0e7f 3C190000 		.4byte	0x193c
 4127 0e83 0F       		.uleb128 0xf
 4128 0e84 34040000 		.4byte	.LVL111
 4129 0e88 9F190000 		.4byte	0x199f
 4130 0e8c 9C0E0000 		.4byte	0xe9c
 4131 0e90 09       		.uleb128 0x9
 4132 0e91 01       		.uleb128 0x1
 4133 0e92 50       		.byte	0x50
 4134 0e93 01       		.uleb128 0x1
 4135 0e94 30       		.byte	0x30
 4136 0e95 09       		.uleb128 0x9
 4137 0e96 01       		.uleb128 0x1
 4138 0e97 51       		.byte	0x51
 4139 0e98 02       		.uleb128 0x2
 4140 0e99 75       		.byte	0x75
 4141 0e9a 00       		.sleb128 0
 4142 0e9b 00       		.byte	0
 4143 0e9c 06       		.uleb128 0x6
 4144 0e9d 38040000 		.4byte	.LVL112
 4145 0ea1 3C190000 		.4byte	0x193c
 4146 0ea5 0F       		.uleb128 0xf
 4147 0ea6 48040000 		.4byte	.LVL113
 4148 0eaa 47190000 		.4byte	0x1947
 4149 0eae D70E0000 		.4byte	0xed7
 4150 0eb2 09       		.uleb128 0x9
 4151 0eb3 01       		.uleb128 0x1
 4152 0eb4 50       		.byte	0x50
 4153 0eb5 02       		.uleb128 0x2
 4154 0eb6 08       		.byte	0x8
 4155 0eb7 82       		.byte	0x82
 4156 0eb8 09       		.uleb128 0x9
 4157 0eb9 01       		.uleb128 0x1
 4158 0eba 51       		.byte	0x51
 4159 0ebb 02       		.uleb128 0x2
 4160 0ebc 74       		.byte	0x74
 4161 0ebd 00       		.sleb128 0
 4162 0ebe 09       		.uleb128 0x9
 4163 0ebf 01       		.uleb128 0x1
 4164 0ec0 52       		.byte	0x52
 4165 0ec1 01       		.uleb128 0x1
 4166 0ec2 34       		.byte	0x34
 4167 0ec3 09       		.uleb128 0x9
 4168 0ec4 01       		.uleb128 0x1
 4169 0ec5 53       		.byte	0x53
 4170 0ec6 01       		.uleb128 0x1
 4171 0ec7 30       		.byte	0x30
 4172 0ec8 09       		.uleb128 0x9
ARM GAS  C:\Users\Misha\AppData\Local\Temp\ccwkTl6l.s 			page 92


 4173 0ec9 02       		.uleb128 0x2
 4174 0eca 7D       		.byte	0x7d
 4175 0ecb 00       		.sleb128 0
 4176 0ecc 02       		.uleb128 0x2
 4177 0ecd 75       		.byte	0x75
 4178 0ece 00       		.sleb128 0
 4179 0ecf 09       		.uleb128 0x9
 4180 0ed0 02       		.uleb128 0x2
 4181 0ed1 7D       		.byte	0x7d
 4182 0ed2 04       		.sleb128 4
 4183 0ed3 02       		.uleb128 0x2
 4184 0ed4 74       		.byte	0x74
 4185 0ed5 00       		.sleb128 0
 4186 0ed6 00       		.byte	0
 4187 0ed7 0F       		.uleb128 0xf
 4188 0ed8 50040000 		.4byte	.LVL114
 4189 0edc 9F190000 		.4byte	0x199f
 4190 0ee0 F10E0000 		.4byte	0xef1
 4191 0ee4 09       		.uleb128 0x9
 4192 0ee5 01       		.uleb128 0x1
 4193 0ee6 50       		.byte	0x50
 4194 0ee7 02       		.uleb128 0x2
 4195 0ee8 74       		.byte	0x74
 4196 0ee9 00       		.sleb128 0
 4197 0eea 09       		.uleb128 0x9
 4198 0eeb 01       		.uleb128 0x1
 4199 0eec 51       		.byte	0x51
 4200 0eed 02       		.uleb128 0x2
 4201 0eee 75       		.byte	0x75
 4202 0eef 00       		.sleb128 0
 4203 0ef0 00       		.byte	0
 4204 0ef1 0F       		.uleb128 0xf
 4205 0ef2 60040000 		.4byte	.LVL115
 4206 0ef6 47190000 		.4byte	0x1947
 4207 0efa 230F0000 		.4byte	0xf23
 4208 0efe 09       		.uleb128 0x9
 4209 0eff 01       		.uleb128 0x1
 4210 0f00 50       		.byte	0x50
 4211 0f01 02       		.uleb128 0x2
 4212 0f02 08       		.byte	0x8
 4213 0f03 32       		.byte	0x32
 4214 0f04 09       		.uleb128 0x9
 4215 0f05 01       		.uleb128 0x1
 4216 0f06 51       		.byte	0x51
 4217 0f07 02       		.uleb128 0x2
 4218 0f08 74       		.byte	0x74
 4219 0f09 00       		.sleb128 0
 4220 0f0a 09       		.uleb128 0x9
 4221 0f0b 01       		.uleb128 0x1
 4222 0f0c 52       		.byte	0x52
 4223 0f0d 01       		.uleb128 0x1
 4224 0f0e 34       		.byte	0x34
 4225 0f0f 09       		.uleb128 0x9
 4226 0f10 01       		.uleb128 0x1
 4227 0f11 53       		.byte	0x53
 4228 0f12 01       		.uleb128 0x1
 4229 0f13 30       		.byte	0x30
ARM GAS  C:\Users\Misha\AppData\Local\Temp\ccwkTl6l.s 			page 93


 4230 0f14 09       		.uleb128 0x9
 4231 0f15 02       		.uleb128 0x2
 4232 0f16 7D       		.byte	0x7d
 4233 0f17 00       		.sleb128 0
 4234 0f18 02       		.uleb128 0x2
 4235 0f19 75       		.byte	0x75
 4236 0f1a 00       		.sleb128 0
 4237 0f1b 09       		.uleb128 0x9
 4238 0f1c 02       		.uleb128 0x2
 4239 0f1d 7D       		.byte	0x7d
 4240 0f1e 04       		.sleb128 4
 4241 0f1f 02       		.uleb128 0x2
 4242 0f20 74       		.byte	0x74
 4243 0f21 00       		.sleb128 0
 4244 0f22 00       		.byte	0
 4245 0f23 0F       		.uleb128 0xf
 4246 0f24 82040000 		.4byte	.LVL116
 4247 0f28 47190000 		.4byte	0x1947
 4248 0f2c 550F0000 		.4byte	0xf55
 4249 0f30 09       		.uleb128 0x9
 4250 0f31 01       		.uleb128 0x1
 4251 0f32 50       		.byte	0x50
 4252 0f33 03       		.uleb128 0x3
 4253 0f34 0A       		.byte	0xa
 4254 0f35 0E01     		.2byte	0x10e
 4255 0f37 09       		.uleb128 0x9
 4256 0f38 01       		.uleb128 0x1
 4257 0f39 51       		.byte	0x51
 4258 0f3a 01       		.uleb128 0x1
 4259 0f3b 30       		.byte	0x30
 4260 0f3c 09       		.uleb128 0x9
 4261 0f3d 01       		.uleb128 0x1
 4262 0f3e 52       		.byte	0x52
 4263 0f3f 01       		.uleb128 0x1
 4264 0f40 34       		.byte	0x34
 4265 0f41 09       		.uleb128 0x9
 4266 0f42 01       		.uleb128 0x1
 4267 0f43 53       		.byte	0x53
 4268 0f44 01       		.uleb128 0x1
 4269 0f45 34       		.byte	0x34
 4270 0f46 09       		.uleb128 0x9
 4271 0f47 02       		.uleb128 0x2
 4272 0f48 7D       		.byte	0x7d
 4273 0f49 00       		.sleb128 0
 4274 0f4a 02       		.uleb128 0x2
 4275 0f4b 75       		.byte	0x75
 4276 0f4c 00       		.sleb128 0
 4277 0f4d 09       		.uleb128 0x9
 4278 0f4e 02       		.uleb128 0x2
 4279 0f4f 7D       		.byte	0x7d
 4280 0f50 04       		.sleb128 4
 4281 0f51 02       		.uleb128 0x2
 4282 0f52 74       		.byte	0x74
 4283 0f53 00       		.sleb128 0
 4284 0f54 00       		.byte	0
 4285 0f55 06       		.uleb128 0x6
 4286 0f56 86040000 		.4byte	.LVL117
ARM GAS  C:\Users\Misha\AppData\Local\Temp\ccwkTl6l.s 			page 94


 4287 0f5a 3C190000 		.4byte	0x193c
 4288 0f5e 0F       		.uleb128 0xf
 4289 0f5f 8E040000 		.4byte	.LVL118
 4290 0f63 9F190000 		.4byte	0x199f
 4291 0f67 770F0000 		.4byte	0xf77
 4292 0f6b 09       		.uleb128 0x9
 4293 0f6c 01       		.uleb128 0x1
 4294 0f6d 50       		.byte	0x50
 4295 0f6e 01       		.uleb128 0x1
 4296 0f6f 30       		.byte	0x30
 4297 0f70 09       		.uleb128 0x9
 4298 0f71 01       		.uleb128 0x1
 4299 0f72 51       		.byte	0x51
 4300 0f73 02       		.uleb128 0x2
 4301 0f74 75       		.byte	0x75
 4302 0f75 00       		.sleb128 0
 4303 0f76 00       		.byte	0
 4304 0f77 06       		.uleb128 0x6
 4305 0f78 92040000 		.4byte	.LVL119
 4306 0f7c 3C190000 		.4byte	0x193c
 4307 0f80 0F       		.uleb128 0xf
 4308 0f81 A2040000 		.4byte	.LVL120
 4309 0f85 47190000 		.4byte	0x1947
 4310 0f89 B20F0000 		.4byte	0xfb2
 4311 0f8d 09       		.uleb128 0x9
 4312 0f8e 01       		.uleb128 0x1
 4313 0f8f 50       		.byte	0x50
 4314 0f90 02       		.uleb128 0x2
 4315 0f91 08       		.byte	0x8
 4316 0f92 82       		.byte	0x82
 4317 0f93 09       		.uleb128 0x9
 4318 0f94 01       		.uleb128 0x1
 4319 0f95 51       		.byte	0x51
 4320 0f96 02       		.uleb128 0x2
 4321 0f97 74       		.byte	0x74
 4322 0f98 00       		.sleb128 0
 4323 0f99 09       		.uleb128 0x9
 4324 0f9a 01       		.uleb128 0x1
 4325 0f9b 52       		.byte	0x52
 4326 0f9c 01       		.uleb128 0x1
 4327 0f9d 34       		.byte	0x34
 4328 0f9e 09       		.uleb128 0x9
 4329 0f9f 01       		.uleb128 0x1
 4330 0fa0 53       		.byte	0x53
 4331 0fa1 01       		.uleb128 0x1
 4332 0fa2 30       		.byte	0x30
 4333 0fa3 09       		.uleb128 0x9
 4334 0fa4 02       		.uleb128 0x2
 4335 0fa5 7D       		.byte	0x7d
 4336 0fa6 00       		.sleb128 0
 4337 0fa7 02       		.uleb128 0x2
 4338 0fa8 75       		.byte	0x75
 4339 0fa9 00       		.sleb128 0
 4340 0faa 09       		.uleb128 0x9
 4341 0fab 02       		.uleb128 0x2
 4342 0fac 7D       		.byte	0x7d
 4343 0fad 04       		.sleb128 4
ARM GAS  C:\Users\Misha\AppData\Local\Temp\ccwkTl6l.s 			page 95


 4344 0fae 02       		.uleb128 0x2
 4345 0faf 74       		.byte	0x74
 4346 0fb0 00       		.sleb128 0
 4347 0fb1 00       		.byte	0
 4348 0fb2 0F       		.uleb128 0xf
 4349 0fb3 AA040000 		.4byte	.LVL121
 4350 0fb7 9F190000 		.4byte	0x199f
 4351 0fbb CC0F0000 		.4byte	0xfcc
 4352 0fbf 09       		.uleb128 0x9
 4353 0fc0 01       		.uleb128 0x1
 4354 0fc1 50       		.byte	0x50
 4355 0fc2 02       		.uleb128 0x2
 4356 0fc3 74       		.byte	0x74
 4357 0fc4 00       		.sleb128 0
 4358 0fc5 09       		.uleb128 0x9
 4359 0fc6 01       		.uleb128 0x1
 4360 0fc7 51       		.byte	0x51
 4361 0fc8 02       		.uleb128 0x2
 4362 0fc9 75       		.byte	0x75
 4363 0fca 00       		.sleb128 0
 4364 0fcb 00       		.byte	0
 4365 0fcc 0F       		.uleb128 0xf
 4366 0fcd BA040000 		.4byte	.LVL122
 4367 0fd1 47190000 		.4byte	0x1947
 4368 0fd5 FE0F0000 		.4byte	0xffe
 4369 0fd9 09       		.uleb128 0x9
 4370 0fda 01       		.uleb128 0x1
 4371 0fdb 50       		.byte	0x50
 4372 0fdc 02       		.uleb128 0x2
 4373 0fdd 08       		.byte	0x8
 4374 0fde 32       		.byte	0x32
 4375 0fdf 09       		.uleb128 0x9
 4376 0fe0 01       		.uleb128 0x1
 4377 0fe1 51       		.byte	0x51
 4378 0fe2 02       		.uleb128 0x2
 4379 0fe3 74       		.byte	0x74
 4380 0fe4 00       		.sleb128 0
 4381 0fe5 09       		.uleb128 0x9
 4382 0fe6 01       		.uleb128 0x1
 4383 0fe7 52       		.byte	0x52
 4384 0fe8 01       		.uleb128 0x1
 4385 0fe9 34       		.byte	0x34
 4386 0fea 09       		.uleb128 0x9
 4387 0feb 01       		.uleb128 0x1
 4388 0fec 53       		.byte	0x53
 4389 0fed 01       		.uleb128 0x1
 4390 0fee 30       		.byte	0x30
 4391 0fef 09       		.uleb128 0x9
 4392 0ff0 02       		.uleb128 0x2
 4393 0ff1 7D       		.byte	0x7d
 4394 0ff2 00       		.sleb128 0
 4395 0ff3 02       		.uleb128 0x2
 4396 0ff4 75       		.byte	0x75
 4397 0ff5 00       		.sleb128 0
 4398 0ff6 09       		.uleb128 0x9
 4399 0ff7 02       		.uleb128 0x2
 4400 0ff8 7D       		.byte	0x7d
ARM GAS  C:\Users\Misha\AppData\Local\Temp\ccwkTl6l.s 			page 96


 4401 0ff9 04       		.sleb128 4
 4402 0ffa 02       		.uleb128 0x2
 4403 0ffb 74       		.byte	0x74
 4404 0ffc 00       		.sleb128 0
 4405 0ffd 00       		.byte	0
 4406 0ffe 0F       		.uleb128 0xf
 4407 0fff DC040000 		.4byte	.LVL123
 4408 1003 47190000 		.4byte	0x1947
 4409 1007 30100000 		.4byte	0x1030
 4410 100b 09       		.uleb128 0x9
 4411 100c 01       		.uleb128 0x1
 4412 100d 50       		.byte	0x50
 4413 100e 03       		.uleb128 0x3
 4414 100f 0A       		.byte	0xa
 4415 1010 0E01     		.2byte	0x10e
 4416 1012 09       		.uleb128 0x9
 4417 1013 01       		.uleb128 0x1
 4418 1014 51       		.byte	0x51
 4419 1015 01       		.uleb128 0x1
 4420 1016 30       		.byte	0x30
 4421 1017 09       		.uleb128 0x9
 4422 1018 01       		.uleb128 0x1
 4423 1019 52       		.byte	0x52
 4424 101a 01       		.uleb128 0x1
 4425 101b 34       		.byte	0x34
 4426 101c 09       		.uleb128 0x9
 4427 101d 01       		.uleb128 0x1
 4428 101e 53       		.byte	0x53
 4429 101f 01       		.uleb128 0x1
 4430 1020 34       		.byte	0x34
 4431 1021 09       		.uleb128 0x9
 4432 1022 02       		.uleb128 0x2
 4433 1023 7D       		.byte	0x7d
 4434 1024 00       		.sleb128 0
 4435 1025 02       		.uleb128 0x2
 4436 1026 75       		.byte	0x75
 4437 1027 00       		.sleb128 0
 4438 1028 09       		.uleb128 0x9
 4439 1029 02       		.uleb128 0x2
 4440 102a 7D       		.byte	0x7d
 4441 102b 04       		.sleb128 4
 4442 102c 02       		.uleb128 0x2
 4443 102d 74       		.byte	0x74
 4444 102e 00       		.sleb128 0
 4445 102f 00       		.byte	0
 4446 1030 06       		.uleb128 0x6
 4447 1031 E0040000 		.4byte	.LVL124
 4448 1035 3C190000 		.4byte	0x193c
 4449 1039 0F       		.uleb128 0xf
 4450 103a E8040000 		.4byte	.LVL125
 4451 103e 9F190000 		.4byte	0x199f
 4452 1042 52100000 		.4byte	0x1052
 4453 1046 09       		.uleb128 0x9
 4454 1047 01       		.uleb128 0x1
 4455 1048 50       		.byte	0x50
 4456 1049 01       		.uleb128 0x1
 4457 104a 30       		.byte	0x30
ARM GAS  C:\Users\Misha\AppData\Local\Temp\ccwkTl6l.s 			page 97


 4458 104b 09       		.uleb128 0x9
 4459 104c 01       		.uleb128 0x1
 4460 104d 51       		.byte	0x51
 4461 104e 02       		.uleb128 0x2
 4462 104f 75       		.byte	0x75
 4463 1050 00       		.sleb128 0
 4464 1051 00       		.byte	0
 4465 1052 06       		.uleb128 0x6
 4466 1053 EC040000 		.4byte	.LVL126
 4467 1057 3C190000 		.4byte	0x193c
 4468 105b 0F       		.uleb128 0xf
 4469 105c FC040000 		.4byte	.LVL127
 4470 1060 47190000 		.4byte	0x1947
 4471 1064 8D100000 		.4byte	0x108d
 4472 1068 09       		.uleb128 0x9
 4473 1069 01       		.uleb128 0x1
 4474 106a 50       		.byte	0x50
 4475 106b 02       		.uleb128 0x2
 4476 106c 08       		.byte	0x8
 4477 106d 82       		.byte	0x82
 4478 106e 09       		.uleb128 0x9
 4479 106f 01       		.uleb128 0x1
 4480 1070 51       		.byte	0x51
 4481 1071 02       		.uleb128 0x2
 4482 1072 74       		.byte	0x74
 4483 1073 00       		.sleb128 0
 4484 1074 09       		.uleb128 0x9
 4485 1075 01       		.uleb128 0x1
 4486 1076 52       		.byte	0x52
 4487 1077 01       		.uleb128 0x1
 4488 1078 34       		.byte	0x34
 4489 1079 09       		.uleb128 0x9
 4490 107a 01       		.uleb128 0x1
 4491 107b 53       		.byte	0x53
 4492 107c 01       		.uleb128 0x1
 4493 107d 30       		.byte	0x30
 4494 107e 09       		.uleb128 0x9
 4495 107f 02       		.uleb128 0x2
 4496 1080 7D       		.byte	0x7d
 4497 1081 00       		.sleb128 0
 4498 1082 02       		.uleb128 0x2
 4499 1083 75       		.byte	0x75
 4500 1084 00       		.sleb128 0
 4501 1085 09       		.uleb128 0x9
 4502 1086 02       		.uleb128 0x2
 4503 1087 7D       		.byte	0x7d
 4504 1088 04       		.sleb128 4
 4505 1089 02       		.uleb128 0x2
 4506 108a 74       		.byte	0x74
 4507 108b 00       		.sleb128 0
 4508 108c 00       		.byte	0
 4509 108d 0F       		.uleb128 0xf
 4510 108e 04050000 		.4byte	.LVL128
 4511 1092 9F190000 		.4byte	0x199f
 4512 1096 A6100000 		.4byte	0x10a6
 4513 109a 09       		.uleb128 0x9
 4514 109b 01       		.uleb128 0x1
ARM GAS  C:\Users\Misha\AppData\Local\Temp\ccwkTl6l.s 			page 98


 4515 109c 50       		.byte	0x50
 4516 109d 01       		.uleb128 0x1
 4517 109e 33       		.byte	0x33
 4518 109f 09       		.uleb128 0x9
 4519 10a0 01       		.uleb128 0x1
 4520 10a1 51       		.byte	0x51
 4521 10a2 02       		.uleb128 0x2
 4522 10a3 75       		.byte	0x75
 4523 10a4 00       		.sleb128 0
 4524 10a5 00       		.byte	0
 4525 10a6 0F       		.uleb128 0xf
 4526 10a7 14050000 		.4byte	.LVL129
 4527 10ab 47190000 		.4byte	0x1947
 4528 10af D8100000 		.4byte	0x10d8
 4529 10b3 09       		.uleb128 0x9
 4530 10b4 01       		.uleb128 0x1
 4531 10b5 50       		.byte	0x50
 4532 10b6 02       		.uleb128 0x2
 4533 10b7 08       		.byte	0x8
 4534 10b8 32       		.byte	0x32
 4535 10b9 09       		.uleb128 0x9
 4536 10ba 01       		.uleb128 0x1
 4537 10bb 51       		.byte	0x51
 4538 10bc 02       		.uleb128 0x2
 4539 10bd 74       		.byte	0x74
 4540 10be 00       		.sleb128 0
 4541 10bf 09       		.uleb128 0x9
 4542 10c0 01       		.uleb128 0x1
 4543 10c1 52       		.byte	0x52
 4544 10c2 01       		.uleb128 0x1
 4545 10c3 34       		.byte	0x34
 4546 10c4 09       		.uleb128 0x9
 4547 10c5 01       		.uleb128 0x1
 4548 10c6 53       		.byte	0x53
 4549 10c7 01       		.uleb128 0x1
 4550 10c8 30       		.byte	0x30
 4551 10c9 09       		.uleb128 0x9
 4552 10ca 02       		.uleb128 0x2
 4553 10cb 7D       		.byte	0x7d
 4554 10cc 00       		.sleb128 0
 4555 10cd 02       		.uleb128 0x2
 4556 10ce 75       		.byte	0x75
 4557 10cf 00       		.sleb128 0
 4558 10d0 09       		.uleb128 0x9
 4559 10d1 02       		.uleb128 0x2
 4560 10d2 7D       		.byte	0x7d
 4561 10d3 04       		.sleb128 4
 4562 10d4 02       		.uleb128 0x2
 4563 10d5 74       		.byte	0x74
 4564 10d6 00       		.sleb128 0
 4565 10d7 00       		.byte	0
 4566 10d8 0F       		.uleb128 0xf
 4567 10d9 00060000 		.4byte	.LVL149
 4568 10dd 47190000 		.4byte	0x1947
 4569 10e1 09110000 		.4byte	0x1109
 4570 10e5 09       		.uleb128 0x9
 4571 10e6 01       		.uleb128 0x1
ARM GAS  C:\Users\Misha\AppData\Local\Temp\ccwkTl6l.s 			page 99


 4572 10e7 50       		.byte	0x50
 4573 10e8 02       		.uleb128 0x2
 4574 10e9 08       		.byte	0x8
 4575 10ea 64       		.byte	0x64
 4576 10eb 09       		.uleb128 0x9
 4577 10ec 01       		.uleb128 0x1
 4578 10ed 51       		.byte	0x51
 4579 10ee 01       		.uleb128 0x1
 4580 10ef 30       		.byte	0x30
 4581 10f0 09       		.uleb128 0x9
 4582 10f1 01       		.uleb128 0x1
 4583 10f2 52       		.byte	0x52
 4584 10f3 01       		.uleb128 0x1
 4585 10f4 34       		.byte	0x34
 4586 10f5 09       		.uleb128 0x9
 4587 10f6 01       		.uleb128 0x1
 4588 10f7 53       		.byte	0x53
 4589 10f8 01       		.uleb128 0x1
 4590 10f9 34       		.byte	0x34
 4591 10fa 09       		.uleb128 0x9
 4592 10fb 02       		.uleb128 0x2
 4593 10fc 7D       		.byte	0x7d
 4594 10fd 00       		.sleb128 0
 4595 10fe 02       		.uleb128 0x2
 4596 10ff 75       		.byte	0x75
 4597 1100 00       		.sleb128 0
 4598 1101 09       		.uleb128 0x9
 4599 1102 02       		.uleb128 0x2
 4600 1103 7D       		.byte	0x7d
 4601 1104 04       		.sleb128 4
 4602 1105 02       		.uleb128 0x2
 4603 1106 74       		.byte	0x74
 4604 1107 00       		.sleb128 0
 4605 1108 00       		.byte	0
 4606 1109 0F       		.uleb128 0xf
 4607 110a 08060000 		.4byte	.LVL150
 4608 110e 9F190000 		.4byte	0x199f
 4609 1112 22110000 		.4byte	0x1122
 4610 1116 09       		.uleb128 0x9
 4611 1117 01       		.uleb128 0x1
 4612 1118 50       		.byte	0x50
 4613 1119 01       		.uleb128 0x1
 4614 111a 30       		.byte	0x30
 4615 111b 09       		.uleb128 0x9
 4616 111c 01       		.uleb128 0x1
 4617 111d 51       		.byte	0x51
 4618 111e 02       		.uleb128 0x2
 4619 111f 75       		.byte	0x75
 4620 1120 00       		.sleb128 0
 4621 1121 00       		.byte	0
 4622 1122 06       		.uleb128 0x6
 4623 1123 0C060000 		.4byte	.LVL151
 4624 1127 3C190000 		.4byte	0x193c
 4625 112b 0F       		.uleb128 0xf
 4626 112c 1C060000 		.4byte	.LVL152
 4627 1130 47190000 		.4byte	0x1947
 4628 1134 5C110000 		.4byte	0x115c
ARM GAS  C:\Users\Misha\AppData\Local\Temp\ccwkTl6l.s 			page 100


 4629 1138 09       		.uleb128 0x9
 4630 1139 01       		.uleb128 0x1
 4631 113a 50       		.byte	0x50
 4632 113b 02       		.uleb128 0x2
 4633 113c 08       		.byte	0x8
 4634 113d F0       		.byte	0xf0
 4635 113e 09       		.uleb128 0x9
 4636 113f 01       		.uleb128 0x1
 4637 1140 51       		.byte	0x51
 4638 1141 01       		.uleb128 0x1
 4639 1142 30       		.byte	0x30
 4640 1143 09       		.uleb128 0x9
 4641 1144 01       		.uleb128 0x1
 4642 1145 52       		.byte	0x52
 4643 1146 01       		.uleb128 0x1
 4644 1147 34       		.byte	0x34
 4645 1148 09       		.uleb128 0x9
 4646 1149 01       		.uleb128 0x1
 4647 114a 53       		.byte	0x53
 4648 114b 01       		.uleb128 0x1
 4649 114c 34       		.byte	0x34
 4650 114d 09       		.uleb128 0x9
 4651 114e 02       		.uleb128 0x2
 4652 114f 7D       		.byte	0x7d
 4653 1150 00       		.sleb128 0
 4654 1151 02       		.uleb128 0x2
 4655 1152 75       		.byte	0x75
 4656 1153 00       		.sleb128 0
 4657 1154 09       		.uleb128 0x9
 4658 1155 02       		.uleb128 0x2
 4659 1156 7D       		.byte	0x7d
 4660 1157 04       		.sleb128 4
 4661 1158 02       		.uleb128 0x2
 4662 1159 74       		.byte	0x74
 4663 115a 00       		.sleb128 0
 4664 115b 00       		.byte	0
 4665 115c 06       		.uleb128 0x6
 4666 115d 20060000 		.4byte	.LVL153
 4667 1161 3C190000 		.4byte	0x193c
 4668 1165 0F       		.uleb128 0xf
 4669 1166 28060000 		.4byte	.LVL154
 4670 116a 9F190000 		.4byte	0x199f
 4671 116e 7F110000 		.4byte	0x117f
 4672 1172 09       		.uleb128 0x9
 4673 1173 01       		.uleb128 0x1
 4674 1174 50       		.byte	0x50
 4675 1175 02       		.uleb128 0x2
 4676 1176 74       		.byte	0x74
 4677 1177 00       		.sleb128 0
 4678 1178 09       		.uleb128 0x9
 4679 1179 01       		.uleb128 0x1
 4680 117a 51       		.byte	0x51
 4681 117b 02       		.uleb128 0x2
 4682 117c 75       		.byte	0x75
 4683 117d 00       		.sleb128 0
 4684 117e 00       		.byte	0
 4685 117f 06       		.uleb128 0x6
ARM GAS  C:\Users\Misha\AppData\Local\Temp\ccwkTl6l.s 			page 101


 4686 1180 2C060000 		.4byte	.LVL155
 4687 1184 3C190000 		.4byte	0x193c
 4688 1188 0F       		.uleb128 0xf
 4689 1189 3C060000 		.4byte	.LVL156
 4690 118d 47190000 		.4byte	0x1947
 4691 1191 BA110000 		.4byte	0x11ba
 4692 1195 09       		.uleb128 0x9
 4693 1196 01       		.uleb128 0x1
 4694 1197 50       		.byte	0x50
 4695 1198 02       		.uleb128 0x2
 4696 1199 08       		.byte	0x8
 4697 119a 82       		.byte	0x82
 4698 119b 09       		.uleb128 0x9
 4699 119c 01       		.uleb128 0x1
 4700 119d 51       		.byte	0x51
 4701 119e 02       		.uleb128 0x2
 4702 119f 74       		.byte	0x74
 4703 11a0 00       		.sleb128 0
 4704 11a1 09       		.uleb128 0x9
 4705 11a2 01       		.uleb128 0x1
 4706 11a3 52       		.byte	0x52
 4707 11a4 01       		.uleb128 0x1
 4708 11a5 34       		.byte	0x34
 4709 11a6 09       		.uleb128 0x9
 4710 11a7 01       		.uleb128 0x1
 4711 11a8 53       		.byte	0x53
 4712 11a9 01       		.uleb128 0x1
 4713 11aa 30       		.byte	0x30
 4714 11ab 09       		.uleb128 0x9
 4715 11ac 02       		.uleb128 0x2
 4716 11ad 7D       		.byte	0x7d
 4717 11ae 00       		.sleb128 0
 4718 11af 02       		.uleb128 0x2
 4719 11b0 75       		.byte	0x75
 4720 11b1 00       		.sleb128 0
 4721 11b2 09       		.uleb128 0x9
 4722 11b3 02       		.uleb128 0x2
 4723 11b4 7D       		.byte	0x7d
 4724 11b5 04       		.sleb128 4
 4725 11b6 02       		.uleb128 0x2
 4726 11b7 74       		.byte	0x74
 4727 11b8 00       		.sleb128 0
 4728 11b9 00       		.byte	0
 4729 11ba 06       		.uleb128 0x6
 4730 11bb 40060000 		.4byte	.LVL157
 4731 11bf 3C190000 		.4byte	0x193c
 4732 11c3 0F       		.uleb128 0xf
 4733 11c4 6A060000 		.4byte	.LVL158
 4734 11c8 47190000 		.4byte	0x1947
 4735 11cc F4110000 		.4byte	0x11f4
 4736 11d0 09       		.uleb128 0x9
 4737 11d1 01       		.uleb128 0x1
 4738 11d2 50       		.byte	0x50
 4739 11d3 02       		.uleb128 0x2
 4740 11d4 08       		.byte	0x8
 4741 11d5 64       		.byte	0x64
 4742 11d6 09       		.uleb128 0x9
ARM GAS  C:\Users\Misha\AppData\Local\Temp\ccwkTl6l.s 			page 102


 4743 11d7 01       		.uleb128 0x1
 4744 11d8 51       		.byte	0x51
 4745 11d9 01       		.uleb128 0x1
 4746 11da 30       		.byte	0x30
 4747 11db 09       		.uleb128 0x9
 4748 11dc 01       		.uleb128 0x1
 4749 11dd 52       		.byte	0x52
 4750 11de 01       		.uleb128 0x1
 4751 11df 34       		.byte	0x34
 4752 11e0 09       		.uleb128 0x9
 4753 11e1 01       		.uleb128 0x1
 4754 11e2 53       		.byte	0x53
 4755 11e3 01       		.uleb128 0x1
 4756 11e4 34       		.byte	0x34
 4757 11e5 09       		.uleb128 0x9
 4758 11e6 02       		.uleb128 0x2
 4759 11e7 7D       		.byte	0x7d
 4760 11e8 00       		.sleb128 0
 4761 11e9 02       		.uleb128 0x2
 4762 11ea 75       		.byte	0x75
 4763 11eb 00       		.sleb128 0
 4764 11ec 09       		.uleb128 0x9
 4765 11ed 02       		.uleb128 0x2
 4766 11ee 7D       		.byte	0x7d
 4767 11ef 04       		.sleb128 4
 4768 11f0 02       		.uleb128 0x2
 4769 11f1 74       		.byte	0x74
 4770 11f2 00       		.sleb128 0
 4771 11f3 00       		.byte	0
 4772 11f4 0F       		.uleb128 0xf
 4773 11f5 72060000 		.4byte	.LVL159
 4774 11f9 9F190000 		.4byte	0x199f
 4775 11fd 0D120000 		.4byte	0x120d
 4776 1201 09       		.uleb128 0x9
 4777 1202 01       		.uleb128 0x1
 4778 1203 50       		.byte	0x50
 4779 1204 01       		.uleb128 0x1
 4780 1205 30       		.byte	0x30
 4781 1206 09       		.uleb128 0x9
 4782 1207 01       		.uleb128 0x1
 4783 1208 51       		.byte	0x51
 4784 1209 02       		.uleb128 0x2
 4785 120a 75       		.byte	0x75
 4786 120b 00       		.sleb128 0
 4787 120c 00       		.byte	0
 4788 120d 06       		.uleb128 0x6
 4789 120e 76060000 		.4byte	.LVL160
 4790 1212 3C190000 		.4byte	0x193c
 4791 1216 0F       		.uleb128 0xf
 4792 1217 86060000 		.4byte	.LVL161
 4793 121b 47190000 		.4byte	0x1947
 4794 121f 47120000 		.4byte	0x1247
 4795 1223 09       		.uleb128 0x9
 4796 1224 01       		.uleb128 0x1
 4797 1225 50       		.byte	0x50
 4798 1226 02       		.uleb128 0x2
 4799 1227 08       		.byte	0x8
ARM GAS  C:\Users\Misha\AppData\Local\Temp\ccwkTl6l.s 			page 103


 4800 1228 F0       		.byte	0xf0
 4801 1229 09       		.uleb128 0x9
 4802 122a 01       		.uleb128 0x1
 4803 122b 51       		.byte	0x51
 4804 122c 01       		.uleb128 0x1
 4805 122d 30       		.byte	0x30
 4806 122e 09       		.uleb128 0x9
 4807 122f 01       		.uleb128 0x1
 4808 1230 52       		.byte	0x52
 4809 1231 01       		.uleb128 0x1
 4810 1232 34       		.byte	0x34
 4811 1233 09       		.uleb128 0x9
 4812 1234 01       		.uleb128 0x1
 4813 1235 53       		.byte	0x53
 4814 1236 01       		.uleb128 0x1
 4815 1237 34       		.byte	0x34
 4816 1238 09       		.uleb128 0x9
 4817 1239 02       		.uleb128 0x2
 4818 123a 7D       		.byte	0x7d
 4819 123b 00       		.sleb128 0
 4820 123c 02       		.uleb128 0x2
 4821 123d 75       		.byte	0x75
 4822 123e 00       		.sleb128 0
 4823 123f 09       		.uleb128 0x9
 4824 1240 02       		.uleb128 0x2
 4825 1241 7D       		.byte	0x7d
 4826 1242 04       		.sleb128 4
 4827 1243 02       		.uleb128 0x2
 4828 1244 74       		.byte	0x74
 4829 1245 00       		.sleb128 0
 4830 1246 00       		.byte	0
 4831 1247 06       		.uleb128 0x6
 4832 1248 8A060000 		.4byte	.LVL162
 4833 124c 3C190000 		.4byte	0x193c
 4834 1250 0F       		.uleb128 0xf
 4835 1251 92060000 		.4byte	.LVL163
 4836 1255 9F190000 		.4byte	0x199f
 4837 1259 6A120000 		.4byte	0x126a
 4838 125d 09       		.uleb128 0x9
 4839 125e 01       		.uleb128 0x1
 4840 125f 50       		.byte	0x50
 4841 1260 02       		.uleb128 0x2
 4842 1261 74       		.byte	0x74
 4843 1262 00       		.sleb128 0
 4844 1263 09       		.uleb128 0x9
 4845 1264 01       		.uleb128 0x1
 4846 1265 51       		.byte	0x51
 4847 1266 02       		.uleb128 0x2
 4848 1267 75       		.byte	0x75
 4849 1268 00       		.sleb128 0
 4850 1269 00       		.byte	0
 4851 126a 06       		.uleb128 0x6
 4852 126b 96060000 		.4byte	.LVL164
 4853 126f 3C190000 		.4byte	0x193c
 4854 1273 0F       		.uleb128 0xf
 4855 1274 A6060000 		.4byte	.LVL165
 4856 1278 47190000 		.4byte	0x1947
ARM GAS  C:\Users\Misha\AppData\Local\Temp\ccwkTl6l.s 			page 104


 4857 127c A5120000 		.4byte	0x12a5
 4858 1280 09       		.uleb128 0x9
 4859 1281 01       		.uleb128 0x1
 4860 1282 50       		.byte	0x50
 4861 1283 02       		.uleb128 0x2
 4862 1284 08       		.byte	0x8
 4863 1285 82       		.byte	0x82
 4864 1286 09       		.uleb128 0x9
 4865 1287 01       		.uleb128 0x1
 4866 1288 51       		.byte	0x51
 4867 1289 02       		.uleb128 0x2
 4868 128a 74       		.byte	0x74
 4869 128b 00       		.sleb128 0
 4870 128c 09       		.uleb128 0x9
 4871 128d 01       		.uleb128 0x1
 4872 128e 52       		.byte	0x52
 4873 128f 01       		.uleb128 0x1
 4874 1290 34       		.byte	0x34
 4875 1291 09       		.uleb128 0x9
 4876 1292 01       		.uleb128 0x1
 4877 1293 53       		.byte	0x53
 4878 1294 01       		.uleb128 0x1
 4879 1295 30       		.byte	0x30
 4880 1296 09       		.uleb128 0x9
 4881 1297 02       		.uleb128 0x2
 4882 1298 7D       		.byte	0x7d
 4883 1299 00       		.sleb128 0
 4884 129a 02       		.uleb128 0x2
 4885 129b 75       		.byte	0x75
 4886 129c 00       		.sleb128 0
 4887 129d 09       		.uleb128 0x9
 4888 129e 02       		.uleb128 0x2
 4889 129f 7D       		.byte	0x7d
 4890 12a0 04       		.sleb128 4
 4891 12a1 02       		.uleb128 0x2
 4892 12a2 74       		.byte	0x74
 4893 12a3 00       		.sleb128 0
 4894 12a4 00       		.byte	0
 4895 12a5 06       		.uleb128 0x6
 4896 12a6 AA060000 		.4byte	.LVL166
 4897 12aa 3C190000 		.4byte	0x193c
 4898 12ae 0F       		.uleb128 0xf
 4899 12af BA060000 		.4byte	.LVL167
 4900 12b3 47190000 		.4byte	0x1947
 4901 12b7 DF120000 		.4byte	0x12df
 4902 12bb 09       		.uleb128 0x9
 4903 12bc 01       		.uleb128 0x1
 4904 12bd 50       		.byte	0x50
 4905 12be 02       		.uleb128 0x2
 4906 12bf 08       		.byte	0x8
 4907 12c0 F0       		.byte	0xf0
 4908 12c1 09       		.uleb128 0x9
 4909 12c2 01       		.uleb128 0x1
 4910 12c3 51       		.byte	0x51
 4911 12c4 01       		.uleb128 0x1
 4912 12c5 30       		.byte	0x30
 4913 12c6 09       		.uleb128 0x9
ARM GAS  C:\Users\Misha\AppData\Local\Temp\ccwkTl6l.s 			page 105


 4914 12c7 01       		.uleb128 0x1
 4915 12c8 52       		.byte	0x52
 4916 12c9 01       		.uleb128 0x1
 4917 12ca 34       		.byte	0x34
 4918 12cb 09       		.uleb128 0x9
 4919 12cc 01       		.uleb128 0x1
 4920 12cd 53       		.byte	0x53
 4921 12ce 01       		.uleb128 0x1
 4922 12cf 34       		.byte	0x34
 4923 12d0 09       		.uleb128 0x9
 4924 12d1 02       		.uleb128 0x2
 4925 12d2 7D       		.byte	0x7d
 4926 12d3 00       		.sleb128 0
 4927 12d4 02       		.uleb128 0x2
 4928 12d5 75       		.byte	0x75
 4929 12d6 00       		.sleb128 0
 4930 12d7 09       		.uleb128 0x9
 4931 12d8 02       		.uleb128 0x2
 4932 12d9 7D       		.byte	0x7d
 4933 12da 04       		.sleb128 4
 4934 12db 02       		.uleb128 0x2
 4935 12dc 74       		.byte	0x74
 4936 12dd 00       		.sleb128 0
 4937 12de 00       		.byte	0
 4938 12df 06       		.uleb128 0x6
 4939 12e0 BE060000 		.4byte	.LVL168
 4940 12e4 3C190000 		.4byte	0x193c
 4941 12e8 0F       		.uleb128 0xf
 4942 12e9 C6060000 		.4byte	.LVL169
 4943 12ed 9F190000 		.4byte	0x199f
 4944 12f1 01130000 		.4byte	0x1301
 4945 12f5 09       		.uleb128 0x9
 4946 12f6 01       		.uleb128 0x1
 4947 12f7 50       		.byte	0x50
 4948 12f8 01       		.uleb128 0x1
 4949 12f9 30       		.byte	0x30
 4950 12fa 09       		.uleb128 0x9
 4951 12fb 01       		.uleb128 0x1
 4952 12fc 51       		.byte	0x51
 4953 12fd 02       		.uleb128 0x2
 4954 12fe 75       		.byte	0x75
 4955 12ff 00       		.sleb128 0
 4956 1300 00       		.byte	0
 4957 1301 06       		.uleb128 0x6
 4958 1302 CA060000 		.4byte	.LVL170
 4959 1306 3C190000 		.4byte	0x193c
 4960 130a 0F       		.uleb128 0xf
 4961 130b DA060000 		.4byte	.LVL171
 4962 130f 47190000 		.4byte	0x1947
 4963 1313 3C130000 		.4byte	0x133c
 4964 1317 09       		.uleb128 0x9
 4965 1318 01       		.uleb128 0x1
 4966 1319 50       		.byte	0x50
 4967 131a 02       		.uleb128 0x2
 4968 131b 08       		.byte	0x8
 4969 131c 82       		.byte	0x82
 4970 131d 09       		.uleb128 0x9
ARM GAS  C:\Users\Misha\AppData\Local\Temp\ccwkTl6l.s 			page 106


 4971 131e 01       		.uleb128 0x1
 4972 131f 51       		.byte	0x51
 4973 1320 02       		.uleb128 0x2
 4974 1321 74       		.byte	0x74
 4975 1322 00       		.sleb128 0
 4976 1323 09       		.uleb128 0x9
 4977 1324 01       		.uleb128 0x1
 4978 1325 52       		.byte	0x52
 4979 1326 01       		.uleb128 0x1
 4980 1327 34       		.byte	0x34
 4981 1328 09       		.uleb128 0x9
 4982 1329 01       		.uleb128 0x1
 4983 132a 53       		.byte	0x53
 4984 132b 01       		.uleb128 0x1
 4985 132c 30       		.byte	0x30
 4986 132d 09       		.uleb128 0x9
 4987 132e 02       		.uleb128 0x2
 4988 132f 7D       		.byte	0x7d
 4989 1330 00       		.sleb128 0
 4990 1331 02       		.uleb128 0x2
 4991 1332 75       		.byte	0x75
 4992 1333 00       		.sleb128 0
 4993 1334 09       		.uleb128 0x9
 4994 1335 02       		.uleb128 0x2
 4995 1336 7D       		.byte	0x7d
 4996 1337 04       		.sleb128 4
 4997 1338 02       		.uleb128 0x2
 4998 1339 74       		.byte	0x74
 4999 133a 00       		.sleb128 0
 5000 133b 00       		.byte	0
 5001 133c 0F       		.uleb128 0xf
 5002 133d E2060000 		.4byte	.LVL172
 5003 1341 9F190000 		.4byte	0x199f
 5004 1345 56130000 		.4byte	0x1356
 5005 1349 09       		.uleb128 0x9
 5006 134a 01       		.uleb128 0x1
 5007 134b 50       		.byte	0x50
 5008 134c 02       		.uleb128 0x2
 5009 134d 74       		.byte	0x74
 5010 134e 00       		.sleb128 0
 5011 134f 09       		.uleb128 0x9
 5012 1350 01       		.uleb128 0x1
 5013 1351 51       		.byte	0x51
 5014 1352 02       		.uleb128 0x2
 5015 1353 75       		.byte	0x75
 5016 1354 00       		.sleb128 0
 5017 1355 00       		.byte	0
 5018 1356 0F       		.uleb128 0xf
 5019 1357 F2060000 		.4byte	.LVL173
 5020 135b 47190000 		.4byte	0x1947
 5021 135f 88130000 		.4byte	0x1388
 5022 1363 09       		.uleb128 0x9
 5023 1364 01       		.uleb128 0x1
 5024 1365 50       		.byte	0x50
 5025 1366 02       		.uleb128 0x2
 5026 1367 08       		.byte	0x8
 5027 1368 32       		.byte	0x32
ARM GAS  C:\Users\Misha\AppData\Local\Temp\ccwkTl6l.s 			page 107


 5028 1369 09       		.uleb128 0x9
 5029 136a 01       		.uleb128 0x1
 5030 136b 51       		.byte	0x51
 5031 136c 02       		.uleb128 0x2
 5032 136d 74       		.byte	0x74
 5033 136e 00       		.sleb128 0
 5034 136f 09       		.uleb128 0x9
 5035 1370 01       		.uleb128 0x1
 5036 1371 52       		.byte	0x52
 5037 1372 01       		.uleb128 0x1
 5038 1373 34       		.byte	0x34
 5039 1374 09       		.uleb128 0x9
 5040 1375 01       		.uleb128 0x1
 5041 1376 53       		.byte	0x53
 5042 1377 01       		.uleb128 0x1
 5043 1378 30       		.byte	0x30
 5044 1379 09       		.uleb128 0x9
 5045 137a 02       		.uleb128 0x2
 5046 137b 7D       		.byte	0x7d
 5047 137c 00       		.sleb128 0
 5048 137d 02       		.uleb128 0x2
 5049 137e 75       		.byte	0x75
 5050 137f 00       		.sleb128 0
 5051 1380 09       		.uleb128 0x9
 5052 1381 02       		.uleb128 0x2
 5053 1382 7D       		.byte	0x7d
 5054 1383 04       		.sleb128 4
 5055 1384 02       		.uleb128 0x2
 5056 1385 74       		.byte	0x74
 5057 1386 00       		.sleb128 0
 5058 1387 00       		.byte	0
 5059 1388 0F       		.uleb128 0xf
 5060 1389 14070000 		.4byte	.LVL174
 5061 138d 47190000 		.4byte	0x1947
 5062 1391 BA130000 		.4byte	0x13ba
 5063 1395 09       		.uleb128 0x9
 5064 1396 01       		.uleb128 0x1
 5065 1397 50       		.byte	0x50
 5066 1398 03       		.uleb128 0x3
 5067 1399 0A       		.byte	0xa
 5068 139a 0E01     		.2byte	0x10e
 5069 139c 09       		.uleb128 0x9
 5070 139d 01       		.uleb128 0x1
 5071 139e 51       		.byte	0x51
 5072 139f 01       		.uleb128 0x1
 5073 13a0 30       		.byte	0x30
 5074 13a1 09       		.uleb128 0x9
 5075 13a2 01       		.uleb128 0x1
 5076 13a3 52       		.byte	0x52
 5077 13a4 01       		.uleb128 0x1
 5078 13a5 34       		.byte	0x34
 5079 13a6 09       		.uleb128 0x9
 5080 13a7 01       		.uleb128 0x1
 5081 13a8 53       		.byte	0x53
 5082 13a9 01       		.uleb128 0x1
 5083 13aa 34       		.byte	0x34
 5084 13ab 09       		.uleb128 0x9
ARM GAS  C:\Users\Misha\AppData\Local\Temp\ccwkTl6l.s 			page 108


 5085 13ac 02       		.uleb128 0x2
 5086 13ad 7D       		.byte	0x7d
 5087 13ae 00       		.sleb128 0
 5088 13af 02       		.uleb128 0x2
 5089 13b0 75       		.byte	0x75
 5090 13b1 00       		.sleb128 0
 5091 13b2 09       		.uleb128 0x9
 5092 13b3 02       		.uleb128 0x2
 5093 13b4 7D       		.byte	0x7d
 5094 13b5 04       		.sleb128 4
 5095 13b6 02       		.uleb128 0x2
 5096 13b7 74       		.byte	0x74
 5097 13b8 00       		.sleb128 0
 5098 13b9 00       		.byte	0
 5099 13ba 06       		.uleb128 0x6
 5100 13bb 18070000 		.4byte	.LVL175
 5101 13bf 3C190000 		.4byte	0x193c
 5102 13c3 0F       		.uleb128 0xf
 5103 13c4 20070000 		.4byte	.LVL176
 5104 13c8 9F190000 		.4byte	0x199f
 5105 13cc DC130000 		.4byte	0x13dc
 5106 13d0 09       		.uleb128 0x9
 5107 13d1 01       		.uleb128 0x1
 5108 13d2 50       		.byte	0x50
 5109 13d3 01       		.uleb128 0x1
 5110 13d4 30       		.byte	0x30
 5111 13d5 09       		.uleb128 0x9
 5112 13d6 01       		.uleb128 0x1
 5113 13d7 51       		.byte	0x51
 5114 13d8 02       		.uleb128 0x2
 5115 13d9 75       		.byte	0x75
 5116 13da 00       		.sleb128 0
 5117 13db 00       		.byte	0
 5118 13dc 06       		.uleb128 0x6
 5119 13dd 24070000 		.4byte	.LVL177
 5120 13e1 3C190000 		.4byte	0x193c
 5121 13e5 0F       		.uleb128 0xf
 5122 13e6 34070000 		.4byte	.LVL178
 5123 13ea 47190000 		.4byte	0x1947
 5124 13ee 17140000 		.4byte	0x1417
 5125 13f2 09       		.uleb128 0x9
 5126 13f3 01       		.uleb128 0x1
 5127 13f4 50       		.byte	0x50
 5128 13f5 02       		.uleb128 0x2
 5129 13f6 08       		.byte	0x8
 5130 13f7 82       		.byte	0x82
 5131 13f8 09       		.uleb128 0x9
 5132 13f9 01       		.uleb128 0x1
 5133 13fa 51       		.byte	0x51
 5134 13fb 02       		.uleb128 0x2
 5135 13fc 74       		.byte	0x74
 5136 13fd 00       		.sleb128 0
 5137 13fe 09       		.uleb128 0x9
 5138 13ff 01       		.uleb128 0x1
 5139 1400 52       		.byte	0x52
 5140 1401 01       		.uleb128 0x1
 5141 1402 34       		.byte	0x34
ARM GAS  C:\Users\Misha\AppData\Local\Temp\ccwkTl6l.s 			page 109


 5142 1403 09       		.uleb128 0x9
 5143 1404 01       		.uleb128 0x1
 5144 1405 53       		.byte	0x53
 5145 1406 01       		.uleb128 0x1
 5146 1407 30       		.byte	0x30
 5147 1408 09       		.uleb128 0x9
 5148 1409 02       		.uleb128 0x2
 5149 140a 7D       		.byte	0x7d
 5150 140b 00       		.sleb128 0
 5151 140c 02       		.uleb128 0x2
 5152 140d 75       		.byte	0x75
 5153 140e 00       		.sleb128 0
 5154 140f 09       		.uleb128 0x9
 5155 1410 02       		.uleb128 0x2
 5156 1411 7D       		.byte	0x7d
 5157 1412 04       		.sleb128 4
 5158 1413 02       		.uleb128 0x2
 5159 1414 74       		.byte	0x74
 5160 1415 00       		.sleb128 0
 5161 1416 00       		.byte	0
 5162 1417 0F       		.uleb128 0xf
 5163 1418 3C070000 		.4byte	.LVL179
 5164 141c 9F190000 		.4byte	0x199f
 5165 1420 31140000 		.4byte	0x1431
 5166 1424 09       		.uleb128 0x9
 5167 1425 01       		.uleb128 0x1
 5168 1426 50       		.byte	0x50
 5169 1427 02       		.uleb128 0x2
 5170 1428 74       		.byte	0x74
 5171 1429 00       		.sleb128 0
 5172 142a 09       		.uleb128 0x9
 5173 142b 01       		.uleb128 0x1
 5174 142c 51       		.byte	0x51
 5175 142d 02       		.uleb128 0x2
 5176 142e 75       		.byte	0x75
 5177 142f 00       		.sleb128 0
 5178 1430 00       		.byte	0
 5179 1431 0F       		.uleb128 0xf
 5180 1432 4C070000 		.4byte	.LVL180
 5181 1436 47190000 		.4byte	0x1947
 5182 143a 63140000 		.4byte	0x1463
 5183 143e 09       		.uleb128 0x9
 5184 143f 01       		.uleb128 0x1
 5185 1440 50       		.byte	0x50
 5186 1441 02       		.uleb128 0x2
 5187 1442 08       		.byte	0x8
 5188 1443 32       		.byte	0x32
 5189 1444 09       		.uleb128 0x9
 5190 1445 01       		.uleb128 0x1
 5191 1446 51       		.byte	0x51
 5192 1447 02       		.uleb128 0x2
 5193 1448 74       		.byte	0x74
 5194 1449 00       		.sleb128 0
 5195 144a 09       		.uleb128 0x9
 5196 144b 01       		.uleb128 0x1
 5197 144c 52       		.byte	0x52
 5198 144d 01       		.uleb128 0x1
ARM GAS  C:\Users\Misha\AppData\Local\Temp\ccwkTl6l.s 			page 110


 5199 144e 34       		.byte	0x34
 5200 144f 09       		.uleb128 0x9
 5201 1450 01       		.uleb128 0x1
 5202 1451 53       		.byte	0x53
 5203 1452 01       		.uleb128 0x1
 5204 1453 30       		.byte	0x30
 5205 1454 09       		.uleb128 0x9
 5206 1455 02       		.uleb128 0x2
 5207 1456 7D       		.byte	0x7d
 5208 1457 00       		.sleb128 0
 5209 1458 02       		.uleb128 0x2
 5210 1459 75       		.byte	0x75
 5211 145a 00       		.sleb128 0
 5212 145b 09       		.uleb128 0x9
 5213 145c 02       		.uleb128 0x2
 5214 145d 7D       		.byte	0x7d
 5215 145e 04       		.sleb128 4
 5216 145f 02       		.uleb128 0x2
 5217 1460 74       		.byte	0x74
 5218 1461 00       		.sleb128 0
 5219 1462 00       		.byte	0
 5220 1463 0F       		.uleb128 0xf
 5221 1464 6E070000 		.4byte	.LVL181
 5222 1468 47190000 		.4byte	0x1947
 5223 146c 95140000 		.4byte	0x1495
 5224 1470 09       		.uleb128 0x9
 5225 1471 01       		.uleb128 0x1
 5226 1472 50       		.byte	0x50
 5227 1473 03       		.uleb128 0x3
 5228 1474 0A       		.byte	0xa
 5229 1475 0E01     		.2byte	0x10e
 5230 1477 09       		.uleb128 0x9
 5231 1478 01       		.uleb128 0x1
 5232 1479 51       		.byte	0x51
 5233 147a 01       		.uleb128 0x1
 5234 147b 30       		.byte	0x30
 5235 147c 09       		.uleb128 0x9
 5236 147d 01       		.uleb128 0x1
 5237 147e 52       		.byte	0x52
 5238 147f 01       		.uleb128 0x1
 5239 1480 34       		.byte	0x34
 5240 1481 09       		.uleb128 0x9
 5241 1482 01       		.uleb128 0x1
 5242 1483 53       		.byte	0x53
 5243 1484 01       		.uleb128 0x1
 5244 1485 34       		.byte	0x34
 5245 1486 09       		.uleb128 0x9
 5246 1487 02       		.uleb128 0x2
 5247 1488 7D       		.byte	0x7d
 5248 1489 00       		.sleb128 0
 5249 148a 02       		.uleb128 0x2
 5250 148b 75       		.byte	0x75
 5251 148c 00       		.sleb128 0
 5252 148d 09       		.uleb128 0x9
 5253 148e 02       		.uleb128 0x2
 5254 148f 7D       		.byte	0x7d
 5255 1490 04       		.sleb128 4
ARM GAS  C:\Users\Misha\AppData\Local\Temp\ccwkTl6l.s 			page 111


 5256 1491 02       		.uleb128 0x2
 5257 1492 74       		.byte	0x74
 5258 1493 00       		.sleb128 0
 5259 1494 00       		.byte	0
 5260 1495 06       		.uleb128 0x6
 5261 1496 72070000 		.4byte	.LVL182
 5262 149a 3C190000 		.4byte	0x193c
 5263 149e 0F       		.uleb128 0xf
 5264 149f 7A070000 		.4byte	.LVL183
 5265 14a3 9F190000 		.4byte	0x199f
 5266 14a7 B7140000 		.4byte	0x14b7
 5267 14ab 09       		.uleb128 0x9
 5268 14ac 01       		.uleb128 0x1
 5269 14ad 50       		.byte	0x50
 5270 14ae 01       		.uleb128 0x1
 5271 14af 30       		.byte	0x30
 5272 14b0 09       		.uleb128 0x9
 5273 14b1 01       		.uleb128 0x1
 5274 14b2 51       		.byte	0x51
 5275 14b3 02       		.uleb128 0x2
 5276 14b4 75       		.byte	0x75
 5277 14b5 00       		.sleb128 0
 5278 14b6 00       		.byte	0
 5279 14b7 06       		.uleb128 0x6
 5280 14b8 7E070000 		.4byte	.LVL184
 5281 14bc 3C190000 		.4byte	0x193c
 5282 14c0 0F       		.uleb128 0xf
 5283 14c1 8E070000 		.4byte	.LVL185
 5284 14c5 47190000 		.4byte	0x1947
 5285 14c9 F2140000 		.4byte	0x14f2
 5286 14cd 09       		.uleb128 0x9
 5287 14ce 01       		.uleb128 0x1
 5288 14cf 50       		.byte	0x50
 5289 14d0 02       		.uleb128 0x2
 5290 14d1 08       		.byte	0x8
 5291 14d2 82       		.byte	0x82
 5292 14d3 09       		.uleb128 0x9
 5293 14d4 01       		.uleb128 0x1
 5294 14d5 51       		.byte	0x51
 5295 14d6 02       		.uleb128 0x2
 5296 14d7 74       		.byte	0x74
 5297 14d8 00       		.sleb128 0
 5298 14d9 09       		.uleb128 0x9
 5299 14da 01       		.uleb128 0x1
 5300 14db 52       		.byte	0x52
 5301 14dc 01       		.uleb128 0x1
 5302 14dd 34       		.byte	0x34
 5303 14de 09       		.uleb128 0x9
 5304 14df 01       		.uleb128 0x1
 5305 14e0 53       		.byte	0x53
 5306 14e1 01       		.uleb128 0x1
 5307 14e2 30       		.byte	0x30
 5308 14e3 09       		.uleb128 0x9
 5309 14e4 02       		.uleb128 0x2
 5310 14e5 7D       		.byte	0x7d
 5311 14e6 00       		.sleb128 0
 5312 14e7 02       		.uleb128 0x2
ARM GAS  C:\Users\Misha\AppData\Local\Temp\ccwkTl6l.s 			page 112


 5313 14e8 75       		.byte	0x75
 5314 14e9 00       		.sleb128 0
 5315 14ea 09       		.uleb128 0x9
 5316 14eb 02       		.uleb128 0x2
 5317 14ec 7D       		.byte	0x7d
 5318 14ed 04       		.sleb128 4
 5319 14ee 02       		.uleb128 0x2
 5320 14ef 74       		.byte	0x74
 5321 14f0 00       		.sleb128 0
 5322 14f1 00       		.byte	0
 5323 14f2 0F       		.uleb128 0xf
 5324 14f3 96070000 		.4byte	.LVL186
 5325 14f7 9F190000 		.4byte	0x199f
 5326 14fb 0B150000 		.4byte	0x150b
 5327 14ff 09       		.uleb128 0x9
 5328 1500 01       		.uleb128 0x1
 5329 1501 50       		.byte	0x50
 5330 1502 01       		.uleb128 0x1
 5331 1503 33       		.byte	0x33
 5332 1504 09       		.uleb128 0x9
 5333 1505 01       		.uleb128 0x1
 5334 1506 51       		.byte	0x51
 5335 1507 02       		.uleb128 0x2
 5336 1508 75       		.byte	0x75
 5337 1509 00       		.sleb128 0
 5338 150a 00       		.byte	0
 5339 150b 0F       		.uleb128 0xf
 5340 150c A6070000 		.4byte	.LVL187
 5341 1510 47190000 		.4byte	0x1947
 5342 1514 3D150000 		.4byte	0x153d
 5343 1518 09       		.uleb128 0x9
 5344 1519 01       		.uleb128 0x1
 5345 151a 50       		.byte	0x50
 5346 151b 02       		.uleb128 0x2
 5347 151c 08       		.byte	0x8
 5348 151d 32       		.byte	0x32
 5349 151e 09       		.uleb128 0x9
 5350 151f 01       		.uleb128 0x1
 5351 1520 51       		.byte	0x51
 5352 1521 02       		.uleb128 0x2
 5353 1522 74       		.byte	0x74
 5354 1523 00       		.sleb128 0
 5355 1524 09       		.uleb128 0x9
 5356 1525 01       		.uleb128 0x1
 5357 1526 52       		.byte	0x52
 5358 1527 01       		.uleb128 0x1
 5359 1528 34       		.byte	0x34
 5360 1529 09       		.uleb128 0x9
 5361 152a 01       		.uleb128 0x1
 5362 152b 53       		.byte	0x53
 5363 152c 01       		.uleb128 0x1
 5364 152d 30       		.byte	0x30
 5365 152e 09       		.uleb128 0x9
 5366 152f 02       		.uleb128 0x2
 5367 1530 7D       		.byte	0x7d
 5368 1531 00       		.sleb128 0
 5369 1532 02       		.uleb128 0x2
ARM GAS  C:\Users\Misha\AppData\Local\Temp\ccwkTl6l.s 			page 113


 5370 1533 75       		.byte	0x75
 5371 1534 00       		.sleb128 0
 5372 1535 09       		.uleb128 0x9
 5373 1536 02       		.uleb128 0x2
 5374 1537 7D       		.byte	0x7d
 5375 1538 04       		.sleb128 4
 5376 1539 02       		.uleb128 0x2
 5377 153a 74       		.byte	0x74
 5378 153b 00       		.sleb128 0
 5379 153c 00       		.byte	0
 5380 153d 0F       		.uleb128 0xf
 5381 153e A8090000 		.4byte	.LVL225
 5382 1542 68190000 		.4byte	0x1968
 5383 1546 5C150000 		.4byte	0x155c
 5384 154a 09       		.uleb128 0x9
 5385 154b 01       		.uleb128 0x1
 5386 154c 50       		.byte	0x50
 5387 154d 02       		.uleb128 0x2
 5388 154e 08       		.byte	0x8
 5389 154f 5A       		.byte	0x5a
 5390 1550 09       		.uleb128 0x9
 5391 1551 01       		.uleb128 0x1
 5392 1552 51       		.byte	0x51
 5393 1553 02       		.uleb128 0x2
 5394 1554 08       		.byte	0x8
 5395 1555 AA       		.byte	0xaa
 5396 1556 09       		.uleb128 0x9
 5397 1557 01       		.uleb128 0x1
 5398 1558 52       		.byte	0x52
 5399 1559 01       		.uleb128 0x1
 5400 155a 31       		.byte	0x31
 5401 155b 00       		.byte	0
 5402 155c 06       		.uleb128 0x6
 5403 155d AC090000 		.4byte	.LVL226
 5404 1561 3C190000 		.4byte	0x193c
 5405 1565 0F       		.uleb128 0xf
 5406 1566 C2090000 		.4byte	.LVL227
 5407 156a 47190000 		.4byte	0x1947
 5408 156e 98150000 		.4byte	0x1598
 5409 1572 09       		.uleb128 0x9
 5410 1573 01       		.uleb128 0x1
 5411 1574 50       		.byte	0x50
 5412 1575 03       		.uleb128 0x3
 5413 1576 0A       		.byte	0xa
 5414 1577 0802     		.2byte	0x208
 5415 1579 09       		.uleb128 0x9
 5416 157a 01       		.uleb128 0x1
 5417 157b 51       		.byte	0x51
 5418 157c 01       		.uleb128 0x1
 5419 157d 30       		.byte	0x30
 5420 157e 09       		.uleb128 0x9
 5421 157f 01       		.uleb128 0x1
 5422 1580 52       		.byte	0x52
 5423 1581 01       		.uleb128 0x1
 5424 1582 35       		.byte	0x35
 5425 1583 09       		.uleb128 0x9
 5426 1584 01       		.uleb128 0x1
ARM GAS  C:\Users\Misha\AppData\Local\Temp\ccwkTl6l.s 			page 114


 5427 1585 53       		.byte	0x53
 5428 1586 02       		.uleb128 0x2
 5429 1587 74       		.byte	0x74
 5430 1588 00       		.sleb128 0
 5431 1589 09       		.uleb128 0x9
 5432 158a 02       		.uleb128 0x2
 5433 158b 7D       		.byte	0x7d
 5434 158c 00       		.sleb128 0
 5435 158d 02       		.uleb128 0x2
 5436 158e 75       		.byte	0x75
 5437 158f 00       		.sleb128 0
 5438 1590 09       		.uleb128 0x9
 5439 1591 02       		.uleb128 0x2
 5440 1592 7D       		.byte	0x7d
 5441 1593 04       		.sleb128 4
 5442 1594 02       		.uleb128 0x2
 5443 1595 74       		.byte	0x74
 5444 1596 00       		.sleb128 0
 5445 1597 00       		.byte	0
 5446 1598 0F       		.uleb128 0xf
 5447 1599 CC090000 		.4byte	.LVL228
 5448 159d 68190000 		.4byte	0x1968
 5449 15a1 B8150000 		.4byte	0x15b8
 5450 15a5 09       		.uleb128 0x9
 5451 15a6 01       		.uleb128 0x1
 5452 15a7 50       		.byte	0x50
 5453 15a8 02       		.uleb128 0x2
 5454 15a9 08       		.byte	0x8
 5455 15aa 5A       		.byte	0x5a
 5456 15ab 09       		.uleb128 0x9
 5457 15ac 01       		.uleb128 0x1
 5458 15ad 51       		.byte	0x51
 5459 15ae 02       		.uleb128 0x2
 5460 15af 75       		.byte	0x75
 5461 15b0 00       		.sleb128 0
 5462 15b1 09       		.uleb128 0x9
 5463 15b2 01       		.uleb128 0x1
 5464 15b3 52       		.byte	0x52
 5465 15b4 02       		.uleb128 0x2
 5466 15b5 74       		.byte	0x74
 5467 15b6 00       		.sleb128 0
 5468 15b7 00       		.byte	0
 5469 15b8 0F       		.uleb128 0xf
 5470 15b9 DC090000 		.4byte	.LVL229
 5471 15bd 47190000 		.4byte	0x1947
 5472 15c1 E9150000 		.4byte	0x15e9
 5473 15c5 09       		.uleb128 0x9
 5474 15c6 01       		.uleb128 0x1
 5475 15c7 50       		.byte	0x50
 5476 15c8 02       		.uleb128 0x2
 5477 15c9 08       		.byte	0x8
 5478 15ca 28       		.byte	0x28
 5479 15cb 09       		.uleb128 0x9
 5480 15cc 01       		.uleb128 0x1
 5481 15cd 51       		.byte	0x51
 5482 15ce 01       		.uleb128 0x1
 5483 15cf 30       		.byte	0x30
ARM GAS  C:\Users\Misha\AppData\Local\Temp\ccwkTl6l.s 			page 115


 5484 15d0 09       		.uleb128 0x9
 5485 15d1 01       		.uleb128 0x1
 5486 15d2 52       		.byte	0x52
 5487 15d3 01       		.uleb128 0x1
 5488 15d4 34       		.byte	0x34
 5489 15d5 09       		.uleb128 0x9
 5490 15d6 01       		.uleb128 0x1
 5491 15d7 53       		.byte	0x53
 5492 15d8 01       		.uleb128 0x1
 5493 15d9 34       		.byte	0x34
 5494 15da 09       		.uleb128 0x9
 5495 15db 02       		.uleb128 0x2
 5496 15dc 7D       		.byte	0x7d
 5497 15dd 00       		.sleb128 0
 5498 15de 02       		.uleb128 0x2
 5499 15df 75       		.byte	0x75
 5500 15e0 00       		.sleb128 0
 5501 15e1 09       		.uleb128 0x9
 5502 15e2 02       		.uleb128 0x2
 5503 15e3 7D       		.byte	0x7d
 5504 15e4 04       		.sleb128 4
 5505 15e5 02       		.uleb128 0x2
 5506 15e6 74       		.byte	0x74
 5507 15e7 00       		.sleb128 0
 5508 15e8 00       		.byte	0
 5509 15e9 08       		.uleb128 0x8
 5510 15ea E4090000 		.4byte	.LVL230
 5511 15ee AA190000 		.4byte	0x19aa
 5512 15f2 09       		.uleb128 0x9
 5513 15f3 01       		.uleb128 0x1
 5514 15f4 50       		.byte	0x50
 5515 15f5 01       		.uleb128 0x1
 5516 15f6 30       		.byte	0x30
 5517 15f7 09       		.uleb128 0x9
 5518 15f8 01       		.uleb128 0x1
 5519 15f9 51       		.byte	0x51
 5520 15fa 01       		.uleb128 0x1
 5521 15fb 32       		.byte	0x32
 5522 15fc 00       		.byte	0
 5523 15fd 00       		.byte	0
 5524 15fe 11       		.uleb128 0x11
 5525 15ff 10070000 		.4byte	.LASF25
 5526 1603 04       		.byte	0x4
 5527 1604 1207     		.2byte	0x712
 5528 1606 0A160000 		.4byte	0x160a
 5529 160a 12       		.uleb128 0x12
 5530 160b 76000000 		.4byte	0x76
 5531 160f 13       		.uleb128 0x13
 5532 1610 7E020000 		.4byte	.LASF26
 5533 1614 05       		.byte	0x5
 5534 1615 1B       		.byte	0x1b
 5535 1616 68000000 		.4byte	0x68
 5536 161a 05       		.uleb128 0x5
 5537 161b 03       		.byte	0x3
 5538 161c 00000000 		.4byte	internal_orientation
 5539 1620 13       		.uleb128 0x13
 5540 1621 7D010000 		.4byte	.LASF27
ARM GAS  C:\Users\Misha\AppData\Local\Temp\ccwkTl6l.s 			page 116


 5541 1625 06       		.byte	0x6
 5542 1626 1D       		.byte	0x1d
 5543 1627 68000000 		.4byte	0x68
 5544 162b 05       		.uleb128 0x5
 5545 162c 03       		.byte	0x3
 5546 162d 00000000 		.4byte	driveStraightEnable
 5547 1631 13       		.uleb128 0x13
 5548 1632 16030000 		.4byte	.LASF28
 5549 1636 01       		.byte	0x1
 5550 1637 2D       		.byte	0x2d
 5551 1638 68000000 		.4byte	0x68
 5552 163c 05       		.uleb128 0x5
 5553 163d 03       		.byte	0x3
 5554 163e 00000000 		.4byte	currentPuckRackScanningIndex
 5555 1642 14       		.uleb128 0x14
 5556 1643 68000000 		.4byte	0x68
 5557 1647 52160000 		.4byte	0x1652
 5558 164b 15       		.uleb128 0x15
 5559 164c 9D000000 		.4byte	0x9d
 5560 1650 04       		.byte	0x4
 5561 1651 00       		.byte	0
 5562 1652 13       		.uleb128 0x13
 5563 1653 1C050000 		.4byte	.LASF29
 5564 1657 01       		.byte	0x1
 5565 1658 2B       		.byte	0x2b
 5566 1659 42160000 		.4byte	0x1642
 5567 165d 05       		.uleb128 0x5
 5568 165e 03       		.byte	0x3
 5569 165f 00000000 		.4byte	puckRackColours
 5570 1663 13       		.uleb128 0x13
 5571 1664 CC000000 		.4byte	.LASF30
 5572 1668 01       		.byte	0x1
 5573 1669 2E       		.byte	0x2e
 5574 166a 42160000 		.4byte	0x1642
 5575 166e 05       		.uleb128 0x5
 5576 166f 03       		.byte	0x3
 5577 1670 00000000 		.4byte	puckRackOffsetsFromWest
 5578 1674 13       		.uleb128 0x13
 5579 1675 74010000 		.4byte	.LASF31
 5580 1679 01       		.byte	0x1
 5581 167a 26       		.byte	0x26
 5582 167b 68000000 		.4byte	0x68
 5583 167f 05       		.uleb128 0x5
 5584 1680 03       		.byte	0x3
 5585 1681 00000000 		.4byte	sweeping
 5586 1685 14       		.uleb128 0x14
 5587 1686 81000000 		.4byte	0x81
 5588 168a 95160000 		.4byte	0x1695
 5589 168e 15       		.uleb128 0x15
 5590 168f 9D000000 		.4byte	0x9d
 5591 1693 03       		.byte	0x3
 5592 1694 00       		.byte	0
 5593 1695 13       		.uleb128 0x13
 5594 1696 40040000 		.4byte	.LASF32
 5595 169a 01       		.byte	0x1
 5596 169b 27       		.byte	0x27
 5597 169c 85160000 		.4byte	0x1685
ARM GAS  C:\Users\Misha\AppData\Local\Temp\ccwkTl6l.s 			page 117


 5598 16a0 05       		.uleb128 0x5
 5599 16a1 03       		.byte	0x3
 5600 16a2 00000000 		.4byte	block_edge_location
 5601 16a6 13       		.uleb128 0x13
 5602 16a7 F1020000 		.4byte	.LASF33
 5603 16ab 07       		.byte	0x7
 5604 16ac B2       		.byte	0xb2
 5605 16ad 81000000 		.4byte	0x81
 5606 16b1 05       		.uleb128 0x5
 5607 16b2 03       		.byte	0x3
 5608 16b3 00000000 		.4byte	puckPileLocation
 5609 16b7 13       		.uleb128 0x13
 5610 16b8 60000000 		.4byte	.LASF34
 5611 16bc 06       		.byte	0x6
 5612 16bd 25       		.byte	0x25
 5613 16be 33000000 		.4byte	0x33
 5614 16c2 05       		.uleb128 0x5
 5615 16c3 03       		.byte	0x3
 5616 16c4 00000000 		.4byte	drivingForwardFlag
 5617 16c8 13       		.uleb128 0x13
 5618 16c9 02030000 		.4byte	.LASF35
 5619 16cd 06       		.byte	0x6
 5620 16ce 26       		.byte	0x26
 5621 16cf 33000000 		.4byte	0x33
 5622 16d3 05       		.uleb128 0x5
 5623 16d4 03       		.byte	0x3
 5624 16d5 00000000 		.4byte	drivingBackwardFlag
 5625 16d9 13       		.uleb128 0x13
 5626 16da 37000000 		.4byte	.LASF36
 5627 16de 06       		.byte	0x6
 5628 16df 27       		.byte	0x27
 5629 16e0 33000000 		.4byte	0x33
 5630 16e4 05       		.uleb128 0x5
 5631 16e5 03       		.byte	0x3
 5632 16e6 00000000 		.4byte	turningLeftFlag
 5633 16ea 13       		.uleb128 0x13
 5634 16eb FD010000 		.4byte	.LASF37
 5635 16ef 06       		.byte	0x6
 5636 16f0 28       		.byte	0x28
 5637 16f1 33000000 		.4byte	0x33
 5638 16f5 05       		.uleb128 0x5
 5639 16f6 03       		.byte	0x3
 5640 16f7 00000000 		.4byte	turningRightFlag
 5641 16fb 13       		.uleb128 0x13
 5642 16fc E4070000 		.4byte	.LASF38
 5643 1700 06       		.byte	0x6
 5644 1701 2B       		.byte	0x2b
 5645 1702 68000000 		.4byte	0x68
 5646 1706 05       		.uleb128 0x5
 5647 1707 03       		.byte	0x3
 5648 1708 00000000 		.4byte	initialisation
 5649 170c 14       		.uleb128 0x14
 5650 170d 8F000000 		.4byte	0x8f
 5651 1711 1C170000 		.4byte	0x171c
 5652 1715 15       		.uleb128 0x15
 5653 1716 9D000000 		.4byte	0x9d
 5654 171a 1F       		.byte	0x1f
ARM GAS  C:\Users\Misha\AppData\Local\Temp\ccwkTl6l.s 			page 118


 5655 171b 00       		.byte	0
 5656 171c 13       		.uleb128 0x13
 5657 171d E9060000 		.4byte	.LASF39
 5658 1721 01       		.byte	0x1
 5659 1722 21       		.byte	0x21
 5660 1723 0C170000 		.4byte	0x170c
 5661 1727 05       		.uleb128 0x5
 5662 1728 03       		.byte	0x3
 5663 1729 00000000 		.4byte	output
 5664 172d 16       		.uleb128 0x16
 5665 172e FE000000 		.4byte	.LASF40
 5666 1732 07       		.byte	0x7
 5667 1733 C3       		.byte	0xc3
 5668 1734 42160000 		.4byte	0x1642
 5669 1738 13       		.uleb128 0x13
 5670 1739 82030000 		.4byte	.LASF41
 5671 173d 01       		.byte	0x1
 5672 173e 54       		.byte	0x54
 5673 173f 68000000 		.4byte	0x68
 5674 1743 05       		.uleb128 0x5
 5675 1744 03       		.byte	0x3
 5676 1745 00000000 		.4byte	colour_flag
 5677 1749 13       		.uleb128 0x13
 5678 174a 4F030000 		.4byte	.LASF42
 5679 174e 01       		.byte	0x1
 5680 174f 24       		.byte	0x24
 5681 1750 68000000 		.4byte	0x68
 5682 1754 05       		.uleb128 0x5
 5683 1755 03       		.byte	0x3
 5684 1756 00000000 		.4byte	state
 5685 175a 13       		.uleb128 0x13
 5686 175b 58050000 		.4byte	.LASF43
 5687 175f 01       		.byte	0x1
 5688 1760 5A       		.byte	0x5a
 5689 1761 68000000 		.4byte	0x68
 5690 1765 05       		.uleb128 0x5
 5691 1766 03       		.byte	0x3
 5692 1767 00000000 		.4byte	moving
 5693 176b 13       		.uleb128 0x13
 5694 176c 21010000 		.4byte	.LASF44
 5695 1770 06       		.byte	0x6
 5696 1771 2D       		.byte	0x2d
 5697 1772 68000000 		.4byte	0x68
 5698 1776 05       		.uleb128 0x5
 5699 1777 03       		.byte	0x3
 5700 1778 00000000 		.4byte	ultrasonic_flag
 5701 177c 14       		.uleb128 0x14
 5702 177d 68000000 		.4byte	0x68
 5703 1781 8C170000 		.4byte	0x178c
 5704 1785 15       		.uleb128 0x15
 5705 1786 9D000000 		.4byte	0x9d
 5706 178a 02       		.byte	0x2
 5707 178b 00       		.byte	0
 5708 178c 13       		.uleb128 0x13
 5709 178d EB050000 		.4byte	.LASF45
 5710 1791 01       		.byte	0x1
 5711 1792 2C       		.byte	0x2c
ARM GAS  C:\Users\Misha\AppData\Local\Temp\ccwkTl6l.s 			page 119


 5712 1793 7C170000 		.4byte	0x177c
 5713 1797 05       		.uleb128 0x5
 5714 1798 03       		.byte	0x3
 5715 1799 00000000 		.4byte	puckConstructionPlan
 5716 179d 13       		.uleb128 0x13
 5717 179e B8040000 		.4byte	.LASF46
 5718 17a2 01       		.byte	0x1
 5719 17a3 5E       		.byte	0x5e
 5720 17a4 68000000 		.4byte	0x68
 5721 17a8 05       		.uleb128 0x5
 5722 17a9 03       		.byte	0x3
 5723 17aa 00000000 		.4byte	current_stage
 5724 17ae 13       		.uleb128 0x13
 5725 17af 3F050000 		.4byte	.LASF47
 5726 17b3 01       		.byte	0x1
 5727 17b4 55       		.byte	0x55
 5728 17b5 68000000 		.4byte	0x68
 5729 17b9 05       		.uleb128 0x5
 5730 17ba 03       		.byte	0x3
 5731 17bb 00000000 		.4byte	colour_sensing_algorithm
 5732 17bf 13       		.uleb128 0x13
 5733 17c0 CE020000 		.4byte	.LASF48
 5734 17c4 01       		.byte	0x1
 5735 17c5 48       		.byte	0x48
 5736 17c6 68000000 		.4byte	0x68
 5737 17ca 05       		.uleb128 0x5
 5738 17cb 03       		.byte	0x3
 5739 17cc 00000000 		.4byte	safety_override
 5740 17d0 13       		.uleb128 0x13
 5741 17d1 A6010000 		.4byte	.LASF49
 5742 17d5 01       		.byte	0x1
 5743 17d6 25       		.byte	0x25
 5744 17d7 68000000 		.4byte	0x68
 5745 17db 05       		.uleb128 0x5
 5746 17dc 03       		.byte	0x3
 5747 17dd 00000000 		.4byte	running
 5748 17e1 13       		.uleb128 0x13
 5749 17e2 91010000 		.4byte	.LASF50
 5750 17e6 01       		.byte	0x1
 5751 17e7 2A       		.byte	0x2a
 5752 17e8 68000000 		.4byte	0x68
 5753 17ec 05       		.uleb128 0x5
 5754 17ed 03       		.byte	0x3
 5755 17ee 00000000 		.4byte	currentPuckStackSize
 5756 17f2 14       		.uleb128 0x14
 5757 17f3 68000000 		.4byte	0x68
 5758 17f7 02180000 		.4byte	0x1802
 5759 17fb 15       		.uleb128 0x15
 5760 17fc 9D000000 		.4byte	0x9d
 5761 1800 01       		.byte	0x1
 5762 1801 00       		.byte	0
 5763 1802 13       		.uleb128 0x13
 5764 1803 A6030000 		.4byte	.LASF51
 5765 1807 01       		.byte	0x1
 5766 1808 34       		.byte	0x34
 5767 1809 F2170000 		.4byte	0x17f2
 5768 180d 05       		.uleb128 0x5
ARM GAS  C:\Users\Misha\AppData\Local\Temp\ccwkTl6l.s 			page 120


 5769 180e 03       		.byte	0x3
 5770 180f 00000000 		.4byte	puckColoursTempPile
 5771 1813 13       		.uleb128 0x13
 5772 1814 46010000 		.4byte	.LASF52
 5773 1818 01       		.byte	0x1
 5774 1819 36       		.byte	0x36
 5775 181a 81000000 		.4byte	0x81
 5776 181e 05       		.uleb128 0x5
 5777 181f 03       		.byte	0x3
 5778 1820 00000000 		.4byte	horizontalPuckGrid
 5779 1824 13       		.uleb128 0x13
 5780 1825 A3000000 		.4byte	.LASF53
 5781 1829 01       		.byte	0x1
 5782 182a 3A       		.byte	0x3a
 5783 182b 68000000 		.4byte	0x68
 5784 182f 05       		.uleb128 0x5
 5785 1830 03       		.byte	0x3
 5786 1831 00000000 		.4byte	beginNavigation
 5787 1835 13       		.uleb128 0x13
 5788 1836 CD070000 		.4byte	.LASF54
 5789 183a 01       		.byte	0x1
 5790 183b 3B       		.byte	0x3b
 5791 183c 68000000 		.4byte	0x68
 5792 1840 05       		.uleb128 0x5
 5793 1841 03       		.byte	0x3
 5794 1842 00000000 		.4byte	pathToPucks
 5795 1846 13       		.uleb128 0x13
 5796 1847 6D050000 		.4byte	.LASF55
 5797 184b 01       		.byte	0x1
 5798 184c 3C       		.byte	0x3c
 5799 184d 68000000 		.4byte	0x68
 5800 1851 05       		.uleb128 0x5
 5801 1852 03       		.byte	0x3
 5802 1853 00000000 		.4byte	pathPastBlock
 5803 1857 14       		.uleb128 0x14
 5804 1858 68000000 		.4byte	0x68
 5805 185c 67180000 		.4byte	0x1867
 5806 1860 15       		.uleb128 0x15
 5807 1861 9D000000 		.4byte	0x9d
 5808 1865 03       		.byte	0x3
 5809 1866 00       		.byte	0
 5810 1867 13       		.uleb128 0x13
 5811 1868 AE010000 		.4byte	.LASF56
 5812 186c 01       		.byte	0x1
 5813 186d 3D       		.byte	0x3d
 5814 186e 57180000 		.4byte	0x1857
 5815 1872 05       		.uleb128 0x5
 5816 1873 03       		.byte	0x3
 5817 1874 00000000 		.4byte	block_location
 5818 1878 13       		.uleb128 0x13
 5819 1879 E0030000 		.4byte	.LASF57
 5820 187d 01       		.byte	0x1
 5821 187e 42       		.byte	0x42
 5822 187f 57180000 		.4byte	0x1857
 5823 1883 05       		.uleb128 0x5
 5824 1884 03       		.byte	0x3
 5825 1885 00000000 		.4byte	puck_location
ARM GAS  C:\Users\Misha\AppData\Local\Temp\ccwkTl6l.s 			page 121


 5826 1889 13       		.uleb128 0x13
 5827 188a DE020000 		.4byte	.LASF58
 5828 188e 01       		.byte	0x1
 5829 188f 4C       		.byte	0x4c
 5830 1890 33000000 		.4byte	0x33
 5831 1894 05       		.uleb128 0x5
 5832 1895 03       		.byte	0x3
 5833 1896 00000000 		.4byte	blockEastClearance
 5834 189a 13       		.uleb128 0x13
 5835 189b 43060000 		.4byte	.LASF59
 5836 189f 01       		.byte	0x1
 5837 18a0 4D       		.byte	0x4d
 5838 18a1 33000000 		.4byte	0x33
 5839 18a5 05       		.uleb128 0x5
 5840 18a6 03       		.byte	0x3
 5841 18a7 00000000 		.4byte	blockWestClearance
 5842 18ab 13       		.uleb128 0x13
 5843 18ac C4060000 		.4byte	.LASF60
 5844 18b0 01       		.byte	0x1
 5845 18b1 4E       		.byte	0x4e
 5846 18b2 33000000 		.4byte	0x33
 5847 18b6 05       		.uleb128 0x5
 5848 18b7 03       		.byte	0x3
 5849 18b8 00000000 		.4byte	puckEastClearance
 5850 18bc 13       		.uleb128 0x13
 5851 18bd 05050000 		.4byte	.LASF61
 5852 18c1 01       		.byte	0x1
 5853 18c2 4F       		.byte	0x4f
 5854 18c3 33000000 		.4byte	0x33
 5855 18c7 05       		.uleb128 0x5
 5856 18c8 03       		.byte	0x3
 5857 18c9 00000000 		.4byte	puckWestClearance
 5858 18cd 13       		.uleb128 0x13
 5859 18ce 8A040000 		.4byte	.LASF62
 5860 18d2 01       		.byte	0x1
 5861 18d3 53       		.byte	0x53
 5862 18d4 68000000 		.4byte	0x68
 5863 18d8 05       		.uleb128 0x5
 5864 18d9 03       		.byte	0x3
 5865 18da 00000000 		.4byte	idac_value
 5866 18de 13       		.uleb128 0x13
 5867 18df 2C050000 		.4byte	.LASF63
 5868 18e3 01       		.byte	0x1
 5869 18e4 5C       		.byte	0x5c
 5870 18e5 EF180000 		.4byte	0x18ef
 5871 18e9 05       		.uleb128 0x5
 5872 18ea 03       		.byte	0x3
 5873 18eb 00000000 		.4byte	PLAN_SCAN_VERTICAL
 5874 18ef 17       		.uleb128 0x17
 5875 18f0 68000000 		.4byte	0x68
 5876 18f4 13       		.uleb128 0x13
 5877 18f5 F7060000 		.4byte	.LASF64
 5878 18f9 01       		.byte	0x1
 5879 18fa 62       		.byte	0x62
 5880 18fb 68000000 		.4byte	0x68
 5881 18ff 05       		.uleb128 0x5
 5882 1900 03       		.byte	0x3
ARM GAS  C:\Users\Misha\AppData\Local\Temp\ccwkTl6l.s 			page 122


 5883 1901 00000000 		.4byte	distance_returned_global
 5884 1905 18       		.uleb128 0x18
 5885 1906 E2010000 		.4byte	.LASF65
 5886 190a E2010000 		.4byte	.LASF65
 5887 190e 06       		.byte	0x6
 5888 190f 19       		.byte	0x19
 5889 1910 18       		.uleb128 0x18
 5890 1911 C5070000 		.4byte	.LASF66
 5891 1915 C5070000 		.4byte	.LASF66
 5892 1919 08       		.byte	0x8
 5893 191a 76       		.byte	0x76
 5894 191b 18       		.uleb128 0x18
 5895 191c 23000000 		.4byte	.LASF67
 5896 1920 23000000 		.4byte	.LASF67
 5897 1924 09       		.byte	0x9
 5898 1925 1D       		.byte	0x1d
 5899 1926 18       		.uleb128 0x18
 5900 1927 EE030000 		.4byte	.LASF68
 5901 192b EE030000 		.4byte	.LASF68
 5902 192f 0A       		.byte	0xa
 5903 1930 E7       		.byte	0xe7
 5904 1931 18       		.uleb128 0x18
 5905 1932 DA050000 		.4byte	.LASF69
 5906 1936 DA050000 		.4byte	.LASF69
 5907 193a 0B       		.byte	0xb
 5908 193b 8B       		.byte	0x8b
 5909 193c 18       		.uleb128 0x18
 5910 193d 47000000 		.4byte	.LASF70
 5911 1941 47000000 		.4byte	.LASF70
 5912 1945 05       		.byte	0x5
 5913 1946 10       		.byte	0x10
 5914 1947 18       		.uleb128 0x18
 5915 1948 D6060000 		.4byte	.LASF71
 5916 194c D6060000 		.4byte	.LASF71
 5917 1950 05       		.byte	0x5
 5918 1951 12       		.byte	0x12
 5919 1952 18       		.uleb128 0x18
 5920 1953 F6030000 		.4byte	.LASF72
 5921 1957 F6030000 		.4byte	.LASF72
 5922 195b 09       		.byte	0x9
 5923 195c 19       		.byte	0x19
 5924 195d 18       		.uleb128 0x18
 5925 195e B5020000 		.4byte	.LASF73
 5926 1962 B5020000 		.4byte	.LASF73
 5927 1966 0C       		.byte	0xc
 5928 1967 2F       		.byte	0x2f
 5929 1968 18       		.uleb128 0x18
 5930 1969 D9070000 		.4byte	.LASF74
 5931 196d D9070000 		.4byte	.LASF74
 5932 1971 0D       		.byte	0xd
 5933 1972 10       		.byte	0x10
 5934 1973 18       		.uleb128 0x18
 5935 1974 CE050000 		.4byte	.LASF75
 5936 1978 CE050000 		.4byte	.LASF75
 5937 197c 0D       		.byte	0xd
 5938 197d 0E       		.byte	0xe
 5939 197e 18       		.uleb128 0x18
ARM GAS  C:\Users\Misha\AppData\Local\Temp\ccwkTl6l.s 			page 123


 5940 197f 0E040000 		.4byte	.LASF76
 5941 1983 0E040000 		.4byte	.LASF76
 5942 1987 0D       		.byte	0xd
 5943 1988 0F       		.byte	0xf
 5944 1989 18       		.uleb128 0x18
 5945 198a F1040000 		.4byte	.LASF77
 5946 198e F1040000 		.4byte	.LASF77
 5947 1992 06       		.byte	0x6
 5948 1993 16       		.byte	0x16
 5949 1994 18       		.uleb128 0x18
 5950 1995 AC020000 		.4byte	.LASF78
 5951 1999 AC020000 		.4byte	.LASF78
 5952 199d 09       		.byte	0x9
 5953 199e 1C       		.byte	0x1c
 5954 199f 18       		.uleb128 0x18
 5955 19a0 62030000 		.4byte	.LASF79
 5956 19a4 62030000 		.4byte	.LASF79
 5957 19a8 05       		.byte	0x5
 5958 19a9 14       		.byte	0x14
 5959 19aa 18       		.uleb128 0x18
 5960 19ab 14020000 		.4byte	.LASF80
 5961 19af 14020000 		.4byte	.LASF80
 5962 19b3 0E       		.byte	0xe
 5963 19b4 0F       		.byte	0xf
 5964 19b5 18       		.uleb128 0x18
 5965 19b6 BA030000 		.4byte	.LASF81
 5966 19ba BA030000 		.4byte	.LASF81
 5967 19be 05       		.byte	0x5
 5968 19bf 0F       		.byte	0xf
 5969 19c0 18       		.uleb128 0x18
 5970 19c1 08000000 		.4byte	.LASF82
 5971 19c5 08000000 		.4byte	.LASF82
 5972 19c9 0E       		.byte	0xe
 5973 19ca 11       		.byte	0x11
 5974 19cb 18       		.uleb128 0x18
 5975 19cc 00000000 		.4byte	.LASF83
 5976 19d0 00000000 		.4byte	.LASF83
 5977 19d4 0E       		.byte	0xe
 5978 19d5 10       		.byte	0x10
 5979 19d6 18       		.uleb128 0x18
 5980 19d7 E5040000 		.4byte	.LASF84
 5981 19db E5040000 		.4byte	.LASF84
 5982 19df 0F       		.byte	0xf
 5983 19e0 3D       		.byte	0x3d
 5984 19e1 18       		.uleb128 0x18
 5985 19e2 55030000 		.4byte	.LASF85
 5986 19e6 55030000 		.4byte	.LASF85
 5987 19ea 0B       		.byte	0xb
 5988 19eb 54       		.byte	0x54
 5989 19ec 18       		.uleb128 0x18
 5990 19ed 6B020000 		.4byte	.LASF86
 5991 19f1 6B020000 		.4byte	.LASF86
 5992 19f5 10       		.byte	0x10
 5993 19f6 3A       		.byte	0x3a
 5994 19f7 18       		.uleb128 0x18
 5995 19f8 95040000 		.4byte	.LASF87
 5996 19fc 95040000 		.4byte	.LASF87
ARM GAS  C:\Users\Misha\AppData\Local\Temp\ccwkTl6l.s 			page 124


 5997 1a00 11       		.byte	0x11
 5998 1a01 3C       		.byte	0x3c
 5999 1a02 18       		.uleb128 0x18
 6000 1a03 23040000 		.4byte	.LASF88
 6001 1a07 23040000 		.4byte	.LASF88
 6002 1a0b 11       		.byte	0x11
 6003 1a0c 40       		.byte	0x40
 6004 1a0d 18       		.uleb128 0x18
 6005 1a0e 8E050000 		.4byte	.LASF89
 6006 1a12 8E050000 		.4byte	.LASF89
 6007 1a16 11       		.byte	0x11
 6008 1a17 41       		.byte	0x41
 6009 1a18 18       		.uleb128 0x18
 6010 1a19 6B040000 		.4byte	.LASF90
 6011 1a1d 6B040000 		.4byte	.LASF90
 6012 1a21 12       		.byte	0x12
 6013 1a22 2F       		.byte	0x2f
 6014 1a23 18       		.uleb128 0x18
 6015 1a24 A3040000 		.4byte	.LASF91
 6016 1a28 A3040000 		.4byte	.LASF91
 6017 1a2c 13       		.byte	0x13
 6018 1a2d 92       		.byte	0x92
 6019 1a2e 18       		.uleb128 0x18
 6020 1a2f 33030000 		.4byte	.LASF92
 6021 1a33 33030000 		.4byte	.LASF92
 6022 1a37 13       		.byte	0x13
 6023 1a38 C3       		.byte	0xc3
 6024 1a39 18       		.uleb128 0x18
 6025 1a3a 31010000 		.4byte	.LASF93
 6026 1a3e 31010000 		.4byte	.LASF93
 6027 1a42 13       		.byte	0x13
 6028 1a43 DC       		.byte	0xdc
 6029 1a44 18       		.uleb128 0x18
 6030 1a45 BD010000 		.4byte	.LASF94
 6031 1a49 BD010000 		.4byte	.LASF94
 6032 1a4d 14       		.byte	0x14
 6033 1a4e 92       		.byte	0x92
 6034 1a4f 18       		.uleb128 0x18
 6035 1a50 C6040000 		.4byte	.LASF95
 6036 1a54 C6040000 		.4byte	.LASF95
 6037 1a58 14       		.byte	0x14
 6038 1a59 C3       		.byte	0xc3
 6039 1a5a 18       		.uleb128 0x18
 6040 1a5b 00060000 		.4byte	.LASF96
 6041 1a5f 00060000 		.4byte	.LASF96
 6042 1a63 14       		.byte	0x14
 6043 1a64 DC       		.byte	0xdc
 6044 1a65 18       		.uleb128 0x18
 6045 1a66 C8030000 		.4byte	.LASF97
 6046 1a6a C8030000 		.4byte	.LASF97
 6047 1a6e 15       		.byte	0x15
 6048 1a6f 92       		.byte	0x92
 6049 1a70 18       		.uleb128 0x18
 6050 1a71 8E030000 		.4byte	.LASF98
 6051 1a75 8E030000 		.4byte	.LASF98
 6052 1a79 15       		.byte	0x15
 6053 1a7a DC       		.byte	0xdc
ARM GAS  C:\Users\Misha\AppData\Local\Temp\ccwkTl6l.s 			page 125


 6054 1a7b 18       		.uleb128 0x18
 6055 1a7c 93020000 		.4byte	.LASF99
 6056 1a80 93020000 		.4byte	.LASF99
 6057 1a84 16       		.byte	0x16
 6058 1a85 92       		.byte	0x92
 6059 1a86 18       		.uleb128 0x18
 6060 1a87 52020000 		.4byte	.LASF100
 6061 1a8b 52020000 		.4byte	.LASF100
 6062 1a8f 16       		.byte	0x16
 6063 1a90 DC       		.byte	0xdc
 6064 1a91 18       		.uleb128 0x18
 6065 1a92 B3000000 		.4byte	.LASF101
 6066 1a96 B3000000 		.4byte	.LASF101
 6067 1a9a 17       		.byte	0x17
 6068 1a9b 48       		.byte	0x48
 6069 1a9c 18       		.uleb128 0x18
 6070 1a9d 81000000 		.4byte	.LASF102
 6071 1aa1 81000000 		.4byte	.LASF102
 6072 1aa5 18       		.byte	0x18
 6073 1aa6 48       		.byte	0x48
 6074 1aa7 18       		.uleb128 0x18
 6075 1aa8 5F050000 		.4byte	.LASF103
 6076 1aac 5F050000 		.4byte	.LASF103
 6077 1ab0 19       		.byte	0x19
 6078 1ab1 5A       		.byte	0x5a
 6079 1ab2 18       		.uleb128 0x18
 6080 1ab3 59010000 		.4byte	.LASF104
 6081 1ab7 59010000 		.4byte	.LASF104
 6082 1abb 19       		.byte	0x19
 6083 1abc 5E       		.byte	0x5e
 6084 1abd 18       		.uleb128 0x18
 6085 1abe 73000000 		.4byte	.LASF105
 6086 1ac2 73000000 		.4byte	.LASF105
 6087 1ac6 1A       		.byte	0x1a
 6088 1ac7 18       		.byte	0x18
 6089 1ac8 18       		.uleb128 0x18
 6090 1ac9 C0050000 		.4byte	.LASF106
 6091 1acd C0050000 		.4byte	.LASF106
 6092 1ad1 1B       		.byte	0x1b
 6093 1ad2 18       		.byte	0x18
 6094 1ad3 18       		.uleb128 0x18
 6095 1ad4 B0060000 		.4byte	.LASF107
 6096 1ad8 B0060000 		.4byte	.LASF107
 6097 1adc 06       		.byte	0x6
 6098 1add 1A       		.byte	0x1a
 6099 1ade 18       		.uleb128 0x18
 6100 1adf 11000000 		.4byte	.LASF108
 6101 1ae3 11000000 		.4byte	.LASF108
 6102 1ae7 1C       		.byte	0x1c
 6103 1ae8 0E       		.byte	0xe
 6104 1ae9 00       		.byte	0
 6105              		.section	.debug_abbrev,"",%progbits
 6106              	.Ldebug_abbrev0:
 6107 0000 01       		.uleb128 0x1
 6108 0001 11       		.uleb128 0x11
 6109 0002 01       		.byte	0x1
 6110 0003 25       		.uleb128 0x25
ARM GAS  C:\Users\Misha\AppData\Local\Temp\ccwkTl6l.s 			page 126


 6111 0004 0E       		.uleb128 0xe
 6112 0005 13       		.uleb128 0x13
 6113 0006 0B       		.uleb128 0xb
 6114 0007 03       		.uleb128 0x3
 6115 0008 0E       		.uleb128 0xe
 6116 0009 1B       		.uleb128 0x1b
 6117 000a 0E       		.uleb128 0xe
 6118 000b 55       		.uleb128 0x55
 6119 000c 17       		.uleb128 0x17
 6120 000d 11       		.uleb128 0x11
 6121 000e 01       		.uleb128 0x1
 6122 000f 10       		.uleb128 0x10
 6123 0010 17       		.uleb128 0x17
 6124 0011 00       		.byte	0
 6125 0012 00       		.byte	0
 6126 0013 02       		.uleb128 0x2
 6127 0014 24       		.uleb128 0x24
 6128 0015 00       		.byte	0
 6129 0016 0B       		.uleb128 0xb
 6130 0017 0B       		.uleb128 0xb
 6131 0018 3E       		.uleb128 0x3e
 6132 0019 0B       		.uleb128 0xb
 6133 001a 03       		.uleb128 0x3
 6134 001b 0E       		.uleb128 0xe
 6135 001c 00       		.byte	0
 6136 001d 00       		.byte	0
 6137 001e 03       		.uleb128 0x3
 6138 001f 16       		.uleb128 0x16
 6139 0020 00       		.byte	0
 6140 0021 03       		.uleb128 0x3
 6141 0022 0E       		.uleb128 0xe
 6142 0023 3A       		.uleb128 0x3a
 6143 0024 0B       		.uleb128 0xb
 6144 0025 3B       		.uleb128 0x3b
 6145 0026 0B       		.uleb128 0xb
 6146 0027 49       		.uleb128 0x49
 6147 0028 13       		.uleb128 0x13
 6148 0029 00       		.byte	0
 6149 002a 00       		.byte	0
 6150 002b 04       		.uleb128 0x4
 6151 002c 24       		.uleb128 0x24
 6152 002d 00       		.byte	0
 6153 002e 0B       		.uleb128 0xb
 6154 002f 0B       		.uleb128 0xb
 6155 0030 3E       		.uleb128 0x3e
 6156 0031 0B       		.uleb128 0xb
 6157 0032 03       		.uleb128 0x3
 6158 0033 08       		.uleb128 0x8
 6159 0034 00       		.byte	0
 6160 0035 00       		.byte	0
 6161 0036 05       		.uleb128 0x5
 6162 0037 2E       		.uleb128 0x2e
 6163 0038 01       		.byte	0x1
 6164 0039 3F       		.uleb128 0x3f
 6165 003a 19       		.uleb128 0x19
 6166 003b 03       		.uleb128 0x3
 6167 003c 08       		.uleb128 0x8
ARM GAS  C:\Users\Misha\AppData\Local\Temp\ccwkTl6l.s 			page 127


 6168 003d 3A       		.uleb128 0x3a
 6169 003e 0B       		.uleb128 0xb
 6170 003f 3B       		.uleb128 0x3b
 6171 0040 0B       		.uleb128 0xb
 6172 0041 27       		.uleb128 0x27
 6173 0042 19       		.uleb128 0x19
 6174 0043 11       		.uleb128 0x11
 6175 0044 01       		.uleb128 0x1
 6176 0045 12       		.uleb128 0x12
 6177 0046 06       		.uleb128 0x6
 6178 0047 40       		.uleb128 0x40
 6179 0048 18       		.uleb128 0x18
 6180 0049 9742     		.uleb128 0x2117
 6181 004b 19       		.uleb128 0x19
 6182 004c 01       		.uleb128 0x1
 6183 004d 13       		.uleb128 0x13
 6184 004e 00       		.byte	0
 6185 004f 00       		.byte	0
 6186 0050 06       		.uleb128 0x6
 6187 0051 898201   		.uleb128 0x4109
 6188 0054 00       		.byte	0
 6189 0055 11       		.uleb128 0x11
 6190 0056 01       		.uleb128 0x1
 6191 0057 31       		.uleb128 0x31
 6192 0058 13       		.uleb128 0x13
 6193 0059 00       		.byte	0
 6194 005a 00       		.byte	0
 6195 005b 07       		.uleb128 0x7
 6196 005c 2E       		.uleb128 0x2e
 6197 005d 01       		.byte	0x1
 6198 005e 3F       		.uleb128 0x3f
 6199 005f 19       		.uleb128 0x19
 6200 0060 03       		.uleb128 0x3
 6201 0061 0E       		.uleb128 0xe
 6202 0062 3A       		.uleb128 0x3a
 6203 0063 0B       		.uleb128 0xb
 6204 0064 3B       		.uleb128 0x3b
 6205 0065 0B       		.uleb128 0xb
 6206 0066 27       		.uleb128 0x27
 6207 0067 19       		.uleb128 0x19
 6208 0068 11       		.uleb128 0x11
 6209 0069 01       		.uleb128 0x1
 6210 006a 12       		.uleb128 0x12
 6211 006b 06       		.uleb128 0x6
 6212 006c 40       		.uleb128 0x40
 6213 006d 18       		.uleb128 0x18
 6214 006e 9742     		.uleb128 0x2117
 6215 0070 19       		.uleb128 0x19
 6216 0071 01       		.uleb128 0x1
 6217 0072 13       		.uleb128 0x13
 6218 0073 00       		.byte	0
 6219 0074 00       		.byte	0
 6220 0075 08       		.uleb128 0x8
 6221 0076 898201   		.uleb128 0x4109
 6222 0079 01       		.byte	0x1
 6223 007a 11       		.uleb128 0x11
 6224 007b 01       		.uleb128 0x1
ARM GAS  C:\Users\Misha\AppData\Local\Temp\ccwkTl6l.s 			page 128


 6225 007c 31       		.uleb128 0x31
 6226 007d 13       		.uleb128 0x13
 6227 007e 00       		.byte	0
 6228 007f 00       		.byte	0
 6229 0080 09       		.uleb128 0x9
 6230 0081 8A8201   		.uleb128 0x410a
 6231 0084 00       		.byte	0
 6232 0085 02       		.uleb128 0x2
 6233 0086 18       		.uleb128 0x18
 6234 0087 9142     		.uleb128 0x2111
 6235 0089 18       		.uleb128 0x18
 6236 008a 00       		.byte	0
 6237 008b 00       		.byte	0
 6238 008c 0A       		.uleb128 0xa
 6239 008d 2E       		.uleb128 0x2e
 6240 008e 01       		.byte	0x1
 6241 008f 3F       		.uleb128 0x3f
 6242 0090 19       		.uleb128 0x19
 6243 0091 03       		.uleb128 0x3
 6244 0092 0E       		.uleb128 0xe
 6245 0093 3A       		.uleb128 0x3a
 6246 0094 0B       		.uleb128 0xb
 6247 0095 3B       		.uleb128 0x3b
 6248 0096 0B       		.uleb128 0xb
 6249 0097 27       		.uleb128 0x27
 6250 0098 19       		.uleb128 0x19
 6251 0099 49       		.uleb128 0x49
 6252 009a 13       		.uleb128 0x13
 6253 009b 8701     		.uleb128 0x87
 6254 009d 19       		.uleb128 0x19
 6255 009e 11       		.uleb128 0x11
 6256 009f 01       		.uleb128 0x1
 6257 00a0 12       		.uleb128 0x12
 6258 00a1 06       		.uleb128 0x6
 6259 00a2 40       		.uleb128 0x40
 6260 00a3 18       		.uleb128 0x18
 6261 00a4 9742     		.uleb128 0x2117
 6262 00a6 19       		.uleb128 0x19
 6263 00a7 01       		.uleb128 0x1
 6264 00a8 13       		.uleb128 0x13
 6265 00a9 00       		.byte	0
 6266 00aa 00       		.byte	0
 6267 00ab 0B       		.uleb128 0xb
 6268 00ac 34       		.uleb128 0x34
 6269 00ad 00       		.byte	0
 6270 00ae 03       		.uleb128 0x3
 6271 00af 0E       		.uleb128 0xe
 6272 00b0 3A       		.uleb128 0x3a
 6273 00b1 0B       		.uleb128 0xb
 6274 00b2 3B       		.uleb128 0x3b
 6275 00b3 0B       		.uleb128 0xb
 6276 00b4 49       		.uleb128 0x49
 6277 00b5 13       		.uleb128 0x13
 6278 00b6 1C       		.uleb128 0x1c
 6279 00b7 05       		.uleb128 0x5
 6280 00b8 00       		.byte	0
 6281 00b9 00       		.byte	0
ARM GAS  C:\Users\Misha\AppData\Local\Temp\ccwkTl6l.s 			page 129


 6282 00ba 0C       		.uleb128 0xc
 6283 00bb 0B       		.uleb128 0xb
 6284 00bc 01       		.byte	0x1
 6285 00bd 11       		.uleb128 0x11
 6286 00be 01       		.uleb128 0x1
 6287 00bf 12       		.uleb128 0x12
 6288 00c0 06       		.uleb128 0x6
 6289 00c1 01       		.uleb128 0x1
 6290 00c2 13       		.uleb128 0x13
 6291 00c3 00       		.byte	0
 6292 00c4 00       		.byte	0
 6293 00c5 0D       		.uleb128 0xd
 6294 00c6 34       		.uleb128 0x34
 6295 00c7 00       		.byte	0
 6296 00c8 03       		.uleb128 0x3
 6297 00c9 0E       		.uleb128 0xe
 6298 00ca 3A       		.uleb128 0x3a
 6299 00cb 0B       		.uleb128 0xb
 6300 00cc 3B       		.uleb128 0x3b
 6301 00cd 05       		.uleb128 0x5
 6302 00ce 49       		.uleb128 0x49
 6303 00cf 13       		.uleb128 0x13
 6304 00d0 02       		.uleb128 0x2
 6305 00d1 17       		.uleb128 0x17
 6306 00d2 00       		.byte	0
 6307 00d3 00       		.byte	0
 6308 00d4 0E       		.uleb128 0xe
 6309 00d5 34       		.uleb128 0x34
 6310 00d6 00       		.byte	0
 6311 00d7 03       		.uleb128 0x3
 6312 00d8 08       		.uleb128 0x8
 6313 00d9 3A       		.uleb128 0x3a
 6314 00da 0B       		.uleb128 0xb
 6315 00db 3B       		.uleb128 0x3b
 6316 00dc 05       		.uleb128 0x5
 6317 00dd 49       		.uleb128 0x49
 6318 00de 13       		.uleb128 0x13
 6319 00df 02       		.uleb128 0x2
 6320 00e0 17       		.uleb128 0x17
 6321 00e1 00       		.byte	0
 6322 00e2 00       		.byte	0
 6323 00e3 0F       		.uleb128 0xf
 6324 00e4 898201   		.uleb128 0x4109
 6325 00e7 01       		.byte	0x1
 6326 00e8 11       		.uleb128 0x11
 6327 00e9 01       		.uleb128 0x1
 6328 00ea 31       		.uleb128 0x31
 6329 00eb 13       		.uleb128 0x13
 6330 00ec 01       		.uleb128 0x1
 6331 00ed 13       		.uleb128 0x13
 6332 00ee 00       		.byte	0
 6333 00ef 00       		.byte	0
 6334 00f0 10       		.uleb128 0x10
 6335 00f1 0B       		.uleb128 0xb
 6336 00f2 01       		.byte	0x1
 6337 00f3 55       		.uleb128 0x55
 6338 00f4 17       		.uleb128 0x17
ARM GAS  C:\Users\Misha\AppData\Local\Temp\ccwkTl6l.s 			page 130


 6339 00f5 01       		.uleb128 0x1
 6340 00f6 13       		.uleb128 0x13
 6341 00f7 00       		.byte	0
 6342 00f8 00       		.byte	0
 6343 00f9 11       		.uleb128 0x11
 6344 00fa 34       		.uleb128 0x34
 6345 00fb 00       		.byte	0
 6346 00fc 03       		.uleb128 0x3
 6347 00fd 0E       		.uleb128 0xe
 6348 00fe 3A       		.uleb128 0x3a
 6349 00ff 0B       		.uleb128 0xb
 6350 0100 3B       		.uleb128 0x3b
 6351 0101 05       		.uleb128 0x5
 6352 0102 49       		.uleb128 0x49
 6353 0103 13       		.uleb128 0x13
 6354 0104 3F       		.uleb128 0x3f
 6355 0105 19       		.uleb128 0x19
 6356 0106 3C       		.uleb128 0x3c
 6357 0107 19       		.uleb128 0x19
 6358 0108 00       		.byte	0
 6359 0109 00       		.byte	0
 6360 010a 12       		.uleb128 0x12
 6361 010b 35       		.uleb128 0x35
 6362 010c 00       		.byte	0
 6363 010d 49       		.uleb128 0x49
 6364 010e 13       		.uleb128 0x13
 6365 010f 00       		.byte	0
 6366 0110 00       		.byte	0
 6367 0111 13       		.uleb128 0x13
 6368 0112 34       		.uleb128 0x34
 6369 0113 00       		.byte	0
 6370 0114 03       		.uleb128 0x3
 6371 0115 0E       		.uleb128 0xe
 6372 0116 3A       		.uleb128 0x3a
 6373 0117 0B       		.uleb128 0xb
 6374 0118 3B       		.uleb128 0x3b
 6375 0119 0B       		.uleb128 0xb
 6376 011a 49       		.uleb128 0x49
 6377 011b 13       		.uleb128 0x13
 6378 011c 3F       		.uleb128 0x3f
 6379 011d 19       		.uleb128 0x19
 6380 011e 02       		.uleb128 0x2
 6381 011f 18       		.uleb128 0x18
 6382 0120 00       		.byte	0
 6383 0121 00       		.byte	0
 6384 0122 14       		.uleb128 0x14
 6385 0123 01       		.uleb128 0x1
 6386 0124 01       		.byte	0x1
 6387 0125 49       		.uleb128 0x49
 6388 0126 13       		.uleb128 0x13
 6389 0127 01       		.uleb128 0x1
 6390 0128 13       		.uleb128 0x13
 6391 0129 00       		.byte	0
 6392 012a 00       		.byte	0
 6393 012b 15       		.uleb128 0x15
 6394 012c 21       		.uleb128 0x21
 6395 012d 00       		.byte	0
ARM GAS  C:\Users\Misha\AppData\Local\Temp\ccwkTl6l.s 			page 131


 6396 012e 49       		.uleb128 0x49
 6397 012f 13       		.uleb128 0x13
 6398 0130 2F       		.uleb128 0x2f
 6399 0131 0B       		.uleb128 0xb
 6400 0132 00       		.byte	0
 6401 0133 00       		.byte	0
 6402 0134 16       		.uleb128 0x16
 6403 0135 34       		.uleb128 0x34
 6404 0136 00       		.byte	0
 6405 0137 03       		.uleb128 0x3
 6406 0138 0E       		.uleb128 0xe
 6407 0139 3A       		.uleb128 0x3a
 6408 013a 0B       		.uleb128 0xb
 6409 013b 3B       		.uleb128 0x3b
 6410 013c 0B       		.uleb128 0xb
 6411 013d 49       		.uleb128 0x49
 6412 013e 13       		.uleb128 0x13
 6413 013f 3F       		.uleb128 0x3f
 6414 0140 19       		.uleb128 0x19
 6415 0141 3C       		.uleb128 0x3c
 6416 0142 19       		.uleb128 0x19
 6417 0143 00       		.byte	0
 6418 0144 00       		.byte	0
 6419 0145 17       		.uleb128 0x17
 6420 0146 26       		.uleb128 0x26
 6421 0147 00       		.byte	0
 6422 0148 49       		.uleb128 0x49
 6423 0149 13       		.uleb128 0x13
 6424 014a 00       		.byte	0
 6425 014b 00       		.byte	0
 6426 014c 18       		.uleb128 0x18
 6427 014d 2E       		.uleb128 0x2e
 6428 014e 00       		.byte	0
 6429 014f 3F       		.uleb128 0x3f
 6430 0150 19       		.uleb128 0x19
 6431 0151 3C       		.uleb128 0x3c
 6432 0152 19       		.uleb128 0x19
 6433 0153 6E       		.uleb128 0x6e
 6434 0154 0E       		.uleb128 0xe
 6435 0155 03       		.uleb128 0x3
 6436 0156 0E       		.uleb128 0xe
 6437 0157 3A       		.uleb128 0x3a
 6438 0158 0B       		.uleb128 0xb
 6439 0159 3B       		.uleb128 0x3b
 6440 015a 0B       		.uleb128 0xb
 6441 015b 00       		.byte	0
 6442 015c 00       		.byte	0
 6443 015d 00       		.byte	0
 6444              		.section	.debug_loc,"",%progbits
 6445              	.Ldebug_loc0:
 6446              	.LLST0:
 6447 0000 80010000 		.4byte	.LVL57
 6448 0004 86010000 		.4byte	.LVL58
 6449 0008 0200     		.2byte	0x2
 6450 000a 30       		.byte	0x30
 6451 000b 9F       		.byte	0x9f
 6452 000c 86010000 		.4byte	.LVL58
ARM GAS  C:\Users\Misha\AppData\Local\Temp\ccwkTl6l.s 			page 132


 6453 0010 A6010000 		.4byte	.LVL61
 6454 0014 0100     		.2byte	0x1
 6455 0016 52       		.byte	0x52
 6456 0017 00000000 		.4byte	0
 6457 001b 00000000 		.4byte	0
 6458              	.LLST1:
 6459 001f 2E010000 		.4byte	.LVL45
 6460 0023 32010000 		.4byte	.LVL46
 6461 0027 0200     		.2byte	0x2
 6462 0029 30       		.byte	0x30
 6463 002a 9F       		.byte	0x9f
 6464 002b 32010000 		.4byte	.LVL46
 6465 002f 54010000 		.4byte	.LVL51
 6466 0033 0100     		.2byte	0x1
 6467 0035 54       		.byte	0x54
 6468 0036 00000000 		.4byte	0
 6469 003a 00000000 		.4byte	0
 6470              	.LLST2:
 6471 003e 52010000 		.4byte	.LVL50
 6472 0042 56010000 		.4byte	.LVL52
 6473 0046 0200     		.2byte	0x2
 6474 0048 30       		.byte	0x30
 6475 0049 9F       		.byte	0x9f
 6476 004a 56010000 		.4byte	.LVL52
 6477 004e AA010000 		.4byte	.LVL63
 6478 0052 0100     		.2byte	0x1
 6479 0054 54       		.byte	0x54
 6480 0055 00000000 		.4byte	0
 6481 0059 00000000 		.4byte	0
 6482              	.LLST3:
 6483 005d 80010000 		.4byte	.LVL57
 6484 0061 86010000 		.4byte	.LVL58
 6485 0065 0200     		.2byte	0x2
 6486 0067 30       		.byte	0x30
 6487 0068 9F       		.byte	0x9f
 6488 0069 86010000 		.4byte	.LVL58
 6489 006d A8010000 		.4byte	.LVL62
 6490 0071 0100     		.2byte	0x1
 6491 0073 53       		.byte	0x53
 6492 0074 00000000 		.4byte	0
 6493 0078 00000000 		.4byte	0
 6494              	.LLST4:
 6495 007c 42020000 		.4byte	.LVL72
 6496 0080 A2030000 		.4byte	.LVL101
 6497 0084 0100     		.2byte	0x1
 6498 0086 54       		.byte	0x54
 6499 0087 00000000 		.4byte	0
 6500 008b 00000000 		.4byte	0
 6501              	.LLST5:
 6502 008f A0030000 		.4byte	.LVL100
 6503 0093 A2030000 		.4byte	.LVL101
 6504 0097 0400     		.2byte	0x4
 6505 0099 0A       		.byte	0xa
 6506 009a 9D03     		.2byte	0x39d
 6507 009c 9F       		.byte	0x9f
 6508 009d 00000000 		.4byte	0
 6509 00a1 00000000 		.4byte	0
ARM GAS  C:\Users\Misha\AppData\Local\Temp\ccwkTl6l.s 			page 133


 6510              	.LLST6:
 6511 00a5 1C050000 		.4byte	.LVL130
 6512 00a9 40050000 		.4byte	.LVL131
 6513 00ad 0200     		.2byte	0x2
 6514 00af 30       		.byte	0x30
 6515 00b0 9F       		.byte	0x9f
 6516 00b1 40050000 		.4byte	.LVL131
 6517 00b5 D4050000 		.4byte	.LVL148
 6518 00b9 0100     		.2byte	0x1
 6519 00bb 55       		.byte	0x55
 6520 00bc 00000000 		.4byte	0
 6521 00c0 00000000 		.4byte	0
 6522              	.LLST7:
 6523 00c4 58050000 		.4byte	.LVL135
 6524 00c8 5C050000 		.4byte	.LVL136
 6525 00cc 0100     		.2byte	0x1
 6526 00ce 50       		.byte	0x50
 6527 00cf 5C050000 		.4byte	.LVL136
 6528 00d3 A4050000 		.4byte	.LVL142
 6529 00d7 0100     		.2byte	0x1
 6530 00d9 54       		.byte	0x54
 6531 00da 00000000 		.4byte	0
 6532 00de 00000000 		.4byte	0
 6533              	.LLST8:
 6534 00e2 DE070000 		.4byte	.LVL194
 6535 00e6 1E090000 		.4byte	.LVL213
 6536 00ea 0100     		.2byte	0x1
 6537 00ec 55       		.byte	0x55
 6538 00ed 00000000 		.4byte	0
 6539 00f1 00000000 		.4byte	0
 6540              		.section	.debug_aranges,"",%progbits
 6541 0000 2C000000 		.4byte	0x2c
 6542 0004 0200     		.2byte	0x2
 6543 0006 00000000 		.4byte	.Ldebug_info0
 6544 000a 04       		.byte	0x4
 6545 000b 00       		.byte	0
 6546 000c 0000     		.2byte	0
 6547 000e 0000     		.2byte	0
 6548 0010 00000000 		.4byte	.LFB64
 6549 0014 08000000 		.4byte	.LFE64-.LFB64
 6550 0018 00000000 		.4byte	.LFB65
 6551 001c 20000000 		.4byte	.LFE65-.LFB65
 6552 0020 00000000 		.4byte	.LFB66
 6553 0024 F0090000 		.4byte	.LFE66-.LFB66
 6554 0028 00000000 		.4byte	0
 6555 002c 00000000 		.4byte	0
 6556              		.section	.debug_ranges,"",%progbits
 6557              	.Ldebug_ranges0:
 6558 0000 80010000 		.4byte	.LBB5
 6559 0004 82010000 		.4byte	.LBE5
 6560 0008 84010000 		.4byte	.LBB6
 6561 000c A4010000 		.4byte	.LBE6
 6562 0010 00000000 		.4byte	0
 6563 0014 00000000 		.4byte	0
 6564 0018 00000000 		.4byte	.LFB64
 6565 001c 08000000 		.4byte	.LFE64
 6566 0020 00000000 		.4byte	.LFB65
ARM GAS  C:\Users\Misha\AppData\Local\Temp\ccwkTl6l.s 			page 134


 6567 0024 20000000 		.4byte	.LFE65
 6568 0028 00000000 		.4byte	.LFB66
 6569 002c F0090000 		.4byte	.LFE66
 6570 0030 00000000 		.4byte	0
 6571 0034 00000000 		.4byte	0
 6572              		.section	.debug_line,"",%progbits
 6573              	.Ldebug_line0:
 6574 0000 18050000 		.section	.debug_str,"MS",%progbits,1
 6574      02001C03 
 6574      00000201 
 6574      FB0E0D00 
 6574      01010101 
 6575              	.LASF83:
 6576 0000 61726D4F 		.ascii	"armOpen\000"
 6576      70656E00 
 6577              	.LASF82:
 6578 0008 61726D43 		.ascii	"armClose\000"
 6578      6C6F7365 
 6578      00
 6579              	.LASF108:
 6580 0011 756C7469 		.ascii	"ultimateDebugging\000"
 6580      6D617465 
 6580      44656275 
 6580      6767696E 
 6580      6700
 6581              	.LASF67:
 6582 0023 636F6C6F 		.ascii	"colourSensingOutput\000"
 6582      75725365 
 6582      6E73696E 
 6582      674F7574 
 6582      70757400 
 6583              	.LASF36:
 6584 0037 7475726E 		.ascii	"turningLeftFlag\000"
 6584      696E674C 
 6584      65667446 
 6584      6C616700 
 6585              	.LASF70:
 6586 0047 73747261 		.ascii	"straightAdjust\000"
 6586      69676874 
 6586      41646A75 
 6586      737400
 6587              	.LASF2:
 6588 0056 73686F72 		.ascii	"short int\000"
 6588      7420696E 
 6588      7400
 6589              	.LASF34:
 6590 0060 64726976 		.ascii	"drivingForwardFlag\000"
 6590      696E6746 
 6590      6F727761 
 6590      7264466C 
 6590      616700
 6591              	.LASF105:
 6592 0073 536F6E69 		.ascii	"Sonic_StartEx\000"
 6592      635F5374 
 6592      61727445 
 6592      7800
 6593              	.LASF102:
ARM GAS  C:\Users\Misha\AppData\Local\Temp\ccwkTl6l.s 			page 135


 6594 0081 4D6F746F 		.ascii	"Motor_Right_Decoder_Start\000"
 6594      725F5269 
 6594      6768745F 
 6594      4465636F 
 6594      6465725F 
 6595              	.LASF10:
 6596 009b 696E7433 		.ascii	"int32_t\000"
 6596      325F7400 
 6597              	.LASF53:
 6598 00a3 62656769 		.ascii	"beginNavigation\000"
 6598      6E4E6176 
 6598      69676174 
 6598      696F6E00 
 6599              	.LASF101:
 6600 00b3 4D6F746F 		.ascii	"Motor_Left_Decoder_Start\000"
 6600      725F4C65 
 6600      66745F44 
 6600      65636F64 
 6600      65725F53 
 6601              	.LASF30:
 6602 00cc 7075636B 		.ascii	"puckRackOffsetsFromWest\000"
 6602      5261636B 
 6602      4F666673 
 6602      65747346 
 6602      726F6D57 
 6603              	.LASF14:
 6604 00e4 6C6F6E67 		.ascii	"long double\000"
 6604      20646F75 
 6604      626C6500 
 6605              	.LASF19:
 6606 00f0 7075636B 		.ascii	"puckRackIndex\000"
 6606      5261636B 
 6606      496E6465 
 6606      7800
 6607              	.LASF40:
 6608 00fe 756C7472 		.ascii	"ultrasonic_distances_mm\000"
 6608      61736F6E 
 6608      69635F64 
 6608      69737461 
 6608      6E636573 
 6609              	.LASF21:
 6610 0116 7075636B 		.ascii	"puck_check\000"
 6610      5F636865 
 6610      636B00
 6611              	.LASF44:
 6612 0121 756C7472 		.ascii	"ultrasonic_flag\000"
 6612      61736F6E 
 6612      69635F66 
 6612      6C616700 
 6613              	.LASF93:
 6614 0131 5261636B 		.ascii	"Rack_Servo_PWM_Sleep\000"
 6614      5F536572 
 6614      766F5F50 
 6614      574D5F53 
 6614      6C656570 
 6615              	.LASF52:
 6616 0146 686F7269 		.ascii	"horizontalPuckGrid\000"
ARM GAS  C:\Users\Misha\AppData\Local\Temp\ccwkTl6l.s 			page 136


 6616      7A6F6E74 
 6616      616C5075 
 6616      636B4772 
 6616      696400
 6617              	.LASF104:
 6618 0159 54696D65 		.ascii	"Timer_1_ReadStatusRegister\000"
 6618      725F315F 
 6618      52656164 
 6618      53746174 
 6618      75735265 
 6619              	.LASF31:
 6620 0174 73776565 		.ascii	"sweeping\000"
 6620      70696E67 
 6620      00
 6621              	.LASF27:
 6622 017d 64726976 		.ascii	"driveStraightEnable\000"
 6622      65537472 
 6622      61696768 
 6622      74456E61 
 6622      626C6500 
 6623              	.LASF50:
 6624 0191 63757272 		.ascii	"currentPuckStackSize\000"
 6624      656E7450 
 6624      75636B53 
 6624      7461636B 
 6624      53697A65 
 6625              	.LASF49:
 6626 01a6 72756E6E 		.ascii	"running\000"
 6626      696E6700 
 6627              	.LASF56:
 6628 01ae 626C6F63 		.ascii	"block_location\000"
 6628      6B5F6C6F 
 6628      63617469 
 6628      6F6E00
 6629              	.LASF94:
 6630 01bd 47726970 		.ascii	"Gripper_Servo_PWM_Start\000"
 6630      7065725F 
 6630      53657276 
 6630      6F5F5057 
 6630      4D5F5374 
 6631              	.LASF22:
 6632 01d5 7075636B 		.ascii	"puck_correct\000"
 6632      5F636F72 
 6632      72656374 
 6632      00
 6633              	.LASF65:
 6634 01e2 756C7472 		.ascii	"ultrasonicInterruptHandler\000"
 6634      61736F6E 
 6634      6963496E 
 6634      74657272 
 6634      75707448 
 6635              	.LASF37:
 6636 01fd 7475726E 		.ascii	"turningRightFlag\000"
 6636      696E6752 
 6636      69676874 
 6636      466C6167 
 6636      00
ARM GAS  C:\Users\Misha\AppData\Local\Temp\ccwkTl6l.s 			page 137


 6637              	.LASF11:
 6638 020e 666C6F61 		.ascii	"float\000"
 6638      7400
 6639              	.LASF80:
 6640 0214 6368616E 		.ascii	"changeHeightToPuck\000"
 6640      67654865 
 6640      69676874 
 6640      546F5075 
 6640      636B00
 6641              	.LASF6:
 6642 0227 6C6F6E67 		.ascii	"long long int\000"
 6642      206C6F6E 
 6642      6720696E 
 6642      7400
 6643              	.LASF17:
 6644 0235 626C6F63 		.ascii	"block_and_puck_edge_midpoint\000"
 6644      6B5F616E 
 6644      645F7075 
 6644      636B5F65 
 6644      6467655F 
 6645              	.LASF100:
 6646 0252 4D6F746F 		.ascii	"Motor_Right_Driver_Sleep\000"
 6646      725F5269 
 6646      6768745F 
 6646      44726976 
 6646      65725F53 
 6647              	.LASF86:
 6648 026b 4144435F 		.ascii	"ADC_Start\000"
 6648      53746172 
 6648      7400
 6649              	.LASF4:
 6650 0275 6C6F6E67 		.ascii	"long int\000"
 6650      20696E74 
 6650      00
 6651              	.LASF26:
 6652 027e 696E7465 		.ascii	"internal_orientation\000"
 6652      726E616C 
 6652      5F6F7269 
 6652      656E7461 
 6652      74696F6E 
 6653              	.LASF99:
 6654 0293 4D6F746F 		.ascii	"Motor_Right_Driver_Start\000"
 6654      725F5269 
 6654      6768745F 
 6654      44726976 
 6654      65725F53 
 6655              	.LASF78:
 6656 02ac 626C696E 		.ascii	"blinkLED\000"
 6656      6B4C4544 
 6656      00
 6657              	.LASF73:
 6658 02b5 636F6E74 		.ascii	"control_photodiode_Write\000"
 6658      726F6C5F 
 6658      70686F74 
 6658      6F64696F 
 6658      64655F57 
 6659              	.LASF48:
ARM GAS  C:\Users\Misha\AppData\Local\Temp\ccwkTl6l.s 			page 138


 6660 02ce 73616665 		.ascii	"safety_override\000"
 6660      74795F6F 
 6660      76657272 
 6660      69646500 
 6661              	.LASF58:
 6662 02de 626C6F63 		.ascii	"blockEastClearance\000"
 6662      6B456173 
 6662      74436C65 
 6662      6172616E 
 6662      636500
 6663              	.LASF33:
 6664 02f1 7075636B 		.ascii	"puckPileLocation\000"
 6664      50696C65 
 6664      4C6F6361 
 6664      74696F6E 
 6664      00
 6665              	.LASF35:
 6666 0302 64726976 		.ascii	"drivingBackwardFlag\000"
 6666      696E6742 
 6666      61636B77 
 6666      61726446 
 6666      6C616700 
 6667              	.LASF28:
 6668 0316 63757272 		.ascii	"currentPuckRackScanningIndex\000"
 6668      656E7450 
 6668      75636B52 
 6668      61636B53 
 6668      63616E6E 
 6669              	.LASF92:
 6670 0333 5261636B 		.ascii	"Rack_Servo_PWM_WriteCompare\000"
 6670      5F536572 
 6670      766F5F50 
 6670      574D5F57 
 6670      72697465 
 6671              	.LASF42:
 6672 034f 73746174 		.ascii	"state\000"
 6672      6500
 6673              	.LASF85:
 6674 0355 55415254 		.ascii	"UART_1_Start\000"
 6674      5F315F53 
 6674      74617274 
 6674      00
 6675              	.LASF79:
 6676 0362 6368616E 		.ascii	"changeOrientation\000"
 6676      67654F72 
 6676      69656E74 
 6676      6174696F 
 6676      6E00
 6677              	.LASF1:
 6678 0374 756E7369 		.ascii	"unsigned char\000"
 6678      676E6564 
 6678      20636861 
 6678      7200
 6679              	.LASF41:
 6680 0382 636F6C6F 		.ascii	"colour_flag\000"
 6680      75725F66 
 6680      6C616700 
ARM GAS  C:\Users\Misha\AppData\Local\Temp\ccwkTl6l.s 			page 139


 6681              	.LASF98:
 6682 038e 4D6F746F 		.ascii	"Motor_Left_Driver_Sleep\000"
 6682      725F4C65 
 6682      66745F44 
 6682      72697665 
 6682      725F536C 
 6683              	.LASF51:
 6684 03a6 7075636B 		.ascii	"puckColoursTempPile\000"
 6684      436F6C6F 
 6684      75727354 
 6684      656D7050 
 6684      696C6500 
 6685              	.LASF81:
 6686 03ba 6D6F7665 		.ascii	"moveUntilPuck\000"
 6686      556E7469 
 6686      6C507563 
 6686      6B00
 6687              	.LASF97:
 6688 03c8 4D6F746F 		.ascii	"Motor_Left_Driver_Start\000"
 6688      725F4C65 
 6688      66745F44 
 6688      72697665 
 6688      725F5374 
 6689              	.LASF57:
 6690 03e0 7075636B 		.ascii	"puck_location\000"
 6690      5F6C6F63 
 6690      6174696F 
 6690      6E00
 6691              	.LASF68:
 6692 03ee 73707269 		.ascii	"sprintf\000"
 6692      6E746600 
 6693              	.LASF72:
 6694 03f6 636F6C6F 		.ascii	"colourSensingInitialise\000"
 6694      75725365 
 6694      6E73696E 
 6694      67496E69 
 6694      7469616C 
 6695              	.LASF76:
 6696 040e 7472616E 		.ascii	"translateMoveDynamic\000"
 6696      736C6174 
 6696      654D6F76 
 6696      6544796E 
 6696      616D6963 
 6697              	.LASF88:
 6698 0423 49444143 		.ascii	"IDAC8_1_SetRange\000"
 6698      385F315F 
 6698      53657452 
 6698      616E6765 
 6698      00
 6699              	.LASF0:
 6700 0434 7369676E 		.ascii	"signed char\000"
 6700      65642063 
 6700      68617200 
 6701              	.LASF32:
 6702 0440 626C6F63 		.ascii	"block_edge_location\000"
 6702      6B5F6564 
 6702      67655F6C 
ARM GAS  C:\Users\Misha\AppData\Local\Temp\ccwkTl6l.s 			page 140


 6702      6F636174 
 6702      696F6E00 
 6703              	.LASF7:
 6704 0454 6C6F6E67 		.ascii	"long long unsigned int\000"
 6704      206C6F6E 
 6704      6720756E 
 6704      7369676E 
 6704      65642069 
 6705              	.LASF90:
 6706 046b 636F6E74 		.ascii	"control_led_Write\000"
 6706      726F6C5F 
 6706      6C65645F 
 6706      57726974 
 6706      6500
 6707              	.LASF8:
 6708 047d 756E7369 		.ascii	"unsigned int\000"
 6708      676E6564 
 6708      20696E74 
 6708      00
 6709              	.LASF62:
 6710 048a 69646163 		.ascii	"idac_value\000"
 6710      5F76616C 
 6710      756500
 6711              	.LASF87:
 6712 0495 49444143 		.ascii	"IDAC8_1_Start\000"
 6712      385F315F 
 6712      53746172 
 6712      7400
 6713              	.LASF91:
 6714 04a3 5261636B 		.ascii	"Rack_Servo_PWM_Start\000"
 6714      5F536572 
 6714      766F5F50 
 6714      574D5F53 
 6714      74617274 
 6715              	.LASF46:
 6716 04b8 63757272 		.ascii	"current_stage\000"
 6716      656E745F 
 6716      73746167 
 6716      6500
 6717              	.LASF95:
 6718 04c6 47726970 		.ascii	"Gripper_Servo_PWM_WriteCompare\000"
 6718      7065725F 
 6718      53657276 
 6718      6F5F5057 
 6718      4D5F5772 
 6719              	.LASF84:
 6720 04e5 5449415F 		.ascii	"TIA_1_Start\000"
 6720      315F5374 
 6720      61727400 
 6721              	.LASF77:
 6722 04f1 64697374 		.ascii	"distanceSensor\000"
 6722      616E6365 
 6722      53656E73 
 6722      6F7200
 6723              	.LASF13:
 6724 0500 63686172 		.ascii	"char\000"
 6724      00
ARM GAS  C:\Users\Misha\AppData\Local\Temp\ccwkTl6l.s 			page 141


 6725              	.LASF61:
 6726 0505 7075636B 		.ascii	"puckWestClearance\000"
 6726      57657374 
 6726      436C6561 
 6726      72616E63 
 6726      6500
 6727              	.LASF112:
 6728 0517 6D61696E 		.ascii	"main\000"
 6728      00
 6729              	.LASF29:
 6730 051c 7075636B 		.ascii	"puckRackColours\000"
 6730      5261636B 
 6730      436F6C6F 
 6730      75727300 
 6731              	.LASF63:
 6732 052c 504C414E 		.ascii	"PLAN_SCAN_VERTICAL\000"
 6732      5F534341 
 6732      4E5F5645 
 6732      52544943 
 6732      414C00
 6733              	.LASF47:
 6734 053f 636F6C6F 		.ascii	"colour_sensing_algorithm\000"
 6734      75725F73 
 6734      656E7369 
 6734      6E675F61 
 6734      6C676F72 
 6735              	.LASF43:
 6736 0558 6D6F7669 		.ascii	"moving\000"
 6736      6E6700
 6737              	.LASF103:
 6738 055f 54696D65 		.ascii	"Timer_1_Start\000"
 6738      725F315F 
 6738      53746172 
 6738      7400
 6739              	.LASF55:
 6740 056d 70617468 		.ascii	"pathPastBlock\000"
 6740      50617374 
 6740      426C6F63 
 6740      6B00
 6741              	.LASF3:
 6742 057b 73686F72 		.ascii	"short unsigned int\000"
 6742      7420756E 
 6742      7369676E 
 6742      65642069 
 6742      6E7400
 6743              	.LASF89:
 6744 058e 49444143 		.ascii	"IDAC8_1_SetValue\000"
 6744      385F315F 
 6744      53657456 
 6744      616C7565 
 6744      00
 6745              	.LASF110:
 6746 059f 6D61696E 		.ascii	"main.c\000"
 6746      2E6300
 6747              	.LASF16:
 6748 05a6 53746172 		.ascii	"StartIH\000"
 6748      74494800 
ARM GAS  C:\Users\Misha\AppData\Local\Temp\ccwkTl6l.s 			page 142


 6749              	.LASF5:
 6750 05ae 6C6F6E67 		.ascii	"long unsigned int\000"
 6750      20756E73 
 6750      69676E65 
 6750      6420696E 
 6750      7400
 6751              	.LASF106:
 6752 05c0 53746172 		.ascii	"Start_StartEx\000"
 6752      745F5374 
 6752      61727445 
 6752      7800
 6753              	.LASF75:
 6754 05ce 6D6F7665 		.ascii	"moveDynamic\000"
 6754      44796E61 
 6754      6D696300 
 6755              	.LASF69:
 6756 05da 55415254 		.ascii	"UART_1_PutString\000"
 6756      5F315F50 
 6756      75745374 
 6756      72696E67 
 6756      00
 6757              	.LASF45:
 6758 05eb 7075636B 		.ascii	"puckConstructionPlan\000"
 6758      436F6E73 
 6758      74727563 
 6758      74696F6E 
 6758      506C616E 
 6759              	.LASF96:
 6760 0600 47726970 		.ascii	"Gripper_Servo_PWM_Sleep\000"
 6760      7065725F 
 6760      53657276 
 6760      6F5F5057 
 6760      4D5F536C 
 6761              	.LASF24:
 6762 0618 68656C64 		.ascii	"heldColour\000"
 6762      436F6C6F 
 6762      757200
 6763              	.LASF20:
 6764 0623 626C6F63 		.ascii	"block_check\000"
 6764      6B5F6368 
 6764      65636B00 
 6765              	.LASF23:
 6766 062f 7075636B 		.ascii	"puck_scan\000"
 6766      5F736361 
 6766      6E00
 6767              	.LASF9:
 6768 0639 5F5F696E 		.ascii	"__int32_t\000"
 6768      7433325F 
 6768      7400
 6769              	.LASF59:
 6770 0643 626C6F63 		.ascii	"blockWestClearance\000"
 6770      6B576573 
 6770      74436C65 
 6770      6172616E 
 6770      636500
 6771              	.LASF111:
 6772 0656 433A5C55 		.ascii	"C:\\Users\\Misha\\Documents\\PSoC Creator\\ECE3091_"
ARM GAS  C:\Users\Misha\AppData\Local\Temp\ccwkTl6l.s 			page 143


 6772      73657273 
 6772      5C4D6973 
 6772      68615C44 
 6772      6F63756D 
 6773 0684 47726F75 		.ascii	"Group17\\Group17RobotReal\\Group17Robot.cydsn\000"
 6773      7031375C 
 6773      47726F75 
 6773      70313752 
 6773      6F626F74 
 6774              	.LASF107:
 6775 06b0 73616665 		.ascii	"safetyDistanceCheck\000"
 6775      74794469 
 6775      7374616E 
 6775      63654368 
 6775      65636B00 
 6776              	.LASF60:
 6777 06c4 7075636B 		.ascii	"puckEastClearance\000"
 6777      45617374 
 6777      436C6561 
 6777      72616E63 
 6777      6500
 6778              	.LASF71:
 6779 06d6 6D6F7665 		.ascii	"moveUntil\000"
 6779      556E7469 
 6779      6C00
 6780              	.LASF15:
 6781 06e0 73697A65 		.ascii	"sizetype\000"
 6781      74797065 
 6781      00
 6782              	.LASF39:
 6783 06e9 6F757470 		.ascii	"output\000"
 6783      757400
 6784              	.LASF12:
 6785 06f0 646F7562 		.ascii	"double\000"
 6785      6C6500
 6786              	.LASF64:
 6787 06f7 64697374 		.ascii	"distance_returned_global\000"
 6787      616E6365 
 6787      5F726574 
 6787      75726E65 
 6787      645F676C 
 6788              	.LASF25:
 6789 0710 49544D5F 		.ascii	"ITM_RxBuffer\000"
 6789      52784275 
 6789      66666572 
 6789      00
 6790              	.LASF109:
 6791 071d 474E5520 		.ascii	"GNU C11 5.4.1 20160609 (release) [ARM/embedded-5-br"
 6791      43313120 
 6791      352E342E 
 6791      31203230 
 6791      31363036 
 6792 0750 616E6368 		.ascii	"anch revision 237715] -mcpu=cortex-m3 -mthumb -g -O"
 6792      20726576 
 6792      6973696F 
 6792      6E203233 
 6792      37373135 
ARM GAS  C:\Users\Misha\AppData\Local\Temp\ccwkTl6l.s 			page 144


 6793 0783 67202D66 		.ascii	"g -ffunction-sections -ffat-lto-objects\000"
 6793      66756E63 
 6793      74696F6E 
 6793      2D736563 
 6793      74696F6E 
 6794              	.LASF18:
 6795 07ab 7075636B 		.ascii	"puckConstructionPlanIndex\000"
 6795      436F6E73 
 6795      74727563 
 6795      74696F6E 
 6795      506C616E 
 6796              	.LASF66:
 6797 07c5 43794465 		.ascii	"CyDelay\000"
 6797      6C617900 
 6798              	.LASF54:
 6799 07cd 70617468 		.ascii	"pathToPucks\000"
 6799      546F5075 
 6799      636B7300 
 6800              	.LASF74:
 6801 07d9 6D6F7665 		.ascii	"moveSwivel\000"
 6801      53776976 
 6801      656C00
 6802              	.LASF38:
 6803 07e4 696E6974 		.ascii	"initialisation\000"
 6803      69616C69 
 6803      73617469 
 6803      6F6E00
 6804              		.ident	"GCC: (GNU Tools for ARM Embedded Processors) 5.4.1 20160609 (release) [ARM/embedded-5-bran
