ARM GAS  C:\Users\Misha\AppData\Local\Temp\ccDk3wxj.s 			page 1


   1              		.syntax unified
   2              		.cpu cortex-m3
   3              		.fpu softvfp
   4              		.eabi_attribute 20, 1
   5              		.eabi_attribute 21, 1
   6              		.eabi_attribute 23, 3
   7              		.eabi_attribute 24, 1
   8              		.eabi_attribute 25, 1
   9              		.eabi_attribute 26, 1
  10              		.eabi_attribute 30, 1
  11              		.eabi_attribute 34, 1
  12              		.eabi_attribute 18, 4
  13              		.thumb
  14              		.syntax unified
  15              		.file	"main.c"
  16              		.text
  17              	.Ltext0:
  18              		.cfi_sections	.debug_frame
  19              		.section	.text.TIH,"ax",%progbits
  20              		.align	2
  21              		.global	TIH
  22              		.thumb
  23              		.thumb_func
  24              		.type	TIH, %function
  25              	TIH:
  26              	.LFB64:
  27              		.file 1 "main.c"
   1:main.c        ****  
   2:main.c        **** /* ========================================
   3:main.c        ****  *
   4:main.c        ****  * Copyright Group 17, 2019
   5:main.c        ****  * All Rights Reserved
   6:main.c        ****  * UNPUBLISHED, LICENSED SOFTWARE.
   7:main.c        ****  *
   8:main.c        ****  * CONFIDENTIAL AND PROPRIETARY INFORMATION
   9:main.c        ****  * WHICH IS THE PROPERTY OF Blayke, Misha, Nidhin.
  10:main.c        ****  *
  11:main.c        ****  * ========================================
  12:main.c        **** */
  13:main.c        **** 
  14:main.c        **** // * PSOC LIBRARY * //
  15:main.c        **** #include "project.h"
  16:main.c        **** 
  17:main.c        **** // * C LIBRARIES * // 
  18:main.c        **** #include <stdlib.h>
  19:main.c        **** #include <stdio.h>
  20:main.c        **** #include <math.h>
  21:main.c        **** 
  22:main.c        **** // * OUR LIBRARIES * //
  23:main.c        **** #include "main.h"
  24:main.c        **** #include "colour.h"
  25:main.c        **** #include "ultrasonic.h" 
  26:main.c        **** #include "servo.h"
  27:main.c        **** #include "motor.h"
  28:main.c        **** #include "customMath.h"
  29:main.c        **** #include "navigation.h"
  30:main.c        **** #include "debugging.h"
ARM GAS  C:\Users\Misha\AppData\Local\Temp\ccDk3wxj.s 			page 2


  31:main.c        **** 
  32:main.c        **** 
  33:main.c        **** extern char output[32];   
  34:main.c        **** 
  35:main.c        **** // * STATE VARIABLES * //
  36:main.c        **** int state = STATE_PRE_RUN;
  37:main.c        **** float block_edge_location[4] = {0,0,0,0}; // N E S W edge positions respectively
  38:main.c        **** 
  39:main.c        **** // * PUCK CONSTRUCTION VARIABLES * //
  40:main.c        **** int current_puck_stack_size = 0; // How many pucks are currently on the construction plate
  41:main.c        **** int puck_rack_scans[5] = {BLANK,BLANK,BLANK,BLANK,BLANK}; // 5 slots in puck rack.
  42:main.c        **** int puck_construction_plan[3] = {BLANK,BLANK,BLANK};
  43:main.c        **** int puck_rack_west_offsets[5] = {PUCK_RACK_0_WEST_DISTANCE,
  44:main.c        ****                                 PUCK_RACK_1_WEST_DISTANCE,
  45:main.c        ****                                 PUCK_RACK_2_WEST_DISTANCE,
  46:main.c        ****                                 PUCK_RACK_3_WEST_DISTANCE,
  47:main.c        ****                                 PUCK_RACK_4_WEST_DISTANCE };
  48:main.c        **** 
  49:main.c        **** int puck_temp_pile[2] = {BLANK,BLANK}; // Index 0 refers to east home base edge, 1 refers to west h
  50:main.c        **** 
  51:main.c        **** // * NAVIGATION AND POSITION VARIABLES * //
  52:main.c        **** 
  53:main.c        **** int begin_navigation = 0; // Allow us to break out of the intial phase when powered up
  54:main.c        **** int block_location[4] = {0,0,0,0};      // The block location values
  55:main.c        ****                                         //#define NORTH 0
  56:main.c        ****                                         //#define EAST 1
  57:main.c        ****                                         //#define SOUTH 2
  58:main.c        ****                                         //#define WEST 3
  59:main.c        **** int puck_location[4] = {0,0,0,0};       // The block location values
  60:main.c        ****                                         //#define NORTH 0
  61:main.c        ****                                         //#define EAST 1
  62:main.c        ****                                         //#define SOUTH 2
  63:main.c        ****                                         //#define WEST 3
  64:main.c        **** 
  65:main.c        **** int safety_override = FALSE;            
  66:main.c        **** 
  67:main.c        **** // These block clearance variables are only true if we have enough room either side of the block to
  68:main.c        **** // And only true for the puck clearance variables if there is enough room to be able to turn at the
  69:main.c        **** short int block_east_clearance = 0;
  70:main.c        **** short int block_west_clearance = 0;
  71:main.c        **** short int puck_east_clearance = 0;
  72:main.c        **** short int puck_west_clearance = 0;
  73:main.c        **** 
  74:main.c        **** // * COLOUR VARIABLES * //
  75:main.c        **** 
  76:main.c        **** int idac_value = 0;  
  77:main.c        **** int colour_flag = 1;                    // sets which photodiode to use 
  78:main.c        **** int colour_sensing_algorithm = 0;      // Determines which colour sensing algorithm to use:
  79:main.c        ****                                                 // 0: Wall algorithm
  80:main.c        ****                                             // 1: Claw algorithm
  81:main.c        ****                                                 // 2: old algorithm
  82:main.c        **** 
  83:main.c        **** int moving = 0; // Temp to stop while loop from repeated runs of scanning plan code
  84:main.c        **** 
  85:main.c        **** const int PLAN_SCAN_VERTICAL = 10; // Set to ultrasonic distance at the home base 
  86:main.c        **** 
  87:main.c        **** int current_stage = 1;      // There are 3 stages, we start at 1
ARM GAS  C:\Users\Misha\AppData\Local\Temp\ccDk3wxj.s 			page 3


  88:main.c        **** 
  89:main.c        **** 
  90:main.c        **** // GLOBAL VARIABLE
  91:main.c        **** int distance_returned_global;
  92:main.c        **** 
  93:main.c        **** 
  94:main.c        **** // * INTERRUPT HANDLING * // 
  95:main.c        **** CY_ISR(TIH)                             // Ultrasonic ISR Definition
  96:main.c        **** {
  28              		.loc 1 96 0
  29              		.cfi_startproc
  30              		@ args = 0, pretend = 0, frame = 0
  31              		@ frame_needed = 0, uses_anonymous_args = 0
  32 0000 08B5     		push	{r3, lr}
  33              		.cfi_def_cfa_offset 8
  34              		.cfi_offset 3, -8
  35              		.cfi_offset 14, -4
  97:main.c        ****     ultrasonicInterruptHandler();
  36              		.loc 1 97 0
  37 0002 FFF7FEFF 		bl	ultrasonicInterruptHandler
  38              	.LVL0:
  39 0006 08BD     		pop	{r3, pc}
  40              		.cfi_endproc
  41              	.LFE64:
  42              		.size	TIH, .-TIH
  43              		.section	.text.StartIH,"ax",%progbits
  44              		.align	2
  45              		.global	StartIH
  46              		.thumb
  47              		.thumb_func
  48              		.type	StartIH, %function
  49              	StartIH:
  50              	.LFB65:
  98:main.c        **** }
  99:main.c        **** 
 100:main.c        **** CY_ISR(StartIH)                             // Ultrasonic ISR Definition
 101:main.c        **** {
  51              		.loc 1 101 0
  52              		.cfi_startproc
  53              		@ args = 0, pretend = 0, frame = 0
  54              		@ frame_needed = 0, uses_anonymous_args = 0
  55 0000 08B5     		push	{r3, lr}
  56              		.cfi_def_cfa_offset 8
  57              		.cfi_offset 3, -8
  58              		.cfi_offset 14, -4
 102:main.c        ****     CyDelay(100);
  59              		.loc 1 102 0
  60 0002 6420     		movs	r0, #100
  61 0004 FFF7FEFF 		bl	CyDelay
  62              	.LVL1:
 103:main.c        ****     if (begin_navigation){
  63              		.loc 1 103 0
  64 0008 044B     		ldr	r3, .L6
  65 000a 1B68     		ldr	r3, [r3]
  66 000c 2BB1     		cbz	r3, .L3
 104:main.c        ****         UART_1_PutString("Beginning Navigation \n");
  67              		.loc 1 104 0
ARM GAS  C:\Users\Misha\AppData\Local\Temp\ccDk3wxj.s 			page 4


  68 000e 0448     		ldr	r0, .L6+4
  69 0010 FFF7FEFF 		bl	UART_1_PutString
  70              	.LVL2:
 105:main.c        ****         //state = STATE_SCAN_PLAN; // Put to this for competition
 106:main.c        ****         state = STATE_LOCATE_BLOCK_AND_PUCKS;
  71              		.loc 1 106 0
  72 0014 0222     		movs	r2, #2
  73 0016 014B     		ldr	r3, .L6
  74 0018 5A60     		str	r2, [r3, #4]
  75              	.L3:
  76 001a 08BD     		pop	{r3, pc}
  77              	.L7:
  78              		.align	2
  79              	.L6:
  80 001c 00000000 		.word	.LANCHOR0
  81 0020 00000000 		.word	.LC0
  82              		.cfi_endproc
  83              	.LFE65:
  84              		.size	StartIH, .-StartIH
  85              		.section	.text.SAIH,"ax",%progbits
  86              		.align	2
  87              		.global	SAIH
  88              		.thumb
  89              		.thumb_func
  90              		.type	SAIH, %function
  91              	SAIH:
  92              	.LFB66:
 107:main.c        ****     }
 108:main.c        **** }
 109:main.c        **** 
 110:main.c        **** CY_ISR(SAIH)                             // 
 111:main.c        **** {
  93              		.loc 1 111 0
  94              		.cfi_startproc
  95              		@ args = 0, pretend = 0, frame = 0
  96              		@ frame_needed = 0, uses_anonymous_args = 0
  97 0000 08B5     		push	{r3, lr}
  98              		.cfi_def_cfa_offset 8
  99              		.cfi_offset 3, -8
 100              		.cfi_offset 14, -4
 112:main.c        ****     // Set a global variable 
 113:main.c        ****     Motor_Left_Driver_Sleep();                  // puts it back to sleep
 101              		.loc 1 113 0
 102 0002 FFF7FEFF 		bl	Motor_Left_Driver_Sleep
 103              	.LVL3:
 114:main.c        ****     Motor_Right_Driver_Sleep();
 104              		.loc 1 114 0
 105 0006 FFF7FEFF 		bl	Motor_Right_Driver_Sleep
 106              	.LVL4:
 115:main.c        ****     moveDynamic(-20,SPEED,TRUE);                // calls movedynamic
 107              		.loc 1 115 0
 108 000a 0122     		movs	r2, #1
 109 000c C821     		movs	r1, #200
 110 000e 6FF01300 		mvn	r0, #19
 111 0012 FFF7FEFF 		bl	moveDynamic
 112              	.LVL5:
 116:main.c        ****     moveDynamic(20, SPEED,TRUE);      
ARM GAS  C:\Users\Misha\AppData\Local\Temp\ccDk3wxj.s 			page 5


 113              		.loc 1 116 0
 114 0016 0122     		movs	r2, #1
 115 0018 C821     		movs	r1, #200
 116 001a 1420     		movs	r0, #20
 117 001c FFF7FEFF 		bl	moveDynamic
 118              	.LVL6:
 117:main.c        ****     Motor_Left_Driver_Wakeup();
 119              		.loc 1 117 0
 120 0020 FFF7FEFF 		bl	Motor_Left_Driver_Wakeup
 121              	.LVL7:
 118:main.c        ****     Motor_Left_Driver_WriteCompare(SPEED); // brings it back to continue the while loop
 122              		.loc 1 118 0
 123 0024 C820     		movs	r0, #200
 124 0026 FFF7FEFF 		bl	Motor_Left_Driver_WriteCompare
 125              	.LVL8:
 119:main.c        ****     Motor_Right_Driver_Wakeup();
 126              		.loc 1 119 0
 127 002a FFF7FEFF 		bl	Motor_Right_Driver_Wakeup
 128              	.LVL9:
 120:main.c        ****     Motor_Right_Driver_WriteCompare(SPEED);
 129              		.loc 1 120 0
 130 002e C820     		movs	r0, #200
 131 0030 FFF7FEFF 		bl	Motor_Right_Driver_WriteCompare
 132              	.LVL10:
 133 0034 08BD     		pop	{r3, pc}
 134              		.cfi_endproc
 135              	.LFE66:
 136              		.size	SAIH, .-SAIH
 137              		.global	__aeabi_i2d
 138              		.global	__aeabi_dmul
 139              		.global	__aeabi_d2iz
 140 0036 00BF     		.section	.text.main,"ax",%progbits
 141              		.align	2
 142              		.global	main
 143              		.thumb
 144              		.thumb_func
 145              		.type	main, %function
 146              	main:
 147              	.LFB67:
 121:main.c        **** }
 122:main.c        ****  
 123:main.c        **** 
 124:main.c        **** int main(void)
 125:main.c        **** {
 148              		.loc 1 125 0
 149              		.cfi_startproc
 150              		@ args = 0, pretend = 0, frame = 0
 151              		@ frame_needed = 0, uses_anonymous_args = 0
 152 0000 2DE9F043 		push	{r4, r5, r6, r7, r8, r9, lr}
 153              		.cfi_def_cfa_offset 28
 154              		.cfi_offset 4, -28
 155              		.cfi_offset 5, -24
 156              		.cfi_offset 6, -20
 157              		.cfi_offset 7, -16
 158              		.cfi_offset 8, -12
 159              		.cfi_offset 9, -8
 160              		.cfi_offset 14, -4
ARM GAS  C:\Users\Misha\AppData\Local\Temp\ccDk3wxj.s 			page 6


 161 0004 83B0     		sub	sp, sp, #12
 162              		.cfi_def_cfa_offset 40
 126:main.c        ****     CyGlobalIntEnable; /* Enable global interrupts. */
 163              		.loc 1 126 0
 164              		.syntax unified
 165              	@ 126 "main.c" 1
 166 0006 62B6     		CPSIE   i
 167              	@ 0 "" 2
 127:main.c        **** 
 128:main.c        ****     
 129:main.c        ****     TIA_1_Start();
 168              		.loc 1 129 0
 169              		.thumb
 170              		.syntax unified
 171 0008 FFF7FEFF 		bl	TIA_1_Start
 172              	.LVL11:
 130:main.c        ****     UART_1_Start();
 173              		.loc 1 130 0
 174 000c FFF7FEFF 		bl	UART_1_Start
 175              	.LVL12:
 131:main.c        ****     UART_1_PutString("UART commencing... \n");
 176              		.loc 1 131 0
 177 0010 8E48     		ldr	r0, .L48
 178 0012 FFF7FEFF 		bl	UART_1_PutString
 179              	.LVL13:
 132:main.c        ****     ADC_Start();
 180              		.loc 1 132 0
 181 0016 FFF7FEFF 		bl	ADC_Start
 182              	.LVL14:
 133:main.c        ****     IDAC8_1_Start();
 183              		.loc 1 133 0
 184 001a FFF7FEFF 		bl	IDAC8_1_Start
 185              	.LVL15:
 134:main.c        ****     
 135:main.c        ****     // DEBUGGING:
 136:main.c        ****         // Moved to debugging.c file, set it there
 137:main.c        ****     
 138:main.c        ****     
 139:main.c        ****     // IDAC initialisation: 
 140:main.c        ****     IDAC8_1_SetRange(IDAC8_1_RANGE_32uA);       // Sets the range between 0 and 32uA
 186              		.loc 1 140 0
 187 001e 0020     		movs	r0, #0
 188 0020 FFF7FEFF 		bl	IDAC8_1_SetRange
 189              	.LVL16:
 141:main.c        ****     IDAC8_1_SetValue(idac_value);               // set a value between 0 and 255
 190              		.loc 1 141 0
 191 0024 8A4C     		ldr	r4, .L48+4
 192 0026 207A     		ldrb	r0, [r4, #8]	@ zero_extendqisi2
 193 0028 FFF7FEFF 		bl	IDAC8_1_SetValue
 194              	.LVL17:
 142:main.c        ****     
 143:main.c        ****     // Colour Sensing Initialisation & Debugging:
 144:main.c        ****     colour_sensing_algorithm = 0;
 195              		.loc 1 144 0
 196 002c 0025     		movs	r5, #0
 197 002e E560     		str	r5, [r4, #12]
 145:main.c        ****     control_photodiode_Write(colour_sensing_algorithm);            // controls which photodiode is 
ARM GAS  C:\Users\Misha\AppData\Local\Temp\ccDk3wxj.s 			page 7


 198              		.loc 1 145 0
 199 0030 2846     		mov	r0, r5
 200 0032 FFF7FEFF 		bl	control_photodiode_Write
 201              	.LVL18:
 146:main.c        ****                                                 // 0: wall
 147:main.c        ****                                                 // 1: claw
 148:main.c        ****     control_led_Write(1);   CyDelay(500);  // Ensures all the RGBs are working
 202              		.loc 1 148 0
 203 0036 0120     		movs	r0, #1
 204 0038 FFF7FEFF 		bl	control_led_Write
 205              	.LVL19:
 206 003c 4FF4FA70 		mov	r0, #500
 207 0040 FFF7FEFF 		bl	CyDelay
 208              	.LVL20:
 149:main.c        ****     control_led_Write(2);   CyDelay(500);
 209              		.loc 1 149 0
 210 0044 0220     		movs	r0, #2
 211 0046 FFF7FEFF 		bl	control_led_Write
 212              	.LVL21:
 213 004a 4FF4FA70 		mov	r0, #500
 214 004e FFF7FEFF 		bl	CyDelay
 215              	.LVL22:
 150:main.c        ****     control_led_Write(3);   CyDelay(500);
 216              		.loc 1 150 0
 217 0052 0320     		movs	r0, #3
 218 0054 FFF7FEFF 		bl	control_led_Write
 219              	.LVL23:
 220 0058 4FF4FA70 		mov	r0, #500
 221 005c FFF7FEFF 		bl	CyDelay
 222              	.LVL24:
 151:main.c        ****     control_led_Write(0);   CyDelay(500);
 223              		.loc 1 151 0
 224 0060 2846     		mov	r0, r5
 225 0062 FFF7FEFF 		bl	control_led_Write
 226              	.LVL25:
 227 0066 4FF4FA70 		mov	r0, #500
 228 006a FFF7FEFF 		bl	CyDelay
 229              	.LVL26:
 152:main.c        ****     colourSensingInitialise();                  // Initialises the colour sensor
 230              		.loc 1 152 0
 231 006e FFF7FEFF 		bl	colourSensingInitialise
 232              	.LVL27:
 153:main.c        ****     
 154:main.c        **** 
 155:main.c        ****     //Servos for the arm instatination
 156:main.c        ****     Rack_Servo_PWM_Start();
 233              		.loc 1 156 0
 234 0072 FFF7FEFF 		bl	Rack_Servo_PWM_Start
 235              	.LVL28:
 157:main.c        ****     Rack_Servo_PWM_WriteCompare(1000);          // BRINGs rack to highest position, so not to mess 
 236              		.loc 1 157 0
 237 0076 4FF47A70 		mov	r0, #1000
 238 007a FFF7FEFF 		bl	Rack_Servo_PWM_WriteCompare
 239              	.LVL29:
 158:main.c        ****     CyDelay(500);
 240              		.loc 1 158 0
 241 007e 4FF4FA70 		mov	r0, #500
ARM GAS  C:\Users\Misha\AppData\Local\Temp\ccDk3wxj.s 			page 8


 242 0082 FFF7FEFF 		bl	CyDelay
 243              	.LVL30:
 159:main.c        ****     Rack_Servo_PWM_Sleep();
 244              		.loc 1 159 0
 245 0086 FFF7FEFF 		bl	Rack_Servo_PWM_Sleep
 246              	.LVL31:
 160:main.c        ****     
 161:main.c        ****     Gripper_Servo_PWM_Start();
 247              		.loc 1 161 0
 248 008a FFF7FEFF 		bl	Gripper_Servo_PWM_Start
 249              	.LVL32:
 162:main.c        ****     Gripper_Servo_PWM_WriteCompare(1120);       //This is the open gripper position
 250              		.loc 1 162 0
 251 008e 4FF48C60 		mov	r0, #1120
 252 0092 FFF7FEFF 		bl	Gripper_Servo_PWM_WriteCompare
 253              	.LVL33:
 163:main.c        ****     CyDelay(500);
 254              		.loc 1 163 0
 255 0096 4FF4FA70 		mov	r0, #500
 256 009a FFF7FEFF 		bl	CyDelay
 257              	.LVL34:
 164:main.c        ****     Gripper_Servo_PWM_Sleep();
 258              		.loc 1 164 0
 259 009e FFF7FEFF 		bl	Gripper_Servo_PWM_Sleep
 260              	.LVL35:
 165:main.c        ****     
 166:main.c        ****     // Motors Initialisation:
 167:main.c        ****     Motor_Left_Driver_Start();
 261              		.loc 1 167 0
 262 00a2 FFF7FEFF 		bl	Motor_Left_Driver_Start
 263              	.LVL36:
 168:main.c        ****     Motor_Right_Driver_Start();
 264              		.loc 1 168 0
 265 00a6 FFF7FEFF 		bl	Motor_Right_Driver_Start
 266              	.LVL37:
 169:main.c        ****     Motor_Left_Driver_WriteCompare(0);          // sets the motors to 0 so it will be smooth next t
 267              		.loc 1 169 0
 268 00aa 2846     		mov	r0, r5
 269 00ac FFF7FEFF 		bl	Motor_Left_Driver_WriteCompare
 270              	.LVL38:
 170:main.c        ****     Motor_Right_Driver_WriteCompare(0);
 271              		.loc 1 170 0
 272 00b0 2846     		mov	r0, r5
 273 00b2 FFF7FEFF 		bl	Motor_Right_Driver_WriteCompare
 274              	.LVL39:
 171:main.c        ****     Motor_Left_Driver_Sleep();                  // Puts motor to sleep
 275              		.loc 1 171 0
 276 00b6 FFF7FEFF 		bl	Motor_Left_Driver_Sleep
 277              	.LVL40:
 172:main.c        ****     Motor_Right_Driver_Sleep();                 // Puts motor to sleep
 278              		.loc 1 172 0
 279 00ba FFF7FEFF 		bl	Motor_Right_Driver_Sleep
 280              	.LVL41:
 173:main.c        ****     
 174:main.c        ****     Motor_Left_Decoder_Start();
 281              		.loc 1 174 0
 282 00be FFF7FEFF 		bl	Motor_Left_Decoder_Start
ARM GAS  C:\Users\Misha\AppData\Local\Temp\ccDk3wxj.s 			page 9


 283              	.LVL42:
 175:main.c        ****     Motor_Right_Decoder_Start();
 284              		.loc 1 175 0
 285 00c2 FFF7FEFF 		bl	Motor_Right_Decoder_Start
 286              	.LVL43:
 176:main.c        ****     
 177:main.c        ****     internal_orientation = WEST;                // robot initial starts in the West direction
 287              		.loc 1 177 0
 288 00c6 0326     		movs	r6, #3
 289 00c8 624B     		ldr	r3, .L48+8
 290 00ca 1E60     		str	r6, [r3]
 178:main.c        ****     
 179:main.c        ****     // Timer and ISR instantiation
 180:main.c        ****     Timer_1_Start();                
 291              		.loc 1 180 0
 292 00cc FFF7FEFF 		bl	Timer_1_Start
 293              	.LVL44:
 181:main.c        ****     Timer_1_ReadStatusRegister();
 294              		.loc 1 181 0
 295 00d0 FFF7FEFF 		bl	Timer_1_ReadStatusRegister
 296              	.LVL45:
 182:main.c        ****     Sonic_StartEx(TIH);
 297              		.loc 1 182 0
 298 00d4 6048     		ldr	r0, .L48+12
 299 00d6 FFF7FEFF 		bl	Sonic_StartEx
 300              	.LVL46:
 183:main.c        ****     Start_StartEx(StartIH);
 301              		.loc 1 183 0
 302 00da 6048     		ldr	r0, .L48+16
 303 00dc FFF7FEFF 		bl	Start_StartEx
 304              	.LVL47:
 184:main.c        ****     Straight_StartEx(SAIH);
 305              		.loc 1 184 0
 306 00e0 5F48     		ldr	r0, .L48+20
 307 00e2 FFF7FEFF 		bl	Straight_StartEx
 308              	.LVL48:
 185:main.c        ****     begin_navigation = 1; // Set to true after it has run ISR at least once
 309              		.loc 1 185 0
 310 00e6 0127     		movs	r7, #1
 311 00e8 2760     		str	r7, [r4]
 186:main.c        ****     
 187:main.c        ****     // Ultrasonic Initialisation & Calibration:
 188:main.c        ****     // The ultrasonics take several test measurements to ensure they are working
 189:main.c        ****         
 190:main.c        ****     UART_1_PutString("Ultrasonic Calibration tests: \n");
 312              		.loc 1 190 0
 313 00ea 5E48     		ldr	r0, .L48+24
 314 00ec FFF7FEFF 		bl	UART_1_PutString
 315              	.LVL49:
 191:main.c        ****     safetyDistanceCheck();
 316              		.loc 1 191 0
 317 00f0 FFF7FEFF 		bl	safetyDistanceCheck
 318              	.LVL50:
 192:main.c        ****     safetyDistanceCheck();
 319              		.loc 1 192 0
 320 00f4 FFF7FEFF 		bl	safetyDistanceCheck
 321              	.LVL51:
ARM GAS  C:\Users\Misha\AppData\Local\Temp\ccDk3wxj.s 			page 10


 193:main.c        ****     safetyDistanceCheck();
 322              		.loc 1 193 0
 323 00f8 FFF7FEFF 		bl	safetyDistanceCheck
 324              	.LVL52:
 194:main.c        ****     
 195:main.c        ****     // Straight adjust timer: 
 196:main.c        ****     Timer_straight_adjust_Start();              
 325              		.loc 1 196 0
 326 00fc FFF7FEFF 		bl	Timer_straight_adjust_Start
 327              	.LVL53:
 197:main.c        ****     Timer_straight_adjust_ReadStatusRegister();
 328              		.loc 1 197 0
 329 0100 FFF7FEFF 		bl	Timer_straight_adjust_ReadStatusRegister
 330              	.LVL54:
 198:main.c        ****     //Control_Reset_Straight_Write(0);
 199:main.c        ****     
 200:main.c        ****     // FORCING STATE:
 201:main.c        ****     // Manual state set for testing
 202:main.c        ****     state = STATE_PRE_RUN;
 331              		.loc 1 202 0
 332 0104 6560     		str	r5, [r4, #4]
 203:main.c        ****     puck_construction_plan[0] = RED;
 333              		.loc 1 203 0
 334 0106 2761     		str	r7, [r4, #16]
 204:main.c        ****     puck_construction_plan[1] = GREEN;
 335              		.loc 1 204 0
 336 0108 0223     		movs	r3, #2
 337 010a 6361     		str	r3, [r4, #20]
 205:main.c        ****     puck_construction_plan[2] = BLUE;
 338              		.loc 1 205 0
 339 010c A661     		str	r6, [r4, #24]
 340              	.LVL55:
 341              	.L43:
 206:main.c        ****     int block_and_puck_edge_midpoint = 0;
 207:main.c        ****     
 208:main.c        **** 
 209:main.c        ****     // Main Loop for States
 210:main.c        ****     
 211:main.c        ****     //while(1){}
 212:main.c        ****     
 213:main.c        ****     for(;;)
 214:main.c        ****     {
 215:main.c        **** 
 216:main.c        ****         if (state == STATE_PRE_RUN){
 217:main.c        ****         
 218:main.c        ****         }
 219:main.c        **** 
 220:main.c        ****         while(0){
 221:main.c        ****             distanceSensor(SIDE_LEFT);
 222:main.c        ****             CyDelay(60);
 223:main.c        ****             sprintf(output, "%d \t", sensor_distances[SIDE_LEFT]);
 224:main.c        ****             UART_1_PutString(output);
 225:main.c        ****         }
 226:main.c        **** 
 227:main.c        **** // *** 1. STATE SCAN PLAN: *** // 
 228:main.c        **** //
 229:main.c        ****         
ARM GAS  C:\Users\Misha\AppData\Local\Temp\ccDk3wxj.s 			page 11


 230:main.c        ****       
 231:main.c        ****         if (state == STATE_SCAN_PLAN) {              // colour sensing, while switch has not been p
 342              		.loc 1 231 0
 343 010e 504B     		ldr	r3, .L48+4
 344 0110 5B68     		ldr	r3, [r3, #4]
 345 0112 012B     		cmp	r3, #1
 346 0114 78D1     		bne	.L11
 347              	.LBB2:
 232:main.c        **** 
 233:main.c        **** 
 234:main.c        ****             // Debugging: 
 235:main.c        **** 
 236:main.c        ****             ultimateDebugging();        // If any of the debugging flags are activated, this will b
 348              		.loc 1 236 0
 349 0116 FFF7FEFF 		bl	ultimateDebugging
 350              	.LVL56:
 237:main.c        ****             
 238:main.c        **** 
 239:main.c        ****             straightAdjust(FRONT_SENSORS);
 351              		.loc 1 239 0
 352 011a 0720     		movs	r0, #7
 353 011c FFF7FEFF 		bl	straightAdjust
 354              	.LVL57:
 240:main.c        ****             moveUntil(-100, BACKWARD, LESS_THAN, BACK_RIGHT, SPEED, TRUE);
 355              		.loc 1 240 0
 356 0120 0124     		movs	r4, #1
 357 0122 0194     		str	r4, [sp, #4]
 358 0124 C825     		movs	r5, #200
 359 0126 0095     		str	r5, [sp]
 360 0128 0423     		movs	r3, #4
 361 012a 1A46     		mov	r2, r3
 362 012c 0021     		movs	r1, #0
 363 012e 6FF06300 		mvn	r0, #99
 364 0132 FFF7FEFF 		bl	moveUntil
 365              	.LVL58:
 241:main.c        ****             moveUntil(400, FORWARD, LESS_THAN, FRONT_LEFT, SPEED, TRUE);
 366              		.loc 1 241 0
 367 0136 0194     		str	r4, [sp, #4]
 368 0138 0095     		str	r5, [sp]
 369 013a 0023     		movs	r3, #0
 370 013c 0422     		movs	r2, #4
 371 013e 2146     		mov	r1, r4
 372 0140 4FF4C870 		mov	r0, #400
 373 0144 FFF7FEFF 		bl	moveUntil
 374              	.LVL59:
 242:main.c        ****             moveDynamic(-450, SPEED, TRUE);
 375              		.loc 1 242 0
 376 0148 2246     		mov	r2, r4
 377 014a 2946     		mov	r1, r5
 378 014c 4648     		ldr	r0, .L48+28
 379 014e FFF7FEFF 		bl	moveDynamic
 380              	.LVL60:
 243:main.c        ****             CyDelay(500);   
 381              		.loc 1 243 0
 382 0152 4FF4FA70 		mov	r0, #500
 383 0156 FFF7FEFF 		bl	CyDelay
 384              	.LVL61:
ARM GAS  C:\Users\Misha\AppData\Local\Temp\ccDk3wxj.s 			page 12


 244:main.c        ****             colourSensingInitialise();      // Initialises wall colour sensor against the black wal
 385              		.loc 1 244 0
 386 015a FFF7FEFF 		bl	colourSensingInitialise
 387              	.LVL62:
 245:main.c        ****             CyDelay(500);
 388              		.loc 1 245 0
 389 015e 4FF4FA70 		mov	r0, #500
 390 0162 FFF7FEFF 		bl	CyDelay
 391              	.LVL63:
 246:main.c        ****             moveDynamic(170, SPEED, TRUE);
 392              		.loc 1 246 0
 393 0166 2246     		mov	r2, r4
 394 0168 2946     		mov	r1, r5
 395 016a AA20     		movs	r0, #170
 396 016c FFF7FEFF 		bl	moveDynamic
 397              	.LVL64:
 247:main.c        ****             CyDelay(500);
 398              		.loc 1 247 0
 399 0170 4FF4FA70 		mov	r0, #500
 400 0174 FFF7FEFF 		bl	CyDelay
 401              	.LVL65:
 402              	.LBB3:
 248:main.c        **** 
 249:main.c        ****             for (int i = 0; i < 5; i++) {                       // scan each of the pucks 
 403              		.loc 1 249 0
 404 0178 0024     		movs	r4, #0
 405 017a 14E0     		b	.L12
 406              	.LVL66:
 407              	.L13:
 250:main.c        ****                 puck_rack_scans[i] = colourSensingOutput();
 408              		.loc 1 250 0 discriminator 3
 409 017c FFF7FEFF 		bl	colourSensingOutput
 410              	.LVL67:
 411 0180 334D     		ldr	r5, .L48+4
 412 0182 05EB8405 		add	r5, r5, r4, lsl #2
 413 0186 E861     		str	r0, [r5, #28]
 251:main.c        ****                 CyDelay(500);
 414              		.loc 1 251 0 discriminator 3
 415 0188 4FF4FA70 		mov	r0, #500
 416 018c FFF7FEFF 		bl	CyDelay
 417              	.LVL68:
 252:main.c        ****                 moveDynamic(61, SPEED, TRUE);
 418              		.loc 1 252 0 discriminator 3
 419 0190 0122     		movs	r2, #1
 420 0192 C821     		movs	r1, #200
 421 0194 3D20     		movs	r0, #61
 422 0196 FFF7FEFF 		bl	moveDynamic
 423              	.LVL69:
 253:main.c        ****                 blinkLED(puck_rack_scans[i],500);   // Will show us which coloured puck it thinks i
 424              		.loc 1 253 0 discriminator 3
 425 019a 4FF4FA71 		mov	r1, #500
 426 019e E869     		ldr	r0, [r5, #28]
 427 01a0 FFF7FEFF 		bl	blinkLED
 428              	.LVL70:
 249:main.c        ****                 puck_rack_scans[i] = colourSensingOutput();
 429              		.loc 1 249 0 discriminator 3
 430 01a4 0134     		adds	r4, r4, #1
ARM GAS  C:\Users\Misha\AppData\Local\Temp\ccDk3wxj.s 			page 13


 431              	.LVL71:
 432              	.L12:
 249:main.c        ****                 puck_rack_scans[i] = colourSensingOutput();
 433              		.loc 1 249 0 is_stmt 0 discriminator 1
 434 01a6 042C     		cmp	r4, #4
 435 01a8 E8DD     		ble	.L13
 436              	.LBE3:
 254:main.c        ****             }
 255:main.c        ****             
 256:main.c        ****             //straightAdjust(FRONT_SENSORS);
 257:main.c        ****             //moveUntil(-100, BACKWARD, LESS_THAN, BACK, SPEED, TRUE);
 258:main.c        ****             //colourSensingInitialise();      // Initialises wall colour sensor against the black w
 259:main.c        ****                           
 260:main.c        ****             UART_1_PutString("Found Colours: \n");
 437              		.loc 1 260 0 is_stmt 1
 438 01aa 3048     		ldr	r0, .L48+32
 439 01ac FFF7FEFF 		bl	UART_1_PutString
 440              	.LVL72:
 441              	.LBB4:
 261:main.c        ****             for (int i = 0; i < 5; i++) 
 442              		.loc 1 261 0
 443 01b0 0024     		movs	r4, #0
 444              	.LVL73:
 445 01b2 0CE0     		b	.L14
 446              	.LVL74:
 447              	.L15:
 262:main.c        ****             {
 263:main.c        ****                 sprintf(output, "%i \n", puck_rack_scans[i]);    // updates UART showing values of 
 448              		.loc 1 263 0 discriminator 3
 449 01b4 264B     		ldr	r3, .L48+4
 450 01b6 03EB8403 		add	r3, r3, r4, lsl #2
 451 01ba 2D4D     		ldr	r5, .L48+36
 452 01bc DA69     		ldr	r2, [r3, #28]
 453 01be 2D49     		ldr	r1, .L48+40
 454 01c0 2846     		mov	r0, r5
 455 01c2 FFF7FEFF 		bl	sprintf
 456              	.LVL75:
 264:main.c        ****                 UART_1_PutString(output);
 457              		.loc 1 264 0 discriminator 3
 458 01c6 2846     		mov	r0, r5
 459 01c8 FFF7FEFF 		bl	UART_1_PutString
 460              	.LVL76:
 261:main.c        ****             for (int i = 0; i < 5; i++) 
 461              		.loc 1 261 0 discriminator 3
 462 01cc 0134     		adds	r4, r4, #1
 463              	.LVL77:
 464              	.L14:
 261:main.c        ****             for (int i = 0; i < 5; i++) 
 465              		.loc 1 261 0 is_stmt 0 discriminator 1
 466 01ce 042C     		cmp	r4, #4
 467 01d0 F0DD     		ble	.L15
 468              	.LBE4:
 265:main.c        ****             }
 266:main.c        ****             
 267:main.c        ****             
 268:main.c        ****             control_photodiode_Write(CLAW_SENSING);    // changes to claw photodiode
 469              		.loc 1 268 0 is_stmt 1
ARM GAS  C:\Users\Misha\AppData\Local\Temp\ccDk3wxj.s 			page 14


 470 01d2 0120     		movs	r0, #1
 471 01d4 FFF7FEFF 		bl	control_photodiode_Write
 472              	.LVL78:
 269:main.c        ****             colour_sensing_algorithm = CLAW_1_ALGORITHM;   // changes it to claw algorithm
 473              		.loc 1 269 0
 474 01d8 0122     		movs	r2, #1
 475 01da 1D4B     		ldr	r3, .L48+4
 476 01dc DA60     		str	r2, [r3, #12]
 477              	.LVL79:
 478              	.LBB5:
 270:main.c        ****                                  
 271:main.c        ****             // THEN WE FILTER THE NO PUCK VALUES:
 272:main.c        ****             int puck_construction_plan_index = 0; // Will be used to iterate through the 3 puck col
 273:main.c        ****             
 274:main.c        ****             // Iterate over all 5 rack slots and place the 3 colours into puck_construction_plan.
 275:main.c        ****             for (int puck_rack_index = 0; puck_rack_index < 5; puck_rack_index++){
 479              		.loc 1 275 0
 480 01de 0023     		movs	r3, #0
 481              	.LBE5:
 272:main.c        ****             
 482              		.loc 1 272 0
 483 01e0 1A46     		mov	r2, r3
 484              	.LBB6:
 485              		.loc 1 275 0
 486 01e2 0CE0     		b	.L16
 487              	.LVL80:
 488              	.L18:
 276:main.c        ****                 if (puck_rack_scans[puck_rack_index] != BLANK && puck_construction_plan_index != 3)
 489              		.loc 1 276 0
 490 01e4 1A49     		ldr	r1, .L48+4
 491 01e6 01EB8301 		add	r1, r1, r3, lsl #2
 492 01ea C869     		ldr	r0, [r1, #28]
 493 01ec 30B1     		cbz	r0, .L17
 494              		.loc 1 276 0 is_stmt 0 discriminator 1
 495 01ee 032A     		cmp	r2, #3
 496 01f0 04D0     		beq	.L17
 277:main.c        ****                     puck_construction_plan[puck_construction_plan_index] = puck_rack_scans[puck_rac
 497              		.loc 1 277 0 is_stmt 1
 498 01f2 1749     		ldr	r1, .L48+4
 499 01f4 01EB8201 		add	r1, r1, r2, lsl #2
 500 01f8 0861     		str	r0, [r1, #16]
 278:main.c        ****                     puck_construction_plan_index++;
 501              		.loc 1 278 0
 502 01fa 0132     		adds	r2, r2, #1
 503              	.LVL81:
 504              	.L17:
 275:main.c        ****                 if (puck_rack_scans[puck_rack_index] != BLANK && puck_construction_plan_index != 3)
 505              		.loc 1 275 0 discriminator 2
 506 01fc 0133     		adds	r3, r3, #1
 507              	.LVL82:
 508              	.L16:
 275:main.c        ****                 if (puck_rack_scans[puck_rack_index] != BLANK && puck_construction_plan_index != 3)
 509              		.loc 1 275 0 is_stmt 0 discriminator 1
 510 01fe 042B     		cmp	r3, #4
 511 0200 F0DD     		ble	.L18
 512              	.LBE6:
 279:main.c        ****                 }
ARM GAS  C:\Users\Misha\AppData\Local\Temp\ccDk3wxj.s 			page 15


 280:main.c        ****             }
 281:main.c        ****                     
 282:main.c        ****             // MOVE into the next state: 
 283:main.c        ****             state = STATE_LOCATE_BLOCK_AND_PUCKS;
 513              		.loc 1 283 0 is_stmt 1
 514 0202 0222     		movs	r2, #2
 515              	.LVL83:
 516 0204 124B     		ldr	r3, .L48+4
 517              	.LVL84:
 518 0206 5A60     		str	r2, [r3, #4]
 519              	.LVL85:
 520              	.L11:
 521              	.LBE2:
 284:main.c        **** 
 285:main.c        ****         }
 286:main.c        **** 
 287:main.c        **** //
 288:main.c        **** // *** 2. STATE LOCATE BLOCKS AND PUCKS: *** // 
 289:main.c        **** //
 290:main.c        ****         
 291:main.c        ****     	if (state == STATE_LOCATE_BLOCK_AND_PUCKS){
 522              		.loc 1 291 0
 523 0208 114B     		ldr	r3, .L48+4
 524 020a 5B68     		ldr	r3, [r3, #4]
 525 020c 022B     		cmp	r3, #2
 526 020e 40F05D81 		bne	.L19
 527              	.LBB7:
 292:main.c        ****             
 293:main.c        ****             ultimateDebugging();   
 528              		.loc 1 293 0
 529 0212 FFF7FEFF 		bl	ultimateDebugging
 530              	.LVL86:
 294:main.c        **** 
 295:main.c        ****             // move away from home base:
 296:main.c        ****             
 297:main.c        ****             translateMoveDynamic(35, -35, 100, FALSE);
 531              		.loc 1 297 0
 532 0216 0023     		movs	r3, #0
 533 0218 6422     		movs	r2, #100
 534 021a 6FF02201 		mvn	r1, #34
 535 021e 2320     		movs	r0, #35
 536 0220 FFF7FEFF 		bl	translateMoveDynamic
 537              	.LVL87:
 298:main.c        ****             //straightAdjust(FRONT_SENSORS);
 299:main.c        ****     
 300:main.c        ****             // Move until construction zone            
 301:main.c        ****             moveUntil(130, FORWARD, LESS_THAN, FRONT_LEFT, SPEED, TRUE);  // Move to west wall
 538              		.loc 1 301 0
 539 0224 0121     		movs	r1, #1
 540 0226 0191     		str	r1, [sp, #4]
 541 0228 C823     		movs	r3, #200
 542 022a 0093     		str	r3, [sp]
 543 022c 0023     		movs	r3, #0
 544 022e 0422     		movs	r2, #4
 545 0230 8220     		movs	r0, #130
 546 0232 FFF7FEFF 		bl	moveUntil
 547              	.LVL88:
ARM GAS  C:\Users\Misha\AppData\Local\Temp\ccDk3wxj.s 			page 16


 302:main.c        ****             straightAdjust(FRONT_SENSORS);                                      // straighten again
 548              		.loc 1 302 0
 549 0236 0720     		movs	r0, #7
 550 0238 FFF7FEFF 		bl	straightAdjust
 551              	.LVL89:
 303:main.c        ****             
 304:main.c        ****             
 305:main.c        ****             distanceSensor(SIDE_LEFT);  // takes how far we are away from home base wall
 552              		.loc 1 305 0
 553 023c 0220     		movs	r0, #2
 554 023e FFF7FEFF 		bl	distanceSensor
 555              	.LVL90:
 306:main.c        ****             CyDelay(50);
 556              		.loc 1 306 0
 557 0242 3220     		movs	r0, #50
 558 0244 FFF7FEFF 		bl	CyDelay
 559              	.LVL91:
 307:main.c        ****             while (sensor_distances[SIDE_LEFT] > (BLOCK_ZONE_SOUTH - WIDTH_SENSOR_TO_SENSOR)) {
 560              		.loc 1 307 0
 561 0248 1CE0     		b	.L20
 562              	.L49:
 563 024a 00BF     		.align	2
 564              	.L48:
 565 024c 18000000 		.word	.LC1
 566 0250 00000000 		.word	.LANCHOR0
 567 0254 00000000 		.word	internal_orientation
 568 0258 00000000 		.word	TIH
 569 025c 00000000 		.word	StartIH
 570 0260 00000000 		.word	SAIH
 571 0264 30000000 		.word	.LC2
 572 0268 3EFEFFFF 		.word	-450
 573 026c 50000000 		.word	.LC3
 574 0270 00000000 		.word	output
 575 0274 64000000 		.word	.LC4
 576              	.L21:
 308:main.c        ****                 // stays in while loop until side left value taken is appropriate
 309:main.c        ****                 // E.g. the side left value should be less than BLOCK_ZONE_SOUTH - WIDTH_SENSOR_TO_
 310:main.c        ****                 // So, it should be less than 500mm - 220mm = 280mm
 311:main.c        ****                 distanceSensor(SIDE_LEFT);
 577              		.loc 1 311 0
 578 0278 0220     		movs	r0, #2
 579 027a FFF7FEFF 		bl	distanceSensor
 580              	.LVL92:
 312:main.c        ****                 CyDelay(50);
 581              		.loc 1 312 0
 582 027e 3220     		movs	r0, #50
 583 0280 FFF7FEFF 		bl	CyDelay
 584              	.LVL93:
 585              	.L20:
 307:main.c        ****             while (sensor_distances[SIDE_LEFT] > (BLOCK_ZONE_SOUTH - WIDTH_SENSOR_TO_SENSOR)) {
 586              		.loc 1 307 0
 587 0284 B24B     		ldr	r3, .L50+8
 588 0286 9C68     		ldr	r4, [r3, #8]
 589 0288 B4F58C7F 		cmp	r4, #280
 590 028c F4DC     		bgt	.L21
 313:main.c        ****                 } 
 314:main.c        ****             
ARM GAS  C:\Users\Misha\AppData\Local\Temp\ccDk3wxj.s 			page 17


 315:main.c        ****             int block_threshold = BLOCK_ZONE_NORTH - sensor_distances[SIDE_LEFT] - WIDTH_SENSOR_TO_
 591              		.loc 1 315 0
 592 028e C4F50375 		rsb	r5, r4, #524
 593 0292 0135     		adds	r5, r5, #1
 594              	.LVL94:
 316:main.c        ****             int puck_threshold = ARENA_LENGTH - (PUCK_GRID_FROM_NORTH/2) - sensor_distances[SIDE_LE
 595              		.loc 1 316 0
 596 0294 C4F55274 		rsb	r4, r4, #840
 597 0298 0334     		adds	r4, r4, #3
 598              	.LVL95:
 317:main.c        ****             
 318:main.c        ****             // SCAN FOR BLOCKS OR PUCKS:
 319:main.c        ****             
 320:main.c        ****             sprintf(output, "block threshold: %d \n", block_threshold);
 599              		.loc 1 320 0
 600 029a AE4E     		ldr	r6, .L50+12
 601 029c 2A46     		mov	r2, r5
 602 029e AE49     		ldr	r1, .L50+16
 603 02a0 3046     		mov	r0, r6
 604 02a2 FFF7FEFF 		bl	sprintf
 605              	.LVL96:
 321:main.c        ****             UART_1_PutString(output);
 606              		.loc 1 321 0
 607 02a6 3046     		mov	r0, r6
 608 02a8 FFF7FEFF 		bl	UART_1_PutString
 609              	.LVL97:
 322:main.c        ****             
 323:main.c        ****             sprintf(output, "puck threshold: %d \n", puck_threshold);
 610              		.loc 1 323 0
 611 02ac 2246     		mov	r2, r4
 612 02ae AB49     		ldr	r1, .L50+20
 613 02b0 3046     		mov	r0, r6
 614 02b2 FFF7FEFF 		bl	sprintf
 615              	.LVL98:
 324:main.c        ****             UART_1_PutString(output);
 616              		.loc 1 324 0
 617 02b6 3046     		mov	r0, r6
 618 02b8 FFF7FEFF 		bl	UART_1_PutString
 619              	.LVL99:
 325:main.c        ****             
 326:main.c        ****             // Check if we hit the puck or the blocks: 
 327:main.c        ****             moveUntil(puck_threshold, BACKWARD, LESS_THAN, SIDE_RIGHT, SPEED, TRUE);   
 620              		.loc 1 327 0
 621 02bc 0123     		movs	r3, #1
 622 02be 0193     		str	r3, [sp, #4]
 623 02c0 C823     		movs	r3, #200
 624 02c2 0093     		str	r3, [sp]
 625 02c4 0323     		movs	r3, #3
 626 02c6 0422     		movs	r2, #4
 627 02c8 0021     		movs	r1, #0
 628 02ca 2046     		mov	r0, r4
 629 02cc FFF7FEFF 		bl	moveUntil
 630              	.LVL100:
 328:main.c        ****             
 329:main.c        ****     // HIT THE BLOCK FIRST
 330:main.c        ****             if (sensor_distances[SIDE_RIGHT] < block_threshold) {
 631              		.loc 1 330 0
ARM GAS  C:\Users\Misha\AppData\Local\Temp\ccDk3wxj.s 			page 18


 632 02d0 9F4B     		ldr	r3, .L50+8
 633 02d2 DB68     		ldr	r3, [r3, #12]
 634 02d4 9D42     		cmp	r5, r3
 635 02d6 6EDD     		ble	.L22
 636              	.LBB8:
 331:main.c        ****                 // We have hit the west side of the block
 332:main.c        ****                 blinkLED(GREEN,1000);   
 637              		.loc 1 332 0
 638 02d8 4FF47A71 		mov	r1, #1000
 639 02dc 0220     		movs	r0, #2
 640 02de FFF7FEFF 		bl	blinkLED
 641              	.LVL101:
 333:main.c        ****                 
 334:main.c        ****                 // Find the WEST clearance of the block: 
 335:main.c        ****                 distanceSensor(FRONT_LEFT); // Use front_right instead? 
 642              		.loc 1 335 0
 643 02e2 0020     		movs	r0, #0
 644 02e4 FFF7FEFF 		bl	distanceSensor
 645              	.LVL102:
 336:main.c        ****                 CyDelay(DELAY);
 646              		.loc 1 336 0
 647 02e8 3C20     		movs	r0, #60
 648 02ea FFF7FEFF 		bl	CyDelay
 649              	.LVL103:
 337:main.c        ****                 block_location[WEST] = sensor_distances[FRONT_LEFT] + DISTANCE_FRONT_SENSOR_TO_SIDE
 650              		.loc 1 337 0
 651 02ee 984E     		ldr	r6, .L50+8
 652 02f0 3368     		ldr	r3, [r6]
 653 02f2 9633     		adds	r3, r3, #150
 654 02f4 DFF86C92 		ldr	r9, .L50+28
 655 02f8 C9F83C30 		str	r3, [r9, #60]
 338:main.c        ****                 
 339:main.c        ****                 // Stopping at the East side of the block:
 340:main.c        ****                 moveDynamic(-BLOCK_WIDTH/2,SPEED,TRUE);
 656              		.loc 1 340 0
 657 02fc 0122     		movs	r2, #1
 658 02fe C821     		movs	r1, #200
 659 0300 6FF02C00 		mvn	r0, #44
 660 0304 FFF7FEFF 		bl	moveDynamic
 661              	.LVL104:
 341:main.c        ****                 moveUntil(block_threshold, BACKWARD, GREATER_THAN, SIDE_RIGHT, SPEED, TRUE);  
 662              		.loc 1 341 0
 663 0308 4FF00108 		mov	r8, #1
 664 030c CDF80480 		str	r8, [sp, #4]
 665 0310 C827     		movs	r7, #200
 666 0312 0097     		str	r7, [sp]
 667 0314 0323     		movs	r3, #3
 668 0316 0522     		movs	r2, #5
 669 0318 0021     		movs	r1, #0
 670 031a 2846     		mov	r0, r5
 671 031c FFF7FEFF 		bl	moveUntil
 672              	.LVL105:
 342:main.c        ****                                     // this will move backwards until no longer hitting the block, 
 343:main.c        ****                 blinkLED(GREEN,1000);      // To show it ended at the correct spot
 673              		.loc 1 343 0
 674 0320 4FF47A71 		mov	r1, #1000
 675 0324 0220     		movs	r0, #2
ARM GAS  C:\Users\Misha\AppData\Local\Temp\ccDk3wxj.s 			page 19


 676 0326 FFF7FEFF 		bl	blinkLED
 677              	.LVL106:
 344:main.c        ****                 
 345:main.c        ****                 // Updating the East Clearance:
 346:main.c        ****                 distanceSensor(FRONT_LEFT);     // checks how far we have travelled
 678              		.loc 1 346 0
 679 032a 0020     		movs	r0, #0
 680 032c FFF7FEFF 		bl	distanceSensor
 681              	.LVL107:
 347:main.c        ****                 CyDelay(50);
 682              		.loc 1 347 0
 683 0330 3220     		movs	r0, #50
 684 0332 FFF7FEFF 		bl	CyDelay
 685              	.LVL108:
 348:main.c        ****                 block_location[EAST] = sensor_distances[FRONT_LEFT] + DISTANCE_BACK_SENSOR_TO_SIDE_
 686              		.loc 1 348 0
 687 0336 3368     		ldr	r3, [r6]
 688 0338 6433     		adds	r3, r3, #100
 689 033a C9F83430 		str	r3, [r9, #52]
 349:main.c        ****                                                             // double check the distance back senso
 350:main.c        ****                  
 351:main.c        ****                 // Find where the pucks are: 
 352:main.c        ****                 moveDynamic(-BLOCK_WIDTH/2,SPEED,TRUE);
 690              		.loc 1 352 0
 691 033e 4246     		mov	r2, r8
 692 0340 3946     		mov	r1, r7
 693 0342 6FF02C00 		mvn	r0, #44
 694 0346 FFF7FEFF 		bl	moveDynamic
 695              	.LVL109:
 353:main.c        ****                 moveUntil(puck_threshold, BACKWARD, LESS_THAN, SIDE_RIGHT, SPEED, TRUE);  
 696              		.loc 1 353 0
 697 034a CDF80480 		str	r8, [sp, #4]
 698 034e 0097     		str	r7, [sp]
 699 0350 0323     		movs	r3, #3
 700 0352 0422     		movs	r2, #4
 701 0354 0021     		movs	r1, #0
 702 0356 2046     		mov	r0, r4
 703 0358 FFF7FEFF 		bl	moveUntil
 704              	.LVL110:
 354:main.c        ****                 
 355:main.c        ****                 int offset = sensor_distances[SIDE_RIGHT]*sin(18*M_PI/180);
 705              		.loc 1 355 0
 706 035c F068     		ldr	r0, [r6, #12]
 707 035e FFF7FEFF 		bl	__aeabi_i2d
 708              	.LVL111:
 709 0362 79A3     		adr	r3, .L50
 710 0364 D3E90023 		ldrd	r2, [r3]
 711 0368 FFF7FEFF 		bl	__aeabi_dmul
 712              	.LVL112:
 713 036c FFF7FEFF 		bl	__aeabi_d2iz
 714              	.LVL113:
 715 0370 0446     		mov	r4, r0
 716              	.LVL114:
 356:main.c        ****                 if (sensor_distances[FRONT_LEFT] < 300) { offset = 0; }      // set the offset to 0
 717              		.loc 1 356 0
 718 0372 3368     		ldr	r3, [r6]
 719 0374 B3F5967F 		cmp	r3, #300
ARM GAS  C:\Users\Misha\AppData\Local\Temp\ccDk3wxj.s 			page 20


 720 0378 00DA     		bge	.L23
 721 037a 0024     		movs	r4, #0
 722              	.L23:
 723              	.LVL115:
 357:main.c        ****                 // puck detected
 358:main.c        ****                 // puck detectedDISTANCE_FRONT_SENSOR_TO_SIDE_SENSOR\\\\
 359:main.c        ****                 
 360:main.c        ****                 sprintf(output, "offset: %d, \n", offset);       
 724              		.loc 1 360 0
 725 037c 754D     		ldr	r5, .L50+12
 726              	.LVL116:
 727 037e 2246     		mov	r2, r4
 728 0380 7749     		ldr	r1, .L50+24
 729 0382 2846     		mov	r0, r5
 730 0384 FFF7FEFF 		bl	sprintf
 731              	.LVL117:
 361:main.c        ****                 UART_1_PutString(output);
 732              		.loc 1 361 0
 733 0388 2846     		mov	r0, r5
 734 038a FFF7FEFF 		bl	UART_1_PutString
 735              	.LVL118:
 362:main.c        ****                 
 363:main.c        ****                 puck_location[EAST] = sensor_distances[FRONT_LEFT] + DISTANCE_FRONT_SENSOR_TO_SIDE_
 736              		.loc 1 363 0
 737 038e 704B     		ldr	r3, .L50+8
 738 0390 1B68     		ldr	r3, [r3]
 739 0392 9633     		adds	r3, r3, #150
 740 0394 2344     		add	r3, r3, r4
 741 0396 734C     		ldr	r4, .L50+28
 742              	.LVL119:
 743 0398 6364     		str	r3, [r4, #68]
 364:main.c        ****                 puck_location[WEST] = ARENA_WIDTH - puck_location[EAST] - PUCK_GRID_WIDTH;
 744              		.loc 1 364 0
 745 039a 40F2A235 		movw	r5, #930
 746 039e EB1A     		subs	r3, r5, r3
 747 03a0 E364     		str	r3, [r4, #76]
 365:main.c        ****                 
 366:main.c        ****                 blinkLED(BLUE,1000);   // puck location was succesfully found                    
 748              		.loc 1 366 0
 749 03a2 4FF47A71 		mov	r1, #1000
 750 03a6 0320     		movs	r0, #3
 751 03a8 FFF7FEFF 		bl	blinkLED
 752              	.LVL120:
 367:main.c        ****                     
 368:main.c        ****                 // if we reach the end of the wall without tripping the pucks, 
 369:main.c        ****                 // assume pucks are located relatively above block
 370:main.c        ****                 if (BACK_LEFT < 150) { 
 371:main.c        ****                     puck_location[EAST] = block_location[EAST];
 753              		.loc 1 371 0
 754 03ac 636B     		ldr	r3, [r4, #52]
 755 03ae 6364     		str	r3, [r4, #68]
 372:main.c        ****                     puck_location[WEST] = ARENA_WIDTH - puck_location[EAST] - PUCK_GRID_WIDTH;
 756              		.loc 1 372 0
 757 03b0 ED1A     		subs	r5, r5, r3
 758 03b2 E564     		str	r5, [r4, #76]
 759 03b4 67E0     		b	.L24
 760              	.LVL121:
ARM GAS  C:\Users\Misha\AppData\Local\Temp\ccDk3wxj.s 			page 21


 761              	.L22:
 762              	.LBE8:
 763              	.LBB9:
 373:main.c        ****                 }
 374:main.c        ****                 
 375:main.c        ****                 
 376:main.c        ****             }
 377:main.c        ****     // HIT THE PUCK FIRST  
 378:main.c        ****             else{ 
 379:main.c        ****                 
 380:main.c        ****                 // puck location was succesfully found   
 381:main.c        ****             
 382:main.c        ****                 blinkLED(BLUE,1000);     
 764              		.loc 1 382 0
 765 03b6 4FF47A71 		mov	r1, #1000
 766 03ba 0320     		movs	r0, #3
 767 03bc FFF7FEFF 		bl	blinkLED
 768              	.LVL122:
 383:main.c        ****                 distanceSensor(FRONT_LEFT);
 769              		.loc 1 383 0
 770 03c0 0020     		movs	r0, #0
 771 03c2 FFF7FEFF 		bl	distanceSensor
 772              	.LVL123:
 384:main.c        ****                 CyDelay(50);
 773              		.loc 1 384 0
 774 03c6 3220     		movs	r0, #50
 775 03c8 FFF7FEFF 		bl	CyDelay
 776              	.LVL124:
 385:main.c        ****                 
 386:main.c        ****                 int offset = sensor_distances[SIDE_RIGHT]*sin(18*M_PI/180);
 777              		.loc 1 386 0
 778 03cc 604E     		ldr	r6, .L50+8
 779 03ce F068     		ldr	r0, [r6, #12]
 780 03d0 FFF7FEFF 		bl	__aeabi_i2d
 781              	.LVL125:
 782 03d4 5CA3     		adr	r3, .L50
 783 03d6 D3E90023 		ldrd	r2, [r3]
 784 03da FFF7FEFF 		bl	__aeabi_dmul
 785              	.LVL126:
 786 03de FFF7FEFF 		bl	__aeabi_d2iz
 787              	.LVL127:
 788 03e2 0446     		mov	r4, r0
 789              	.LVL128:
 387:main.c        ****                 if (sensor_distances[FRONT_LEFT] < 300) { offset = 0; }      // set the offset to 0
 790              		.loc 1 387 0
 791 03e4 3368     		ldr	r3, [r6]
 792 03e6 B3F5967F 		cmp	r3, #300
 793 03ea 00DA     		bge	.L25
 794 03ec 0024     		movs	r4, #0
 795              	.L25:
 796              	.LVL129:
 388:main.c        ****                 
 389:main.c        ****                 sprintf(output, "offset: %d, \n", offset);       
 797              		.loc 1 389 0
 798 03ee 594E     		ldr	r6, .L50+12
 799 03f0 2246     		mov	r2, r4
 800 03f2 5B49     		ldr	r1, .L50+24
ARM GAS  C:\Users\Misha\AppData\Local\Temp\ccDk3wxj.s 			page 22


 801 03f4 3046     		mov	r0, r6
 802 03f6 FFF7FEFF 		bl	sprintf
 803              	.LVL130:
 390:main.c        ****                 UART_1_PutString(output);
 804              		.loc 1 390 0
 805 03fa 3046     		mov	r0, r6
 806 03fc FFF7FEFF 		bl	UART_1_PutString
 807              	.LVL131:
 391:main.c        ****                 
 392:main.c        ****                 puck_location[EAST] = sensor_distances[FRONT_LEFT] + DISTANCE_FRONT_SENSOR_TO_SIDE_
 808              		.loc 1 392 0
 809 0400 534E     		ldr	r6, .L50+8
 810 0402 3368     		ldr	r3, [r6]
 811 0404 9633     		adds	r3, r3, #150
 812 0406 2344     		add	r3, r3, r4
 813 0408 564C     		ldr	r4, .L50+28
 814              	.LVL132:
 815 040a 6364     		str	r3, [r4, #68]
 393:main.c        ****                 puck_location[WEST] = ARENA_WIDTH - puck_location[EAST] - PUCK_GRID_WIDTH;
 816              		.loc 1 393 0
 817 040c C3F56873 		rsb	r3, r3, #928
 818 0410 0233     		adds	r3, r3, #2
 819 0412 E364     		str	r3, [r4, #76]
 394:main.c        ****                 
 395:main.c        ****                 
 396:main.c        ****                 // Finding the block location:
 397:main.c        ****                 moveUntil(block_threshold, BACKWARD, LESS_THAN, SIDE_RIGHT, SPEED, TRUE);  
 820              		.loc 1 397 0
 821 0414 4FF00108 		mov	r8, #1
 822 0418 CDF80480 		str	r8, [sp, #4]
 823 041c C827     		movs	r7, #200
 824 041e 0097     		str	r7, [sp]
 825 0420 0323     		movs	r3, #3
 826 0422 0422     		movs	r2, #4
 827 0424 0021     		movs	r1, #0
 828 0426 2846     		mov	r0, r5
 829 0428 FFF7FEFF 		bl	moveUntil
 830              	.LVL133:
 398:main.c        ****                 blinkLED(GREEN,1000);   
 831              		.loc 1 398 0
 832 042c 4FF47A71 		mov	r1, #1000
 833 0430 0220     		movs	r0, #2
 834 0432 FFF7FEFF 		bl	blinkLED
 835              	.LVL134:
 399:main.c        ****                 
 400:main.c        ****                 // Find the WEST clearance of the block: 
 401:main.c        ****                 distanceSensor(FRONT_LEFT); // Use front_right instead? 
 836              		.loc 1 401 0
 837 0436 0020     		movs	r0, #0
 838 0438 FFF7FEFF 		bl	distanceSensor
 839              	.LVL135:
 402:main.c        ****                 CyDelay(DELAY);
 840              		.loc 1 402 0
 841 043c 3C20     		movs	r0, #60
 842 043e FFF7FEFF 		bl	CyDelay
 843              	.LVL136:
 403:main.c        ****                 block_location[WEST] = sensor_distances[FRONT_LEFT] + DISTANCE_FRONT_SENSOR_TO_SIDE
ARM GAS  C:\Users\Misha\AppData\Local\Temp\ccDk3wxj.s 			page 23


 844              		.loc 1 403 0
 845 0442 3368     		ldr	r3, [r6]
 846 0444 9633     		adds	r3, r3, #150
 847 0446 E363     		str	r3, [r4, #60]
 404:main.c        ****                 
 405:main.c        ****                 // Stopping at the East side of the block: 
 406:main.c        ****                 moveDynamic(-BLOCK_WIDTH/2,SPEED,TRUE);
 848              		.loc 1 406 0
 849 0448 4246     		mov	r2, r8
 850 044a 3946     		mov	r1, r7
 851 044c 6FF02C00 		mvn	r0, #44
 852 0450 FFF7FEFF 		bl	moveDynamic
 853              	.LVL137:
 407:main.c        ****                 moveUntil(block_threshold, BACKWARD, GREATER_THAN, SIDE_RIGHT, SPEED, TRUE);  
 854              		.loc 1 407 0
 855 0454 CDF80480 		str	r8, [sp, #4]
 856 0458 0097     		str	r7, [sp]
 857 045a 0323     		movs	r3, #3
 858 045c 0522     		movs	r2, #5
 859 045e 0021     		movs	r1, #0
 860 0460 2846     		mov	r0, r5
 861 0462 FFF7FEFF 		bl	moveUntil
 862              	.LVL138:
 408:main.c        ****                                     // this will move backwards until no longer hitting the block, 
 409:main.c        ****                 blinkLED(GREEN,1000);      // To show it ended at the correct spot
 863              		.loc 1 409 0
 864 0466 4FF47A71 		mov	r1, #1000
 865 046a 0220     		movs	r0, #2
 866 046c FFF7FEFF 		bl	blinkLED
 867              	.LVL139:
 410:main.c        ****                 
 411:main.c        ****                 // Updating the East Clearance:
 412:main.c        ****                 distanceSensor(FRONT_LEFT);     // checks how far we have travelled
 868              		.loc 1 412 0
 869 0470 0020     		movs	r0, #0
 870 0472 FFF7FEFF 		bl	distanceSensor
 871              	.LVL140:
 413:main.c        ****                 CyDelay(50);
 872              		.loc 1 413 0
 873 0476 3220     		movs	r0, #50
 874 0478 FFF7FEFF 		bl	CyDelay
 875              	.LVL141:
 414:main.c        ****                 block_location[EAST] = ARENA_WIDTH - sensor_distances[FRONT_LEFT] + DISTANCE_BACK_S
 876              		.loc 1 414 0
 877 047c 3368     		ldr	r3, [r6]
 878 047e C3F5A263 		rsb	r3, r3, #1296
 879 0482 0433     		adds	r3, r3, #4
 880 0484 6363     		str	r3, [r4, #52]
 881              	.LVL142:
 882              	.L24:
 883              	.LBE9:
 415:main.c        ****                                                             // double check the distance back senso
 416:main.c        ****             }
 417:main.c        ****             
 418:main.c        ****             
 419:main.c        ****                         
 420:main.c        ****             sprintf(output, "east puck: %d, \n", puck_location[EAST]);       
ARM GAS  C:\Users\Misha\AppData\Local\Temp\ccDk3wxj.s 			page 24


 884              		.loc 1 420 0
 885 0486 374D     		ldr	r5, .L50+28
 886 0488 324C     		ldr	r4, .L50+12
 887 048a 6A6C     		ldr	r2, [r5, #68]
 888 048c 3649     		ldr	r1, .L50+32
 889 048e 2046     		mov	r0, r4
 890 0490 FFF7FEFF 		bl	sprintf
 891              	.LVL143:
 421:main.c        ****             UART_1_PutString(output);
 892              		.loc 1 421 0
 893 0494 2046     		mov	r0, r4
 894 0496 FFF7FEFF 		bl	UART_1_PutString
 895              	.LVL144:
 422:main.c        ****             sprintf(output, "west puck: %d, \n", puck_location[WEST]);       
 896              		.loc 1 422 0
 897 049a EA6C     		ldr	r2, [r5, #76]
 898 049c 3349     		ldr	r1, .L50+36
 899 049e 2046     		mov	r0, r4
 900 04a0 FFF7FEFF 		bl	sprintf
 901              	.LVL145:
 423:main.c        ****             UART_1_PutString(output);
 902              		.loc 1 423 0
 903 04a4 2046     		mov	r0, r4
 904 04a6 FFF7FEFF 		bl	UART_1_PutString
 905              	.LVL146:
 424:main.c        ****             sprintf(output, "east block: %d, \n", block_location[EAST]);       
 906              		.loc 1 424 0
 907 04aa 6A6B     		ldr	r2, [r5, #52]
 908 04ac 3049     		ldr	r1, .L50+40
 909 04ae 2046     		mov	r0, r4
 910 04b0 FFF7FEFF 		bl	sprintf
 911              	.LVL147:
 425:main.c        ****             UART_1_PutString(output);
 912              		.loc 1 425 0
 913 04b4 2046     		mov	r0, r4
 914 04b6 FFF7FEFF 		bl	UART_1_PutString
 915              	.LVL148:
 426:main.c        ****             sprintf(output, "west block: %d, \n", block_location[WEST]);       
 916              		.loc 1 426 0
 917 04ba EA6B     		ldr	r2, [r5, #60]
 918 04bc 2D49     		ldr	r1, .L50+44
 919 04be 2046     		mov	r0, r4
 920 04c0 FFF7FEFF 		bl	sprintf
 921              	.LVL149:
 427:main.c        ****             UART_1_PutString(output);
 922              		.loc 1 427 0
 923 04c4 2046     		mov	r0, r4
 924 04c6 FFF7FEFF 		bl	UART_1_PutString
 925              	.LVL150:
 926              	.L26:
 927 04ca FEE7     		b	.L26
 928              	.L19:
 929              	.LBE7:
 428:main.c        ****             
 429:main.c        ****             
 430:main.c        ****             
 431:main.c        ****             
ARM GAS  C:\Users\Misha\AppData\Local\Temp\ccDk3wxj.s 			page 25


 432:main.c        ****             
 433:main.c        ****             
 434:main.c        ****             
 435:main.c        ****             
 436:main.c        ****             // END OF CODE FOR BLOCK AND PUCK CHECKING 
 437:main.c        ****             while(1) {}
 438:main.c        ****             
 439:main.c        ****             
 440:main.c        ****             sprintf(output, "east puck: %d, \n", puck_location[EAST]);       
 441:main.c        ****             UART_1_PutString(output);
 442:main.c        ****             sprintf(output, "west puck: %d, \n", puck_location[WEST]);       
 443:main.c        ****             UART_1_PutString(output);
 444:main.c        ****             sprintf(output, "east block: %d, \n", block_location[EAST]);       
 445:main.c        ****             UART_1_PutString(output);
 446:main.c        ****             sprintf(output, "west block: %d, \n", block_location[WEST]);       
 447:main.c        ****             UART_1_PutString(output);
 448:main.c        ****             
 449:main.c        ****             
 450:main.c        ****             // Finding the different block & puck clearances: 
 451:main.c        ****             
 452:main.c        ****                     // there should be a threshold that allows the robot to travel through a cleara
 453:main.c        ****                     // E.g. robot width + 100mm
 454:main.c        ****             
 455:main.c        ****                     // the robot will travel to the chosen (block_clearance/2) and travel down ther
 456:main.c        ****                     // so it is in the middle of the block clearance and the wall 
 457:main.c        ****             
 458:main.c        ****                     // check if between the edge of the block and the puck zone gives enough cleara
 459:main.c        ****                     
 460:main.c        ****             
 461:main.c        ****             if (block_location[EAST] > WIDTH_WHEEL_TO_WHEEL + BLOCK_TOLERANCE) {
 462:main.c        ****                 // the east clearance of block check
 463:main.c        ****               block_east_clearance = 1;  
 464:main.c        ****             }
 465:main.c        ****             if (block_location[WEST] > WIDTH_WHEEL_TO_WHEEL + BLOCK_TOLERANCE) {
 466:main.c        ****                 // the east clearance of block check
 467:main.c        ****               block_west_clearance = 1;  
 468:main.c        ****             }
 469:main.c        ****             if (puck_location[EAST] > WIDTH_WHEEL_TO_WHEEL + BLOCK_TOLERANCE) {
 470:main.c        ****                 // the east clearance of block check
 471:main.c        ****               puck_east_clearance = 1;  
 472:main.c        ****             }
 473:main.c        ****             if (puck_location[WEST] > WIDTH_WHEEL_TO_WHEEL + BLOCK_TOLERANCE) {
 474:main.c        ****                 // the east clearance of block check
 475:main.c        ****               puck_west_clearance = 1;  
 476:main.c        ****             }
 477:main.c        ****             
 478:main.c        ****             //while(1) {} // just want to do the block and puck finding
 479:main.c        ****             
 480:main.c        ****             //changeOrientation(WEST,SPEED);
 481:main.c        ****             //moveDynamic(-600, SPEED, TRUE);
 482:main.c        ****             //moveUntil((puck_location[EAST]/2),FORWARD, LESS_THAN, FRONT_LEFT, SPEED, TRUE);
 483:main.c        ****             //straightAdjust();
 484:main.c        ****             //changeOrientation(WEST,SPEED);
 485:main.c        ****             //moveUntil((PUCK_GRID_FROM_NORTH/2), FORWARD, LESS_THAN, FRONT_LEFT, SPEED,TRUE);
 486:main.c        ****             //straightAdjust();
 487:main.c        ****             //changeOrientation(EAST, SPEED);
 488:main.c        ****             ///oveDynamic(1200, SPEED, TRUE);
ARM GAS  C:\Users\Misha\AppData\Local\Temp\ccDk3wxj.s 			page 26


 489:main.c        ****             
 490:main.c        ****             moveUntil(200, BACKWARD, GREATER_THAN, FRONT_LEFT, SPEED, TRUE);
 491:main.c        ****             changeOrientation(SOUTH,SPEED);
 492:main.c        ****             changeOrientation(EAST, SPEED);
 493:main.c        ****             straightAdjust(FRONT_SENSORS);
 494:main.c        ****             moveUntil(CLEARANCE_RADIUS_CENTER_TO_FRONT + SAFETY_MARGIN/2, FORWARD, LESS_THAN, FRONT
 495:main.c        ****             translateUntil(CLEARANCE_RADIUS_CENTER_TO_BACK - SAFETY_MARGIN, LEFT, GREATER_THAN, SID
 496:main.c        ****             straightAdjust(FRONT_SENSORS);
 497:main.c        ****             
 498:main.c        ****             // PUCK has now been found, enter the IF statements to locate and pick up pucks 
 499:main.c        ****             state = STATE_GO_TO_PUCKS;
 500:main.c        **** 	    }     
 501:main.c        **** 
 502:main.c        **** //
 503:main.c        **** // *** 3. STATE GO TO PUCKS: *** // 
 504:main.c        **** //
 505:main.c        **** 
 506:main.c        ****         // Ensure that we are @ east wall facing east at a minimum verticaldistance so we can turn 
 507:main.c        ****         
 508:main.c        ****         if (state == STATE_GO_TO_PUCKS){
 930              		.loc 1 508 0
 931 04cc 032B     		cmp	r3, #3
 932 04ce 40F00481 		bne	.L27
 509:main.c        ****             
 510:main.c        **** 
 511:main.c        ****             // The different route finding Algorithms for the different combinations: 
 512:main.c        ****             
 513:main.c        ****             if (block_east_clearance && puck_east_clearance){
 933              		.loc 1 513 0
 934 04d2 244B     		ldr	r3, .L50+28
 935 04d4 B3F95020 		ldrsh	r2, [r3, #80]
 936 04d8 002A     		cmp	r2, #0
 937 04da 4DD0     		beq	.L28
 938              		.loc 1 513 0 is_stmt 0 discriminator 1
 939 04dc B3F95230 		ldrsh	r3, [r3, #82]
 940 04e0 002B     		cmp	r3, #0
 941 04e2 49D0     		beq	.L28
 514:main.c        ****                 
 515:main.c        ****                 moveUntil(WALL_CLEARANCE_FRONT, BACKWARD, GREATER_THAN, FRONT_LEFT, SPEED, TRUE);
 942              		.loc 1 515 0 is_stmt 1
 943 04e4 0124     		movs	r4, #1
 944 04e6 0194     		str	r4, [sp, #4]
 945 04e8 C825     		movs	r5, #200
 946 04ea 0095     		str	r5, [sp]
 947 04ec 0023     		movs	r3, #0
 948 04ee 0522     		movs	r2, #5
 949 04f0 1946     		mov	r1, r3
 950 04f2 AF20     		movs	r0, #175
 951 04f4 FFF7FEFF 		bl	moveUntil
 952              	.LVL151:
 516:main.c        ****                 straightAdjust(FRONT_SENSORS);
 953              		.loc 1 516 0
 954 04f8 0720     		movs	r0, #7
 955 04fa FFF7FEFF 		bl	straightAdjust
 956              	.LVL152:
 517:main.c        ****                 changeOrientation(NORTH, SPEED);
 957              		.loc 1 517 0
ARM GAS  C:\Users\Misha\AppData\Local\Temp\ccDk3wxj.s 			page 27


 958 04fe 2946     		mov	r1, r5
 959 0500 0020     		movs	r0, #0
 960 0502 FFF7FEFF 		bl	changeOrientation
 961              	.LVL153:
 518:main.c        ****                 //straightAdjust();
 519:main.c        ****                 moveUntil(PUCK_GRID_FROM_NORTH - DISTANCE_FRONT_SENSOR_FROM_CENTER - PUCK_GRID_DIST
 962              		.loc 1 519 0
 963 0506 174B     		ldr	r3, .L50+28
 964 0508 586D     		ldr	r0, [r3, #84]
 965 050a 6FF03603 		mvn	r3, #54
 966 050e 03FB00F0 		mul	r0, r3, r0
 967 0512 0194     		str	r4, [sp, #4]
 968 0514 0095     		str	r5, [sp]
 969 0516 0023     		movs	r3, #0
 970 0518 0422     		movs	r2, #4
 971 051a 2146     		mov	r1, r4
 972 051c E130     		adds	r0, r0, #225
 973 051e FFF7FEFF 		bl	moveUntil
 974              	.LVL154:
 520:main.c        ****                 straightAdjust(FRONT_SENSORS);
 975              		.loc 1 520 0
 976 0522 0720     		movs	r0, #7
 977 0524 FFF7FEFF 		bl	straightAdjust
 978              	.LVL155:
 521:main.c        ****                 changeOrientation(WEST, SPEED);
 979              		.loc 1 521 0
 980 0528 2946     		mov	r1, r5
 981 052a 0320     		movs	r0, #3
 982 052c FFF7FEFF 		bl	changeOrientation
 983              	.LVL156:
 522:main.c        ****                 straightAdjust(BACK_SENSORS);
 984              		.loc 1 522 0
 985 0530 0820     		movs	r0, #8
 986 0532 FFF7FEFF 		bl	straightAdjust
 987              	.LVL157:
 523:main.c        **** 
 524:main.c        ****                 moveUntil(DISTANCE_MIDDLE_STOPPED_FROM_PUCK, FORWARD, LESS_THAN, FRONT_MIDDLE, SPEE
 988              		.loc 1 524 0
 989 0536 0194     		str	r4, [sp, #4]
 990 0538 0095     		str	r5, [sp]
 991 053a 0523     		movs	r3, #5
 992 053c 0422     		movs	r2, #4
 993 053e 2146     		mov	r1, r4
 994 0540 9620     		movs	r0, #150
 995 0542 FFF7FEFF 		bl	moveUntil
 996              	.LVL158:
 997 0546 C5E0     		b	.L29
 998              	.L51:
 999              		.align	3
 1000              	.L50:
 1001 0548 4FE92F37 		.word	925886799
 1002 054c EFC6D33F 		.word	1070843631
 1003 0550 00000000 		.word	sensor_distances
 1004 0554 00000000 		.word	output
 1005 0558 6C000000 		.word	.LC5
 1006 055c 84000000 		.word	.LC6
 1007 0560 9C000000 		.word	.LC7
ARM GAS  C:\Users\Misha\AppData\Local\Temp\ccDk3wxj.s 			page 28


 1008 0564 00000000 		.word	.LANCHOR0
 1009 0568 AC000000 		.word	.LC8
 1010 056c C0000000 		.word	.LC9
 1011 0570 D4000000 		.word	.LC10
 1012 0574 E8000000 		.word	.LC11
 1013              	.L28:
 525:main.c        ****                 
 526:main.c        ****             }
 527:main.c        ****             
 528:main.c        ****             else if (block_west_clearance && puck_west_clearance){
 1014              		.loc 1 528 0
 1015 0578 B44B     		ldr	r3, .L52
 1016 057a B3F95830 		ldrsh	r3, [r3, #88]
 1017 057e 002B     		cmp	r3, #0
 1018 0580 38D0     		beq	.L30
 1019              		.loc 1 528 0 is_stmt 0 discriminator 1
 1020 0582 B249     		ldr	r1, .L52
 1021 0584 B1F95A10 		ldrsh	r1, [r1, #90]
 1022 0588 A1B3     		cbz	r1, .L30
 529:main.c        ****             
 530:main.c        ****                 //moveUntil(CLEARANCE_RADIUS_CENTER_TO_FRONT, BACKWARD, GREATER_THAN, FRONT_LEFT, S
 531:main.c        ****                 moveUntil(CLEARANCE_RADIUS_CENTER_TO_BACK - DISTANCE_BACK_SENSOR_FROM_CENTER, BACKW
 1023              		.loc 1 531 0 is_stmt 1
 1024 058a 0124     		movs	r4, #1
 1025 058c 0194     		str	r4, [sp, #4]
 1026 058e C825     		movs	r5, #200
 1027 0590 0095     		str	r5, [sp]
 1028 0592 0423     		movs	r3, #4
 1029 0594 1A46     		mov	r2, r3
 1030 0596 0021     		movs	r1, #0
 1031 0598 0A20     		movs	r0, #10
 1032 059a FFF7FEFF 		bl	moveUntil
 1033              	.LVL159:
 532:main.c        ****                 straightAdjust(FRONT_SENSORS); //? Remove if it fucks things up
 1034              		.loc 1 532 0
 1035 059e 0720     		movs	r0, #7
 1036 05a0 FFF7FEFF 		bl	straightAdjust
 1037              	.LVL160:
 533:main.c        ****                 changeOrientation(NORTH, SPEED);
 1038              		.loc 1 533 0
 1039 05a4 2946     		mov	r1, r5
 1040 05a6 0020     		movs	r0, #0
 1041 05a8 FFF7FEFF 		bl	changeOrientation
 1042              	.LVL161:
 534:main.c        ****                 straightAdjust(FRONT_SENSORS); //? Remove if it fucks things up
 1043              		.loc 1 534 0
 1044 05ac 0720     		movs	r0, #7
 1045 05ae FFF7FEFF 		bl	straightAdjust
 1046              	.LVL162:
 535:main.c        ****                 moveUntil(PUCK_GRID_FROM_NORTH - DISTANCE_FRONT_SENSOR_FROM_CENTER - PUCK_GRID_DIST
 1047              		.loc 1 535 0
 1048 05b2 A64B     		ldr	r3, .L52
 1049 05b4 586D     		ldr	r0, [r3, #84]
 1050 05b6 6FF03603 		mvn	r3, #54
 1051 05ba 03FB00F0 		mul	r0, r3, r0
 1052 05be 0194     		str	r4, [sp, #4]
 1053 05c0 0095     		str	r5, [sp]
ARM GAS  C:\Users\Misha\AppData\Local\Temp\ccDk3wxj.s 			page 29


 1054 05c2 0023     		movs	r3, #0
 1055 05c4 0422     		movs	r2, #4
 1056 05c6 2146     		mov	r1, r4
 1057 05c8 E130     		adds	r0, r0, #225
 1058 05ca FFF7FEFF 		bl	moveUntil
 1059              	.LVL163:
 536:main.c        ****                 //translateMoveDynamic(CLEARANCE_RADIUS_CENTER_TO_BACK, 10, SPEED, FALSE); // Chang
 537:main.c        ****                 straightAdjust(FRONT_SENSORS);
 1060              		.loc 1 537 0
 1061 05ce 0720     		movs	r0, #7
 1062 05d0 FFF7FEFF 		bl	straightAdjust
 1063              	.LVL164:
 538:main.c        ****                 changeOrientation(EAST, SPEED);
 1064              		.loc 1 538 0
 1065 05d4 2946     		mov	r1, r5
 1066 05d6 2046     		mov	r0, r4
 1067 05d8 FFF7FEFF 		bl	changeOrientation
 1068              	.LVL165:
 539:main.c        ****                 straightAdjust(BACK_SENSORS);
 1069              		.loc 1 539 0
 1070 05dc 0820     		movs	r0, #8
 1071 05de FFF7FEFF 		bl	straightAdjust
 1072              	.LVL166:
 540:main.c        **** 
 541:main.c        ****                 moveUntil(DISTANCE_MIDDLE_STOPPED_FROM_PUCK, FORWARD, LESS_THAN, FRONT_MIDDLE, SPEE
 1073              		.loc 1 541 0
 1074 05e2 0194     		str	r4, [sp, #4]
 1075 05e4 0095     		str	r5, [sp]
 1076 05e6 0523     		movs	r3, #5
 1077 05e8 0422     		movs	r2, #4
 1078 05ea 2146     		mov	r1, r4
 1079 05ec 9620     		movs	r0, #150
 1080 05ee FFF7FEFF 		bl	moveUntil
 1081              	.LVL167:
 1082 05f2 6FE0     		b	.L29
 1083              	.L30:
 542:main.c        ****             }
 543:main.c        ****             
 544:main.c        ****             
 545:main.c        ****             else if (block_east_clearance && puck_west_clearance){
 1084              		.loc 1 545 0
 1085 05f4 002A     		cmp	r2, #0
 1086 05f6 36D0     		beq	.L31
 1087              		.loc 1 545 0 is_stmt 0 discriminator 1
 1088 05f8 944A     		ldr	r2, .L52
 1089 05fa B2F95A20 		ldrsh	r2, [r2, #90]
 1090 05fe 92B3     		cbz	r2, .L31
 546:main.c        **** 
 547:main.c        ****                 //moveUntil(block_and_puck_edge_midpoint - DISTANCE_BACK_SENSOR_FROM_CENTER, BACKWA
 548:main.c        ****                 moveUntil(block_location[EAST] - DISTANCE_FRONT_SENSOR_FROM_CENTER - WIDTH_WHEEL_TO
 1091              		.loc 1 548 0 is_stmt 1
 1092 0600 924E     		ldr	r6, .L52
 1093 0602 706B     		ldr	r0, [r6, #52]
 1094 0604 0124     		movs	r4, #1
 1095 0606 0194     		str	r4, [sp, #4]
 1096 0608 C825     		movs	r5, #200
 1097 060a 0095     		str	r5, [sp]
ARM GAS  C:\Users\Misha\AppData\Local\Temp\ccDk3wxj.s 			page 30


 1098 060c 0023     		movs	r3, #0
 1099 060e 0522     		movs	r2, #5
 1100 0610 1946     		mov	r1, r3
 1101 0612 A738     		subs	r0, r0, #167
 1102 0614 FFF7FEFF 		bl	moveUntil
 1103              	.LVL168:
 549:main.c        ****                 straightAdjust(FRONT_SENSORS);
 1104              		.loc 1 549 0
 1105 0618 0720     		movs	r0, #7
 1106 061a FFF7FEFF 		bl	straightAdjust
 1107              	.LVL169:
 550:main.c        ****                 changeOrientation(NORTH, SPEED);
 1108              		.loc 1 550 0
 1109 061e 2946     		mov	r1, r5
 1110 0620 0020     		movs	r0, #0
 1111 0622 FFF7FEFF 		bl	changeOrientation
 1112              	.LVL170:
 551:main.c        ****                 //straightAdjust();
 552:main.c        ****                 moveUntil(PUCK_GRID_FROM_NORTH - DISTANCE_FRONT_SENSOR_FROM_CENTER - PUCK_GRID_DIST
 1113              		.loc 1 552 0
 1114 0626 706D     		ldr	r0, [r6, #84]
 1115 0628 6FF03603 		mvn	r3, #54
 1116 062c 03FB00F0 		mul	r0, r3, r0
 1117 0630 0194     		str	r4, [sp, #4]
 1118 0632 0095     		str	r5, [sp]
 1119 0634 0023     		movs	r3, #0
 1120 0636 0422     		movs	r2, #4
 1121 0638 2146     		mov	r1, r4
 1122 063a E130     		adds	r0, r0, #225
 1123 063c FFF7FEFF 		bl	moveUntil
 1124              	.LVL171:
 553:main.c        ****                 straightAdjust(FRONT_SENSORS);
 1125              		.loc 1 553 0
 1126 0640 0720     		movs	r0, #7
 1127 0642 FFF7FEFF 		bl	straightAdjust
 1128              	.LVL172:
 554:main.c        ****                 changeOrientation(EAST, SPEED);
 1129              		.loc 1 554 0
 1130 0646 2946     		mov	r1, r5
 1131 0648 2046     		mov	r0, r4
 1132 064a FFF7FEFF 		bl	changeOrientation
 1133              	.LVL173:
 555:main.c        ****                 straightAdjust(BACK_SENSORS);
 1134              		.loc 1 555 0
 1135 064e 0820     		movs	r0, #8
 1136 0650 FFF7FEFF 		bl	straightAdjust
 1137              	.LVL174:
 556:main.c        ****                 
 557:main.c        ****                 moveUntil(DISTANCE_MIDDLE_STOPPED_FROM_PUCK, FORWARD, LESS_THAN, FRONT_MIDDLE, SPEE
 1138              		.loc 1 557 0
 1139 0654 0194     		str	r4, [sp, #4]
 1140 0656 0095     		str	r5, [sp]
 1141 0658 0523     		movs	r3, #5
 1142 065a 0422     		movs	r2, #4
 1143 065c 2146     		mov	r1, r4
 1144 065e 9620     		movs	r0, #150
 1145 0660 FFF7FEFF 		bl	moveUntil
ARM GAS  C:\Users\Misha\AppData\Local\Temp\ccDk3wxj.s 			page 31


 1146              	.LVL175:
 1147 0664 36E0     		b	.L29
 1148              	.L31:
 558:main.c        ****             }
 559:main.c        ****             
 560:main.c        ****             else if (block_west_clearance && puck_east_clearance){
 1149              		.loc 1 560 0
 1150 0666 ABB3     		cbz	r3, .L29
 1151              		.loc 1 560 0 is_stmt 0 discriminator 1
 1152 0668 784B     		ldr	r3, .L52
 1153 066a B3F95230 		ldrsh	r3, [r3, #82]
 1154 066e 8BB3     		cbz	r3, .L29
 561:main.c        ****                 
 562:main.c        ****                 moveUntil(block_location[WEST] - DISTANCE_FRONT_SENSOR_FROM_CENTER + WIDTH_WHEEL_TO
 1155              		.loc 1 562 0 is_stmt 1
 1156 0670 764E     		ldr	r6, .L52
 1157 0672 F06B     		ldr	r0, [r6, #60]
 1158 0674 0124     		movs	r4, #1
 1159 0676 0194     		str	r4, [sp, #4]
 1160 0678 C825     		movs	r5, #200
 1161 067a 0095     		str	r5, [sp]
 1162 067c 0023     		movs	r3, #0
 1163 067e 0522     		movs	r2, #5
 1164 0680 1946     		mov	r1, r3
 1165 0682 4330     		adds	r0, r0, #67
 1166 0684 FFF7FEFF 		bl	moveUntil
 1167              	.LVL176:
 563:main.c        ****                 straightAdjust(FRONT_SENSORS);
 1168              		.loc 1 563 0
 1169 0688 0720     		movs	r0, #7
 1170 068a FFF7FEFF 		bl	straightAdjust
 1171              	.LVL177:
 564:main.c        ****                 changeOrientation(NORTH, SPEED);
 1172              		.loc 1 564 0
 1173 068e 2946     		mov	r1, r5
 1174 0690 0020     		movs	r0, #0
 1175 0692 FFF7FEFF 		bl	changeOrientation
 1176              	.LVL178:
 565:main.c        ****                 moveUntil(PUCK_GRID_FROM_NORTH - DISTANCE_FRONT_SENSOR_FROM_CENTER - PUCK_GRID_DIST
 1177              		.loc 1 565 0
 1178 0696 706D     		ldr	r0, [r6, #84]
 1179 0698 6FF03603 		mvn	r3, #54
 1180 069c 03FB00F0 		mul	r0, r3, r0
 1181 06a0 0194     		str	r4, [sp, #4]
 1182 06a2 0095     		str	r5, [sp]
 1183 06a4 0023     		movs	r3, #0
 1184 06a6 0422     		movs	r2, #4
 1185 06a8 2146     		mov	r1, r4
 1186 06aa E130     		adds	r0, r0, #225
 1187 06ac FFF7FEFF 		bl	moveUntil
 1188              	.LVL179:
 566:main.c        ****                 straightAdjust(FRONT_SENSORS);
 1189              		.loc 1 566 0
 1190 06b0 0720     		movs	r0, #7
 1191 06b2 FFF7FEFF 		bl	straightAdjust
 1192              	.LVL180:
 567:main.c        ****                 changeOrientation(WEST, SPEED);
ARM GAS  C:\Users\Misha\AppData\Local\Temp\ccDk3wxj.s 			page 32


 1193              		.loc 1 567 0
 1194 06b6 2946     		mov	r1, r5
 1195 06b8 0320     		movs	r0, #3
 1196 06ba FFF7FEFF 		bl	changeOrientation
 1197              	.LVL181:
 568:main.c        ****                 straightAdjust(BACK_SENSORS);
 1198              		.loc 1 568 0
 1199 06be 0820     		movs	r0, #8
 1200 06c0 FFF7FEFF 		bl	straightAdjust
 1201              	.LVL182:
 569:main.c        ****                 
 570:main.c        ****                 moveUntil(DISTANCE_MIDDLE_STOPPED_FROM_PUCK, FORWARD, LESS_THAN, FRONT_MIDDLE, SPEE
 1202              		.loc 1 570 0
 1203 06c4 0194     		str	r4, [sp, #4]
 1204 06c6 0095     		str	r5, [sp]
 1205 06c8 0523     		movs	r3, #5
 1206 06ca 0422     		movs	r2, #4
 1207 06cc 2146     		mov	r1, r4
 1208 06ce 9620     		movs	r0, #150
 1209 06d0 FFF7FEFF 		bl	moveUntil
 1210              	.LVL183:
 1211              	.L29:
 571:main.c        ****             }
 572:main.c        ****             
 573:main.c        ****             state = STATE_FIND_REQUIRED_PUCK;
 1212              		.loc 1 573 0
 1213 06d4 0422     		movs	r2, #4
 1214 06d6 5D4B     		ldr	r3, .L52
 1215 06d8 5A60     		str	r2, [r3, #4]
 1216              	.L27:
 574:main.c        **** 
 575:main.c        ****         }
 576:main.c        ****  
 577:main.c        **** //        
 578:main.c        **** // *** 4. STATE FIND REQUIRED PUCK: *** // 
 579:main.c        **** //
 580:main.c        ****         
 581:main.c        ****         
 582:main.c        ****         if (state == STATE_FIND_REQUIRED_PUCK){
 1217              		.loc 1 582 0
 1218 06da 5C4B     		ldr	r3, .L52
 1219 06dc 5B68     		ldr	r3, [r3, #4]
 1220 06de 042B     		cmp	r3, #4
 1221 06e0 19D1     		bne	.L32
 1222              	.LVL184:
 1223              	.LBB10:
 583:main.c        ****         
 584:main.c        ****         int puck_correct = FALSE;   // A flag to determine if the correct puck has been picked up
 585:main.c        ****         int puck_scan;
 586:main.c        ****         
 587:main.c        ****     
 588:main.c        ****         //Temp delete after teesting!!!!!!!!!!!!!!!!!!!!!
 589:main.c        ****         puck_correct = TRUE;
 590:main.c        ****         
 591:main.c        ****             
 592:main.c        ****         // Scanning puck:
 593:main.c        ****             
ARM GAS  C:\Users\Misha\AppData\Local\Temp\ccDk3wxj.s 			page 33


 594:main.c        ****         safety_override = TRUE;     // DEACTIVATES the safety override so pucks don't interfere  
 1224              		.loc 1 594 0
 1225 06e2 5A4C     		ldr	r4, .L52
 1226 06e4 0125     		movs	r5, #1
 1227 06e6 E565     		str	r5, [r4, #92]
 595:main.c        **** 
 596:main.c        ****         while (puck_correct == FALSE) 
 597:main.c        ****         {
 598:main.c        ****             moveDynamic(50, SPEED_LOW, TRUE);  // robot moves forward towards puck
 599:main.c        ****                                     // could replace this with the distance gathered from the ultra
 600:main.c        ****             changeHeightToPuck(ABOVE_1_PUCK, NEITHER);  // arm lowers onto robot
 601:main.c        ****             puck_scan = colourSensingOutput();  // colour sensor takes a scan
 602:main.c        ****             changeHeightToPuck(ABOVE_3_PUCK, NEITHER);  // arm returns to high position
 603:main.c        ****             moveDynamic(-50, SPEED, TRUE);   // robot moves backwards
 604:main.c        ****             if (puck_scan == puck_construction_plan[current_stage-1]) {puck_correct = TRUE;}       
 605:main.c        ****             else 
 606:main.c        ****             {
 607:main.c        ****                 /*
 608:main.c        ****                 // Bring us to the next puck along: 
 609:main.c        ****                 moveSwivel(45, SPEED, TRUE);
 610:main.c        ****                 moveDynamic(-30,SPEED, TRUE);
 611:main.c        ****                 moveSwivel(-30, SPEED, TRUE);
 612:main.c        ****                 */
 613:main.c        ****             }
 614:main.c        ****         }
 615:main.c        **** 
 616:main.c        ****         changeHeightToPuck(GROUND, NEITHER);      // arm lowers to ground
 1228              		.loc 1 616 0
 1229 06e8 0221     		movs	r1, #2
 1230 06ea 0020     		movs	r0, #0
 1231 06ec FFF7FEFF 		bl	changeHeightToPuck
 1232              	.LVL185:
 617:main.c        ****         //armClose();
 618:main.c        ****         //changeHeightToPuck(1);
 619:main.c        ****         moveUntilPuck(CLAW_GROUND_ALGORITHM);
 1233              		.loc 1 619 0
 1234 06f0 0520     		movs	r0, #5
 1235 06f2 FFF7FEFF 		bl	moveUntilPuck
 1236              	.LVL186:
 620:main.c        ****         //moveDynamic(60);       // robot moves forward
 621:main.c        ****         armClose();                 // claw closes on puck
 1237              		.loc 1 621 0
 1238 06f6 FFF7FEFF 		bl	armClose
 1239              	.LVL187:
 622:main.c        ****         changeHeightToPuck(ABOVE_3_PUCK, CLOSE);      // arm lifts up to highest position
 1240              		.loc 1 622 0
 1241 06fa 2946     		mov	r1, r5
 1242 06fc 0320     		movs	r0, #3
 1243 06fe FFF7FEFF 		bl	changeHeightToPuck
 1244              	.LVL188:
 623:main.c        ****         moveDynamic(-60, SPEED, TRUE);       // robot moves back away from puck area 
 1245              		.loc 1 623 0
 1246 0702 2A46     		mov	r2, r5
 1247 0704 C821     		movs	r1, #200
 1248 0706 6FF03B00 		mvn	r0, #59
 1249 070a FFF7FEFF 		bl	moveDynamic
 1250              	.LVL189:
ARM GAS  C:\Users\Misha\AppData\Local\Temp\ccDk3wxj.s 			page 34


 624:main.c        ****         
 625:main.c        ****         
 626:main.c        ****         safety_override = FALSE;        // reactivate safety override
 1251              		.loc 1 626 0
 1252 070e 0023     		movs	r3, #0
 1253 0710 E365     		str	r3, [r4, #92]
 627:main.c        ****     
 628:main.c        ****         state = STATE_RETURN_TO_SOUTH;
 1254              		.loc 1 628 0
 1255 0712 0523     		movs	r3, #5
 1256 0714 6360     		str	r3, [r4, #4]
 1257              	.LVL190:
 1258              	.L32:
 1259              	.LBE10:
 629:main.c        ****    
 630:main.c        ****         }
 631:main.c        ****  
 632:main.c        ****         
 633:main.c        **** //
 634:main.c        **** // *** 5. STATE RETURN TO SOUTH: *** // 
 635:main.c        **** //      
 636:main.c        ****         
 637:main.c        ****         // Assume that we are currently in the north side of the arena facing the pucks.
 638:main.c        ****         // This state will return us to the south side of the block and face east at the east wall.
 639:main.c        ****         if (state == STATE_RETURN_TO_SOUTH){
 1260              		.loc 1 639 0
 1261 0716 4D4B     		ldr	r3, .L52
 1262 0718 5B68     		ldr	r3, [r3, #4]
 1263 071a 052B     		cmp	r3, #5
 1264 071c 40F0C980 		bne	.L33
 640:main.c        ****             if (block_east_clearance && puck_east_clearance){
 1265              		.loc 1 640 0
 1266 0720 4A4B     		ldr	r3, .L52
 1267 0722 B3F95020 		ldrsh	r2, [r3, #80]
 1268 0726 72B3     		cbz	r2, .L34
 1269              		.loc 1 640 0 is_stmt 0 discriminator 1
 1270 0728 B3F95230 		ldrsh	r3, [r3, #82]
 1271 072c 5BB3     		cbz	r3, .L34
 641:main.c        ****                 
 642:main.c        ****                 moveUntil(CLEARANCE_RADIUS_CENTER_TO_BACK - 190, BACKWARD, LESS_THAN, BACK_RIGHT, S
 1272              		.loc 1 642 0 is_stmt 1
 1273 072e 0124     		movs	r4, #1
 1274 0730 0194     		str	r4, [sp, #4]
 1275 0732 C825     		movs	r5, #200
 1276 0734 0095     		str	r5, [sp]
 1277 0736 0423     		movs	r3, #4
 1278 0738 1A46     		mov	r2, r3
 1279 073a 0021     		movs	r1, #0
 1280 073c 3220     		movs	r0, #50
 1281 073e FFF7FEFF 		bl	moveUntil
 1282              	.LVL191:
 643:main.c        ****                 // straightAdjust() using back sensor?
 644:main.c        ****                 changeOrientation(NORTH,SPEED);
 1283              		.loc 1 644 0
 1284 0742 2946     		mov	r1, r5
 1285 0744 0020     		movs	r0, #0
 1286 0746 FFF7FEFF 		bl	changeOrientation
ARM GAS  C:\Users\Misha\AppData\Local\Temp\ccDk3wxj.s 			page 35


 1287              	.LVL192:
 645:main.c        ****                 straightAdjust(FRONT_SENSORS);
 1288              		.loc 1 645 0
 1289 074a 0720     		movs	r0, #7
 1290 074c FFF7FEFF 		bl	straightAdjust
 1291              	.LVL193:
 646:main.c        ****                 moveUntil(CLEARANCE_RADIUS_CENTER_TO_BACK - 140, BACKWARD, LESS_THAN, BACK_RIGHT, S
 1292              		.loc 1 646 0
 1293 0750 0194     		str	r4, [sp, #4]
 1294 0752 0095     		str	r5, [sp]
 1295 0754 0423     		movs	r3, #4
 1296 0756 1A46     		mov	r2, r3
 1297 0758 0021     		movs	r1, #0
 1298 075a 6420     		movs	r0, #100
 1299 075c FFF7FEFF 		bl	moveUntil
 1300              	.LVL194:
 647:main.c        ****                 //straightAdjust();
 648:main.c        ****                 changeOrientation(EAST,SPEED);
 1301              		.loc 1 648 0
 1302 0760 2946     		mov	r1, r5
 1303 0762 2046     		mov	r0, r4
 1304 0764 FFF7FEFF 		bl	changeOrientation
 1305              	.LVL195:
 649:main.c        ****                 straightAdjust(FRONT_SENSORS);
 1306              		.loc 1 649 0
 1307 0768 0720     		movs	r0, #7
 1308 076a FFF7FEFF 		bl	straightAdjust
 1309              	.LVL196:
 650:main.c        ****                 moveUntil(WALL_CLEARANCE_FRONT, FORWARD, LESS_THAN, FRONT_LEFT, SPEED, TRUE);
 1310              		.loc 1 650 0
 1311 076e 0194     		str	r4, [sp, #4]
 1312 0770 0095     		str	r5, [sp]
 1313 0772 0023     		movs	r3, #0
 1314 0774 0422     		movs	r2, #4
 1315 0776 2146     		mov	r1, r4
 1316 0778 AF20     		movs	r0, #175
 1317 077a FFF7FEFF 		bl	moveUntil
 1318              	.LVL197:
 651:main.c        ****                 straightAdjust(FRONT_SENSORS);
 1319              		.loc 1 651 0
 1320 077e 0720     		movs	r0, #7
 1321 0780 FFF7FEFF 		bl	straightAdjust
 1322              	.LVL198:
 1323 0784 92E0     		b	.L35
 1324              	.L34:
 652:main.c        ****                 
 653:main.c        ****             }
 654:main.c        ****             
 655:main.c        ****             else if (block_west_clearance && puck_west_clearance){
 1325              		.loc 1 655 0
 1326 0786 314B     		ldr	r3, .L52
 1327 0788 B3F95830 		ldrsh	r3, [r3, #88]
 1328 078c 7BB3     		cbz	r3, .L36
 1329              		.loc 1 655 0 is_stmt 0 discriminator 1
 1330 078e 2F49     		ldr	r1, .L52
 1331 0790 B1F95A10 		ldrsh	r1, [r1, #90]
 1332 0794 59B3     		cbz	r1, .L36
ARM GAS  C:\Users\Misha\AppData\Local\Temp\ccDk3wxj.s 			page 36


 656:main.c        ****             
 657:main.c        ****                 moveUntil(CLEARANCE_RADIUS_CENTER_TO_BACK - DISTANCE_BACK_SENSOR_FROM_CENTER, BACKW
 1333              		.loc 1 657 0 is_stmt 1
 1334 0796 0124     		movs	r4, #1
 1335 0798 0194     		str	r4, [sp, #4]
 1336 079a C825     		movs	r5, #200
 1337 079c 0095     		str	r5, [sp]
 1338 079e 0423     		movs	r3, #4
 1339 07a0 1A46     		mov	r2, r3
 1340 07a2 0021     		movs	r1, #0
 1341 07a4 0A20     		movs	r0, #10
 1342 07a6 FFF7FEFF 		bl	moveUntil
 1343              	.LVL199:
 658:main.c        ****                 // straightAdjust() using back sensor?
 659:main.c        ****                 changeOrientation(NORTH,SPEED);
 1344              		.loc 1 659 0
 1345 07aa 2946     		mov	r1, r5
 1346 07ac 0020     		movs	r0, #0
 1347 07ae FFF7FEFF 		bl	changeOrientation
 1348              	.LVL200:
 660:main.c        ****                 straightAdjust(FRONT_SENSORS);
 1349              		.loc 1 660 0
 1350 07b2 0720     		movs	r0, #7
 1351 07b4 FFF7FEFF 		bl	straightAdjust
 1352              	.LVL201:
 661:main.c        ****                 moveUntil(CLEARANCE_RADIUS_CENTER_TO_BACK - 140, BACKWARD, LESS_THAN, BACK_RIGHT, S
 1353              		.loc 1 661 0
 1354 07b8 0194     		str	r4, [sp, #4]
 1355 07ba 0095     		str	r5, [sp]
 1356 07bc 0423     		movs	r3, #4
 1357 07be 1A46     		mov	r2, r3
 1358 07c0 0021     		movs	r1, #0
 1359 07c2 6420     		movs	r0, #100
 1360 07c4 FFF7FEFF 		bl	moveUntil
 1361              	.LVL202:
 662:main.c        ****                 //straightAdjust();
 663:main.c        ****                 changeOrientation(EAST,SPEED);
 1362              		.loc 1 663 0
 1363 07c8 2946     		mov	r1, r5
 1364 07ca 2046     		mov	r0, r4
 1365 07cc FFF7FEFF 		bl	changeOrientation
 1366              	.LVL203:
 664:main.c        ****                 straightAdjust(FRONT_SENSORS);
 1367              		.loc 1 664 0
 1368 07d0 0720     		movs	r0, #7
 1369 07d2 FFF7FEFF 		bl	straightAdjust
 1370              	.LVL204:
 665:main.c        ****                 moveUntil(WALL_CLEARANCE_FRONT, FORWARD, LESS_THAN, FRONT_LEFT, SPEED, TRUE);
 1371              		.loc 1 665 0
 1372 07d6 0194     		str	r4, [sp, #4]
 1373 07d8 0095     		str	r5, [sp]
 1374 07da 0023     		movs	r3, #0
 1375 07dc 0422     		movs	r2, #4
 1376 07de 2146     		mov	r1, r4
 1377 07e0 AF20     		movs	r0, #175
 1378 07e2 FFF7FEFF 		bl	moveUntil
 1379              	.LVL205:
ARM GAS  C:\Users\Misha\AppData\Local\Temp\ccDk3wxj.s 			page 37


 666:main.c        ****                 straightAdjust(FRONT_SENSORS);
 1380              		.loc 1 666 0
 1381 07e6 0720     		movs	r0, #7
 1382 07e8 FFF7FEFF 		bl	straightAdjust
 1383              	.LVL206:
 1384 07ec 5EE0     		b	.L35
 1385              	.L36:
 667:main.c        ****               
 668:main.c        ****             }
 669:main.c        ****             
 670:main.c        ****             
 671:main.c        ****             else if (block_east_clearance && puck_west_clearance){
 1386              		.loc 1 671 0
 1387 07ee 7AB3     		cbz	r2, .L37
 1388              		.loc 1 671 0 is_stmt 0 discriminator 1
 1389 07f0 164A     		ldr	r2, .L52
 1390 07f2 B2F95A20 		ldrsh	r2, [r2, #90]
 1391 07f6 5AB3     		cbz	r2, .L37
 672:main.c        **** 
 673:main.c        ****                 moveUntil(ARENA_WIDTH - (block_location[EAST] - DISTANCE_FRONT_SENSOR_FROM_CENTER -
 1392              		.loc 1 673 0 is_stmt 1
 1393 07f8 144B     		ldr	r3, .L52
 1394 07fa 586B     		ldr	r0, [r3, #52]
 1395 07fc 0124     		movs	r4, #1
 1396 07fe 0194     		str	r4, [sp, #4]
 1397 0800 C825     		movs	r5, #200
 1398 0802 0095     		str	r5, [sp]
 1399 0804 0423     		movs	r3, #4
 1400 0806 1A46     		mov	r2, r3
 1401 0808 0021     		movs	r1, #0
 1402 080a C0F5AA60 		rsb	r0, r0, #1360
 1403 080e 0730     		adds	r0, r0, #7
 1404 0810 FFF7FEFF 		bl	moveUntil
 1405              	.LVL207:
 674:main.c        ****                 //straightAdjust();
 675:main.c        ****                 changeOrientation(NORTH, SPEED);
 1406              		.loc 1 675 0
 1407 0814 2946     		mov	r1, r5
 1408 0816 0020     		movs	r0, #0
 1409 0818 FFF7FEFF 		bl	changeOrientation
 1410              	.LVL208:
 676:main.c        ****                 straightAdjust(FRONT_SENSORS);
 1411              		.loc 1 676 0
 1412 081c 0720     		movs	r0, #7
 1413 081e FFF7FEFF 		bl	straightAdjust
 1414              	.LVL209:
 677:main.c        ****                 moveUntil(CLEARANCE_RADIUS_CENTER_TO_BACK - 140, BACKWARD, LESS_THAN, BACK_RIGHT, S
 1415              		.loc 1 677 0
 1416 0822 0194     		str	r4, [sp, #4]
 1417 0824 0095     		str	r5, [sp]
 1418 0826 0423     		movs	r3, #4
 1419 0828 1A46     		mov	r2, r3
 1420 082a 0021     		movs	r1, #0
 1421 082c 6420     		movs	r0, #100
 1422 082e FFF7FEFF 		bl	moveUntil
 1423              	.LVL210:
 678:main.c        ****                 //displaceLeft(); Repeatedly call this if below function not implemented
ARM GAS  C:\Users\Misha\AppData\Local\Temp\ccDk3wxj.s 			page 38


 679:main.c        ****                 //displaceLeftUntil(CLEARANCE_RADIUS_CENTER_TO_BACK,RIGHT);
 680:main.c        ****                 changeOrientation(EAST, SPEED);
 1424              		.loc 1 680 0
 1425 0832 2946     		mov	r1, r5
 1426 0834 2046     		mov	r0, r4
 1427 0836 FFF7FEFF 		bl	changeOrientation
 1428              	.LVL211:
 681:main.c        ****                 //displaceLeft();
 682:main.c        ****                 //displaceLeftUntil(DISTANCE_PUCKS_FROM_NORTH + WIDTH_SENSOR_TO_CENTER ,RIGHT);
 683:main.c        ****                 moveUntil(WALL_CLEARANCE_FRONT, FORWARD, LESS_THAN, FRONT_LEFT, SPEED, TRUE);
 1429              		.loc 1 683 0
 1430 083a 0194     		str	r4, [sp, #4]
 1431 083c 0095     		str	r5, [sp]
 1432 083e 0023     		movs	r3, #0
 1433 0840 0422     		movs	r2, #4
 1434 0842 2146     		mov	r1, r4
 1435 0844 AF20     		movs	r0, #175
 1436 0846 FFF7FEFF 		bl	moveUntil
 1437              	.LVL212:
 1438 084a 2FE0     		b	.L35
 1439              	.L53:
 1440              		.align	2
 1441              	.L52:
 1442 084c 00000000 		.word	.LANCHOR0
 1443              	.L37:
 684:main.c        ****                 
 685:main.c        ****             }
 686:main.c        ****             
 687:main.c        ****             else if (block_west_clearance && puck_east_clearance){
 1444              		.loc 1 687 0
 1445 0850 63B3     		cbz	r3, .L35
 1446              		.loc 1 687 0 is_stmt 0 discriminator 1
 1447 0852 804B     		ldr	r3, .L54
 1448 0854 B3F95230 		ldrsh	r3, [r3, #82]
 1449 0858 43B3     		cbz	r3, .L35
 688:main.c        ****                 
 689:main.c        ****                 moveUntil(ARENA_WIDTH - (block_location[WEST] - DISTANCE_FRONT_SENSOR_FROM_CENTER +
 1450              		.loc 1 689 0 is_stmt 1
 1451 085a 7E4B     		ldr	r3, .L54
 1452 085c D86B     		ldr	r0, [r3, #60]
 1453 085e 0124     		movs	r4, #1
 1454 0860 0194     		str	r4, [sp, #4]
 1455 0862 C825     		movs	r5, #200
 1456 0864 0095     		str	r5, [sp]
 1457 0866 0023     		movs	r3, #0
 1458 0868 0522     		movs	r2, #5
 1459 086a 1946     		mov	r1, r3
 1460 086c C0F58D60 		rsb	r0, r0, #1128
 1461 0870 1044     		add	r0, r0, r2
 1462 0872 FFF7FEFF 		bl	moveUntil
 1463              	.LVL213:
 690:main.c        ****                 changeOrientation(NORTH, SPEED);
 1464              		.loc 1 690 0
 1465 0876 2946     		mov	r1, r5
 1466 0878 0020     		movs	r0, #0
 1467 087a FFF7FEFF 		bl	changeOrientation
 1468              	.LVL214:
ARM GAS  C:\Users\Misha\AppData\Local\Temp\ccDk3wxj.s 			page 39


 691:main.c        ****                 straightAdjust(FRONT_SENSORS);
 1469              		.loc 1 691 0
 1470 087e 0720     		movs	r0, #7
 1471 0880 FFF7FEFF 		bl	straightAdjust
 1472              	.LVL215:
 692:main.c        ****                 moveUntil(CLEARANCE_RADIUS_CENTER_TO_BACK - 140, BACKWARD, LESS_THAN, BACK_RIGHT, S
 1473              		.loc 1 692 0
 1474 0884 0194     		str	r4, [sp, #4]
 1475 0886 0095     		str	r5, [sp]
 1476 0888 0423     		movs	r3, #4
 1477 088a 1A46     		mov	r2, r3
 1478 088c 0021     		movs	r1, #0
 1479 088e 6420     		movs	r0, #100
 1480 0890 FFF7FEFF 		bl	moveUntil
 1481              	.LVL216:
 693:main.c        ****                 //displaceLeft(); Repeatedly call this if below function not implemented
 694:main.c        ****                 //displaceLeftUntil(CLEARANCE_RADIUS_CENTER_TO_BACK,RIGHT);
 695:main.c        ****                 changeOrientation(EAST, SPEED);
 1482              		.loc 1 695 0
 1483 0894 2946     		mov	r1, r5
 1484 0896 2046     		mov	r0, r4
 1485 0898 FFF7FEFF 		bl	changeOrientation
 1486              	.LVL217:
 696:main.c        ****                 //displaceLeft();
 697:main.c        ****                 //displaceLeftUntil(DISTANCE_PUCKS_FROM_NORTH + WIDTH_SENSOR_TO_CENTER ,RIGHT);
 698:main.c        ****                 moveUntil(WALL_CLEARANCE_FRONT, FORWARD, LESS_THAN, FRONT_LEFT, SPEED, TRUE);
 1487              		.loc 1 698 0
 1488 089c 0194     		str	r4, [sp, #4]
 1489 089e 0095     		str	r5, [sp]
 1490 08a0 0023     		movs	r3, #0
 1491 08a2 0422     		movs	r2, #4
 1492 08a4 2146     		mov	r1, r4
 1493 08a6 AF20     		movs	r0, #175
 1494 08a8 FFF7FEFF 		bl	moveUntil
 1495              	.LVL218:
 1496              	.L35:
 699:main.c        ****                 
 700:main.c        ****             }   
 701:main.c        ****             
 702:main.c        ****             state = STATE_DEPOSIT_PUCK;
 1497              		.loc 1 702 0
 1498 08ac 0622     		movs	r2, #6
 1499 08ae 694B     		ldr	r3, .L54
 1500 08b0 5A60     		str	r2, [r3, #4]
 1501              	.L33:
 703:main.c        ****         }
 704:main.c        ****         
 705:main.c        **** //        
 706:main.c        **** // *** 6. STATE DEPOSIT PUCK: *** // 
 707:main.c        **** //
 708:main.c        ****         
 709:main.c        ****         // We choose where we put the puck. Depending if its needed now, later or never.
 710:main.c        ****         if (state == STATE_DEPOSIT_PUCK){
 1502              		.loc 1 710 0
 1503 08b2 684B     		ldr	r3, .L54
 1504 08b4 5B68     		ldr	r3, [r3, #4]
 1505 08b6 062B     		cmp	r3, #6
ARM GAS  C:\Users\Misha\AppData\Local\Temp\ccDk3wxj.s 			page 40


 1506 08b8 40F09A80 		bne	.L38
 1507              	.LBB11:
 711:main.c        ****                 
 712:main.c        ****             
 713:main.c        ****             // Temp grab puck
 714:main.c        ****             control_photodiode_Write(CLAW_SENSING);    // changes to claw photodiode
 1508              		.loc 1 714 0
 1509 08bc 0120     		movs	r0, #1
 1510 08be FFF7FEFF 		bl	control_photodiode_Write
 1511              	.LVL219:
 715:main.c        ****             colour_sensing_algorithm = CLAW_GROUND_ALGORITHM;   // changes it to claw algorithm
 1512              		.loc 1 715 0
 1513 08c2 644C     		ldr	r4, .L54
 1514 08c4 0523     		movs	r3, #5
 1515 08c6 E360     		str	r3, [r4, #12]
 716:main.c        ****             
 717:main.c        ****             /*
 718:main.c        ****             armOpen();
 719:main.c        ****             colourSensingInitialise();
 720:main.c        ****             CyDelay(2000);
 721:main.c        ****             armClose();
 722:main.c        ****             */
 723:main.c        ****             
 724:main.c        ****             
 725:main.c        ****             
 726:main.c        ****             int heldColour = colourSensingOutput();
 1516              		.loc 1 726 0
 1517 08c8 FFF7FEFF 		bl	colourSensingOutput
 1518              	.LVL220:
 727:main.c        ****             //blinkLED(heldColour,500);
 728:main.c        ****             
 729:main.c        ****             
 730:main.c        ****             // TO DELETE
 731:main.c        ****             heldColour = current_stage; // temp checking it can stack with a fixed rgb order for si
 1519              		.loc 1 731 0
 1520 08cc 624B     		ldr	r3, .L54+4
 1521 08ce 1A68     		ldr	r2, [r3]
 1522              	.LVL221:
 732:main.c        ****             //armOpen();
 733:main.c        ****             //CyDelay(1000);
 734:main.c        ****             //armClose();
 735:main.c        ****             
 736:main.c        ****             
 737:main.c        ****             if (heldColour == puck_construction_plan[current_puck_stack_size] ) { // The currently 
 1523              		.loc 1 737 0
 1524 08d0 636D     		ldr	r3, [r4, #84]
 1525 08d2 04EB8304 		add	r4, r4, r3, lsl #2
 1526 08d6 2369     		ldr	r3, [r4, #16]
 1527 08d8 9A42     		cmp	r2, r3
 1528 08da 1DD1     		bne	.L39
 738:main.c        ****                 moveUntil(HOME_MIDPOINT - DISTANCE_FRONT_SENSOR_FROM_CENTER, BACKWARD, GREATER_THAN
 1529              		.loc 1 738 0
 1530 08dc 0125     		movs	r5, #1
 1531 08de 0195     		str	r5, [sp, #4]
 1532 08e0 C824     		movs	r4, #200
 1533 08e2 0094     		str	r4, [sp]
 1534 08e4 0023     		movs	r3, #0
ARM GAS  C:\Users\Misha\AppData\Local\Temp\ccDk3wxj.s 			page 41


 1535 08e6 0522     		movs	r2, #5
 1536              	.LVL222:
 1537 08e8 1946     		mov	r1, r3
 1538 08ea 40F22620 		movw	r0, #550
 1539 08ee FFF7FEFF 		bl	moveUntil
 1540              	.LVL223:
 739:main.c        ****                 changeOrientation(NORTH,SPEED);
 1541              		.loc 1 739 0
 1542 08f2 2146     		mov	r1, r4
 1543 08f4 0020     		movs	r0, #0
 1544 08f6 FFF7FEFF 		bl	changeOrientation
 1545              	.LVL224:
 740:main.c        ****                 changeOrientation(WEST,SPEED);
 1546              		.loc 1 740 0
 1547 08fa 2146     		mov	r1, r4
 1548 08fc 0320     		movs	r0, #3
 1549 08fe FFF7FEFF 		bl	changeOrientation
 1550              	.LVL225:
 741:main.c        ****                 moveUntil(CONSTRUCTION_MIDPOINT - DISTANCE_FRONT_SENSOR_FROM_CENTER - 30, FORWARD, 
 1551              		.loc 1 741 0
 1552 0902 0195     		str	r5, [sp, #4]
 1553 0904 0094     		str	r4, [sp]
 1554 0906 0023     		movs	r3, #0
 1555 0908 0422     		movs	r2, #4
 1556 090a 2946     		mov	r1, r5
 1557 090c AA20     		movs	r0, #170
 1558 090e FFF7FEFF 		bl	moveUntil
 1559              	.LVL226:
 742:main.c        ****                 straightAdjust(FRONT_SENSORS);
 1560              		.loc 1 742 0
 1561 0912 0720     		movs	r0, #7
 1562 0914 FFF7FEFF 		bl	straightAdjust
 1563              	.LVL227:
 1564              	.L39:
 743:main.c        ****                 
 744:main.c        ****                 //changeOrientation(SOUTH, SPEED);
 745:main.c        ****                 //moveUntil(CONSTRUCTION_MIDPOINT - DISTANCE_FRONT_SENSOR_FROM_CENTER, FORWARD, LES
 746:main.c        ****                 
 747:main.c        ****                 
 748:main.c        ****                 
 749:main.c        ****             }
 750:main.c        ****             /*
 751:main.c        ****             else if ( heldColour == puck_construction_plan[1] || heldColour == puck_construction_pl
 752:main.c        ****                 moveUntil(ARENA_WIDTH - FIRST_TEMP_DROPOFF + DISTANCE_FRONT_SENSOR_FROM_CENTER, BAC
 753:main.c        ****                 straightAdjust();
 754:main.c        ****             }
 755:main.c        ****             
 756:main.c        ****             else {
 757:main.c        ****                 moveUntil(ARENA_WIDTH-FIRST_DISCARD_ZONE + DISTANCE_FRONT_SENSOR_FROM_CENTER, BACKW
 758:main.c        ****             } // Discard the puck so drop it in rubbish pile
 759:main.c        ****             
 760:main.c        ****             */
 761:main.c        **** 
 762:main.c        ****             changeOrientation(SOUTH,SPEED);    
 1565              		.loc 1 762 0
 1566 0918 C821     		movs	r1, #200
 1567 091a 0220     		movs	r0, #2
ARM GAS  C:\Users\Misha\AppData\Local\Temp\ccDk3wxj.s 			page 42


 1568 091c FFF7FEFF 		bl	changeOrientation
 1569              	.LVL228:
 763:main.c        ****             changeHeightToPuck(ABOVE_3_PUCK, CLOSE); // Lift claw above stack to avoid hitting the 
 1570              		.loc 1 763 0
 1571 0920 0121     		movs	r1, #1
 1572 0922 0320     		movs	r0, #3
 1573 0924 FFF7FEFF 		bl	changeHeightToPuck
 1574              	.LVL229:
 764:main.c        ****             
 765:main.c        ****             if (current_puck_stack_size == 0){
 1575              		.loc 1 765 0
 1576 0928 4A4B     		ldr	r3, .L54
 1577 092a 5B6D     		ldr	r3, [r3, #84]
 1578 092c 63B9     		cbnz	r3, .L40
 766:main.c        ****                 straightAdjust(FRONT_SENSORS);
 1579              		.loc 1 766 0
 1580 092e 0720     		movs	r0, #7
 1581 0930 FFF7FEFF 		bl	straightAdjust
 1582              	.LVL230:
 767:main.c        ****                 moveUntil(CONSTRUCTION_DISTANCE_FROM_WALL, FORWARD, LESS_THAN, FRONT_LEFT, SPEED,TR
 1583              		.loc 1 767 0
 1584 0934 0121     		movs	r1, #1
 1585 0936 0191     		str	r1, [sp, #4]
 1586 0938 C823     		movs	r3, #200
 1587 093a 0093     		str	r3, [sp]
 1588 093c 0023     		movs	r3, #0
 1589 093e 0422     		movs	r2, #4
 1590 0940 8220     		movs	r0, #130
 1591 0942 FFF7FEFF 		bl	moveUntil
 1592              	.LVL231:
 1593 0946 09E0     		b	.L41
 1594              	.L40:
 768:main.c        ****                
 769:main.c        ****             }
 770:main.c        ****             else {
 771:main.c        ****                 moveUntil(DISTANCE_BEFORE_STACK_MIDDLE_SENSOR, FORWARD, LESS_THAN, FRONT_MIDDLE, SP
 1595              		.loc 1 771 0
 1596 0948 0023     		movs	r3, #0
 1597 094a 0193     		str	r3, [sp, #4]
 1598 094c 4623     		movs	r3, #70
 1599 094e 0093     		str	r3, [sp]
 1600 0950 0523     		movs	r3, #5
 1601 0952 0422     		movs	r2, #4
 1602 0954 0121     		movs	r1, #1
 1603 0956 5F20     		movs	r0, #95
 1604 0958 FFF7FEFF 		bl	moveUntil
 1605              	.LVL232:
 1606              	.L41:
 772:main.c        ****                 //moveDynamic(140, SPEED, FALSE);            
 773:main.c        ****             }
 774:main.c        ****             
 775:main.c        ****             //moveDynamic(CONSTRUCTION_DISTANCE_CLEAR_FROM_STACK - CONSTRUCTION_DISTANCE_FROM_WALL,
 776:main.c        ****             
 777:main.c        ****             changeHeightToPuck(current_puck_stack_size, CLOSE);
 1607              		.loc 1 777 0
 1608 095c 0121     		movs	r1, #1
 1609 095e 3D4B     		ldr	r3, .L54
ARM GAS  C:\Users\Misha\AppData\Local\Temp\ccDk3wxj.s 			page 43


 1610 0960 586D     		ldr	r0, [r3, #84]
 1611 0962 FFF7FEFF 		bl	changeHeightToPuck
 1612              	.LVL233:
 778:main.c        ****             armOpen();
 1613              		.loc 1 778 0
 1614 0966 FFF7FEFF 		bl	armOpen
 1615              	.LVL234:
 779:main.c        ****             changeHeightToPuck(ABOVE_3_PUCK, OPEN); // Move higher than stack to avoid hitting it.
 1616              		.loc 1 779 0
 1617 096a 0021     		movs	r1, #0
 1618 096c 0320     		movs	r0, #3
 1619 096e FFF7FEFF 		bl	changeHeightToPuck
 1620              	.LVL235:
 780:main.c        ****             
 781:main.c        **** 
 782:main.c        ****             if (current_stage >= 3){state = STATE_PARK_HOME;}        // Returns to home 
 1621              		.loc 1 782 0
 1622 0972 394B     		ldr	r3, .L54+4
 1623 0974 1B68     		ldr	r3, [r3]
 1624 0976 022B     		cmp	r3, #2
 1625 0978 03DD     		ble	.L42
 1626              		.loc 1 782 0 is_stmt 0 discriminator 1
 1627 097a 0722     		movs	r2, #7
 1628 097c 354B     		ldr	r3, .L54
 1629 097e 5A60     		str	r2, [r3, #4]
 1630 0980 36E0     		b	.L38
 1631              	.L42:
 783:main.c        ****             else {current_stage++; current_puck_stack_size++;
 1632              		.loc 1 783 0 is_stmt 1
 1633 0982 0133     		adds	r3, r3, #1
 1634 0984 344A     		ldr	r2, .L54+4
 1635 0986 1360     		str	r3, [r2]
 1636 0988 324E     		ldr	r6, .L54
 1637 098a 736D     		ldr	r3, [r6, #84]
 1638 098c 0133     		adds	r3, r3, #1
 1639 098e 7365     		str	r3, [r6, #84]
 784:main.c        ****             // Need to go back to the east wall facing east.
 785:main.c        ****                 //moveUntil(CONSTRUCTION_DISTANCE_CLEAR_FROM_STACK, BACKWARD, GREATER_THAN, FRONT_L
 786:main.c        ****                 moveDynamic(-130,SPEED,TRUE);
 1640              		.loc 1 786 0
 1641 0990 0122     		movs	r2, #1
 1642 0992 C821     		movs	r1, #200
 1643 0994 6FF08100 		mvn	r0, #129
 1644 0998 FFF7FEFF 		bl	moveDynamic
 1645              	.LVL236:
 787:main.c        ****                 changeOrientation(WEST,SPEED);
 1646              		.loc 1 787 0
 1647 099c C821     		movs	r1, #200
 1648 099e 0320     		movs	r0, #3
 1649 09a0 FFF7FEFF 		bl	changeOrientation
 1650              	.LVL237:
 788:main.c        ****                 straightAdjust(FRONT_SENSORS);
 1651              		.loc 1 788 0
 1652 09a4 0720     		movs	r0, #7
 1653 09a6 FFF7FEFF 		bl	straightAdjust
 1654              	.LVL238:
 789:main.c        ****                 moveUntil(HOME_MIDPOINT - DISTANCE_FRONT_SENSOR_FROM_CENTER, BACKWARD, GREATER_THAN
ARM GAS  C:\Users\Misha\AppData\Local\Temp\ccDk3wxj.s 			page 44


 1655              		.loc 1 789 0
 1656 09aa 0124     		movs	r4, #1
 1657 09ac 0194     		str	r4, [sp, #4]
 1658 09ae C825     		movs	r5, #200
 1659 09b0 0095     		str	r5, [sp]
 1660 09b2 0023     		movs	r3, #0
 1661 09b4 0522     		movs	r2, #5
 1662 09b6 1946     		mov	r1, r3
 1663 09b8 40F22620 		movw	r0, #550
 1664 09bc FFF7FEFF 		bl	moveUntil
 1665              	.LVL239:
 790:main.c        ****                 straightAdjust(FRONT_SENSORS);
 1666              		.loc 1 790 0
 1667 09c0 0720     		movs	r0, #7
 1668 09c2 FFF7FEFF 		bl	straightAdjust
 1669              	.LVL240:
 791:main.c        ****                 changeOrientation(NORTH,SPEED);
 1670              		.loc 1 791 0
 1671 09c6 2946     		mov	r1, r5
 1672 09c8 0020     		movs	r0, #0
 1673 09ca FFF7FEFF 		bl	changeOrientation
 1674              	.LVL241:
 792:main.c        ****                 changeOrientation(EAST,SPEED);
 1675              		.loc 1 792 0
 1676 09ce 2946     		mov	r1, r5
 1677 09d0 2046     		mov	r0, r4
 1678 09d2 FFF7FEFF 		bl	changeOrientation
 1679              	.LVL242:
 793:main.c        ****                 moveUntil(DISTANCE_FRONT_SENSOR_FROM_CENTER + SAFETY_MARGIN + 50, FORWARD, LESS_THA
 1680              		.loc 1 793 0
 1681 09d6 0194     		str	r4, [sp, #4]
 1682 09d8 0095     		str	r5, [sp]
 1683 09da 0023     		movs	r3, #0
 1684 09dc 0422     		movs	r2, #4
 1685 09de 2146     		mov	r1, r4
 1686 09e0 B920     		movs	r0, #185
 1687 09e2 FFF7FEFF 		bl	moveUntil
 1688              	.LVL243:
 794:main.c        ****                 straightAdjust(FRONT_SENSORS);
 1689              		.loc 1 794 0
 1690 09e6 0720     		movs	r0, #7
 1691 09e8 FFF7FEFF 		bl	straightAdjust
 1692              	.LVL244:
 795:main.c        ****                 
 796:main.c        ****                 
 797:main.c        ****                 //Usually we will check if the next colour we need is in home base already
 798:main.c        ****                 //
 799:main.c        ****                 // If in east edge of home base
 800:main.c        ****                 if ( puck_construction_plan[current_puck_stack_size] == puck_temp_pile[0]){
 801:main.c        ****                     
 802:main.c        ****                 }
 803:main.c        ****                 //If in west edge of home base
 804:main.c        ****                 else if(puck_construction_plan[current_puck_stack_size] == puck_temp_pile[1]){
 805:main.c        ****                          
 806:main.c        ****                 }
 807:main.c        ****                 
 808:main.c        ****                 state = STATE_GO_TO_PUCKS; // Go grab the next puck from the pile since it isn't in
ARM GAS  C:\Users\Misha\AppData\Local\Temp\ccDk3wxj.s 			page 45


 1693              		.loc 1 808 0
 1694 09ec 0323     		movs	r3, #3
 1695 09ee 7360     		str	r3, [r6, #4]
 1696              	.L38:
 1697              	.LBE11:
 809:main.c        ****             }
 810:main.c        ****             
 811:main.c        ****             
 812:main.c        **** 
 813:main.c        ****         }
 814:main.c        ****  
 815:main.c        **** //        
 816:main.c        **** // *** 7. STATE PARK HOME: *** // 
 817:main.c        **** //        
 818:main.c        ****         
 819:main.c        ****         if (state == STATE_PARK_HOME){
 1698              		.loc 1 819 0
 1699 09f0 184B     		ldr	r3, .L54
 1700 09f2 5B68     		ldr	r3, [r3, #4]
 1701 09f4 072B     		cmp	r3, #7
 1702 09f6 7FF48AAB 		bne	.L43
 820:main.c        ****             
 821:main.c        ****             // When we enter this state we can assume that we have just deposited the final puck on
 822:main.c        ****             // Thus we are facing the stack.
 823:main.c        ****             
 824:main.c        ****             
 825:main.c        ****             moveUntil(CONSTRUCTION_DISTANCE_CLEAR_FROM_STACK, BACKWARD, GREATER_THAN, FRONT_LEFT, S
 1703              		.loc 1 825 0
 1704 09fa 0024     		movs	r4, #0
 1705 09fc 0194     		str	r4, [sp, #4]
 1706 09fe C825     		movs	r5, #200
 1707 0a00 0095     		str	r5, [sp]
 1708 0a02 2346     		mov	r3, r4
 1709 0a04 0522     		movs	r2, #5
 1710 0a06 2146     		mov	r1, r4
 1711 0a08 D220     		movs	r0, #210
 1712 0a0a FFF7FEFF 		bl	moveUntil
 1713              	.LVL245:
 826:main.c        ****             changeOrientation(WEST,SPEED);
 1714              		.loc 1 826 0
 1715 0a0e 2946     		mov	r1, r5
 1716 0a10 0320     		movs	r0, #3
 1717 0a12 FFF7FEFF 		bl	changeOrientation
 1718              	.LVL246:
 827:main.c        ****             straightAdjust(FRONT_SENSORS);
 1719              		.loc 1 827 0
 1720 0a16 0720     		movs	r0, #7
 1721 0a18 FFF7FEFF 		bl	straightAdjust
 1722              	.LVL247:
 828:main.c        ****             moveUntil(HOME_MIDPOINT - DISTANCE_FRONT_SENSOR_FROM_CENTER - 45 , BACKWARD, GREATER_TH
 1723              		.loc 1 828 0
 1724 0a1c 0126     		movs	r6, #1
 1725 0a1e 0196     		str	r6, [sp, #4]
 1726 0a20 0095     		str	r5, [sp]
 1727 0a22 3346     		mov	r3, r6
 1728 0a24 0522     		movs	r2, #5
 1729 0a26 2146     		mov	r1, r4
ARM GAS  C:\Users\Misha\AppData\Local\Temp\ccDk3wxj.s 			page 46


 1730 0a28 40F2F910 		movw	r0, #505
 1731 0a2c FFF7FEFF 		bl	moveUntil
 1732              	.LVL248:
 829:main.c        ****             changeOrientation(NORTH,SPEED);
 1733              		.loc 1 829 0
 1734 0a30 2946     		mov	r1, r5
 1735 0a32 2046     		mov	r0, r4
 1736 0a34 FFF7FEFF 		bl	changeOrientation
 1737              	.LVL249:
 830:main.c        ****             moveUntil(HOME_PARKING_DISTANCE , BACKWARD, LESS_THAN, BACK_RIGHT, SPEED, TRUE);
 1738              		.loc 1 830 0
 1739 0a38 0196     		str	r6, [sp, #4]
 1740 0a3a 0095     		str	r5, [sp]
 1741 0a3c 0423     		movs	r3, #4
 1742 0a3e 1A46     		mov	r2, r3
 1743 0a40 2146     		mov	r1, r4
 1744 0a42 2820     		movs	r0, #40
 1745 0a44 FFF7FEFF 		bl	moveUntil
 1746              	.LVL250:
 831:main.c        **** 
 832:main.c        ****             // END Congratulations:
 833:main.c        ****             changeHeightToPuck(GROUND, NEITHER);
 1747              		.loc 1 833 0
 1748 0a48 0221     		movs	r1, #2
 1749 0a4a 2046     		mov	r0, r4
 1750 0a4c FFF7FEFF 		bl	changeHeightToPuck
 1751              	.LVL251:
 1752              	.L44:
 1753 0a50 FEE7     		b	.L44
 1754              	.L55:
 1755 0a52 00BF     		.align	2
 1756              	.L54:
 1757 0a54 00000000 		.word	.LANCHOR0
 1758 0a58 00000000 		.word	.LANCHOR1
 1759              		.cfi_endproc
 1760              	.LFE67:
 1761              		.size	main, .-main
 1762              		.comm	distance_returned_global,4,4
 1763              		.global	current_stage
 1764              		.global	PLAN_SCAN_VERTICAL
 1765              		.global	moving
 1766              		.global	colour_sensing_algorithm
 1767              		.global	colour_flag
 1768              		.global	idac_value
 1769              		.global	puck_west_clearance
 1770              		.global	puck_east_clearance
 1771              		.global	block_west_clearance
 1772              		.global	block_east_clearance
 1773              		.global	safety_override
 1774              		.global	puck_location
 1775              		.global	block_location
 1776              		.global	begin_navigation
 1777              		.global	puck_temp_pile
 1778              		.global	puck_construction_plan
 1779              		.global	current_puck_stack_size
 1780              		.global	state
 1781              		.comm	ultrasonic_flag,4,4
ARM GAS  C:\Users\Misha\AppData\Local\Temp\ccDk3wxj.s 			page 47


 1782              		.comm	initialisation,4,4
 1783              		.comm	output,32,4
 1784              		.global	block_edge_location
 1785              		.global	puck_rack_west_offsets
 1786              		.global	puck_rack_scans
 1787              		.comm	internal_orientation,4,4
 1788              		.section	.rodata
 1789              		.align	2
 1790              		.type	PLAN_SCAN_VERTICAL, %object
 1791              		.size	PLAN_SCAN_VERTICAL, 4
 1792              	PLAN_SCAN_VERTICAL:
 1793 0000 0A000000 		.word	10
 1794              		.data
 1795              		.align	2
 1796              		.set	.LANCHOR1,. + 0
 1797              		.type	current_stage, %object
 1798              		.size	current_stage, 4
 1799              	current_stage:
 1800 0000 01000000 		.word	1
 1801              		.type	colour_flag, %object
 1802              		.size	colour_flag, 4
 1803              	colour_flag:
 1804 0004 01000000 		.word	1
 1805              		.type	puck_rack_west_offsets, %object
 1806              		.size	puck_rack_west_offsets, 20
 1807              	puck_rack_west_offsets:
 1808 0008 D0020000 		.word	720
 1809 000c 94020000 		.word	660
 1810 0010 58020000 		.word	600
 1811 0014 1C020000 		.word	540
 1812 0018 E0010000 		.word	480
 1813              		.section	.rodata.str1.4,"aMS",%progbits,1
 1814              		.align	2
 1815              	.LC0:
 1816 0000 42656769 		.ascii	"Beginning Navigation \012\000"
 1816      6E6E696E 
 1816      67204E61 
 1816      76696761 
 1816      74696F6E 
 1817 0017 00       		.space	1
 1818              	.LC1:
 1819 0018 55415254 		.ascii	"UART commencing... \012\000"
 1819      20636F6D 
 1819      6D656E63 
 1819      696E672E 
 1819      2E2E200A 
 1820 002d 000000   		.space	3
 1821              	.LC2:
 1822 0030 556C7472 		.ascii	"Ultrasonic Calibration tests: \012\000"
 1822      61736F6E 
 1822      69632043 
 1822      616C6962 
 1822      72617469 
 1823              	.LC3:
 1824 0050 466F756E 		.ascii	"Found Colours: \012\000"
 1824      6420436F 
 1824      6C6F7572 
ARM GAS  C:\Users\Misha\AppData\Local\Temp\ccDk3wxj.s 			page 48


 1824      733A200A 
 1824      00
 1825 0061 000000   		.space	3
 1826              	.LC4:
 1827 0064 2569200A 		.ascii	"%i \012\000"
 1827      00
 1828 0069 000000   		.space	3
 1829              	.LC5:
 1830 006c 626C6F63 		.ascii	"block threshold: %d \012\000"
 1830      6B207468 
 1830      72657368 
 1830      6F6C643A 
 1830      20256420 
 1831 0082 0000     		.space	2
 1832              	.LC6:
 1833 0084 7075636B 		.ascii	"puck threshold: %d \012\000"
 1833      20746872 
 1833      6573686F 
 1833      6C643A20 
 1833      2564200A 
 1834 0099 000000   		.space	3
 1835              	.LC7:
 1836 009c 6F666673 		.ascii	"offset: %d, \012\000"
 1836      65743A20 
 1836      25642C20 
 1836      0A00
 1837 00aa 0000     		.space	2
 1838              	.LC8:
 1839 00ac 65617374 		.ascii	"east puck: %d, \012\000"
 1839      20707563 
 1839      6B3A2025 
 1839      642C200A 
 1839      00
 1840 00bd 000000   		.space	3
 1841              	.LC9:
 1842 00c0 77657374 		.ascii	"west puck: %d, \012\000"
 1842      20707563 
 1842      6B3A2025 
 1842      642C200A 
 1842      00
 1843 00d1 000000   		.space	3
 1844              	.LC10:
 1845 00d4 65617374 		.ascii	"east block: %d, \012\000"
 1845      20626C6F 
 1845      636B3A20 
 1845      25642C20 
 1845      0A00
 1846 00e6 0000     		.space	2
 1847              	.LC11:
 1848 00e8 77657374 		.ascii	"west block: %d, \012\000"
 1848      20626C6F 
 1848      636B3A20 
 1848      25642C20 
 1848      0A00
 1849              		.bss
 1850              		.align	2
 1851              		.set	.LANCHOR0,. + 0
ARM GAS  C:\Users\Misha\AppData\Local\Temp\ccDk3wxj.s 			page 49


 1852              		.type	begin_navigation, %object
 1853              		.size	begin_navigation, 4
 1854              	begin_navigation:
 1855 0000 00000000 		.space	4
 1856              		.type	state, %object
 1857              		.size	state, 4
 1858              	state:
 1859 0004 00000000 		.space	4
 1860              		.type	idac_value, %object
 1861              		.size	idac_value, 4
 1862              	idac_value:
 1863 0008 00000000 		.space	4
 1864              		.type	colour_sensing_algorithm, %object
 1865              		.size	colour_sensing_algorithm, 4
 1866              	colour_sensing_algorithm:
 1867 000c 00000000 		.space	4
 1868              		.type	puck_construction_plan, %object
 1869              		.size	puck_construction_plan, 12
 1870              	puck_construction_plan:
 1871 0010 00000000 		.space	12
 1871      00000000 
 1871      00000000 
 1872              		.type	puck_rack_scans, %object
 1873              		.size	puck_rack_scans, 20
 1874              	puck_rack_scans:
 1875 001c 00000000 		.space	20
 1875      00000000 
 1875      00000000 
 1875      00000000 
 1875      00000000 
 1876              		.type	block_location, %object
 1877              		.size	block_location, 16
 1878              	block_location:
 1879 0030 00000000 		.space	16
 1879      00000000 
 1879      00000000 
 1879      00000000 
 1880              		.type	puck_location, %object
 1881              		.size	puck_location, 16
 1882              	puck_location:
 1883 0040 00000000 		.space	16
 1883      00000000 
 1883      00000000 
 1883      00000000 
 1884              		.type	block_east_clearance, %object
 1885              		.size	block_east_clearance, 2
 1886              	block_east_clearance:
 1887 0050 0000     		.space	2
 1888              		.type	puck_east_clearance, %object
 1889              		.size	puck_east_clearance, 2
 1890              	puck_east_clearance:
 1891 0052 0000     		.space	2
 1892              		.type	current_puck_stack_size, %object
 1893              		.size	current_puck_stack_size, 4
 1894              	current_puck_stack_size:
 1895 0054 00000000 		.space	4
 1896              		.type	block_west_clearance, %object
ARM GAS  C:\Users\Misha\AppData\Local\Temp\ccDk3wxj.s 			page 50


 1897              		.size	block_west_clearance, 2
 1898              	block_west_clearance:
 1899 0058 0000     		.space	2
 1900              		.type	puck_west_clearance, %object
 1901              		.size	puck_west_clearance, 2
 1902              	puck_west_clearance:
 1903 005a 0000     		.space	2
 1904              		.type	safety_override, %object
 1905              		.size	safety_override, 4
 1906              	safety_override:
 1907 005c 00000000 		.space	4
 1908              		.type	moving, %object
 1909              		.size	moving, 4
 1910              	moving:
 1911 0060 00000000 		.space	4
 1912              		.type	puck_temp_pile, %object
 1913              		.size	puck_temp_pile, 8
 1914              	puck_temp_pile:
 1915 0064 00000000 		.space	8
 1915      00000000 
 1916              		.type	block_edge_location, %object
 1917              		.size	block_edge_location, 16
 1918              	block_edge_location:
 1919 006c 00000000 		.space	16
 1919      00000000 
 1919      00000000 
 1919      00000000 
 1920              		.text
 1921              	.Letext0:
 1922              		.file 2 "c:\\program files (x86)\\cypress\\psoc creator\\4.2\\psoc creator\\import\\gnu\\arm\\5.4.
 1923              		.file 3 "c:\\program files (x86)\\cypress\\psoc creator\\4.2\\psoc creator\\import\\gnu\\arm\\5.4.
 1924              		.file 4 "Generated_Source\\PSoC5/core_cm3.h"
 1925              		.file 5 "navigation.h"
 1926              		.file 6 "ultrasonic.h"
 1927              		.file 7 "main.h"
 1928              		.file 8 "Generated_Source\\PSoC5/CyLib.h"
 1929              		.file 9 "Generated_Source\\PSoC5/UART_1.h"
 1930              		.file 10 "Generated_Source\\PSoC5/Motor_Left_Driver.h"
 1931              		.file 11 "Generated_Source\\PSoC5/Motor_Right_Driver.h"
 1932              		.file 12 "motor.h"
 1933              		.file 13 "colour.h"
 1934              		.file 14 "c:\\program files (x86)\\cypress\\psoc creator\\4.2\\psoc creator\\import\\gnu\\arm\\5.4
 1935              		.file 15 "debugging.h"
 1936              		.file 16 "Generated_Source\\PSoC5/control_photodiode.h"
 1937              		.file 17 "servo.h"
 1938              		.file 18 "Generated_Source\\PSoC5/TIA_1.h"
 1939              		.file 19 "Generated_Source\\PSoC5/ADC.h"
 1940              		.file 20 "Generated_Source\\PSoC5/IDAC8_1.h"
 1941              		.file 21 "Generated_Source\\PSoC5/control_led.h"
 1942              		.file 22 "Generated_Source\\PSoC5/Rack_Servo_PWM.h"
 1943              		.file 23 "Generated_Source\\PSoC5/Gripper_Servo_PWM.h"
 1944              		.file 24 "Generated_Source\\PSoC5/Motor_Left_Decoder.h"
 1945              		.file 25 "Generated_Source\\PSoC5/Motor_Right_Decoder.h"
 1946              		.file 26 "Generated_Source\\PSoC5/Timer_1.h"
 1947              		.file 27 "Generated_Source\\PSoC5/Sonic.h"
 1948              		.file 28 "Generated_Source\\PSoC5/Start.h"
 1949              		.file 29 "Generated_Source\\PSoC5/Straight.h"
ARM GAS  C:\Users\Misha\AppData\Local\Temp\ccDk3wxj.s 			page 51


 1950              		.file 30 "Generated_Source\\PSoC5/Timer_straight_adjust.h"
 1951              		.section	.debug_info,"",%progbits
 1952              	.Ldebug_info0:
 1953 0000 281C0000 		.4byte	0x1c28
 1954 0004 0400     		.2byte	0x4
 1955 0006 00000000 		.4byte	.Ldebug_abbrev0
 1956 000a 04       		.byte	0x4
 1957 000b 01       		.uleb128 0x1
 1958 000c 0D070000 		.4byte	.LASF104
 1959 0010 0C       		.byte	0xc
 1960 0011 CA050000 		.4byte	.LASF105
 1961 0015 58060000 		.4byte	.LASF106
 1962 0019 18000000 		.4byte	.Ldebug_ranges0+0x18
 1963 001d 00000000 		.4byte	0
 1964 0021 00000000 		.4byte	.Ldebug_line0
 1965 0025 02       		.uleb128 0x2
 1966 0026 01       		.byte	0x1
 1967 0027 06       		.byte	0x6
 1968 0028 5C040000 		.4byte	.LASF0
 1969 002c 02       		.uleb128 0x2
 1970 002d 01       		.byte	0x1
 1971 002e 08       		.byte	0x8
 1972 002f A1030000 		.4byte	.LASF1
 1973 0033 02       		.uleb128 0x2
 1974 0034 02       		.byte	0x2
 1975 0035 05       		.byte	0x5
 1976 0036 A5000000 		.4byte	.LASF2
 1977 003a 02       		.uleb128 0x2
 1978 003b 02       		.byte	0x2
 1979 003c 07       		.byte	0x7
 1980 003d 91050000 		.4byte	.LASF3
 1981 0041 03       		.uleb128 0x3
 1982 0042 4E060000 		.4byte	.LASF9
 1983 0046 02       		.byte	0x2
 1984 0047 3F       		.byte	0x3f
 1985 0048 4C000000 		.4byte	0x4c
 1986 004c 02       		.uleb128 0x2
 1987 004d 04       		.byte	0x4
 1988 004e 05       		.byte	0x5
 1989 004f BF020000 		.4byte	.LASF4
 1990 0053 02       		.uleb128 0x2
 1991 0054 04       		.byte	0x4
 1992 0055 07       		.byte	0x7
 1993 0056 BD040000 		.4byte	.LASF5
 1994 005a 02       		.uleb128 0x2
 1995 005b 08       		.byte	0x8
 1996 005c 05       		.byte	0x5
 1997 005d 57020000 		.4byte	.LASF6
 1998 0061 02       		.uleb128 0x2
 1999 0062 08       		.byte	0x8
 2000 0063 07       		.byte	0x7
 2001 0064 7C040000 		.4byte	.LASF7
 2002 0068 04       		.uleb128 0x4
 2003 0069 04       		.byte	0x4
 2004 006a 05       		.byte	0x5
 2005 006b 696E7400 		.ascii	"int\000"
 2006 006f 02       		.uleb128 0x2
ARM GAS  C:\Users\Misha\AppData\Local\Temp\ccDk3wxj.s 			page 52


 2007 0070 04       		.byte	0x4
 2008 0071 07       		.byte	0x7
 2009 0072 A5040000 		.4byte	.LASF8
 2010 0076 03       		.uleb128 0x3
 2011 0077 3F050000 		.4byte	.LASF10
 2012 007b 03       		.byte	0x3
 2013 007c 2C       		.byte	0x2c
 2014 007d 41000000 		.4byte	0x41
 2015 0081 02       		.uleb128 0x2
 2016 0082 04       		.byte	0x4
 2017 0083 04       		.byte	0x4
 2018 0084 3E020000 		.4byte	.LASF11
 2019 0088 02       		.uleb128 0x2
 2020 0089 08       		.byte	0x8
 2021 008a 04       		.byte	0x4
 2022 008b E0060000 		.4byte	.LASF12
 2023 008f 02       		.uleb128 0x2
 2024 0090 01       		.byte	0x1
 2025 0091 08       		.byte	0x8
 2026 0092 35050000 		.4byte	.LASF13
 2027 0096 02       		.uleb128 0x2
 2028 0097 08       		.byte	0x8
 2029 0098 04       		.byte	0x4
 2030 0099 2E010000 		.4byte	.LASF14
 2031 009d 02       		.uleb128 0x2
 2032 009e 04       		.byte	0x4
 2033 009f 07       		.byte	0x7
 2034 00a0 D0060000 		.4byte	.LASF15
 2035 00a4 05       		.uleb128 0x5
 2036 00a5 54494800 		.ascii	"TIH\000"
 2037 00a9 01       		.byte	0x1
 2038 00aa 5F       		.byte	0x5f
 2039 00ab 00000000 		.4byte	.LFB64
 2040 00af 08000000 		.4byte	.LFE64-.LFB64
 2041 00b3 01       		.uleb128 0x1
 2042 00b4 9C       		.byte	0x9c
 2043 00b5 C3000000 		.4byte	0xc3
 2044 00b9 06       		.uleb128 0x6
 2045 00ba 06000000 		.4byte	.LVL0
 2046 00be 051A0000 		.4byte	0x1a05
 2047 00c2 00       		.byte	0
 2048 00c3 07       		.uleb128 0x7
 2049 00c4 5D010000 		.4byte	.LASF16
 2050 00c8 01       		.byte	0x1
 2051 00c9 64       		.byte	0x64
 2052 00ca 00000000 		.4byte	.LFB65
 2053 00ce 24000000 		.4byte	.LFE65-.LFB65
 2054 00d2 01       		.uleb128 0x1
 2055 00d3 9C       		.byte	0x9c
 2056 00d4 00010000 		.4byte	0x100
 2057 00d8 08       		.uleb128 0x8
 2058 00d9 08000000 		.4byte	.LVL1
 2059 00dd 101A0000 		.4byte	0x1a10
 2060 00e1 EC000000 		.4byte	0xec
 2061 00e5 09       		.uleb128 0x9
 2062 00e6 01       		.uleb128 0x1
 2063 00e7 50       		.byte	0x50
ARM GAS  C:\Users\Misha\AppData\Local\Temp\ccDk3wxj.s 			page 53


 2064 00e8 02       		.uleb128 0x2
 2065 00e9 08       		.byte	0x8
 2066 00ea 64       		.byte	0x64
 2067 00eb 00       		.byte	0
 2068 00ec 0A       		.uleb128 0xa
 2069 00ed 14000000 		.4byte	.LVL2
 2070 00f1 1B1A0000 		.4byte	0x1a1b
 2071 00f5 09       		.uleb128 0x9
 2072 00f6 01       		.uleb128 0x1
 2073 00f7 50       		.byte	0x50
 2074 00f8 05       		.uleb128 0x5
 2075 00f9 03       		.byte	0x3
 2076 00fa 00000000 		.4byte	.LC0
 2077 00fe 00       		.byte	0
 2078 00ff 00       		.byte	0
 2079 0100 07       		.uleb128 0x7
 2080 0101 59030000 		.4byte	.LASF17
 2081 0105 01       		.byte	0x1
 2082 0106 6E       		.byte	0x6e
 2083 0107 00000000 		.4byte	.LFB66
 2084 010b 36000000 		.4byte	.LFE66-.LFB66
 2085 010f 01       		.uleb128 0x1
 2086 0110 9C       		.byte	0x9c
 2087 0111 9B010000 		.4byte	0x19b
 2088 0115 06       		.uleb128 0x6
 2089 0116 06000000 		.4byte	.LVL3
 2090 011a 261A0000 		.4byte	0x1a26
 2091 011e 06       		.uleb128 0x6
 2092 011f 0A000000 		.4byte	.LVL4
 2093 0123 311A0000 		.4byte	0x1a31
 2094 0127 08       		.uleb128 0x8
 2095 0128 16000000 		.4byte	.LVL5
 2096 012c 3C1A0000 		.4byte	0x1a3c
 2097 0130 46010000 		.4byte	0x146
 2098 0134 09       		.uleb128 0x9
 2099 0135 01       		.uleb128 0x1
 2100 0136 50       		.byte	0x50
 2101 0137 02       		.uleb128 0x2
 2102 0138 09       		.byte	0x9
 2103 0139 EC       		.byte	0xec
 2104 013a 09       		.uleb128 0x9
 2105 013b 01       		.uleb128 0x1
 2106 013c 51       		.byte	0x51
 2107 013d 02       		.uleb128 0x2
 2108 013e 08       		.byte	0x8
 2109 013f C8       		.byte	0xc8
 2110 0140 09       		.uleb128 0x9
 2111 0141 01       		.uleb128 0x1
 2112 0142 52       		.byte	0x52
 2113 0143 01       		.uleb128 0x1
 2114 0144 31       		.byte	0x31
 2115 0145 00       		.byte	0
 2116 0146 08       		.uleb128 0x8
 2117 0147 20000000 		.4byte	.LVL6
 2118 014b 3C1A0000 		.4byte	0x1a3c
 2119 014f 64010000 		.4byte	0x164
 2120 0153 09       		.uleb128 0x9
ARM GAS  C:\Users\Misha\AppData\Local\Temp\ccDk3wxj.s 			page 54


 2121 0154 01       		.uleb128 0x1
 2122 0155 50       		.byte	0x50
 2123 0156 01       		.uleb128 0x1
 2124 0157 44       		.byte	0x44
 2125 0158 09       		.uleb128 0x9
 2126 0159 01       		.uleb128 0x1
 2127 015a 51       		.byte	0x51
 2128 015b 02       		.uleb128 0x2
 2129 015c 08       		.byte	0x8
 2130 015d C8       		.byte	0xc8
 2131 015e 09       		.uleb128 0x9
 2132 015f 01       		.uleb128 0x1
 2133 0160 52       		.byte	0x52
 2134 0161 01       		.uleb128 0x1
 2135 0162 31       		.byte	0x31
 2136 0163 00       		.byte	0
 2137 0164 06       		.uleb128 0x6
 2138 0165 24000000 		.4byte	.LVL7
 2139 0169 471A0000 		.4byte	0x1a47
 2140 016d 08       		.uleb128 0x8
 2141 016e 2A000000 		.4byte	.LVL8
 2142 0172 521A0000 		.4byte	0x1a52
 2143 0176 81010000 		.4byte	0x181
 2144 017a 09       		.uleb128 0x9
 2145 017b 01       		.uleb128 0x1
 2146 017c 50       		.byte	0x50
 2147 017d 02       		.uleb128 0x2
 2148 017e 09       		.byte	0x9
 2149 017f C8       		.byte	0xc8
 2150 0180 00       		.byte	0
 2151 0181 06       		.uleb128 0x6
 2152 0182 2E000000 		.4byte	.LVL9
 2153 0186 5D1A0000 		.4byte	0x1a5d
 2154 018a 0A       		.uleb128 0xa
 2155 018b 34000000 		.4byte	.LVL10
 2156 018f 681A0000 		.4byte	0x1a68
 2157 0193 09       		.uleb128 0x9
 2158 0194 01       		.uleb128 0x1
 2159 0195 50       		.byte	0x50
 2160 0196 02       		.uleb128 0x2
 2161 0197 09       		.byte	0x9
 2162 0198 C8       		.byte	0xc8
 2163 0199 00       		.byte	0
 2164 019a 00       		.byte	0
 2165 019b 0B       		.uleb128 0xb
 2166 019c 3A050000 		.4byte	.LASF107
 2167 01a0 01       		.byte	0x1
 2168 01a1 7C       		.byte	0x7c
 2169 01a2 68000000 		.4byte	0x68
 2170 01a6 00000000 		.4byte	.LFB67
 2171 01aa 5C0A0000 		.4byte	.LFE67-.LFB67
 2172 01ae 01       		.uleb128 0x1
 2173 01af 9C       		.byte	0x9c
 2174 01b0 BA170000 		.4byte	0x17ba
 2175 01b4 0C       		.uleb128 0xc
 2176 01b5 7F020000 		.4byte	.LASF18
 2177 01b9 01       		.byte	0x1
ARM GAS  C:\Users\Misha\AppData\Local\Temp\ccDk3wxj.s 			page 55


 2178 01ba CE       		.byte	0xce
 2179 01bb 68000000 		.4byte	0x68
 2180 01bf 00       		.byte	0
 2181 01c0 0D       		.uleb128 0xd
 2182 01c1 16010000 		.4byte	.LBB2
 2183 01c5 F2000000 		.4byte	.LBE2-.LBB2
 2184 01c9 DB030000 		.4byte	0x3db
 2185 01cd 0E       		.uleb128 0xe
 2186 01ce FD020000 		.4byte	.LASF19
 2187 01d2 01       		.byte	0x1
 2188 01d3 1001     		.2byte	0x110
 2189 01d5 68000000 		.4byte	0x68
 2190 01d9 00000000 		.4byte	.LLST0
 2191 01dd 0D       		.uleb128 0xd
 2192 01de 78010000 		.4byte	.LBB3
 2193 01e2 32000000 		.4byte	.LBE3-.LBB3
 2194 01e6 47020000 		.4byte	0x247
 2195 01ea 0F       		.uleb128 0xf
 2196 01eb 6900     		.ascii	"i\000"
 2197 01ed 01       		.byte	0x1
 2198 01ee F9       		.byte	0xf9
 2199 01ef 68000000 		.4byte	0x68
 2200 01f3 1F000000 		.4byte	.LLST1
 2201 01f7 06       		.uleb128 0x6
 2202 01f8 80010000 		.4byte	.LVL67
 2203 01fc 731A0000 		.4byte	0x1a73
 2204 0200 08       		.uleb128 0x8
 2205 0201 90010000 		.4byte	.LVL68
 2206 0205 101A0000 		.4byte	0x1a10
 2207 0209 15020000 		.4byte	0x215
 2208 020d 09       		.uleb128 0x9
 2209 020e 01       		.uleb128 0x1
 2210 020f 50       		.byte	0x50
 2211 0210 03       		.uleb128 0x3
 2212 0211 0A       		.byte	0xa
 2213 0212 F401     		.2byte	0x1f4
 2214 0214 00       		.byte	0
 2215 0215 08       		.uleb128 0x8
 2216 0216 9A010000 		.4byte	.LVL69
 2217 021a 3C1A0000 		.4byte	0x1a3c
 2218 021e 35020000 		.4byte	0x235
 2219 0222 09       		.uleb128 0x9
 2220 0223 01       		.uleb128 0x1
 2221 0224 50       		.byte	0x50
 2222 0225 02       		.uleb128 0x2
 2223 0226 08       		.byte	0x8
 2224 0227 3D       		.byte	0x3d
 2225 0228 09       		.uleb128 0x9
 2226 0229 01       		.uleb128 0x1
 2227 022a 51       		.byte	0x51
 2228 022b 02       		.uleb128 0x2
 2229 022c 08       		.byte	0x8
 2230 022d C8       		.byte	0xc8
 2231 022e 09       		.uleb128 0x9
 2232 022f 01       		.uleb128 0x1
 2233 0230 52       		.byte	0x52
 2234 0231 02       		.uleb128 0x2
ARM GAS  C:\Users\Misha\AppData\Local\Temp\ccDk3wxj.s 			page 56


 2235 0232 77       		.byte	0x77
 2236 0233 00       		.sleb128 0
 2237 0234 00       		.byte	0
 2238 0235 0A       		.uleb128 0xa
 2239 0236 A4010000 		.4byte	.LVL70
 2240 023a 7E1A0000 		.4byte	0x1a7e
 2241 023e 09       		.uleb128 0x9
 2242 023f 01       		.uleb128 0x1
 2243 0240 51       		.byte	0x51
 2244 0241 03       		.uleb128 0x3
 2245 0242 0A       		.byte	0xa
 2246 0243 F401     		.2byte	0x1f4
 2247 0245 00       		.byte	0
 2248 0246 00       		.byte	0
 2249 0247 0D       		.uleb128 0xd
 2250 0248 B0010000 		.4byte	.LBB4
 2251 024c 22000000 		.4byte	.LBE4-.LBB4
 2252 0250 90020000 		.4byte	0x290
 2253 0254 10       		.uleb128 0x10
 2254 0255 6900     		.ascii	"i\000"
 2255 0257 01       		.byte	0x1
 2256 0258 0501     		.2byte	0x105
 2257 025a 68000000 		.4byte	0x68
 2258 025e 3E000000 		.4byte	.LLST2
 2259 0262 08       		.uleb128 0x8
 2260 0263 C6010000 		.4byte	.LVL75
 2261 0267 891A0000 		.4byte	0x1a89
 2262 026b 7F020000 		.4byte	0x27f
 2263 026f 09       		.uleb128 0x9
 2264 0270 01       		.uleb128 0x1
 2265 0271 50       		.byte	0x50
 2266 0272 02       		.uleb128 0x2
 2267 0273 75       		.byte	0x75
 2268 0274 00       		.sleb128 0
 2269 0275 09       		.uleb128 0x9
 2270 0276 01       		.uleb128 0x1
 2271 0277 51       		.byte	0x51
 2272 0278 05       		.uleb128 0x5
 2273 0279 03       		.byte	0x3
 2274 027a 64000000 		.4byte	.LC4
 2275 027e 00       		.byte	0
 2276 027f 0A       		.uleb128 0xa
 2277 0280 CC010000 		.4byte	.LVL76
 2278 0284 1B1A0000 		.4byte	0x1a1b
 2279 0288 09       		.uleb128 0x9
 2280 0289 01       		.uleb128 0x1
 2281 028a 50       		.byte	0x50
 2282 028b 02       		.uleb128 0x2
 2283 028c 75       		.byte	0x75
 2284 028d 00       		.sleb128 0
 2285 028e 00       		.byte	0
 2286 028f 00       		.byte	0
 2287 0290 11       		.uleb128 0x11
 2288 0291 00000000 		.4byte	.Ldebug_ranges0+0
 2289 0295 AA020000 		.4byte	0x2aa
 2290 0299 0E       		.uleb128 0xe
 2291 029a F0050000 		.4byte	.LASF20
ARM GAS  C:\Users\Misha\AppData\Local\Temp\ccDk3wxj.s 			page 57


 2292 029e 01       		.byte	0x1
 2293 029f 1301     		.2byte	0x113
 2294 02a1 68000000 		.4byte	0x68
 2295 02a5 5D000000 		.4byte	.LLST3
 2296 02a9 00       		.byte	0
 2297 02aa 06       		.uleb128 0x6
 2298 02ab 1A010000 		.4byte	.LVL56
 2299 02af 941A0000 		.4byte	0x1a94
 2300 02b3 08       		.uleb128 0x8
 2301 02b4 20010000 		.4byte	.LVL57
 2302 02b8 9F1A0000 		.4byte	0x1a9f
 2303 02bc C6020000 		.4byte	0x2c6
 2304 02c0 09       		.uleb128 0x9
 2305 02c1 01       		.uleb128 0x1
 2306 02c2 50       		.byte	0x50
 2307 02c3 01       		.uleb128 0x1
 2308 02c4 37       		.byte	0x37
 2309 02c5 00       		.byte	0
 2310 02c6 08       		.uleb128 0x8
 2311 02c7 36010000 		.4byte	.LVL58
 2312 02cb AA1A0000 		.4byte	0x1aaa
 2313 02cf F7020000 		.4byte	0x2f7
 2314 02d3 09       		.uleb128 0x9
 2315 02d4 01       		.uleb128 0x1
 2316 02d5 50       		.byte	0x50
 2317 02d6 02       		.uleb128 0x2
 2318 02d7 09       		.byte	0x9
 2319 02d8 9C       		.byte	0x9c
 2320 02d9 09       		.uleb128 0x9
 2321 02da 01       		.uleb128 0x1
 2322 02db 51       		.byte	0x51
 2323 02dc 01       		.uleb128 0x1
 2324 02dd 30       		.byte	0x30
 2325 02de 09       		.uleb128 0x9
 2326 02df 01       		.uleb128 0x1
 2327 02e0 52       		.byte	0x52
 2328 02e1 01       		.uleb128 0x1
 2329 02e2 34       		.byte	0x34
 2330 02e3 09       		.uleb128 0x9
 2331 02e4 01       		.uleb128 0x1
 2332 02e5 53       		.byte	0x53
 2333 02e6 01       		.uleb128 0x1
 2334 02e7 34       		.byte	0x34
 2335 02e8 09       		.uleb128 0x9
 2336 02e9 02       		.uleb128 0x2
 2337 02ea 7D       		.byte	0x7d
 2338 02eb 00       		.sleb128 0
 2339 02ec 02       		.uleb128 0x2
 2340 02ed 75       		.byte	0x75
 2341 02ee 00       		.sleb128 0
 2342 02ef 09       		.uleb128 0x9
 2343 02f0 02       		.uleb128 0x2
 2344 02f1 7D       		.byte	0x7d
 2345 02f2 04       		.sleb128 4
 2346 02f3 02       		.uleb128 0x2
 2347 02f4 74       		.byte	0x74
 2348 02f5 00       		.sleb128 0
ARM GAS  C:\Users\Misha\AppData\Local\Temp\ccDk3wxj.s 			page 58


 2349 02f6 00       		.byte	0
 2350 02f7 08       		.uleb128 0x8
 2351 02f8 48010000 		.4byte	.LVL59
 2352 02fc AA1A0000 		.4byte	0x1aaa
 2353 0300 2A030000 		.4byte	0x32a
 2354 0304 09       		.uleb128 0x9
 2355 0305 01       		.uleb128 0x1
 2356 0306 50       		.byte	0x50
 2357 0307 03       		.uleb128 0x3
 2358 0308 0A       		.byte	0xa
 2359 0309 9001     		.2byte	0x190
 2360 030b 09       		.uleb128 0x9
 2361 030c 01       		.uleb128 0x1
 2362 030d 51       		.byte	0x51
 2363 030e 02       		.uleb128 0x2
 2364 030f 74       		.byte	0x74
 2365 0310 00       		.sleb128 0
 2366 0311 09       		.uleb128 0x9
 2367 0312 01       		.uleb128 0x1
 2368 0313 52       		.byte	0x52
 2369 0314 01       		.uleb128 0x1
 2370 0315 34       		.byte	0x34
 2371 0316 09       		.uleb128 0x9
 2372 0317 01       		.uleb128 0x1
 2373 0318 53       		.byte	0x53
 2374 0319 01       		.uleb128 0x1
 2375 031a 30       		.byte	0x30
 2376 031b 09       		.uleb128 0x9
 2377 031c 02       		.uleb128 0x2
 2378 031d 7D       		.byte	0x7d
 2379 031e 00       		.sleb128 0
 2380 031f 02       		.uleb128 0x2
 2381 0320 75       		.byte	0x75
 2382 0321 00       		.sleb128 0
 2383 0322 09       		.uleb128 0x9
 2384 0323 02       		.uleb128 0x2
 2385 0324 7D       		.byte	0x7d
 2386 0325 04       		.sleb128 4
 2387 0326 02       		.uleb128 0x2
 2388 0327 74       		.byte	0x74
 2389 0328 00       		.sleb128 0
 2390 0329 00       		.byte	0
 2391 032a 08       		.uleb128 0x8
 2392 032b 52010000 		.4byte	.LVL60
 2393 032f 3C1A0000 		.4byte	0x1a3c
 2394 0333 4B030000 		.4byte	0x34b
 2395 0337 09       		.uleb128 0x9
 2396 0338 01       		.uleb128 0x1
 2397 0339 50       		.byte	0x50
 2398 033a 03       		.uleb128 0x3
 2399 033b 0B       		.byte	0xb
 2400 033c 3EFE     		.2byte	0xfe3e
 2401 033e 09       		.uleb128 0x9
 2402 033f 01       		.uleb128 0x1
 2403 0340 51       		.byte	0x51
 2404 0341 02       		.uleb128 0x2
 2405 0342 75       		.byte	0x75
ARM GAS  C:\Users\Misha\AppData\Local\Temp\ccDk3wxj.s 			page 59


 2406 0343 00       		.sleb128 0
 2407 0344 09       		.uleb128 0x9
 2408 0345 01       		.uleb128 0x1
 2409 0346 52       		.byte	0x52
 2410 0347 02       		.uleb128 0x2
 2411 0348 74       		.byte	0x74
 2412 0349 00       		.sleb128 0
 2413 034a 00       		.byte	0
 2414 034b 08       		.uleb128 0x8
 2415 034c 5A010000 		.4byte	.LVL61
 2416 0350 101A0000 		.4byte	0x1a10
 2417 0354 60030000 		.4byte	0x360
 2418 0358 09       		.uleb128 0x9
 2419 0359 01       		.uleb128 0x1
 2420 035a 50       		.byte	0x50
 2421 035b 03       		.uleb128 0x3
 2422 035c 0A       		.byte	0xa
 2423 035d F401     		.2byte	0x1f4
 2424 035f 00       		.byte	0
 2425 0360 06       		.uleb128 0x6
 2426 0361 5E010000 		.4byte	.LVL62
 2427 0365 B51A0000 		.4byte	0x1ab5
 2428 0369 08       		.uleb128 0x8
 2429 036a 66010000 		.4byte	.LVL63
 2430 036e 101A0000 		.4byte	0x1a10
 2431 0372 7E030000 		.4byte	0x37e
 2432 0376 09       		.uleb128 0x9
 2433 0377 01       		.uleb128 0x1
 2434 0378 50       		.byte	0x50
 2435 0379 03       		.uleb128 0x3
 2436 037a 0A       		.byte	0xa
 2437 037b F401     		.2byte	0x1f4
 2438 037d 00       		.byte	0
 2439 037e 08       		.uleb128 0x8
 2440 037f 70010000 		.4byte	.LVL64
 2441 0383 3C1A0000 		.4byte	0x1a3c
 2442 0387 9E030000 		.4byte	0x39e
 2443 038b 09       		.uleb128 0x9
 2444 038c 01       		.uleb128 0x1
 2445 038d 50       		.byte	0x50
 2446 038e 02       		.uleb128 0x2
 2447 038f 08       		.byte	0x8
 2448 0390 AA       		.byte	0xaa
 2449 0391 09       		.uleb128 0x9
 2450 0392 01       		.uleb128 0x1
 2451 0393 51       		.byte	0x51
 2452 0394 02       		.uleb128 0x2
 2453 0395 75       		.byte	0x75
 2454 0396 00       		.sleb128 0
 2455 0397 09       		.uleb128 0x9
 2456 0398 01       		.uleb128 0x1
 2457 0399 52       		.byte	0x52
 2458 039a 02       		.uleb128 0x2
 2459 039b 74       		.byte	0x74
 2460 039c 00       		.sleb128 0
 2461 039d 00       		.byte	0
 2462 039e 08       		.uleb128 0x8
ARM GAS  C:\Users\Misha\AppData\Local\Temp\ccDk3wxj.s 			page 60


 2463 039f 78010000 		.4byte	.LVL65
 2464 03a3 101A0000 		.4byte	0x1a10
 2465 03a7 B3030000 		.4byte	0x3b3
 2466 03ab 09       		.uleb128 0x9
 2467 03ac 01       		.uleb128 0x1
 2468 03ad 50       		.byte	0x50
 2469 03ae 03       		.uleb128 0x3
 2470 03af 0A       		.byte	0xa
 2471 03b0 F401     		.2byte	0x1f4
 2472 03b2 00       		.byte	0
 2473 03b3 08       		.uleb128 0x8
 2474 03b4 B0010000 		.4byte	.LVL72
 2475 03b8 1B1A0000 		.4byte	0x1a1b
 2476 03bc CA030000 		.4byte	0x3ca
 2477 03c0 09       		.uleb128 0x9
 2478 03c1 01       		.uleb128 0x1
 2479 03c2 50       		.byte	0x50
 2480 03c3 05       		.uleb128 0x5
 2481 03c4 03       		.byte	0x3
 2482 03c5 50000000 		.4byte	.LC3
 2483 03c9 00       		.byte	0
 2484 03ca 0A       		.uleb128 0xa
 2485 03cb D8010000 		.4byte	.LVL78
 2486 03cf C01A0000 		.4byte	0x1ac0
 2487 03d3 09       		.uleb128 0x9
 2488 03d4 01       		.uleb128 0x1
 2489 03d5 50       		.byte	0x50
 2490 03d6 02       		.uleb128 0x2
 2491 03d7 77       		.byte	0x77
 2492 03d8 00       		.sleb128 0
 2493 03d9 00       		.byte	0
 2494 03da 00       		.byte	0
 2495 03db 0D       		.uleb128 0xd
 2496 03dc 12020000 		.4byte	.LBB7
 2497 03e0 BA020000 		.4byte	.LBE7-.LBB7
 2498 03e4 4E090000 		.4byte	0x94e
 2499 03e8 0E       		.uleb128 0xe
 2500 03e9 DD040000 		.4byte	.LASF21
 2501 03ed 01       		.byte	0x1
 2502 03ee 3B01     		.2byte	0x13b
 2503 03f0 68000000 		.4byte	0x68
 2504 03f4 7C000000 		.4byte	.LLST4
 2505 03f8 0E       		.uleb128 0xe
 2506 03f9 80030000 		.4byte	.LASF22
 2507 03fd 01       		.byte	0x1
 2508 03fe 3C01     		.2byte	0x13c
 2509 0400 68000000 		.4byte	0x68
 2510 0404 9A000000 		.4byte	.LLST5
 2511 0408 0D       		.uleb128 0xd
 2512 0409 D8020000 		.4byte	.LBB8
 2513 040d DE000000 		.4byte	.LBE8-.LBB8
 2514 0411 97050000 		.4byte	0x597
 2515 0415 0E       		.uleb128 0xe
 2516 0416 F6020000 		.4byte	.LASF23
 2517 041a 01       		.byte	0x1
 2518 041b 6301     		.2byte	0x163
 2519 041d 68000000 		.4byte	0x68
ARM GAS  C:\Users\Misha\AppData\Local\Temp\ccDk3wxj.s 			page 61


 2520 0421 B8000000 		.4byte	.LLST6
 2521 0425 08       		.uleb128 0x8
 2522 0426 E2020000 		.4byte	.LVL101
 2523 042a 7E1A0000 		.4byte	0x1a7e
 2524 042e 3F040000 		.4byte	0x43f
 2525 0432 09       		.uleb128 0x9
 2526 0433 01       		.uleb128 0x1
 2527 0434 50       		.byte	0x50
 2528 0435 01       		.uleb128 0x1
 2529 0436 32       		.byte	0x32
 2530 0437 09       		.uleb128 0x9
 2531 0438 01       		.uleb128 0x1
 2532 0439 51       		.byte	0x51
 2533 043a 03       		.uleb128 0x3
 2534 043b 0A       		.byte	0xa
 2535 043c E803     		.2byte	0x3e8
 2536 043e 00       		.byte	0
 2537 043f 08       		.uleb128 0x8
 2538 0440 E8020000 		.4byte	.LVL102
 2539 0444 CB1A0000 		.4byte	0x1acb
 2540 0448 52040000 		.4byte	0x452
 2541 044c 09       		.uleb128 0x9
 2542 044d 01       		.uleb128 0x1
 2543 044e 50       		.byte	0x50
 2544 044f 01       		.uleb128 0x1
 2545 0450 30       		.byte	0x30
 2546 0451 00       		.byte	0
 2547 0452 08       		.uleb128 0x8
 2548 0453 EE020000 		.4byte	.LVL103
 2549 0457 101A0000 		.4byte	0x1a10
 2550 045b 66040000 		.4byte	0x466
 2551 045f 09       		.uleb128 0x9
 2552 0460 01       		.uleb128 0x1
 2553 0461 50       		.byte	0x50
 2554 0462 02       		.uleb128 0x2
 2555 0463 08       		.byte	0x8
 2556 0464 3C       		.byte	0x3c
 2557 0465 00       		.byte	0
 2558 0466 08       		.uleb128 0x8
 2559 0467 08030000 		.4byte	.LVL104
 2560 046b 3C1A0000 		.4byte	0x1a3c
 2561 046f 86040000 		.4byte	0x486
 2562 0473 09       		.uleb128 0x9
 2563 0474 01       		.uleb128 0x1
 2564 0475 50       		.byte	0x50
 2565 0476 02       		.uleb128 0x2
 2566 0477 09       		.byte	0x9
 2567 0478 D3       		.byte	0xd3
 2568 0479 09       		.uleb128 0x9
 2569 047a 01       		.uleb128 0x1
 2570 047b 51       		.byte	0x51
 2571 047c 02       		.uleb128 0x2
 2572 047d 08       		.byte	0x8
 2573 047e C8       		.byte	0xc8
 2574 047f 09       		.uleb128 0x9
 2575 0480 01       		.uleb128 0x1
 2576 0481 52       		.byte	0x52
ARM GAS  C:\Users\Misha\AppData\Local\Temp\ccDk3wxj.s 			page 62


 2577 0482 02       		.uleb128 0x2
 2578 0483 77       		.byte	0x77
 2579 0484 00       		.sleb128 0
 2580 0485 00       		.byte	0
 2581 0486 08       		.uleb128 0x8
 2582 0487 20030000 		.4byte	.LVL105
 2583 048b AA1A0000 		.4byte	0x1aaa
 2584 048f B7040000 		.4byte	0x4b7
 2585 0493 09       		.uleb128 0x9
 2586 0494 01       		.uleb128 0x1
 2587 0495 50       		.byte	0x50
 2588 0496 02       		.uleb128 0x2
 2589 0497 75       		.byte	0x75
 2590 0498 00       		.sleb128 0
 2591 0499 09       		.uleb128 0x9
 2592 049a 01       		.uleb128 0x1
 2593 049b 51       		.byte	0x51
 2594 049c 01       		.uleb128 0x1
 2595 049d 30       		.byte	0x30
 2596 049e 09       		.uleb128 0x9
 2597 049f 01       		.uleb128 0x1
 2598 04a0 52       		.byte	0x52
 2599 04a1 01       		.uleb128 0x1
 2600 04a2 35       		.byte	0x35
 2601 04a3 09       		.uleb128 0x9
 2602 04a4 01       		.uleb128 0x1
 2603 04a5 53       		.byte	0x53
 2604 04a6 01       		.uleb128 0x1
 2605 04a7 33       		.byte	0x33
 2606 04a8 09       		.uleb128 0x9
 2607 04a9 02       		.uleb128 0x2
 2608 04aa 7D       		.byte	0x7d
 2609 04ab 00       		.sleb128 0
 2610 04ac 02       		.uleb128 0x2
 2611 04ad 77       		.byte	0x77
 2612 04ae 00       		.sleb128 0
 2613 04af 09       		.uleb128 0x9
 2614 04b0 02       		.uleb128 0x2
 2615 04b1 7D       		.byte	0x7d
 2616 04b2 04       		.sleb128 4
 2617 04b3 02       		.uleb128 0x2
 2618 04b4 78       		.byte	0x78
 2619 04b5 00       		.sleb128 0
 2620 04b6 00       		.byte	0
 2621 04b7 08       		.uleb128 0x8
 2622 04b8 2A030000 		.4byte	.LVL106
 2623 04bc 7E1A0000 		.4byte	0x1a7e
 2624 04c0 D1040000 		.4byte	0x4d1
 2625 04c4 09       		.uleb128 0x9
 2626 04c5 01       		.uleb128 0x1
 2627 04c6 50       		.byte	0x50
 2628 04c7 01       		.uleb128 0x1
 2629 04c8 32       		.byte	0x32
 2630 04c9 09       		.uleb128 0x9
 2631 04ca 01       		.uleb128 0x1
 2632 04cb 51       		.byte	0x51
 2633 04cc 03       		.uleb128 0x3
ARM GAS  C:\Users\Misha\AppData\Local\Temp\ccDk3wxj.s 			page 63


 2634 04cd 0A       		.byte	0xa
 2635 04ce E803     		.2byte	0x3e8
 2636 04d0 00       		.byte	0
 2637 04d1 08       		.uleb128 0x8
 2638 04d2 30030000 		.4byte	.LVL107
 2639 04d6 CB1A0000 		.4byte	0x1acb
 2640 04da E4040000 		.4byte	0x4e4
 2641 04de 09       		.uleb128 0x9
 2642 04df 01       		.uleb128 0x1
 2643 04e0 50       		.byte	0x50
 2644 04e1 01       		.uleb128 0x1
 2645 04e2 30       		.byte	0x30
 2646 04e3 00       		.byte	0
 2647 04e4 08       		.uleb128 0x8
 2648 04e5 36030000 		.4byte	.LVL108
 2649 04e9 101A0000 		.4byte	0x1a10
 2650 04ed F8040000 		.4byte	0x4f8
 2651 04f1 09       		.uleb128 0x9
 2652 04f2 01       		.uleb128 0x1
 2653 04f3 50       		.byte	0x50
 2654 04f4 02       		.uleb128 0x2
 2655 04f5 08       		.byte	0x8
 2656 04f6 32       		.byte	0x32
 2657 04f7 00       		.byte	0
 2658 04f8 08       		.uleb128 0x8
 2659 04f9 4A030000 		.4byte	.LVL109
 2660 04fd 3C1A0000 		.4byte	0x1a3c
 2661 0501 18050000 		.4byte	0x518
 2662 0505 09       		.uleb128 0x9
 2663 0506 01       		.uleb128 0x1
 2664 0507 50       		.byte	0x50
 2665 0508 02       		.uleb128 0x2
 2666 0509 09       		.byte	0x9
 2667 050a D3       		.byte	0xd3
 2668 050b 09       		.uleb128 0x9
 2669 050c 01       		.uleb128 0x1
 2670 050d 51       		.byte	0x51
 2671 050e 02       		.uleb128 0x2
 2672 050f 77       		.byte	0x77
 2673 0510 00       		.sleb128 0
 2674 0511 09       		.uleb128 0x9
 2675 0512 01       		.uleb128 0x1
 2676 0513 52       		.byte	0x52
 2677 0514 02       		.uleb128 0x2
 2678 0515 78       		.byte	0x78
 2679 0516 00       		.sleb128 0
 2680 0517 00       		.byte	0
 2681 0518 08       		.uleb128 0x8
 2682 0519 5C030000 		.4byte	.LVL110
 2683 051d AA1A0000 		.4byte	0x1aaa
 2684 0521 49050000 		.4byte	0x549
 2685 0525 09       		.uleb128 0x9
 2686 0526 01       		.uleb128 0x1
 2687 0527 50       		.byte	0x50
 2688 0528 02       		.uleb128 0x2
 2689 0529 74       		.byte	0x74
 2690 052a 00       		.sleb128 0
ARM GAS  C:\Users\Misha\AppData\Local\Temp\ccDk3wxj.s 			page 64


 2691 052b 09       		.uleb128 0x9
 2692 052c 01       		.uleb128 0x1
 2693 052d 51       		.byte	0x51
 2694 052e 01       		.uleb128 0x1
 2695 052f 30       		.byte	0x30
 2696 0530 09       		.uleb128 0x9
 2697 0531 01       		.uleb128 0x1
 2698 0532 52       		.byte	0x52
 2699 0533 01       		.uleb128 0x1
 2700 0534 34       		.byte	0x34
 2701 0535 09       		.uleb128 0x9
 2702 0536 01       		.uleb128 0x1
 2703 0537 53       		.byte	0x53
 2704 0538 01       		.uleb128 0x1
 2705 0539 33       		.byte	0x33
 2706 053a 09       		.uleb128 0x9
 2707 053b 02       		.uleb128 0x2
 2708 053c 7D       		.byte	0x7d
 2709 053d 00       		.sleb128 0
 2710 053e 02       		.uleb128 0x2
 2711 053f 77       		.byte	0x77
 2712 0540 00       		.sleb128 0
 2713 0541 09       		.uleb128 0x9
 2714 0542 02       		.uleb128 0x2
 2715 0543 7D       		.byte	0x7d
 2716 0544 04       		.sleb128 4
 2717 0545 02       		.uleb128 0x2
 2718 0546 78       		.byte	0x78
 2719 0547 00       		.sleb128 0
 2720 0548 00       		.byte	0
 2721 0549 08       		.uleb128 0x8
 2722 054a 88030000 		.4byte	.LVL117
 2723 054e 891A0000 		.4byte	0x1a89
 2724 0552 6C050000 		.4byte	0x56c
 2725 0556 09       		.uleb128 0x9
 2726 0557 01       		.uleb128 0x1
 2727 0558 50       		.byte	0x50
 2728 0559 02       		.uleb128 0x2
 2729 055a 75       		.byte	0x75
 2730 055b 00       		.sleb128 0
 2731 055c 09       		.uleb128 0x9
 2732 055d 01       		.uleb128 0x1
 2733 055e 51       		.byte	0x51
 2734 055f 05       		.uleb128 0x5
 2735 0560 03       		.byte	0x3
 2736 0561 9C000000 		.4byte	.LC7
 2737 0565 09       		.uleb128 0x9
 2738 0566 01       		.uleb128 0x1
 2739 0567 52       		.byte	0x52
 2740 0568 02       		.uleb128 0x2
 2741 0569 74       		.byte	0x74
 2742 056a 00       		.sleb128 0
 2743 056b 00       		.byte	0
 2744 056c 08       		.uleb128 0x8
 2745 056d 8E030000 		.4byte	.LVL118
 2746 0571 1B1A0000 		.4byte	0x1a1b
 2747 0575 80050000 		.4byte	0x580
ARM GAS  C:\Users\Misha\AppData\Local\Temp\ccDk3wxj.s 			page 65


 2748 0579 09       		.uleb128 0x9
 2749 057a 01       		.uleb128 0x1
 2750 057b 50       		.byte	0x50
 2751 057c 02       		.uleb128 0x2
 2752 057d 75       		.byte	0x75
 2753 057e 00       		.sleb128 0
 2754 057f 00       		.byte	0
 2755 0580 0A       		.uleb128 0xa
 2756 0581 AC030000 		.4byte	.LVL120
 2757 0585 7E1A0000 		.4byte	0x1a7e
 2758 0589 09       		.uleb128 0x9
 2759 058a 01       		.uleb128 0x1
 2760 058b 50       		.byte	0x50
 2761 058c 01       		.uleb128 0x1
 2762 058d 33       		.byte	0x33
 2763 058e 09       		.uleb128 0x9
 2764 058f 01       		.uleb128 0x1
 2765 0590 51       		.byte	0x51
 2766 0591 03       		.uleb128 0x3
 2767 0592 0A       		.byte	0xa
 2768 0593 E803     		.2byte	0x3e8
 2769 0595 00       		.byte	0
 2770 0596 00       		.byte	0
 2771 0597 0D       		.uleb128 0xd
 2772 0598 B6030000 		.4byte	.LBB9
 2773 059c D0000000 		.4byte	.LBE9-.LBB9
 2774 05a0 2D070000 		.4byte	0x72d
 2775 05a4 0E       		.uleb128 0xe
 2776 05a5 F6020000 		.4byte	.LASF23
 2777 05a9 01       		.byte	0x1
 2778 05aa 8201     		.2byte	0x182
 2779 05ac 68000000 		.4byte	0x68
 2780 05b0 D6000000 		.4byte	.LLST7
 2781 05b4 08       		.uleb128 0x8
 2782 05b5 C0030000 		.4byte	.LVL122
 2783 05b9 7E1A0000 		.4byte	0x1a7e
 2784 05bd CE050000 		.4byte	0x5ce
 2785 05c1 09       		.uleb128 0x9
 2786 05c2 01       		.uleb128 0x1
 2787 05c3 50       		.byte	0x50
 2788 05c4 01       		.uleb128 0x1
 2789 05c5 33       		.byte	0x33
 2790 05c6 09       		.uleb128 0x9
 2791 05c7 01       		.uleb128 0x1
 2792 05c8 51       		.byte	0x51
 2793 05c9 03       		.uleb128 0x3
 2794 05ca 0A       		.byte	0xa
 2795 05cb E803     		.2byte	0x3e8
 2796 05cd 00       		.byte	0
 2797 05ce 08       		.uleb128 0x8
 2798 05cf C6030000 		.4byte	.LVL123
 2799 05d3 CB1A0000 		.4byte	0x1acb
 2800 05d7 E1050000 		.4byte	0x5e1
 2801 05db 09       		.uleb128 0x9
 2802 05dc 01       		.uleb128 0x1
 2803 05dd 50       		.byte	0x50
 2804 05de 01       		.uleb128 0x1
ARM GAS  C:\Users\Misha\AppData\Local\Temp\ccDk3wxj.s 			page 66


 2805 05df 30       		.byte	0x30
 2806 05e0 00       		.byte	0
 2807 05e1 08       		.uleb128 0x8
 2808 05e2 CC030000 		.4byte	.LVL124
 2809 05e6 101A0000 		.4byte	0x1a10
 2810 05ea F5050000 		.4byte	0x5f5
 2811 05ee 09       		.uleb128 0x9
 2812 05ef 01       		.uleb128 0x1
 2813 05f0 50       		.byte	0x50
 2814 05f1 02       		.uleb128 0x2
 2815 05f2 08       		.byte	0x8
 2816 05f3 32       		.byte	0x32
 2817 05f4 00       		.byte	0
 2818 05f5 08       		.uleb128 0x8
 2819 05f6 FA030000 		.4byte	.LVL130
 2820 05fa 891A0000 		.4byte	0x1a89
 2821 05fe 18060000 		.4byte	0x618
 2822 0602 09       		.uleb128 0x9
 2823 0603 01       		.uleb128 0x1
 2824 0604 50       		.byte	0x50
 2825 0605 02       		.uleb128 0x2
 2826 0606 76       		.byte	0x76
 2827 0607 00       		.sleb128 0
 2828 0608 09       		.uleb128 0x9
 2829 0609 01       		.uleb128 0x1
 2830 060a 51       		.byte	0x51
 2831 060b 05       		.uleb128 0x5
 2832 060c 03       		.byte	0x3
 2833 060d 9C000000 		.4byte	.LC7
 2834 0611 09       		.uleb128 0x9
 2835 0612 01       		.uleb128 0x1
 2836 0613 52       		.byte	0x52
 2837 0614 02       		.uleb128 0x2
 2838 0615 74       		.byte	0x74
 2839 0616 00       		.sleb128 0
 2840 0617 00       		.byte	0
 2841 0618 08       		.uleb128 0x8
 2842 0619 00040000 		.4byte	.LVL131
 2843 061d 1B1A0000 		.4byte	0x1a1b
 2844 0621 2C060000 		.4byte	0x62c
 2845 0625 09       		.uleb128 0x9
 2846 0626 01       		.uleb128 0x1
 2847 0627 50       		.byte	0x50
 2848 0628 02       		.uleb128 0x2
 2849 0629 76       		.byte	0x76
 2850 062a 00       		.sleb128 0
 2851 062b 00       		.byte	0
 2852 062c 08       		.uleb128 0x8
 2853 062d 2C040000 		.4byte	.LVL133
 2854 0631 AA1A0000 		.4byte	0x1aaa
 2855 0635 5D060000 		.4byte	0x65d
 2856 0639 09       		.uleb128 0x9
 2857 063a 01       		.uleb128 0x1
 2858 063b 50       		.byte	0x50
 2859 063c 02       		.uleb128 0x2
 2860 063d 75       		.byte	0x75
 2861 063e 00       		.sleb128 0
ARM GAS  C:\Users\Misha\AppData\Local\Temp\ccDk3wxj.s 			page 67


 2862 063f 09       		.uleb128 0x9
 2863 0640 01       		.uleb128 0x1
 2864 0641 51       		.byte	0x51
 2865 0642 01       		.uleb128 0x1
 2866 0643 30       		.byte	0x30
 2867 0644 09       		.uleb128 0x9
 2868 0645 01       		.uleb128 0x1
 2869 0646 52       		.byte	0x52
 2870 0647 01       		.uleb128 0x1
 2871 0648 34       		.byte	0x34
 2872 0649 09       		.uleb128 0x9
 2873 064a 01       		.uleb128 0x1
 2874 064b 53       		.byte	0x53
 2875 064c 01       		.uleb128 0x1
 2876 064d 33       		.byte	0x33
 2877 064e 09       		.uleb128 0x9
 2878 064f 02       		.uleb128 0x2
 2879 0650 7D       		.byte	0x7d
 2880 0651 00       		.sleb128 0
 2881 0652 02       		.uleb128 0x2
 2882 0653 77       		.byte	0x77
 2883 0654 00       		.sleb128 0
 2884 0655 09       		.uleb128 0x9
 2885 0656 02       		.uleb128 0x2
 2886 0657 7D       		.byte	0x7d
 2887 0658 04       		.sleb128 4
 2888 0659 02       		.uleb128 0x2
 2889 065a 78       		.byte	0x78
 2890 065b 00       		.sleb128 0
 2891 065c 00       		.byte	0
 2892 065d 08       		.uleb128 0x8
 2893 065e 36040000 		.4byte	.LVL134
 2894 0662 7E1A0000 		.4byte	0x1a7e
 2895 0666 77060000 		.4byte	0x677
 2896 066a 09       		.uleb128 0x9
 2897 066b 01       		.uleb128 0x1
 2898 066c 50       		.byte	0x50
 2899 066d 01       		.uleb128 0x1
 2900 066e 32       		.byte	0x32
 2901 066f 09       		.uleb128 0x9
 2902 0670 01       		.uleb128 0x1
 2903 0671 51       		.byte	0x51
 2904 0672 03       		.uleb128 0x3
 2905 0673 0A       		.byte	0xa
 2906 0674 E803     		.2byte	0x3e8
 2907 0676 00       		.byte	0
 2908 0677 08       		.uleb128 0x8
 2909 0678 3C040000 		.4byte	.LVL135
 2910 067c CB1A0000 		.4byte	0x1acb
 2911 0680 8A060000 		.4byte	0x68a
 2912 0684 09       		.uleb128 0x9
 2913 0685 01       		.uleb128 0x1
 2914 0686 50       		.byte	0x50
 2915 0687 01       		.uleb128 0x1
 2916 0688 30       		.byte	0x30
 2917 0689 00       		.byte	0
 2918 068a 08       		.uleb128 0x8
ARM GAS  C:\Users\Misha\AppData\Local\Temp\ccDk3wxj.s 			page 68


 2919 068b 42040000 		.4byte	.LVL136
 2920 068f 101A0000 		.4byte	0x1a10
 2921 0693 9E060000 		.4byte	0x69e
 2922 0697 09       		.uleb128 0x9
 2923 0698 01       		.uleb128 0x1
 2924 0699 50       		.byte	0x50
 2925 069a 02       		.uleb128 0x2
 2926 069b 08       		.byte	0x8
 2927 069c 3C       		.byte	0x3c
 2928 069d 00       		.byte	0
 2929 069e 08       		.uleb128 0x8
 2930 069f 54040000 		.4byte	.LVL137
 2931 06a3 3C1A0000 		.4byte	0x1a3c
 2932 06a7 BE060000 		.4byte	0x6be
 2933 06ab 09       		.uleb128 0x9
 2934 06ac 01       		.uleb128 0x1
 2935 06ad 50       		.byte	0x50
 2936 06ae 02       		.uleb128 0x2
 2937 06af 09       		.byte	0x9
 2938 06b0 D3       		.byte	0xd3
 2939 06b1 09       		.uleb128 0x9
 2940 06b2 01       		.uleb128 0x1
 2941 06b3 51       		.byte	0x51
 2942 06b4 02       		.uleb128 0x2
 2943 06b5 77       		.byte	0x77
 2944 06b6 00       		.sleb128 0
 2945 06b7 09       		.uleb128 0x9
 2946 06b8 01       		.uleb128 0x1
 2947 06b9 52       		.byte	0x52
 2948 06ba 02       		.uleb128 0x2
 2949 06bb 78       		.byte	0x78
 2950 06bc 00       		.sleb128 0
 2951 06bd 00       		.byte	0
 2952 06be 08       		.uleb128 0x8
 2953 06bf 66040000 		.4byte	.LVL138
 2954 06c3 AA1A0000 		.4byte	0x1aaa
 2955 06c7 EF060000 		.4byte	0x6ef
 2956 06cb 09       		.uleb128 0x9
 2957 06cc 01       		.uleb128 0x1
 2958 06cd 50       		.byte	0x50
 2959 06ce 02       		.uleb128 0x2
 2960 06cf 75       		.byte	0x75
 2961 06d0 00       		.sleb128 0
 2962 06d1 09       		.uleb128 0x9
 2963 06d2 01       		.uleb128 0x1
 2964 06d3 51       		.byte	0x51
 2965 06d4 01       		.uleb128 0x1
 2966 06d5 30       		.byte	0x30
 2967 06d6 09       		.uleb128 0x9
 2968 06d7 01       		.uleb128 0x1
 2969 06d8 52       		.byte	0x52
 2970 06d9 01       		.uleb128 0x1
 2971 06da 35       		.byte	0x35
 2972 06db 09       		.uleb128 0x9
 2973 06dc 01       		.uleb128 0x1
 2974 06dd 53       		.byte	0x53
 2975 06de 01       		.uleb128 0x1
ARM GAS  C:\Users\Misha\AppData\Local\Temp\ccDk3wxj.s 			page 69


 2976 06df 33       		.byte	0x33
 2977 06e0 09       		.uleb128 0x9
 2978 06e1 02       		.uleb128 0x2
 2979 06e2 7D       		.byte	0x7d
 2980 06e3 00       		.sleb128 0
 2981 06e4 02       		.uleb128 0x2
 2982 06e5 77       		.byte	0x77
 2983 06e6 00       		.sleb128 0
 2984 06e7 09       		.uleb128 0x9
 2985 06e8 02       		.uleb128 0x2
 2986 06e9 7D       		.byte	0x7d
 2987 06ea 04       		.sleb128 4
 2988 06eb 02       		.uleb128 0x2
 2989 06ec 78       		.byte	0x78
 2990 06ed 00       		.sleb128 0
 2991 06ee 00       		.byte	0
 2992 06ef 08       		.uleb128 0x8
 2993 06f0 70040000 		.4byte	.LVL139
 2994 06f4 7E1A0000 		.4byte	0x1a7e
 2995 06f8 09070000 		.4byte	0x709
 2996 06fc 09       		.uleb128 0x9
 2997 06fd 01       		.uleb128 0x1
 2998 06fe 50       		.byte	0x50
 2999 06ff 01       		.uleb128 0x1
 3000 0700 32       		.byte	0x32
 3001 0701 09       		.uleb128 0x9
 3002 0702 01       		.uleb128 0x1
 3003 0703 51       		.byte	0x51
 3004 0704 03       		.uleb128 0x3
 3005 0705 0A       		.byte	0xa
 3006 0706 E803     		.2byte	0x3e8
 3007 0708 00       		.byte	0
 3008 0709 08       		.uleb128 0x8
 3009 070a 76040000 		.4byte	.LVL140
 3010 070e CB1A0000 		.4byte	0x1acb
 3011 0712 1C070000 		.4byte	0x71c
 3012 0716 09       		.uleb128 0x9
 3013 0717 01       		.uleb128 0x1
 3014 0718 50       		.byte	0x50
 3015 0719 01       		.uleb128 0x1
 3016 071a 30       		.byte	0x30
 3017 071b 00       		.byte	0
 3018 071c 0A       		.uleb128 0xa
 3019 071d 7C040000 		.4byte	.LVL141
 3020 0721 101A0000 		.4byte	0x1a10
 3021 0725 09       		.uleb128 0x9
 3022 0726 01       		.uleb128 0x1
 3023 0727 50       		.byte	0x50
 3024 0728 02       		.uleb128 0x2
 3025 0729 08       		.byte	0x8
 3026 072a 32       		.byte	0x32
 3027 072b 00       		.byte	0
 3028 072c 00       		.byte	0
 3029 072d 06       		.uleb128 0x6
 3030 072e 16020000 		.4byte	.LVL86
 3031 0732 941A0000 		.4byte	0x1a94
 3032 0736 08       		.uleb128 0x8
ARM GAS  C:\Users\Misha\AppData\Local\Temp\ccDk3wxj.s 			page 70


 3033 0737 24020000 		.4byte	.LVL87
 3034 073b D61A0000 		.4byte	0x1ad6
 3035 073f 5B070000 		.4byte	0x75b
 3036 0743 09       		.uleb128 0x9
 3037 0744 01       		.uleb128 0x1
 3038 0745 50       		.byte	0x50
 3039 0746 02       		.uleb128 0x2
 3040 0747 08       		.byte	0x8
 3041 0748 23       		.byte	0x23
 3042 0749 09       		.uleb128 0x9
 3043 074a 01       		.uleb128 0x1
 3044 074b 51       		.byte	0x51
 3045 074c 02       		.uleb128 0x2
 3046 074d 09       		.byte	0x9
 3047 074e DD       		.byte	0xdd
 3048 074f 09       		.uleb128 0x9
 3049 0750 01       		.uleb128 0x1
 3050 0751 52       		.byte	0x52
 3051 0752 02       		.uleb128 0x2
 3052 0753 08       		.byte	0x8
 3053 0754 64       		.byte	0x64
 3054 0755 09       		.uleb128 0x9
 3055 0756 01       		.uleb128 0x1
 3056 0757 53       		.byte	0x53
 3057 0758 01       		.uleb128 0x1
 3058 0759 30       		.byte	0x30
 3059 075a 00       		.byte	0
 3060 075b 08       		.uleb128 0x8
 3061 075c 36020000 		.4byte	.LVL88
 3062 0760 AA1A0000 		.4byte	0x1aaa
 3063 0764 8D070000 		.4byte	0x78d
 3064 0768 09       		.uleb128 0x9
 3065 0769 01       		.uleb128 0x1
 3066 076a 50       		.byte	0x50
 3067 076b 02       		.uleb128 0x2
 3068 076c 08       		.byte	0x8
 3069 076d 82       		.byte	0x82
 3070 076e 09       		.uleb128 0x9
 3071 076f 01       		.uleb128 0x1
 3072 0770 51       		.byte	0x51
 3073 0771 02       		.uleb128 0x2
 3074 0772 77       		.byte	0x77
 3075 0773 00       		.sleb128 0
 3076 0774 09       		.uleb128 0x9
 3077 0775 01       		.uleb128 0x1
 3078 0776 52       		.byte	0x52
 3079 0777 01       		.uleb128 0x1
 3080 0778 34       		.byte	0x34
 3081 0779 09       		.uleb128 0x9
 3082 077a 01       		.uleb128 0x1
 3083 077b 53       		.byte	0x53
 3084 077c 01       		.uleb128 0x1
 3085 077d 30       		.byte	0x30
 3086 077e 09       		.uleb128 0x9
 3087 077f 02       		.uleb128 0x2
 3088 0780 7D       		.byte	0x7d
 3089 0781 00       		.sleb128 0
ARM GAS  C:\Users\Misha\AppData\Local\Temp\ccDk3wxj.s 			page 71


 3090 0782 02       		.uleb128 0x2
 3091 0783 08       		.byte	0x8
 3092 0784 C8       		.byte	0xc8
 3093 0785 09       		.uleb128 0x9
 3094 0786 02       		.uleb128 0x2
 3095 0787 7D       		.byte	0x7d
 3096 0788 04       		.sleb128 4
 3097 0789 02       		.uleb128 0x2
 3098 078a 77       		.byte	0x77
 3099 078b 00       		.sleb128 0
 3100 078c 00       		.byte	0
 3101 078d 08       		.uleb128 0x8
 3102 078e 3C020000 		.4byte	.LVL89
 3103 0792 9F1A0000 		.4byte	0x1a9f
 3104 0796 A0070000 		.4byte	0x7a0
 3105 079a 09       		.uleb128 0x9
 3106 079b 01       		.uleb128 0x1
 3107 079c 50       		.byte	0x50
 3108 079d 01       		.uleb128 0x1
 3109 079e 37       		.byte	0x37
 3110 079f 00       		.byte	0
 3111 07a0 08       		.uleb128 0x8
 3112 07a1 42020000 		.4byte	.LVL90
 3113 07a5 CB1A0000 		.4byte	0x1acb
 3114 07a9 B3070000 		.4byte	0x7b3
 3115 07ad 09       		.uleb128 0x9
 3116 07ae 01       		.uleb128 0x1
 3117 07af 50       		.byte	0x50
 3118 07b0 01       		.uleb128 0x1
 3119 07b1 32       		.byte	0x32
 3120 07b2 00       		.byte	0
 3121 07b3 08       		.uleb128 0x8
 3122 07b4 48020000 		.4byte	.LVL91
 3123 07b8 101A0000 		.4byte	0x1a10
 3124 07bc C7070000 		.4byte	0x7c7
 3125 07c0 09       		.uleb128 0x9
 3126 07c1 01       		.uleb128 0x1
 3127 07c2 50       		.byte	0x50
 3128 07c3 02       		.uleb128 0x2
 3129 07c4 08       		.byte	0x8
 3130 07c5 32       		.byte	0x32
 3131 07c6 00       		.byte	0
 3132 07c7 08       		.uleb128 0x8
 3133 07c8 7E020000 		.4byte	.LVL92
 3134 07cc CB1A0000 		.4byte	0x1acb
 3135 07d0 DA070000 		.4byte	0x7da
 3136 07d4 09       		.uleb128 0x9
 3137 07d5 01       		.uleb128 0x1
 3138 07d6 50       		.byte	0x50
 3139 07d7 01       		.uleb128 0x1
 3140 07d8 32       		.byte	0x32
 3141 07d9 00       		.byte	0
 3142 07da 08       		.uleb128 0x8
 3143 07db 84020000 		.4byte	.LVL93
 3144 07df 101A0000 		.4byte	0x1a10
 3145 07e3 EE070000 		.4byte	0x7ee
 3146 07e7 09       		.uleb128 0x9
ARM GAS  C:\Users\Misha\AppData\Local\Temp\ccDk3wxj.s 			page 72


 3147 07e8 01       		.uleb128 0x1
 3148 07e9 50       		.byte	0x50
 3149 07ea 02       		.uleb128 0x2
 3150 07eb 08       		.byte	0x8
 3151 07ec 32       		.byte	0x32
 3152 07ed 00       		.byte	0
 3153 07ee 08       		.uleb128 0x8
 3154 07ef A6020000 		.4byte	.LVL96
 3155 07f3 891A0000 		.4byte	0x1a89
 3156 07f7 11080000 		.4byte	0x811
 3157 07fb 09       		.uleb128 0x9
 3158 07fc 01       		.uleb128 0x1
 3159 07fd 50       		.byte	0x50
 3160 07fe 02       		.uleb128 0x2
 3161 07ff 76       		.byte	0x76
 3162 0800 00       		.sleb128 0
 3163 0801 09       		.uleb128 0x9
 3164 0802 01       		.uleb128 0x1
 3165 0803 51       		.byte	0x51
 3166 0804 05       		.uleb128 0x5
 3167 0805 03       		.byte	0x3
 3168 0806 6C000000 		.4byte	.LC5
 3169 080a 09       		.uleb128 0x9
 3170 080b 01       		.uleb128 0x1
 3171 080c 52       		.byte	0x52
 3172 080d 02       		.uleb128 0x2
 3173 080e 75       		.byte	0x75
 3174 080f 00       		.sleb128 0
 3175 0810 00       		.byte	0
 3176 0811 08       		.uleb128 0x8
 3177 0812 AC020000 		.4byte	.LVL97
 3178 0816 1B1A0000 		.4byte	0x1a1b
 3179 081a 25080000 		.4byte	0x825
 3180 081e 09       		.uleb128 0x9
 3181 081f 01       		.uleb128 0x1
 3182 0820 50       		.byte	0x50
 3183 0821 02       		.uleb128 0x2
 3184 0822 76       		.byte	0x76
 3185 0823 00       		.sleb128 0
 3186 0824 00       		.byte	0
 3187 0825 08       		.uleb128 0x8
 3188 0826 B6020000 		.4byte	.LVL98
 3189 082a 891A0000 		.4byte	0x1a89
 3190 082e 48080000 		.4byte	0x848
 3191 0832 09       		.uleb128 0x9
 3192 0833 01       		.uleb128 0x1
 3193 0834 50       		.byte	0x50
 3194 0835 02       		.uleb128 0x2
 3195 0836 76       		.byte	0x76
 3196 0837 00       		.sleb128 0
 3197 0838 09       		.uleb128 0x9
 3198 0839 01       		.uleb128 0x1
 3199 083a 51       		.byte	0x51
 3200 083b 05       		.uleb128 0x5
 3201 083c 03       		.byte	0x3
 3202 083d 84000000 		.4byte	.LC6
 3203 0841 09       		.uleb128 0x9
ARM GAS  C:\Users\Misha\AppData\Local\Temp\ccDk3wxj.s 			page 73


 3204 0842 01       		.uleb128 0x1
 3205 0843 52       		.byte	0x52
 3206 0844 02       		.uleb128 0x2
 3207 0845 74       		.byte	0x74
 3208 0846 00       		.sleb128 0
 3209 0847 00       		.byte	0
 3210 0848 08       		.uleb128 0x8
 3211 0849 BC020000 		.4byte	.LVL99
 3212 084d 1B1A0000 		.4byte	0x1a1b
 3213 0851 5C080000 		.4byte	0x85c
 3214 0855 09       		.uleb128 0x9
 3215 0856 01       		.uleb128 0x1
 3216 0857 50       		.byte	0x50
 3217 0858 02       		.uleb128 0x2
 3218 0859 76       		.byte	0x76
 3219 085a 00       		.sleb128 0
 3220 085b 00       		.byte	0
 3221 085c 08       		.uleb128 0x8
 3222 085d D0020000 		.4byte	.LVL100
 3223 0861 AA1A0000 		.4byte	0x1aaa
 3224 0865 8D080000 		.4byte	0x88d
 3225 0869 09       		.uleb128 0x9
 3226 086a 01       		.uleb128 0x1
 3227 086b 50       		.byte	0x50
 3228 086c 02       		.uleb128 0x2
 3229 086d 74       		.byte	0x74
 3230 086e 00       		.sleb128 0
 3231 086f 09       		.uleb128 0x9
 3232 0870 01       		.uleb128 0x1
 3233 0871 51       		.byte	0x51
 3234 0872 01       		.uleb128 0x1
 3235 0873 30       		.byte	0x30
 3236 0874 09       		.uleb128 0x9
 3237 0875 01       		.uleb128 0x1
 3238 0876 52       		.byte	0x52
 3239 0877 01       		.uleb128 0x1
 3240 0878 34       		.byte	0x34
 3241 0879 09       		.uleb128 0x9
 3242 087a 01       		.uleb128 0x1
 3243 087b 53       		.byte	0x53
 3244 087c 01       		.uleb128 0x1
 3245 087d 33       		.byte	0x33
 3246 087e 09       		.uleb128 0x9
 3247 087f 02       		.uleb128 0x2
 3248 0880 7D       		.byte	0x7d
 3249 0881 00       		.sleb128 0
 3250 0882 02       		.uleb128 0x2
 3251 0883 08       		.byte	0x8
 3252 0884 C8       		.byte	0xc8
 3253 0885 09       		.uleb128 0x9
 3254 0886 02       		.uleb128 0x2
 3255 0887 7D       		.byte	0x7d
 3256 0888 04       		.sleb128 4
 3257 0889 02       		.uleb128 0x2
 3258 088a 77       		.byte	0x77
 3259 088b 00       		.sleb128 0
 3260 088c 00       		.byte	0
ARM GAS  C:\Users\Misha\AppData\Local\Temp\ccDk3wxj.s 			page 74


 3261 088d 08       		.uleb128 0x8
 3262 088e 94040000 		.4byte	.LVL143
 3263 0892 891A0000 		.4byte	0x1a89
 3264 0896 AA080000 		.4byte	0x8aa
 3265 089a 09       		.uleb128 0x9
 3266 089b 01       		.uleb128 0x1
 3267 089c 50       		.byte	0x50
 3268 089d 02       		.uleb128 0x2
 3269 089e 74       		.byte	0x74
 3270 089f 00       		.sleb128 0
 3271 08a0 09       		.uleb128 0x9
 3272 08a1 01       		.uleb128 0x1
 3273 08a2 51       		.byte	0x51
 3274 08a3 05       		.uleb128 0x5
 3275 08a4 03       		.byte	0x3
 3276 08a5 AC000000 		.4byte	.LC8
 3277 08a9 00       		.byte	0
 3278 08aa 08       		.uleb128 0x8
 3279 08ab 9A040000 		.4byte	.LVL144
 3280 08af 1B1A0000 		.4byte	0x1a1b
 3281 08b3 BE080000 		.4byte	0x8be
 3282 08b7 09       		.uleb128 0x9
 3283 08b8 01       		.uleb128 0x1
 3284 08b9 50       		.byte	0x50
 3285 08ba 02       		.uleb128 0x2
 3286 08bb 74       		.byte	0x74
 3287 08bc 00       		.sleb128 0
 3288 08bd 00       		.byte	0
 3289 08be 08       		.uleb128 0x8
 3290 08bf A4040000 		.4byte	.LVL145
 3291 08c3 891A0000 		.4byte	0x1a89
 3292 08c7 DB080000 		.4byte	0x8db
 3293 08cb 09       		.uleb128 0x9
 3294 08cc 01       		.uleb128 0x1
 3295 08cd 50       		.byte	0x50
 3296 08ce 02       		.uleb128 0x2
 3297 08cf 74       		.byte	0x74
 3298 08d0 00       		.sleb128 0
 3299 08d1 09       		.uleb128 0x9
 3300 08d2 01       		.uleb128 0x1
 3301 08d3 51       		.byte	0x51
 3302 08d4 05       		.uleb128 0x5
 3303 08d5 03       		.byte	0x3
 3304 08d6 C0000000 		.4byte	.LC9
 3305 08da 00       		.byte	0
 3306 08db 08       		.uleb128 0x8
 3307 08dc AA040000 		.4byte	.LVL146
 3308 08e0 1B1A0000 		.4byte	0x1a1b
 3309 08e4 EF080000 		.4byte	0x8ef
 3310 08e8 09       		.uleb128 0x9
 3311 08e9 01       		.uleb128 0x1
 3312 08ea 50       		.byte	0x50
 3313 08eb 02       		.uleb128 0x2
 3314 08ec 74       		.byte	0x74
 3315 08ed 00       		.sleb128 0
 3316 08ee 00       		.byte	0
 3317 08ef 08       		.uleb128 0x8
ARM GAS  C:\Users\Misha\AppData\Local\Temp\ccDk3wxj.s 			page 75


 3318 08f0 B4040000 		.4byte	.LVL147
 3319 08f4 891A0000 		.4byte	0x1a89
 3320 08f8 0C090000 		.4byte	0x90c
 3321 08fc 09       		.uleb128 0x9
 3322 08fd 01       		.uleb128 0x1
 3323 08fe 50       		.byte	0x50
 3324 08ff 02       		.uleb128 0x2
 3325 0900 74       		.byte	0x74
 3326 0901 00       		.sleb128 0
 3327 0902 09       		.uleb128 0x9
 3328 0903 01       		.uleb128 0x1
 3329 0904 51       		.byte	0x51
 3330 0905 05       		.uleb128 0x5
 3331 0906 03       		.byte	0x3
 3332 0907 D4000000 		.4byte	.LC10
 3333 090b 00       		.byte	0
 3334 090c 08       		.uleb128 0x8
 3335 090d BA040000 		.4byte	.LVL148
 3336 0911 1B1A0000 		.4byte	0x1a1b
 3337 0915 20090000 		.4byte	0x920
 3338 0919 09       		.uleb128 0x9
 3339 091a 01       		.uleb128 0x1
 3340 091b 50       		.byte	0x50
 3341 091c 02       		.uleb128 0x2
 3342 091d 74       		.byte	0x74
 3343 091e 00       		.sleb128 0
 3344 091f 00       		.byte	0
 3345 0920 08       		.uleb128 0x8
 3346 0921 C4040000 		.4byte	.LVL149
 3347 0925 891A0000 		.4byte	0x1a89
 3348 0929 3D090000 		.4byte	0x93d
 3349 092d 09       		.uleb128 0x9
 3350 092e 01       		.uleb128 0x1
 3351 092f 50       		.byte	0x50
 3352 0930 02       		.uleb128 0x2
 3353 0931 74       		.byte	0x74
 3354 0932 00       		.sleb128 0
 3355 0933 09       		.uleb128 0x9
 3356 0934 01       		.uleb128 0x1
 3357 0935 51       		.byte	0x51
 3358 0936 05       		.uleb128 0x5
 3359 0937 03       		.byte	0x3
 3360 0938 E8000000 		.4byte	.LC11
 3361 093c 00       		.byte	0
 3362 093d 0A       		.uleb128 0xa
 3363 093e CA040000 		.4byte	.LVL150
 3364 0942 1B1A0000 		.4byte	0x1a1b
 3365 0946 09       		.uleb128 0x9
 3366 0947 01       		.uleb128 0x1
 3367 0948 50       		.byte	0x50
 3368 0949 02       		.uleb128 0x2
 3369 094a 74       		.byte	0x74
 3370 094b 00       		.sleb128 0
 3371 094c 00       		.byte	0
 3372 094d 00       		.byte	0
 3373 094e 0D       		.uleb128 0xd
 3374 094f E2060000 		.4byte	.LBB10
ARM GAS  C:\Users\Misha\AppData\Local\Temp\ccDk3wxj.s 			page 76


 3375 0953 34000000 		.4byte	.LBE10-.LBB10
 3376 0957 E1090000 		.4byte	0x9e1
 3377 095b 0E       		.uleb128 0xe
 3378 095c 16020000 		.4byte	.LASF24
 3379 0960 01       		.byte	0x1
 3380 0961 4802     		.2byte	0x248
 3381 0963 68000000 		.4byte	0x68
 3382 0967 F4000000 		.4byte	.LLST8
 3383 096b 12       		.uleb128 0x12
 3384 096c 44060000 		.4byte	.LASF108
 3385 0970 01       		.byte	0x1
 3386 0971 4902     		.2byte	0x249
 3387 0973 68000000 		.4byte	0x68
 3388 0977 08       		.uleb128 0x8
 3389 0978 F0060000 		.4byte	.LVL185
 3390 097c E11A0000 		.4byte	0x1ae1
 3391 0980 8F090000 		.4byte	0x98f
 3392 0984 09       		.uleb128 0x9
 3393 0985 01       		.uleb128 0x1
 3394 0986 50       		.byte	0x50
 3395 0987 01       		.uleb128 0x1
 3396 0988 30       		.byte	0x30
 3397 0989 09       		.uleb128 0x9
 3398 098a 01       		.uleb128 0x1
 3399 098b 51       		.byte	0x51
 3400 098c 01       		.uleb128 0x1
 3401 098d 32       		.byte	0x32
 3402 098e 00       		.byte	0
 3403 098f 08       		.uleb128 0x8
 3404 0990 F6060000 		.4byte	.LVL186
 3405 0994 EC1A0000 		.4byte	0x1aec
 3406 0998 A2090000 		.4byte	0x9a2
 3407 099c 09       		.uleb128 0x9
 3408 099d 01       		.uleb128 0x1
 3409 099e 50       		.byte	0x50
 3410 099f 01       		.uleb128 0x1
 3411 09a0 35       		.byte	0x35
 3412 09a1 00       		.byte	0
 3413 09a2 06       		.uleb128 0x6
 3414 09a3 FA060000 		.4byte	.LVL187
 3415 09a7 F71A0000 		.4byte	0x1af7
 3416 09ab 08       		.uleb128 0x8
 3417 09ac 02070000 		.4byte	.LVL188
 3418 09b0 E11A0000 		.4byte	0x1ae1
 3419 09b4 C4090000 		.4byte	0x9c4
 3420 09b8 09       		.uleb128 0x9
 3421 09b9 01       		.uleb128 0x1
 3422 09ba 50       		.byte	0x50
 3423 09bb 01       		.uleb128 0x1
 3424 09bc 33       		.byte	0x33
 3425 09bd 09       		.uleb128 0x9
 3426 09be 01       		.uleb128 0x1
 3427 09bf 51       		.byte	0x51
 3428 09c0 02       		.uleb128 0x2
 3429 09c1 75       		.byte	0x75
 3430 09c2 00       		.sleb128 0
 3431 09c3 00       		.byte	0
ARM GAS  C:\Users\Misha\AppData\Local\Temp\ccDk3wxj.s 			page 77


 3432 09c4 0A       		.uleb128 0xa
 3433 09c5 0E070000 		.4byte	.LVL189
 3434 09c9 3C1A0000 		.4byte	0x1a3c
 3435 09cd 09       		.uleb128 0x9
 3436 09ce 01       		.uleb128 0x1
 3437 09cf 50       		.byte	0x50
 3438 09d0 02       		.uleb128 0x2
 3439 09d1 09       		.byte	0x9
 3440 09d2 C4       		.byte	0xc4
 3441 09d3 09       		.uleb128 0x9
 3442 09d4 01       		.uleb128 0x1
 3443 09d5 51       		.byte	0x51
 3444 09d6 02       		.uleb128 0x2
 3445 09d7 08       		.byte	0x8
 3446 09d8 C8       		.byte	0xc8
 3447 09d9 09       		.uleb128 0x9
 3448 09da 01       		.uleb128 0x1
 3449 09db 52       		.byte	0x52
 3450 09dc 02       		.uleb128 0x2
 3451 09dd 75       		.byte	0x75
 3452 09de 00       		.sleb128 0
 3453 09df 00       		.byte	0
 3454 09e0 00       		.byte	0
 3455 09e1 0D       		.uleb128 0xd
 3456 09e2 BC080000 		.4byte	.LBB11
 3457 09e6 34010000 		.4byte	.LBE11-.LBB11
 3458 09ea A80C0000 		.4byte	0xca8
 3459 09ee 0E       		.uleb128 0xe
 3460 09ef 22060000 		.4byte	.LASF25
 3461 09f3 01       		.byte	0x1
 3462 09f4 D602     		.2byte	0x2d6
 3463 09f6 68000000 		.4byte	0x68
 3464 09fa 08010000 		.4byte	.LLST9
 3465 09fe 08       		.uleb128 0x8
 3466 09ff C2080000 		.4byte	.LVL219
 3467 0a03 C01A0000 		.4byte	0x1ac0
 3468 0a07 120A0000 		.4byte	0xa12
 3469 0a0b 09       		.uleb128 0x9
 3470 0a0c 01       		.uleb128 0x1
 3471 0a0d 50       		.byte	0x50
 3472 0a0e 02       		.uleb128 0x2
 3473 0a0f 77       		.byte	0x77
 3474 0a10 00       		.sleb128 0
 3475 0a11 00       		.byte	0
 3476 0a12 06       		.uleb128 0x6
 3477 0a13 CC080000 		.4byte	.LVL220
 3478 0a17 731A0000 		.4byte	0x1a73
 3479 0a1b 08       		.uleb128 0x8
 3480 0a1c F2080000 		.4byte	.LVL223
 3481 0a20 AA1A0000 		.4byte	0x1aaa
 3482 0a24 4D0A0000 		.4byte	0xa4d
 3483 0a28 09       		.uleb128 0x9
 3484 0a29 01       		.uleb128 0x1
 3485 0a2a 50       		.byte	0x50
 3486 0a2b 03       		.uleb128 0x3
 3487 0a2c 0A       		.byte	0xa
 3488 0a2d 2602     		.2byte	0x226
ARM GAS  C:\Users\Misha\AppData\Local\Temp\ccDk3wxj.s 			page 78


 3489 0a2f 09       		.uleb128 0x9
 3490 0a30 01       		.uleb128 0x1
 3491 0a31 51       		.byte	0x51
 3492 0a32 01       		.uleb128 0x1
 3493 0a33 30       		.byte	0x30
 3494 0a34 09       		.uleb128 0x9
 3495 0a35 01       		.uleb128 0x1
 3496 0a36 52       		.byte	0x52
 3497 0a37 01       		.uleb128 0x1
 3498 0a38 35       		.byte	0x35
 3499 0a39 09       		.uleb128 0x9
 3500 0a3a 01       		.uleb128 0x1
 3501 0a3b 53       		.byte	0x53
 3502 0a3c 01       		.uleb128 0x1
 3503 0a3d 30       		.byte	0x30
 3504 0a3e 09       		.uleb128 0x9
 3505 0a3f 02       		.uleb128 0x2
 3506 0a40 7D       		.byte	0x7d
 3507 0a41 00       		.sleb128 0
 3508 0a42 02       		.uleb128 0x2
 3509 0a43 74       		.byte	0x74
 3510 0a44 00       		.sleb128 0
 3511 0a45 09       		.uleb128 0x9
 3512 0a46 02       		.uleb128 0x2
 3513 0a47 7D       		.byte	0x7d
 3514 0a48 04       		.sleb128 4
 3515 0a49 02       		.uleb128 0x2
 3516 0a4a 77       		.byte	0x77
 3517 0a4b 00       		.sleb128 0
 3518 0a4c 00       		.byte	0
 3519 0a4d 08       		.uleb128 0x8
 3520 0a4e FA080000 		.4byte	.LVL224
 3521 0a52 021B0000 		.4byte	0x1b02
 3522 0a56 660A0000 		.4byte	0xa66
 3523 0a5a 09       		.uleb128 0x9
 3524 0a5b 01       		.uleb128 0x1
 3525 0a5c 50       		.byte	0x50
 3526 0a5d 01       		.uleb128 0x1
 3527 0a5e 30       		.byte	0x30
 3528 0a5f 09       		.uleb128 0x9
 3529 0a60 01       		.uleb128 0x1
 3530 0a61 51       		.byte	0x51
 3531 0a62 02       		.uleb128 0x2
 3532 0a63 74       		.byte	0x74
 3533 0a64 00       		.sleb128 0
 3534 0a65 00       		.byte	0
 3535 0a66 08       		.uleb128 0x8
 3536 0a67 02090000 		.4byte	.LVL225
 3537 0a6b 021B0000 		.4byte	0x1b02
 3538 0a6f 7F0A0000 		.4byte	0xa7f
 3539 0a73 09       		.uleb128 0x9
 3540 0a74 01       		.uleb128 0x1
 3541 0a75 50       		.byte	0x50
 3542 0a76 01       		.uleb128 0x1
 3543 0a77 33       		.byte	0x33
 3544 0a78 09       		.uleb128 0x9
 3545 0a79 01       		.uleb128 0x1
ARM GAS  C:\Users\Misha\AppData\Local\Temp\ccDk3wxj.s 			page 79


 3546 0a7a 51       		.byte	0x51
 3547 0a7b 02       		.uleb128 0x2
 3548 0a7c 74       		.byte	0x74
 3549 0a7d 00       		.sleb128 0
 3550 0a7e 00       		.byte	0
 3551 0a7f 08       		.uleb128 0x8
 3552 0a80 12090000 		.4byte	.LVL226
 3553 0a84 AA1A0000 		.4byte	0x1aaa
 3554 0a88 B10A0000 		.4byte	0xab1
 3555 0a8c 09       		.uleb128 0x9
 3556 0a8d 01       		.uleb128 0x1
 3557 0a8e 50       		.byte	0x50
 3558 0a8f 02       		.uleb128 0x2
 3559 0a90 08       		.byte	0x8
 3560 0a91 AA       		.byte	0xaa
 3561 0a92 09       		.uleb128 0x9
 3562 0a93 01       		.uleb128 0x1
 3563 0a94 51       		.byte	0x51
 3564 0a95 02       		.uleb128 0x2
 3565 0a96 77       		.byte	0x77
 3566 0a97 00       		.sleb128 0
 3567 0a98 09       		.uleb128 0x9
 3568 0a99 01       		.uleb128 0x1
 3569 0a9a 52       		.byte	0x52
 3570 0a9b 01       		.uleb128 0x1
 3571 0a9c 34       		.byte	0x34
 3572 0a9d 09       		.uleb128 0x9
 3573 0a9e 01       		.uleb128 0x1
 3574 0a9f 53       		.byte	0x53
 3575 0aa0 01       		.uleb128 0x1
 3576 0aa1 30       		.byte	0x30
 3577 0aa2 09       		.uleb128 0x9
 3578 0aa3 02       		.uleb128 0x2
 3579 0aa4 7D       		.byte	0x7d
 3580 0aa5 00       		.sleb128 0
 3581 0aa6 02       		.uleb128 0x2
 3582 0aa7 74       		.byte	0x74
 3583 0aa8 00       		.sleb128 0
 3584 0aa9 09       		.uleb128 0x9
 3585 0aaa 02       		.uleb128 0x2
 3586 0aab 7D       		.byte	0x7d
 3587 0aac 04       		.sleb128 4
 3588 0aad 02       		.uleb128 0x2
 3589 0aae 77       		.byte	0x77
 3590 0aaf 00       		.sleb128 0
 3591 0ab0 00       		.byte	0
 3592 0ab1 08       		.uleb128 0x8
 3593 0ab2 18090000 		.4byte	.LVL227
 3594 0ab6 9F1A0000 		.4byte	0x1a9f
 3595 0aba C40A0000 		.4byte	0xac4
 3596 0abe 09       		.uleb128 0x9
 3597 0abf 01       		.uleb128 0x1
 3598 0ac0 50       		.byte	0x50
 3599 0ac1 01       		.uleb128 0x1
 3600 0ac2 37       		.byte	0x37
 3601 0ac3 00       		.byte	0
 3602 0ac4 08       		.uleb128 0x8
ARM GAS  C:\Users\Misha\AppData\Local\Temp\ccDk3wxj.s 			page 80


 3603 0ac5 20090000 		.4byte	.LVL228
 3604 0ac9 021B0000 		.4byte	0x1b02
 3605 0acd DD0A0000 		.4byte	0xadd
 3606 0ad1 09       		.uleb128 0x9
 3607 0ad2 01       		.uleb128 0x1
 3608 0ad3 50       		.byte	0x50
 3609 0ad4 01       		.uleb128 0x1
 3610 0ad5 32       		.byte	0x32
 3611 0ad6 09       		.uleb128 0x9
 3612 0ad7 01       		.uleb128 0x1
 3613 0ad8 51       		.byte	0x51
 3614 0ad9 02       		.uleb128 0x2
 3615 0ada 08       		.byte	0x8
 3616 0adb C8       		.byte	0xc8
 3617 0adc 00       		.byte	0
 3618 0add 08       		.uleb128 0x8
 3619 0ade 28090000 		.4byte	.LVL229
 3620 0ae2 E11A0000 		.4byte	0x1ae1
 3621 0ae6 F60A0000 		.4byte	0xaf6
 3622 0aea 09       		.uleb128 0x9
 3623 0aeb 01       		.uleb128 0x1
 3624 0aec 50       		.byte	0x50
 3625 0aed 01       		.uleb128 0x1
 3626 0aee 33       		.byte	0x33
 3627 0aef 09       		.uleb128 0x9
 3628 0af0 01       		.uleb128 0x1
 3629 0af1 51       		.byte	0x51
 3630 0af2 02       		.uleb128 0x2
 3631 0af3 77       		.byte	0x77
 3632 0af4 00       		.sleb128 0
 3633 0af5 00       		.byte	0
 3634 0af6 08       		.uleb128 0x8
 3635 0af7 34090000 		.4byte	.LVL230
 3636 0afb 9F1A0000 		.4byte	0x1a9f
 3637 0aff 090B0000 		.4byte	0xb09
 3638 0b03 09       		.uleb128 0x9
 3639 0b04 01       		.uleb128 0x1
 3640 0b05 50       		.byte	0x50
 3641 0b06 01       		.uleb128 0x1
 3642 0b07 37       		.byte	0x37
 3643 0b08 00       		.byte	0
 3644 0b09 08       		.uleb128 0x8
 3645 0b0a 46090000 		.4byte	.LVL231
 3646 0b0e AA1A0000 		.4byte	0x1aaa
 3647 0b12 3B0B0000 		.4byte	0xb3b
 3648 0b16 09       		.uleb128 0x9
 3649 0b17 01       		.uleb128 0x1
 3650 0b18 50       		.byte	0x50
 3651 0b19 02       		.uleb128 0x2
 3652 0b1a 08       		.byte	0x8
 3653 0b1b 82       		.byte	0x82
 3654 0b1c 09       		.uleb128 0x9
 3655 0b1d 01       		.uleb128 0x1
 3656 0b1e 51       		.byte	0x51
 3657 0b1f 02       		.uleb128 0x2
 3658 0b20 77       		.byte	0x77
 3659 0b21 00       		.sleb128 0
ARM GAS  C:\Users\Misha\AppData\Local\Temp\ccDk3wxj.s 			page 81


 3660 0b22 09       		.uleb128 0x9
 3661 0b23 01       		.uleb128 0x1
 3662 0b24 52       		.byte	0x52
 3663 0b25 01       		.uleb128 0x1
 3664 0b26 34       		.byte	0x34
 3665 0b27 09       		.uleb128 0x9
 3666 0b28 01       		.uleb128 0x1
 3667 0b29 53       		.byte	0x53
 3668 0b2a 01       		.uleb128 0x1
 3669 0b2b 30       		.byte	0x30
 3670 0b2c 09       		.uleb128 0x9
 3671 0b2d 02       		.uleb128 0x2
 3672 0b2e 7D       		.byte	0x7d
 3673 0b2f 00       		.sleb128 0
 3674 0b30 02       		.uleb128 0x2
 3675 0b31 08       		.byte	0x8
 3676 0b32 C8       		.byte	0xc8
 3677 0b33 09       		.uleb128 0x9
 3678 0b34 02       		.uleb128 0x2
 3679 0b35 7D       		.byte	0x7d
 3680 0b36 04       		.sleb128 4
 3681 0b37 02       		.uleb128 0x2
 3682 0b38 77       		.byte	0x77
 3683 0b39 00       		.sleb128 0
 3684 0b3a 00       		.byte	0
 3685 0b3b 08       		.uleb128 0x8
 3686 0b3c 5C090000 		.4byte	.LVL232
 3687 0b40 AA1A0000 		.4byte	0x1aaa
 3688 0b44 6C0B0000 		.4byte	0xb6c
 3689 0b48 09       		.uleb128 0x9
 3690 0b49 01       		.uleb128 0x1
 3691 0b4a 50       		.byte	0x50
 3692 0b4b 02       		.uleb128 0x2
 3693 0b4c 08       		.byte	0x8
 3694 0b4d 5F       		.byte	0x5f
 3695 0b4e 09       		.uleb128 0x9
 3696 0b4f 01       		.uleb128 0x1
 3697 0b50 51       		.byte	0x51
 3698 0b51 02       		.uleb128 0x2
 3699 0b52 77       		.byte	0x77
 3700 0b53 00       		.sleb128 0
 3701 0b54 09       		.uleb128 0x9
 3702 0b55 01       		.uleb128 0x1
 3703 0b56 52       		.byte	0x52
 3704 0b57 01       		.uleb128 0x1
 3705 0b58 34       		.byte	0x34
 3706 0b59 09       		.uleb128 0x9
 3707 0b5a 01       		.uleb128 0x1
 3708 0b5b 53       		.byte	0x53
 3709 0b5c 01       		.uleb128 0x1
 3710 0b5d 35       		.byte	0x35
 3711 0b5e 09       		.uleb128 0x9
 3712 0b5f 02       		.uleb128 0x2
 3713 0b60 7D       		.byte	0x7d
 3714 0b61 00       		.sleb128 0
 3715 0b62 02       		.uleb128 0x2
 3716 0b63 08       		.byte	0x8
ARM GAS  C:\Users\Misha\AppData\Local\Temp\ccDk3wxj.s 			page 82


 3717 0b64 46       		.byte	0x46
 3718 0b65 09       		.uleb128 0x9
 3719 0b66 02       		.uleb128 0x2
 3720 0b67 7D       		.byte	0x7d
 3721 0b68 04       		.sleb128 4
 3722 0b69 01       		.uleb128 0x1
 3723 0b6a 30       		.byte	0x30
 3724 0b6b 00       		.byte	0
 3725 0b6c 08       		.uleb128 0x8
 3726 0b6d 66090000 		.4byte	.LVL233
 3727 0b71 E11A0000 		.4byte	0x1ae1
 3728 0b75 800B0000 		.4byte	0xb80
 3729 0b79 09       		.uleb128 0x9
 3730 0b7a 01       		.uleb128 0x1
 3731 0b7b 51       		.byte	0x51
 3732 0b7c 02       		.uleb128 0x2
 3733 0b7d 77       		.byte	0x77
 3734 0b7e 00       		.sleb128 0
 3735 0b7f 00       		.byte	0
 3736 0b80 06       		.uleb128 0x6
 3737 0b81 6A090000 		.4byte	.LVL234
 3738 0b85 0D1B0000 		.4byte	0x1b0d
 3739 0b89 08       		.uleb128 0x8
 3740 0b8a 72090000 		.4byte	.LVL235
 3741 0b8e E11A0000 		.4byte	0x1ae1
 3742 0b92 A10B0000 		.4byte	0xba1
 3743 0b96 09       		.uleb128 0x9
 3744 0b97 01       		.uleb128 0x1
 3745 0b98 50       		.byte	0x50
 3746 0b99 01       		.uleb128 0x1
 3747 0b9a 33       		.byte	0x33
 3748 0b9b 09       		.uleb128 0x9
 3749 0b9c 01       		.uleb128 0x1
 3750 0b9d 51       		.byte	0x51
 3751 0b9e 01       		.uleb128 0x1
 3752 0b9f 30       		.byte	0x30
 3753 0ba0 00       		.byte	0
 3754 0ba1 08       		.uleb128 0x8
 3755 0ba2 9C090000 		.4byte	.LVL236
 3756 0ba6 3C1A0000 		.4byte	0x1a3c
 3757 0baa C20B0000 		.4byte	0xbc2
 3758 0bae 09       		.uleb128 0x9
 3759 0baf 01       		.uleb128 0x1
 3760 0bb0 50       		.byte	0x50
 3761 0bb1 03       		.uleb128 0x3
 3762 0bb2 0B       		.byte	0xb
 3763 0bb3 7EFF     		.2byte	0xff7e
 3764 0bb5 09       		.uleb128 0x9
 3765 0bb6 01       		.uleb128 0x1
 3766 0bb7 51       		.byte	0x51
 3767 0bb8 02       		.uleb128 0x2
 3768 0bb9 08       		.byte	0x8
 3769 0bba C8       		.byte	0xc8
 3770 0bbb 09       		.uleb128 0x9
 3771 0bbc 01       		.uleb128 0x1
 3772 0bbd 52       		.byte	0x52
 3773 0bbe 02       		.uleb128 0x2
ARM GAS  C:\Users\Misha\AppData\Local\Temp\ccDk3wxj.s 			page 83


 3774 0bbf 77       		.byte	0x77
 3775 0bc0 00       		.sleb128 0
 3776 0bc1 00       		.byte	0
 3777 0bc2 08       		.uleb128 0x8
 3778 0bc3 A4090000 		.4byte	.LVL237
 3779 0bc7 021B0000 		.4byte	0x1b02
 3780 0bcb DB0B0000 		.4byte	0xbdb
 3781 0bcf 09       		.uleb128 0x9
 3782 0bd0 01       		.uleb128 0x1
 3783 0bd1 50       		.byte	0x50
 3784 0bd2 01       		.uleb128 0x1
 3785 0bd3 33       		.byte	0x33
 3786 0bd4 09       		.uleb128 0x9
 3787 0bd5 01       		.uleb128 0x1
 3788 0bd6 51       		.byte	0x51
 3789 0bd7 02       		.uleb128 0x2
 3790 0bd8 08       		.byte	0x8
 3791 0bd9 C8       		.byte	0xc8
 3792 0bda 00       		.byte	0
 3793 0bdb 08       		.uleb128 0x8
 3794 0bdc AA090000 		.4byte	.LVL238
 3795 0be0 9F1A0000 		.4byte	0x1a9f
 3796 0be4 EE0B0000 		.4byte	0xbee
 3797 0be8 09       		.uleb128 0x9
 3798 0be9 01       		.uleb128 0x1
 3799 0bea 50       		.byte	0x50
 3800 0beb 01       		.uleb128 0x1
 3801 0bec 37       		.byte	0x37
 3802 0bed 00       		.byte	0
 3803 0bee 08       		.uleb128 0x8
 3804 0bef C0090000 		.4byte	.LVL239
 3805 0bf3 AA1A0000 		.4byte	0x1aaa
 3806 0bf7 200C0000 		.4byte	0xc20
 3807 0bfb 09       		.uleb128 0x9
 3808 0bfc 01       		.uleb128 0x1
 3809 0bfd 50       		.byte	0x50
 3810 0bfe 03       		.uleb128 0x3
 3811 0bff 0A       		.byte	0xa
 3812 0c00 2602     		.2byte	0x226
 3813 0c02 09       		.uleb128 0x9
 3814 0c03 01       		.uleb128 0x1
 3815 0c04 51       		.byte	0x51
 3816 0c05 01       		.uleb128 0x1
 3817 0c06 30       		.byte	0x30
 3818 0c07 09       		.uleb128 0x9
 3819 0c08 01       		.uleb128 0x1
 3820 0c09 52       		.byte	0x52
 3821 0c0a 01       		.uleb128 0x1
 3822 0c0b 35       		.byte	0x35
 3823 0c0c 09       		.uleb128 0x9
 3824 0c0d 01       		.uleb128 0x1
 3825 0c0e 53       		.byte	0x53
 3826 0c0f 01       		.uleb128 0x1
 3827 0c10 30       		.byte	0x30
 3828 0c11 09       		.uleb128 0x9
 3829 0c12 02       		.uleb128 0x2
 3830 0c13 7D       		.byte	0x7d
ARM GAS  C:\Users\Misha\AppData\Local\Temp\ccDk3wxj.s 			page 84


 3831 0c14 00       		.sleb128 0
 3832 0c15 02       		.uleb128 0x2
 3833 0c16 75       		.byte	0x75
 3834 0c17 00       		.sleb128 0
 3835 0c18 09       		.uleb128 0x9
 3836 0c19 02       		.uleb128 0x2
 3837 0c1a 7D       		.byte	0x7d
 3838 0c1b 04       		.sleb128 4
 3839 0c1c 02       		.uleb128 0x2
 3840 0c1d 77       		.byte	0x77
 3841 0c1e 00       		.sleb128 0
 3842 0c1f 00       		.byte	0
 3843 0c20 08       		.uleb128 0x8
 3844 0c21 C6090000 		.4byte	.LVL240
 3845 0c25 9F1A0000 		.4byte	0x1a9f
 3846 0c29 330C0000 		.4byte	0xc33
 3847 0c2d 09       		.uleb128 0x9
 3848 0c2e 01       		.uleb128 0x1
 3849 0c2f 50       		.byte	0x50
 3850 0c30 01       		.uleb128 0x1
 3851 0c31 37       		.byte	0x37
 3852 0c32 00       		.byte	0
 3853 0c33 08       		.uleb128 0x8
 3854 0c34 CE090000 		.4byte	.LVL241
 3855 0c38 021B0000 		.4byte	0x1b02
 3856 0c3c 4C0C0000 		.4byte	0xc4c
 3857 0c40 09       		.uleb128 0x9
 3858 0c41 01       		.uleb128 0x1
 3859 0c42 50       		.byte	0x50
 3860 0c43 01       		.uleb128 0x1
 3861 0c44 30       		.byte	0x30
 3862 0c45 09       		.uleb128 0x9
 3863 0c46 01       		.uleb128 0x1
 3864 0c47 51       		.byte	0x51
 3865 0c48 02       		.uleb128 0x2
 3866 0c49 75       		.byte	0x75
 3867 0c4a 00       		.sleb128 0
 3868 0c4b 00       		.byte	0
 3869 0c4c 08       		.uleb128 0x8
 3870 0c4d D6090000 		.4byte	.LVL242
 3871 0c51 021B0000 		.4byte	0x1b02
 3872 0c55 660C0000 		.4byte	0xc66
 3873 0c59 09       		.uleb128 0x9
 3874 0c5a 01       		.uleb128 0x1
 3875 0c5b 50       		.byte	0x50
 3876 0c5c 02       		.uleb128 0x2
 3877 0c5d 77       		.byte	0x77
 3878 0c5e 00       		.sleb128 0
 3879 0c5f 09       		.uleb128 0x9
 3880 0c60 01       		.uleb128 0x1
 3881 0c61 51       		.byte	0x51
 3882 0c62 02       		.uleb128 0x2
 3883 0c63 75       		.byte	0x75
 3884 0c64 00       		.sleb128 0
 3885 0c65 00       		.byte	0
 3886 0c66 08       		.uleb128 0x8
 3887 0c67 E6090000 		.4byte	.LVL243
ARM GAS  C:\Users\Misha\AppData\Local\Temp\ccDk3wxj.s 			page 85


 3888 0c6b AA1A0000 		.4byte	0x1aaa
 3889 0c6f 980C0000 		.4byte	0xc98
 3890 0c73 09       		.uleb128 0x9
 3891 0c74 01       		.uleb128 0x1
 3892 0c75 50       		.byte	0x50
 3893 0c76 02       		.uleb128 0x2
 3894 0c77 08       		.byte	0x8
 3895 0c78 B9       		.byte	0xb9
 3896 0c79 09       		.uleb128 0x9
 3897 0c7a 01       		.uleb128 0x1
 3898 0c7b 51       		.byte	0x51
 3899 0c7c 02       		.uleb128 0x2
 3900 0c7d 77       		.byte	0x77
 3901 0c7e 00       		.sleb128 0
 3902 0c7f 09       		.uleb128 0x9
 3903 0c80 01       		.uleb128 0x1
 3904 0c81 52       		.byte	0x52
 3905 0c82 01       		.uleb128 0x1
 3906 0c83 34       		.byte	0x34
 3907 0c84 09       		.uleb128 0x9
 3908 0c85 01       		.uleb128 0x1
 3909 0c86 53       		.byte	0x53
 3910 0c87 01       		.uleb128 0x1
 3911 0c88 30       		.byte	0x30
 3912 0c89 09       		.uleb128 0x9
 3913 0c8a 02       		.uleb128 0x2
 3914 0c8b 7D       		.byte	0x7d
 3915 0c8c 00       		.sleb128 0
 3916 0c8d 02       		.uleb128 0x2
 3917 0c8e 75       		.byte	0x75
 3918 0c8f 00       		.sleb128 0
 3919 0c90 09       		.uleb128 0x9
 3920 0c91 02       		.uleb128 0x2
 3921 0c92 7D       		.byte	0x7d
 3922 0c93 04       		.sleb128 4
 3923 0c94 02       		.uleb128 0x2
 3924 0c95 77       		.byte	0x77
 3925 0c96 00       		.sleb128 0
 3926 0c97 00       		.byte	0
 3927 0c98 0A       		.uleb128 0xa
 3928 0c99 EC090000 		.4byte	.LVL244
 3929 0c9d 9F1A0000 		.4byte	0x1a9f
 3930 0ca1 09       		.uleb128 0x9
 3931 0ca2 01       		.uleb128 0x1
 3932 0ca3 50       		.byte	0x50
 3933 0ca4 01       		.uleb128 0x1
 3934 0ca5 37       		.byte	0x37
 3935 0ca6 00       		.byte	0
 3936 0ca7 00       		.byte	0
 3937 0ca8 06       		.uleb128 0x6
 3938 0ca9 0C000000 		.4byte	.LVL11
 3939 0cad 181B0000 		.4byte	0x1b18
 3940 0cb1 06       		.uleb128 0x6
 3941 0cb2 10000000 		.4byte	.LVL12
 3942 0cb6 231B0000 		.4byte	0x1b23
 3943 0cba 08       		.uleb128 0x8
 3944 0cbb 16000000 		.4byte	.LVL13
ARM GAS  C:\Users\Misha\AppData\Local\Temp\ccDk3wxj.s 			page 86


 3945 0cbf 1B1A0000 		.4byte	0x1a1b
 3946 0cc3 D10C0000 		.4byte	0xcd1
 3947 0cc7 09       		.uleb128 0x9
 3948 0cc8 01       		.uleb128 0x1
 3949 0cc9 50       		.byte	0x50
 3950 0cca 05       		.uleb128 0x5
 3951 0ccb 03       		.byte	0x3
 3952 0ccc 18000000 		.4byte	.LC1
 3953 0cd0 00       		.byte	0
 3954 0cd1 06       		.uleb128 0x6
 3955 0cd2 1A000000 		.4byte	.LVL14
 3956 0cd6 2E1B0000 		.4byte	0x1b2e
 3957 0cda 06       		.uleb128 0x6
 3958 0cdb 1E000000 		.4byte	.LVL15
 3959 0cdf 391B0000 		.4byte	0x1b39
 3960 0ce3 08       		.uleb128 0x8
 3961 0ce4 24000000 		.4byte	.LVL16
 3962 0ce8 441B0000 		.4byte	0x1b44
 3963 0cec F60C0000 		.4byte	0xcf6
 3964 0cf0 09       		.uleb128 0x9
 3965 0cf1 01       		.uleb128 0x1
 3966 0cf2 50       		.byte	0x50
 3967 0cf3 01       		.uleb128 0x1
 3968 0cf4 30       		.byte	0x30
 3969 0cf5 00       		.byte	0
 3970 0cf6 06       		.uleb128 0x6
 3971 0cf7 2C000000 		.4byte	.LVL17
 3972 0cfb 4F1B0000 		.4byte	0x1b4f
 3973 0cff 08       		.uleb128 0x8
 3974 0d00 36000000 		.4byte	.LVL18
 3975 0d04 C01A0000 		.4byte	0x1ac0
 3976 0d08 130D0000 		.4byte	0xd13
 3977 0d0c 09       		.uleb128 0x9
 3978 0d0d 01       		.uleb128 0x1
 3979 0d0e 50       		.byte	0x50
 3980 0d0f 02       		.uleb128 0x2
 3981 0d10 75       		.byte	0x75
 3982 0d11 00       		.sleb128 0
 3983 0d12 00       		.byte	0
 3984 0d13 08       		.uleb128 0x8
 3985 0d14 3C000000 		.4byte	.LVL19
 3986 0d18 5A1B0000 		.4byte	0x1b5a
 3987 0d1c 260D0000 		.4byte	0xd26
 3988 0d20 09       		.uleb128 0x9
 3989 0d21 01       		.uleb128 0x1
 3990 0d22 50       		.byte	0x50
 3991 0d23 01       		.uleb128 0x1
 3992 0d24 31       		.byte	0x31
 3993 0d25 00       		.byte	0
 3994 0d26 08       		.uleb128 0x8
 3995 0d27 44000000 		.4byte	.LVL20
 3996 0d2b 101A0000 		.4byte	0x1a10
 3997 0d2f 3B0D0000 		.4byte	0xd3b
 3998 0d33 09       		.uleb128 0x9
 3999 0d34 01       		.uleb128 0x1
 4000 0d35 50       		.byte	0x50
 4001 0d36 03       		.uleb128 0x3
ARM GAS  C:\Users\Misha\AppData\Local\Temp\ccDk3wxj.s 			page 87


 4002 0d37 0A       		.byte	0xa
 4003 0d38 F401     		.2byte	0x1f4
 4004 0d3a 00       		.byte	0
 4005 0d3b 08       		.uleb128 0x8
 4006 0d3c 4A000000 		.4byte	.LVL21
 4007 0d40 5A1B0000 		.4byte	0x1b5a
 4008 0d44 4E0D0000 		.4byte	0xd4e
 4009 0d48 09       		.uleb128 0x9
 4010 0d49 01       		.uleb128 0x1
 4011 0d4a 50       		.byte	0x50
 4012 0d4b 01       		.uleb128 0x1
 4013 0d4c 32       		.byte	0x32
 4014 0d4d 00       		.byte	0
 4015 0d4e 08       		.uleb128 0x8
 4016 0d4f 52000000 		.4byte	.LVL22
 4017 0d53 101A0000 		.4byte	0x1a10
 4018 0d57 630D0000 		.4byte	0xd63
 4019 0d5b 09       		.uleb128 0x9
 4020 0d5c 01       		.uleb128 0x1
 4021 0d5d 50       		.byte	0x50
 4022 0d5e 03       		.uleb128 0x3
 4023 0d5f 0A       		.byte	0xa
 4024 0d60 F401     		.2byte	0x1f4
 4025 0d62 00       		.byte	0
 4026 0d63 08       		.uleb128 0x8
 4027 0d64 58000000 		.4byte	.LVL23
 4028 0d68 5A1B0000 		.4byte	0x1b5a
 4029 0d6c 760D0000 		.4byte	0xd76
 4030 0d70 09       		.uleb128 0x9
 4031 0d71 01       		.uleb128 0x1
 4032 0d72 50       		.byte	0x50
 4033 0d73 01       		.uleb128 0x1
 4034 0d74 33       		.byte	0x33
 4035 0d75 00       		.byte	0
 4036 0d76 08       		.uleb128 0x8
 4037 0d77 60000000 		.4byte	.LVL24
 4038 0d7b 101A0000 		.4byte	0x1a10
 4039 0d7f 8B0D0000 		.4byte	0xd8b
 4040 0d83 09       		.uleb128 0x9
 4041 0d84 01       		.uleb128 0x1
 4042 0d85 50       		.byte	0x50
 4043 0d86 03       		.uleb128 0x3
 4044 0d87 0A       		.byte	0xa
 4045 0d88 F401     		.2byte	0x1f4
 4046 0d8a 00       		.byte	0
 4047 0d8b 08       		.uleb128 0x8
 4048 0d8c 66000000 		.4byte	.LVL25
 4049 0d90 5A1B0000 		.4byte	0x1b5a
 4050 0d94 9F0D0000 		.4byte	0xd9f
 4051 0d98 09       		.uleb128 0x9
 4052 0d99 01       		.uleb128 0x1
 4053 0d9a 50       		.byte	0x50
 4054 0d9b 02       		.uleb128 0x2
 4055 0d9c 75       		.byte	0x75
 4056 0d9d 00       		.sleb128 0
 4057 0d9e 00       		.byte	0
 4058 0d9f 08       		.uleb128 0x8
ARM GAS  C:\Users\Misha\AppData\Local\Temp\ccDk3wxj.s 			page 88


 4059 0da0 6E000000 		.4byte	.LVL26
 4060 0da4 101A0000 		.4byte	0x1a10
 4061 0da8 B40D0000 		.4byte	0xdb4
 4062 0dac 09       		.uleb128 0x9
 4063 0dad 01       		.uleb128 0x1
 4064 0dae 50       		.byte	0x50
 4065 0daf 03       		.uleb128 0x3
 4066 0db0 0A       		.byte	0xa
 4067 0db1 F401     		.2byte	0x1f4
 4068 0db3 00       		.byte	0
 4069 0db4 06       		.uleb128 0x6
 4070 0db5 72000000 		.4byte	.LVL27
 4071 0db9 B51A0000 		.4byte	0x1ab5
 4072 0dbd 06       		.uleb128 0x6
 4073 0dbe 76000000 		.4byte	.LVL28
 4074 0dc2 651B0000 		.4byte	0x1b65
 4075 0dc6 08       		.uleb128 0x8
 4076 0dc7 7E000000 		.4byte	.LVL29
 4077 0dcb 701B0000 		.4byte	0x1b70
 4078 0dcf DB0D0000 		.4byte	0xddb
 4079 0dd3 09       		.uleb128 0x9
 4080 0dd4 01       		.uleb128 0x1
 4081 0dd5 50       		.byte	0x50
 4082 0dd6 03       		.uleb128 0x3
 4083 0dd7 0A       		.byte	0xa
 4084 0dd8 E803     		.2byte	0x3e8
 4085 0dda 00       		.byte	0
 4086 0ddb 08       		.uleb128 0x8
 4087 0ddc 86000000 		.4byte	.LVL30
 4088 0de0 101A0000 		.4byte	0x1a10
 4089 0de4 F00D0000 		.4byte	0xdf0
 4090 0de8 09       		.uleb128 0x9
 4091 0de9 01       		.uleb128 0x1
 4092 0dea 50       		.byte	0x50
 4093 0deb 03       		.uleb128 0x3
 4094 0dec 0A       		.byte	0xa
 4095 0ded F401     		.2byte	0x1f4
 4096 0def 00       		.byte	0
 4097 0df0 06       		.uleb128 0x6
 4098 0df1 8A000000 		.4byte	.LVL31
 4099 0df5 7B1B0000 		.4byte	0x1b7b
 4100 0df9 06       		.uleb128 0x6
 4101 0dfa 8E000000 		.4byte	.LVL32
 4102 0dfe 861B0000 		.4byte	0x1b86
 4103 0e02 08       		.uleb128 0x8
 4104 0e03 96000000 		.4byte	.LVL33
 4105 0e07 911B0000 		.4byte	0x1b91
 4106 0e0b 170E0000 		.4byte	0xe17
 4107 0e0f 09       		.uleb128 0x9
 4108 0e10 01       		.uleb128 0x1
 4109 0e11 50       		.byte	0x50
 4110 0e12 03       		.uleb128 0x3
 4111 0e13 0A       		.byte	0xa
 4112 0e14 6004     		.2byte	0x460
 4113 0e16 00       		.byte	0
 4114 0e17 08       		.uleb128 0x8
 4115 0e18 9E000000 		.4byte	.LVL34
ARM GAS  C:\Users\Misha\AppData\Local\Temp\ccDk3wxj.s 			page 89


 4116 0e1c 101A0000 		.4byte	0x1a10
 4117 0e20 2C0E0000 		.4byte	0xe2c
 4118 0e24 09       		.uleb128 0x9
 4119 0e25 01       		.uleb128 0x1
 4120 0e26 50       		.byte	0x50
 4121 0e27 03       		.uleb128 0x3
 4122 0e28 0A       		.byte	0xa
 4123 0e29 F401     		.2byte	0x1f4
 4124 0e2b 00       		.byte	0
 4125 0e2c 06       		.uleb128 0x6
 4126 0e2d A2000000 		.4byte	.LVL35
 4127 0e31 9C1B0000 		.4byte	0x1b9c
 4128 0e35 06       		.uleb128 0x6
 4129 0e36 A6000000 		.4byte	.LVL36
 4130 0e3a A71B0000 		.4byte	0x1ba7
 4131 0e3e 06       		.uleb128 0x6
 4132 0e3f AA000000 		.4byte	.LVL37
 4133 0e43 B21B0000 		.4byte	0x1bb2
 4134 0e47 08       		.uleb128 0x8
 4135 0e48 B0000000 		.4byte	.LVL38
 4136 0e4c 521A0000 		.4byte	0x1a52
 4137 0e50 5B0E0000 		.4byte	0xe5b
 4138 0e54 09       		.uleb128 0x9
 4139 0e55 01       		.uleb128 0x1
 4140 0e56 50       		.byte	0x50
 4141 0e57 02       		.uleb128 0x2
 4142 0e58 75       		.byte	0x75
 4143 0e59 00       		.sleb128 0
 4144 0e5a 00       		.byte	0
 4145 0e5b 08       		.uleb128 0x8
 4146 0e5c B6000000 		.4byte	.LVL39
 4147 0e60 681A0000 		.4byte	0x1a68
 4148 0e64 6F0E0000 		.4byte	0xe6f
 4149 0e68 09       		.uleb128 0x9
 4150 0e69 01       		.uleb128 0x1
 4151 0e6a 50       		.byte	0x50
 4152 0e6b 02       		.uleb128 0x2
 4153 0e6c 75       		.byte	0x75
 4154 0e6d 00       		.sleb128 0
 4155 0e6e 00       		.byte	0
 4156 0e6f 06       		.uleb128 0x6
 4157 0e70 BA000000 		.4byte	.LVL40
 4158 0e74 261A0000 		.4byte	0x1a26
 4159 0e78 06       		.uleb128 0x6
 4160 0e79 BE000000 		.4byte	.LVL41
 4161 0e7d 311A0000 		.4byte	0x1a31
 4162 0e81 06       		.uleb128 0x6
 4163 0e82 C2000000 		.4byte	.LVL42
 4164 0e86 BD1B0000 		.4byte	0x1bbd
 4165 0e8a 06       		.uleb128 0x6
 4166 0e8b C6000000 		.4byte	.LVL43
 4167 0e8f C81B0000 		.4byte	0x1bc8
 4168 0e93 06       		.uleb128 0x6
 4169 0e94 D0000000 		.4byte	.LVL44
 4170 0e98 D31B0000 		.4byte	0x1bd3
 4171 0e9c 06       		.uleb128 0x6
 4172 0e9d D4000000 		.4byte	.LVL45
ARM GAS  C:\Users\Misha\AppData\Local\Temp\ccDk3wxj.s 			page 90


 4173 0ea1 DE1B0000 		.4byte	0x1bde
 4174 0ea5 08       		.uleb128 0x8
 4175 0ea6 DA000000 		.4byte	.LVL46
 4176 0eaa E91B0000 		.4byte	0x1be9
 4177 0eae BC0E0000 		.4byte	0xebc
 4178 0eb2 09       		.uleb128 0x9
 4179 0eb3 01       		.uleb128 0x1
 4180 0eb4 50       		.byte	0x50
 4181 0eb5 05       		.uleb128 0x5
 4182 0eb6 03       		.byte	0x3
 4183 0eb7 00000000 		.4byte	TIH
 4184 0ebb 00       		.byte	0
 4185 0ebc 08       		.uleb128 0x8
 4186 0ebd E0000000 		.4byte	.LVL47
 4187 0ec1 F41B0000 		.4byte	0x1bf4
 4188 0ec5 D30E0000 		.4byte	0xed3
 4189 0ec9 09       		.uleb128 0x9
 4190 0eca 01       		.uleb128 0x1
 4191 0ecb 50       		.byte	0x50
 4192 0ecc 05       		.uleb128 0x5
 4193 0ecd 03       		.byte	0x3
 4194 0ece 00000000 		.4byte	StartIH
 4195 0ed2 00       		.byte	0
 4196 0ed3 08       		.uleb128 0x8
 4197 0ed4 E6000000 		.4byte	.LVL48
 4198 0ed8 FF1B0000 		.4byte	0x1bff
 4199 0edc EA0E0000 		.4byte	0xeea
 4200 0ee0 09       		.uleb128 0x9
 4201 0ee1 01       		.uleb128 0x1
 4202 0ee2 50       		.byte	0x50
 4203 0ee3 05       		.uleb128 0x5
 4204 0ee4 03       		.byte	0x3
 4205 0ee5 00000000 		.4byte	SAIH
 4206 0ee9 00       		.byte	0
 4207 0eea 08       		.uleb128 0x8
 4208 0eeb F0000000 		.4byte	.LVL49
 4209 0eef 1B1A0000 		.4byte	0x1a1b
 4210 0ef3 010F0000 		.4byte	0xf01
 4211 0ef7 09       		.uleb128 0x9
 4212 0ef8 01       		.uleb128 0x1
 4213 0ef9 50       		.byte	0x50
 4214 0efa 05       		.uleb128 0x5
 4215 0efb 03       		.byte	0x3
 4216 0efc 30000000 		.4byte	.LC2
 4217 0f00 00       		.byte	0
 4218 0f01 06       		.uleb128 0x6
 4219 0f02 F4000000 		.4byte	.LVL50
 4220 0f06 0A1C0000 		.4byte	0x1c0a
 4221 0f0a 06       		.uleb128 0x6
 4222 0f0b F8000000 		.4byte	.LVL51
 4223 0f0f 0A1C0000 		.4byte	0x1c0a
 4224 0f13 06       		.uleb128 0x6
 4225 0f14 FC000000 		.4byte	.LVL52
 4226 0f18 0A1C0000 		.4byte	0x1c0a
 4227 0f1c 06       		.uleb128 0x6
 4228 0f1d 00010000 		.4byte	.LVL53
 4229 0f21 151C0000 		.4byte	0x1c15
ARM GAS  C:\Users\Misha\AppData\Local\Temp\ccDk3wxj.s 			page 91


 4230 0f25 06       		.uleb128 0x6
 4231 0f26 04010000 		.4byte	.LVL54
 4232 0f2a 201C0000 		.4byte	0x1c20
 4233 0f2e 08       		.uleb128 0x8
 4234 0f2f F8040000 		.4byte	.LVL151
 4235 0f33 AA1A0000 		.4byte	0x1aaa
 4236 0f37 5F0F0000 		.4byte	0xf5f
 4237 0f3b 09       		.uleb128 0x9
 4238 0f3c 01       		.uleb128 0x1
 4239 0f3d 50       		.byte	0x50
 4240 0f3e 02       		.uleb128 0x2
 4241 0f3f 08       		.byte	0x8
 4242 0f40 AF       		.byte	0xaf
 4243 0f41 09       		.uleb128 0x9
 4244 0f42 01       		.uleb128 0x1
 4245 0f43 51       		.byte	0x51
 4246 0f44 01       		.uleb128 0x1
 4247 0f45 30       		.byte	0x30
 4248 0f46 09       		.uleb128 0x9
 4249 0f47 01       		.uleb128 0x1
 4250 0f48 52       		.byte	0x52
 4251 0f49 01       		.uleb128 0x1
 4252 0f4a 35       		.byte	0x35
 4253 0f4b 09       		.uleb128 0x9
 4254 0f4c 01       		.uleb128 0x1
 4255 0f4d 53       		.byte	0x53
 4256 0f4e 01       		.uleb128 0x1
 4257 0f4f 30       		.byte	0x30
 4258 0f50 09       		.uleb128 0x9
 4259 0f51 02       		.uleb128 0x2
 4260 0f52 7D       		.byte	0x7d
 4261 0f53 00       		.sleb128 0
 4262 0f54 02       		.uleb128 0x2
 4263 0f55 75       		.byte	0x75
 4264 0f56 00       		.sleb128 0
 4265 0f57 09       		.uleb128 0x9
 4266 0f58 02       		.uleb128 0x2
 4267 0f59 7D       		.byte	0x7d
 4268 0f5a 04       		.sleb128 4
 4269 0f5b 02       		.uleb128 0x2
 4270 0f5c 74       		.byte	0x74
 4271 0f5d 00       		.sleb128 0
 4272 0f5e 00       		.byte	0
 4273 0f5f 08       		.uleb128 0x8
 4274 0f60 FE040000 		.4byte	.LVL152
 4275 0f64 9F1A0000 		.4byte	0x1a9f
 4276 0f68 720F0000 		.4byte	0xf72
 4277 0f6c 09       		.uleb128 0x9
 4278 0f6d 01       		.uleb128 0x1
 4279 0f6e 50       		.byte	0x50
 4280 0f6f 01       		.uleb128 0x1
 4281 0f70 37       		.byte	0x37
 4282 0f71 00       		.byte	0
 4283 0f72 08       		.uleb128 0x8
 4284 0f73 06050000 		.4byte	.LVL153
 4285 0f77 021B0000 		.4byte	0x1b02
 4286 0f7b 8B0F0000 		.4byte	0xf8b
ARM GAS  C:\Users\Misha\AppData\Local\Temp\ccDk3wxj.s 			page 92


 4287 0f7f 09       		.uleb128 0x9
 4288 0f80 01       		.uleb128 0x1
 4289 0f81 50       		.byte	0x50
 4290 0f82 01       		.uleb128 0x1
 4291 0f83 30       		.byte	0x30
 4292 0f84 09       		.uleb128 0x9
 4293 0f85 01       		.uleb128 0x1
 4294 0f86 51       		.byte	0x51
 4295 0f87 02       		.uleb128 0x2
 4296 0f88 75       		.byte	0x75
 4297 0f89 00       		.sleb128 0
 4298 0f8a 00       		.byte	0
 4299 0f8b 08       		.uleb128 0x8
 4300 0f8c 22050000 		.4byte	.LVL154
 4301 0f90 AA1A0000 		.4byte	0x1aaa
 4302 0f94 B70F0000 		.4byte	0xfb7
 4303 0f98 09       		.uleb128 0x9
 4304 0f99 01       		.uleb128 0x1
 4305 0f9a 51       		.byte	0x51
 4306 0f9b 02       		.uleb128 0x2
 4307 0f9c 74       		.byte	0x74
 4308 0f9d 00       		.sleb128 0
 4309 0f9e 09       		.uleb128 0x9
 4310 0f9f 01       		.uleb128 0x1
 4311 0fa0 52       		.byte	0x52
 4312 0fa1 01       		.uleb128 0x1
 4313 0fa2 34       		.byte	0x34
 4314 0fa3 09       		.uleb128 0x9
 4315 0fa4 01       		.uleb128 0x1
 4316 0fa5 53       		.byte	0x53
 4317 0fa6 01       		.uleb128 0x1
 4318 0fa7 30       		.byte	0x30
 4319 0fa8 09       		.uleb128 0x9
 4320 0fa9 02       		.uleb128 0x2
 4321 0faa 7D       		.byte	0x7d
 4322 0fab 00       		.sleb128 0
 4323 0fac 02       		.uleb128 0x2
 4324 0fad 75       		.byte	0x75
 4325 0fae 00       		.sleb128 0
 4326 0faf 09       		.uleb128 0x9
 4327 0fb0 02       		.uleb128 0x2
 4328 0fb1 7D       		.byte	0x7d
 4329 0fb2 04       		.sleb128 4
 4330 0fb3 02       		.uleb128 0x2
 4331 0fb4 74       		.byte	0x74
 4332 0fb5 00       		.sleb128 0
 4333 0fb6 00       		.byte	0
 4334 0fb7 08       		.uleb128 0x8
 4335 0fb8 28050000 		.4byte	.LVL155
 4336 0fbc 9F1A0000 		.4byte	0x1a9f
 4337 0fc0 CA0F0000 		.4byte	0xfca
 4338 0fc4 09       		.uleb128 0x9
 4339 0fc5 01       		.uleb128 0x1
 4340 0fc6 50       		.byte	0x50
 4341 0fc7 01       		.uleb128 0x1
 4342 0fc8 37       		.byte	0x37
 4343 0fc9 00       		.byte	0
ARM GAS  C:\Users\Misha\AppData\Local\Temp\ccDk3wxj.s 			page 93


 4344 0fca 08       		.uleb128 0x8
 4345 0fcb 30050000 		.4byte	.LVL156
 4346 0fcf 021B0000 		.4byte	0x1b02
 4347 0fd3 E30F0000 		.4byte	0xfe3
 4348 0fd7 09       		.uleb128 0x9
 4349 0fd8 01       		.uleb128 0x1
 4350 0fd9 50       		.byte	0x50
 4351 0fda 01       		.uleb128 0x1
 4352 0fdb 33       		.byte	0x33
 4353 0fdc 09       		.uleb128 0x9
 4354 0fdd 01       		.uleb128 0x1
 4355 0fde 51       		.byte	0x51
 4356 0fdf 02       		.uleb128 0x2
 4357 0fe0 75       		.byte	0x75
 4358 0fe1 00       		.sleb128 0
 4359 0fe2 00       		.byte	0
 4360 0fe3 08       		.uleb128 0x8
 4361 0fe4 36050000 		.4byte	.LVL157
 4362 0fe8 9F1A0000 		.4byte	0x1a9f
 4363 0fec F60F0000 		.4byte	0xff6
 4364 0ff0 09       		.uleb128 0x9
 4365 0ff1 01       		.uleb128 0x1
 4366 0ff2 50       		.byte	0x50
 4367 0ff3 01       		.uleb128 0x1
 4368 0ff4 38       		.byte	0x38
 4369 0ff5 00       		.byte	0
 4370 0ff6 08       		.uleb128 0x8
 4371 0ff7 46050000 		.4byte	.LVL158
 4372 0ffb AA1A0000 		.4byte	0x1aaa
 4373 0fff 28100000 		.4byte	0x1028
 4374 1003 09       		.uleb128 0x9
 4375 1004 01       		.uleb128 0x1
 4376 1005 50       		.byte	0x50
 4377 1006 02       		.uleb128 0x2
 4378 1007 08       		.byte	0x8
 4379 1008 96       		.byte	0x96
 4380 1009 09       		.uleb128 0x9
 4381 100a 01       		.uleb128 0x1
 4382 100b 51       		.byte	0x51
 4383 100c 02       		.uleb128 0x2
 4384 100d 74       		.byte	0x74
 4385 100e 00       		.sleb128 0
 4386 100f 09       		.uleb128 0x9
 4387 1010 01       		.uleb128 0x1
 4388 1011 52       		.byte	0x52
 4389 1012 01       		.uleb128 0x1
 4390 1013 34       		.byte	0x34
 4391 1014 09       		.uleb128 0x9
 4392 1015 01       		.uleb128 0x1
 4393 1016 53       		.byte	0x53
 4394 1017 01       		.uleb128 0x1
 4395 1018 35       		.byte	0x35
 4396 1019 09       		.uleb128 0x9
 4397 101a 02       		.uleb128 0x2
 4398 101b 7D       		.byte	0x7d
 4399 101c 00       		.sleb128 0
 4400 101d 02       		.uleb128 0x2
ARM GAS  C:\Users\Misha\AppData\Local\Temp\ccDk3wxj.s 			page 94


 4401 101e 75       		.byte	0x75
 4402 101f 00       		.sleb128 0
 4403 1020 09       		.uleb128 0x9
 4404 1021 02       		.uleb128 0x2
 4405 1022 7D       		.byte	0x7d
 4406 1023 04       		.sleb128 4
 4407 1024 02       		.uleb128 0x2
 4408 1025 74       		.byte	0x74
 4409 1026 00       		.sleb128 0
 4410 1027 00       		.byte	0
 4411 1028 08       		.uleb128 0x8
 4412 1029 9E050000 		.4byte	.LVL159
 4413 102d AA1A0000 		.4byte	0x1aaa
 4414 1031 58100000 		.4byte	0x1058
 4415 1035 09       		.uleb128 0x9
 4416 1036 01       		.uleb128 0x1
 4417 1037 50       		.byte	0x50
 4418 1038 01       		.uleb128 0x1
 4419 1039 3A       		.byte	0x3a
 4420 103a 09       		.uleb128 0x9
 4421 103b 01       		.uleb128 0x1
 4422 103c 51       		.byte	0x51
 4423 103d 01       		.uleb128 0x1
 4424 103e 30       		.byte	0x30
 4425 103f 09       		.uleb128 0x9
 4426 1040 01       		.uleb128 0x1
 4427 1041 52       		.byte	0x52
 4428 1042 01       		.uleb128 0x1
 4429 1043 34       		.byte	0x34
 4430 1044 09       		.uleb128 0x9
 4431 1045 01       		.uleb128 0x1
 4432 1046 53       		.byte	0x53
 4433 1047 01       		.uleb128 0x1
 4434 1048 34       		.byte	0x34
 4435 1049 09       		.uleb128 0x9
 4436 104a 02       		.uleb128 0x2
 4437 104b 7D       		.byte	0x7d
 4438 104c 00       		.sleb128 0
 4439 104d 02       		.uleb128 0x2
 4440 104e 75       		.byte	0x75
 4441 104f 00       		.sleb128 0
 4442 1050 09       		.uleb128 0x9
 4443 1051 02       		.uleb128 0x2
 4444 1052 7D       		.byte	0x7d
 4445 1053 04       		.sleb128 4
 4446 1054 02       		.uleb128 0x2
 4447 1055 74       		.byte	0x74
 4448 1056 00       		.sleb128 0
 4449 1057 00       		.byte	0
 4450 1058 08       		.uleb128 0x8
 4451 1059 A4050000 		.4byte	.LVL160
 4452 105d 9F1A0000 		.4byte	0x1a9f
 4453 1061 6B100000 		.4byte	0x106b
 4454 1065 09       		.uleb128 0x9
 4455 1066 01       		.uleb128 0x1
 4456 1067 50       		.byte	0x50
 4457 1068 01       		.uleb128 0x1
ARM GAS  C:\Users\Misha\AppData\Local\Temp\ccDk3wxj.s 			page 95


 4458 1069 37       		.byte	0x37
 4459 106a 00       		.byte	0
 4460 106b 08       		.uleb128 0x8
 4461 106c AC050000 		.4byte	.LVL161
 4462 1070 021B0000 		.4byte	0x1b02
 4463 1074 84100000 		.4byte	0x1084
 4464 1078 09       		.uleb128 0x9
 4465 1079 01       		.uleb128 0x1
 4466 107a 50       		.byte	0x50
 4467 107b 01       		.uleb128 0x1
 4468 107c 30       		.byte	0x30
 4469 107d 09       		.uleb128 0x9
 4470 107e 01       		.uleb128 0x1
 4471 107f 51       		.byte	0x51
 4472 1080 02       		.uleb128 0x2
 4473 1081 75       		.byte	0x75
 4474 1082 00       		.sleb128 0
 4475 1083 00       		.byte	0
 4476 1084 08       		.uleb128 0x8
 4477 1085 B2050000 		.4byte	.LVL162
 4478 1089 9F1A0000 		.4byte	0x1a9f
 4479 108d 97100000 		.4byte	0x1097
 4480 1091 09       		.uleb128 0x9
 4481 1092 01       		.uleb128 0x1
 4482 1093 50       		.byte	0x50
 4483 1094 01       		.uleb128 0x1
 4484 1095 37       		.byte	0x37
 4485 1096 00       		.byte	0
 4486 1097 08       		.uleb128 0x8
 4487 1098 CE050000 		.4byte	.LVL163
 4488 109c AA1A0000 		.4byte	0x1aaa
 4489 10a0 C3100000 		.4byte	0x10c3
 4490 10a4 09       		.uleb128 0x9
 4491 10a5 01       		.uleb128 0x1
 4492 10a6 51       		.byte	0x51
 4493 10a7 02       		.uleb128 0x2
 4494 10a8 74       		.byte	0x74
 4495 10a9 00       		.sleb128 0
 4496 10aa 09       		.uleb128 0x9
 4497 10ab 01       		.uleb128 0x1
 4498 10ac 52       		.byte	0x52
 4499 10ad 01       		.uleb128 0x1
 4500 10ae 34       		.byte	0x34
 4501 10af 09       		.uleb128 0x9
 4502 10b0 01       		.uleb128 0x1
 4503 10b1 53       		.byte	0x53
 4504 10b2 01       		.uleb128 0x1
 4505 10b3 30       		.byte	0x30
 4506 10b4 09       		.uleb128 0x9
 4507 10b5 02       		.uleb128 0x2
 4508 10b6 7D       		.byte	0x7d
 4509 10b7 00       		.sleb128 0
 4510 10b8 02       		.uleb128 0x2
 4511 10b9 75       		.byte	0x75
 4512 10ba 00       		.sleb128 0
 4513 10bb 09       		.uleb128 0x9
 4514 10bc 02       		.uleb128 0x2
ARM GAS  C:\Users\Misha\AppData\Local\Temp\ccDk3wxj.s 			page 96


 4515 10bd 7D       		.byte	0x7d
 4516 10be 04       		.sleb128 4
 4517 10bf 02       		.uleb128 0x2
 4518 10c0 74       		.byte	0x74
 4519 10c1 00       		.sleb128 0
 4520 10c2 00       		.byte	0
 4521 10c3 08       		.uleb128 0x8
 4522 10c4 D4050000 		.4byte	.LVL164
 4523 10c8 9F1A0000 		.4byte	0x1a9f
 4524 10cc D6100000 		.4byte	0x10d6
 4525 10d0 09       		.uleb128 0x9
 4526 10d1 01       		.uleb128 0x1
 4527 10d2 50       		.byte	0x50
 4528 10d3 01       		.uleb128 0x1
 4529 10d4 37       		.byte	0x37
 4530 10d5 00       		.byte	0
 4531 10d6 08       		.uleb128 0x8
 4532 10d7 DC050000 		.4byte	.LVL165
 4533 10db 021B0000 		.4byte	0x1b02
 4534 10df F0100000 		.4byte	0x10f0
 4535 10e3 09       		.uleb128 0x9
 4536 10e4 01       		.uleb128 0x1
 4537 10e5 50       		.byte	0x50
 4538 10e6 02       		.uleb128 0x2
 4539 10e7 74       		.byte	0x74
 4540 10e8 00       		.sleb128 0
 4541 10e9 09       		.uleb128 0x9
 4542 10ea 01       		.uleb128 0x1
 4543 10eb 51       		.byte	0x51
 4544 10ec 02       		.uleb128 0x2
 4545 10ed 75       		.byte	0x75
 4546 10ee 00       		.sleb128 0
 4547 10ef 00       		.byte	0
 4548 10f0 08       		.uleb128 0x8
 4549 10f1 E2050000 		.4byte	.LVL166
 4550 10f5 9F1A0000 		.4byte	0x1a9f
 4551 10f9 03110000 		.4byte	0x1103
 4552 10fd 09       		.uleb128 0x9
 4553 10fe 01       		.uleb128 0x1
 4554 10ff 50       		.byte	0x50
 4555 1100 01       		.uleb128 0x1
 4556 1101 38       		.byte	0x38
 4557 1102 00       		.byte	0
 4558 1103 08       		.uleb128 0x8
 4559 1104 F2050000 		.4byte	.LVL167
 4560 1108 AA1A0000 		.4byte	0x1aaa
 4561 110c 35110000 		.4byte	0x1135
 4562 1110 09       		.uleb128 0x9
 4563 1111 01       		.uleb128 0x1
 4564 1112 50       		.byte	0x50
 4565 1113 02       		.uleb128 0x2
 4566 1114 08       		.byte	0x8
 4567 1115 96       		.byte	0x96
 4568 1116 09       		.uleb128 0x9
 4569 1117 01       		.uleb128 0x1
 4570 1118 51       		.byte	0x51
 4571 1119 02       		.uleb128 0x2
ARM GAS  C:\Users\Misha\AppData\Local\Temp\ccDk3wxj.s 			page 97


 4572 111a 74       		.byte	0x74
 4573 111b 00       		.sleb128 0
 4574 111c 09       		.uleb128 0x9
 4575 111d 01       		.uleb128 0x1
 4576 111e 52       		.byte	0x52
 4577 111f 01       		.uleb128 0x1
 4578 1120 34       		.byte	0x34
 4579 1121 09       		.uleb128 0x9
 4580 1122 01       		.uleb128 0x1
 4581 1123 53       		.byte	0x53
 4582 1124 01       		.uleb128 0x1
 4583 1125 35       		.byte	0x35
 4584 1126 09       		.uleb128 0x9
 4585 1127 02       		.uleb128 0x2
 4586 1128 7D       		.byte	0x7d
 4587 1129 00       		.sleb128 0
 4588 112a 02       		.uleb128 0x2
 4589 112b 75       		.byte	0x75
 4590 112c 00       		.sleb128 0
 4591 112d 09       		.uleb128 0x9
 4592 112e 02       		.uleb128 0x2
 4593 112f 7D       		.byte	0x7d
 4594 1130 04       		.sleb128 4
 4595 1131 02       		.uleb128 0x2
 4596 1132 74       		.byte	0x74
 4597 1133 00       		.sleb128 0
 4598 1134 00       		.byte	0
 4599 1135 08       		.uleb128 0x8
 4600 1136 18060000 		.4byte	.LVL168
 4601 113a AA1A0000 		.4byte	0x1aaa
 4602 113e 60110000 		.4byte	0x1160
 4603 1142 09       		.uleb128 0x9
 4604 1143 01       		.uleb128 0x1
 4605 1144 51       		.byte	0x51
 4606 1145 01       		.uleb128 0x1
 4607 1146 30       		.byte	0x30
 4608 1147 09       		.uleb128 0x9
 4609 1148 01       		.uleb128 0x1
 4610 1149 52       		.byte	0x52
 4611 114a 01       		.uleb128 0x1
 4612 114b 35       		.byte	0x35
 4613 114c 09       		.uleb128 0x9
 4614 114d 01       		.uleb128 0x1
 4615 114e 53       		.byte	0x53
 4616 114f 01       		.uleb128 0x1
 4617 1150 30       		.byte	0x30
 4618 1151 09       		.uleb128 0x9
 4619 1152 02       		.uleb128 0x2
 4620 1153 7D       		.byte	0x7d
 4621 1154 00       		.sleb128 0
 4622 1155 02       		.uleb128 0x2
 4623 1156 75       		.byte	0x75
 4624 1157 00       		.sleb128 0
 4625 1158 09       		.uleb128 0x9
 4626 1159 02       		.uleb128 0x2
 4627 115a 7D       		.byte	0x7d
 4628 115b 04       		.sleb128 4
ARM GAS  C:\Users\Misha\AppData\Local\Temp\ccDk3wxj.s 			page 98


 4629 115c 02       		.uleb128 0x2
 4630 115d 74       		.byte	0x74
 4631 115e 00       		.sleb128 0
 4632 115f 00       		.byte	0
 4633 1160 08       		.uleb128 0x8
 4634 1161 1E060000 		.4byte	.LVL169
 4635 1165 9F1A0000 		.4byte	0x1a9f
 4636 1169 73110000 		.4byte	0x1173
 4637 116d 09       		.uleb128 0x9
 4638 116e 01       		.uleb128 0x1
 4639 116f 50       		.byte	0x50
 4640 1170 01       		.uleb128 0x1
 4641 1171 37       		.byte	0x37
 4642 1172 00       		.byte	0
 4643 1173 08       		.uleb128 0x8
 4644 1174 26060000 		.4byte	.LVL170
 4645 1178 021B0000 		.4byte	0x1b02
 4646 117c 8C110000 		.4byte	0x118c
 4647 1180 09       		.uleb128 0x9
 4648 1181 01       		.uleb128 0x1
 4649 1182 50       		.byte	0x50
 4650 1183 01       		.uleb128 0x1
 4651 1184 30       		.byte	0x30
 4652 1185 09       		.uleb128 0x9
 4653 1186 01       		.uleb128 0x1
 4654 1187 51       		.byte	0x51
 4655 1188 02       		.uleb128 0x2
 4656 1189 75       		.byte	0x75
 4657 118a 00       		.sleb128 0
 4658 118b 00       		.byte	0
 4659 118c 08       		.uleb128 0x8
 4660 118d 40060000 		.4byte	.LVL171
 4661 1191 AA1A0000 		.4byte	0x1aaa
 4662 1195 B8110000 		.4byte	0x11b8
 4663 1199 09       		.uleb128 0x9
 4664 119a 01       		.uleb128 0x1
 4665 119b 51       		.byte	0x51
 4666 119c 02       		.uleb128 0x2
 4667 119d 74       		.byte	0x74
 4668 119e 00       		.sleb128 0
 4669 119f 09       		.uleb128 0x9
 4670 11a0 01       		.uleb128 0x1
 4671 11a1 52       		.byte	0x52
 4672 11a2 01       		.uleb128 0x1
 4673 11a3 34       		.byte	0x34
 4674 11a4 09       		.uleb128 0x9
 4675 11a5 01       		.uleb128 0x1
 4676 11a6 53       		.byte	0x53
 4677 11a7 01       		.uleb128 0x1
 4678 11a8 30       		.byte	0x30
 4679 11a9 09       		.uleb128 0x9
 4680 11aa 02       		.uleb128 0x2
 4681 11ab 7D       		.byte	0x7d
 4682 11ac 00       		.sleb128 0
 4683 11ad 02       		.uleb128 0x2
 4684 11ae 75       		.byte	0x75
 4685 11af 00       		.sleb128 0
ARM GAS  C:\Users\Misha\AppData\Local\Temp\ccDk3wxj.s 			page 99


 4686 11b0 09       		.uleb128 0x9
 4687 11b1 02       		.uleb128 0x2
 4688 11b2 7D       		.byte	0x7d
 4689 11b3 04       		.sleb128 4
 4690 11b4 02       		.uleb128 0x2
 4691 11b5 74       		.byte	0x74
 4692 11b6 00       		.sleb128 0
 4693 11b7 00       		.byte	0
 4694 11b8 08       		.uleb128 0x8
 4695 11b9 46060000 		.4byte	.LVL172
 4696 11bd 9F1A0000 		.4byte	0x1a9f
 4697 11c1 CB110000 		.4byte	0x11cb
 4698 11c5 09       		.uleb128 0x9
 4699 11c6 01       		.uleb128 0x1
 4700 11c7 50       		.byte	0x50
 4701 11c8 01       		.uleb128 0x1
 4702 11c9 37       		.byte	0x37
 4703 11ca 00       		.byte	0
 4704 11cb 08       		.uleb128 0x8
 4705 11cc 4E060000 		.4byte	.LVL173
 4706 11d0 021B0000 		.4byte	0x1b02
 4707 11d4 E5110000 		.4byte	0x11e5
 4708 11d8 09       		.uleb128 0x9
 4709 11d9 01       		.uleb128 0x1
 4710 11da 50       		.byte	0x50
 4711 11db 02       		.uleb128 0x2
 4712 11dc 74       		.byte	0x74
 4713 11dd 00       		.sleb128 0
 4714 11de 09       		.uleb128 0x9
 4715 11df 01       		.uleb128 0x1
 4716 11e0 51       		.byte	0x51
 4717 11e1 02       		.uleb128 0x2
 4718 11e2 75       		.byte	0x75
 4719 11e3 00       		.sleb128 0
 4720 11e4 00       		.byte	0
 4721 11e5 08       		.uleb128 0x8
 4722 11e6 54060000 		.4byte	.LVL174
 4723 11ea 9F1A0000 		.4byte	0x1a9f
 4724 11ee F8110000 		.4byte	0x11f8
 4725 11f2 09       		.uleb128 0x9
 4726 11f3 01       		.uleb128 0x1
 4727 11f4 50       		.byte	0x50
 4728 11f5 01       		.uleb128 0x1
 4729 11f6 38       		.byte	0x38
 4730 11f7 00       		.byte	0
 4731 11f8 08       		.uleb128 0x8
 4732 11f9 64060000 		.4byte	.LVL175
 4733 11fd AA1A0000 		.4byte	0x1aaa
 4734 1201 2A120000 		.4byte	0x122a
 4735 1205 09       		.uleb128 0x9
 4736 1206 01       		.uleb128 0x1
 4737 1207 50       		.byte	0x50
 4738 1208 02       		.uleb128 0x2
 4739 1209 08       		.byte	0x8
 4740 120a 96       		.byte	0x96
 4741 120b 09       		.uleb128 0x9
 4742 120c 01       		.uleb128 0x1
ARM GAS  C:\Users\Misha\AppData\Local\Temp\ccDk3wxj.s 			page 100


 4743 120d 51       		.byte	0x51
 4744 120e 02       		.uleb128 0x2
 4745 120f 74       		.byte	0x74
 4746 1210 00       		.sleb128 0
 4747 1211 09       		.uleb128 0x9
 4748 1212 01       		.uleb128 0x1
 4749 1213 52       		.byte	0x52
 4750 1214 01       		.uleb128 0x1
 4751 1215 34       		.byte	0x34
 4752 1216 09       		.uleb128 0x9
 4753 1217 01       		.uleb128 0x1
 4754 1218 53       		.byte	0x53
 4755 1219 01       		.uleb128 0x1
 4756 121a 35       		.byte	0x35
 4757 121b 09       		.uleb128 0x9
 4758 121c 02       		.uleb128 0x2
 4759 121d 7D       		.byte	0x7d
 4760 121e 00       		.sleb128 0
 4761 121f 02       		.uleb128 0x2
 4762 1220 75       		.byte	0x75
 4763 1221 00       		.sleb128 0
 4764 1222 09       		.uleb128 0x9
 4765 1223 02       		.uleb128 0x2
 4766 1224 7D       		.byte	0x7d
 4767 1225 04       		.sleb128 4
 4768 1226 02       		.uleb128 0x2
 4769 1227 74       		.byte	0x74
 4770 1228 00       		.sleb128 0
 4771 1229 00       		.byte	0
 4772 122a 08       		.uleb128 0x8
 4773 122b 88060000 		.4byte	.LVL176
 4774 122f AA1A0000 		.4byte	0x1aaa
 4775 1233 55120000 		.4byte	0x1255
 4776 1237 09       		.uleb128 0x9
 4777 1238 01       		.uleb128 0x1
 4778 1239 51       		.byte	0x51
 4779 123a 01       		.uleb128 0x1
 4780 123b 30       		.byte	0x30
 4781 123c 09       		.uleb128 0x9
 4782 123d 01       		.uleb128 0x1
 4783 123e 52       		.byte	0x52
 4784 123f 01       		.uleb128 0x1
 4785 1240 35       		.byte	0x35
 4786 1241 09       		.uleb128 0x9
 4787 1242 01       		.uleb128 0x1
 4788 1243 53       		.byte	0x53
 4789 1244 01       		.uleb128 0x1
 4790 1245 30       		.byte	0x30
 4791 1246 09       		.uleb128 0x9
 4792 1247 02       		.uleb128 0x2
 4793 1248 7D       		.byte	0x7d
 4794 1249 00       		.sleb128 0
 4795 124a 02       		.uleb128 0x2
 4796 124b 75       		.byte	0x75
 4797 124c 00       		.sleb128 0
 4798 124d 09       		.uleb128 0x9
 4799 124e 02       		.uleb128 0x2
ARM GAS  C:\Users\Misha\AppData\Local\Temp\ccDk3wxj.s 			page 101


 4800 124f 7D       		.byte	0x7d
 4801 1250 04       		.sleb128 4
 4802 1251 02       		.uleb128 0x2
 4803 1252 74       		.byte	0x74
 4804 1253 00       		.sleb128 0
 4805 1254 00       		.byte	0
 4806 1255 08       		.uleb128 0x8
 4807 1256 8E060000 		.4byte	.LVL177
 4808 125a 9F1A0000 		.4byte	0x1a9f
 4809 125e 68120000 		.4byte	0x1268
 4810 1262 09       		.uleb128 0x9
 4811 1263 01       		.uleb128 0x1
 4812 1264 50       		.byte	0x50
 4813 1265 01       		.uleb128 0x1
 4814 1266 37       		.byte	0x37
 4815 1267 00       		.byte	0
 4816 1268 08       		.uleb128 0x8
 4817 1269 96060000 		.4byte	.LVL178
 4818 126d 021B0000 		.4byte	0x1b02
 4819 1271 81120000 		.4byte	0x1281
 4820 1275 09       		.uleb128 0x9
 4821 1276 01       		.uleb128 0x1
 4822 1277 50       		.byte	0x50
 4823 1278 01       		.uleb128 0x1
 4824 1279 30       		.byte	0x30
 4825 127a 09       		.uleb128 0x9
 4826 127b 01       		.uleb128 0x1
 4827 127c 51       		.byte	0x51
 4828 127d 02       		.uleb128 0x2
 4829 127e 75       		.byte	0x75
 4830 127f 00       		.sleb128 0
 4831 1280 00       		.byte	0
 4832 1281 08       		.uleb128 0x8
 4833 1282 B0060000 		.4byte	.LVL179
 4834 1286 AA1A0000 		.4byte	0x1aaa
 4835 128a AD120000 		.4byte	0x12ad
 4836 128e 09       		.uleb128 0x9
 4837 128f 01       		.uleb128 0x1
 4838 1290 51       		.byte	0x51
 4839 1291 02       		.uleb128 0x2
 4840 1292 74       		.byte	0x74
 4841 1293 00       		.sleb128 0
 4842 1294 09       		.uleb128 0x9
 4843 1295 01       		.uleb128 0x1
 4844 1296 52       		.byte	0x52
 4845 1297 01       		.uleb128 0x1
 4846 1298 34       		.byte	0x34
 4847 1299 09       		.uleb128 0x9
 4848 129a 01       		.uleb128 0x1
 4849 129b 53       		.byte	0x53
 4850 129c 01       		.uleb128 0x1
 4851 129d 30       		.byte	0x30
 4852 129e 09       		.uleb128 0x9
 4853 129f 02       		.uleb128 0x2
 4854 12a0 7D       		.byte	0x7d
 4855 12a1 00       		.sleb128 0
 4856 12a2 02       		.uleb128 0x2
ARM GAS  C:\Users\Misha\AppData\Local\Temp\ccDk3wxj.s 			page 102


 4857 12a3 75       		.byte	0x75
 4858 12a4 00       		.sleb128 0
 4859 12a5 09       		.uleb128 0x9
 4860 12a6 02       		.uleb128 0x2
 4861 12a7 7D       		.byte	0x7d
 4862 12a8 04       		.sleb128 4
 4863 12a9 02       		.uleb128 0x2
 4864 12aa 74       		.byte	0x74
 4865 12ab 00       		.sleb128 0
 4866 12ac 00       		.byte	0
 4867 12ad 08       		.uleb128 0x8
 4868 12ae B6060000 		.4byte	.LVL180
 4869 12b2 9F1A0000 		.4byte	0x1a9f
 4870 12b6 C0120000 		.4byte	0x12c0
 4871 12ba 09       		.uleb128 0x9
 4872 12bb 01       		.uleb128 0x1
 4873 12bc 50       		.byte	0x50
 4874 12bd 01       		.uleb128 0x1
 4875 12be 37       		.byte	0x37
 4876 12bf 00       		.byte	0
 4877 12c0 08       		.uleb128 0x8
 4878 12c1 BE060000 		.4byte	.LVL181
 4879 12c5 021B0000 		.4byte	0x1b02
 4880 12c9 D9120000 		.4byte	0x12d9
 4881 12cd 09       		.uleb128 0x9
 4882 12ce 01       		.uleb128 0x1
 4883 12cf 50       		.byte	0x50
 4884 12d0 01       		.uleb128 0x1
 4885 12d1 33       		.byte	0x33
 4886 12d2 09       		.uleb128 0x9
 4887 12d3 01       		.uleb128 0x1
 4888 12d4 51       		.byte	0x51
 4889 12d5 02       		.uleb128 0x2
 4890 12d6 75       		.byte	0x75
 4891 12d7 00       		.sleb128 0
 4892 12d8 00       		.byte	0
 4893 12d9 08       		.uleb128 0x8
 4894 12da C4060000 		.4byte	.LVL182
 4895 12de 9F1A0000 		.4byte	0x1a9f
 4896 12e2 EC120000 		.4byte	0x12ec
 4897 12e6 09       		.uleb128 0x9
 4898 12e7 01       		.uleb128 0x1
 4899 12e8 50       		.byte	0x50
 4900 12e9 01       		.uleb128 0x1
 4901 12ea 38       		.byte	0x38
 4902 12eb 00       		.byte	0
 4903 12ec 08       		.uleb128 0x8
 4904 12ed D4060000 		.4byte	.LVL183
 4905 12f1 AA1A0000 		.4byte	0x1aaa
 4906 12f5 1E130000 		.4byte	0x131e
 4907 12f9 09       		.uleb128 0x9
 4908 12fa 01       		.uleb128 0x1
 4909 12fb 50       		.byte	0x50
 4910 12fc 02       		.uleb128 0x2
 4911 12fd 08       		.byte	0x8
 4912 12fe 96       		.byte	0x96
 4913 12ff 09       		.uleb128 0x9
ARM GAS  C:\Users\Misha\AppData\Local\Temp\ccDk3wxj.s 			page 103


 4914 1300 01       		.uleb128 0x1
 4915 1301 51       		.byte	0x51
 4916 1302 02       		.uleb128 0x2
 4917 1303 74       		.byte	0x74
 4918 1304 00       		.sleb128 0
 4919 1305 09       		.uleb128 0x9
 4920 1306 01       		.uleb128 0x1
 4921 1307 52       		.byte	0x52
 4922 1308 01       		.uleb128 0x1
 4923 1309 34       		.byte	0x34
 4924 130a 09       		.uleb128 0x9
 4925 130b 01       		.uleb128 0x1
 4926 130c 53       		.byte	0x53
 4927 130d 01       		.uleb128 0x1
 4928 130e 35       		.byte	0x35
 4929 130f 09       		.uleb128 0x9
 4930 1310 02       		.uleb128 0x2
 4931 1311 7D       		.byte	0x7d
 4932 1312 00       		.sleb128 0
 4933 1313 02       		.uleb128 0x2
 4934 1314 75       		.byte	0x75
 4935 1315 00       		.sleb128 0
 4936 1316 09       		.uleb128 0x9
 4937 1317 02       		.uleb128 0x2
 4938 1318 7D       		.byte	0x7d
 4939 1319 04       		.sleb128 4
 4940 131a 02       		.uleb128 0x2
 4941 131b 74       		.byte	0x74
 4942 131c 00       		.sleb128 0
 4943 131d 00       		.byte	0
 4944 131e 08       		.uleb128 0x8
 4945 131f 42070000 		.4byte	.LVL191
 4946 1323 AA1A0000 		.4byte	0x1aaa
 4947 1327 4F130000 		.4byte	0x134f
 4948 132b 09       		.uleb128 0x9
 4949 132c 01       		.uleb128 0x1
 4950 132d 50       		.byte	0x50
 4951 132e 02       		.uleb128 0x2
 4952 132f 08       		.byte	0x8
 4953 1330 32       		.byte	0x32
 4954 1331 09       		.uleb128 0x9
 4955 1332 01       		.uleb128 0x1
 4956 1333 51       		.byte	0x51
 4957 1334 01       		.uleb128 0x1
 4958 1335 30       		.byte	0x30
 4959 1336 09       		.uleb128 0x9
 4960 1337 01       		.uleb128 0x1
 4961 1338 52       		.byte	0x52
 4962 1339 01       		.uleb128 0x1
 4963 133a 34       		.byte	0x34
 4964 133b 09       		.uleb128 0x9
 4965 133c 01       		.uleb128 0x1
 4966 133d 53       		.byte	0x53
 4967 133e 01       		.uleb128 0x1
 4968 133f 34       		.byte	0x34
 4969 1340 09       		.uleb128 0x9
 4970 1341 02       		.uleb128 0x2
ARM GAS  C:\Users\Misha\AppData\Local\Temp\ccDk3wxj.s 			page 104


 4971 1342 7D       		.byte	0x7d
 4972 1343 00       		.sleb128 0
 4973 1344 02       		.uleb128 0x2
 4974 1345 75       		.byte	0x75
 4975 1346 00       		.sleb128 0
 4976 1347 09       		.uleb128 0x9
 4977 1348 02       		.uleb128 0x2
 4978 1349 7D       		.byte	0x7d
 4979 134a 04       		.sleb128 4
 4980 134b 02       		.uleb128 0x2
 4981 134c 74       		.byte	0x74
 4982 134d 00       		.sleb128 0
 4983 134e 00       		.byte	0
 4984 134f 08       		.uleb128 0x8
 4985 1350 4A070000 		.4byte	.LVL192
 4986 1354 021B0000 		.4byte	0x1b02
 4987 1358 68130000 		.4byte	0x1368
 4988 135c 09       		.uleb128 0x9
 4989 135d 01       		.uleb128 0x1
 4990 135e 50       		.byte	0x50
 4991 135f 01       		.uleb128 0x1
 4992 1360 30       		.byte	0x30
 4993 1361 09       		.uleb128 0x9
 4994 1362 01       		.uleb128 0x1
 4995 1363 51       		.byte	0x51
 4996 1364 02       		.uleb128 0x2
 4997 1365 75       		.byte	0x75
 4998 1366 00       		.sleb128 0
 4999 1367 00       		.byte	0
 5000 1368 08       		.uleb128 0x8
 5001 1369 50070000 		.4byte	.LVL193
 5002 136d 9F1A0000 		.4byte	0x1a9f
 5003 1371 7B130000 		.4byte	0x137b
 5004 1375 09       		.uleb128 0x9
 5005 1376 01       		.uleb128 0x1
 5006 1377 50       		.byte	0x50
 5007 1378 01       		.uleb128 0x1
 5008 1379 37       		.byte	0x37
 5009 137a 00       		.byte	0
 5010 137b 08       		.uleb128 0x8
 5011 137c 60070000 		.4byte	.LVL194
 5012 1380 AA1A0000 		.4byte	0x1aaa
 5013 1384 AC130000 		.4byte	0x13ac
 5014 1388 09       		.uleb128 0x9
 5015 1389 01       		.uleb128 0x1
 5016 138a 50       		.byte	0x50
 5017 138b 02       		.uleb128 0x2
 5018 138c 08       		.byte	0x8
 5019 138d 64       		.byte	0x64
 5020 138e 09       		.uleb128 0x9
 5021 138f 01       		.uleb128 0x1
 5022 1390 51       		.byte	0x51
 5023 1391 01       		.uleb128 0x1
 5024 1392 30       		.byte	0x30
 5025 1393 09       		.uleb128 0x9
 5026 1394 01       		.uleb128 0x1
 5027 1395 52       		.byte	0x52
ARM GAS  C:\Users\Misha\AppData\Local\Temp\ccDk3wxj.s 			page 105


 5028 1396 01       		.uleb128 0x1
 5029 1397 34       		.byte	0x34
 5030 1398 09       		.uleb128 0x9
 5031 1399 01       		.uleb128 0x1
 5032 139a 53       		.byte	0x53
 5033 139b 01       		.uleb128 0x1
 5034 139c 34       		.byte	0x34
 5035 139d 09       		.uleb128 0x9
 5036 139e 02       		.uleb128 0x2
 5037 139f 7D       		.byte	0x7d
 5038 13a0 00       		.sleb128 0
 5039 13a1 02       		.uleb128 0x2
 5040 13a2 75       		.byte	0x75
 5041 13a3 00       		.sleb128 0
 5042 13a4 09       		.uleb128 0x9
 5043 13a5 02       		.uleb128 0x2
 5044 13a6 7D       		.byte	0x7d
 5045 13a7 04       		.sleb128 4
 5046 13a8 02       		.uleb128 0x2
 5047 13a9 74       		.byte	0x74
 5048 13aa 00       		.sleb128 0
 5049 13ab 00       		.byte	0
 5050 13ac 08       		.uleb128 0x8
 5051 13ad 68070000 		.4byte	.LVL195
 5052 13b1 021B0000 		.4byte	0x1b02
 5053 13b5 C6130000 		.4byte	0x13c6
 5054 13b9 09       		.uleb128 0x9
 5055 13ba 01       		.uleb128 0x1
 5056 13bb 50       		.byte	0x50
 5057 13bc 02       		.uleb128 0x2
 5058 13bd 74       		.byte	0x74
 5059 13be 00       		.sleb128 0
 5060 13bf 09       		.uleb128 0x9
 5061 13c0 01       		.uleb128 0x1
 5062 13c1 51       		.byte	0x51
 5063 13c2 02       		.uleb128 0x2
 5064 13c3 75       		.byte	0x75
 5065 13c4 00       		.sleb128 0
 5066 13c5 00       		.byte	0
 5067 13c6 08       		.uleb128 0x8
 5068 13c7 6E070000 		.4byte	.LVL196
 5069 13cb 9F1A0000 		.4byte	0x1a9f
 5070 13cf D9130000 		.4byte	0x13d9
 5071 13d3 09       		.uleb128 0x9
 5072 13d4 01       		.uleb128 0x1
 5073 13d5 50       		.byte	0x50
 5074 13d6 01       		.uleb128 0x1
 5075 13d7 37       		.byte	0x37
 5076 13d8 00       		.byte	0
 5077 13d9 08       		.uleb128 0x8
 5078 13da 7E070000 		.4byte	.LVL197
 5079 13de AA1A0000 		.4byte	0x1aaa
 5080 13e2 0B140000 		.4byte	0x140b
 5081 13e6 09       		.uleb128 0x9
 5082 13e7 01       		.uleb128 0x1
 5083 13e8 50       		.byte	0x50
 5084 13e9 02       		.uleb128 0x2
ARM GAS  C:\Users\Misha\AppData\Local\Temp\ccDk3wxj.s 			page 106


 5085 13ea 08       		.byte	0x8
 5086 13eb AF       		.byte	0xaf
 5087 13ec 09       		.uleb128 0x9
 5088 13ed 01       		.uleb128 0x1
 5089 13ee 51       		.byte	0x51
 5090 13ef 02       		.uleb128 0x2
 5091 13f0 74       		.byte	0x74
 5092 13f1 00       		.sleb128 0
 5093 13f2 09       		.uleb128 0x9
 5094 13f3 01       		.uleb128 0x1
 5095 13f4 52       		.byte	0x52
 5096 13f5 01       		.uleb128 0x1
 5097 13f6 34       		.byte	0x34
 5098 13f7 09       		.uleb128 0x9
 5099 13f8 01       		.uleb128 0x1
 5100 13f9 53       		.byte	0x53
 5101 13fa 01       		.uleb128 0x1
 5102 13fb 30       		.byte	0x30
 5103 13fc 09       		.uleb128 0x9
 5104 13fd 02       		.uleb128 0x2
 5105 13fe 7D       		.byte	0x7d
 5106 13ff 00       		.sleb128 0
 5107 1400 02       		.uleb128 0x2
 5108 1401 75       		.byte	0x75
 5109 1402 00       		.sleb128 0
 5110 1403 09       		.uleb128 0x9
 5111 1404 02       		.uleb128 0x2
 5112 1405 7D       		.byte	0x7d
 5113 1406 04       		.sleb128 4
 5114 1407 02       		.uleb128 0x2
 5115 1408 74       		.byte	0x74
 5116 1409 00       		.sleb128 0
 5117 140a 00       		.byte	0
 5118 140b 08       		.uleb128 0x8
 5119 140c 84070000 		.4byte	.LVL198
 5120 1410 9F1A0000 		.4byte	0x1a9f
 5121 1414 1E140000 		.4byte	0x141e
 5122 1418 09       		.uleb128 0x9
 5123 1419 01       		.uleb128 0x1
 5124 141a 50       		.byte	0x50
 5125 141b 01       		.uleb128 0x1
 5126 141c 37       		.byte	0x37
 5127 141d 00       		.byte	0
 5128 141e 08       		.uleb128 0x8
 5129 141f AA070000 		.4byte	.LVL199
 5130 1423 AA1A0000 		.4byte	0x1aaa
 5131 1427 4E140000 		.4byte	0x144e
 5132 142b 09       		.uleb128 0x9
 5133 142c 01       		.uleb128 0x1
 5134 142d 50       		.byte	0x50
 5135 142e 01       		.uleb128 0x1
 5136 142f 3A       		.byte	0x3a
 5137 1430 09       		.uleb128 0x9
 5138 1431 01       		.uleb128 0x1
 5139 1432 51       		.byte	0x51
 5140 1433 01       		.uleb128 0x1
 5141 1434 30       		.byte	0x30
ARM GAS  C:\Users\Misha\AppData\Local\Temp\ccDk3wxj.s 			page 107


 5142 1435 09       		.uleb128 0x9
 5143 1436 01       		.uleb128 0x1
 5144 1437 52       		.byte	0x52
 5145 1438 01       		.uleb128 0x1
 5146 1439 34       		.byte	0x34
 5147 143a 09       		.uleb128 0x9
 5148 143b 01       		.uleb128 0x1
 5149 143c 53       		.byte	0x53
 5150 143d 01       		.uleb128 0x1
 5151 143e 34       		.byte	0x34
 5152 143f 09       		.uleb128 0x9
 5153 1440 02       		.uleb128 0x2
 5154 1441 7D       		.byte	0x7d
 5155 1442 00       		.sleb128 0
 5156 1443 02       		.uleb128 0x2
 5157 1444 75       		.byte	0x75
 5158 1445 00       		.sleb128 0
 5159 1446 09       		.uleb128 0x9
 5160 1447 02       		.uleb128 0x2
 5161 1448 7D       		.byte	0x7d
 5162 1449 04       		.sleb128 4
 5163 144a 02       		.uleb128 0x2
 5164 144b 74       		.byte	0x74
 5165 144c 00       		.sleb128 0
 5166 144d 00       		.byte	0
 5167 144e 08       		.uleb128 0x8
 5168 144f B2070000 		.4byte	.LVL200
 5169 1453 021B0000 		.4byte	0x1b02
 5170 1457 67140000 		.4byte	0x1467
 5171 145b 09       		.uleb128 0x9
 5172 145c 01       		.uleb128 0x1
 5173 145d 50       		.byte	0x50
 5174 145e 01       		.uleb128 0x1
 5175 145f 30       		.byte	0x30
 5176 1460 09       		.uleb128 0x9
 5177 1461 01       		.uleb128 0x1
 5178 1462 51       		.byte	0x51
 5179 1463 02       		.uleb128 0x2
 5180 1464 75       		.byte	0x75
 5181 1465 00       		.sleb128 0
 5182 1466 00       		.byte	0
 5183 1467 08       		.uleb128 0x8
 5184 1468 B8070000 		.4byte	.LVL201
 5185 146c 9F1A0000 		.4byte	0x1a9f
 5186 1470 7A140000 		.4byte	0x147a
 5187 1474 09       		.uleb128 0x9
 5188 1475 01       		.uleb128 0x1
 5189 1476 50       		.byte	0x50
 5190 1477 01       		.uleb128 0x1
 5191 1478 37       		.byte	0x37
 5192 1479 00       		.byte	0
 5193 147a 08       		.uleb128 0x8
 5194 147b C8070000 		.4byte	.LVL202
 5195 147f AA1A0000 		.4byte	0x1aaa
 5196 1483 AB140000 		.4byte	0x14ab
 5197 1487 09       		.uleb128 0x9
 5198 1488 01       		.uleb128 0x1
ARM GAS  C:\Users\Misha\AppData\Local\Temp\ccDk3wxj.s 			page 108


 5199 1489 50       		.byte	0x50
 5200 148a 02       		.uleb128 0x2
 5201 148b 08       		.byte	0x8
 5202 148c 64       		.byte	0x64
 5203 148d 09       		.uleb128 0x9
 5204 148e 01       		.uleb128 0x1
 5205 148f 51       		.byte	0x51
 5206 1490 01       		.uleb128 0x1
 5207 1491 30       		.byte	0x30
 5208 1492 09       		.uleb128 0x9
 5209 1493 01       		.uleb128 0x1
 5210 1494 52       		.byte	0x52
 5211 1495 01       		.uleb128 0x1
 5212 1496 34       		.byte	0x34
 5213 1497 09       		.uleb128 0x9
 5214 1498 01       		.uleb128 0x1
 5215 1499 53       		.byte	0x53
 5216 149a 01       		.uleb128 0x1
 5217 149b 34       		.byte	0x34
 5218 149c 09       		.uleb128 0x9
 5219 149d 02       		.uleb128 0x2
 5220 149e 7D       		.byte	0x7d
 5221 149f 00       		.sleb128 0
 5222 14a0 02       		.uleb128 0x2
 5223 14a1 75       		.byte	0x75
 5224 14a2 00       		.sleb128 0
 5225 14a3 09       		.uleb128 0x9
 5226 14a4 02       		.uleb128 0x2
 5227 14a5 7D       		.byte	0x7d
 5228 14a6 04       		.sleb128 4
 5229 14a7 02       		.uleb128 0x2
 5230 14a8 74       		.byte	0x74
 5231 14a9 00       		.sleb128 0
 5232 14aa 00       		.byte	0
 5233 14ab 08       		.uleb128 0x8
 5234 14ac D0070000 		.4byte	.LVL203
 5235 14b0 021B0000 		.4byte	0x1b02
 5236 14b4 C5140000 		.4byte	0x14c5
 5237 14b8 09       		.uleb128 0x9
 5238 14b9 01       		.uleb128 0x1
 5239 14ba 50       		.byte	0x50
 5240 14bb 02       		.uleb128 0x2
 5241 14bc 74       		.byte	0x74
 5242 14bd 00       		.sleb128 0
 5243 14be 09       		.uleb128 0x9
 5244 14bf 01       		.uleb128 0x1
 5245 14c0 51       		.byte	0x51
 5246 14c1 02       		.uleb128 0x2
 5247 14c2 75       		.byte	0x75
 5248 14c3 00       		.sleb128 0
 5249 14c4 00       		.byte	0
 5250 14c5 08       		.uleb128 0x8
 5251 14c6 D6070000 		.4byte	.LVL204
 5252 14ca 9F1A0000 		.4byte	0x1a9f
 5253 14ce D8140000 		.4byte	0x14d8
 5254 14d2 09       		.uleb128 0x9
 5255 14d3 01       		.uleb128 0x1
ARM GAS  C:\Users\Misha\AppData\Local\Temp\ccDk3wxj.s 			page 109


 5256 14d4 50       		.byte	0x50
 5257 14d5 01       		.uleb128 0x1
 5258 14d6 37       		.byte	0x37
 5259 14d7 00       		.byte	0
 5260 14d8 08       		.uleb128 0x8
 5261 14d9 E6070000 		.4byte	.LVL205
 5262 14dd AA1A0000 		.4byte	0x1aaa
 5263 14e1 0A150000 		.4byte	0x150a
 5264 14e5 09       		.uleb128 0x9
 5265 14e6 01       		.uleb128 0x1
 5266 14e7 50       		.byte	0x50
 5267 14e8 02       		.uleb128 0x2
 5268 14e9 08       		.byte	0x8
 5269 14ea AF       		.byte	0xaf
 5270 14eb 09       		.uleb128 0x9
 5271 14ec 01       		.uleb128 0x1
 5272 14ed 51       		.byte	0x51
 5273 14ee 02       		.uleb128 0x2
 5274 14ef 74       		.byte	0x74
 5275 14f0 00       		.sleb128 0
 5276 14f1 09       		.uleb128 0x9
 5277 14f2 01       		.uleb128 0x1
 5278 14f3 52       		.byte	0x52
 5279 14f4 01       		.uleb128 0x1
 5280 14f5 34       		.byte	0x34
 5281 14f6 09       		.uleb128 0x9
 5282 14f7 01       		.uleb128 0x1
 5283 14f8 53       		.byte	0x53
 5284 14f9 01       		.uleb128 0x1
 5285 14fa 30       		.byte	0x30
 5286 14fb 09       		.uleb128 0x9
 5287 14fc 02       		.uleb128 0x2
 5288 14fd 7D       		.byte	0x7d
 5289 14fe 00       		.sleb128 0
 5290 14ff 02       		.uleb128 0x2
 5291 1500 75       		.byte	0x75
 5292 1501 00       		.sleb128 0
 5293 1502 09       		.uleb128 0x9
 5294 1503 02       		.uleb128 0x2
 5295 1504 7D       		.byte	0x7d
 5296 1505 04       		.sleb128 4
 5297 1506 02       		.uleb128 0x2
 5298 1507 74       		.byte	0x74
 5299 1508 00       		.sleb128 0
 5300 1509 00       		.byte	0
 5301 150a 08       		.uleb128 0x8
 5302 150b EC070000 		.4byte	.LVL206
 5303 150f 9F1A0000 		.4byte	0x1a9f
 5304 1513 1D150000 		.4byte	0x151d
 5305 1517 09       		.uleb128 0x9
 5306 1518 01       		.uleb128 0x1
 5307 1519 50       		.byte	0x50
 5308 151a 01       		.uleb128 0x1
 5309 151b 37       		.byte	0x37
 5310 151c 00       		.byte	0
 5311 151d 08       		.uleb128 0x8
 5312 151e 14080000 		.4byte	.LVL207
ARM GAS  C:\Users\Misha\AppData\Local\Temp\ccDk3wxj.s 			page 110


 5313 1522 AA1A0000 		.4byte	0x1aaa
 5314 1526 48150000 		.4byte	0x1548
 5315 152a 09       		.uleb128 0x9
 5316 152b 01       		.uleb128 0x1
 5317 152c 51       		.byte	0x51
 5318 152d 01       		.uleb128 0x1
 5319 152e 30       		.byte	0x30
 5320 152f 09       		.uleb128 0x9
 5321 1530 01       		.uleb128 0x1
 5322 1531 52       		.byte	0x52
 5323 1532 01       		.uleb128 0x1
 5324 1533 34       		.byte	0x34
 5325 1534 09       		.uleb128 0x9
 5326 1535 01       		.uleb128 0x1
 5327 1536 53       		.byte	0x53
 5328 1537 01       		.uleb128 0x1
 5329 1538 34       		.byte	0x34
 5330 1539 09       		.uleb128 0x9
 5331 153a 02       		.uleb128 0x2
 5332 153b 7D       		.byte	0x7d
 5333 153c 00       		.sleb128 0
 5334 153d 02       		.uleb128 0x2
 5335 153e 75       		.byte	0x75
 5336 153f 00       		.sleb128 0
 5337 1540 09       		.uleb128 0x9
 5338 1541 02       		.uleb128 0x2
 5339 1542 7D       		.byte	0x7d
 5340 1543 04       		.sleb128 4
 5341 1544 02       		.uleb128 0x2
 5342 1545 74       		.byte	0x74
 5343 1546 00       		.sleb128 0
 5344 1547 00       		.byte	0
 5345 1548 08       		.uleb128 0x8
 5346 1549 1C080000 		.4byte	.LVL208
 5347 154d 021B0000 		.4byte	0x1b02
 5348 1551 61150000 		.4byte	0x1561
 5349 1555 09       		.uleb128 0x9
 5350 1556 01       		.uleb128 0x1
 5351 1557 50       		.byte	0x50
 5352 1558 01       		.uleb128 0x1
 5353 1559 30       		.byte	0x30
 5354 155a 09       		.uleb128 0x9
 5355 155b 01       		.uleb128 0x1
 5356 155c 51       		.byte	0x51
 5357 155d 02       		.uleb128 0x2
 5358 155e 75       		.byte	0x75
 5359 155f 00       		.sleb128 0
 5360 1560 00       		.byte	0
 5361 1561 08       		.uleb128 0x8
 5362 1562 22080000 		.4byte	.LVL209
 5363 1566 9F1A0000 		.4byte	0x1a9f
 5364 156a 74150000 		.4byte	0x1574
 5365 156e 09       		.uleb128 0x9
 5366 156f 01       		.uleb128 0x1
 5367 1570 50       		.byte	0x50
 5368 1571 01       		.uleb128 0x1
 5369 1572 37       		.byte	0x37
ARM GAS  C:\Users\Misha\AppData\Local\Temp\ccDk3wxj.s 			page 111


 5370 1573 00       		.byte	0
 5371 1574 08       		.uleb128 0x8
 5372 1575 32080000 		.4byte	.LVL210
 5373 1579 AA1A0000 		.4byte	0x1aaa
 5374 157d A5150000 		.4byte	0x15a5
 5375 1581 09       		.uleb128 0x9
 5376 1582 01       		.uleb128 0x1
 5377 1583 50       		.byte	0x50
 5378 1584 02       		.uleb128 0x2
 5379 1585 08       		.byte	0x8
 5380 1586 64       		.byte	0x64
 5381 1587 09       		.uleb128 0x9
 5382 1588 01       		.uleb128 0x1
 5383 1589 51       		.byte	0x51
 5384 158a 01       		.uleb128 0x1
 5385 158b 30       		.byte	0x30
 5386 158c 09       		.uleb128 0x9
 5387 158d 01       		.uleb128 0x1
 5388 158e 52       		.byte	0x52
 5389 158f 01       		.uleb128 0x1
 5390 1590 34       		.byte	0x34
 5391 1591 09       		.uleb128 0x9
 5392 1592 01       		.uleb128 0x1
 5393 1593 53       		.byte	0x53
 5394 1594 01       		.uleb128 0x1
 5395 1595 34       		.byte	0x34
 5396 1596 09       		.uleb128 0x9
 5397 1597 02       		.uleb128 0x2
 5398 1598 7D       		.byte	0x7d
 5399 1599 00       		.sleb128 0
 5400 159a 02       		.uleb128 0x2
 5401 159b 75       		.byte	0x75
 5402 159c 00       		.sleb128 0
 5403 159d 09       		.uleb128 0x9
 5404 159e 02       		.uleb128 0x2
 5405 159f 7D       		.byte	0x7d
 5406 15a0 04       		.sleb128 4
 5407 15a1 02       		.uleb128 0x2
 5408 15a2 74       		.byte	0x74
 5409 15a3 00       		.sleb128 0
 5410 15a4 00       		.byte	0
 5411 15a5 08       		.uleb128 0x8
 5412 15a6 3A080000 		.4byte	.LVL211
 5413 15aa 021B0000 		.4byte	0x1b02
 5414 15ae BF150000 		.4byte	0x15bf
 5415 15b2 09       		.uleb128 0x9
 5416 15b3 01       		.uleb128 0x1
 5417 15b4 50       		.byte	0x50
 5418 15b5 02       		.uleb128 0x2
 5419 15b6 74       		.byte	0x74
 5420 15b7 00       		.sleb128 0
 5421 15b8 09       		.uleb128 0x9
 5422 15b9 01       		.uleb128 0x1
 5423 15ba 51       		.byte	0x51
 5424 15bb 02       		.uleb128 0x2
 5425 15bc 75       		.byte	0x75
 5426 15bd 00       		.sleb128 0
ARM GAS  C:\Users\Misha\AppData\Local\Temp\ccDk3wxj.s 			page 112


 5427 15be 00       		.byte	0
 5428 15bf 08       		.uleb128 0x8
 5429 15c0 4A080000 		.4byte	.LVL212
 5430 15c4 AA1A0000 		.4byte	0x1aaa
 5431 15c8 F1150000 		.4byte	0x15f1
 5432 15cc 09       		.uleb128 0x9
 5433 15cd 01       		.uleb128 0x1
 5434 15ce 50       		.byte	0x50
 5435 15cf 02       		.uleb128 0x2
 5436 15d0 08       		.byte	0x8
 5437 15d1 AF       		.byte	0xaf
 5438 15d2 09       		.uleb128 0x9
 5439 15d3 01       		.uleb128 0x1
 5440 15d4 51       		.byte	0x51
 5441 15d5 02       		.uleb128 0x2
 5442 15d6 74       		.byte	0x74
 5443 15d7 00       		.sleb128 0
 5444 15d8 09       		.uleb128 0x9
 5445 15d9 01       		.uleb128 0x1
 5446 15da 52       		.byte	0x52
 5447 15db 01       		.uleb128 0x1
 5448 15dc 34       		.byte	0x34
 5449 15dd 09       		.uleb128 0x9
 5450 15de 01       		.uleb128 0x1
 5451 15df 53       		.byte	0x53
 5452 15e0 01       		.uleb128 0x1
 5453 15e1 30       		.byte	0x30
 5454 15e2 09       		.uleb128 0x9
 5455 15e3 02       		.uleb128 0x2
 5456 15e4 7D       		.byte	0x7d
 5457 15e5 00       		.sleb128 0
 5458 15e6 02       		.uleb128 0x2
 5459 15e7 75       		.byte	0x75
 5460 15e8 00       		.sleb128 0
 5461 15e9 09       		.uleb128 0x9
 5462 15ea 02       		.uleb128 0x2
 5463 15eb 7D       		.byte	0x7d
 5464 15ec 04       		.sleb128 4
 5465 15ed 02       		.uleb128 0x2
 5466 15ee 74       		.byte	0x74
 5467 15ef 00       		.sleb128 0
 5468 15f0 00       		.byte	0
 5469 15f1 08       		.uleb128 0x8
 5470 15f2 76080000 		.4byte	.LVL213
 5471 15f6 AA1A0000 		.4byte	0x1aaa
 5472 15fa 1C160000 		.4byte	0x161c
 5473 15fe 09       		.uleb128 0x9
 5474 15ff 01       		.uleb128 0x1
 5475 1600 51       		.byte	0x51
 5476 1601 01       		.uleb128 0x1
 5477 1602 30       		.byte	0x30
 5478 1603 09       		.uleb128 0x9
 5479 1604 01       		.uleb128 0x1
 5480 1605 52       		.byte	0x52
 5481 1606 01       		.uleb128 0x1
 5482 1607 35       		.byte	0x35
 5483 1608 09       		.uleb128 0x9
ARM GAS  C:\Users\Misha\AppData\Local\Temp\ccDk3wxj.s 			page 113


 5484 1609 01       		.uleb128 0x1
 5485 160a 53       		.byte	0x53
 5486 160b 01       		.uleb128 0x1
 5487 160c 30       		.byte	0x30
 5488 160d 09       		.uleb128 0x9
 5489 160e 02       		.uleb128 0x2
 5490 160f 7D       		.byte	0x7d
 5491 1610 00       		.sleb128 0
 5492 1611 02       		.uleb128 0x2
 5493 1612 75       		.byte	0x75
 5494 1613 00       		.sleb128 0
 5495 1614 09       		.uleb128 0x9
 5496 1615 02       		.uleb128 0x2
 5497 1616 7D       		.byte	0x7d
 5498 1617 04       		.sleb128 4
 5499 1618 02       		.uleb128 0x2
 5500 1619 74       		.byte	0x74
 5501 161a 00       		.sleb128 0
 5502 161b 00       		.byte	0
 5503 161c 08       		.uleb128 0x8
 5504 161d 7E080000 		.4byte	.LVL214
 5505 1621 021B0000 		.4byte	0x1b02
 5506 1625 35160000 		.4byte	0x1635
 5507 1629 09       		.uleb128 0x9
 5508 162a 01       		.uleb128 0x1
 5509 162b 50       		.byte	0x50
 5510 162c 01       		.uleb128 0x1
 5511 162d 30       		.byte	0x30
 5512 162e 09       		.uleb128 0x9
 5513 162f 01       		.uleb128 0x1
 5514 1630 51       		.byte	0x51
 5515 1631 02       		.uleb128 0x2
 5516 1632 75       		.byte	0x75
 5517 1633 00       		.sleb128 0
 5518 1634 00       		.byte	0
 5519 1635 08       		.uleb128 0x8
 5520 1636 84080000 		.4byte	.LVL215
 5521 163a 9F1A0000 		.4byte	0x1a9f
 5522 163e 48160000 		.4byte	0x1648
 5523 1642 09       		.uleb128 0x9
 5524 1643 01       		.uleb128 0x1
 5525 1644 50       		.byte	0x50
 5526 1645 01       		.uleb128 0x1
 5527 1646 37       		.byte	0x37
 5528 1647 00       		.byte	0
 5529 1648 08       		.uleb128 0x8
 5530 1649 94080000 		.4byte	.LVL216
 5531 164d AA1A0000 		.4byte	0x1aaa
 5532 1651 79160000 		.4byte	0x1679
 5533 1655 09       		.uleb128 0x9
 5534 1656 01       		.uleb128 0x1
 5535 1657 50       		.byte	0x50
 5536 1658 02       		.uleb128 0x2
 5537 1659 08       		.byte	0x8
 5538 165a 64       		.byte	0x64
 5539 165b 09       		.uleb128 0x9
 5540 165c 01       		.uleb128 0x1
ARM GAS  C:\Users\Misha\AppData\Local\Temp\ccDk3wxj.s 			page 114


 5541 165d 51       		.byte	0x51
 5542 165e 01       		.uleb128 0x1
 5543 165f 30       		.byte	0x30
 5544 1660 09       		.uleb128 0x9
 5545 1661 01       		.uleb128 0x1
 5546 1662 52       		.byte	0x52
 5547 1663 01       		.uleb128 0x1
 5548 1664 34       		.byte	0x34
 5549 1665 09       		.uleb128 0x9
 5550 1666 01       		.uleb128 0x1
 5551 1667 53       		.byte	0x53
 5552 1668 01       		.uleb128 0x1
 5553 1669 34       		.byte	0x34
 5554 166a 09       		.uleb128 0x9
 5555 166b 02       		.uleb128 0x2
 5556 166c 7D       		.byte	0x7d
 5557 166d 00       		.sleb128 0
 5558 166e 02       		.uleb128 0x2
 5559 166f 75       		.byte	0x75
 5560 1670 00       		.sleb128 0
 5561 1671 09       		.uleb128 0x9
 5562 1672 02       		.uleb128 0x2
 5563 1673 7D       		.byte	0x7d
 5564 1674 04       		.sleb128 4
 5565 1675 02       		.uleb128 0x2
 5566 1676 74       		.byte	0x74
 5567 1677 00       		.sleb128 0
 5568 1678 00       		.byte	0
 5569 1679 08       		.uleb128 0x8
 5570 167a 9C080000 		.4byte	.LVL217
 5571 167e 021B0000 		.4byte	0x1b02
 5572 1682 93160000 		.4byte	0x1693
 5573 1686 09       		.uleb128 0x9
 5574 1687 01       		.uleb128 0x1
 5575 1688 50       		.byte	0x50
 5576 1689 02       		.uleb128 0x2
 5577 168a 74       		.byte	0x74
 5578 168b 00       		.sleb128 0
 5579 168c 09       		.uleb128 0x9
 5580 168d 01       		.uleb128 0x1
 5581 168e 51       		.byte	0x51
 5582 168f 02       		.uleb128 0x2
 5583 1690 75       		.byte	0x75
 5584 1691 00       		.sleb128 0
 5585 1692 00       		.byte	0
 5586 1693 08       		.uleb128 0x8
 5587 1694 AC080000 		.4byte	.LVL218
 5588 1698 AA1A0000 		.4byte	0x1aaa
 5589 169c C5160000 		.4byte	0x16c5
 5590 16a0 09       		.uleb128 0x9
 5591 16a1 01       		.uleb128 0x1
 5592 16a2 50       		.byte	0x50
 5593 16a3 02       		.uleb128 0x2
 5594 16a4 08       		.byte	0x8
 5595 16a5 AF       		.byte	0xaf
 5596 16a6 09       		.uleb128 0x9
 5597 16a7 01       		.uleb128 0x1
ARM GAS  C:\Users\Misha\AppData\Local\Temp\ccDk3wxj.s 			page 115


 5598 16a8 51       		.byte	0x51
 5599 16a9 02       		.uleb128 0x2
 5600 16aa 74       		.byte	0x74
 5601 16ab 00       		.sleb128 0
 5602 16ac 09       		.uleb128 0x9
 5603 16ad 01       		.uleb128 0x1
 5604 16ae 52       		.byte	0x52
 5605 16af 01       		.uleb128 0x1
 5606 16b0 34       		.byte	0x34
 5607 16b1 09       		.uleb128 0x9
 5608 16b2 01       		.uleb128 0x1
 5609 16b3 53       		.byte	0x53
 5610 16b4 01       		.uleb128 0x1
 5611 16b5 30       		.byte	0x30
 5612 16b6 09       		.uleb128 0x9
 5613 16b7 02       		.uleb128 0x2
 5614 16b8 7D       		.byte	0x7d
 5615 16b9 00       		.sleb128 0
 5616 16ba 02       		.uleb128 0x2
 5617 16bb 75       		.byte	0x75
 5618 16bc 00       		.sleb128 0
 5619 16bd 09       		.uleb128 0x9
 5620 16be 02       		.uleb128 0x2
 5621 16bf 7D       		.byte	0x7d
 5622 16c0 04       		.sleb128 4
 5623 16c1 02       		.uleb128 0x2
 5624 16c2 74       		.byte	0x74
 5625 16c3 00       		.sleb128 0
 5626 16c4 00       		.byte	0
 5627 16c5 08       		.uleb128 0x8
 5628 16c6 0E0A0000 		.4byte	.LVL245
 5629 16ca AA1A0000 		.4byte	0x1aaa
 5630 16ce F8160000 		.4byte	0x16f8
 5631 16d2 09       		.uleb128 0x9
 5632 16d3 01       		.uleb128 0x1
 5633 16d4 50       		.byte	0x50
 5634 16d5 02       		.uleb128 0x2
 5635 16d6 08       		.byte	0x8
 5636 16d7 D2       		.byte	0xd2
 5637 16d8 09       		.uleb128 0x9
 5638 16d9 01       		.uleb128 0x1
 5639 16da 51       		.byte	0x51
 5640 16db 02       		.uleb128 0x2
 5641 16dc 74       		.byte	0x74
 5642 16dd 00       		.sleb128 0
 5643 16de 09       		.uleb128 0x9
 5644 16df 01       		.uleb128 0x1
 5645 16e0 52       		.byte	0x52
 5646 16e1 01       		.uleb128 0x1
 5647 16e2 35       		.byte	0x35
 5648 16e3 09       		.uleb128 0x9
 5649 16e4 01       		.uleb128 0x1
 5650 16e5 53       		.byte	0x53
 5651 16e6 02       		.uleb128 0x2
 5652 16e7 74       		.byte	0x74
 5653 16e8 00       		.sleb128 0
 5654 16e9 09       		.uleb128 0x9
ARM GAS  C:\Users\Misha\AppData\Local\Temp\ccDk3wxj.s 			page 116


 5655 16ea 02       		.uleb128 0x2
 5656 16eb 7D       		.byte	0x7d
 5657 16ec 00       		.sleb128 0
 5658 16ed 02       		.uleb128 0x2
 5659 16ee 75       		.byte	0x75
 5660 16ef 00       		.sleb128 0
 5661 16f0 09       		.uleb128 0x9
 5662 16f1 02       		.uleb128 0x2
 5663 16f2 7D       		.byte	0x7d
 5664 16f3 04       		.sleb128 4
 5665 16f4 02       		.uleb128 0x2
 5666 16f5 74       		.byte	0x74
 5667 16f6 00       		.sleb128 0
 5668 16f7 00       		.byte	0
 5669 16f8 08       		.uleb128 0x8
 5670 16f9 160A0000 		.4byte	.LVL246
 5671 16fd 021B0000 		.4byte	0x1b02
 5672 1701 11170000 		.4byte	0x1711
 5673 1705 09       		.uleb128 0x9
 5674 1706 01       		.uleb128 0x1
 5675 1707 50       		.byte	0x50
 5676 1708 01       		.uleb128 0x1
 5677 1709 33       		.byte	0x33
 5678 170a 09       		.uleb128 0x9
 5679 170b 01       		.uleb128 0x1
 5680 170c 51       		.byte	0x51
 5681 170d 02       		.uleb128 0x2
 5682 170e 75       		.byte	0x75
 5683 170f 00       		.sleb128 0
 5684 1710 00       		.byte	0
 5685 1711 08       		.uleb128 0x8
 5686 1712 1C0A0000 		.4byte	.LVL247
 5687 1716 9F1A0000 		.4byte	0x1a9f
 5688 171a 24170000 		.4byte	0x1724
 5689 171e 09       		.uleb128 0x9
 5690 171f 01       		.uleb128 0x1
 5691 1720 50       		.byte	0x50
 5692 1721 01       		.uleb128 0x1
 5693 1722 37       		.byte	0x37
 5694 1723 00       		.byte	0
 5695 1724 08       		.uleb128 0x8
 5696 1725 300A0000 		.4byte	.LVL248
 5697 1729 AA1A0000 		.4byte	0x1aaa
 5698 172d 58170000 		.4byte	0x1758
 5699 1731 09       		.uleb128 0x9
 5700 1732 01       		.uleb128 0x1
 5701 1733 50       		.byte	0x50
 5702 1734 03       		.uleb128 0x3
 5703 1735 0A       		.byte	0xa
 5704 1736 F901     		.2byte	0x1f9
 5705 1738 09       		.uleb128 0x9
 5706 1739 01       		.uleb128 0x1
 5707 173a 51       		.byte	0x51
 5708 173b 02       		.uleb128 0x2
 5709 173c 74       		.byte	0x74
 5710 173d 00       		.sleb128 0
 5711 173e 09       		.uleb128 0x9
ARM GAS  C:\Users\Misha\AppData\Local\Temp\ccDk3wxj.s 			page 117


 5712 173f 01       		.uleb128 0x1
 5713 1740 52       		.byte	0x52
 5714 1741 01       		.uleb128 0x1
 5715 1742 35       		.byte	0x35
 5716 1743 09       		.uleb128 0x9
 5717 1744 01       		.uleb128 0x1
 5718 1745 53       		.byte	0x53
 5719 1746 02       		.uleb128 0x2
 5720 1747 76       		.byte	0x76
 5721 1748 00       		.sleb128 0
 5722 1749 09       		.uleb128 0x9
 5723 174a 02       		.uleb128 0x2
 5724 174b 7D       		.byte	0x7d
 5725 174c 00       		.sleb128 0
 5726 174d 02       		.uleb128 0x2
 5727 174e 75       		.byte	0x75
 5728 174f 00       		.sleb128 0
 5729 1750 09       		.uleb128 0x9
 5730 1751 02       		.uleb128 0x2
 5731 1752 7D       		.byte	0x7d
 5732 1753 04       		.sleb128 4
 5733 1754 02       		.uleb128 0x2
 5734 1755 76       		.byte	0x76
 5735 1756 00       		.sleb128 0
 5736 1757 00       		.byte	0
 5737 1758 08       		.uleb128 0x8
 5738 1759 380A0000 		.4byte	.LVL249
 5739 175d 021B0000 		.4byte	0x1b02
 5740 1761 72170000 		.4byte	0x1772
 5741 1765 09       		.uleb128 0x9
 5742 1766 01       		.uleb128 0x1
 5743 1767 50       		.byte	0x50
 5744 1768 02       		.uleb128 0x2
 5745 1769 74       		.byte	0x74
 5746 176a 00       		.sleb128 0
 5747 176b 09       		.uleb128 0x9
 5748 176c 01       		.uleb128 0x1
 5749 176d 51       		.byte	0x51
 5750 176e 02       		.uleb128 0x2
 5751 176f 75       		.byte	0x75
 5752 1770 00       		.sleb128 0
 5753 1771 00       		.byte	0
 5754 1772 08       		.uleb128 0x8
 5755 1773 480A0000 		.4byte	.LVL250
 5756 1777 AA1A0000 		.4byte	0x1aaa
 5757 177b A4170000 		.4byte	0x17a4
 5758 177f 09       		.uleb128 0x9
 5759 1780 01       		.uleb128 0x1
 5760 1781 50       		.byte	0x50
 5761 1782 02       		.uleb128 0x2
 5762 1783 08       		.byte	0x8
 5763 1784 28       		.byte	0x28
 5764 1785 09       		.uleb128 0x9
 5765 1786 01       		.uleb128 0x1
 5766 1787 51       		.byte	0x51
 5767 1788 02       		.uleb128 0x2
 5768 1789 74       		.byte	0x74
ARM GAS  C:\Users\Misha\AppData\Local\Temp\ccDk3wxj.s 			page 118


 5769 178a 00       		.sleb128 0
 5770 178b 09       		.uleb128 0x9
 5771 178c 01       		.uleb128 0x1
 5772 178d 52       		.byte	0x52
 5773 178e 01       		.uleb128 0x1
 5774 178f 34       		.byte	0x34
 5775 1790 09       		.uleb128 0x9
 5776 1791 01       		.uleb128 0x1
 5777 1792 53       		.byte	0x53
 5778 1793 01       		.uleb128 0x1
 5779 1794 34       		.byte	0x34
 5780 1795 09       		.uleb128 0x9
 5781 1796 02       		.uleb128 0x2
 5782 1797 7D       		.byte	0x7d
 5783 1798 00       		.sleb128 0
 5784 1799 02       		.uleb128 0x2
 5785 179a 75       		.byte	0x75
 5786 179b 00       		.sleb128 0
 5787 179c 09       		.uleb128 0x9
 5788 179d 02       		.uleb128 0x2
 5789 179e 7D       		.byte	0x7d
 5790 179f 04       		.sleb128 4
 5791 17a0 02       		.uleb128 0x2
 5792 17a1 76       		.byte	0x76
 5793 17a2 00       		.sleb128 0
 5794 17a3 00       		.byte	0
 5795 17a4 0A       		.uleb128 0xa
 5796 17a5 500A0000 		.4byte	.LVL251
 5797 17a9 E11A0000 		.4byte	0x1ae1
 5798 17ad 09       		.uleb128 0x9
 5799 17ae 01       		.uleb128 0x1
 5800 17af 50       		.byte	0x50
 5801 17b0 02       		.uleb128 0x2
 5802 17b1 74       		.byte	0x74
 5803 17b2 00       		.sleb128 0
 5804 17b3 09       		.uleb128 0x9
 5805 17b4 01       		.uleb128 0x1
 5806 17b5 51       		.byte	0x51
 5807 17b6 01       		.uleb128 0x1
 5808 17b7 32       		.byte	0x32
 5809 17b8 00       		.byte	0
 5810 17b9 00       		.byte	0
 5811 17ba 13       		.uleb128 0x13
 5812 17bb 00070000 		.4byte	.LASF26
 5813 17bf 04       		.byte	0x4
 5814 17c0 1207     		.2byte	0x712
 5815 17c2 C6170000 		.4byte	0x17c6
 5816 17c6 14       		.uleb128 0x14
 5817 17c7 76000000 		.4byte	0x76
 5818 17cb 15       		.uleb128 0x15
 5819 17cc C8020000 		.4byte	.LASF27
 5820 17d0 05       		.byte	0x5
 5821 17d1 22       		.byte	0x22
 5822 17d2 68000000 		.4byte	0x68
 5823 17d6 05       		.uleb128 0x5
 5824 17d7 03       		.byte	0x3
 5825 17d8 00000000 		.4byte	internal_orientation
ARM GAS  C:\Users\Misha\AppData\Local\Temp\ccDk3wxj.s 			page 119


 5826 17dc 16       		.uleb128 0x16
 5827 17dd 68000000 		.4byte	0x68
 5828 17e1 EC170000 		.4byte	0x17ec
 5829 17e5 17       		.uleb128 0x17
 5830 17e6 9D000000 		.4byte	0x9d
 5831 17ea 04       		.byte	0x4
 5832 17eb 00       		.byte	0
 5833 17ec 15       		.uleb128 0x15
 5834 17ed D3030000 		.4byte	.LASF28
 5835 17f1 01       		.byte	0x1
 5836 17f2 29       		.byte	0x29
 5837 17f3 DC170000 		.4byte	0x17dc
 5838 17f7 05       		.uleb128 0x5
 5839 17f8 03       		.byte	0x3
 5840 17f9 00000000 		.4byte	puck_rack_scans
 5841 17fd 15       		.uleb128 0x15
 5842 17fe 2D060000 		.4byte	.LASF29
 5843 1802 01       		.byte	0x1
 5844 1803 2B       		.byte	0x2b
 5845 1804 DC170000 		.4byte	0x17dc
 5846 1808 05       		.uleb128 0x5
 5847 1809 03       		.byte	0x3
 5848 180a 00000000 		.4byte	puck_rack_west_offsets
 5849 180e 16       		.uleb128 0x16
 5850 180f 81000000 		.4byte	0x81
 5851 1813 1E180000 		.4byte	0x181e
 5852 1817 17       		.uleb128 0x17
 5853 1818 9D000000 		.4byte	0x9d
 5854 181c 03       		.byte	0x3
 5855 181d 00       		.byte	0
 5856 181e 15       		.uleb128 0x15
 5857 181f 68040000 		.4byte	.LASF30
 5858 1823 01       		.byte	0x1
 5859 1824 25       		.byte	0x25
 5860 1825 0E180000 		.4byte	0x180e
 5861 1829 05       		.uleb128 0x5
 5862 182a 03       		.byte	0x3
 5863 182b 00000000 		.4byte	block_edge_location
 5864 182f 15       		.uleb128 0x15
 5865 1830 BB070000 		.4byte	.LASF31
 5866 1834 06       		.byte	0x6
 5867 1835 23       		.byte	0x23
 5868 1836 68000000 		.4byte	0x68
 5869 183a 05       		.uleb128 0x5
 5870 183b 03       		.byte	0x3
 5871 183c 00000000 		.4byte	initialisation
 5872 1840 16       		.uleb128 0x16
 5873 1841 8F000000 		.4byte	0x8f
 5874 1845 50180000 		.4byte	0x1850
 5875 1849 17       		.uleb128 0x17
 5876 184a 9D000000 		.4byte	0x9d
 5877 184e 1F       		.byte	0x1f
 5878 184f 00       		.byte	0
 5879 1850 15       		.uleb128 0x15
 5880 1851 D9060000 		.4byte	.LASF32
 5881 1855 01       		.byte	0x1
 5882 1856 21       		.byte	0x21
ARM GAS  C:\Users\Misha\AppData\Local\Temp\ccDk3wxj.s 			page 120


 5883 1857 40180000 		.4byte	0x1840
 5884 185b 05       		.uleb128 0x5
 5885 185c 03       		.byte	0x3
 5886 185d 00000000 		.4byte	output
 5887 1861 16       		.uleb128 0x16
 5888 1862 68000000 		.4byte	0x68
 5889 1866 71180000 		.4byte	0x1871
 5890 186a 17       		.uleb128 0x17
 5891 186b 9D000000 		.4byte	0x9d
 5892 186f 06       		.byte	0x6
 5893 1870 00       		.byte	0
 5894 1871 18       		.uleb128 0x18
 5895 1872 11060000 		.4byte	.LASF33
 5896 1876 07       		.byte	0x7
 5897 1877 CA       		.byte	0xca
 5898 1878 61180000 		.4byte	0x1861
 5899 187c 15       		.uleb128 0x15
 5900 187d AF030000 		.4byte	.LASF34
 5901 1881 01       		.byte	0x1
 5902 1882 4D       		.byte	0x4d
 5903 1883 68000000 		.4byte	0x68
 5904 1887 05       		.uleb128 0x5
 5905 1888 03       		.byte	0x3
 5906 1889 00000000 		.4byte	colour_flag
 5907 188d 15       		.uleb128 0x15
 5908 188e 7A030000 		.4byte	.LASF35
 5909 1892 01       		.byte	0x1
 5910 1893 24       		.byte	0x24
 5911 1894 68000000 		.4byte	0x68
 5912 1898 05       		.uleb128 0x5
 5913 1899 03       		.byte	0x3
 5914 189a 00000000 		.4byte	state
 5915 189e 15       		.uleb128 0x15
 5916 189f 7C050000 		.4byte	.LASF36
 5917 18a3 01       		.byte	0x1
 5918 18a4 53       		.byte	0x53
 5919 18a5 68000000 		.4byte	0x68
 5920 18a9 05       		.uleb128 0x5
 5921 18aa 03       		.byte	0x3
 5922 18ab 00000000 		.4byte	moving
 5923 18af 15       		.uleb128 0x15
 5924 18b0 76010000 		.4byte	.LASF37
 5925 18b4 06       		.byte	0x6
 5926 18b5 25       		.byte	0x25
 5927 18b6 68000000 		.4byte	0x68
 5928 18ba 05       		.uleb128 0x5
 5929 18bb 03       		.byte	0x3
 5930 18bc 00000000 		.4byte	ultrasonic_flag
 5931 18c0 16       		.uleb128 0x16
 5932 18c1 68000000 		.4byte	0x68
 5933 18c5 D0180000 		.4byte	0x18d0
 5934 18c9 17       		.uleb128 0x17
 5935 18ca 9D000000 		.4byte	0x9d
 5936 18ce 02       		.byte	0x2
 5937 18cf 00       		.byte	0
 5938 18d0 15       		.uleb128 0x15
 5939 18d1 34040000 		.4byte	.LASF38
ARM GAS  C:\Users\Misha\AppData\Local\Temp\ccDk3wxj.s 			page 121


 5940 18d5 01       		.byte	0x1
 5941 18d6 2A       		.byte	0x2a
 5942 18d7 C0180000 		.4byte	0x18c0
 5943 18db 05       		.uleb128 0x5
 5944 18dc 03       		.byte	0x3
 5945 18dd 00000000 		.4byte	puck_construction_plan
 5946 18e1 15       		.uleb128 0x15
 5947 18e2 ED040000 		.4byte	.LASF39
 5948 18e6 01       		.byte	0x1
 5949 18e7 57       		.byte	0x57
 5950 18e8 68000000 		.4byte	0x68
 5951 18ec 05       		.uleb128 0x5
 5952 18ed 03       		.byte	0x3
 5953 18ee 00000000 		.4byte	current_stage
 5954 18f2 15       		.uleb128 0x15
 5955 18f3 63050000 		.4byte	.LASF40
 5956 18f7 01       		.byte	0x1
 5957 18f8 4E       		.byte	0x4e
 5958 18f9 68000000 		.4byte	0x68
 5959 18fd 05       		.uleb128 0x5
 5960 18fe 03       		.byte	0x3
 5961 18ff 00000000 		.4byte	colour_sensing_algorithm
 5962 1903 15       		.uleb128 0x15
 5963 1904 23030000 		.4byte	.LASF41
 5964 1908 01       		.byte	0x1
 5965 1909 41       		.byte	0x41
 5966 190a 68000000 		.4byte	0x68
 5967 190e 05       		.uleb128 0x5
 5968 190f 03       		.byte	0x3
 5969 1910 00000000 		.4byte	safety_override
 5970 1914 16       		.uleb128 0x16
 5971 1915 68000000 		.4byte	0x68
 5972 1919 24190000 		.4byte	0x1924
 5973 191d 17       		.uleb128 0x17
 5974 191e 9D000000 		.4byte	0x9d
 5975 1922 03       		.byte	0x3
 5976 1923 00       		.byte	0
 5977 1924 15       		.uleb128 0x15
 5978 1925 EF010000 		.4byte	.LASF42
 5979 1929 01       		.byte	0x1
 5980 192a 36       		.byte	0x36
 5981 192b 14190000 		.4byte	0x1914
 5982 192f 05       		.uleb128 0x5
 5983 1930 03       		.byte	0x3
 5984 1931 00000000 		.4byte	block_location
 5985 1935 15       		.uleb128 0x15
 5986 1936 09040000 		.4byte	.LASF43
 5987 193a 01       		.byte	0x1
 5988 193b 3B       		.byte	0x3b
 5989 193c 14190000 		.4byte	0x1914
 5990 1940 05       		.uleb128 0x5
 5991 1941 03       		.byte	0x3
 5992 1942 00000000 		.4byte	puck_location
 5993 1946 15       		.uleb128 0x15
 5994 1947 A3070000 		.4byte	.LASF44
 5995 194b 01       		.byte	0x1
 5996 194c 28       		.byte	0x28
ARM GAS  C:\Users\Misha\AppData\Local\Temp\ccDk3wxj.s 			page 122


 5997 194d 68000000 		.4byte	0x68
 5998 1951 05       		.uleb128 0x5
 5999 1952 03       		.byte	0x3
 6000 1953 00000000 		.4byte	current_puck_stack_size
 6001 1957 16       		.uleb128 0x16
 6002 1958 68000000 		.4byte	0x68
 6003 195c 67190000 		.4byte	0x1967
 6004 1960 17       		.uleb128 0x17
 6005 1961 9D000000 		.4byte	0x9d
 6006 1965 01       		.byte	0x1
 6007 1966 00       		.byte	0
 6008 1967 15       		.uleb128 0x15
 6009 1968 4E010000 		.4byte	.LASF45
 6010 196c 01       		.byte	0x1
 6011 196d 31       		.byte	0x31
 6012 196e 57190000 		.4byte	0x1957
 6013 1972 05       		.uleb128 0x5
 6014 1973 03       		.byte	0x3
 6015 1974 00000000 		.4byte	puck_temp_pile
 6016 1978 15       		.uleb128 0x15
 6017 1979 D1050000 		.4byte	.LASF46
 6018 197d 01       		.byte	0x1
 6019 197e 35       		.byte	0x35
 6020 197f 68000000 		.4byte	0x68
 6021 1983 05       		.uleb128 0x5
 6022 1984 03       		.byte	0x3
 6023 1985 00000000 		.4byte	begin_navigation
 6024 1989 15       		.uleb128 0x15
 6025 198a AF000000 		.4byte	.LASF47
 6026 198e 01       		.byte	0x1
 6027 198f 45       		.byte	0x45
 6028 1990 33000000 		.4byte	0x33
 6029 1994 05       		.uleb128 0x5
 6030 1995 03       		.byte	0x3
 6031 1996 00000000 		.4byte	block_east_clearance
 6032 199a 15       		.uleb128 0x15
 6033 199b A4050000 		.4byte	.LASF48
 6034 199f 01       		.byte	0x1
 6035 19a0 46       		.byte	0x46
 6036 19a1 33000000 		.4byte	0x33
 6037 19a5 05       		.uleb128 0x5
 6038 19a6 03       		.byte	0x3
 6039 19a7 00000000 		.4byte	block_west_clearance
 6040 19ab 15       		.uleb128 0x15
 6041 19ac 3A010000 		.4byte	.LASF49
 6042 19b0 01       		.byte	0x1
 6043 19b1 47       		.byte	0x47
 6044 19b2 33000000 		.4byte	0x33
 6045 19b6 05       		.uleb128 0x5
 6046 19b7 03       		.byte	0x3
 6047 19b8 00000000 		.4byte	puck_east_clearance
 6048 19bc 15       		.uleb128 0x15
 6049 19bd 56000000 		.4byte	.LASF50
 6050 19c1 01       		.byte	0x1
 6051 19c2 48       		.byte	0x48
 6052 19c3 33000000 		.4byte	0x33
 6053 19c7 05       		.uleb128 0x5
ARM GAS  C:\Users\Misha\AppData\Local\Temp\ccDk3wxj.s 			page 123


 6054 19c8 03       		.byte	0x3
 6055 19c9 00000000 		.4byte	puck_west_clearance
 6056 19cd 15       		.uleb128 0x15
 6057 19ce B2040000 		.4byte	.LASF51
 6058 19d2 01       		.byte	0x1
 6059 19d3 4C       		.byte	0x4c
 6060 19d4 68000000 		.4byte	0x68
 6061 19d8 05       		.uleb128 0x5
 6062 19d9 03       		.byte	0x3
 6063 19da 00000000 		.4byte	idac_value
 6064 19de 15       		.uleb128 0x15
 6065 19df 50050000 		.4byte	.LASF52
 6066 19e3 01       		.byte	0x1
 6067 19e4 55       		.byte	0x55
 6068 19e5 EF190000 		.4byte	0x19ef
 6069 19e9 05       		.uleb128 0x5
 6070 19ea 03       		.byte	0x3
 6071 19eb 00000000 		.4byte	PLAN_SCAN_VERTICAL
 6072 19ef 19       		.uleb128 0x19
 6073 19f0 68000000 		.4byte	0x68
 6074 19f4 15       		.uleb128 0x15
 6075 19f5 E7060000 		.4byte	.LASF53
 6076 19f9 01       		.byte	0x1
 6077 19fa 5B       		.byte	0x5b
 6078 19fb 68000000 		.4byte	0x68
 6079 19ff 05       		.uleb128 0x5
 6080 1a00 03       		.byte	0x3
 6081 1a01 00000000 		.4byte	distance_returned_global
 6082 1a05 1A       		.uleb128 0x1a
 6083 1a06 23020000 		.4byte	.LASF54
 6084 1a0a 23020000 		.4byte	.LASF54
 6085 1a0e 06       		.byte	0x6
 6086 1a0f 17       		.byte	0x17
 6087 1a10 1A       		.uleb128 0x1a
 6088 1a11 9B070000 		.4byte	.LASF55
 6089 1a15 9B070000 		.4byte	.LASF55
 6090 1a19 08       		.byte	0x8
 6091 1a1a 76       		.byte	0x76
 6092 1a1b 1A       		.uleb128 0x1a
 6093 1a1c 00060000 		.4byte	.LASF56
 6094 1a20 00060000 		.4byte	.LASF56
 6095 1a24 09       		.byte	0x9
 6096 1a25 8B       		.byte	0x8b
 6097 1a26 1A       		.uleb128 0x1a
 6098 1a27 BB030000 		.4byte	.LASF57
 6099 1a2b BB030000 		.4byte	.LASF57
 6100 1a2f 0A       		.byte	0xa
 6101 1a30 DC       		.byte	0xdc
 6102 1a31 1A       		.uleb128 0x1a
 6103 1a32 9C020000 		.4byte	.LASF58
 6104 1a36 9C020000 		.4byte	.LASF58
 6105 1a3a 0B       		.byte	0xb
 6106 1a3b DC       		.byte	0xdc
 6107 1a3c 1A       		.uleb128 0x1a
 6108 1a3d CB010000 		.4byte	.LASF59
 6109 1a41 CB010000 		.4byte	.LASF59
 6110 1a45 0C       		.byte	0xc
ARM GAS  C:\Users\Misha\AppData\Local\Temp\ccDk3wxj.s 			page 124


 6111 1a46 0E       		.byte	0xe
 6112 1a47 1A       		.uleb128 0x1a
 6113 1a48 E9070000 		.4byte	.LASF60
 6114 1a4c E9070000 		.4byte	.LASF60
 6115 1a50 0A       		.byte	0xa
 6116 1a51 DD       		.byte	0xdd
 6117 1a52 1A       		.uleb128 0x1a
 6118 1a53 CA070000 		.4byte	.LASF61
 6119 1a57 CA070000 		.4byte	.LASF61
 6120 1a5b 0A       		.byte	0xa
 6121 1a5c C3       		.byte	0xc3
 6122 1a5d 1A       		.uleb128 0x1a
 6123 1a5e 65020000 		.4byte	.LASF62
 6124 1a62 65020000 		.4byte	.LASF62
 6125 1a66 0B       		.byte	0xb
 6126 1a67 DD       		.byte	0xdd
 6127 1a68 1A       		.uleb128 0x1a
 6128 1a69 36000000 		.4byte	.LASF63
 6129 1a6d 36000000 		.4byte	.LASF63
 6130 1a71 0B       		.byte	0xb
 6131 1a72 C3       		.byte	0xc3
 6132 1a73 1A       		.uleb128 0x1a
 6133 1a74 6A000000 		.4byte	.LASF64
 6134 1a78 6A000000 		.4byte	.LASF64
 6135 1a7c 0D       		.byte	0xd
 6136 1a7d 1D       		.byte	0x1d
 6137 1a7e 1A       		.uleb128 0x1a
 6138 1a7f 1A030000 		.4byte	.LASF65
 6139 1a83 1A030000 		.4byte	.LASF65
 6140 1a87 0D       		.byte	0xd
 6141 1a88 1C       		.byte	0x1c
 6142 1a89 1A       		.uleb128 0x1a
 6143 1a8a 2C040000 		.4byte	.LASF66
 6144 1a8e 2C040000 		.4byte	.LASF66
 6145 1a92 0E       		.byte	0xe
 6146 1a93 E7       		.byte	0xe7
 6147 1a94 1A       		.uleb128 0x1a
 6148 1a95 24000000 		.4byte	.LASF67
 6149 1a99 24000000 		.4byte	.LASF67
 6150 1a9d 0F       		.byte	0xf
 6151 1a9e 0E       		.byte	0xe
 6152 1a9f 1A       		.uleb128 0x1a
 6153 1aa0 96000000 		.4byte	.LASF68
 6154 1aa4 96000000 		.4byte	.LASF68
 6155 1aa8 05       		.byte	0x5
 6156 1aa9 13       		.byte	0x13
 6157 1aaa 1A       		.uleb128 0x1a
 6158 1aab C6060000 		.4byte	.LASF69
 6159 1aaf C6060000 		.4byte	.LASF69
 6160 1ab3 05       		.byte	0x5
 6161 1ab4 12       		.byte	0x12
 6162 1ab5 1A       		.uleb128 0x1a
 6163 1ab6 7E000000 		.4byte	.LASF70
 6164 1aba 7E000000 		.4byte	.LASF70
 6165 1abe 0D       		.byte	0xd
 6166 1abf 19       		.byte	0x19
 6167 1ac0 1A       		.uleb128 0x1a
ARM GAS  C:\Users\Misha\AppData\Local\Temp\ccDk3wxj.s 			page 125


 6168 1ac1 40030000 		.4byte	.LASF71
 6169 1ac5 40030000 		.4byte	.LASF71
 6170 1ac9 10       		.byte	0x10
 6171 1aca 2F       		.byte	0x2f
 6172 1acb 1A       		.uleb128 0x1a
 6173 1acc 26050000 		.4byte	.LASF72
 6174 1ad0 26050000 		.4byte	.LASF72
 6175 1ad4 06       		.byte	0x6
 6176 1ad5 16       		.byte	0x16
 6177 1ad6 1A       		.uleb128 0x1a
 6178 1ad7 17040000 		.4byte	.LASF73
 6179 1adb 17040000 		.4byte	.LASF73
 6180 1adf 0C       		.byte	0xc
 6181 1ae0 0F       		.byte	0xf
 6182 1ae1 1A       		.uleb128 0x1a
 6183 1ae2 44020000 		.4byte	.LASF74
 6184 1ae6 44020000 		.4byte	.LASF74
 6185 1aea 11       		.byte	0x11
 6186 1aeb 0F       		.byte	0xf
 6187 1aec 1A       		.uleb128 0x1a
 6188 1aed E3030000 		.4byte	.LASF75
 6189 1af1 E3030000 		.4byte	.LASF75
 6190 1af5 05       		.byte	0x5
 6191 1af6 10       		.byte	0x10
 6192 1af7 1A       		.uleb128 0x1a
 6193 1af8 47050000 		.4byte	.LASF76
 6194 1afc 47050000 		.4byte	.LASF76
 6195 1b00 11       		.byte	0x11
 6196 1b01 11       		.byte	0x11
 6197 1b02 1A       		.uleb128 0x1a
 6198 1b03 8F030000 		.4byte	.LASF77
 6199 1b07 8F030000 		.4byte	.LASF77
 6200 1b0b 05       		.byte	0x5
 6201 1b0c 18       		.byte	0x18
 6202 1b0d 1A       		.uleb128 0x1a
 6203 1b0e 00000000 		.4byte	.LASF78
 6204 1b12 00000000 		.4byte	.LASF78
 6205 1b16 11       		.byte	0x11
 6206 1b17 10       		.byte	0x10
 6207 1b18 1A       		.uleb128 0x1a
 6208 1b19 1A050000 		.4byte	.LASF79
 6209 1b1d 1A050000 		.4byte	.LASF79
 6210 1b21 12       		.byte	0x12
 6211 1b22 3D       		.byte	0x3d
 6212 1b23 1A       		.uleb128 0x1a
 6213 1b24 33030000 		.4byte	.LASF80
 6214 1b28 33030000 		.4byte	.LASF80
 6215 1b2c 09       		.byte	0x9
 6216 1b2d 54       		.byte	0x54
 6217 1b2e 1A       		.uleb128 0x1a
 6218 1b2f B5020000 		.4byte	.LASF81
 6219 1b33 B5020000 		.4byte	.LASF81
 6220 1b37 13       		.byte	0x13
 6221 1b38 3A       		.byte	0x3a
 6222 1b39 1A       		.uleb128 0x1a
 6223 1b3a CF040000 		.4byte	.LASF82
 6224 1b3e CF040000 		.4byte	.LASF82
ARM GAS  C:\Users\Misha\AppData\Local\Temp\ccDk3wxj.s 			page 126


 6225 1b42 14       		.byte	0x14
 6226 1b43 3C       		.byte	0x3c
 6227 1b44 1A       		.uleb128 0x1a
 6228 1b45 4B040000 		.4byte	.LASF83
 6229 1b49 4B040000 		.4byte	.LASF83
 6230 1b4d 14       		.byte	0x14
 6231 1b4e 40       		.byte	0x40
 6232 1b4f 1A       		.uleb128 0x1a
 6233 1b50 B9050000 		.4byte	.LASF84
 6234 1b54 B9050000 		.4byte	.LASF84
 6235 1b58 14       		.byte	0x14
 6236 1b59 41       		.byte	0x41
 6237 1b5a 1A       		.uleb128 0x1a
 6238 1b5b 93040000 		.4byte	.LASF85
 6239 1b5f 93040000 		.4byte	.LASF85
 6240 1b63 15       		.byte	0x15
 6241 1b64 2F       		.byte	0x2f
 6242 1b65 1A       		.uleb128 0x1a
 6243 1b66 B6010000 		.4byte	.LASF86
 6244 1b6a B6010000 		.4byte	.LASF86
 6245 1b6e 16       		.byte	0x16
 6246 1b6f 92       		.byte	0x92
 6247 1b70 1A       		.uleb128 0x1a
 6248 1b71 5E030000 		.4byte	.LASF87
 6249 1b75 5E030000 		.4byte	.LASF87
 6250 1b79 16       		.byte	0x16
 6251 1b7a C3       		.byte	0xc3
 6252 1b7b 1A       		.uleb128 0x1a
 6253 1b7c 86010000 		.4byte	.LASF88
 6254 1b80 86010000 		.4byte	.LASF88
 6255 1b84 16       		.byte	0x16
 6256 1b85 DC       		.byte	0xdc
 6257 1b86 1A       		.uleb128 0x1a
 6258 1b87 FE010000 		.4byte	.LASF89
 6259 1b8b FE010000 		.4byte	.LASF89
 6260 1b8f 17       		.byte	0x17
 6261 1b90 92       		.byte	0x92
 6262 1b91 1A       		.uleb128 0x1a
 6263 1b92 FB040000 		.4byte	.LASF90
 6264 1b96 FB040000 		.4byte	.LASF90
 6265 1b9a 17       		.byte	0x17
 6266 1b9b C3       		.byte	0xc3
 6267 1b9c 1A       		.uleb128 0x1a
 6268 1b9d D7010000 		.4byte	.LASF91
 6269 1ba1 D7010000 		.4byte	.LASF91
 6270 1ba5 17       		.byte	0x17
 6271 1ba6 DC       		.byte	0xdc
 6272 1ba7 1A       		.uleb128 0x1a
 6273 1ba8 F1030000 		.4byte	.LASF92
 6274 1bac F1030000 		.4byte	.LASF92
 6275 1bb0 0A       		.byte	0xa
 6276 1bb1 92       		.byte	0x92
 6277 1bb2 1A       		.uleb128 0x1a
 6278 1bb3 DD020000 		.4byte	.LASF93
 6279 1bb7 DD020000 		.4byte	.LASF93
 6280 1bbb 0B       		.byte	0xb
 6281 1bbc 92       		.byte	0x92
ARM GAS  C:\Users\Misha\AppData\Local\Temp\ccDk3wxj.s 			page 127


 6282 1bbd 1A       		.uleb128 0x1a
 6283 1bbe 15010000 		.4byte	.LASF94
 6284 1bc2 15010000 		.4byte	.LASF94
 6285 1bc6 18       		.byte	0x18
 6286 1bc7 48       		.byte	0x48
 6287 1bc8 1A       		.uleb128 0x1a
 6288 1bc9 D2000000 		.4byte	.LASF95
 6289 1bcd D2000000 		.4byte	.LASF95
 6290 1bd1 19       		.byte	0x19
 6291 1bd2 48       		.byte	0x48
 6292 1bd3 1A       		.uleb128 0x1a
 6293 1bd4 83050000 		.4byte	.LASF96
 6294 1bd8 83050000 		.4byte	.LASF96
 6295 1bdc 1A       		.byte	0x1a
 6296 1bdd 5A       		.byte	0x5a
 6297 1bde 1A       		.uleb128 0x1a
 6298 1bdf 9B010000 		.4byte	.LASF97
 6299 1be3 9B010000 		.4byte	.LASF97
 6300 1be7 1A       		.byte	0x1a
 6301 1be8 5E       		.byte	0x5e
 6302 1be9 1A       		.uleb128 0x1a
 6303 1bea C4000000 		.4byte	.LASF98
 6304 1bee C4000000 		.4byte	.LASF98
 6305 1bf2 1B       		.byte	0x1b
 6306 1bf3 18       		.byte	0x18
 6307 1bf4 1A       		.uleb128 0x1a
 6308 1bf5 E2050000 		.4byte	.LASF99
 6309 1bf9 E2050000 		.4byte	.LASF99
 6310 1bfd 1C       		.byte	0x1c
 6311 1bfe 18       		.byte	0x18
 6312 1bff 1A       		.uleb128 0x1a
 6313 1c00 65010000 		.4byte	.LASF100
 6314 1c04 65010000 		.4byte	.LASF100
 6315 1c08 1D       		.byte	0x1d
 6316 1c09 18       		.byte	0x18
 6317 1c0a 1A       		.uleb128 0x1a
 6318 1c0b B2060000 		.4byte	.LASF101
 6319 1c0f B2060000 		.4byte	.LASF101
 6320 1c13 06       		.byte	0x6
 6321 1c14 18       		.byte	0x18
 6322 1c15 1A       		.uleb128 0x1a
 6323 1c16 08000000 		.4byte	.LASF102
 6324 1c1a 08000000 		.4byte	.LASF102
 6325 1c1e 1E       		.byte	0x1e
 6326 1c1f 5A       		.byte	0x5a
 6327 1c20 1A       		.uleb128 0x1a
 6328 1c21 EC000000 		.4byte	.LASF103
 6329 1c25 EC000000 		.4byte	.LASF103
 6330 1c29 1E       		.byte	0x1e
 6331 1c2a 5E       		.byte	0x5e
 6332 1c2b 00       		.byte	0
 6333              		.section	.debug_abbrev,"",%progbits
 6334              	.Ldebug_abbrev0:
 6335 0000 01       		.uleb128 0x1
 6336 0001 11       		.uleb128 0x11
 6337 0002 01       		.byte	0x1
 6338 0003 25       		.uleb128 0x25
ARM GAS  C:\Users\Misha\AppData\Local\Temp\ccDk3wxj.s 			page 128


 6339 0004 0E       		.uleb128 0xe
 6340 0005 13       		.uleb128 0x13
 6341 0006 0B       		.uleb128 0xb
 6342 0007 03       		.uleb128 0x3
 6343 0008 0E       		.uleb128 0xe
 6344 0009 1B       		.uleb128 0x1b
 6345 000a 0E       		.uleb128 0xe
 6346 000b 55       		.uleb128 0x55
 6347 000c 17       		.uleb128 0x17
 6348 000d 11       		.uleb128 0x11
 6349 000e 01       		.uleb128 0x1
 6350 000f 10       		.uleb128 0x10
 6351 0010 17       		.uleb128 0x17
 6352 0011 00       		.byte	0
 6353 0012 00       		.byte	0
 6354 0013 02       		.uleb128 0x2
 6355 0014 24       		.uleb128 0x24
 6356 0015 00       		.byte	0
 6357 0016 0B       		.uleb128 0xb
 6358 0017 0B       		.uleb128 0xb
 6359 0018 3E       		.uleb128 0x3e
 6360 0019 0B       		.uleb128 0xb
 6361 001a 03       		.uleb128 0x3
 6362 001b 0E       		.uleb128 0xe
 6363 001c 00       		.byte	0
 6364 001d 00       		.byte	0
 6365 001e 03       		.uleb128 0x3
 6366 001f 16       		.uleb128 0x16
 6367 0020 00       		.byte	0
 6368 0021 03       		.uleb128 0x3
 6369 0022 0E       		.uleb128 0xe
 6370 0023 3A       		.uleb128 0x3a
 6371 0024 0B       		.uleb128 0xb
 6372 0025 3B       		.uleb128 0x3b
 6373 0026 0B       		.uleb128 0xb
 6374 0027 49       		.uleb128 0x49
 6375 0028 13       		.uleb128 0x13
 6376 0029 00       		.byte	0
 6377 002a 00       		.byte	0
 6378 002b 04       		.uleb128 0x4
 6379 002c 24       		.uleb128 0x24
 6380 002d 00       		.byte	0
 6381 002e 0B       		.uleb128 0xb
 6382 002f 0B       		.uleb128 0xb
 6383 0030 3E       		.uleb128 0x3e
 6384 0031 0B       		.uleb128 0xb
 6385 0032 03       		.uleb128 0x3
 6386 0033 08       		.uleb128 0x8
 6387 0034 00       		.byte	0
 6388 0035 00       		.byte	0
 6389 0036 05       		.uleb128 0x5
 6390 0037 2E       		.uleb128 0x2e
 6391 0038 01       		.byte	0x1
 6392 0039 3F       		.uleb128 0x3f
 6393 003a 19       		.uleb128 0x19
 6394 003b 03       		.uleb128 0x3
 6395 003c 08       		.uleb128 0x8
ARM GAS  C:\Users\Misha\AppData\Local\Temp\ccDk3wxj.s 			page 129


 6396 003d 3A       		.uleb128 0x3a
 6397 003e 0B       		.uleb128 0xb
 6398 003f 3B       		.uleb128 0x3b
 6399 0040 0B       		.uleb128 0xb
 6400 0041 27       		.uleb128 0x27
 6401 0042 19       		.uleb128 0x19
 6402 0043 11       		.uleb128 0x11
 6403 0044 01       		.uleb128 0x1
 6404 0045 12       		.uleb128 0x12
 6405 0046 06       		.uleb128 0x6
 6406 0047 40       		.uleb128 0x40
 6407 0048 18       		.uleb128 0x18
 6408 0049 9742     		.uleb128 0x2117
 6409 004b 19       		.uleb128 0x19
 6410 004c 01       		.uleb128 0x1
 6411 004d 13       		.uleb128 0x13
 6412 004e 00       		.byte	0
 6413 004f 00       		.byte	0
 6414 0050 06       		.uleb128 0x6
 6415 0051 898201   		.uleb128 0x4109
 6416 0054 00       		.byte	0
 6417 0055 11       		.uleb128 0x11
 6418 0056 01       		.uleb128 0x1
 6419 0057 31       		.uleb128 0x31
 6420 0058 13       		.uleb128 0x13
 6421 0059 00       		.byte	0
 6422 005a 00       		.byte	0
 6423 005b 07       		.uleb128 0x7
 6424 005c 2E       		.uleb128 0x2e
 6425 005d 01       		.byte	0x1
 6426 005e 3F       		.uleb128 0x3f
 6427 005f 19       		.uleb128 0x19
 6428 0060 03       		.uleb128 0x3
 6429 0061 0E       		.uleb128 0xe
 6430 0062 3A       		.uleb128 0x3a
 6431 0063 0B       		.uleb128 0xb
 6432 0064 3B       		.uleb128 0x3b
 6433 0065 0B       		.uleb128 0xb
 6434 0066 27       		.uleb128 0x27
 6435 0067 19       		.uleb128 0x19
 6436 0068 11       		.uleb128 0x11
 6437 0069 01       		.uleb128 0x1
 6438 006a 12       		.uleb128 0x12
 6439 006b 06       		.uleb128 0x6
 6440 006c 40       		.uleb128 0x40
 6441 006d 18       		.uleb128 0x18
 6442 006e 9742     		.uleb128 0x2117
 6443 0070 19       		.uleb128 0x19
 6444 0071 01       		.uleb128 0x1
 6445 0072 13       		.uleb128 0x13
 6446 0073 00       		.byte	0
 6447 0074 00       		.byte	0
 6448 0075 08       		.uleb128 0x8
 6449 0076 898201   		.uleb128 0x4109
 6450 0079 01       		.byte	0x1
 6451 007a 11       		.uleb128 0x11
 6452 007b 01       		.uleb128 0x1
ARM GAS  C:\Users\Misha\AppData\Local\Temp\ccDk3wxj.s 			page 130


 6453 007c 31       		.uleb128 0x31
 6454 007d 13       		.uleb128 0x13
 6455 007e 01       		.uleb128 0x1
 6456 007f 13       		.uleb128 0x13
 6457 0080 00       		.byte	0
 6458 0081 00       		.byte	0
 6459 0082 09       		.uleb128 0x9
 6460 0083 8A8201   		.uleb128 0x410a
 6461 0086 00       		.byte	0
 6462 0087 02       		.uleb128 0x2
 6463 0088 18       		.uleb128 0x18
 6464 0089 9142     		.uleb128 0x2111
 6465 008b 18       		.uleb128 0x18
 6466 008c 00       		.byte	0
 6467 008d 00       		.byte	0
 6468 008e 0A       		.uleb128 0xa
 6469 008f 898201   		.uleb128 0x4109
 6470 0092 01       		.byte	0x1
 6471 0093 11       		.uleb128 0x11
 6472 0094 01       		.uleb128 0x1
 6473 0095 31       		.uleb128 0x31
 6474 0096 13       		.uleb128 0x13
 6475 0097 00       		.byte	0
 6476 0098 00       		.byte	0
 6477 0099 0B       		.uleb128 0xb
 6478 009a 2E       		.uleb128 0x2e
 6479 009b 01       		.byte	0x1
 6480 009c 3F       		.uleb128 0x3f
 6481 009d 19       		.uleb128 0x19
 6482 009e 03       		.uleb128 0x3
 6483 009f 0E       		.uleb128 0xe
 6484 00a0 3A       		.uleb128 0x3a
 6485 00a1 0B       		.uleb128 0xb
 6486 00a2 3B       		.uleb128 0x3b
 6487 00a3 0B       		.uleb128 0xb
 6488 00a4 27       		.uleb128 0x27
 6489 00a5 19       		.uleb128 0x19
 6490 00a6 49       		.uleb128 0x49
 6491 00a7 13       		.uleb128 0x13
 6492 00a8 8701     		.uleb128 0x87
 6493 00aa 19       		.uleb128 0x19
 6494 00ab 11       		.uleb128 0x11
 6495 00ac 01       		.uleb128 0x1
 6496 00ad 12       		.uleb128 0x12
 6497 00ae 06       		.uleb128 0x6
 6498 00af 40       		.uleb128 0x40
 6499 00b0 18       		.uleb128 0x18
 6500 00b1 9642     		.uleb128 0x2116
 6501 00b3 19       		.uleb128 0x19
 6502 00b4 01       		.uleb128 0x1
 6503 00b5 13       		.uleb128 0x13
 6504 00b6 00       		.byte	0
 6505 00b7 00       		.byte	0
 6506 00b8 0C       		.uleb128 0xc
 6507 00b9 34       		.uleb128 0x34
 6508 00ba 00       		.byte	0
 6509 00bb 03       		.uleb128 0x3
ARM GAS  C:\Users\Misha\AppData\Local\Temp\ccDk3wxj.s 			page 131


 6510 00bc 0E       		.uleb128 0xe
 6511 00bd 3A       		.uleb128 0x3a
 6512 00be 0B       		.uleb128 0xb
 6513 00bf 3B       		.uleb128 0x3b
 6514 00c0 0B       		.uleb128 0xb
 6515 00c1 49       		.uleb128 0x49
 6516 00c2 13       		.uleb128 0x13
 6517 00c3 1C       		.uleb128 0x1c
 6518 00c4 0B       		.uleb128 0xb
 6519 00c5 00       		.byte	0
 6520 00c6 00       		.byte	0
 6521 00c7 0D       		.uleb128 0xd
 6522 00c8 0B       		.uleb128 0xb
 6523 00c9 01       		.byte	0x1
 6524 00ca 11       		.uleb128 0x11
 6525 00cb 01       		.uleb128 0x1
 6526 00cc 12       		.uleb128 0x12
 6527 00cd 06       		.uleb128 0x6
 6528 00ce 01       		.uleb128 0x1
 6529 00cf 13       		.uleb128 0x13
 6530 00d0 00       		.byte	0
 6531 00d1 00       		.byte	0
 6532 00d2 0E       		.uleb128 0xe
 6533 00d3 34       		.uleb128 0x34
 6534 00d4 00       		.byte	0
 6535 00d5 03       		.uleb128 0x3
 6536 00d6 0E       		.uleb128 0xe
 6537 00d7 3A       		.uleb128 0x3a
 6538 00d8 0B       		.uleb128 0xb
 6539 00d9 3B       		.uleb128 0x3b
 6540 00da 05       		.uleb128 0x5
 6541 00db 49       		.uleb128 0x49
 6542 00dc 13       		.uleb128 0x13
 6543 00dd 02       		.uleb128 0x2
 6544 00de 17       		.uleb128 0x17
 6545 00df 00       		.byte	0
 6546 00e0 00       		.byte	0
 6547 00e1 0F       		.uleb128 0xf
 6548 00e2 34       		.uleb128 0x34
 6549 00e3 00       		.byte	0
 6550 00e4 03       		.uleb128 0x3
 6551 00e5 08       		.uleb128 0x8
 6552 00e6 3A       		.uleb128 0x3a
 6553 00e7 0B       		.uleb128 0xb
 6554 00e8 3B       		.uleb128 0x3b
 6555 00e9 0B       		.uleb128 0xb
 6556 00ea 49       		.uleb128 0x49
 6557 00eb 13       		.uleb128 0x13
 6558 00ec 02       		.uleb128 0x2
 6559 00ed 17       		.uleb128 0x17
 6560 00ee 00       		.byte	0
 6561 00ef 00       		.byte	0
 6562 00f0 10       		.uleb128 0x10
 6563 00f1 34       		.uleb128 0x34
 6564 00f2 00       		.byte	0
 6565 00f3 03       		.uleb128 0x3
 6566 00f4 08       		.uleb128 0x8
ARM GAS  C:\Users\Misha\AppData\Local\Temp\ccDk3wxj.s 			page 132


 6567 00f5 3A       		.uleb128 0x3a
 6568 00f6 0B       		.uleb128 0xb
 6569 00f7 3B       		.uleb128 0x3b
 6570 00f8 05       		.uleb128 0x5
 6571 00f9 49       		.uleb128 0x49
 6572 00fa 13       		.uleb128 0x13
 6573 00fb 02       		.uleb128 0x2
 6574 00fc 17       		.uleb128 0x17
 6575 00fd 00       		.byte	0
 6576 00fe 00       		.byte	0
 6577 00ff 11       		.uleb128 0x11
 6578 0100 0B       		.uleb128 0xb
 6579 0101 01       		.byte	0x1
 6580 0102 55       		.uleb128 0x55
 6581 0103 17       		.uleb128 0x17
 6582 0104 01       		.uleb128 0x1
 6583 0105 13       		.uleb128 0x13
 6584 0106 00       		.byte	0
 6585 0107 00       		.byte	0
 6586 0108 12       		.uleb128 0x12
 6587 0109 34       		.uleb128 0x34
 6588 010a 00       		.byte	0
 6589 010b 03       		.uleb128 0x3
 6590 010c 0E       		.uleb128 0xe
 6591 010d 3A       		.uleb128 0x3a
 6592 010e 0B       		.uleb128 0xb
 6593 010f 3B       		.uleb128 0x3b
 6594 0110 05       		.uleb128 0x5
 6595 0111 49       		.uleb128 0x49
 6596 0112 13       		.uleb128 0x13
 6597 0113 00       		.byte	0
 6598 0114 00       		.byte	0
 6599 0115 13       		.uleb128 0x13
 6600 0116 34       		.uleb128 0x34
 6601 0117 00       		.byte	0
 6602 0118 03       		.uleb128 0x3
 6603 0119 0E       		.uleb128 0xe
 6604 011a 3A       		.uleb128 0x3a
 6605 011b 0B       		.uleb128 0xb
 6606 011c 3B       		.uleb128 0x3b
 6607 011d 05       		.uleb128 0x5
 6608 011e 49       		.uleb128 0x49
 6609 011f 13       		.uleb128 0x13
 6610 0120 3F       		.uleb128 0x3f
 6611 0121 19       		.uleb128 0x19
 6612 0122 3C       		.uleb128 0x3c
 6613 0123 19       		.uleb128 0x19
 6614 0124 00       		.byte	0
 6615 0125 00       		.byte	0
 6616 0126 14       		.uleb128 0x14
 6617 0127 35       		.uleb128 0x35
 6618 0128 00       		.byte	0
 6619 0129 49       		.uleb128 0x49
 6620 012a 13       		.uleb128 0x13
 6621 012b 00       		.byte	0
 6622 012c 00       		.byte	0
 6623 012d 15       		.uleb128 0x15
ARM GAS  C:\Users\Misha\AppData\Local\Temp\ccDk3wxj.s 			page 133


 6624 012e 34       		.uleb128 0x34
 6625 012f 00       		.byte	0
 6626 0130 03       		.uleb128 0x3
 6627 0131 0E       		.uleb128 0xe
 6628 0132 3A       		.uleb128 0x3a
 6629 0133 0B       		.uleb128 0xb
 6630 0134 3B       		.uleb128 0x3b
 6631 0135 0B       		.uleb128 0xb
 6632 0136 49       		.uleb128 0x49
 6633 0137 13       		.uleb128 0x13
 6634 0138 3F       		.uleb128 0x3f
 6635 0139 19       		.uleb128 0x19
 6636 013a 02       		.uleb128 0x2
 6637 013b 18       		.uleb128 0x18
 6638 013c 00       		.byte	0
 6639 013d 00       		.byte	0
 6640 013e 16       		.uleb128 0x16
 6641 013f 01       		.uleb128 0x1
 6642 0140 01       		.byte	0x1
 6643 0141 49       		.uleb128 0x49
 6644 0142 13       		.uleb128 0x13
 6645 0143 01       		.uleb128 0x1
 6646 0144 13       		.uleb128 0x13
 6647 0145 00       		.byte	0
 6648 0146 00       		.byte	0
 6649 0147 17       		.uleb128 0x17
 6650 0148 21       		.uleb128 0x21
 6651 0149 00       		.byte	0
 6652 014a 49       		.uleb128 0x49
 6653 014b 13       		.uleb128 0x13
 6654 014c 2F       		.uleb128 0x2f
 6655 014d 0B       		.uleb128 0xb
 6656 014e 00       		.byte	0
 6657 014f 00       		.byte	0
 6658 0150 18       		.uleb128 0x18
 6659 0151 34       		.uleb128 0x34
 6660 0152 00       		.byte	0
 6661 0153 03       		.uleb128 0x3
 6662 0154 0E       		.uleb128 0xe
 6663 0155 3A       		.uleb128 0x3a
 6664 0156 0B       		.uleb128 0xb
 6665 0157 3B       		.uleb128 0x3b
 6666 0158 0B       		.uleb128 0xb
 6667 0159 49       		.uleb128 0x49
 6668 015a 13       		.uleb128 0x13
 6669 015b 3F       		.uleb128 0x3f
 6670 015c 19       		.uleb128 0x19
 6671 015d 3C       		.uleb128 0x3c
 6672 015e 19       		.uleb128 0x19
 6673 015f 00       		.byte	0
 6674 0160 00       		.byte	0
 6675 0161 19       		.uleb128 0x19
 6676 0162 26       		.uleb128 0x26
 6677 0163 00       		.byte	0
 6678 0164 49       		.uleb128 0x49
 6679 0165 13       		.uleb128 0x13
 6680 0166 00       		.byte	0
ARM GAS  C:\Users\Misha\AppData\Local\Temp\ccDk3wxj.s 			page 134


 6681 0167 00       		.byte	0
 6682 0168 1A       		.uleb128 0x1a
 6683 0169 2E       		.uleb128 0x2e
 6684 016a 00       		.byte	0
 6685 016b 3F       		.uleb128 0x3f
 6686 016c 19       		.uleb128 0x19
 6687 016d 3C       		.uleb128 0x3c
 6688 016e 19       		.uleb128 0x19
 6689 016f 6E       		.uleb128 0x6e
 6690 0170 0E       		.uleb128 0xe
 6691 0171 03       		.uleb128 0x3
 6692 0172 0E       		.uleb128 0xe
 6693 0173 3A       		.uleb128 0x3a
 6694 0174 0B       		.uleb128 0xb
 6695 0175 3B       		.uleb128 0x3b
 6696 0176 0B       		.uleb128 0xb
 6697 0177 00       		.byte	0
 6698 0178 00       		.byte	0
 6699 0179 00       		.byte	0
 6700              		.section	.debug_loc,"",%progbits
 6701              	.Ldebug_loc0:
 6702              	.LLST0:
 6703 0000 DE010000 		.4byte	.LVL79
 6704 0004 E4010000 		.4byte	.LVL80
 6705 0008 0200     		.2byte	0x2
 6706 000a 30       		.byte	0x30
 6707 000b 9F       		.byte	0x9f
 6708 000c E4010000 		.4byte	.LVL80
 6709 0010 04020000 		.4byte	.LVL83
 6710 0014 0100     		.2byte	0x1
 6711 0016 52       		.byte	0x52
 6712 0017 00000000 		.4byte	0
 6713 001b 00000000 		.4byte	0
 6714              	.LLST1:
 6715 001f 78010000 		.4byte	.LVL65
 6716 0023 7C010000 		.4byte	.LVL66
 6717 0027 0200     		.2byte	0x2
 6718 0029 30       		.byte	0x30
 6719 002a 9F       		.byte	0x9f
 6720 002b 7C010000 		.4byte	.LVL66
 6721 002f B2010000 		.4byte	.LVL73
 6722 0033 0100     		.2byte	0x1
 6723 0035 54       		.byte	0x54
 6724 0036 00000000 		.4byte	0
 6725 003a 00000000 		.4byte	0
 6726              	.LLST2:
 6727 003e B0010000 		.4byte	.LVL72
 6728 0042 B4010000 		.4byte	.LVL74
 6729 0046 0200     		.2byte	0x2
 6730 0048 30       		.byte	0x30
 6731 0049 9F       		.byte	0x9f
 6732 004a B4010000 		.4byte	.LVL74
 6733 004e 08020000 		.4byte	.LVL85
 6734 0052 0100     		.2byte	0x1
 6735 0054 54       		.byte	0x54
 6736 0055 00000000 		.4byte	0
 6737 0059 00000000 		.4byte	0
ARM GAS  C:\Users\Misha\AppData\Local\Temp\ccDk3wxj.s 			page 135


 6738              	.LLST3:
 6739 005d DE010000 		.4byte	.LVL79
 6740 0061 E4010000 		.4byte	.LVL80
 6741 0065 0200     		.2byte	0x2
 6742 0067 30       		.byte	0x30
 6743 0068 9F       		.byte	0x9f
 6744 0069 E4010000 		.4byte	.LVL80
 6745 006d 06020000 		.4byte	.LVL84
 6746 0071 0100     		.2byte	0x1
 6747 0073 53       		.byte	0x53
 6748 0074 00000000 		.4byte	0
 6749 0078 00000000 		.4byte	0
 6750              	.LLST4:
 6751 007c 94020000 		.4byte	.LVL94
 6752 0080 7E030000 		.4byte	.LVL116
 6753 0084 0100     		.2byte	0x1
 6754 0086 55       		.byte	0x55
 6755 0087 B6030000 		.4byte	.LVL121
 6756 008b 86040000 		.4byte	.LVL142
 6757 008f 0100     		.2byte	0x1
 6758 0091 55       		.byte	0x55
 6759 0092 00000000 		.4byte	0
 6760 0096 00000000 		.4byte	0
 6761              	.LLST5:
 6762 009a 9A020000 		.4byte	.LVL95
 6763 009e 72030000 		.4byte	.LVL114
 6764 00a2 0100     		.2byte	0x1
 6765 00a4 54       		.byte	0x54
 6766 00a5 B6030000 		.4byte	.LVL121
 6767 00a9 E4030000 		.4byte	.LVL128
 6768 00ad 0100     		.2byte	0x1
 6769 00af 54       		.byte	0x54
 6770 00b0 00000000 		.4byte	0
 6771 00b4 00000000 		.4byte	0
 6772              	.LLST6:
 6773 00b8 72030000 		.4byte	.LVL114
 6774 00bc 7C030000 		.4byte	.LVL115
 6775 00c0 0100     		.2byte	0x1
 6776 00c2 50       		.byte	0x50
 6777 00c3 7C030000 		.4byte	.LVL115
 6778 00c7 98030000 		.4byte	.LVL119
 6779 00cb 0100     		.2byte	0x1
 6780 00cd 54       		.byte	0x54
 6781 00ce 00000000 		.4byte	0
 6782 00d2 00000000 		.4byte	0
 6783              	.LLST7:
 6784 00d6 E4030000 		.4byte	.LVL128
 6785 00da EE030000 		.4byte	.LVL129
 6786 00de 0100     		.2byte	0x1
 6787 00e0 50       		.byte	0x50
 6788 00e1 EE030000 		.4byte	.LVL129
 6789 00e5 0A040000 		.4byte	.LVL132
 6790 00e9 0100     		.2byte	0x1
 6791 00eb 54       		.byte	0x54
 6792 00ec 00000000 		.4byte	0
 6793 00f0 00000000 		.4byte	0
 6794              	.LLST8:
ARM GAS  C:\Users\Misha\AppData\Local\Temp\ccDk3wxj.s 			page 136


 6795 00f4 E2060000 		.4byte	.LVL184
 6796 00f8 16070000 		.4byte	.LVL190
 6797 00fc 0200     		.2byte	0x2
 6798 00fe 31       		.byte	0x31
 6799 00ff 9F       		.byte	0x9f
 6800 0100 00000000 		.4byte	0
 6801 0104 00000000 		.4byte	0
 6802              	.LLST9:
 6803 0108 D0080000 		.4byte	.LVL221
 6804 010c E8080000 		.4byte	.LVL222
 6805 0110 0100     		.2byte	0x1
 6806 0112 52       		.byte	0x52
 6807 0113 E8080000 		.4byte	.LVL222
 6808 0117 F1080000 		.4byte	.LVL223-1
 6809 011b 0500     		.2byte	0x5
 6810 011d 03       		.byte	0x3
 6811 011e 00000000 		.4byte	current_stage
 6812 0122 00000000 		.4byte	0
 6813 0126 00000000 		.4byte	0
 6814              		.section	.debug_aranges,"",%progbits
 6815 0000 34000000 		.4byte	0x34
 6816 0004 0200     		.2byte	0x2
 6817 0006 00000000 		.4byte	.Ldebug_info0
 6818 000a 04       		.byte	0x4
 6819 000b 00       		.byte	0
 6820 000c 0000     		.2byte	0
 6821 000e 0000     		.2byte	0
 6822 0010 00000000 		.4byte	.LFB64
 6823 0014 08000000 		.4byte	.LFE64-.LFB64
 6824 0018 00000000 		.4byte	.LFB65
 6825 001c 24000000 		.4byte	.LFE65-.LFB65
 6826 0020 00000000 		.4byte	.LFB66
 6827 0024 36000000 		.4byte	.LFE66-.LFB66
 6828 0028 00000000 		.4byte	.LFB67
 6829 002c 5C0A0000 		.4byte	.LFE67-.LFB67
 6830 0030 00000000 		.4byte	0
 6831 0034 00000000 		.4byte	0
 6832              		.section	.debug_ranges,"",%progbits
 6833              	.Ldebug_ranges0:
 6834 0000 DE010000 		.4byte	.LBB5
 6835 0004 E0010000 		.4byte	.LBE5
 6836 0008 E2010000 		.4byte	.LBB6
 6837 000c 02020000 		.4byte	.LBE6
 6838 0010 00000000 		.4byte	0
 6839 0014 00000000 		.4byte	0
 6840 0018 00000000 		.4byte	.LFB64
 6841 001c 08000000 		.4byte	.LFE64
 6842 0020 00000000 		.4byte	.LFB65
 6843 0024 24000000 		.4byte	.LFE65
 6844 0028 00000000 		.4byte	.LFB66
 6845 002c 36000000 		.4byte	.LFE66
 6846 0030 00000000 		.4byte	.LFB67
 6847 0034 5C0A0000 		.4byte	.LFE67
 6848 0038 00000000 		.4byte	0
 6849 003c 00000000 		.4byte	0
 6850              		.section	.debug_line,"",%progbits
 6851              	.Ldebug_line0:
ARM GAS  C:\Users\Misha\AppData\Local\Temp\ccDk3wxj.s 			page 137


 6852 0000 40050000 		.section	.debug_str,"MS",%progbits,1
 6852      02004503 
 6852      00000201 
 6852      FB0E0D00 
 6852      01010101 
 6853              	.LASF78:
 6854 0000 61726D4F 		.ascii	"armOpen\000"
 6854      70656E00 
 6855              	.LASF102:
 6856 0008 54696D65 		.ascii	"Timer_straight_adjust_Start\000"
 6856      725F7374 
 6856      72616967 
 6856      68745F61 
 6856      646A7573 
 6857              	.LASF67:
 6858 0024 756C7469 		.ascii	"ultimateDebugging\000"
 6858      6D617465 
 6858      44656275 
 6858      6767696E 
 6858      6700
 6859              	.LASF63:
 6860 0036 4D6F746F 		.ascii	"Motor_Right_Driver_WriteCompare\000"
 6860      725F5269 
 6860      6768745F 
 6860      44726976 
 6860      65725F57 
 6861              	.LASF50:
 6862 0056 7075636B 		.ascii	"puck_west_clearance\000"
 6862      5F776573 
 6862      745F636C 
 6862      65617261 
 6862      6E636500 
 6863              	.LASF64:
 6864 006a 636F6C6F 		.ascii	"colourSensingOutput\000"
 6864      75725365 
 6864      6E73696E 
 6864      674F7574 
 6864      70757400 
 6865              	.LASF70:
 6866 007e 636F6C6F 		.ascii	"colourSensingInitialise\000"
 6866      75725365 
 6866      6E73696E 
 6866      67496E69 
 6866      7469616C 
 6867              	.LASF68:
 6868 0096 73747261 		.ascii	"straightAdjust\000"
 6868      69676874 
 6868      41646A75 
 6868      737400
 6869              	.LASF2:
 6870 00a5 73686F72 		.ascii	"short int\000"
 6870      7420696E 
 6870      7400
 6871              	.LASF47:
 6872 00af 626C6F63 		.ascii	"block_east_clearance\000"
 6872      6B5F6561 
 6872      73745F63 
ARM GAS  C:\Users\Misha\AppData\Local\Temp\ccDk3wxj.s 			page 138


 6872      6C656172 
 6872      616E6365 
 6873              	.LASF98:
 6874 00c4 536F6E69 		.ascii	"Sonic_StartEx\000"
 6874      635F5374 
 6874      61727445 
 6874      7800
 6875              	.LASF95:
 6876 00d2 4D6F746F 		.ascii	"Motor_Right_Decoder_Start\000"
 6876      725F5269 
 6876      6768745F 
 6876      4465636F 
 6876      6465725F 
 6877              	.LASF103:
 6878 00ec 54696D65 		.ascii	"Timer_straight_adjust_ReadStatusRegister\000"
 6878      725F7374 
 6878      72616967 
 6878      68745F61 
 6878      646A7573 
 6879              	.LASF94:
 6880 0115 4D6F746F 		.ascii	"Motor_Left_Decoder_Start\000"
 6880      725F4C65 
 6880      66745F44 
 6880      65636F64 
 6880      65725F53 
 6881              	.LASF14:
 6882 012e 6C6F6E67 		.ascii	"long double\000"
 6882      20646F75 
 6882      626C6500 
 6883              	.LASF49:
 6884 013a 7075636B 		.ascii	"puck_east_clearance\000"
 6884      5F656173 
 6884      745F636C 
 6884      65617261 
 6884      6E636500 
 6885              	.LASF45:
 6886 014e 7075636B 		.ascii	"puck_temp_pile\000"
 6886      5F74656D 
 6886      705F7069 
 6886      6C6500
 6887              	.LASF16:
 6888 015d 53746172 		.ascii	"StartIH\000"
 6888      74494800 
 6889              	.LASF100:
 6890 0165 53747261 		.ascii	"Straight_StartEx\000"
 6890      69676874 
 6890      5F537461 
 6890      72744578 
 6890      00
 6891              	.LASF37:
 6892 0176 756C7472 		.ascii	"ultrasonic_flag\000"
 6892      61736F6E 
 6892      69635F66 
 6892      6C616700 
 6893              	.LASF88:
 6894 0186 5261636B 		.ascii	"Rack_Servo_PWM_Sleep\000"
 6894      5F536572 
ARM GAS  C:\Users\Misha\AppData\Local\Temp\ccDk3wxj.s 			page 139


 6894      766F5F50 
 6894      574D5F53 
 6894      6C656570 
 6895              	.LASF97:
 6896 019b 54696D65 		.ascii	"Timer_1_ReadStatusRegister\000"
 6896      725F315F 
 6896      52656164 
 6896      53746174 
 6896      75735265 
 6897              	.LASF86:
 6898 01b6 5261636B 		.ascii	"Rack_Servo_PWM_Start\000"
 6898      5F536572 
 6898      766F5F50 
 6898      574D5F53 
 6898      74617274 
 6899              	.LASF59:
 6900 01cb 6D6F7665 		.ascii	"moveDynamic\000"
 6900      44796E61 
 6900      6D696300 
 6901              	.LASF91:
 6902 01d7 47726970 		.ascii	"Gripper_Servo_PWM_Sleep\000"
 6902      7065725F 
 6902      53657276 
 6902      6F5F5057 
 6902      4D5F536C 
 6903              	.LASF42:
 6904 01ef 626C6F63 		.ascii	"block_location\000"
 6904      6B5F6C6F 
 6904      63617469 
 6904      6F6E00
 6905              	.LASF89:
 6906 01fe 47726970 		.ascii	"Gripper_Servo_PWM_Start\000"
 6906      7065725F 
 6906      53657276 
 6906      6F5F5057 
 6906      4D5F5374 
 6907              	.LASF24:
 6908 0216 7075636B 		.ascii	"puck_correct\000"
 6908      5F636F72 
 6908      72656374 
 6908      00
 6909              	.LASF54:
 6910 0223 756C7472 		.ascii	"ultrasonicInterruptHandler\000"
 6910      61736F6E 
 6910      6963496E 
 6910      74657272 
 6910      75707448 
 6911              	.LASF11:
 6912 023e 666C6F61 		.ascii	"float\000"
 6912      7400
 6913              	.LASF74:
 6914 0244 6368616E 		.ascii	"changeHeightToPuck\000"
 6914      67654865 
 6914      69676874 
 6914      546F5075 
 6914      636B00
 6915              	.LASF6:
ARM GAS  C:\Users\Misha\AppData\Local\Temp\ccDk3wxj.s 			page 140


 6916 0257 6C6F6E67 		.ascii	"long long int\000"
 6916      206C6F6E 
 6916      6720696E 
 6916      7400
 6917              	.LASF62:
 6918 0265 4D6F746F 		.ascii	"Motor_Right_Driver_Wakeup\000"
 6918      725F5269 
 6918      6768745F 
 6918      44726976 
 6918      65725F57 
 6919              	.LASF18:
 6920 027f 626C6F63 		.ascii	"block_and_puck_edge_midpoint\000"
 6920      6B5F616E 
 6920      645F7075 
 6920      636B5F65 
 6920      6467655F 
 6921              	.LASF58:
 6922 029c 4D6F746F 		.ascii	"Motor_Right_Driver_Sleep\000"
 6922      725F5269 
 6922      6768745F 
 6922      44726976 
 6922      65725F53 
 6923              	.LASF81:
 6924 02b5 4144435F 		.ascii	"ADC_Start\000"
 6924      53746172 
 6924      7400
 6925              	.LASF4:
 6926 02bf 6C6F6E67 		.ascii	"long int\000"
 6926      20696E74 
 6926      00
 6927              	.LASF27:
 6928 02c8 696E7465 		.ascii	"internal_orientation\000"
 6928      726E616C 
 6928      5F6F7269 
 6928      656E7461 
 6928      74696F6E 
 6929              	.LASF93:
 6930 02dd 4D6F746F 		.ascii	"Motor_Right_Driver_Start\000"
 6930      725F5269 
 6930      6768745F 
 6930      44726976 
 6930      65725F53 
 6931              	.LASF23:
 6932 02f6 6F666673 		.ascii	"offset\000"
 6932      657400
 6933              	.LASF19:
 6934 02fd 7075636B 		.ascii	"puck_construction_plan_index\000"
 6934      5F636F6E 
 6934      73747275 
 6934      6374696F 
 6934      6E5F706C 
 6935              	.LASF65:
 6936 031a 626C696E 		.ascii	"blinkLED\000"
 6936      6B4C4544 
 6936      00
 6937              	.LASF41:
 6938 0323 73616665 		.ascii	"safety_override\000"
ARM GAS  C:\Users\Misha\AppData\Local\Temp\ccDk3wxj.s 			page 141


 6938      74795F6F 
 6938      76657272 
 6938      69646500 
 6939              	.LASF80:
 6940 0333 55415254 		.ascii	"UART_1_Start\000"
 6940      5F315F53 
 6940      74617274 
 6940      00
 6941              	.LASF71:
 6942 0340 636F6E74 		.ascii	"control_photodiode_Write\000"
 6942      726F6C5F 
 6942      70686F74 
 6942      6F64696F 
 6942      64655F57 
 6943              	.LASF17:
 6944 0359 53414948 		.ascii	"SAIH\000"
 6944      00
 6945              	.LASF87:
 6946 035e 5261636B 		.ascii	"Rack_Servo_PWM_WriteCompare\000"
 6946      5F536572 
 6946      766F5F50 
 6946      574D5F57 
 6946      72697465 
 6947              	.LASF35:
 6948 037a 73746174 		.ascii	"state\000"
 6948      6500
 6949              	.LASF22:
 6950 0380 7075636B 		.ascii	"puck_threshold\000"
 6950      5F746872 
 6950      6573686F 
 6950      6C6400
 6951              	.LASF77:
 6952 038f 6368616E 		.ascii	"changeOrientation\000"
 6952      67654F72 
 6952      69656E74 
 6952      6174696F 
 6952      6E00
 6953              	.LASF1:
 6954 03a1 756E7369 		.ascii	"unsigned char\000"
 6954      676E6564 
 6954      20636861 
 6954      7200
 6955              	.LASF34:
 6956 03af 636F6C6F 		.ascii	"colour_flag\000"
 6956      75725F66 
 6956      6C616700 
 6957              	.LASF57:
 6958 03bb 4D6F746F 		.ascii	"Motor_Left_Driver_Sleep\000"
 6958      725F4C65 
 6958      66745F44 
 6958      72697665 
 6958      725F536C 
 6959              	.LASF28:
 6960 03d3 7075636B 		.ascii	"puck_rack_scans\000"
 6960      5F726163 
 6960      6B5F7363 
 6960      616E7300 
ARM GAS  C:\Users\Misha\AppData\Local\Temp\ccDk3wxj.s 			page 142


 6961              	.LASF75:
 6962 03e3 6D6F7665 		.ascii	"moveUntilPuck\000"
 6962      556E7469 
 6962      6C507563 
 6962      6B00
 6963              	.LASF92:
 6964 03f1 4D6F746F 		.ascii	"Motor_Left_Driver_Start\000"
 6964      725F4C65 
 6964      66745F44 
 6964      72697665 
 6964      725F5374 
 6965              	.LASF43:
 6966 0409 7075636B 		.ascii	"puck_location\000"
 6966      5F6C6F63 
 6966      6174696F 
 6966      6E00
 6967              	.LASF73:
 6968 0417 7472616E 		.ascii	"translateMoveDynamic\000"
 6968      736C6174 
 6968      654D6F76 
 6968      6544796E 
 6968      616D6963 
 6969              	.LASF66:
 6970 042c 73707269 		.ascii	"sprintf\000"
 6970      6E746600 
 6971              	.LASF38:
 6972 0434 7075636B 		.ascii	"puck_construction_plan\000"
 6972      5F636F6E 
 6972      73747275 
 6972      6374696F 
 6972      6E5F706C 
 6973              	.LASF83:
 6974 044b 49444143 		.ascii	"IDAC8_1_SetRange\000"
 6974      385F315F 
 6974      53657452 
 6974      616E6765 
 6974      00
 6975              	.LASF0:
 6976 045c 7369676E 		.ascii	"signed char\000"
 6976      65642063 
 6976      68617200 
 6977              	.LASF30:
 6978 0468 626C6F63 		.ascii	"block_edge_location\000"
 6978      6B5F6564 
 6978      67655F6C 
 6978      6F636174 
 6978      696F6E00 
 6979              	.LASF7:
 6980 047c 6C6F6E67 		.ascii	"long long unsigned int\000"
 6980      206C6F6E 
 6980      6720756E 
 6980      7369676E 
 6980      65642069 
 6981              	.LASF85:
 6982 0493 636F6E74 		.ascii	"control_led_Write\000"
 6982      726F6C5F 
 6982      6C65645F 
ARM GAS  C:\Users\Misha\AppData\Local\Temp\ccDk3wxj.s 			page 143


 6982      57726974 
 6982      6500
 6983              	.LASF8:
 6984 04a5 756E7369 		.ascii	"unsigned int\000"
 6984      676E6564 
 6984      20696E74 
 6984      00
 6985              	.LASF51:
 6986 04b2 69646163 		.ascii	"idac_value\000"
 6986      5F76616C 
 6986      756500
 6987              	.LASF5:
 6988 04bd 6C6F6E67 		.ascii	"long unsigned int\000"
 6988      20756E73 
 6988      69676E65 
 6988      6420696E 
 6988      7400
 6989              	.LASF82:
 6990 04cf 49444143 		.ascii	"IDAC8_1_Start\000"
 6990      385F315F 
 6990      53746172 
 6990      7400
 6991              	.LASF21:
 6992 04dd 626C6F63 		.ascii	"block_threshold\000"
 6992      6B5F7468 
 6992      72657368 
 6992      6F6C6400 
 6993              	.LASF39:
 6994 04ed 63757272 		.ascii	"current_stage\000"
 6994      656E745F 
 6994      73746167 
 6994      6500
 6995              	.LASF90:
 6996 04fb 47726970 		.ascii	"Gripper_Servo_PWM_WriteCompare\000"
 6996      7065725F 
 6996      53657276 
 6996      6F5F5057 
 6996      4D5F5772 
 6997              	.LASF79:
 6998 051a 5449415F 		.ascii	"TIA_1_Start\000"
 6998      315F5374 
 6998      61727400 
 6999              	.LASF72:
 7000 0526 64697374 		.ascii	"distanceSensor\000"
 7000      616E6365 
 7000      53656E73 
 7000      6F7200
 7001              	.LASF13:
 7002 0535 63686172 		.ascii	"char\000"
 7002      00
 7003              	.LASF107:
 7004 053a 6D61696E 		.ascii	"main\000"
 7004      00
 7005              	.LASF10:
 7006 053f 696E7433 		.ascii	"int32_t\000"
 7006      325F7400 
 7007              	.LASF76:
ARM GAS  C:\Users\Misha\AppData\Local\Temp\ccDk3wxj.s 			page 144


 7008 0547 61726D43 		.ascii	"armClose\000"
 7008      6C6F7365 
 7008      00
 7009              	.LASF52:
 7010 0550 504C414E 		.ascii	"PLAN_SCAN_VERTICAL\000"
 7010      5F534341 
 7010      4E5F5645 
 7010      52544943 
 7010      414C00
 7011              	.LASF40:
 7012 0563 636F6C6F 		.ascii	"colour_sensing_algorithm\000"
 7012      75725F73 
 7012      656E7369 
 7012      6E675F61 
 7012      6C676F72 
 7013              	.LASF36:
 7014 057c 6D6F7669 		.ascii	"moving\000"
 7014      6E6700
 7015              	.LASF96:
 7016 0583 54696D65 		.ascii	"Timer_1_Start\000"
 7016      725F315F 
 7016      53746172 
 7016      7400
 7017              	.LASF3:
 7018 0591 73686F72 		.ascii	"short unsigned int\000"
 7018      7420756E 
 7018      7369676E 
 7018      65642069 
 7018      6E7400
 7019              	.LASF48:
 7020 05a4 626C6F63 		.ascii	"block_west_clearance\000"
 7020      6B5F7765 
 7020      73745F63 
 7020      6C656172 
 7020      616E6365 
 7021              	.LASF84:
 7022 05b9 49444143 		.ascii	"IDAC8_1_SetValue\000"
 7022      385F315F 
 7022      53657456 
 7022      616C7565 
 7022      00
 7023              	.LASF105:
 7024 05ca 6D61696E 		.ascii	"main.c\000"
 7024      2E6300
 7025              	.LASF46:
 7026 05d1 62656769 		.ascii	"begin_navigation\000"
 7026      6E5F6E61 
 7026      76696761 
 7026      74696F6E 
 7026      00
 7027              	.LASF99:
 7028 05e2 53746172 		.ascii	"Start_StartEx\000"
 7028      745F5374 
 7028      61727445 
 7028      7800
 7029              	.LASF20:
 7030 05f0 7075636B 		.ascii	"puck_rack_index\000"
ARM GAS  C:\Users\Misha\AppData\Local\Temp\ccDk3wxj.s 			page 145


 7030      5F726163 
 7030      6B5F696E 
 7030      64657800 
 7031              	.LASF56:
 7032 0600 55415254 		.ascii	"UART_1_PutString\000"
 7032      5F315F50 
 7032      75745374 
 7032      72696E67 
 7032      00
 7033              	.LASF33:
 7034 0611 73656E73 		.ascii	"sensor_distances\000"
 7034      6F725F64 
 7034      69737461 
 7034      6E636573 
 7034      00
 7035              	.LASF25:
 7036 0622 68656C64 		.ascii	"heldColour\000"
 7036      436F6C6F 
 7036      757200
 7037              	.LASF29:
 7038 062d 7075636B 		.ascii	"puck_rack_west_offsets\000"
 7038      5F726163 
 7038      6B5F7765 
 7038      73745F6F 
 7038      66667365 
 7039              	.LASF108:
 7040 0644 7075636B 		.ascii	"puck_scan\000"
 7040      5F736361 
 7040      6E00
 7041              	.LASF9:
 7042 064e 5F5F696E 		.ascii	"__int32_t\000"
 7042      7433325F 
 7042      7400
 7043              	.LASF106:
 7044 0658 433A5C55 		.ascii	"C:\\Users\\Misha\\Documents\\PSoC Creator\\ECE3091_"
 7044      73657273 
 7044      5C4D6973 
 7044      68615C44 
 7044      6F63756D 
 7045 0686 47726F75 		.ascii	"Group17\\Group17RobotReal\\Group17Robot.cydsn\000"
 7045      7031375C 
 7045      47726F75 
 7045      70313752 
 7045      6F626F74 
 7046              	.LASF101:
 7047 06b2 73616665 		.ascii	"safetyDistanceCheck\000"
 7047      74794469 
 7047      7374616E 
 7047      63654368 
 7047      65636B00 
 7048              	.LASF69:
 7049 06c6 6D6F7665 		.ascii	"moveUntil\000"
 7049      556E7469 
 7049      6C00
 7050              	.LASF15:
 7051 06d0 73697A65 		.ascii	"sizetype\000"
 7051      74797065 
ARM GAS  C:\Users\Misha\AppData\Local\Temp\ccDk3wxj.s 			page 146


 7051      00
 7052              	.LASF32:
 7053 06d9 6F757470 		.ascii	"output\000"
 7053      757400
 7054              	.LASF12:
 7055 06e0 646F7562 		.ascii	"double\000"
 7055      6C6500
 7056              	.LASF53:
 7057 06e7 64697374 		.ascii	"distance_returned_global\000"
 7057      616E6365 
 7057      5F726574 
 7057      75726E65 
 7057      645F676C 
 7058              	.LASF26:
 7059 0700 49544D5F 		.ascii	"ITM_RxBuffer\000"
 7059      52784275 
 7059      66666572 
 7059      00
 7060              	.LASF104:
 7061 070d 474E5520 		.ascii	"GNU C11 5.4.1 20160609 (release) [ARM/embedded-5-br"
 7061      43313120 
 7061      352E342E 
 7061      31203230 
 7061      31363036 
 7062 0740 616E6368 		.ascii	"anch revision 237715] -mcpu=cortex-m3 -mthumb -g -O"
 7062      20726576 
 7062      6973696F 
 7062      6E203233 
 7062      37373135 
 7063 0773 67202D66 		.ascii	"g -ffunction-sections -ffat-lto-objects\000"
 7063      66756E63 
 7063      74696F6E 
 7063      2D736563 
 7063      74696F6E 
 7064              	.LASF55:
 7065 079b 43794465 		.ascii	"CyDelay\000"
 7065      6C617900 
 7066              	.LASF44:
 7067 07a3 63757272 		.ascii	"current_puck_stack_size\000"
 7067      656E745F 
 7067      7075636B 
 7067      5F737461 
 7067      636B5F73 
 7068              	.LASF31:
 7069 07bb 696E6974 		.ascii	"initialisation\000"
 7069      69616C69 
 7069      73617469 
 7069      6F6E00
 7070              	.LASF61:
 7071 07ca 4D6F746F 		.ascii	"Motor_Left_Driver_WriteCompare\000"
 7071      725F4C65 
 7071      66745F44 
 7071      72697665 
 7071      725F5772 
 7072              	.LASF60:
 7073 07e9 4D6F746F 		.ascii	"Motor_Left_Driver_Wakeup\000"
 7073      725F4C65 
ARM GAS  C:\Users\Misha\AppData\Local\Temp\ccDk3wxj.s 			page 147


 7073      66745F44 
 7073      72697665 
 7073      725F5761 
 7074              		.ident	"GCC: (GNU Tools for ARM Embedded Processors) 5.4.1 20160609 (release) [ARM/embedded-5-bran
