ARM GAS  C:\Users\Misha\AppData\Local\Temp\ccYm0xvZ.s 			page 1


   1              		.syntax unified
   2              		.cpu cortex-m3
   3              		.fpu softvfp
   4              		.eabi_attribute 20, 1
   5              		.eabi_attribute 21, 1
   6              		.eabi_attribute 23, 3
   7              		.eabi_attribute 24, 1
   8              		.eabi_attribute 25, 1
   9              		.eabi_attribute 26, 1
  10              		.eabi_attribute 30, 1
  11              		.eabi_attribute 34, 1
  12              		.eabi_attribute 18, 4
  13              		.thumb
  14              		.syntax unified
  15              		.file	"main.c"
  16              		.text
  17              	.Ltext0:
  18              		.cfi_sections	.debug_frame
  19              		.section	.text.TIH,"ax",%progbits
  20              		.align	2
  21              		.global	TIH
  22              		.thumb
  23              		.thumb_func
  24              		.type	TIH, %function
  25              	TIH:
  26              	.LFB64:
  27              		.file 1 "main.c"
   1:main.c        ****  
   2:main.c        **** /* ========================================
   3:main.c        ****  *
   4:main.c        ****  * Copyright Group 17, 2019
   5:main.c        ****  * All Rights Reserved
   6:main.c        ****  * UNPUBLISHED, LICENSED SOFTWARE.
   7:main.c        ****  *
   8:main.c        ****  * CONFIDENTIAL AND PROPRIETARY INFORMATION
   9:main.c        ****  * WHICH IS THE PROPERTY OF Blayke, Misha, Nidhin.
  10:main.c        ****  *
  11:main.c        ****  * ========================================
  12:main.c        **** */
  13:main.c        **** 
  14:main.c        **** // * PSOC LIBRARY * //
  15:main.c        **** #include "project.h"
  16:main.c        **** 
  17:main.c        **** // * C LIBRARIES * // 
  18:main.c        **** #include <stdlib.h>
  19:main.c        **** #include <stdio.h>
  20:main.c        **** #include <math.h>
  21:main.c        **** 
  22:main.c        **** // * OUR LIBRARIES * //
  23:main.c        **** #include "main.h"
  24:main.c        **** #include "colour.h"
  25:main.c        **** #include "ultrasonic.h" 
  26:main.c        **** #include "servo.h"
  27:main.c        **** #include "motor.h"
  28:main.c        **** #include "customMath.h"
  29:main.c        **** #include "navigation.h"
  30:main.c        **** #include "debugging.h"
ARM GAS  C:\Users\Misha\AppData\Local\Temp\ccYm0xvZ.s 			page 2


  31:main.c        **** 
  32:main.c        **** 
  33:main.c        **** extern char output[32];   
  34:main.c        **** 
  35:main.c        **** // * STATE VARIABLES * //
  36:main.c        **** int state = STATE_PRE_RUN;
  37:main.c        **** int running = 1;
  38:main.c        **** int sweeping = 0;
  39:main.c        **** float block_edge_location[4] = {0,0,0,0}; // N E S W edge positions respectively
  40:main.c        **** 
  41:main.c        **** // * PUCK CONSTRUCTION VARIABLES * //
  42:main.c        **** int currentPuckStackSize = 0; // How many pucks are currently on the construction plate
  43:main.c        **** int puckRackColours[5] = {BLANK,BLANK,BLANK,BLANK,BLANK}; // 5 slots in puck rack.
  44:main.c        **** int puckConstructionPlan[3] = {BLANK,BLANK,BLANK};
  45:main.c        **** int currentPuckRackScanningIndex = 0;
  46:main.c        **** int puckRackOffsetsFromWest[5] = {PUCK_RACK_0_WEST_DISTANCE,
  47:main.c        ****                                 PUCK_RACK_1_WEST_DISTANCE,
  48:main.c        ****                                 PUCK_RACK_2_WEST_DISTANCE,
  49:main.c        ****                                 PUCK_RACK_3_WEST_DISTANCE,
  50:main.c        ****                                 PUCK_RACK_4_WEST_DISTANCE };
  51:main.c        **** 
  52:main.c        **** int puckColoursTempPile[2] = {BLANK,BLANK}; // Index 0 refers to east home base edge, 1 refers to w
  53:main.c        **** 
  54:main.c        **** float horizontalPuckGrid = 0;
  55:main.c        **** 
  56:main.c        **** // * NAVIGATION AND POSITION VARIABLES * //
  57:main.c        **** 
  58:main.c        **** int beginNavigation = 0; // Allow us to break out of the intial phase when powered up
  59:main.c        **** int pathToPucks; // This will give us a corridor/ that we should initially take when trying to go t
  60:main.c        **** int pathPastBlock;
  61:main.c        **** int block_location[4] = {0,0,0,0};      // The block location values
  62:main.c        ****                                         //#define NORTH 0
  63:main.c        ****                                         //#define EAST 1
  64:main.c        ****                                         //#define SOUTH 2
  65:main.c        ****                                         //#define WEST 3
  66:main.c        **** int puck_location[4] = {0,0,0,0};       // The block location values
  67:main.c        ****                                         //#define NORTH 0
  68:main.c        ****                                         //#define EAST 1
  69:main.c        ****                                         //#define SOUTH 2
  70:main.c        ****                                         //#define WEST 3
  71:main.c        **** 
  72:main.c        **** int safety_override = FALSE;            
  73:main.c        **** 
  74:main.c        **** // These block clearance variables are only true if we have enough room either side of the block to
  75:main.c        **** // And only true for the puck clearance variables if there is enough room to be able to turn at the
  76:main.c        **** short int blockEastClearance = 0;
  77:main.c        **** short int blockWestClearance = 0;
  78:main.c        **** short int puckEastClearance = 0;
  79:main.c        **** short int puckWestClearance = 0;
  80:main.c        **** 
  81:main.c        **** // * COLOUR VARIABLES * //
  82:main.c        **** 
  83:main.c        **** int idac_value = 0;  
  84:main.c        **** int colour_flag = 1;                    // sets which photodiode to use 
  85:main.c        **** int colour_sensing_algorithm = 0;      // Determines which colour sensing algorithm to use:
  86:main.c        ****                                                 // 0: Wall algorithm
  87:main.c        ****                                             // 1: Claw algorithm
ARM GAS  C:\Users\Misha\AppData\Local\Temp\ccYm0xvZ.s 			page 3


  88:main.c        ****                                                 // 2: old algorithm
  89:main.c        **** 
  90:main.c        **** int moving = 0; // Temp to stop while loop from repeated runs of scanning plan code
  91:main.c        **** 
  92:main.c        **** const int PLAN_SCAN_VERTICAL = 10; // Set to ultrasonic distance at the home base 
  93:main.c        **** 
  94:main.c        **** int current_stage = 1;      // There are 3 stages, we start at 1
  95:main.c        **** 
  96:main.c        **** 
  97:main.c        **** // GLOBAL VARIABLE
  98:main.c        **** int distance_returned_global;
  99:main.c        **** 
 100:main.c        **** 
 101:main.c        **** // * INTERRUPT HANDLING * // 
 102:main.c        **** CY_ISR(TIH)                             // Ultrasonic ISR Definition
 103:main.c        **** {
  28              		.loc 1 103 0
  29              		.cfi_startproc
  30              		@ args = 0, pretend = 0, frame = 0
  31              		@ frame_needed = 0, uses_anonymous_args = 0
  32 0000 08B5     		push	{r3, lr}
  33              		.cfi_def_cfa_offset 8
  34              		.cfi_offset 3, -8
  35              		.cfi_offset 14, -4
 104:main.c        ****     ultrasonicInterruptHandler();
  36              		.loc 1 104 0
  37 0002 FFF7FEFF 		bl	ultrasonicInterruptHandler
  38              	.LVL0:
  39 0006 08BD     		pop	{r3, pc}
  40              		.cfi_endproc
  41              	.LFE64:
  42              		.size	TIH, .-TIH
  43              		.section	.text.StartIH,"ax",%progbits
  44              		.align	2
  45              		.global	StartIH
  46              		.thumb
  47              		.thumb_func
  48              		.type	StartIH, %function
  49              	StartIH:
  50              	.LFB65:
 105:main.c        **** }
 106:main.c        **** 
 107:main.c        **** CY_ISR(StartIH)                             // Ultrasonic ISR Definition
 108:main.c        **** {
  51              		.loc 1 108 0
  52              		.cfi_startproc
  53              		@ args = 0, pretend = 0, frame = 0
  54              		@ frame_needed = 0, uses_anonymous_args = 0
  55 0000 08B5     		push	{r3, lr}
  56              		.cfi_def_cfa_offset 8
  57              		.cfi_offset 3, -8
  58              		.cfi_offset 14, -4
 109:main.c        ****     CyDelay(100);
  59              		.loc 1 109 0
  60 0002 6420     		movs	r0, #100
  61 0004 FFF7FEFF 		bl	CyDelay
  62              	.LVL1:
ARM GAS  C:\Users\Misha\AppData\Local\Temp\ccYm0xvZ.s 			page 4


 110:main.c        ****     if (beginNavigation){
  63              		.loc 1 110 0
  64 0008 044B     		ldr	r3, .L6
  65 000a 1B68     		ldr	r3, [r3]
  66 000c 2BB1     		cbz	r3, .L3
 111:main.c        ****         UART_1_PutString("Beginning Navigation \n");
  67              		.loc 1 111 0
  68 000e 0448     		ldr	r0, .L6+4
  69 0010 FFF7FEFF 		bl	UART_1_PutString
  70              	.LVL2:
 112:main.c        ****         //state = STATE_SCAN_PLAN; 
 113:main.c        ****         state = STATE_LOCATE_BLOCK_AND_PUCKS;
  71              		.loc 1 113 0
  72 0014 0222     		movs	r2, #2
  73 0016 014B     		ldr	r3, .L6
  74 0018 5A60     		str	r2, [r3, #4]
  75              	.L3:
  76 001a 08BD     		pop	{r3, pc}
  77              	.L7:
  78              		.align	2
  79              	.L6:
  80 001c 00000000 		.word	.LANCHOR0
  81 0020 00000000 		.word	.LC0
  82              		.cfi_endproc
  83              	.LFE65:
  84              		.size	StartIH, .-StartIH
  85              		.global	__aeabi_i2d
  86              		.global	__aeabi_dmul
  87              		.global	__aeabi_d2iz
  88              		.section	.text.main,"ax",%progbits
  89              		.align	2
  90              		.global	main
  91              		.thumb
  92              		.thumb_func
  93              		.type	main, %function
  94              	main:
  95              	.LFB66:
 114:main.c        ****     }
 115:main.c        **** }
 116:main.c        ****  
 117:main.c        **** 
 118:main.c        **** int main(void)
 119:main.c        **** {
  96              		.loc 1 119 0
  97              		.cfi_startproc
  98              		@ args = 0, pretend = 0, frame = 0
  99              		@ frame_needed = 0, uses_anonymous_args = 0
 100 0000 2DE9F047 		push	{r4, r5, r6, r7, r8, r9, r10, lr}
 101              		.cfi_def_cfa_offset 32
 102              		.cfi_offset 4, -32
 103              		.cfi_offset 5, -28
 104              		.cfi_offset 6, -24
 105              		.cfi_offset 7, -20
 106              		.cfi_offset 8, -16
 107              		.cfi_offset 9, -12
 108              		.cfi_offset 10, -8
 109              		.cfi_offset 14, -4
ARM GAS  C:\Users\Misha\AppData\Local\Temp\ccYm0xvZ.s 			page 5


 110 0004 82B0     		sub	sp, sp, #8
 111              		.cfi_def_cfa_offset 40
 120:main.c        ****     CyGlobalIntEnable; /* Enable global interrupts. */
 112              		.loc 1 120 0
 113              		.syntax unified
 114              	@ 120 "main.c" 1
 115 0006 62B6     		CPSIE   i
 116              	@ 0 "" 2
 121:main.c        **** 
 122:main.c        ****     
 123:main.c        ****     TIA_1_Start();
 117              		.loc 1 123 0
 118              		.thumb
 119              		.syntax unified
 120 0008 FFF7FEFF 		bl	TIA_1_Start
 121              	.LVL3:
 124:main.c        ****     UART_1_Start();
 122              		.loc 1 124 0
 123 000c FFF7FEFF 		bl	UART_1_Start
 124              	.LVL4:
 125:main.c        ****     UART_1_PutString("UART commencing... \n");
 125              		.loc 1 125 0
 126 0010 B848     		ldr	r0, .L51
 127 0012 FFF7FEFF 		bl	UART_1_PutString
 128              	.LVL5:
 126:main.c        ****     ADC_Start();
 129              		.loc 1 126 0
 130 0016 FFF7FEFF 		bl	ADC_Start
 131              	.LVL6:
 127:main.c        ****     IDAC8_1_Start();
 132              		.loc 1 127 0
 133 001a FFF7FEFF 		bl	IDAC8_1_Start
 134              	.LVL7:
 128:main.c        ****     
 129:main.c        ****     // DEBUGGING:
 130:main.c        ****         // Moved to debugging.c file, set it there
 131:main.c        ****     
 132:main.c        ****     
 133:main.c        ****     // IDAC initialisation: 
 134:main.c        ****     IDAC8_1_SetRange(IDAC8_1_RANGE_32uA);       // Sets the range between 0 and 32uA
 135              		.loc 1 134 0
 136 001e 0020     		movs	r0, #0
 137 0020 FFF7FEFF 		bl	IDAC8_1_SetRange
 138              	.LVL8:
 135:main.c        ****     IDAC8_1_SetValue(idac_value);               // set a value between 0 and 255
 139              		.loc 1 135 0
 140 0024 B44C     		ldr	r4, .L51+4
 141 0026 207A     		ldrb	r0, [r4, #8]	@ zero_extendqisi2
 142 0028 FFF7FEFF 		bl	IDAC8_1_SetValue
 143              	.LVL9:
 136:main.c        ****     
 137:main.c        ****     // Colour Sensing Initialisation & Debugging:
 138:main.c        ****     colour_sensing_algorithm = 0;
 144              		.loc 1 138 0
 145 002c 0025     		movs	r5, #0
 146 002e E560     		str	r5, [r4, #12]
 139:main.c        ****     control_photodiode_Write(colour_sensing_algorithm);            // controls which photodiode is 
ARM GAS  C:\Users\Misha\AppData\Local\Temp\ccYm0xvZ.s 			page 6


 147              		.loc 1 139 0
 148 0030 2846     		mov	r0, r5
 149 0032 FFF7FEFF 		bl	control_photodiode_Write
 150              	.LVL10:
 140:main.c        ****                                                 // 0: wall
 141:main.c        ****                                                 // 1: claw
 142:main.c        ****     control_led_Write(1);   CyDelay(500);  // Ensures all the RGBs are working
 151              		.loc 1 142 0
 152 0036 0120     		movs	r0, #1
 153 0038 FFF7FEFF 		bl	control_led_Write
 154              	.LVL11:
 155 003c 4FF4FA70 		mov	r0, #500
 156 0040 FFF7FEFF 		bl	CyDelay
 157              	.LVL12:
 143:main.c        ****     control_led_Write(2);   CyDelay(500);
 158              		.loc 1 143 0
 159 0044 0220     		movs	r0, #2
 160 0046 FFF7FEFF 		bl	control_led_Write
 161              	.LVL13:
 162 004a 4FF4FA70 		mov	r0, #500
 163 004e FFF7FEFF 		bl	CyDelay
 164              	.LVL14:
 144:main.c        ****     control_led_Write(3);   CyDelay(500);
 165              		.loc 1 144 0
 166 0052 0320     		movs	r0, #3
 167 0054 FFF7FEFF 		bl	control_led_Write
 168              	.LVL15:
 169 0058 4FF4FA70 		mov	r0, #500
 170 005c FFF7FEFF 		bl	CyDelay
 171              	.LVL16:
 145:main.c        ****     control_led_Write(0);   CyDelay(500);
 172              		.loc 1 145 0
 173 0060 2846     		mov	r0, r5
 174 0062 FFF7FEFF 		bl	control_led_Write
 175              	.LVL17:
 176 0066 4FF4FA70 		mov	r0, #500
 177 006a FFF7FEFF 		bl	CyDelay
 178              	.LVL18:
 146:main.c        ****     colourSensingInitialise();                  // Initialises the colour sensor
 179              		.loc 1 146 0
 180 006e FFF7FEFF 		bl	colourSensingInitialise
 181              	.LVL19:
 147:main.c        ****     
 148:main.c        **** 
 149:main.c        ****     //Servos for the arm instatination
 150:main.c        ****     Rack_Servo_PWM_Start();
 182              		.loc 1 150 0
 183 0072 FFF7FEFF 		bl	Rack_Servo_PWM_Start
 184              	.LVL20:
 151:main.c        ****     Rack_Servo_PWM_WriteCompare(1000);          // BRINGs rack to highest position, so not to mess 
 185              		.loc 1 151 0
 186 0076 4FF47A70 		mov	r0, #1000
 187 007a FFF7FEFF 		bl	Rack_Servo_PWM_WriteCompare
 188              	.LVL21:
 152:main.c        ****     CyDelay(500);
 189              		.loc 1 152 0
 190 007e 4FF4FA70 		mov	r0, #500
ARM GAS  C:\Users\Misha\AppData\Local\Temp\ccYm0xvZ.s 			page 7


 191 0082 FFF7FEFF 		bl	CyDelay
 192              	.LVL22:
 153:main.c        ****     Rack_Servo_PWM_Sleep();
 193              		.loc 1 153 0
 194 0086 FFF7FEFF 		bl	Rack_Servo_PWM_Sleep
 195              	.LVL23:
 154:main.c        ****     
 155:main.c        ****     Gripper_Servo_PWM_Start();
 196              		.loc 1 155 0
 197 008a FFF7FEFF 		bl	Gripper_Servo_PWM_Start
 198              	.LVL24:
 156:main.c        ****     Gripper_Servo_PWM_WriteCompare(1120);       //This is the open gripper position
 199              		.loc 1 156 0
 200 008e 4FF48C60 		mov	r0, #1120
 201 0092 FFF7FEFF 		bl	Gripper_Servo_PWM_WriteCompare
 202              	.LVL25:
 157:main.c        ****     CyDelay(500);
 203              		.loc 1 157 0
 204 0096 4FF4FA70 		mov	r0, #500
 205 009a FFF7FEFF 		bl	CyDelay
 206              	.LVL26:
 158:main.c        ****     Gripper_Servo_PWM_Sleep();
 207              		.loc 1 158 0
 208 009e FFF7FEFF 		bl	Gripper_Servo_PWM_Sleep
 209              	.LVL27:
 159:main.c        ****     
 160:main.c        ****     // Motors Initialisation:
 161:main.c        ****     Motor_Left_Driver_Start();
 210              		.loc 1 161 0
 211 00a2 FFF7FEFF 		bl	Motor_Left_Driver_Start
 212              	.LVL28:
 162:main.c        ****     Motor_Right_Driver_Start();
 213              		.loc 1 162 0
 214 00a6 FFF7FEFF 		bl	Motor_Right_Driver_Start
 215              	.LVL29:
 163:main.c        ****     Motor_Left_Driver_WriteCompare(0);          // sets the motors to 0 so it will be smooth next t
 216              		.loc 1 163 0
 217 00aa 2846     		mov	r0, r5
 218 00ac FFF7FEFF 		bl	Motor_Left_Driver_WriteCompare
 219              	.LVL30:
 164:main.c        ****     Motor_Right_Driver_WriteCompare(0);
 220              		.loc 1 164 0
 221 00b0 2846     		mov	r0, r5
 222 00b2 FFF7FEFF 		bl	Motor_Right_Driver_WriteCompare
 223              	.LVL31:
 165:main.c        ****     Motor_Left_Driver_Sleep();                  // Puts motor to sleep
 224              		.loc 1 165 0
 225 00b6 FFF7FEFF 		bl	Motor_Left_Driver_Sleep
 226              	.LVL32:
 166:main.c        ****     Motor_Right_Driver_Sleep();                 // Puts motor to sleep
 227              		.loc 1 166 0
 228 00ba FFF7FEFF 		bl	Motor_Right_Driver_Sleep
 229              	.LVL33:
 167:main.c        ****     
 168:main.c        ****     Motor_Left_Decoder_Start();
 230              		.loc 1 168 0
 231 00be FFF7FEFF 		bl	Motor_Left_Decoder_Start
ARM GAS  C:\Users\Misha\AppData\Local\Temp\ccYm0xvZ.s 			page 8


 232              	.LVL34:
 169:main.c        ****     Motor_Right_Decoder_Start();
 233              		.loc 1 169 0
 234 00c2 FFF7FEFF 		bl	Motor_Right_Decoder_Start
 235              	.LVL35:
 170:main.c        ****     
 171:main.c        ****     internal_orientation = WEST;                // robot initial starts in the East direction
 236              		.loc 1 171 0
 237 00c6 0326     		movs	r6, #3
 238 00c8 8C4B     		ldr	r3, .L51+8
 239 00ca 1E60     		str	r6, [r3]
 172:main.c        ****     
 173:main.c        ****     // Timer and ISR instantiation
 174:main.c        ****     Timer_1_Start();                
 240              		.loc 1 174 0
 241 00cc FFF7FEFF 		bl	Timer_1_Start
 242              	.LVL36:
 175:main.c        ****     Timer_1_ReadStatusRegister();
 243              		.loc 1 175 0
 244 00d0 FFF7FEFF 		bl	Timer_1_ReadStatusRegister
 245              	.LVL37:
 176:main.c        ****     Sonic_StartEx(TIH);
 246              		.loc 1 176 0
 247 00d4 8A48     		ldr	r0, .L51+12
 248 00d6 FFF7FEFF 		bl	Sonic_StartEx
 249              	.LVL38:
 177:main.c        ****     Start_StartEx(StartIH);
 250              		.loc 1 177 0
 251 00da 8A48     		ldr	r0, .L51+16
 252 00dc FFF7FEFF 		bl	Start_StartEx
 253              	.LVL39:
 178:main.c        ****     beginNavigation = 1; // Set to true after it has run ISR at least once
 254              		.loc 1 178 0
 255 00e0 0127     		movs	r7, #1
 256 00e2 2760     		str	r7, [r4]
 179:main.c        ****     
 180:main.c        ****     // Ultrasonic Initialisation & Calibration:
 181:main.c        ****     // The ultrasonics take several test measurements to ensure they are working
 182:main.c        ****         
 183:main.c        ****     UART_1_PutString("Ultrasonic Calibration tests: \n");
 257              		.loc 1 183 0
 258 00e4 8848     		ldr	r0, .L51+20
 259 00e6 FFF7FEFF 		bl	UART_1_PutString
 260              	.LVL40:
 184:main.c        ****     safetyDistanceCheck();
 261              		.loc 1 184 0
 262 00ea FFF7FEFF 		bl	safetyDistanceCheck
 263              	.LVL41:
 185:main.c        ****     safetyDistanceCheck();
 264              		.loc 1 185 0
 265 00ee FFF7FEFF 		bl	safetyDistanceCheck
 266              	.LVL42:
 186:main.c        ****     safetyDistanceCheck();
 267              		.loc 1 186 0
 268 00f2 FFF7FEFF 		bl	safetyDistanceCheck
 269              	.LVL43:
 187:main.c        ****     
ARM GAS  C:\Users\Misha\AppData\Local\Temp\ccYm0xvZ.s 			page 9


 188:main.c        ****     // Straight adjust timer: 
 189:main.c        ****     Timer_straight_adjust_Start();                
 270              		.loc 1 189 0
 271 00f6 FFF7FEFF 		bl	Timer_straight_adjust_Start
 272              	.LVL44:
 190:main.c        ****     Timer_straight_adjust_ReadStatusRegister();
 273              		.loc 1 190 0
 274 00fa FFF7FEFF 		bl	Timer_straight_adjust_ReadStatusRegister
 275              	.LVL45:
 191:main.c        ****     Control_Reset_Straight_Write(0);
 276              		.loc 1 191 0
 277 00fe 2846     		mov	r0, r5
 278 0100 FFF7FEFF 		bl	Control_Reset_Straight_Write
 279              	.LVL46:
 192:main.c        ****     
 193:main.c        ****     // FORCING STATE:
 194:main.c        ****     // Manual state set for testing
 195:main.c        ****     state = STATE_PRE_RUN;
 280              		.loc 1 195 0
 281 0104 6560     		str	r5, [r4, #4]
 196:main.c        ****     puckConstructionPlan[0] = RED;
 282              		.loc 1 196 0
 283 0106 2761     		str	r7, [r4, #16]
 197:main.c        ****     puckConstructionPlan[1] = GREEN;
 284              		.loc 1 197 0
 285 0108 0223     		movs	r3, #2
 286 010a 6361     		str	r3, [r4, #20]
 198:main.c        ****     puckConstructionPlan[2] = BLUE;
 287              		.loc 1 198 0
 288 010c A661     		str	r6, [r4, #24]
 289              	.LVL47:
 290              	.L47:
 199:main.c        ****     int block_and_puck_edge_midpoint = 0;
 200:main.c        ****     
 201:main.c        **** 
 202:main.c        ****     // Main Loop for States
 203:main.c        ****     
 204:main.c        ****     //while(1){}
 205:main.c        ****     
 206:main.c        ****     for(;;)
 207:main.c        ****     {
 208:main.c        **** 
 209:main.c        ****         if (state == STATE_PRE_RUN){
 210:main.c        ****         
 211:main.c        ****         }
 212:main.c        ****         
 213:main.c        ****         //changeOrientation(SOUTH, SPEED);
 214:main.c        ****         //changeOrientation(NORTH, SPEED);
 215:main.c        ****         //changeOrientation(WEST, SPEED);
 216:main.c        ****         
 217:main.c        ****         //while(1) {}
 218:main.c        ****         
 219:main.c        **** 
 220:main.c        ****         
 221:main.c        ****         
 222:main.c        ****         while(0) {
 223:main.c        ****                 UART_1_PutString("turning left\n");
ARM GAS  C:\Users\Misha\AppData\Local\Temp\ccYm0xvZ.s 			page 10


 224:main.c        ****                 moveSwivel(-25,20,FALSE);
 225:main.c        ****                 UART_1_PutString("turning right \n");
 226:main.c        ****                 moveSwivel(25,20,FALSE);
 227:main.c        ****         }
 228:main.c        ****         
 229:main.c        ****         while(0){
 230:main.c        ****             distanceSensor(SIDE_LEFT);
 231:main.c        ****             CyDelay(60);
 232:main.c        ****             sprintf(output, "%d \t", ultrasonic_distances_mm[SIDE_LEFT]);
 233:main.c        ****             UART_1_PutString(output);
 234:main.c        ****         }
 235:main.c        ****         
 236:main.c        ****         
 237:main.c        ****         
 238:main.c        ****         
 239:main.c        ****         
 240:main.c        ****         //changeHeightToPuck(GROUND,NEITHER);
 241:main.c        ****         //moveUntilPuck(CLAW_BLACK_PUCK_ALGORITHM);
 242:main.c        ****         //translateUntil(150, LEFT, LESS_THAN, SIDE_LEFT, SPEED);
 243:main.c        ****         
 244:main.c        ****         //while(1);
 245:main.c        ****         
 246:main.c        ****        
 247:main.c        ****         
 248:main.c        ****         /*
 249:main.c        ****         for (int i = 0; i < 6; i++) {
 250:main.c        ****             translateMoveDynamic(10, -15, 100, FALSE);      // This will translate to the right by 
 251:main.c        ****         }
 252:main.c        ****         
 253:main.c        ****         for (int i = 0; i < 6; i++) {
 254:main.c        ****             translateMoveDynamic(-10, 15, 100, FALSE);      // This will translate to the left by o
 255:main.c        ****         }
 256:main.c        ****         */
 257:main.c        ****         
 258:main.c        ****         
 259:main.c        ****         // checks the distance measured by the ultrasonic
 260:main.c        ****         //moveDynamic(move,SPEED,TRUE);
 261:main.c        ****         //moveDynamic(-move,SPEED,TRUE);
 262:main.c        ****         
 263:main.c        ****         // wasnt moving for some of the tests 
 264:main.c        ****             
 265:main.c        ****         
 266:main.c        ****     
 267:main.c        ****         // Start button is pressed so quit sensing
 268:main.c        **** 
 269:main.c        ****         
 270:main.c        ****         /*
 271:main.c        ****         while (beginNavigation == 0) {
 272:main.c        ****             distanceCheck();           
 273:main.c        ****             UART_1_PutString("\n");
 274:main.c        ****             CyDelay(1000); // Check distance once a second.
 275:main.c        ****                 
 276:main.c        ****         }
 277:main.c        ****         */
 278:main.c        ****         
 279:main.c        ****         
 280:main.c        ****         
ARM GAS  C:\Users\Misha\AppData\Local\Temp\ccYm0xvZ.s 			page 11


 281:main.c        ****         
 282:main.c        ****         
 283:main.c        ****         // Enter picking up puck state for the moment FOR TESTING
 284:main.c        ****         //colour_sensing_algorithm = 1;
 285:main.c        ****         //control_photodiode_Write(1);
 286:main.c        ****         //state = STATE_FIND_REQUIRED_PUCK;
 287:main.c        ****         
 288:main.c        ****         
 289:main.c        ****      
 290:main.c        ****         
 291:main.c        ****         //state = STATE_FIND_REQUIRED_PUCK;
 292:main.c        ****         
 293:main.c        ****         //moveUntil(100,FORWARD,GREATER_THAN,SIDE_LEFT,SPEED);
 294:main.c        ****         
 295:main.c        ****         //while(1) {};
 296:main.c        ****         
 297:main.c        ****         
 298:main.c        ****         // state = STATE_LOCATE_BLOCK_AND_PUCKS;
 299:main.c        ****         
 300:main.c        ****         
 301:main.c        ****         //UART_1_PutString("hI");
 302:main.c        ****         
 303:main.c        ****         //changeOrientation(NORTH, SPEED);
 304:main.c        ****         //changeOrientation(WEST, SPEED);
 305:main.c        ****                 
 306:main.c        ****         //state = STATE_DEPOSIT_PUCK;
 307:main.c        ****         //currentPuckStackSize = 2;
 308:main.c        ****         //current_stage = 3;
 309:main.c        ****          
 310:main.c        **** //
 311:main.c        **** // *** 1. STATE SCAN PLAN: *** // 
 312:main.c        **** //
 313:main.c        ****         
 314:main.c        **** 
 315:main.c        ****         
 316:main.c        ****         
 317:main.c        ****         
 318:main.c        ****         if (state == STATE_SCAN_PLAN) {              // colour sensing, while switch has not been p
 291              		.loc 1 318 0
 292 010e 7A4B     		ldr	r3, .L51+4
 293 0110 5B68     		ldr	r3, [r3, #4]
 294 0112 012B     		cmp	r3, #1
 295 0114 4FD1     		bne	.L9
 296              	.LBB2:
 319:main.c        ****             
 320:main.c        ****             
 321:main.c        ****             
 322:main.c        ****             // Debugging: 
 323:main.c        ****         
 324:main.c        ****             ultimateDebugging();        // If any of the debugging flags are activated, this will b
 297              		.loc 1 324 0
 298 0116 FFF7FEFF 		bl	ultimateDebugging
 299              	.LVL48:
 325:main.c        **** 
 326:main.c        ****             
 327:main.c        ****             
 328:main.c        ****             // Checking translating function:
ARM GAS  C:\Users\Misha\AppData\Local\Temp\ccYm0xvZ.s 			page 12


 329:main.c        ****             
 330:main.c        ****             //straightAdjust();
 331:main.c        ****             //blinkLED(GREEN,1000);
 332:main.c        ****             //moveSwivel(180, SPEED_LOW, FALSE);
 333:main.c        ****             //straightAdjustBack();
 334:main.c        ****             //blinkLED(GREEN, 1000);
 335:main.c        ****             
 336:main.c        ****             //while(1) {}
 337:main.c        ****             
 338:main.c        ****             // TRUE START:
 339:main.c        ****                 
 340:main.c        ****             
 341:main.c        ****             while(0){
 342:main.c        ****                 moveUntil(400, FORWARD, LESS_THAN, FRONT_LEFT, SPEED, TRUE);
 343:main.c        ****                 moveDynamic(-450, SPEED, TRUE);
 344:main.c        ****                 CyDelay(500);   
 345:main.c        ****                 colourSensingInitialise();      // Initialises wall colour sensor against the black
 346:main.c        ****                 CyDelay(500);
 347:main.c        ****                 moveDynamic(170, SPEED, TRUE);
 348:main.c        ****                 CyDelay(500);
 349:main.c        ****                 
 350:main.c        ****                 
 351:main.c        ****                 
 352:main.c        ****                 for (int i = 0; i < 5; i++) {                       // scan each of the pucks 
 353:main.c        ****                     puckRackColours[i] = colourSensingOutput();
 354:main.c        ****                     CyDelay(500);
 355:main.c        ****                     moveDynamic(61, SPEED, TRUE);
 356:main.c        ****                     CyDelay(500);
 357:main.c        ****                 }
 358:main.c        ****             
 359:main.c        ****             }
 360:main.c        **** 
 361:main.c        **** 
 362:main.c        ****             
 363:main.c        ****             straightAdjust(FRONT_SENSORS);
 300              		.loc 1 363 0
 301 011a 0720     		movs	r0, #7
 302 011c FFF7FEFF 		bl	straightAdjust
 303              	.LVL49:
 364:main.c        ****             moveUntil(-100, BACKWARD, LESS_THAN, BACK, SPEED, TRUE);
 304              		.loc 1 364 0
 305 0120 0123     		movs	r3, #1
 306 0122 0193     		str	r3, [sp, #4]
 307 0124 C823     		movs	r3, #200
 308 0126 0093     		str	r3, [sp]
 309 0128 0423     		movs	r3, #4
 310 012a 1A46     		mov	r2, r3
 311 012c 0021     		movs	r1, #0
 312 012e 6FF06300 		mvn	r0, #99
 313 0132 FFF7FEFF 		bl	moveUntil
 314              	.LVL50:
 365:main.c        ****             colourSensingInitialise();      // Initialises wall colour sensor against the black wal
 315              		.loc 1 365 0
 316 0136 FFF7FEFF 		bl	colourSensingInitialise
 317              	.LVL51:
 318              	.LBB3:
 366:main.c        ****                         
ARM GAS  C:\Users\Misha\AppData\Local\Temp\ccYm0xvZ.s 			page 13


 367:main.c        ****             
 368:main.c        ****             
 369:main.c        ****             for (int i = 0; i < 5; i++) { 
 319              		.loc 1 369 0
 320 013a 0024     		movs	r4, #0
 321 013c 0AE0     		b	.L10
 322              	.LVL52:
 323              	.L11:
 370:main.c        ****                 // scan each of the pucks 
 371:main.c        ****                 //moveUntil(puckRackOffsetsFromWest[i]);
 372:main.c        ****                 puckRackColours[i] = colourSensingOutput();
 324              		.loc 1 372 0 discriminator 3
 325 013e FFF7FEFF 		bl	colourSensingOutput
 326              	.LVL53:
 327 0142 6D4B     		ldr	r3, .L51+4
 328 0144 03EB8403 		add	r3, r3, r4, lsl #2
 329 0148 D861     		str	r0, [r3, #28]
 373:main.c        ****                 CyDelay(500);
 330              		.loc 1 373 0 discriminator 3
 331 014a 4FF4FA70 		mov	r0, #500
 332 014e FFF7FEFF 		bl	CyDelay
 333              	.LVL54:
 369:main.c        ****                 // scan each of the pucks 
 334              		.loc 1 369 0 discriminator 3
 335 0152 0134     		adds	r4, r4, #1
 336              	.LVL55:
 337              	.L10:
 369:main.c        ****                 // scan each of the pucks 
 338              		.loc 1 369 0 is_stmt 0 discriminator 1
 339 0154 042C     		cmp	r4, #4
 340 0156 F2DD     		ble	.L11
 341              	.LBE3:
 374:main.c        **** 
 375:main.c        ****             //straightAdjust();
 376:main.c        ****             }
 377:main.c        ****             
 378:main.c        ****             UART_1_PutString("Found Colours: \n");
 342              		.loc 1 378 0 is_stmt 1
 343 0158 6C48     		ldr	r0, .L51+24
 344 015a FFF7FEFF 		bl	UART_1_PutString
 345              	.LVL56:
 346              	.LBB4:
 379:main.c        ****             for (int i = 0; i < 5; i++) 
 347              		.loc 1 379 0
 348 015e 0024     		movs	r4, #0
 349              	.LVL57:
 350 0160 0CE0     		b	.L12
 351              	.LVL58:
 352              	.L13:
 380:main.c        ****             {
 381:main.c        ****                 sprintf(output, "%i \n", puckRackColours[i]);    // updates UART showing values of 
 353              		.loc 1 381 0 discriminator 3
 354 0162 654B     		ldr	r3, .L51+4
 355 0164 03EB8403 		add	r3, r3, r4, lsl #2
 356 0168 694D     		ldr	r5, .L51+28
 357 016a DA69     		ldr	r2, [r3, #28]
 358 016c 6949     		ldr	r1, .L51+32
ARM GAS  C:\Users\Misha\AppData\Local\Temp\ccYm0xvZ.s 			page 14


 359 016e 2846     		mov	r0, r5
 360 0170 FFF7FEFF 		bl	sprintf
 361              	.LVL59:
 382:main.c        ****                 UART_1_PutString(output);
 362              		.loc 1 382 0 discriminator 3
 363 0174 2846     		mov	r0, r5
 364 0176 FFF7FEFF 		bl	UART_1_PutString
 365              	.LVL60:
 379:main.c        ****             for (int i = 0; i < 5; i++) 
 366              		.loc 1 379 0 discriminator 3
 367 017a 0134     		adds	r4, r4, #1
 368              	.LVL61:
 369              	.L12:
 379:main.c        ****             for (int i = 0; i < 5; i++) 
 370              		.loc 1 379 0 is_stmt 0 discriminator 1
 371 017c 042C     		cmp	r4, #4
 372 017e F0DD     		ble	.L13
 373              	.LBE4:
 383:main.c        ****             }
 384:main.c        ****             
 385:main.c        ****             
 386:main.c        ****             control_photodiode_Write(CLAW_SENSING);    // changes to claw photodiode
 374              		.loc 1 386 0 is_stmt 1
 375 0180 0120     		movs	r0, #1
 376 0182 FFF7FEFF 		bl	control_photodiode_Write
 377              	.LVL62:
 387:main.c        ****             colour_sensing_algorithm = CLAW_1_ALGORITHM;   // changes it to claw algorithm
 378              		.loc 1 387 0
 379 0186 0122     		movs	r2, #1
 380 0188 5B4B     		ldr	r3, .L51+4
 381 018a DA60     		str	r2, [r3, #12]
 382              	.LVL63:
 383              	.LBB5:
 388:main.c        ****                                  
 389:main.c        ****             // THEN WE FILTER THE NO PUCK VALUES:
 390:main.c        ****             int puckConstructionPlanIndex = 0; // Will be used to iterate through the 3 puck colour
 391:main.c        ****             
 392:main.c        ****             // Iterate over all 5 rack slots and place the 3 colours into puckConstructionPlan.
 393:main.c        ****             for (int puckRackIndex = 0; puckRackIndex < 5; puckRackIndex++){
 384              		.loc 1 393 0
 385 018c 0023     		movs	r3, #0
 386              	.LBE5:
 390:main.c        ****             
 387              		.loc 1 390 0
 388 018e 1A46     		mov	r2, r3
 389              	.LBB6:
 390              		.loc 1 393 0
 391 0190 0CE0     		b	.L14
 392              	.LVL64:
 393              	.L16:
 394:main.c        ****                 if (puckRackColours[puckRackIndex] != BLANK && puckConstructionPlanIndex != 3){
 394              		.loc 1 394 0
 395 0192 5949     		ldr	r1, .L51+4
 396 0194 01EB8301 		add	r1, r1, r3, lsl #2
 397 0198 C869     		ldr	r0, [r1, #28]
 398 019a 30B1     		cbz	r0, .L15
 399              		.loc 1 394 0 is_stmt 0 discriminator 1
ARM GAS  C:\Users\Misha\AppData\Local\Temp\ccYm0xvZ.s 			page 15


 400 019c 032A     		cmp	r2, #3
 401 019e 04D0     		beq	.L15
 395:main.c        ****                     puckConstructionPlan[puckConstructionPlanIndex] = puckRackColours[puckRackIndex
 402              		.loc 1 395 0 is_stmt 1
 403 01a0 5549     		ldr	r1, .L51+4
 404 01a2 01EB8201 		add	r1, r1, r2, lsl #2
 405 01a6 0861     		str	r0, [r1, #16]
 396:main.c        ****                     puckConstructionPlanIndex++;
 406              		.loc 1 396 0
 407 01a8 0132     		adds	r2, r2, #1
 408              	.LVL65:
 409              	.L15:
 393:main.c        ****                 if (puckRackColours[puckRackIndex] != BLANK && puckConstructionPlanIndex != 3){
 410              		.loc 1 393 0 discriminator 2
 411 01aa 0133     		adds	r3, r3, #1
 412              	.LVL66:
 413              	.L14:
 393:main.c        ****                 if (puckRackColours[puckRackIndex] != BLANK && puckConstructionPlanIndex != 3){
 414              		.loc 1 393 0 is_stmt 0 discriminator 1
 415 01ac 042B     		cmp	r3, #4
 416 01ae F0DD     		ble	.L16
 417              	.LBE6:
 397:main.c        ****                 }
 398:main.c        ****             }
 399:main.c        ****                     
 400:main.c        ****             // MOVE into the next state: 
 401:main.c        ****             state = STATE_LOCATE_BLOCK_AND_PUCKS;
 418              		.loc 1 401 0 is_stmt 1
 419 01b0 0222     		movs	r2, #2
 420              	.LVL67:
 421 01b2 514B     		ldr	r3, .L51+4
 422              	.LVL68:
 423 01b4 5A60     		str	r2, [r3, #4]
 424              	.LVL69:
 425              	.L9:
 426              	.LBE2:
 402:main.c        ****             
 403:main.c        ****             /*
 404:main.c        ****             if (!moving){
 405:main.c        ****                 moving = 1;
 406:main.c        ****             if (initialisation){moveBackwardIndefinitely(); initialisation = 0;}
 407:main.c        ****             else {moveForwardIndefinitely();}        
 408:main.c        **** 
 409:main.c        ****             moveAndAngle(SCAN_INITIALISE_HORIZONTAL,PLAN_SCAN_VERTICAL,WEST_ANGLE); // Move beyond 
 410:main.c        ****             
 411:main.c        ****             // Read the black wall
 412:main.c        ****             
 413:main.c        ****             for (currentPuckRackScanningIndex = 0; currentPuckRackScanningIndex <= 4; currentPuckRa
 414:main.c        ****                 moveAndAngle(puckRackOffsetsFromWest[currentPuckRackScanningIndex],PLAN_SCAN_VERTIC
 415:main.c        ****                 puckRackColours[currentPuckRackScanningIndex] = colourSensingOutput();
 416:main.c        ****             }
 417:main.c        ****    
 418:main.c        ****             */
 419:main.c        ****         }
 420:main.c        **** 
 421:main.c        **** //
 422:main.c        **** // *** 2. STATE LOCATE BLOCKS AND PUCKS: *** // 
ARM GAS  C:\Users\Misha\AppData\Local\Temp\ccYm0xvZ.s 			page 16


 423:main.c        **** //
 424:main.c        ****         
 425:main.c        ****     	if (state == STATE_LOCATE_BLOCK_AND_PUCKS){
 427              		.loc 1 425 0
 428 01b6 504B     		ldr	r3, .L51+4
 429 01b8 5B68     		ldr	r3, [r3, #4]
 430 01ba 022B     		cmp	r3, #2
 431 01bc 40F00A82 		bne	.L17
 432              	.LBB7:
 426:main.c        ****             
 427:main.c        ****             ultimateDebugging();   
 433              		.loc 1 427 0
 434 01c0 FFF7FEFF 		bl	ultimateDebugging
 435              	.LVL70:
 428:main.c        **** 
 429:main.c        ****             // move away from home base:
 430:main.c        ****             
 431:main.c        ****             translateMoveDynamic(25, -35, 100, FALSE);
 436              		.loc 1 431 0
 437 01c4 0023     		movs	r3, #0
 438 01c6 6422     		movs	r2, #100
 439 01c8 6FF02201 		mvn	r1, #34
 440 01cc 1920     		movs	r0, #25
 441 01ce FFF7FEFF 		bl	translateMoveDynamic
 442              	.LVL71:
 432:main.c        ****             straightAdjust(FRONT_SENSORS);
 443              		.loc 1 432 0
 444 01d2 0720     		movs	r0, #7
 445 01d4 FFF7FEFF 		bl	straightAdjust
 446              	.LVL72:
 433:main.c        ****     
 434:main.c        ****             // Move until construction zone            
 435:main.c        ****             moveUntil(130, FORWARD, LESS_THAN, FRONT_LEFT, SPEED, TRUE);  // Move to west wall
 447              		.loc 1 435 0
 448 01d8 0121     		movs	r1, #1
 449 01da 0191     		str	r1, [sp, #4]
 450 01dc C823     		movs	r3, #200
 451 01de 0093     		str	r3, [sp]
 452 01e0 0023     		movs	r3, #0
 453 01e2 0422     		movs	r2, #4
 454 01e4 8220     		movs	r0, #130
 455 01e6 FFF7FEFF 		bl	moveUntil
 456              	.LVL73:
 436:main.c        ****             straightAdjust(FRONT_SENSORS);                                      // straighten again
 457              		.loc 1 436 0
 458 01ea 0720     		movs	r0, #7
 459 01ec FFF7FEFF 		bl	straightAdjust
 460              	.LVL74:
 437:main.c        ****             
 438:main.c        ****             // SCAN FOR BLOCKS:
 439:main.c        ****             
 440:main.c        ****             distanceSensor(SIDE_LEFT);  // takes how far we are away from home base wall
 461              		.loc 1 440 0
 462 01f0 0220     		movs	r0, #2
 463 01f2 FFF7FEFF 		bl	distanceSensor
 464              	.LVL75:
 441:main.c        ****             while (ultrasonic_distances_mm[SIDE_LEFT] > (BLOCK_ZONE_SOUTH - WIDTH_SENSOR_TO_SENSOR)
ARM GAS  C:\Users\Misha\AppData\Local\Temp\ccYm0xvZ.s 			page 17


 465              		.loc 1 441 0
 466 01f6 02E0     		b	.L18
 467              	.L19:
 442:main.c        ****                 // stays in while loop until side left value taken is appropriate
 443:main.c        ****                 // E.g. the side left value should be less than BLOCK_ZONE_SOUTH - WIDTH_SENSOR_TO_
 444:main.c        ****                 // So, it should be less than 500mm - 220mm = 280mm
 445:main.c        ****                 distanceSensor(SIDE_LEFT);
 468              		.loc 1 445 0
 469 01f8 0220     		movs	r0, #2
 470 01fa FFF7FEFF 		bl	distanceSensor
 471              	.LVL76:
 472              	.L18:
 441:main.c        ****             while (ultrasonic_distances_mm[SIDE_LEFT] > (BLOCK_ZONE_SOUTH - WIDTH_SENSOR_TO_SENSOR)
 473              		.loc 1 441 0
 474 01fe 464B     		ldr	r3, .L51+36
 475 0200 9D68     		ldr	r5, [r3, #8]
 476 0202 B5F58C7F 		cmp	r5, #280
 477 0206 F7DC     		bgt	.L19
 446:main.c        ****                } 
 447:main.c        ****             
 448:main.c        ****             
 449:main.c        ****             int block_check = BLOCK_ZONE_NORTH - ultrasonic_distances_mm[SIDE_LEFT] - WIDTH_SENSOR_
 478              		.loc 1 449 0
 479 0208 C5F50375 		rsb	r5, r5, #524
 480 020c 0135     		adds	r5, r5, #1
 481              	.LVL77:
 450:main.c        ****                 // TAKES our distance from north wall, 
 451:main.c        ****                 // takes distance from arena, takes away 
 452:main.c        ****                 // minus 50 is a tolerance
 453:main.c        ****                 // This equals 700MM - leftside - 220mm + 45 = 525mm maximum, but we'll be away fro
 454:main.c        ****             
 455:main.c        ****             sprintf(output, "distance from robot to block: %d \t", block_check);
 482              		.loc 1 455 0
 483 020e 404C     		ldr	r4, .L51+28
 484 0210 2A46     		mov	r2, r5
 485 0212 4249     		ldr	r1, .L51+40
 486 0214 2046     		mov	r0, r4
 487 0216 FFF7FEFF 		bl	sprintf
 488              	.LVL78:
 456:main.c        ****             UART_1_PutString(output);
 489              		.loc 1 456 0
 490 021a 2046     		mov	r0, r4
 491 021c FFF7FEFF 		bl	UART_1_PutString
 492              	.LVL79:
 457:main.c        ****             
 458:main.c        ****             //block_check = 350;  // This is a default length that isn't dynamic, the block check
 459:main.c        ****             
 460:main.c        ****             
 461:main.c        ****             // Stopping at the West side of the block: 
 462:main.c        ****             moveUntil(block_check, BACKWARD, LESS_THAN, SIDE_RIGHT, SPEED, TRUE);   
 493              		.loc 1 462 0
 494 0220 0123     		movs	r3, #1
 495 0222 0193     		str	r3, [sp, #4]
 496 0224 C823     		movs	r3, #200
 497 0226 0093     		str	r3, [sp]
 498 0228 0323     		movs	r3, #3
 499 022a 0422     		movs	r2, #4
ARM GAS  C:\Users\Misha\AppData\Local\Temp\ccYm0xvZ.s 			page 18


 500 022c 0021     		movs	r1, #0
 501 022e 2846     		mov	r0, r5
 502 0230 FFF7FEFF 		bl	moveUntil
 503              	.LVL80:
 463:main.c        ****                                 // this will move backwards until it hits the block or the wall
 464:main.c        ****             blinkLED(GREEN,1000);      // To show it ended at the correct spot
 504              		.loc 1 464 0
 505 0234 4FF47A71 		mov	r1, #1000
 506 0238 0220     		movs	r0, #2
 507 023a FFF7FEFF 		bl	blinkLED
 508              	.LVL81:
 465:main.c        ****             
 466:main.c        ****             
 467:main.c        ****             // Update the west clearance of the block: 
 468:main.c        ****             
 469:main.c        ****             //toleranceCheck();       // This checks if the values being polled are appropriate 
 470:main.c        ****             
 471:main.c        ****             straightAdjust(FRONT_SENSORS);
 509              		.loc 1 471 0
 510 023e 0720     		movs	r0, #7
 511 0240 FFF7FEFF 		bl	straightAdjust
 512              	.LVL82:
 472:main.c        ****             distanceSensor(FRONT_LEFT); // Use front_right instead? 
 513              		.loc 1 472 0
 514 0244 0020     		movs	r0, #0
 515 0246 FFF7FEFF 		bl	distanceSensor
 516              	.LVL83:
 473:main.c        ****             CyDelay(DELAY);
 517              		.loc 1 473 0
 518 024a 3C20     		movs	r0, #60
 519 024c FFF7FEFF 		bl	CyDelay
 520              	.LVL84:
 474:main.c        ****             
 475:main.c        ****             block_location[WEST] = ultrasonic_distances_mm[FRONT_LEFT] + DISTANCE_FRONT_SENSOR_TO_S
 521              		.loc 1 475 0
 522 0250 314C     		ldr	r4, .L51+36
 523 0252 2368     		ldr	r3, [r4]
 524 0254 9633     		adds	r3, r3, #150
 525 0256 284E     		ldr	r6, .L51+4
 526 0258 F363     		str	r3, [r6, #60]
 476:main.c        ****             
 477:main.c        ****  
 478:main.c        ****             //straightAdjust();                   // Ensure we are straight to take measurements
 479:main.c        ****                                                   // may need to readjust this 
 480:main.c        ****             
 481:main.c        ****             
 482:main.c        ****             // Move back a bit to find the left side and right side values (adds a bit of tolerance
 483:main.c        ****             //moveDynamic(-(BLOCK_WIDTH/2), SPEED, TRUE);   
 484:main.c        ****             // Double check if the above is required
 485:main.c        ****             
 486:main.c        ****             //straightAdjust();                   // Ensure we are straight to take measurements
 487:main.c        ****                                                 // may need to readjust this 
 488:main.c        ****             
 489:main.c        ****             
 490:main.c        ****             // Updating the South Clearances of the object: 
 491:main.c        ****             
 492:main.c        ****             distanceSensor(SIDE_RIGHT); 
ARM GAS  C:\Users\Misha\AppData\Local\Temp\ccYm0xvZ.s 			page 19


 527              		.loc 1 492 0
 528 025a 0320     		movs	r0, #3
 529 025c FFF7FEFF 		bl	distanceSensor
 530              	.LVL85:
 493:main.c        ****             CyDelay(60); 
 531              		.loc 1 493 0
 532 0260 3C20     		movs	r0, #60
 533 0262 FFF7FEFF 		bl	CyDelay
 534              	.LVL86:
 494:main.c        ****             distanceSensor(SIDE_LEFT); 
 535              		.loc 1 494 0
 536 0266 0220     		movs	r0, #2
 537 0268 FFF7FEFF 		bl	distanceSensor
 538              	.LVL87:
 495:main.c        ****             CyDelay(60); 
 539              		.loc 1 495 0
 540 026c 3C20     		movs	r0, #60
 541 026e FFF7FEFF 		bl	CyDelay
 542              	.LVL88:
 496:main.c        ****             
 497:main.c        ****             block_location[SOUTH] = ultrasonic_distances_mm[SIDE_LEFT] + WIDTH_SENSOR_TO_SENSOR + u
 543              		.loc 1 497 0
 544 0272 A368     		ldr	r3, [r4, #8]
 545 0274 03F1DC02 		add	r2, r3, #220
 546 0278 E368     		ldr	r3, [r4, #12]
 547 027a 1344     		add	r3, r3, r2
 548 027c B363     		str	r3, [r6, #56]
 498:main.c        ****             
 499:main.c        ****             // Check that the value makes sense: 
 500:main.c        ****             if (block_location[SOUTH] > block_check) {
 549              		.loc 1 500 0
 550 027e 9D42     		cmp	r5, r3
 551 0280 17DA     		bge	.L20
 501:main.c        ****                 moveDynamic(-(BLOCK_WIDTH/2),SPEED,TRUE);
 552              		.loc 1 501 0
 553 0282 0122     		movs	r2, #1
 554 0284 C821     		movs	r1, #200
 555 0286 6FF02C00 		mvn	r0, #44
 556 028a FFF7FEFF 		bl	moveDynamic
 557              	.LVL89:
 502:main.c        ****                 
 503:main.c        ****                 distanceSensor(SIDE_RIGHT); 
 558              		.loc 1 503 0
 559 028e 0320     		movs	r0, #3
 560 0290 FFF7FEFF 		bl	distanceSensor
 561              	.LVL90:
 504:main.c        ****                 CyDelay(60); 
 562              		.loc 1 504 0
 563 0294 3C20     		movs	r0, #60
 564 0296 FFF7FEFF 		bl	CyDelay
 565              	.LVL91:
 505:main.c        ****                 distanceSensor(SIDE_LEFT); 
 566              		.loc 1 505 0
 567 029a 0220     		movs	r0, #2
 568 029c FFF7FEFF 		bl	distanceSensor
 569              	.LVL92:
 506:main.c        ****                 CyDelay(60); 
ARM GAS  C:\Users\Misha\AppData\Local\Temp\ccYm0xvZ.s 			page 20


 570              		.loc 1 506 0
 571 02a0 3C20     		movs	r0, #60
 572 02a2 FFF7FEFF 		bl	CyDelay
 573              	.LVL93:
 507:main.c        ****             
 508:main.c        ****             block_location[SOUTH] = ultrasonic_distances_mm[SIDE_LEFT] + WIDTH_SENSOR_TO_SENSOR + u
 574              		.loc 1 508 0
 575 02a6 A368     		ldr	r3, [r4, #8]
 576 02a8 03F1DC02 		add	r2, r3, #220
 577 02ac E368     		ldr	r3, [r4, #12]
 578 02ae 1344     		add	r3, r3, r2
 579 02b0 B363     		str	r3, [r6, #56]
 580              	.L20:
 509:main.c        ****             }
 510:main.c        ****             
 511:main.c        ****             // Stopping at the East side of the block: 
 512:main.c        ****             moveUntil(block_check, BACKWARD, GREATER_THAN, SIDE_RIGHT, SPEED, TRUE);  
 581              		.loc 1 512 0
 582 02b2 0123     		movs	r3, #1
 583 02b4 0193     		str	r3, [sp, #4]
 584 02b6 C823     		movs	r3, #200
 585 02b8 0093     		str	r3, [sp]
 586 02ba 0323     		movs	r3, #3
 587 02bc 0522     		movs	r2, #5
 588 02be 0021     		movs	r1, #0
 589 02c0 2846     		mov	r0, r5
 590 02c2 FFF7FEFF 		bl	moveUntil
 591              	.LVL94:
 513:main.c        ****                                 // this will move backwards until no longer hitting the block, or t
 514:main.c        ****             blinkLED(GREEN,1000);      // To show it ended at the correct spot
 592              		.loc 1 514 0
 593 02c6 4FF47A71 		mov	r1, #1000
 594 02ca 0220     		movs	r0, #2
 595 02cc FFF7FEFF 		bl	blinkLED
 596              	.LVL95:
 515:main.c        ****             
 516:main.c        ****             // Updating the East Clearance:
 517:main.c        ****             block_location[EAST] = ultrasonic_distances_mm[BACK] + DISTANCE_BACK_SENSOR_TO_SIDE_SEN
 597              		.loc 1 517 0
 598 02d0 114B     		ldr	r3, .L51+36
 599 02d2 1B69     		ldr	r3, [r3, #16]
 600 02d4 6433     		adds	r3, r3, #100
 601 02d6 084A     		ldr	r2, .L51+4
 602 02d8 5363     		str	r3, [r2, #52]
 518:main.c        ****                                                         // double check the distance back sensor to
 519:main.c        ****                 
 520:main.c        ****             // Updating the North Clearance: 
 521:main.c        ****             if (ARENA_WIDTH - block_location[EAST] - block_location[EAST] > BLOCK_WIDTH) {
 603              		.loc 1 521 0
 604 02da C3F59662 		rsb	r2, r3, #1200
 605 02de D31A     		subs	r3, r2, r3
 606 02e0 5A2B     		cmp	r3, #90
 607 02e2 1DDD     		ble	.L21
 522:main.c        ****                 // block is " -- " this orientation
 523:main.c        ****                 block_location[NORTH] = ARENA_WIDTH - block_location[SOUTH] - BLOCK_WIDTH;         
 608              		.loc 1 523 0
 609 02e4 044A     		ldr	r2, .L51+4
ARM GAS  C:\Users\Misha\AppData\Local\Temp\ccYm0xvZ.s 			page 21


 610 02e6 936B     		ldr	r3, [r2, #56]
 611 02e8 C3F58A63 		rsb	r3, r3, #1104
 612 02ec 0633     		adds	r3, r3, #6
 613 02ee 1363     		str	r3, [r2, #48]
 614 02f0 1CE0     		b	.L22
 615              	.L52:
 616 02f2 00BF     		.align	2
 617              	.L51:
 618 02f4 18000000 		.word	.LC1
 619 02f8 00000000 		.word	.LANCHOR0
 620 02fc 00000000 		.word	internal_orientation
 621 0300 00000000 		.word	TIH
 622 0304 00000000 		.word	StartIH
 623 0308 30000000 		.word	.LC2
 624 030c 50000000 		.word	.LC3
 625 0310 00000000 		.word	output
 626 0314 64000000 		.word	.LC4
 627 0318 00000000 		.word	ultrasonic_distances_mm
 628 031c 6C000000 		.word	.LC5
 629              	.L21:
 524:main.c        ****             }
 525:main.c        ****             else {
 526:main.c        ****                 // block is " | " this orientation
 527:main.c        ****                 block_location[NORTH] = ARENA_WIDTH - block_location[SOUTH] - BLOCK_LENGTH;
 630              		.loc 1 527 0
 631 0320 C94A     		ldr	r2, .L53+8
 632 0322 936B     		ldr	r3, [r2, #56]
 633 0324 C3F56D73 		rsb	r3, r3, #948
 634 0328 0233     		adds	r3, r3, #2
 635 032a 1363     		str	r3, [r2, #48]
 636              	.L22:
 528:main.c        ****             }
 529:main.c        ****             
 530:main.c        **** 
 531:main.c        ****             /*
 532:main.c        ****             // If either of the following cases are true, we can just put in default values, 
 533:main.c        ****                 // as it will be easy to circumvent the block
 534:main.c        ****                 // This orientation will be unlikely 
 535:main.c        ****             
 536:main.c        ****             if (ultrasonic_distances_mm[BACK] < SAFETY_MARGIN + 50) {
 537:main.c        ****                 // block is " | " this orientation, and close to the side wall
 538:main.c        ****                 
 539:main.c        ****                 // Fill out all the details: 
 540:main.c        ****                 block_location[NORTH] = ARENA_WIDTH - ultrasonic_distances_mm[SIDE_LEFT] - ultrason
 541:main.c        ****                 block_location[EAST] = 0;
 542:main.c        ****                 block_location[SOUTH] = ultrasonic_distances_mm[SIDE_LEFT] + WIDTH_SENSOR_TO_SENSOR
 543:main.c        ****                 block_location[WEST] = ARENA_WIDTH - BLOCK_WIDTH; 
 544:main.c        ****                 
 545:main.c        ****             }
 546:main.c        ****             if (ultrasonic_distances_mm[BACK] < BLOCK_LENGTH + 50) {
 547:main.c        ****                 // block is " -- " this orientation, and close to the side wall 
 548:main.c        ****                 
 549:main.c        ****                 // Fill out all the details: 
 550:main.c        ****                 block_location[NORTH] = ARENA_WIDTH - ultrasonic_distances_mm[SIDE_LEFT] - ultrason
 551:main.c        ****                 block_location[EAST] = 0;
 552:main.c        ****                 block_location[SOUTH] = ultrasonic_distances_mm[SIDE_LEFT] + WIDTH_SENSOR_TO_SENSOR
 553:main.c        ****                 block_location[WEST] = ARENA_WIDTH - BLOCK_LENGTH; 
ARM GAS  C:\Users\Misha\AppData\Local\Temp\ccYm0xvZ.s 			page 22


 554:main.c        ****             }
 555:main.c        ****             
 556:main.c        **** 
 557:main.c        ****             // Block location values:
 558:main.c        ****             block_location[SOUTH] = ultrasonic_distances_mm[SIDE_LEFT] + WIDTH_SENSOR_TO_SENSOR + u
 559:main.c        ****             block_location[WEST] = ultrasonic_distances_mm[FRONT_LEFT] + DISTANCE_FRONT_SENSOR_TO_S
 560:main.c        ****             CyDelay(1000);         
 561:main.c        ****             
 562:main.c        ****             */
 563:main.c        ****             
 564:main.c        ****             
 565:main.c        ****             //PRINTING BLOCK LOCATIONS: 
 566:main.c        ****             sprintf(output, "north: %d, \n", block_location[NORTH]);       
 637              		.loc 1 566 0
 638 032c C64F     		ldr	r7, .L53+8
 639 032e C74C     		ldr	r4, .L53+12
 640 0330 3A6B     		ldr	r2, [r7, #48]
 641 0332 C749     		ldr	r1, .L53+16
 642 0334 2046     		mov	r0, r4
 643 0336 FFF7FEFF 		bl	sprintf
 644              	.LVL96:
 567:main.c        ****             UART_1_PutString(output);
 645              		.loc 1 567 0
 646 033a 2046     		mov	r0, r4
 647 033c FFF7FEFF 		bl	UART_1_PutString
 648              	.LVL97:
 568:main.c        ****             sprintf(output, "east: %d, \n", block_location[EAST]);       
 649              		.loc 1 568 0
 650 0340 7A6B     		ldr	r2, [r7, #52]
 651 0342 C449     		ldr	r1, .L53+20
 652 0344 2046     		mov	r0, r4
 653 0346 FFF7FEFF 		bl	sprintf
 654              	.LVL98:
 569:main.c        ****             UART_1_PutString(output);
 655              		.loc 1 569 0
 656 034a 2046     		mov	r0, r4
 657 034c FFF7FEFF 		bl	UART_1_PutString
 658              	.LVL99:
 570:main.c        ****             sprintf(output, "south: %d, \n", block_location[SOUTH]);       
 659              		.loc 1 570 0
 660 0350 BA6B     		ldr	r2, [r7, #56]
 661 0352 C149     		ldr	r1, .L53+24
 662 0354 2046     		mov	r0, r4
 663 0356 FFF7FEFF 		bl	sprintf
 664              	.LVL100:
 571:main.c        ****             UART_1_PutString(output);
 665              		.loc 1 571 0
 666 035a 2046     		mov	r0, r4
 667 035c FFF7FEFF 		bl	UART_1_PutString
 668              	.LVL101:
 572:main.c        ****             sprintf(output, "west: %d, \n", block_location[WEST]);       
 669              		.loc 1 572 0
 670 0360 FA6B     		ldr	r2, [r7, #60]
 671 0362 BE49     		ldr	r1, .L53+28
 672 0364 2046     		mov	r0, r4
 673 0366 FFF7FEFF 		bl	sprintf
 674              	.LVL102:
ARM GAS  C:\Users\Misha\AppData\Local\Temp\ccYm0xvZ.s 			page 23


 573:main.c        ****             UART_1_PutString(output);
 675              		.loc 1 573 0
 676 036a 2046     		mov	r0, r4
 677 036c FFF7FEFF 		bl	UART_1_PutString
 678              	.LVL103:
 574:main.c        ****             
 575:main.c        ****             
 576:main.c        ****             // Start moving forward to find the location of the PUCKS:           
 577:main.c        ****             changeOrientation(EAST, SPEED);                             // No matter where we are t
 679              		.loc 1 577 0
 680 0370 C821     		movs	r1, #200
 681 0372 0120     		movs	r0, #1
 682 0374 FFF7FEFF 		bl	changeOrientation
 683              	.LVL104:
 578:main.c        ****             moveUntil(150, FORWARD, LESS_THAN, FRONT_LEFT, SPEED, TRUE);
 684              		.loc 1 578 0
 685 0378 4FF00109 		mov	r9, #1
 686 037c CDF80490 		str	r9, [sp, #4]
 687 0380 4FF0C80A 		mov	r10, #200
 688 0384 CDF800A0 		str	r10, [sp]
 689 0388 0023     		movs	r3, #0
 690 038a 0422     		movs	r2, #4
 691 038c 4946     		mov	r1, r9
 692 038e 9620     		movs	r0, #150
 693 0390 FFF7FEFF 		bl	moveUntil
 694              	.LVL105:
 579:main.c        ****                     // above code could be inefficient if puck is closer to west side of arena 
 580:main.c        ****             straightAdjust(FRONT_SENSORS);
 695              		.loc 1 580 0
 696 0394 0720     		movs	r0, #7
 697 0396 FFF7FEFF 		bl	straightAdjust
 698              	.LVL106:
 581:main.c        ****             
 582:main.c        ****             distanceSensor(SIDE_RIGHT);
 699              		.loc 1 582 0
 700 039a 0320     		movs	r0, #3
 701 039c FFF7FEFF 		bl	distanceSensor
 702              	.LVL107:
 583:main.c        ****             CyDelay(50);
 703              		.loc 1 583 0
 704 03a0 3220     		movs	r0, #50
 705 03a2 FFF7FEFF 		bl	CyDelay
 706              	.LVL108:
 584:main.c        ****             
 585:main.c        ****             sprintf(output, "%d \t", ultrasonic_distances_mm[SIDE_RIGHT]);
 707              		.loc 1 585 0
 708 03a6 DFF8C082 		ldr	r8, .L53+40
 709 03aa D8F80C20 		ldr	r2, [r8, #12]
 710 03ae AC49     		ldr	r1, .L53+32
 711 03b0 2046     		mov	r0, r4
 712 03b2 FFF7FEFF 		bl	sprintf
 713              	.LVL109:
 586:main.c        ****             UART_1_PutString(output);
 714              		.loc 1 586 0
 715 03b6 2046     		mov	r0, r4
 716 03b8 FFF7FEFF 		bl	UART_1_PutString
 717              	.LVL110:
ARM GAS  C:\Users\Misha\AppData\Local\Temp\ccYm0xvZ.s 			page 24


 587:main.c        ****             
 588:main.c        ****             int puck_check = ARENA_LENGTH - PUCK_GRID_FROM_NORTH - ultrasonic_distances_mm[SIDE_RIG
 718              		.loc 1 588 0
 719 03bc D8F80C60 		ldr	r6, [r8, #12]
 720 03c0 C6F54976 		rsb	r6, r6, #804
 721 03c4 4E44     		add	r6, r6, r9
 722              	.LVL111:
 589:main.c        ****             //puck_check = 700;
 590:main.c        ****             
 591:main.c        ****             sprintf(output, "puck check: %d, \n", puck_check);       
 723              		.loc 1 591 0
 724 03c6 3246     		mov	r2, r6
 725 03c8 A649     		ldr	r1, .L53+36
 726 03ca 2046     		mov	r0, r4
 727 03cc FFF7FEFF 		bl	sprintf
 728              	.LVL112:
 592:main.c        ****             UART_1_PutString(output);
 729              		.loc 1 592 0
 730 03d0 2046     		mov	r0, r4
 731 03d2 FFF7FEFF 		bl	UART_1_PutString
 732              	.LVL113:
 593:main.c        ****                         
 594:main.c        ****             // Check front and back sensors:
 595:main.c        ****             moveUntil(puck_check, BACKWARD, LESS_THAN, SIDE_LEFT, SPEED, TRUE);   // this will move
 733              		.loc 1 595 0
 734 03d6 CDF80490 		str	r9, [sp, #4]
 735 03da CDF800A0 		str	r10, [sp]
 736 03de 0223     		movs	r3, #2
 737 03e0 0422     		movs	r2, #4
 738 03e2 0021     		movs	r1, #0
 739 03e4 3046     		mov	r0, r6
 740 03e6 FFF7FEFF 		bl	moveUntil
 741              	.LVL114:
 596:main.c        ****             
 597:main.c        ****             
 598:main.c        ****             distanceSensor(FRONT_LEFT);
 742              		.loc 1 598 0
 743 03ea 0020     		movs	r0, #0
 744 03ec FFF7FEFF 		bl	distanceSensor
 745              	.LVL115:
 599:main.c        ****             CyDelay(DELAY);
 746              		.loc 1 599 0
 747 03f0 3C20     		movs	r0, #60
 748 03f2 FFF7FEFF 		bl	CyDelay
 749              	.LVL116:
 600:main.c        ****             distanceSensor(BACK);
 750              		.loc 1 600 0
 751 03f6 0420     		movs	r0, #4
 752 03f8 FFF7FEFF 		bl	distanceSensor
 753              	.LVL117:
 601:main.c        ****             CyDelay(DELAY);
 754              		.loc 1 601 0
 755 03fc 3C20     		movs	r0, #60
 756 03fe FFF7FEFF 		bl	CyDelay
 757              	.LVL118:
 602:main.c        ****             
 603:main.c        ****             
ARM GAS  C:\Users\Misha\AppData\Local\Temp\ccYm0xvZ.s 			page 25


 604:main.c        ****             
 605:main.c        ****             // checking if accidentally detected block:
 606:main.c        ****             // if the distance we are at is less than the block, we can say we didnt detect the blo
 607:main.c        ****                 // or the distance measured hittin the puck is greater than the puck threshold 
 608:main.c        ****             if (ultrasonic_distances_mm[FRONT_LEFT] + DISTANCE_FRONT_SENSOR_TO_SIDE_SENSOR < block_
 758              		.loc 1 608 0
 759 0402 D8F80080 		ldr	r8, [r8]
 760 0406 08F19604 		add	r4, r8, #150
 761 040a 7B6B     		ldr	r3, [r7, #52]
 762 040c 9C42     		cmp	r4, r3
 763 040e 03DB     		blt	.L23
 609:main.c        ****                     || ultrasonic_distances_mm[SIDE_LEFT] > block_check)
 764              		.loc 1 609 0
 765 0410 954B     		ldr	r3, .L53+40
 766 0412 9B68     		ldr	r3, [r3, #8]
 767 0414 9D42     		cmp	r5, r3
 768 0416 1BDA     		bge	.L24
 769              	.L23:
 770              	.LBB8:
 610:main.c        ****             {
 611:main.c        ****                 
 612:main.c        ****                 int offset = ultrasonic_distances_mm[SIDE_LEFT]*sin(18*M_PI/180);
 771              		.loc 1 612 0
 772 0418 934B     		ldr	r3, .L53+40
 773 041a 9868     		ldr	r0, [r3, #8]
 774 041c FFF7FEFF 		bl	__aeabi_i2d
 775              	.LVL119:
 776 0420 87A3     		adr	r3, .L53
 777 0422 D3E90023 		ldrd	r2, [r3]
 778 0426 FFF7FEFF 		bl	__aeabi_dmul
 779              	.LVL120:
 780 042a FFF7FEFF 		bl	__aeabi_d2iz
 781              	.LVL121:
 613:main.c        ****                 if (ultrasonic_distances_mm[FRONT_LEFT] < 200) { offset = 0; }      // set the offs
 782              		.loc 1 613 0
 783 042e B8F1C70F 		cmp	r8, #199
 784 0432 00DC     		bgt	.L25
 785 0434 0020     		movs	r0, #0
 786              	.LVL122:
 787              	.L25:
 614:main.c        ****                 // puck detected
 615:main.c        ****                 // puck detectedDISTANCE_FRONT_SENSOR_TO_SIDE_SENSOR
 616:main.c        ****                 puck_location[EAST] = ultrasonic_distances_mm[FRONT_LEFT] + DISTANCE_FRONT_SENSOR_T
 788              		.loc 1 616 0
 789 0436 0319     		adds	r3, r0, r4
 790 0438 834A     		ldr	r2, .L53+8
 791 043a 5364     		str	r3, [r2, #68]
 617:main.c        ****                 puck_location[WEST] = ARENA_WIDTH - puck_location[EAST] - PUCK_GRID_WIDTH;
 792              		.loc 1 617 0
 793 043c C3F56873 		rsb	r3, r3, #928
 794 0440 0233     		adds	r3, r3, #2
 795 0442 D364     		str	r3, [r2, #76]
 618:main.c        ****                 
 619:main.c        ****                 blinkLED(GREEN,1000);   // puck location was succesfully found
 796              		.loc 1 619 0
 797 0444 4FF47A71 		mov	r1, #1000
 798 0448 0220     		movs	r0, #2
ARM GAS  C:\Users\Misha\AppData\Local\Temp\ccYm0xvZ.s 			page 26


 799              	.LVL123:
 800 044a FFF7FEFF 		bl	blinkLED
 801              	.LVL124:
 802              	.LBE8:
 610:main.c        ****                 
 803              		.loc 1 610 0
 804 044e 53E0     		b	.L26
 805              	.L24:
 806              	.LBB9:
 620:main.c        ****             }
 621:main.c        ****             else {
 622:main.c        ****                 // block detected & rescans from opposite side:
 623:main.c        ****                 
 624:main.c        ****                 blinkLED(RED,1000); // indicates we hit the block instead 
 807              		.loc 1 624 0
 808 0450 4FF47A71 		mov	r1, #1000
 809 0454 0120     		movs	r0, #1
 810 0456 FFF7FEFF 		bl	blinkLED
 811              	.LVL125:
 625:main.c        ****                 
 626:main.c        ****                 moveUntil(200, BACKWARD, LESS_THAN, BACK, SPEED, TRUE);   // This should take us to
 812              		.loc 1 626 0
 813 045a 0125     		movs	r5, #1
 814              	.LVL126:
 815 045c 0195     		str	r5, [sp, #4]
 816 045e C824     		movs	r4, #200
 817 0460 0094     		str	r4, [sp]
 818 0462 0423     		movs	r3, #4
 819 0464 1A46     		mov	r2, r3
 820 0466 0021     		movs	r1, #0
 821 0468 2046     		mov	r0, r4
 822 046a FFF7FEFF 		bl	moveUntil
 823              	.LVL127:
 627:main.c        ****                 changeOrientation(WEST, SPEED);
 824              		.loc 1 627 0
 825 046e 2146     		mov	r1, r4
 826 0470 0320     		movs	r0, #3
 827 0472 FFF7FEFF 		bl	changeOrientation
 828              	.LVL128:
 628:main.c        ****                 moveUntil(130, FORWARD, LESS_THAN, FRONT_LEFT, SPEED, TRUE);
 829              		.loc 1 628 0
 830 0476 0195     		str	r5, [sp, #4]
 831 0478 0094     		str	r4, [sp]
 832 047a 0023     		movs	r3, #0
 833 047c 0422     		movs	r2, #4
 834 047e 2946     		mov	r1, r5
 835 0480 8220     		movs	r0, #130
 836 0482 FFF7FEFF 		bl	moveUntil
 837              	.LVL129:
 629:main.c        ****                 straightAdjust(FRONT_SENSORS);   // adjusts against the wall
 838              		.loc 1 629 0
 839 0486 0720     		movs	r0, #7
 840 0488 FFF7FEFF 		bl	straightAdjust
 841              	.LVL130:
 630:main.c        ****                 moveUntil(puck_check, BACKWARD, LESS_THAN, SIDE_RIGHT, SPEED, TRUE);   // this will
 842              		.loc 1 630 0
 843 048c 0195     		str	r5, [sp, #4]
ARM GAS  C:\Users\Misha\AppData\Local\Temp\ccYm0xvZ.s 			page 27


 844 048e 0094     		str	r4, [sp]
 845 0490 0323     		movs	r3, #3
 846 0492 0422     		movs	r2, #4
 847 0494 0021     		movs	r1, #0
 848 0496 3046     		mov	r0, r6
 849 0498 FFF7FEFF 		bl	moveUntil
 850              	.LVL131:
 631:main.c        ****                 blinkLED(GREEN,1000);   // Find the edge of the puck zone 
 851              		.loc 1 631 0
 852 049c 4FF47A71 		mov	r1, #1000
 853 04a0 0220     		movs	r0, #2
 854 04a2 FFF7FEFF 		bl	blinkLED
 855              	.LVL132:
 632:main.c        ****                                 
 633:main.c        ****                 distanceSensor(FRONT_LEFT);
 856              		.loc 1 633 0
 857 04a6 0020     		movs	r0, #0
 858 04a8 FFF7FEFF 		bl	distanceSensor
 859              	.LVL133:
 634:main.c        ****                 CyDelay(DELAY);
 860              		.loc 1 634 0
 861 04ac 3C20     		movs	r0, #60
 862 04ae FFF7FEFF 		bl	CyDelay
 863              	.LVL134:
 635:main.c        ****                 distanceSensor(BACK);
 864              		.loc 1 635 0
 865 04b2 0420     		movs	r0, #4
 866 04b4 FFF7FEFF 		bl	distanceSensor
 867              	.LVL135:
 636:main.c        ****                 CyDelay(DELAY);
 868              		.loc 1 636 0
 869 04b8 3C20     		movs	r0, #60
 870 04ba FFF7FEFF 		bl	CyDelay
 871              	.LVL136:
 637:main.c        ****                 
 638:main.c        ****                 int offset = ultrasonic_distances_mm[SIDE_RIGHT]*sin(18*M_PI/180);
 872              		.loc 1 638 0
 873 04be 6A4C     		ldr	r4, .L53+40
 874 04c0 E068     		ldr	r0, [r4, #12]
 875 04c2 FFF7FEFF 		bl	__aeabi_i2d
 876              	.LVL137:
 877 04c6 5EA3     		adr	r3, .L53
 878 04c8 D3E90023 		ldrd	r2, [r3]
 879 04cc FFF7FEFF 		bl	__aeabi_dmul
 880              	.LVL138:
 881 04d0 FFF7FEFF 		bl	__aeabi_d2iz
 882              	.LVL139:
 639:main.c        ****                 
 640:main.c        ****                 puck_location[WEST] = ultrasonic_distances_mm[FRONT_LEFT] + DISTANCE_FRONT_SENSOR_T
 883              		.loc 1 640 0
 884 04d4 2368     		ldr	r3, [r4]
 885 04d6 9633     		adds	r3, r3, #150
 886 04d8 1844     		add	r0, r0, r3
 887              	.LVL140:
 888 04da 5B4A     		ldr	r2, .L53+8
 889 04dc D064     		str	r0, [r2, #76]
 641:main.c        ****                 puck_location[EAST] = ARENA_WIDTH - puck_location[WEST] - PUCK_GRID_WIDTH;
ARM GAS  C:\Users\Misha\AppData\Local\Temp\ccYm0xvZ.s 			page 28


 890              		.loc 1 641 0
 891 04de C0F56873 		rsb	r3, r0, #928
 892 04e2 0233     		adds	r3, r3, #2
 893 04e4 5364     		str	r3, [r2, #68]
 642:main.c        ****                 
 643:main.c        ****                 if (ultrasonic_distances_mm[BACK] < 100 ) {
 894              		.loc 1 643 0
 895 04e6 2369     		ldr	r3, [r4, #16]
 896 04e8 632B     		cmp	r3, #99
 897 04ea 05DC     		bgt	.L26
 644:main.c        ****                     // we stop without detecting any pucks
 645:main.c        ****                     // Assume that pucks are in NorthEast corner
 646:main.c        ****                     puck_location[EAST] = 100; 
 898              		.loc 1 646 0
 899 04ec 1346     		mov	r3, r2
 900 04ee 6422     		movs	r2, #100
 901 04f0 5A64     		str	r2, [r3, #68]
 647:main.c        ****                     puck_location[WEST] = 1200 - PUCK_GRID_WIDTH - 100;
 902              		.loc 1 647 0
 903 04f2 40F23E32 		movw	r2, #830
 904 04f6 DA64     		str	r2, [r3, #76]
 905              	.L26:
 906              	.LBE9:
 648:main.c        ****                     
 649:main.c        ****                     
 650:main.c        ****                     // This might not work when the block is in another place and the pucks are rig
 651:main.c        ****                     // behind it and it doesnt trigger properly 
 652:main.c        ****                 }
 653:main.c        ****                 
 654:main.c        ****             }
 655:main.c        ****             
 656:main.c        ****             
 657:main.c        ****             sprintf(output, "east puck: %d, \n", puck_location[EAST]);       
 907              		.loc 1 657 0
 908 04f8 534D     		ldr	r5, .L53+8
 909 04fa 544C     		ldr	r4, .L53+12
 910 04fc 6A6C     		ldr	r2, [r5, #68]
 911 04fe 5B49     		ldr	r1, .L53+44
 912 0500 2046     		mov	r0, r4
 913 0502 FFF7FEFF 		bl	sprintf
 914              	.LVL141:
 658:main.c        ****             UART_1_PutString(output);
 915              		.loc 1 658 0
 916 0506 2046     		mov	r0, r4
 917 0508 FFF7FEFF 		bl	UART_1_PutString
 918              	.LVL142:
 659:main.c        ****             sprintf(output, "west puck: %d, \n", puck_location[WEST]);       
 919              		.loc 1 659 0
 920 050c EA6C     		ldr	r2, [r5, #76]
 921 050e 5849     		ldr	r1, .L53+48
 922 0510 2046     		mov	r0, r4
 923 0512 FFF7FEFF 		bl	sprintf
 924              	.LVL143:
 660:main.c        ****             UART_1_PutString(output);
 925              		.loc 1 660 0
 926 0516 2046     		mov	r0, r4
 927 0518 FFF7FEFF 		bl	UART_1_PutString
ARM GAS  C:\Users\Misha\AppData\Local\Temp\ccYm0xvZ.s 			page 29


 928              	.LVL144:
 661:main.c        ****             sprintf(output, "east block: %d, \n", block_location[EAST]);       
 929              		.loc 1 661 0
 930 051c 6A6B     		ldr	r2, [r5, #52]
 931 051e 5549     		ldr	r1, .L53+52
 932 0520 2046     		mov	r0, r4
 933 0522 FFF7FEFF 		bl	sprintf
 934              	.LVL145:
 662:main.c        ****             UART_1_PutString(output);
 935              		.loc 1 662 0
 936 0526 2046     		mov	r0, r4
 937 0528 FFF7FEFF 		bl	UART_1_PutString
 938              	.LVL146:
 663:main.c        ****             sprintf(output, "west block: %d, \n", block_location[WEST]);       
 939              		.loc 1 663 0
 940 052c EA6B     		ldr	r2, [r5, #60]
 941 052e 5249     		ldr	r1, .L53+56
 942 0530 2046     		mov	r0, r4
 943 0532 FFF7FEFF 		bl	sprintf
 944              	.LVL147:
 664:main.c        ****             UART_1_PutString(output);
 945              		.loc 1 664 0
 946 0536 2046     		mov	r0, r4
 947 0538 FFF7FEFF 		bl	UART_1_PutString
 948              	.LVL148:
 665:main.c        ****             
 666:main.c        ****             
 667:main.c        ****             // Finding the different block & puck clearances: 
 668:main.c        ****             
 669:main.c        ****                     // there should be a threshold that allows the robot to travel through a cleara
 670:main.c        ****                     // E.g. robot width + 100mm
 671:main.c        ****             
 672:main.c        ****                     // the robot will travel to the chosen (block_clearance/2) and travel down ther
 673:main.c        ****                     // so it is in the middle of the block clearance and the wall 
 674:main.c        ****             
 675:main.c        ****                     // check if between the edge of the block and the puck zone gives enough cleara
 676:main.c        ****                     
 677:main.c        ****             
 678:main.c        ****             if (block_location[EAST] > WIDTH_WHEEL_TO_WHEEL + BLOCK_TOLERANCE) {
 949              		.loc 1 678 0
 950 053c 6B6B     		ldr	r3, [r5, #52]
 951 053e B3F5847F 		cmp	r3, #264
 952 0542 02DD     		ble	.L27
 679:main.c        ****                 // the east clearance of block check
 680:main.c        ****               blockEastClearance = 1;  
 953              		.loc 1 680 0
 954 0544 0122     		movs	r2, #1
 955 0546 A5F85020 		strh	r2, [r5, #80]	@ movhi
 956              	.L27:
 681:main.c        ****             }
 682:main.c        ****             if (block_location[WEST] > WIDTH_WHEEL_TO_WHEEL + BLOCK_TOLERANCE) {
 957              		.loc 1 682 0
 958 054a 3F4B     		ldr	r3, .L53+8
 959 054c DB6B     		ldr	r3, [r3, #60]
 960 054e B3F5847F 		cmp	r3, #264
 961 0552 03DD     		ble	.L28
 683:main.c        ****                 // the east clearance of block check
ARM GAS  C:\Users\Misha\AppData\Local\Temp\ccYm0xvZ.s 			page 30


 684:main.c        ****               blockWestClearance = 1;  
 962              		.loc 1 684 0
 963 0554 0122     		movs	r2, #1
 964 0556 3C4B     		ldr	r3, .L53+8
 965 0558 A3F85220 		strh	r2, [r3, #82]	@ movhi
 966              	.L28:
 685:main.c        ****             }
 686:main.c        ****             if (puck_location[EAST] > WIDTH_WHEEL_TO_WHEEL + BLOCK_TOLERANCE) {
 967              		.loc 1 686 0
 968 055c 3A4B     		ldr	r3, .L53+8
 969 055e 5B6C     		ldr	r3, [r3, #68]
 970 0560 B3F5847F 		cmp	r3, #264
 971 0564 03DD     		ble	.L29
 687:main.c        ****                 // the east clearance of block check
 688:main.c        ****               puckEastClearance = 1;  
 972              		.loc 1 688 0
 973 0566 0122     		movs	r2, #1
 974 0568 374B     		ldr	r3, .L53+8
 975 056a A3F85420 		strh	r2, [r3, #84]	@ movhi
 976              	.L29:
 689:main.c        ****             }
 690:main.c        ****             if (puck_location[WEST] > WIDTH_WHEEL_TO_WHEEL + BLOCK_TOLERANCE) {
 977              		.loc 1 690 0
 978 056e 364B     		ldr	r3, .L53+8
 979 0570 DB6C     		ldr	r3, [r3, #76]
 980 0572 B3F5847F 		cmp	r3, #264
 981 0576 03DD     		ble	.L30
 691:main.c        ****                 // the east clearance of block check
 692:main.c        ****               puckWestClearance = 1;  
 982              		.loc 1 692 0
 983 0578 0122     		movs	r2, #1
 984 057a 334B     		ldr	r3, .L53+8
 985 057c A3F85620 		strh	r2, [r3, #86]	@ movhi
 986              	.L30:
 693:main.c        ****             }
 694:main.c        ****             
 695:main.c        ****             
 696:main.c        ****             //changeOrientation(WEST,SPEED);
 697:main.c        ****             //moveDynamic(-600, SPEED, TRUE);
 698:main.c        ****             //moveUntil((puck_location[EAST]/2),FORWARD, LESS_THAN, FRONT_LEFT, SPEED, TRUE);
 699:main.c        ****             //straightAdjust();
 700:main.c        ****             //changeOrientation(WEST,SPEED);
 701:main.c        ****             //moveUntil((PUCK_GRID_FROM_NORTH/2), FORWARD, LESS_THAN, FRONT_LEFT, SPEED,TRUE);
 702:main.c        ****             //straightAdjust();
 703:main.c        ****             //changeOrientation(EAST, SPEED);
 704:main.c        ****             ///oveDynamic(1200, SPEED, TRUE);
 705:main.c        ****             
 706:main.c        ****             moveUntil(200, BACKWARD, GREATER_THAN, FRONT_LEFT, SPEED, TRUE);
 987              		.loc 1 706 0
 988 0580 0125     		movs	r5, #1
 989 0582 0195     		str	r5, [sp, #4]
 990 0584 C824     		movs	r4, #200
 991 0586 0094     		str	r4, [sp]
 992 0588 0023     		movs	r3, #0
 993 058a 0522     		movs	r2, #5
 994 058c 1946     		mov	r1, r3
 995 058e 2046     		mov	r0, r4
ARM GAS  C:\Users\Misha\AppData\Local\Temp\ccYm0xvZ.s 			page 31


 996 0590 FFF7FEFF 		bl	moveUntil
 997              	.LVL149:
 707:main.c        ****             changeOrientation(SOUTH,SPEED);
 998              		.loc 1 707 0
 999 0594 2146     		mov	r1, r4
 1000 0596 0220     		movs	r0, #2
 1001 0598 FFF7FEFF 		bl	changeOrientation
 1002              	.LVL150:
 708:main.c        ****             changeOrientation(EAST, SPEED);
 1003              		.loc 1 708 0
 1004 059c 2146     		mov	r1, r4
 1005 059e 2846     		mov	r0, r5
 1006 05a0 FFF7FEFF 		bl	changeOrientation
 1007              	.LVL151:
 709:main.c        ****             straightAdjust(FRONT_SENSORS);
 1008              		.loc 1 709 0
 1009 05a4 0720     		movs	r0, #7
 1010 05a6 FFF7FEFF 		bl	straightAdjust
 1011              	.LVL152:
 710:main.c        ****             moveUntil(CLEARANCE_RADIUS_CENTER_TO_FRONT + SAFETY_MARGIN/2, FORWARD, LESS_THAN, FRONT
 1012              		.loc 1 710 0
 1013 05aa 0195     		str	r5, [sp, #4]
 1014 05ac 0094     		str	r4, [sp]
 1015 05ae 0023     		movs	r3, #0
 1016 05b0 0422     		movs	r2, #4
 1017 05b2 2946     		mov	r1, r5
 1018 05b4 AC20     		movs	r0, #172
 1019 05b6 FFF7FEFF 		bl	moveUntil
 1020              	.LVL153:
 711:main.c        ****             translateUntil(CLEARANCE_RADIUS_CENTER_TO_BACK - SAFETY_MARGIN, LEFT, GREATER_THAN, SID
 1021              		.loc 1 711 0
 1022 05ba 0094     		str	r4, [sp]
 1023 05bc 0323     		movs	r3, #3
 1024 05be 0522     		movs	r2, #5
 1025 05c0 0221     		movs	r1, #2
 1026 05c2 9B20     		movs	r0, #155
 1027 05c4 FFF7FEFF 		bl	translateUntil
 1028              	.LVL154:
 712:main.c        ****             straightAdjust(FRONT_SENSORS);
 1029              		.loc 1 712 0
 1030 05c8 0720     		movs	r0, #7
 1031 05ca FFF7FEFF 		bl	straightAdjust
 1032              	.LVL155:
 713:main.c        ****             
 714:main.c        ****             // PUCK has now been found, enter the IF statements to locate and pick up pucks 
 715:main.c        ****             state = STATE_GO_TO_PUCKS;
 1033              		.loc 1 715 0
 1034 05ce 0322     		movs	r2, #3
 1035 05d0 1D4B     		ldr	r3, .L53+8
 1036 05d2 5A60     		str	r2, [r3, #4]
 1037              	.LVL156:
 1038              	.L17:
 1039              	.LBE7:
 716:main.c        **** 	    }     
 717:main.c        **** 
 718:main.c        **** //
 719:main.c        **** // *** 3. STATE GO TO PUCKS: *** // 
ARM GAS  C:\Users\Misha\AppData\Local\Temp\ccYm0xvZ.s 			page 32


 720:main.c        **** //
 721:main.c        **** 
 722:main.c        ****         // Ensure that we are @ east wall facing east at a minimum verticaldistance so we can turn 
 723:main.c        ****         
 724:main.c        ****         if (state == STATE_GO_TO_PUCKS){
 1040              		.loc 1 724 0
 1041 05d4 1C4B     		ldr	r3, .L53+8
 1042 05d6 5B68     		ldr	r3, [r3, #4]
 1043 05d8 032B     		cmp	r3, #3
 1044 05da 40F0DD80 		bne	.L31
 725:main.c        ****             
 726:main.c        **** 
 727:main.c        ****             // The different route finding Algorithms for the different combinations: 
 728:main.c        ****             
 729:main.c        ****             if (blockEastClearance && puckEastClearance){
 1045              		.loc 1 729 0
 1046 05de 1A4B     		ldr	r3, .L53+8
 1047 05e0 B3F95020 		ldrsh	r2, [r3, #80]
 1048 05e4 002A     		cmp	r2, #0
 1049 05e6 49D0     		beq	.L32
 1050              		.loc 1 729 0 is_stmt 0 discriminator 1
 1051 05e8 B3F95430 		ldrsh	r3, [r3, #84]
 1052 05ec 002B     		cmp	r3, #0
 1053 05ee 45D0     		beq	.L32
 730:main.c        ****                 
 731:main.c        ****                 moveUntil(WALL_CLEARANCE_FRONT, BACKWARD, GREATER_THAN, FRONT_LEFT, SPEED, TRUE);
 1054              		.loc 1 731 0 is_stmt 1
 1055 05f0 0125     		movs	r5, #1
 1056 05f2 0195     		str	r5, [sp, #4]
 1057 05f4 C824     		movs	r4, #200
 1058 05f6 0094     		str	r4, [sp]
 1059 05f8 0023     		movs	r3, #0
 1060 05fa 0522     		movs	r2, #5
 1061 05fc 1946     		mov	r1, r3
 1062 05fe AF20     		movs	r0, #175
 1063 0600 FFF7FEFF 		bl	moveUntil
 1064              	.LVL157:
 732:main.c        ****                 straightAdjust(FRONT_SENSORS);
 1065              		.loc 1 732 0
 1066 0604 0720     		movs	r0, #7
 1067 0606 FFF7FEFF 		bl	straightAdjust
 1068              	.LVL158:
 733:main.c        ****                 changeOrientation(NORTH, SPEED);
 1069              		.loc 1 733 0
 1070 060a 2146     		mov	r1, r4
 1071 060c 0020     		movs	r0, #0
 1072 060e FFF7FEFF 		bl	changeOrientation
 1073              	.LVL159:
 734:main.c        ****                 //straightAdjust();
 735:main.c        ****                 moveUntil(PUCK_GRID_FROM_NORTH - DISTANCE_FRONT_SENSOR_FROM_CENTER - PUCK_GRID_DIST
 1074              		.loc 1 735 0
 1075 0612 0D4B     		ldr	r3, .L53+8
 1076 0614 986D     		ldr	r0, [r3, #88]
 1077 0616 6FF03603 		mvn	r3, #54
 1078 061a 03FB00F0 		mul	r0, r3, r0
 1079 061e 0195     		str	r5, [sp, #4]
 1080 0620 0094     		str	r4, [sp]
ARM GAS  C:\Users\Misha\AppData\Local\Temp\ccYm0xvZ.s 			page 33


 1081 0622 0023     		movs	r3, #0
 1082 0624 0422     		movs	r2, #4
 1083 0626 2946     		mov	r1, r5
 1084 0628 E130     		adds	r0, r0, #225
 1085 062a FFF7FEFF 		bl	moveUntil
 1086              	.LVL160:
 736:main.c        ****                 straightAdjust(FRONT_SENSORS);
 1087              		.loc 1 736 0
 1088 062e 0720     		movs	r0, #7
 1089 0630 FFF7FEFF 		bl	straightAdjust
 1090              	.LVL161:
 737:main.c        ****                 changeOrientation(WEST, SPEED);
 1091              		.loc 1 737 0
 1092 0634 2146     		mov	r1, r4
 1093 0636 0320     		movs	r0, #3
 1094 0638 FFF7FEFF 		bl	changeOrientation
 1095              	.LVL162:
 1096 063c A9E0     		b	.L33
 1097              	.L54:
 1098 063e 00BF     		.align	3
 1099              	.L53:
 1100 0640 4FE92F37 		.word	925886799
 1101 0644 EFC6D33F 		.word	1070843631
 1102 0648 00000000 		.word	.LANCHOR0
 1103 064c 00000000 		.word	output
 1104 0650 90000000 		.word	.LC6
 1105 0654 A0000000 		.word	.LC7
 1106 0658 AC000000 		.word	.LC8
 1107 065c BC000000 		.word	.LC9
 1108 0660 C8000000 		.word	.LC10
 1109 0664 D0000000 		.word	.LC11
 1110 0668 00000000 		.word	ultrasonic_distances_mm
 1111 066c E4000000 		.word	.LC12
 1112 0670 F8000000 		.word	.LC13
 1113 0674 0C010000 		.word	.LC14
 1114 0678 20010000 		.word	.LC15
 1115              	.L32:
 738:main.c        **** 
 739:main.c        ****                 
 740:main.c        ****                 
 741:main.c        ****             }
 742:main.c        ****             
 743:main.c        ****             else if (blockWestClearance && puckWestClearance){
 1116              		.loc 1 743 0
 1117 067c A34B     		ldr	r3, .L55
 1118 067e B3F95230 		ldrsh	r3, [r3, #82]
 1119 0682 6BB3     		cbz	r3, .L34
 1120              		.loc 1 743 0 is_stmt 0 discriminator 1
 1121 0684 A149     		ldr	r1, .L55
 1122 0686 B1F95610 		ldrsh	r1, [r1, #86]
 1123 068a 49B3     		cbz	r1, .L34
 744:main.c        ****             
 745:main.c        ****                 //moveUntil(CLEARANCE_RADIUS_CENTER_TO_FRONT, BACKWARD, GREATER_THAN, FRONT_LEFT, S
 746:main.c        ****                 moveUntil(CLEARANCE_RADIUS_CENTER_TO_BACK - DISTANCE_BACK_SENSOR_FROM_CENTER, BACKW
 1124              		.loc 1 746 0 is_stmt 1
 1125 068c 0124     		movs	r4, #1
 1126 068e 0194     		str	r4, [sp, #4]
ARM GAS  C:\Users\Misha\AppData\Local\Temp\ccYm0xvZ.s 			page 34


 1127 0690 C825     		movs	r5, #200
 1128 0692 0095     		str	r5, [sp]
 1129 0694 0423     		movs	r3, #4
 1130 0696 1A46     		mov	r2, r3
 1131 0698 0021     		movs	r1, #0
 1132 069a 0A20     		movs	r0, #10
 1133 069c FFF7FEFF 		bl	moveUntil
 1134              	.LVL163:
 747:main.c        ****                 straightAdjust(FRONT_SENSORS); //? Remove if it fucks things up
 1135              		.loc 1 747 0
 1136 06a0 0720     		movs	r0, #7
 1137 06a2 FFF7FEFF 		bl	straightAdjust
 1138              	.LVL164:
 748:main.c        ****                 changeOrientation(NORTH, SPEED);
 1139              		.loc 1 748 0
 1140 06a6 2946     		mov	r1, r5
 1141 06a8 0020     		movs	r0, #0
 1142 06aa FFF7FEFF 		bl	changeOrientation
 1143              	.LVL165:
 749:main.c        ****                 straightAdjust(FRONT_SENSORS); //? Remove if it fucks things up
 1144              		.loc 1 749 0
 1145 06ae 0720     		movs	r0, #7
 1146 06b0 FFF7FEFF 		bl	straightAdjust
 1147              	.LVL166:
 750:main.c        ****                 moveUntil(PUCK_GRID_FROM_NORTH - DISTANCE_FRONT_SENSOR_FROM_CENTER - PUCK_GRID_DIST
 1148              		.loc 1 750 0
 1149 06b4 954B     		ldr	r3, .L55
 1150 06b6 986D     		ldr	r0, [r3, #88]
 1151 06b8 6FF03603 		mvn	r3, #54
 1152 06bc 03FB00F0 		mul	r0, r3, r0
 1153 06c0 0194     		str	r4, [sp, #4]
 1154 06c2 0095     		str	r5, [sp]
 1155 06c4 0023     		movs	r3, #0
 1156 06c6 0422     		movs	r2, #4
 1157 06c8 2146     		mov	r1, r4
 1158 06ca E130     		adds	r0, r0, #225
 1159 06cc FFF7FEFF 		bl	moveUntil
 1160              	.LVL167:
 751:main.c        ****                 //translateMoveDynamic(CLEARANCE_RADIUS_CENTER_TO_BACK, 10, SPEED, FALSE); // Chang
 752:main.c        ****                 straightAdjust(FRONT_SENSORS);
 1161              		.loc 1 752 0
 1162 06d0 0720     		movs	r0, #7
 1163 06d2 FFF7FEFF 		bl	straightAdjust
 1164              	.LVL168:
 753:main.c        ****                 changeOrientation(EAST, SPEED);
 1165              		.loc 1 753 0
 1166 06d6 2946     		mov	r1, r5
 1167 06d8 2046     		mov	r0, r4
 1168 06da FFF7FEFF 		bl	changeOrientation
 1169              	.LVL169:
 1170 06de 58E0     		b	.L33
 1171              	.L34:
 754:main.c        **** 
 755:main.c        ****                             
 756:main.c        ****             }
 757:main.c        ****             
 758:main.c        ****             
ARM GAS  C:\Users\Misha\AppData\Local\Temp\ccYm0xvZ.s 			page 35


 759:main.c        ****             else if (blockEastClearance && puckWestClearance){
 1172              		.loc 1 759 0
 1173 06e0 5AB3     		cbz	r2, .L35
 1174              		.loc 1 759 0 is_stmt 0 discriminator 1
 1175 06e2 8A4A     		ldr	r2, .L55
 1176 06e4 B2F95620 		ldrsh	r2, [r2, #86]
 1177 06e8 3AB3     		cbz	r2, .L35
 760:main.c        **** 
 761:main.c        ****                 //moveUntil(block_and_puck_edge_midpoint - DISTANCE_BACK_SENSOR_FROM_CENTER, BACKWA
 762:main.c        ****                 moveUntil(block_location[EAST] - DISTANCE_FRONT_SENSOR_FROM_CENTER - WIDTH_WHEEL_TO
 1178              		.loc 1 762 0 is_stmt 1
 1179 06ea 884E     		ldr	r6, .L55
 1180 06ec 706B     		ldr	r0, [r6, #52]
 1181 06ee 0124     		movs	r4, #1
 1182 06f0 0194     		str	r4, [sp, #4]
 1183 06f2 C825     		movs	r5, #200
 1184 06f4 0095     		str	r5, [sp]
 1185 06f6 0023     		movs	r3, #0
 1186 06f8 0522     		movs	r2, #5
 1187 06fa 1946     		mov	r1, r3
 1188 06fc A738     		subs	r0, r0, #167
 1189 06fe FFF7FEFF 		bl	moveUntil
 1190              	.LVL170:
 763:main.c        ****                 straightAdjust(FRONT_SENSORS);
 1191              		.loc 1 763 0
 1192 0702 0720     		movs	r0, #7
 1193 0704 FFF7FEFF 		bl	straightAdjust
 1194              	.LVL171:
 764:main.c        ****                 changeOrientation(NORTH, SPEED);
 1195              		.loc 1 764 0
 1196 0708 2946     		mov	r1, r5
 1197 070a 0020     		movs	r0, #0
 1198 070c FFF7FEFF 		bl	changeOrientation
 1199              	.LVL172:
 765:main.c        ****                 //straightAdjust();
 766:main.c        ****                 moveUntil(PUCK_GRID_FROM_NORTH - DISTANCE_FRONT_SENSOR_FROM_CENTER - PUCK_GRID_DIST
 1200              		.loc 1 766 0
 1201 0710 B06D     		ldr	r0, [r6, #88]
 1202 0712 6FF03603 		mvn	r3, #54
 1203 0716 03FB00F0 		mul	r0, r3, r0
 1204 071a 0194     		str	r4, [sp, #4]
 1205 071c 0095     		str	r5, [sp]
 1206 071e 0023     		movs	r3, #0
 1207 0720 0422     		movs	r2, #4
 1208 0722 2146     		mov	r1, r4
 1209 0724 E130     		adds	r0, r0, #225
 1210 0726 FFF7FEFF 		bl	moveUntil
 1211              	.LVL173:
 767:main.c        ****                 straightAdjust(FRONT_SENSORS);
 1212              		.loc 1 767 0
 1213 072a 0720     		movs	r0, #7
 1214 072c FFF7FEFF 		bl	straightAdjust
 1215              	.LVL174:
 768:main.c        ****                 changeOrientation(EAST, SPEED);
 1216              		.loc 1 768 0
 1217 0730 2946     		mov	r1, r5
 1218 0732 2046     		mov	r0, r4
ARM GAS  C:\Users\Misha\AppData\Local\Temp\ccYm0xvZ.s 			page 36


 1219 0734 FFF7FEFF 		bl	changeOrientation
 1220              	.LVL175:
 1221 0738 2BE0     		b	.L33
 1222              	.L35:
 769:main.c        ****                 
 770:main.c        ****             }
 771:main.c        ****             
 772:main.c        ****             else if (blockWestClearance && puckEastClearance){
 1223              		.loc 1 772 0
 1224 073a 53B3     		cbz	r3, .L33
 1225              		.loc 1 772 0 is_stmt 0 discriminator 1
 1226 073c 734B     		ldr	r3, .L55
 1227 073e B3F95430 		ldrsh	r3, [r3, #84]
 1228 0742 33B3     		cbz	r3, .L33
 773:main.c        ****                 
 774:main.c        ****                 moveUntil(block_location[WEST] - DISTANCE_FRONT_SENSOR_FROM_CENTER + WIDTH_WHEEL_TO
 1229              		.loc 1 774 0 is_stmt 1
 1230 0744 714E     		ldr	r6, .L55
 1231 0746 F06B     		ldr	r0, [r6, #60]
 1232 0748 0125     		movs	r5, #1
 1233 074a 0195     		str	r5, [sp, #4]
 1234 074c C824     		movs	r4, #200
 1235 074e 0094     		str	r4, [sp]
 1236 0750 0023     		movs	r3, #0
 1237 0752 0522     		movs	r2, #5
 1238 0754 1946     		mov	r1, r3
 1239 0756 4330     		adds	r0, r0, #67
 1240 0758 FFF7FEFF 		bl	moveUntil
 1241              	.LVL176:
 775:main.c        ****                 straightAdjust(FRONT_SENSORS);
 1242              		.loc 1 775 0
 1243 075c 0720     		movs	r0, #7
 1244 075e FFF7FEFF 		bl	straightAdjust
 1245              	.LVL177:
 776:main.c        ****                 changeOrientation(NORTH, SPEED);
 1246              		.loc 1 776 0
 1247 0762 2146     		mov	r1, r4
 1248 0764 0020     		movs	r0, #0
 1249 0766 FFF7FEFF 		bl	changeOrientation
 1250              	.LVL178:
 777:main.c        ****                 moveUntil(PUCK_GRID_FROM_NORTH - DISTANCE_FRONT_SENSOR_FROM_CENTER - PUCK_GRID_DIST
 1251              		.loc 1 777 0
 1252 076a B06D     		ldr	r0, [r6, #88]
 1253 076c 6FF03603 		mvn	r3, #54
 1254 0770 03FB00F0 		mul	r0, r3, r0
 1255 0774 0195     		str	r5, [sp, #4]
 1256 0776 0094     		str	r4, [sp]
 1257 0778 0023     		movs	r3, #0
 1258 077a 0422     		movs	r2, #4
 1259 077c 2946     		mov	r1, r5
 1260 077e E130     		adds	r0, r0, #225
 1261 0780 FFF7FEFF 		bl	moveUntil
 1262              	.LVL179:
 778:main.c        ****                 straightAdjust(FRONT_SENSORS);
 1263              		.loc 1 778 0
 1264 0784 0720     		movs	r0, #7
 1265 0786 FFF7FEFF 		bl	straightAdjust
ARM GAS  C:\Users\Misha\AppData\Local\Temp\ccYm0xvZ.s 			page 37


 1266              	.LVL180:
 779:main.c        ****                 changeOrientation(WEST, SPEED);
 1267              		.loc 1 779 0
 1268 078a 2146     		mov	r1, r4
 1269 078c 0320     		movs	r0, #3
 1270 078e FFF7FEFF 		bl	changeOrientation
 1271              	.LVL181:
 1272              	.L33:
 780:main.c        ****                 
 781:main.c        ****             }
 782:main.c        ****             
 783:main.c        ****             state = STATE_FIND_REQUIRED_PUCK;
 1273              		.loc 1 783 0
 1274 0792 0422     		movs	r2, #4
 1275 0794 5D4B     		ldr	r3, .L55
 1276 0796 5A60     		str	r2, [r3, #4]
 1277              	.L31:
 784:main.c        **** 
 785:main.c        ****         }
 786:main.c        ****  
 787:main.c        **** //        
 788:main.c        **** // *** 4. STATE FIND REQUIRED PUCK: *** // 
 789:main.c        **** //
 790:main.c        ****         
 791:main.c        ****         
 792:main.c        ****         if (state == STATE_FIND_REQUIRED_PUCK){
 1278              		.loc 1 792 0
 1279 0798 5C4B     		ldr	r3, .L55
 1280 079a 5B68     		ldr	r3, [r3, #4]
 1281 079c 042B     		cmp	r3, #4
 1282 079e 19D1     		bne	.L36
 1283              	.LVL182:
 1284              	.LBB10:
 793:main.c        ****         
 794:main.c        ****         int puck_correct = FALSE;   // A flag to determine if the correct puck has been picked up
 795:main.c        ****         int puck_scan;
 796:main.c        ****         
 797:main.c        ****     
 798:main.c        ****         //Temp delete after teesting!!!!!!!!!!!!!!!!!!!!!
 799:main.c        ****         puck_correct = TRUE;
 800:main.c        ****         
 801:main.c        ****             
 802:main.c        ****         // Scanning puck:
 803:main.c        ****             
 804:main.c        ****         safety_override = TRUE;     // DEACTIVATES the safety override so pucks don't interfere  
 1285              		.loc 1 804 0
 1286 07a0 5A4C     		ldr	r4, .L55
 1287 07a2 0125     		movs	r5, #1
 1288 07a4 E565     		str	r5, [r4, #92]
 805:main.c        **** 
 806:main.c        ****         while (puck_correct == FALSE) 
 807:main.c        ****         {
 808:main.c        ****             moveDynamic(50, SPEED_LOW, TRUE);  // robot moves forward towards puck
 809:main.c        ****                                     // could replace this with the distance gathered from the ultra
 810:main.c        ****             changeHeightToPuck(ABOVE_1_PUCK, NEITHER);  // arm lowers onto robot
 811:main.c        ****             puck_scan = colourSensingOutput();  // colour sensor takes a scan
 812:main.c        ****             changeHeightToPuck(ABOVE_3_PUCK, NEITHER);  // arm returns to high position
ARM GAS  C:\Users\Misha\AppData\Local\Temp\ccYm0xvZ.s 			page 38


 813:main.c        ****             moveDynamic(-50, SPEED, TRUE);   // robot moves backwards
 814:main.c        ****             if (puck_scan == puckConstructionPlan[current_stage-1]) {puck_correct = TRUE;}         
 815:main.c        ****             else 
 816:main.c        ****             {
 817:main.c        ****                 /*
 818:main.c        ****                 // Bring us to the next puck along: 
 819:main.c        ****                 moveSwivel(45, SPEED, TRUE);
 820:main.c        ****                 moveDynamic(-30,SPEED, TRUE);
 821:main.c        ****                 moveSwivel(-30, SPEED, TRUE);
 822:main.c        ****                 */
 823:main.c        ****             }
 824:main.c        ****         }
 825:main.c        **** 
 826:main.c        ****         changeHeightToPuck(GROUND, NEITHER);      // arm lowers to ground
 1289              		.loc 1 826 0
 1290 07a6 0221     		movs	r1, #2
 1291 07a8 0020     		movs	r0, #0
 1292 07aa FFF7FEFF 		bl	changeHeightToPuck
 1293              	.LVL183:
 827:main.c        ****         //armClose();
 828:main.c        ****         //changeHeightToPuck(1);
 829:main.c        ****         moveUntilPuck(CLAW_GROUND_ALGORITHM);
 1294              		.loc 1 829 0
 1295 07ae 0520     		movs	r0, #5
 1296 07b0 FFF7FEFF 		bl	moveUntilPuck
 1297              	.LVL184:
 830:main.c        ****         //moveDynamic(60);       // robot moves forward
 831:main.c        ****         armClose();                 // claw closes on puck
 1298              		.loc 1 831 0
 1299 07b4 FFF7FEFF 		bl	armClose
 1300              	.LVL185:
 832:main.c        ****         changeHeightToPuck(ABOVE_3_PUCK, CLOSE);      // arm lifts up to highest position
 1301              		.loc 1 832 0
 1302 07b8 2946     		mov	r1, r5
 1303 07ba 0320     		movs	r0, #3
 1304 07bc FFF7FEFF 		bl	changeHeightToPuck
 1305              	.LVL186:
 833:main.c        ****         moveDynamic(-60, SPEED, TRUE);       // robot moves back away from puck area 
 1306              		.loc 1 833 0
 1307 07c0 2A46     		mov	r2, r5
 1308 07c2 C821     		movs	r1, #200
 1309 07c4 6FF03B00 		mvn	r0, #59
 1310 07c8 FFF7FEFF 		bl	moveDynamic
 1311              	.LVL187:
 834:main.c        ****         
 835:main.c        ****         
 836:main.c        ****         safety_override = FALSE;        // reactivate safety override
 1312              		.loc 1 836 0
 1313 07cc 0023     		movs	r3, #0
 1314 07ce E365     		str	r3, [r4, #92]
 837:main.c        ****     
 838:main.c        ****         state = STATE_RETURN_TO_SOUTH;
 1315              		.loc 1 838 0
 1316 07d0 0523     		movs	r3, #5
 1317 07d2 6360     		str	r3, [r4, #4]
 1318              	.LVL188:
 1319              	.L36:
ARM GAS  C:\Users\Misha\AppData\Local\Temp\ccYm0xvZ.s 			page 39


 1320              	.LBE10:
 839:main.c        ****    
 840:main.c        ****         }
 841:main.c        ****  
 842:main.c        ****         
 843:main.c        **** //
 844:main.c        **** // *** 5. STATE RETURN TO SOUTH: *** // 
 845:main.c        **** //      
 846:main.c        ****         
 847:main.c        ****         // Assume that we are currently in the north side of the arena facing the pucks.
 848:main.c        ****         // This state will return us to the south side of the block and face east at the east wall.
 849:main.c        ****         if (state == STATE_RETURN_TO_SOUTH){
 1321              		.loc 1 849 0
 1322 07d4 4D4B     		ldr	r3, .L55
 1323 07d6 5B68     		ldr	r3, [r3, #4]
 1324 07d8 052B     		cmp	r3, #5
 1325 07da 40F0CA80 		bne	.L37
 850:main.c        ****             if (blockEastClearance && puckEastClearance){
 1326              		.loc 1 850 0
 1327 07de 4B4B     		ldr	r3, .L55
 1328 07e0 B3F95020 		ldrsh	r2, [r3, #80]
 1329 07e4 72B3     		cbz	r2, .L38
 1330              		.loc 1 850 0 is_stmt 0 discriminator 1
 1331 07e6 B3F95430 		ldrsh	r3, [r3, #84]
 1332 07ea 5BB3     		cbz	r3, .L38
 851:main.c        ****                 
 852:main.c        ****                 moveUntil(CLEARANCE_RADIUS_CENTER_TO_BACK - 190, BACKWARD, LESS_THAN, BACK, SPEED, 
 1333              		.loc 1 852 0 is_stmt 1
 1334 07ec 0124     		movs	r4, #1
 1335 07ee 0194     		str	r4, [sp, #4]
 1336 07f0 C825     		movs	r5, #200
 1337 07f2 0095     		str	r5, [sp]
 1338 07f4 0423     		movs	r3, #4
 1339 07f6 1A46     		mov	r2, r3
 1340 07f8 0021     		movs	r1, #0
 1341 07fa 3220     		movs	r0, #50
 1342 07fc FFF7FEFF 		bl	moveUntil
 1343              	.LVL189:
 853:main.c        ****                 // straightAdjust() using back sensor?
 854:main.c        ****                 changeOrientation(NORTH,SPEED);
 1344              		.loc 1 854 0
 1345 0800 2946     		mov	r1, r5
 1346 0802 0020     		movs	r0, #0
 1347 0804 FFF7FEFF 		bl	changeOrientation
 1348              	.LVL190:
 855:main.c        ****                 straightAdjust(FRONT_SENSORS);
 1349              		.loc 1 855 0
 1350 0808 0720     		movs	r0, #7
 1351 080a FFF7FEFF 		bl	straightAdjust
 1352              	.LVL191:
 856:main.c        ****                 moveUntil(CLEARANCE_RADIUS_CENTER_TO_BACK - 140, BACKWARD, LESS_THAN, BACK, SPEED, 
 1353              		.loc 1 856 0
 1354 080e 0194     		str	r4, [sp, #4]
 1355 0810 0095     		str	r5, [sp]
 1356 0812 0423     		movs	r3, #4
 1357 0814 1A46     		mov	r2, r3
 1358 0816 0021     		movs	r1, #0
ARM GAS  C:\Users\Misha\AppData\Local\Temp\ccYm0xvZ.s 			page 40


 1359 0818 6420     		movs	r0, #100
 1360 081a FFF7FEFF 		bl	moveUntil
 1361              	.LVL192:
 857:main.c        ****                 //straightAdjust();
 858:main.c        ****                 changeOrientation(EAST,SPEED);
 1362              		.loc 1 858 0
 1363 081e 2946     		mov	r1, r5
 1364 0820 2046     		mov	r0, r4
 1365 0822 FFF7FEFF 		bl	changeOrientation
 1366              	.LVL193:
 859:main.c        ****                 straightAdjust(FRONT_SENSORS);
 1367              		.loc 1 859 0
 1368 0826 0720     		movs	r0, #7
 1369 0828 FFF7FEFF 		bl	straightAdjust
 1370              	.LVL194:
 860:main.c        ****                 moveUntil(WALL_CLEARANCE_FRONT, FORWARD, LESS_THAN, FRONT_LEFT, SPEED, TRUE);
 1371              		.loc 1 860 0
 1372 082c 0194     		str	r4, [sp, #4]
 1373 082e 0095     		str	r5, [sp]
 1374 0830 0023     		movs	r3, #0
 1375 0832 0422     		movs	r2, #4
 1376 0834 2146     		mov	r1, r4
 1377 0836 AF20     		movs	r0, #175
 1378 0838 FFF7FEFF 		bl	moveUntil
 1379              	.LVL195:
 861:main.c        ****                 straightAdjust(FRONT_SENSORS);
 1380              		.loc 1 861 0
 1381 083c 0720     		movs	r0, #7
 1382 083e FFF7FEFF 		bl	straightAdjust
 1383              	.LVL196:
 1384 0842 93E0     		b	.L39
 1385              	.L38:
 862:main.c        ****                 
 863:main.c        ****             }
 864:main.c        ****             
 865:main.c        ****             else if (blockWestClearance && puckWestClearance){
 1386              		.loc 1 865 0
 1387 0844 314B     		ldr	r3, .L55
 1388 0846 B3F95230 		ldrsh	r3, [r3, #82]
 1389 084a 7BB3     		cbz	r3, .L40
 1390              		.loc 1 865 0 is_stmt 0 discriminator 1
 1391 084c 2F49     		ldr	r1, .L55
 1392 084e B1F95610 		ldrsh	r1, [r1, #86]
 1393 0852 59B3     		cbz	r1, .L40
 866:main.c        ****             
 867:main.c        ****                 moveUntil(CLEARANCE_RADIUS_CENTER_TO_BACK - DISTANCE_BACK_SENSOR_FROM_CENTER, BACKW
 1394              		.loc 1 867 0 is_stmt 1
 1395 0854 0124     		movs	r4, #1
 1396 0856 0194     		str	r4, [sp, #4]
 1397 0858 C825     		movs	r5, #200
 1398 085a 0095     		str	r5, [sp]
 1399 085c 0423     		movs	r3, #4
 1400 085e 1A46     		mov	r2, r3
 1401 0860 0021     		movs	r1, #0
 1402 0862 0A20     		movs	r0, #10
 1403 0864 FFF7FEFF 		bl	moveUntil
 1404              	.LVL197:
ARM GAS  C:\Users\Misha\AppData\Local\Temp\ccYm0xvZ.s 			page 41


 868:main.c        ****                 // straightAdjust() using back sensor?
 869:main.c        ****                 changeOrientation(NORTH,SPEED);
 1405              		.loc 1 869 0
 1406 0868 2946     		mov	r1, r5
 1407 086a 0020     		movs	r0, #0
 1408 086c FFF7FEFF 		bl	changeOrientation
 1409              	.LVL198:
 870:main.c        ****                 straightAdjust(FRONT_SENSORS);
 1410              		.loc 1 870 0
 1411 0870 0720     		movs	r0, #7
 1412 0872 FFF7FEFF 		bl	straightAdjust
 1413              	.LVL199:
 871:main.c        ****                 moveUntil(CLEARANCE_RADIUS_CENTER_TO_BACK - 140, BACKWARD, LESS_THAN, BACK, SPEED, 
 1414              		.loc 1 871 0
 1415 0876 0194     		str	r4, [sp, #4]
 1416 0878 0095     		str	r5, [sp]
 1417 087a 0423     		movs	r3, #4
 1418 087c 1A46     		mov	r2, r3
 1419 087e 0021     		movs	r1, #0
 1420 0880 6420     		movs	r0, #100
 1421 0882 FFF7FEFF 		bl	moveUntil
 1422              	.LVL200:
 872:main.c        ****                 //straightAdjust();
 873:main.c        ****                 changeOrientation(EAST,SPEED);
 1423              		.loc 1 873 0
 1424 0886 2946     		mov	r1, r5
 1425 0888 2046     		mov	r0, r4
 1426 088a FFF7FEFF 		bl	changeOrientation
 1427              	.LVL201:
 874:main.c        ****                 straightAdjust(FRONT_SENSORS);
 1428              		.loc 1 874 0
 1429 088e 0720     		movs	r0, #7
 1430 0890 FFF7FEFF 		bl	straightAdjust
 1431              	.LVL202:
 875:main.c        ****                 moveUntil(WALL_CLEARANCE_FRONT, FORWARD, LESS_THAN, FRONT_LEFT, SPEED, TRUE);
 1432              		.loc 1 875 0
 1433 0894 0194     		str	r4, [sp, #4]
 1434 0896 0095     		str	r5, [sp]
 1435 0898 0023     		movs	r3, #0
 1436 089a 0422     		movs	r2, #4
 1437 089c 2146     		mov	r1, r4
 1438 089e AF20     		movs	r0, #175
 1439 08a0 FFF7FEFF 		bl	moveUntil
 1440              	.LVL203:
 876:main.c        ****                 straightAdjust(FRONT_SENSORS);
 1441              		.loc 1 876 0
 1442 08a4 0720     		movs	r0, #7
 1443 08a6 FFF7FEFF 		bl	straightAdjust
 1444              	.LVL204:
 1445 08aa 5FE0     		b	.L39
 1446              	.L40:
 877:main.c        ****               
 878:main.c        ****             }
 879:main.c        ****             
 880:main.c        ****             
 881:main.c        ****             else if (blockEastClearance && puckWestClearance){
 1447              		.loc 1 881 0
ARM GAS  C:\Users\Misha\AppData\Local\Temp\ccYm0xvZ.s 			page 42


 1448 08ac 82B3     		cbz	r2, .L41
 1449              		.loc 1 881 0 is_stmt 0 discriminator 1
 1450 08ae 174A     		ldr	r2, .L55
 1451 08b0 B2F95620 		ldrsh	r2, [r2, #86]
 1452 08b4 62B3     		cbz	r2, .L41
 882:main.c        **** 
 883:main.c        ****                 moveUntil(ARENA_WIDTH - (block_location[EAST] - DISTANCE_FRONT_SENSOR_FROM_CENTER -
 1453              		.loc 1 883 0 is_stmt 1
 1454 08b6 154B     		ldr	r3, .L55
 1455 08b8 586B     		ldr	r0, [r3, #52]
 1456 08ba 0124     		movs	r4, #1
 1457 08bc 0194     		str	r4, [sp, #4]
 1458 08be C825     		movs	r5, #200
 1459 08c0 0095     		str	r5, [sp]
 1460 08c2 0423     		movs	r3, #4
 1461 08c4 1A46     		mov	r2, r3
 1462 08c6 0021     		movs	r1, #0
 1463 08c8 C0F5AA60 		rsb	r0, r0, #1360
 1464 08cc 0730     		adds	r0, r0, #7
 1465 08ce FFF7FEFF 		bl	moveUntil
 1466              	.LVL205:
 884:main.c        ****                 //straightAdjust();
 885:main.c        ****                 changeOrientation(NORTH, SPEED);
 1467              		.loc 1 885 0
 1468 08d2 2946     		mov	r1, r5
 1469 08d4 0020     		movs	r0, #0
 1470 08d6 FFF7FEFF 		bl	changeOrientation
 1471              	.LVL206:
 886:main.c        ****                 straightAdjust(FRONT_SENSORS);
 1472              		.loc 1 886 0
 1473 08da 0720     		movs	r0, #7
 1474 08dc FFF7FEFF 		bl	straightAdjust
 1475              	.LVL207:
 887:main.c        ****                 moveUntil(CLEARANCE_RADIUS_CENTER_TO_BACK - 140, BACKWARD, LESS_THAN, BACK, SPEED, 
 1476              		.loc 1 887 0
 1477 08e0 0194     		str	r4, [sp, #4]
 1478 08e2 0095     		str	r5, [sp]
 1479 08e4 0423     		movs	r3, #4
 1480 08e6 1A46     		mov	r2, r3
 1481 08e8 0021     		movs	r1, #0
 1482 08ea 6420     		movs	r0, #100
 1483 08ec FFF7FEFF 		bl	moveUntil
 1484              	.LVL208:
 888:main.c        ****                 //displaceLeft(); Repeatedly call this if below function not implemented
 889:main.c        ****                 //displaceLeftUntil(CLEARANCE_RADIUS_CENTER_TO_BACK,RIGHT);
 890:main.c        ****                 changeOrientation(EAST, SPEED);
 1485              		.loc 1 890 0
 1486 08f0 2946     		mov	r1, r5
 1487 08f2 2046     		mov	r0, r4
 1488 08f4 FFF7FEFF 		bl	changeOrientation
 1489              	.LVL209:
 891:main.c        ****                 //displaceLeft();
 892:main.c        ****                 //displaceLeftUntil(DISTANCE_PUCKS_FROM_NORTH + WIDTH_SENSOR_TO_CENTER ,RIGHT);
 893:main.c        ****                 moveUntil(WALL_CLEARANCE_FRONT, FORWARD, LESS_THAN, FRONT_LEFT, SPEED, TRUE);
 1490              		.loc 1 893 0
 1491 08f8 0194     		str	r4, [sp, #4]
 1492 08fa 0095     		str	r5, [sp]
ARM GAS  C:\Users\Misha\AppData\Local\Temp\ccYm0xvZ.s 			page 43


 1493 08fc 0023     		movs	r3, #0
 1494 08fe 0422     		movs	r2, #4
 1495 0900 2146     		mov	r1, r4
 1496 0902 AF20     		movs	r0, #175
 1497 0904 FFF7FEFF 		bl	moveUntil
 1498              	.LVL210:
 1499 0908 30E0     		b	.L39
 1500              	.L56:
 1501 090a 00BF     		.align	2
 1502              	.L55:
 1503 090c 00000000 		.word	.LANCHOR0
 1504              	.L41:
 894:main.c        ****                 
 895:main.c        ****             }
 896:main.c        ****             
 897:main.c        ****             else if (blockWestClearance && puckEastClearance){
 1505              		.loc 1 897 0
 1506 0910 63B3     		cbz	r3, .L39
 1507              		.loc 1 897 0 is_stmt 0 discriminator 1
 1508 0912 804B     		ldr	r3, .L57
 1509 0914 B3F95430 		ldrsh	r3, [r3, #84]
 1510 0918 43B3     		cbz	r3, .L39
 898:main.c        ****                 
 899:main.c        ****                 moveUntil(ARENA_WIDTH - (block_location[WEST] - DISTANCE_FRONT_SENSOR_FROM_CENTER +
 1511              		.loc 1 899 0 is_stmt 1
 1512 091a 7E4B     		ldr	r3, .L57
 1513 091c D86B     		ldr	r0, [r3, #60]
 1514 091e 0124     		movs	r4, #1
 1515 0920 0194     		str	r4, [sp, #4]
 1516 0922 C825     		movs	r5, #200
 1517 0924 0095     		str	r5, [sp]
 1518 0926 0023     		movs	r3, #0
 1519 0928 0522     		movs	r2, #5
 1520 092a 1946     		mov	r1, r3
 1521 092c C0F58D60 		rsb	r0, r0, #1128
 1522 0930 1044     		add	r0, r0, r2
 1523 0932 FFF7FEFF 		bl	moveUntil
 1524              	.LVL211:
 900:main.c        ****                 changeOrientation(NORTH, SPEED);
 1525              		.loc 1 900 0
 1526 0936 2946     		mov	r1, r5
 1527 0938 0020     		movs	r0, #0
 1528 093a FFF7FEFF 		bl	changeOrientation
 1529              	.LVL212:
 901:main.c        ****                 straightAdjust(FRONT_SENSORS);
 1530              		.loc 1 901 0
 1531 093e 0720     		movs	r0, #7
 1532 0940 FFF7FEFF 		bl	straightAdjust
 1533              	.LVL213:
 902:main.c        ****                 moveUntil(CLEARANCE_RADIUS_CENTER_TO_BACK - 140, BACKWARD, LESS_THAN, BACK, SPEED, 
 1534              		.loc 1 902 0
 1535 0944 0194     		str	r4, [sp, #4]
 1536 0946 0095     		str	r5, [sp]
 1537 0948 0423     		movs	r3, #4
 1538 094a 1A46     		mov	r2, r3
 1539 094c 0021     		movs	r1, #0
 1540 094e 6420     		movs	r0, #100
ARM GAS  C:\Users\Misha\AppData\Local\Temp\ccYm0xvZ.s 			page 44


 1541 0950 FFF7FEFF 		bl	moveUntil
 1542              	.LVL214:
 903:main.c        ****                 //displaceLeft(); Repeatedly call this if below function not implemented
 904:main.c        ****                 //displaceLeftUntil(CLEARANCE_RADIUS_CENTER_TO_BACK,RIGHT);
 905:main.c        ****                 changeOrientation(EAST, SPEED);
 1543              		.loc 1 905 0
 1544 0954 2946     		mov	r1, r5
 1545 0956 2046     		mov	r0, r4
 1546 0958 FFF7FEFF 		bl	changeOrientation
 1547              	.LVL215:
 906:main.c        ****                 //displaceLeft();
 907:main.c        ****                 //displaceLeftUntil(DISTANCE_PUCKS_FROM_NORTH + WIDTH_SENSOR_TO_CENTER ,RIGHT);
 908:main.c        ****                 moveUntil(WALL_CLEARANCE_FRONT, FORWARD, LESS_THAN, FRONT_LEFT, SPEED, TRUE);
 1548              		.loc 1 908 0
 1549 095c 0194     		str	r4, [sp, #4]
 1550 095e 0095     		str	r5, [sp]
 1551 0960 0023     		movs	r3, #0
 1552 0962 0422     		movs	r2, #4
 1553 0964 2146     		mov	r1, r4
 1554 0966 AF20     		movs	r0, #175
 1555 0968 FFF7FEFF 		bl	moveUntil
 1556              	.LVL216:
 1557              	.L39:
 909:main.c        ****                 
 910:main.c        ****             }   
 911:main.c        ****             
 912:main.c        ****             state = STATE_DEPOSIT_PUCK;
 1558              		.loc 1 912 0
 1559 096c 0622     		movs	r2, #6
 1560 096e 694B     		ldr	r3, .L57
 1561 0970 5A60     		str	r2, [r3, #4]
 1562              	.L37:
 913:main.c        ****         }
 914:main.c        ****         
 915:main.c        **** //        
 916:main.c        **** // *** 6. STATE DEPOSIT PUCK: *** // 
 917:main.c        **** //
 918:main.c        ****         
 919:main.c        ****         // We choose where we put the puck. Depending if its needed now, later or never.
 920:main.c        ****         if (state == STATE_DEPOSIT_PUCK){
 1563              		.loc 1 920 0
 1564 0972 684B     		ldr	r3, .L57
 1565 0974 5B68     		ldr	r3, [r3, #4]
 1566 0976 062B     		cmp	r3, #6
 1567 0978 40F09A80 		bne	.L42
 1568              	.LBB11:
 921:main.c        ****                 
 922:main.c        ****             
 923:main.c        ****             // Temp grab puck
 924:main.c        ****             control_photodiode_Write(CLAW_SENSING);    // changes to claw photodiode
 1569              		.loc 1 924 0
 1570 097c 0120     		movs	r0, #1
 1571 097e FFF7FEFF 		bl	control_photodiode_Write
 1572              	.LVL217:
 925:main.c        ****             colour_sensing_algorithm = CLAW_GROUND_ALGORITHM;   // changes it to claw algorithm
 1573              		.loc 1 925 0
 1574 0982 644C     		ldr	r4, .L57
ARM GAS  C:\Users\Misha\AppData\Local\Temp\ccYm0xvZ.s 			page 45


 1575 0984 0523     		movs	r3, #5
 1576 0986 E360     		str	r3, [r4, #12]
 926:main.c        ****             
 927:main.c        ****             /*
 928:main.c        ****             armOpen();
 929:main.c        ****             colourSensingInitialise();
 930:main.c        ****             CyDelay(2000);
 931:main.c        ****             armClose();
 932:main.c        ****             */
 933:main.c        ****             
 934:main.c        ****             
 935:main.c        ****             
 936:main.c        ****             int heldColour = colourSensingOutput();
 1577              		.loc 1 936 0
 1578 0988 FFF7FEFF 		bl	colourSensingOutput
 1579              	.LVL218:
 937:main.c        ****             //blinkLED(heldColour,500);
 938:main.c        ****             
 939:main.c        ****             
 940:main.c        ****             // TO DELETE
 941:main.c        ****             heldColour = current_stage; // temp checking it can stack with a fixed rgb order for si
 1580              		.loc 1 941 0
 1581 098c 624B     		ldr	r3, .L57+4
 1582 098e 1A68     		ldr	r2, [r3]
 1583              	.LVL219:
 942:main.c        ****             //armOpen();
 943:main.c        ****             //CyDelay(1000);
 944:main.c        ****             //armClose();
 945:main.c        ****             
 946:main.c        ****             
 947:main.c        ****             if (heldColour == puckConstructionPlan[currentPuckStackSize] ) { // The currently held 
 1584              		.loc 1 947 0
 1585 0990 A36D     		ldr	r3, [r4, #88]
 1586 0992 04EB8304 		add	r4, r4, r3, lsl #2
 1587 0996 2369     		ldr	r3, [r4, #16]
 1588 0998 9A42     		cmp	r2, r3
 1589 099a 1DD1     		bne	.L43
 948:main.c        ****                 moveUntil(HOME_MIDPOINT - DISTANCE_FRONT_SENSOR_FROM_CENTER, BACKWARD, GREATER_THAN
 1590              		.loc 1 948 0
 1591 099c 0125     		movs	r5, #1
 1592 099e 0195     		str	r5, [sp, #4]
 1593 09a0 C824     		movs	r4, #200
 1594 09a2 0094     		str	r4, [sp]
 1595 09a4 0023     		movs	r3, #0
 1596 09a6 0522     		movs	r2, #5
 1597              	.LVL220:
 1598 09a8 1946     		mov	r1, r3
 1599 09aa 40F22620 		movw	r0, #550
 1600 09ae FFF7FEFF 		bl	moveUntil
 1601              	.LVL221:
 949:main.c        ****                 changeOrientation(NORTH,SPEED);
 1602              		.loc 1 949 0
 1603 09b2 2146     		mov	r1, r4
 1604 09b4 0020     		movs	r0, #0
 1605 09b6 FFF7FEFF 		bl	changeOrientation
 1606              	.LVL222:
 950:main.c        ****                 changeOrientation(WEST,SPEED);
ARM GAS  C:\Users\Misha\AppData\Local\Temp\ccYm0xvZ.s 			page 46


 1607              		.loc 1 950 0
 1608 09ba 2146     		mov	r1, r4
 1609 09bc 0320     		movs	r0, #3
 1610 09be FFF7FEFF 		bl	changeOrientation
 1611              	.LVL223:
 951:main.c        ****                 moveUntil(CONSTRUCTION_MIDPOINT - DISTANCE_FRONT_SENSOR_FROM_CENTER - 30, FORWARD, 
 1612              		.loc 1 951 0
 1613 09c2 0195     		str	r5, [sp, #4]
 1614 09c4 0094     		str	r4, [sp]
 1615 09c6 0023     		movs	r3, #0
 1616 09c8 0422     		movs	r2, #4
 1617 09ca 2946     		mov	r1, r5
 1618 09cc AA20     		movs	r0, #170
 1619 09ce FFF7FEFF 		bl	moveUntil
 1620              	.LVL224:
 952:main.c        ****                 straightAdjust(FRONT_SENSORS);
 1621              		.loc 1 952 0
 1622 09d2 0720     		movs	r0, #7
 1623 09d4 FFF7FEFF 		bl	straightAdjust
 1624              	.LVL225:
 1625              	.L43:
 953:main.c        ****                 
 954:main.c        ****                 //changeOrientation(SOUTH, SPEED);
 955:main.c        ****                 //moveUntil(CONSTRUCTION_MIDPOINT - DISTANCE_FRONT_SENSOR_FROM_CENTER, FORWARD, LES
 956:main.c        ****                 
 957:main.c        ****                 
 958:main.c        ****                 
 959:main.c        ****             }
 960:main.c        ****             /*
 961:main.c        ****             else if ( heldColour == puckConstructionPlan[1] || heldColour == puckConstructionPlan[2
 962:main.c        ****                 moveUntil(ARENA_WIDTH - FIRST_TEMP_DROPOFF + DISTANCE_FRONT_SENSOR_FROM_CENTER, BAC
 963:main.c        ****                 straightAdjust();
 964:main.c        ****             }
 965:main.c        ****             
 966:main.c        ****             else {
 967:main.c        ****                 moveUntil(ARENA_WIDTH-FIRST_DISCARD_ZONE + DISTANCE_FRONT_SENSOR_FROM_CENTER, BACKW
 968:main.c        ****             } // Discard the puck so drop it in rubbish pile
 969:main.c        ****             
 970:main.c        ****             */
 971:main.c        **** 
 972:main.c        ****             changeOrientation(SOUTH,SPEED);    
 1626              		.loc 1 972 0
 1627 09d8 C821     		movs	r1, #200
 1628 09da 0220     		movs	r0, #2
 1629 09dc FFF7FEFF 		bl	changeOrientation
 1630              	.LVL226:
 973:main.c        ****             changeHeightToPuck(ABOVE_3_PUCK, CLOSE); // Lift claw above stack to avoid hitting the 
 1631              		.loc 1 973 0
 1632 09e0 0121     		movs	r1, #1
 1633 09e2 0320     		movs	r0, #3
 1634 09e4 FFF7FEFF 		bl	changeHeightToPuck
 1635              	.LVL227:
 974:main.c        ****             
 975:main.c        ****             if (currentPuckStackSize == 0){
 1636              		.loc 1 975 0
 1637 09e8 4A4B     		ldr	r3, .L57
 1638 09ea 9B6D     		ldr	r3, [r3, #88]
ARM GAS  C:\Users\Misha\AppData\Local\Temp\ccYm0xvZ.s 			page 47


 1639 09ec 63B9     		cbnz	r3, .L44
 976:main.c        ****                 straightAdjust(FRONT_SENSORS);
 1640              		.loc 1 976 0
 1641 09ee 0720     		movs	r0, #7
 1642 09f0 FFF7FEFF 		bl	straightAdjust
 1643              	.LVL228:
 977:main.c        ****                 moveUntil(CONSTRUCTION_DISTANCE_FROM_WALL, FORWARD, LESS_THAN, FRONT_LEFT, SPEED,TR
 1644              		.loc 1 977 0
 1645 09f4 0121     		movs	r1, #1
 1646 09f6 0191     		str	r1, [sp, #4]
 1647 09f8 C823     		movs	r3, #200
 1648 09fa 0093     		str	r3, [sp]
 1649 09fc 0023     		movs	r3, #0
 1650 09fe 0422     		movs	r2, #4
 1651 0a00 8220     		movs	r0, #130
 1652 0a02 FFF7FEFF 		bl	moveUntil
 1653              	.LVL229:
 1654 0a06 09E0     		b	.L45
 1655              	.L44:
 978:main.c        ****                
 979:main.c        ****             }
 980:main.c        ****             else {
 981:main.c        ****                 moveUntil(DISTANCE_BEFORE_STACK_MIDDLE_SENSOR, FORWARD, LESS_THAN, FRONT_MIDDLE, SP
 1656              		.loc 1 981 0
 1657 0a08 0023     		movs	r3, #0
 1658 0a0a 0193     		str	r3, [sp, #4]
 1659 0a0c 4623     		movs	r3, #70
 1660 0a0e 0093     		str	r3, [sp]
 1661 0a10 0523     		movs	r3, #5
 1662 0a12 0422     		movs	r2, #4
 1663 0a14 0121     		movs	r1, #1
 1664 0a16 5F20     		movs	r0, #95
 1665 0a18 FFF7FEFF 		bl	moveUntil
 1666              	.LVL230:
 1667              	.L45:
 982:main.c        ****                 //moveDynamic(140, SPEED, FALSE);            
 983:main.c        ****             }
 984:main.c        ****             
 985:main.c        ****             //moveDynamic(CONSTRUCTION_DISTANCE_CLEAR_FROM_STACK - CONSTRUCTION_DISTANCE_FROM_WALL,
 986:main.c        ****             
 987:main.c        ****             changeHeightToPuck(currentPuckStackSize, CLOSE);
 1668              		.loc 1 987 0
 1669 0a1c 0121     		movs	r1, #1
 1670 0a1e 3D4B     		ldr	r3, .L57
 1671 0a20 986D     		ldr	r0, [r3, #88]
 1672 0a22 FFF7FEFF 		bl	changeHeightToPuck
 1673              	.LVL231:
 988:main.c        ****             armOpen();
 1674              		.loc 1 988 0
 1675 0a26 FFF7FEFF 		bl	armOpen
 1676              	.LVL232:
 989:main.c        ****             changeHeightToPuck(ABOVE_3_PUCK, OPEN); // Move higher than stack to avoid hitting it.
 1677              		.loc 1 989 0
 1678 0a2a 0021     		movs	r1, #0
 1679 0a2c 0320     		movs	r0, #3
 1680 0a2e FFF7FEFF 		bl	changeHeightToPuck
 1681              	.LVL233:
ARM GAS  C:\Users\Misha\AppData\Local\Temp\ccYm0xvZ.s 			page 48


 990:main.c        ****             
 991:main.c        **** 
 992:main.c        ****             if (current_stage >= 3){state = STATE_PARK_HOME;}        // Returns to home 
 1682              		.loc 1 992 0
 1683 0a32 394B     		ldr	r3, .L57+4
 1684 0a34 1B68     		ldr	r3, [r3]
 1685 0a36 022B     		cmp	r3, #2
 1686 0a38 03DD     		ble	.L46
 1687              		.loc 1 992 0 is_stmt 0 discriminator 1
 1688 0a3a 0722     		movs	r2, #7
 1689 0a3c 354B     		ldr	r3, .L57
 1690 0a3e 5A60     		str	r2, [r3, #4]
 1691 0a40 36E0     		b	.L42
 1692              	.L46:
 993:main.c        ****             else {current_stage++; currentPuckStackSize++;
 1693              		.loc 1 993 0 is_stmt 1
 1694 0a42 0133     		adds	r3, r3, #1
 1695 0a44 344A     		ldr	r2, .L57+4
 1696 0a46 1360     		str	r3, [r2]
 1697 0a48 324E     		ldr	r6, .L57
 1698 0a4a B36D     		ldr	r3, [r6, #88]
 1699 0a4c 0133     		adds	r3, r3, #1
 1700 0a4e B365     		str	r3, [r6, #88]
 994:main.c        ****             // Need to go back to the east wall facing east.
 995:main.c        ****                 //moveUntil(CONSTRUCTION_DISTANCE_CLEAR_FROM_STACK, BACKWARD, GREATER_THAN, FRONT_L
 996:main.c        ****                 moveDynamic(-130,SPEED,TRUE);
 1701              		.loc 1 996 0
 1702 0a50 0122     		movs	r2, #1
 1703 0a52 C821     		movs	r1, #200
 1704 0a54 6FF08100 		mvn	r0, #129
 1705 0a58 FFF7FEFF 		bl	moveDynamic
 1706              	.LVL234:
 997:main.c        ****                 changeOrientation(WEST,SPEED);
 1707              		.loc 1 997 0
 1708 0a5c C821     		movs	r1, #200
 1709 0a5e 0320     		movs	r0, #3
 1710 0a60 FFF7FEFF 		bl	changeOrientation
 1711              	.LVL235:
 998:main.c        ****                 straightAdjust(FRONT_SENSORS);
 1712              		.loc 1 998 0
 1713 0a64 0720     		movs	r0, #7
 1714 0a66 FFF7FEFF 		bl	straightAdjust
 1715              	.LVL236:
 999:main.c        ****                 moveUntil(HOME_MIDPOINT - DISTANCE_FRONT_SENSOR_FROM_CENTER, BACKWARD, GREATER_THAN
 1716              		.loc 1 999 0
 1717 0a6a 0124     		movs	r4, #1
 1718 0a6c 0194     		str	r4, [sp, #4]
 1719 0a6e C825     		movs	r5, #200
 1720 0a70 0095     		str	r5, [sp]
 1721 0a72 0023     		movs	r3, #0
 1722 0a74 0522     		movs	r2, #5
 1723 0a76 1946     		mov	r1, r3
 1724 0a78 40F22620 		movw	r0, #550
 1725 0a7c FFF7FEFF 		bl	moveUntil
 1726              	.LVL237:
1000:main.c        ****                 straightAdjust(FRONT_SENSORS);
 1727              		.loc 1 1000 0
ARM GAS  C:\Users\Misha\AppData\Local\Temp\ccYm0xvZ.s 			page 49


 1728 0a80 0720     		movs	r0, #7
 1729 0a82 FFF7FEFF 		bl	straightAdjust
 1730              	.LVL238:
1001:main.c        ****                 changeOrientation(NORTH,SPEED);
 1731              		.loc 1 1001 0
 1732 0a86 2946     		mov	r1, r5
 1733 0a88 0020     		movs	r0, #0
 1734 0a8a FFF7FEFF 		bl	changeOrientation
 1735              	.LVL239:
1002:main.c        ****                 changeOrientation(EAST,SPEED);
 1736              		.loc 1 1002 0
 1737 0a8e 2946     		mov	r1, r5
 1738 0a90 2046     		mov	r0, r4
 1739 0a92 FFF7FEFF 		bl	changeOrientation
 1740              	.LVL240:
1003:main.c        ****                 moveUntil(DISTANCE_FRONT_SENSOR_FROM_CENTER + SAFETY_MARGIN + 50, FORWARD, LESS_THA
 1741              		.loc 1 1003 0
 1742 0a96 0194     		str	r4, [sp, #4]
 1743 0a98 0095     		str	r5, [sp]
 1744 0a9a 0023     		movs	r3, #0
 1745 0a9c 0422     		movs	r2, #4
 1746 0a9e 2146     		mov	r1, r4
 1747 0aa0 B920     		movs	r0, #185
 1748 0aa2 FFF7FEFF 		bl	moveUntil
 1749              	.LVL241:
1004:main.c        ****                 straightAdjust(FRONT_SENSORS);
 1750              		.loc 1 1004 0
 1751 0aa6 0720     		movs	r0, #7
 1752 0aa8 FFF7FEFF 		bl	straightAdjust
 1753              	.LVL242:
1005:main.c        ****                 
1006:main.c        ****                 
1007:main.c        ****                 //Usually we will check if the next colour we need is in home base already
1008:main.c        ****                 //
1009:main.c        ****                 // If in east edge of home base
1010:main.c        ****                 if ( puckConstructionPlan[currentPuckStackSize] == puckColoursTempPile[0]){
1011:main.c        ****                     
1012:main.c        ****                 }
1013:main.c        ****                 //If in west edge of home base
1014:main.c        ****                 else if(puckConstructionPlan[currentPuckStackSize] == puckColoursTempPile[1]){
1015:main.c        ****                          
1016:main.c        ****                 }
1017:main.c        ****                 
1018:main.c        ****                 state = STATE_GO_TO_PUCKS; // Go grab the next puck from the pile since it isn't in
 1754              		.loc 1 1018 0
 1755 0aac 0323     		movs	r3, #3
 1756 0aae 7360     		str	r3, [r6, #4]
 1757              	.L42:
 1758              	.LBE11:
1019:main.c        ****             }
1020:main.c        ****             
1021:main.c        ****             
1022:main.c        **** 
1023:main.c        ****         }
1024:main.c        ****  
1025:main.c        **** //        
1026:main.c        **** // *** 7. STATE PARK HOME: *** // 
ARM GAS  C:\Users\Misha\AppData\Local\Temp\ccYm0xvZ.s 			page 50


1027:main.c        **** //        
1028:main.c        ****         
1029:main.c        ****         if (state == STATE_PARK_HOME){
 1759              		.loc 1 1029 0
 1760 0ab0 184B     		ldr	r3, .L57
 1761 0ab2 5B68     		ldr	r3, [r3, #4]
 1762 0ab4 072B     		cmp	r3, #7
 1763 0ab6 7FF42AAB 		bne	.L47
1030:main.c        ****             
1031:main.c        ****             // When we enter this state we can assume that we have just deposited the final puck on
1032:main.c        ****             // Thus we are facing the stack.
1033:main.c        ****             
1034:main.c        ****             
1035:main.c        ****             moveUntil(CONSTRUCTION_DISTANCE_CLEAR_FROM_STACK, BACKWARD, GREATER_THAN, FRONT_LEFT, S
 1764              		.loc 1 1035 0
 1765 0aba 0024     		movs	r4, #0
 1766 0abc 0194     		str	r4, [sp, #4]
 1767 0abe C825     		movs	r5, #200
 1768 0ac0 0095     		str	r5, [sp]
 1769 0ac2 2346     		mov	r3, r4
 1770 0ac4 0522     		movs	r2, #5
 1771 0ac6 2146     		mov	r1, r4
 1772 0ac8 D220     		movs	r0, #210
 1773 0aca FFF7FEFF 		bl	moveUntil
 1774              	.LVL243:
1036:main.c        ****             changeOrientation(WEST,SPEED);
 1775              		.loc 1 1036 0
 1776 0ace 2946     		mov	r1, r5
 1777 0ad0 0320     		movs	r0, #3
 1778 0ad2 FFF7FEFF 		bl	changeOrientation
 1779              	.LVL244:
1037:main.c        ****             straightAdjust(FRONT_SENSORS);
 1780              		.loc 1 1037 0
 1781 0ad6 0720     		movs	r0, #7
 1782 0ad8 FFF7FEFF 		bl	straightAdjust
 1783              	.LVL245:
1038:main.c        ****             moveUntil(HOME_MIDPOINT - DISTANCE_FRONT_SENSOR_FROM_CENTER - 45 , BACKWARD, GREATER_TH
 1784              		.loc 1 1038 0
 1785 0adc 0126     		movs	r6, #1
 1786 0ade 0196     		str	r6, [sp, #4]
 1787 0ae0 0095     		str	r5, [sp]
 1788 0ae2 3346     		mov	r3, r6
 1789 0ae4 0522     		movs	r2, #5
 1790 0ae6 2146     		mov	r1, r4
 1791 0ae8 40F2F910 		movw	r0, #505
 1792 0aec FFF7FEFF 		bl	moveUntil
 1793              	.LVL246:
1039:main.c        ****             changeOrientation(NORTH,SPEED);
 1794              		.loc 1 1039 0
 1795 0af0 2946     		mov	r1, r5
 1796 0af2 2046     		mov	r0, r4
 1797 0af4 FFF7FEFF 		bl	changeOrientation
 1798              	.LVL247:
1040:main.c        ****             moveUntil(HOME_PARKING_DISTANCE , BACKWARD, LESS_THAN, BACK, SPEED, TRUE);
 1799              		.loc 1 1040 0
 1800 0af8 0196     		str	r6, [sp, #4]
 1801 0afa 0095     		str	r5, [sp]
ARM GAS  C:\Users\Misha\AppData\Local\Temp\ccYm0xvZ.s 			page 51


 1802 0afc 0423     		movs	r3, #4
 1803 0afe 1A46     		mov	r2, r3
 1804 0b00 2146     		mov	r1, r4
 1805 0b02 2820     		movs	r0, #40
 1806 0b04 FFF7FEFF 		bl	moveUntil
 1807              	.LVL248:
1041:main.c        **** 
1042:main.c        ****             // END Congratulations:
1043:main.c        ****             changeHeightToPuck(GROUND, NEITHER);
 1808              		.loc 1 1043 0
 1809 0b08 0221     		movs	r1, #2
 1810 0b0a 2046     		mov	r0, r4
 1811 0b0c FFF7FEFF 		bl	changeHeightToPuck
 1812              	.LVL249:
 1813              	.L48:
 1814 0b10 FEE7     		b	.L48
 1815              	.L58:
 1816 0b12 00BF     		.align	2
 1817              	.L57:
 1818 0b14 00000000 		.word	.LANCHOR0
 1819 0b18 00000000 		.word	.LANCHOR1
 1820              		.cfi_endproc
 1821              	.LFE66:
 1822              		.size	main, .-main
 1823              		.comm	distance_returned_global,4,4
 1824              		.global	current_stage
 1825              		.global	PLAN_SCAN_VERTICAL
 1826              		.global	moving
 1827              		.global	colour_sensing_algorithm
 1828              		.global	colour_flag
 1829              		.global	idac_value
 1830              		.global	puckWestClearance
 1831              		.global	puckEastClearance
 1832              		.global	blockWestClearance
 1833              		.global	blockEastClearance
 1834              		.global	safety_override
 1835              		.global	puck_location
 1836              		.global	block_location
 1837              		.comm	pathPastBlock,4,4
 1838              		.comm	pathToPucks,4,4
 1839              		.global	beginNavigation
 1840              		.global	horizontalPuckGrid
 1841              		.global	puckColoursTempPile
 1842              		.global	puckConstructionPlan
 1843              		.global	currentPuckStackSize
 1844              		.global	running
 1845              		.global	state
 1846              		.comm	ultrasonic_flag,4,4
 1847              		.comm	initialisation,4,4
 1848              		.comm	output,32,4
 1849              		.comm	turningRightFlag,2,2
 1850              		.comm	turningLeftFlag,2,2
 1851              		.comm	drivingBackwardFlag,2,2
 1852              		.comm	drivingForwardFlag,2,2
 1853              		.comm	puckPileLocation,4,4
 1854              		.global	block_edge_location
 1855              		.global	sweeping
ARM GAS  C:\Users\Misha\AppData\Local\Temp\ccYm0xvZ.s 			page 52


 1856              		.global	puckRackOffsetsFromWest
 1857              		.global	puckRackColours
 1858              		.global	currentPuckRackScanningIndex
 1859              		.comm	driveStraightEnable,4,4
 1860              		.comm	internal_orientation,4,4
 1861              		.section	.rodata
 1862              		.align	2
 1863              		.type	PLAN_SCAN_VERTICAL, %object
 1864              		.size	PLAN_SCAN_VERTICAL, 4
 1865              	PLAN_SCAN_VERTICAL:
 1866 0000 0A000000 		.word	10
 1867              		.data
 1868              		.align	2
 1869              		.set	.LANCHOR1,. + 0
 1870              		.type	current_stage, %object
 1871              		.size	current_stage, 4
 1872              	current_stage:
 1873 0000 01000000 		.word	1
 1874              		.type	colour_flag, %object
 1875              		.size	colour_flag, 4
 1876              	colour_flag:
 1877 0004 01000000 		.word	1
 1878              		.type	running, %object
 1879              		.size	running, 4
 1880              	running:
 1881 0008 01000000 		.word	1
 1882              		.type	puckRackOffsetsFromWest, %object
 1883              		.size	puckRackOffsetsFromWest, 20
 1884              	puckRackOffsetsFromWest:
 1885 000c D0020000 		.word	720
 1886 0010 94020000 		.word	660
 1887 0014 58020000 		.word	600
 1888 0018 1C020000 		.word	540
 1889 001c E0010000 		.word	480
 1890              		.section	.rodata.str1.4,"aMS",%progbits,1
 1891              		.align	2
 1892              	.LC0:
 1893 0000 42656769 		.ascii	"Beginning Navigation \012\000"
 1893      6E6E696E 
 1893      67204E61 
 1893      76696761 
 1893      74696F6E 
 1894 0017 00       		.space	1
 1895              	.LC1:
 1896 0018 55415254 		.ascii	"UART commencing... \012\000"
 1896      20636F6D 
 1896      6D656E63 
 1896      696E672E 
 1896      2E2E200A 
 1897 002d 000000   		.space	3
 1898              	.LC2:
 1899 0030 556C7472 		.ascii	"Ultrasonic Calibration tests: \012\000"
 1899      61736F6E 
 1899      69632043 
 1899      616C6962 
 1899      72617469 
 1900              	.LC3:
ARM GAS  C:\Users\Misha\AppData\Local\Temp\ccYm0xvZ.s 			page 53


 1901 0050 466F756E 		.ascii	"Found Colours: \012\000"
 1901      6420436F 
 1901      6C6F7572 
 1901      733A200A 
 1901      00
 1902 0061 000000   		.space	3
 1903              	.LC4:
 1904 0064 2569200A 		.ascii	"%i \012\000"
 1904      00
 1905 0069 000000   		.space	3
 1906              	.LC5:
 1907 006c 64697374 		.ascii	"distance from robot to block: %d \011\000"
 1907      616E6365 
 1907      2066726F 
 1907      6D20726F 
 1907      626F7420 
 1908 008f 00       		.space	1
 1909              	.LC6:
 1910 0090 6E6F7274 		.ascii	"north: %d, \012\000"
 1910      683A2025 
 1910      642C200A 
 1910      00
 1911 009d 000000   		.space	3
 1912              	.LC7:
 1913 00a0 65617374 		.ascii	"east: %d, \012\000"
 1913      3A202564 
 1913      2C200A00 
 1914              	.LC8:
 1915 00ac 736F7574 		.ascii	"south: %d, \012\000"
 1915      683A2025 
 1915      642C200A 
 1915      00
 1916 00b9 000000   		.space	3
 1917              	.LC9:
 1918 00bc 77657374 		.ascii	"west: %d, \012\000"
 1918      3A202564 
 1918      2C200A00 
 1919              	.LC10:
 1920 00c8 25642009 		.ascii	"%d \011\000"
 1920      00
 1921 00cd 000000   		.space	3
 1922              	.LC11:
 1923 00d0 7075636B 		.ascii	"puck check: %d, \012\000"
 1923      20636865 
 1923      636B3A20 
 1923      25642C20 
 1923      0A00
 1924 00e2 0000     		.space	2
 1925              	.LC12:
 1926 00e4 65617374 		.ascii	"east puck: %d, \012\000"
 1926      20707563 
 1926      6B3A2025 
 1926      642C200A 
 1926      00
 1927 00f5 000000   		.space	3
 1928              	.LC13:
 1929 00f8 77657374 		.ascii	"west puck: %d, \012\000"
ARM GAS  C:\Users\Misha\AppData\Local\Temp\ccYm0xvZ.s 			page 54


 1929      20707563 
 1929      6B3A2025 
 1929      642C200A 
 1929      00
 1930 0109 000000   		.space	3
 1931              	.LC14:
 1932 010c 65617374 		.ascii	"east block: %d, \012\000"
 1932      20626C6F 
 1932      636B3A20 
 1932      25642C20 
 1932      0A00
 1933 011e 0000     		.space	2
 1934              	.LC15:
 1935 0120 77657374 		.ascii	"west block: %d, \012\000"
 1935      20626C6F 
 1935      636B3A20 
 1935      25642C20 
 1935      0A00
 1936              		.bss
 1937              		.align	2
 1938              		.set	.LANCHOR0,. + 0
 1939              		.type	beginNavigation, %object
 1940              		.size	beginNavigation, 4
 1941              	beginNavigation:
 1942 0000 00000000 		.space	4
 1943              		.type	state, %object
 1944              		.size	state, 4
 1945              	state:
 1946 0004 00000000 		.space	4
 1947              		.type	idac_value, %object
 1948              		.size	idac_value, 4
 1949              	idac_value:
 1950 0008 00000000 		.space	4
 1951              		.type	colour_sensing_algorithm, %object
 1952              		.size	colour_sensing_algorithm, 4
 1953              	colour_sensing_algorithm:
 1954 000c 00000000 		.space	4
 1955              		.type	puckConstructionPlan, %object
 1956              		.size	puckConstructionPlan, 12
 1957              	puckConstructionPlan:
 1958 0010 00000000 		.space	12
 1958      00000000 
 1958      00000000 
 1959              		.type	puckRackColours, %object
 1960              		.size	puckRackColours, 20
 1961              	puckRackColours:
 1962 001c 00000000 		.space	20
 1962      00000000 
 1962      00000000 
 1962      00000000 
 1962      00000000 
 1963              		.type	block_location, %object
 1964              		.size	block_location, 16
 1965              	block_location:
 1966 0030 00000000 		.space	16
 1966      00000000 
 1966      00000000 
ARM GAS  C:\Users\Misha\AppData\Local\Temp\ccYm0xvZ.s 			page 55


 1966      00000000 
 1967              		.type	puck_location, %object
 1968              		.size	puck_location, 16
 1969              	puck_location:
 1970 0040 00000000 		.space	16
 1970      00000000 
 1970      00000000 
 1970      00000000 
 1971              		.type	blockEastClearance, %object
 1972              		.size	blockEastClearance, 2
 1973              	blockEastClearance:
 1974 0050 0000     		.space	2
 1975              		.type	blockWestClearance, %object
 1976              		.size	blockWestClearance, 2
 1977              	blockWestClearance:
 1978 0052 0000     		.space	2
 1979              		.type	puckEastClearance, %object
 1980              		.size	puckEastClearance, 2
 1981              	puckEastClearance:
 1982 0054 0000     		.space	2
 1983              		.type	puckWestClearance, %object
 1984              		.size	puckWestClearance, 2
 1985              	puckWestClearance:
 1986 0056 0000     		.space	2
 1987              		.type	currentPuckStackSize, %object
 1988              		.size	currentPuckStackSize, 4
 1989              	currentPuckStackSize:
 1990 0058 00000000 		.space	4
 1991              		.type	safety_override, %object
 1992              		.size	safety_override, 4
 1993              	safety_override:
 1994 005c 00000000 		.space	4
 1995              		.type	moving, %object
 1996              		.size	moving, 4
 1997              	moving:
 1998 0060 00000000 		.space	4
 1999              		.type	horizontalPuckGrid, %object
 2000              		.size	horizontalPuckGrid, 4
 2001              	horizontalPuckGrid:
 2002 0064 00000000 		.space	4
 2003              		.type	puckColoursTempPile, %object
 2004              		.size	puckColoursTempPile, 8
 2005              	puckColoursTempPile:
 2006 0068 00000000 		.space	8
 2006      00000000 
 2007              		.type	block_edge_location, %object
 2008              		.size	block_edge_location, 16
 2009              	block_edge_location:
 2010 0070 00000000 		.space	16
 2010      00000000 
 2010      00000000 
 2010      00000000 
 2011              		.type	sweeping, %object
 2012              		.size	sweeping, 4
 2013              	sweeping:
 2014 0080 00000000 		.space	4
 2015              		.type	currentPuckRackScanningIndex, %object
ARM GAS  C:\Users\Misha\AppData\Local\Temp\ccYm0xvZ.s 			page 56


 2016              		.size	currentPuckRackScanningIndex, 4
 2017              	currentPuckRackScanningIndex:
 2018 0084 00000000 		.space	4
 2019              		.text
 2020              	.Letext0:
 2021              		.file 2 "c:\\program files (x86)\\cypress\\psoc creator\\4.2\\psoc creator\\import\\gnu\\arm\\5.4.
 2022              		.file 3 "c:\\program files (x86)\\cypress\\psoc creator\\4.2\\psoc creator\\import\\gnu\\arm\\5.4.
 2023              		.file 4 "Generated_Source\\PSoC5/core_cm3.h"
 2024              		.file 5 "navigation.h"
 2025              		.file 6 "ultrasonic.h"
 2026              		.file 7 "main.h"
 2027              		.file 8 "Generated_Source\\PSoC5/CyLib.h"
 2028              		.file 9 "Generated_Source\\PSoC5/UART_1.h"
 2029              		.file 10 "colour.h"
 2030              		.file 11 "c:\\program files (x86)\\cypress\\psoc creator\\4.2\\psoc creator\\import\\gnu\\arm\\5.4
 2031              		.file 12 "debugging.h"
 2032              		.file 13 "Generated_Source\\PSoC5/control_photodiode.h"
 2033              		.file 14 "motor.h"
 2034              		.file 15 "servo.h"
 2035              		.file 16 "Generated_Source\\PSoC5/TIA_1.h"
 2036              		.file 17 "Generated_Source\\PSoC5/ADC.h"
 2037              		.file 18 "Generated_Source\\PSoC5/IDAC8_1.h"
 2038              		.file 19 "Generated_Source\\PSoC5/control_led.h"
 2039              		.file 20 "Generated_Source\\PSoC5/Rack_Servo_PWM.h"
 2040              		.file 21 "Generated_Source\\PSoC5/Gripper_Servo_PWM.h"
 2041              		.file 22 "Generated_Source\\PSoC5/Motor_Left_Driver.h"
 2042              		.file 23 "Generated_Source\\PSoC5/Motor_Right_Driver.h"
 2043              		.file 24 "Generated_Source\\PSoC5/Motor_Left_Decoder.h"
 2044              		.file 25 "Generated_Source\\PSoC5/Motor_Right_Decoder.h"
 2045              		.file 26 "Generated_Source\\PSoC5/Timer_1.h"
 2046              		.file 27 "Generated_Source\\PSoC5/Sonic.h"
 2047              		.file 28 "Generated_Source\\PSoC5/Start.h"
 2048              		.file 29 "Generated_Source\\PSoC5/Timer_straight_adjust.h"
 2049              		.file 30 "Generated_Source\\PSoC5/Control_Reset_Straight.h"
 2050              		.section	.debug_info,"",%progbits
 2051              	.Ldebug_info0:
 2052 0000 D21C0000 		.4byte	0x1cd2
 2053 0004 0400     		.2byte	0x4
 2054 0006 00000000 		.4byte	.Ldebug_abbrev0
 2055 000a 04       		.byte	0x4
 2056 000b 01       		.uleb128 0x1
 2057 000c A1070000 		.4byte	.LASF114
 2058 0010 0C       		.byte	0xc
 2059 0011 06060000 		.4byte	.LASF115
 2060 0015 BD060000 		.4byte	.LASF116
 2061 0019 18000000 		.4byte	.Ldebug_ranges0+0x18
 2062 001d 00000000 		.4byte	0
 2063 0021 00000000 		.4byte	.Ldebug_line0
 2064 0025 02       		.uleb128 0x2
 2065 0026 01       		.byte	0x1
 2066 0027 06       		.byte	0x6
 2067 0028 92040000 		.4byte	.LASF0
 2068 002c 02       		.uleb128 0x2
 2069 002d 01       		.byte	0x1
 2070 002e 08       		.byte	0x8
 2071 002f D7030000 		.4byte	.LASF1
 2072 0033 02       		.uleb128 0x2
ARM GAS  C:\Users\Misha\AppData\Local\Temp\ccYm0xvZ.s 			page 57


 2073 0034 02       		.byte	0x2
 2074 0035 05       		.byte	0x5
 2075 0036 89000000 		.4byte	.LASF2
 2076 003a 02       		.uleb128 0x2
 2077 003b 02       		.byte	0x2
 2078 003c 07       		.byte	0x7
 2079 003d E2050000 		.4byte	.LASF3
 2080 0041 03       		.uleb128 0x3
 2081 0042 A0060000 		.4byte	.LASF9
 2082 0046 02       		.byte	0x2
 2083 0047 3F       		.byte	0x3f
 2084 0048 4C000000 		.4byte	0x4c
 2085 004c 02       		.uleb128 0x2
 2086 004d 04       		.byte	0x4
 2087 004e 05       		.byte	0x5
 2088 004f D1020000 		.4byte	.LASF4
 2089 0053 02       		.uleb128 0x2
 2090 0054 04       		.byte	0x4
 2091 0055 07       		.byte	0x7
 2092 0056 15060000 		.4byte	.LASF5
 2093 005a 02       		.uleb128 0x2
 2094 005b 08       		.byte	0x8
 2095 005c 05       		.byte	0x5
 2096 005d 83020000 		.4byte	.LASF6
 2097 0061 02       		.uleb128 0x2
 2098 0062 08       		.byte	0x8
 2099 0063 07       		.byte	0x7
 2100 0064 B2040000 		.4byte	.LASF7
 2101 0068 04       		.uleb128 0x4
 2102 0069 04       		.byte	0x4
 2103 006a 05       		.byte	0x5
 2104 006b 696E7400 		.ascii	"int\000"
 2105 006f 02       		.uleb128 0x2
 2106 0070 04       		.byte	0x4
 2107 0071 07       		.byte	0x7
 2108 0072 DB040000 		.4byte	.LASF8
 2109 0076 03       		.uleb128 0x3
 2110 0077 F7000000 		.4byte	.LASF10
 2111 007b 03       		.byte	0x3
 2112 007c 2C       		.byte	0x2c
 2113 007d 41000000 		.4byte	0x41
 2114 0081 02       		.uleb128 0x2
 2115 0082 04       		.byte	0x4
 2116 0083 04       		.byte	0x4
 2117 0084 6A020000 		.4byte	.LASF11
 2118 0088 02       		.uleb128 0x2
 2119 0089 08       		.byte	0x8
 2120 008a 04       		.byte	0x4
 2121 008b 57070000 		.4byte	.LASF12
 2122 008f 02       		.uleb128 0x2
 2123 0090 01       		.byte	0x1
 2124 0091 08       		.byte	0x8
 2125 0092 5E050000 		.4byte	.LASF13
 2126 0096 02       		.uleb128 0x2
 2127 0097 08       		.byte	0x8
 2128 0098 04       		.byte	0x4
 2129 0099 40010000 		.4byte	.LASF14
ARM GAS  C:\Users\Misha\AppData\Local\Temp\ccYm0xvZ.s 			page 58


 2130 009d 02       		.uleb128 0x2
 2131 009e 04       		.byte	0x4
 2132 009f 07       		.byte	0x7
 2133 00a0 47070000 		.4byte	.LASF15
 2134 00a4 05       		.uleb128 0x5
 2135 00a5 54494800 		.ascii	"TIH\000"
 2136 00a9 01       		.byte	0x1
 2137 00aa 66       		.byte	0x66
 2138 00ab 00000000 		.4byte	.LFB64
 2139 00af 08000000 		.4byte	.LFE64-.LFB64
 2140 00b3 01       		.uleb128 0x1
 2141 00b4 9C       		.byte	0x9c
 2142 00b5 C3000000 		.4byte	0xc3
 2143 00b9 06       		.uleb128 0x6
 2144 00ba 06000000 		.4byte	.LVL0
 2145 00be BA1A0000 		.4byte	0x1aba
 2146 00c2 00       		.byte	0
 2147 00c3 07       		.uleb128 0x7
 2148 00c4 0D060000 		.4byte	.LASF16
 2149 00c8 01       		.byte	0x1
 2150 00c9 6B       		.byte	0x6b
 2151 00ca 00000000 		.4byte	.LFB65
 2152 00ce 24000000 		.4byte	.LFE65-.LFB65
 2153 00d2 01       		.uleb128 0x1
 2154 00d3 9C       		.byte	0x9c
 2155 00d4 00010000 		.4byte	0x100
 2156 00d8 08       		.uleb128 0x8
 2157 00d9 08000000 		.4byte	.LVL1
 2158 00dd C51A0000 		.4byte	0x1ac5
 2159 00e1 EC000000 		.4byte	0xec
 2160 00e5 09       		.uleb128 0x9
 2161 00e6 01       		.uleb128 0x1
 2162 00e7 50       		.byte	0x50
 2163 00e8 02       		.uleb128 0x2
 2164 00e9 08       		.byte	0x8
 2165 00ea 64       		.byte	0x64
 2166 00eb 00       		.byte	0
 2167 00ec 0A       		.uleb128 0xa
 2168 00ed 14000000 		.4byte	.LVL2
 2169 00f1 D01A0000 		.4byte	0x1ad0
 2170 00f5 09       		.uleb128 0x9
 2171 00f6 01       		.uleb128 0x1
 2172 00f7 50       		.byte	0x50
 2173 00f8 05       		.uleb128 0x5
 2174 00f9 03       		.byte	0x3
 2175 00fa 00000000 		.4byte	.LC0
 2176 00fe 00       		.byte	0
 2177 00ff 00       		.byte	0
 2178 0100 0B       		.uleb128 0xb
 2179 0101 75050000 		.4byte	.LASF117
 2180 0105 01       		.byte	0x1
 2181 0106 76       		.byte	0x76
 2182 0107 68000000 		.4byte	0x68
 2183 010b 00000000 		.4byte	.LFB66
 2184 010f 1C0B0000 		.4byte	.LFE66-.LFB66
 2185 0113 01       		.uleb128 0x1
 2186 0114 9C       		.byte	0x9c
ARM GAS  C:\Users\Misha\AppData\Local\Temp\ccYm0xvZ.s 			page 59


 2187 0115 A3170000 		.4byte	0x17a3
 2188 0119 0C       		.uleb128 0xc
 2189 011a 91020000 		.4byte	.LASF17
 2190 011e 01       		.byte	0x1
 2191 011f C7       		.byte	0xc7
 2192 0120 68000000 		.4byte	0x68
 2193 0124 00       		.byte	0
 2194 0125 0D       		.uleb128 0xd
 2195 0126 16010000 		.4byte	.LBB2
 2196 012a A0000000 		.4byte	.LBE2-.LBB2
 2197 012e 57020000 		.4byte	0x257
 2198 0132 0E       		.uleb128 0xe
 2199 0133 2F080000 		.4byte	.LASF18
 2200 0137 01       		.byte	0x1
 2201 0138 8601     		.2byte	0x186
 2202 013a 68000000 		.4byte	0x68
 2203 013e 00000000 		.4byte	.LLST0
 2204 0142 0D       		.uleb128 0xd
 2205 0143 3A010000 		.4byte	.LBB3
 2206 0147 1E000000 		.4byte	.LBE3-.LBB3
 2207 014b 78010000 		.4byte	0x178
 2208 014f 0F       		.uleb128 0xf
 2209 0150 6900     		.ascii	"i\000"
 2210 0152 01       		.byte	0x1
 2211 0153 7101     		.2byte	0x171
 2212 0155 68000000 		.4byte	0x68
 2213 0159 1F000000 		.4byte	.LLST1
 2214 015d 06       		.uleb128 0x6
 2215 015e 42010000 		.4byte	.LVL53
 2216 0162 DB1A0000 		.4byte	0x1adb
 2217 0166 0A       		.uleb128 0xa
 2218 0167 52010000 		.4byte	.LVL54
 2219 016b C51A0000 		.4byte	0x1ac5
 2220 016f 09       		.uleb128 0x9
 2221 0170 01       		.uleb128 0x1
 2222 0171 50       		.byte	0x50
 2223 0172 03       		.uleb128 0x3
 2224 0173 0A       		.byte	0xa
 2225 0174 F401     		.2byte	0x1f4
 2226 0176 00       		.byte	0
 2227 0177 00       		.byte	0
 2228 0178 0D       		.uleb128 0xd
 2229 0179 5E010000 		.4byte	.LBB4
 2230 017d 22000000 		.4byte	.LBE4-.LBB4
 2231 0181 C1010000 		.4byte	0x1c1
 2232 0185 0F       		.uleb128 0xf
 2233 0186 6900     		.ascii	"i\000"
 2234 0188 01       		.byte	0x1
 2235 0189 7B01     		.2byte	0x17b
 2236 018b 68000000 		.4byte	0x68
 2237 018f 3E000000 		.4byte	.LLST2
 2238 0193 08       		.uleb128 0x8
 2239 0194 74010000 		.4byte	.LVL59
 2240 0198 E61A0000 		.4byte	0x1ae6
 2241 019c B0010000 		.4byte	0x1b0
 2242 01a0 09       		.uleb128 0x9
 2243 01a1 01       		.uleb128 0x1
ARM GAS  C:\Users\Misha\AppData\Local\Temp\ccYm0xvZ.s 			page 60


 2244 01a2 50       		.byte	0x50
 2245 01a3 02       		.uleb128 0x2
 2246 01a4 75       		.byte	0x75
 2247 01a5 00       		.sleb128 0
 2248 01a6 09       		.uleb128 0x9
 2249 01a7 01       		.uleb128 0x1
 2250 01a8 51       		.byte	0x51
 2251 01a9 05       		.uleb128 0x5
 2252 01aa 03       		.byte	0x3
 2253 01ab 64000000 		.4byte	.LC4
 2254 01af 00       		.byte	0
 2255 01b0 0A       		.uleb128 0xa
 2256 01b1 7A010000 		.4byte	.LVL60
 2257 01b5 D01A0000 		.4byte	0x1ad0
 2258 01b9 09       		.uleb128 0x9
 2259 01ba 01       		.uleb128 0x1
 2260 01bb 50       		.byte	0x50
 2261 01bc 02       		.uleb128 0x2
 2262 01bd 75       		.byte	0x75
 2263 01be 00       		.sleb128 0
 2264 01bf 00       		.byte	0
 2265 01c0 00       		.byte	0
 2266 01c1 10       		.uleb128 0x10
 2267 01c2 00000000 		.4byte	.Ldebug_ranges0+0
 2268 01c6 DB010000 		.4byte	0x1db
 2269 01ca 0E       		.uleb128 0xe
 2270 01cb 4C010000 		.4byte	.LASF19
 2271 01cf 01       		.byte	0x1
 2272 01d0 8901     		.2byte	0x189
 2273 01d2 68000000 		.4byte	0x68
 2274 01d6 5D000000 		.4byte	.LLST3
 2275 01da 00       		.byte	0
 2276 01db 06       		.uleb128 0x6
 2277 01dc 1A010000 		.4byte	.LVL48
 2278 01e0 F11A0000 		.4byte	0x1af1
 2279 01e4 08       		.uleb128 0x8
 2280 01e5 20010000 		.4byte	.LVL49
 2281 01e9 FC1A0000 		.4byte	0x1afc
 2282 01ed F7010000 		.4byte	0x1f7
 2283 01f1 09       		.uleb128 0x9
 2284 01f2 01       		.uleb128 0x1
 2285 01f3 50       		.byte	0x50
 2286 01f4 01       		.uleb128 0x1
 2287 01f5 37       		.byte	0x37
 2288 01f6 00       		.byte	0
 2289 01f7 08       		.uleb128 0x8
 2290 01f8 36010000 		.4byte	.LVL50
 2291 01fc 071B0000 		.4byte	0x1b07
 2292 0200 27020000 		.4byte	0x227
 2293 0204 09       		.uleb128 0x9
 2294 0205 01       		.uleb128 0x1
 2295 0206 50       		.byte	0x50
 2296 0207 02       		.uleb128 0x2
 2297 0208 09       		.byte	0x9
 2298 0209 9C       		.byte	0x9c
 2299 020a 09       		.uleb128 0x9
 2300 020b 01       		.uleb128 0x1
ARM GAS  C:\Users\Misha\AppData\Local\Temp\ccYm0xvZ.s 			page 61


 2301 020c 51       		.byte	0x51
 2302 020d 01       		.uleb128 0x1
 2303 020e 30       		.byte	0x30
 2304 020f 09       		.uleb128 0x9
 2305 0210 01       		.uleb128 0x1
 2306 0211 52       		.byte	0x52
 2307 0212 01       		.uleb128 0x1
 2308 0213 34       		.byte	0x34
 2309 0214 09       		.uleb128 0x9
 2310 0215 01       		.uleb128 0x1
 2311 0216 53       		.byte	0x53
 2312 0217 01       		.uleb128 0x1
 2313 0218 34       		.byte	0x34
 2314 0219 09       		.uleb128 0x9
 2315 021a 02       		.uleb128 0x2
 2316 021b 7D       		.byte	0x7d
 2317 021c 00       		.sleb128 0
 2318 021d 02       		.uleb128 0x2
 2319 021e 08       		.byte	0x8
 2320 021f C8       		.byte	0xc8
 2321 0220 09       		.uleb128 0x9
 2322 0221 02       		.uleb128 0x2
 2323 0222 7D       		.byte	0x7d
 2324 0223 04       		.sleb128 4
 2325 0224 01       		.uleb128 0x1
 2326 0225 31       		.byte	0x31
 2327 0226 00       		.byte	0
 2328 0227 06       		.uleb128 0x6
 2329 0228 3A010000 		.4byte	.LVL51
 2330 022c 121B0000 		.4byte	0x1b12
 2331 0230 08       		.uleb128 0x8
 2332 0231 5E010000 		.4byte	.LVL56
 2333 0235 D01A0000 		.4byte	0x1ad0
 2334 0239 47020000 		.4byte	0x247
 2335 023d 09       		.uleb128 0x9
 2336 023e 01       		.uleb128 0x1
 2337 023f 50       		.byte	0x50
 2338 0240 05       		.uleb128 0x5
 2339 0241 03       		.byte	0x3
 2340 0242 50000000 		.4byte	.LC3
 2341 0246 00       		.byte	0
 2342 0247 0A       		.uleb128 0xa
 2343 0248 86010000 		.4byte	.LVL62
 2344 024c 1D1B0000 		.4byte	0x1b1d
 2345 0250 09       		.uleb128 0x9
 2346 0251 01       		.uleb128 0x1
 2347 0252 50       		.byte	0x50
 2348 0253 01       		.uleb128 0x1
 2349 0254 31       		.byte	0x31
 2350 0255 00       		.byte	0
 2351 0256 00       		.byte	0
 2352 0257 0D       		.uleb128 0xd
 2353 0258 C0010000 		.4byte	.LBB7
 2354 025c 14040000 		.4byte	.LBE7-.LBB7
 2355 0260 550A0000 		.4byte	0xa55
 2356 0264 0E       		.uleb128 0xe
 2357 0265 8A060000 		.4byte	.LASF20
ARM GAS  C:\Users\Misha\AppData\Local\Temp\ccYm0xvZ.s 			page 62


 2358 0269 01       		.byte	0x1
 2359 026a C101     		.2byte	0x1c1
 2360 026c 68000000 		.4byte	0x68
 2361 0270 7C000000 		.4byte	.LLST4
 2362 0274 0E       		.uleb128 0xe
 2363 0275 72010000 		.4byte	.LASF21
 2364 0279 01       		.byte	0x1
 2365 027a 4C02     		.2byte	0x24c
 2366 027c 68000000 		.4byte	0x68
 2367 0280 8F000000 		.4byte	.LLST5
 2368 0284 0D       		.uleb128 0xd
 2369 0285 18040000 		.4byte	.LBB8
 2370 0289 36000000 		.4byte	.LBE8-.LBB8
 2371 028d B8020000 		.4byte	0x2b8
 2372 0291 0E       		.uleb128 0xe
 2373 0292 08030000 		.4byte	.LASF22
 2374 0296 01       		.byte	0x1
 2375 0297 6402     		.2byte	0x264
 2376 0299 68000000 		.4byte	0x68
 2377 029d A2000000 		.4byte	.LLST6
 2378 02a1 0A       		.uleb128 0xa
 2379 02a2 4E040000 		.4byte	.LVL124
 2380 02a6 281B0000 		.4byte	0x1b28
 2381 02aa 09       		.uleb128 0x9
 2382 02ab 01       		.uleb128 0x1
 2383 02ac 50       		.byte	0x50
 2384 02ad 01       		.uleb128 0x1
 2385 02ae 32       		.byte	0x32
 2386 02af 09       		.uleb128 0x9
 2387 02b0 01       		.uleb128 0x1
 2388 02b1 51       		.byte	0x51
 2389 02b2 03       		.uleb128 0x3
 2390 02b3 0A       		.byte	0xa
 2391 02b4 E803     		.2byte	0x3e8
 2392 02b6 00       		.byte	0
 2393 02b7 00       		.byte	0
 2394 02b8 0D       		.uleb128 0xd
 2395 02b9 50040000 		.4byte	.LBB9
 2396 02bd A8000000 		.4byte	.LBE9-.LBB9
 2397 02c1 15040000 		.4byte	0x415
 2398 02c5 0E       		.uleb128 0xe
 2399 02c6 08030000 		.4byte	.LASF22
 2400 02ca 01       		.byte	0x1
 2401 02cb 7E02     		.2byte	0x27e
 2402 02cd 68000000 		.4byte	0x68
 2403 02d1 B5000000 		.4byte	.LLST7
 2404 02d5 08       		.uleb128 0x8
 2405 02d6 5A040000 		.4byte	.LVL125
 2406 02da 281B0000 		.4byte	0x1b28
 2407 02de F0020000 		.4byte	0x2f0
 2408 02e2 09       		.uleb128 0x9
 2409 02e3 01       		.uleb128 0x1
 2410 02e4 50       		.byte	0x50
 2411 02e5 02       		.uleb128 0x2
 2412 02e6 79       		.byte	0x79
 2413 02e7 00       		.sleb128 0
 2414 02e8 09       		.uleb128 0x9
ARM GAS  C:\Users\Misha\AppData\Local\Temp\ccYm0xvZ.s 			page 63


 2415 02e9 01       		.uleb128 0x1
 2416 02ea 51       		.byte	0x51
 2417 02eb 03       		.uleb128 0x3
 2418 02ec 0A       		.byte	0xa
 2419 02ed E803     		.2byte	0x3e8
 2420 02ef 00       		.byte	0
 2421 02f0 08       		.uleb128 0x8
 2422 02f1 6E040000 		.4byte	.LVL127
 2423 02f5 071B0000 		.4byte	0x1b07
 2424 02f9 21030000 		.4byte	0x321
 2425 02fd 09       		.uleb128 0x9
 2426 02fe 01       		.uleb128 0x1
 2427 02ff 50       		.byte	0x50
 2428 0300 02       		.uleb128 0x2
 2429 0301 7A       		.byte	0x7a
 2430 0302 00       		.sleb128 0
 2431 0303 09       		.uleb128 0x9
 2432 0304 01       		.uleb128 0x1
 2433 0305 51       		.byte	0x51
 2434 0306 01       		.uleb128 0x1
 2435 0307 30       		.byte	0x30
 2436 0308 09       		.uleb128 0x9
 2437 0309 01       		.uleb128 0x1
 2438 030a 52       		.byte	0x52
 2439 030b 01       		.uleb128 0x1
 2440 030c 34       		.byte	0x34
 2441 030d 09       		.uleb128 0x9
 2442 030e 01       		.uleb128 0x1
 2443 030f 53       		.byte	0x53
 2444 0310 01       		.uleb128 0x1
 2445 0311 34       		.byte	0x34
 2446 0312 09       		.uleb128 0x9
 2447 0313 02       		.uleb128 0x2
 2448 0314 7D       		.byte	0x7d
 2449 0315 00       		.sleb128 0
 2450 0316 02       		.uleb128 0x2
 2451 0317 7A       		.byte	0x7a
 2452 0318 00       		.sleb128 0
 2453 0319 09       		.uleb128 0x9
 2454 031a 02       		.uleb128 0x2
 2455 031b 7D       		.byte	0x7d
 2456 031c 04       		.sleb128 4
 2457 031d 02       		.uleb128 0x2
 2458 031e 79       		.byte	0x79
 2459 031f 00       		.sleb128 0
 2460 0320 00       		.byte	0
 2461 0321 08       		.uleb128 0x8
 2462 0322 76040000 		.4byte	.LVL128
 2463 0326 331B0000 		.4byte	0x1b33
 2464 032a 3A030000 		.4byte	0x33a
 2465 032e 09       		.uleb128 0x9
 2466 032f 01       		.uleb128 0x1
 2467 0330 50       		.byte	0x50
 2468 0331 01       		.uleb128 0x1
 2469 0332 33       		.byte	0x33
 2470 0333 09       		.uleb128 0x9
 2471 0334 01       		.uleb128 0x1
ARM GAS  C:\Users\Misha\AppData\Local\Temp\ccYm0xvZ.s 			page 64


 2472 0335 51       		.byte	0x51
 2473 0336 02       		.uleb128 0x2
 2474 0337 7A       		.byte	0x7a
 2475 0338 00       		.sleb128 0
 2476 0339 00       		.byte	0
 2477 033a 08       		.uleb128 0x8
 2478 033b 86040000 		.4byte	.LVL129
 2479 033f 071B0000 		.4byte	0x1b07
 2480 0343 6C030000 		.4byte	0x36c
 2481 0347 09       		.uleb128 0x9
 2482 0348 01       		.uleb128 0x1
 2483 0349 50       		.byte	0x50
 2484 034a 02       		.uleb128 0x2
 2485 034b 08       		.byte	0x8
 2486 034c 82       		.byte	0x82
 2487 034d 09       		.uleb128 0x9
 2488 034e 01       		.uleb128 0x1
 2489 034f 51       		.byte	0x51
 2490 0350 02       		.uleb128 0x2
 2491 0351 79       		.byte	0x79
 2492 0352 00       		.sleb128 0
 2493 0353 09       		.uleb128 0x9
 2494 0354 01       		.uleb128 0x1
 2495 0355 52       		.byte	0x52
 2496 0356 01       		.uleb128 0x1
 2497 0357 34       		.byte	0x34
 2498 0358 09       		.uleb128 0x9
 2499 0359 01       		.uleb128 0x1
 2500 035a 53       		.byte	0x53
 2501 035b 01       		.uleb128 0x1
 2502 035c 30       		.byte	0x30
 2503 035d 09       		.uleb128 0x9
 2504 035e 02       		.uleb128 0x2
 2505 035f 7D       		.byte	0x7d
 2506 0360 00       		.sleb128 0
 2507 0361 02       		.uleb128 0x2
 2508 0362 7A       		.byte	0x7a
 2509 0363 00       		.sleb128 0
 2510 0364 09       		.uleb128 0x9
 2511 0365 02       		.uleb128 0x2
 2512 0366 7D       		.byte	0x7d
 2513 0367 04       		.sleb128 4
 2514 0368 02       		.uleb128 0x2
 2515 0369 79       		.byte	0x79
 2516 036a 00       		.sleb128 0
 2517 036b 00       		.byte	0
 2518 036c 08       		.uleb128 0x8
 2519 036d 8C040000 		.4byte	.LVL130
 2520 0371 FC1A0000 		.4byte	0x1afc
 2521 0375 7F030000 		.4byte	0x37f
 2522 0379 09       		.uleb128 0x9
 2523 037a 01       		.uleb128 0x1
 2524 037b 50       		.byte	0x50
 2525 037c 01       		.uleb128 0x1
 2526 037d 37       		.byte	0x37
 2527 037e 00       		.byte	0
 2528 037f 08       		.uleb128 0x8
ARM GAS  C:\Users\Misha\AppData\Local\Temp\ccYm0xvZ.s 			page 65


 2529 0380 9C040000 		.4byte	.LVL131
 2530 0384 071B0000 		.4byte	0x1b07
 2531 0388 B0030000 		.4byte	0x3b0
 2532 038c 09       		.uleb128 0x9
 2533 038d 01       		.uleb128 0x1
 2534 038e 50       		.byte	0x50
 2535 038f 02       		.uleb128 0x2
 2536 0390 76       		.byte	0x76
 2537 0391 00       		.sleb128 0
 2538 0392 09       		.uleb128 0x9
 2539 0393 01       		.uleb128 0x1
 2540 0394 51       		.byte	0x51
 2541 0395 01       		.uleb128 0x1
 2542 0396 30       		.byte	0x30
 2543 0397 09       		.uleb128 0x9
 2544 0398 01       		.uleb128 0x1
 2545 0399 52       		.byte	0x52
 2546 039a 01       		.uleb128 0x1
 2547 039b 34       		.byte	0x34
 2548 039c 09       		.uleb128 0x9
 2549 039d 01       		.uleb128 0x1
 2550 039e 53       		.byte	0x53
 2551 039f 01       		.uleb128 0x1
 2552 03a0 33       		.byte	0x33
 2553 03a1 09       		.uleb128 0x9
 2554 03a2 02       		.uleb128 0x2
 2555 03a3 7D       		.byte	0x7d
 2556 03a4 00       		.sleb128 0
 2557 03a5 02       		.uleb128 0x2
 2558 03a6 7A       		.byte	0x7a
 2559 03a7 00       		.sleb128 0
 2560 03a8 09       		.uleb128 0x9
 2561 03a9 02       		.uleb128 0x2
 2562 03aa 7D       		.byte	0x7d
 2563 03ab 04       		.sleb128 4
 2564 03ac 02       		.uleb128 0x2
 2565 03ad 79       		.byte	0x79
 2566 03ae 00       		.sleb128 0
 2567 03af 00       		.byte	0
 2568 03b0 08       		.uleb128 0x8
 2569 03b1 A6040000 		.4byte	.LVL132
 2570 03b5 281B0000 		.4byte	0x1b28
 2571 03b9 CA030000 		.4byte	0x3ca
 2572 03bd 09       		.uleb128 0x9
 2573 03be 01       		.uleb128 0x1
 2574 03bf 50       		.byte	0x50
 2575 03c0 01       		.uleb128 0x1
 2576 03c1 32       		.byte	0x32
 2577 03c2 09       		.uleb128 0x9
 2578 03c3 01       		.uleb128 0x1
 2579 03c4 51       		.byte	0x51
 2580 03c5 03       		.uleb128 0x3
 2581 03c6 0A       		.byte	0xa
 2582 03c7 E803     		.2byte	0x3e8
 2583 03c9 00       		.byte	0
 2584 03ca 08       		.uleb128 0x8
 2585 03cb AC040000 		.4byte	.LVL133
ARM GAS  C:\Users\Misha\AppData\Local\Temp\ccYm0xvZ.s 			page 66


 2586 03cf 3E1B0000 		.4byte	0x1b3e
 2587 03d3 DD030000 		.4byte	0x3dd
 2588 03d7 09       		.uleb128 0x9
 2589 03d8 01       		.uleb128 0x1
 2590 03d9 50       		.byte	0x50
 2591 03da 01       		.uleb128 0x1
 2592 03db 30       		.byte	0x30
 2593 03dc 00       		.byte	0
 2594 03dd 08       		.uleb128 0x8
 2595 03de B2040000 		.4byte	.LVL134
 2596 03e2 C51A0000 		.4byte	0x1ac5
 2597 03e6 F1030000 		.4byte	0x3f1
 2598 03ea 09       		.uleb128 0x9
 2599 03eb 01       		.uleb128 0x1
 2600 03ec 50       		.byte	0x50
 2601 03ed 02       		.uleb128 0x2
 2602 03ee 08       		.byte	0x8
 2603 03ef 3C       		.byte	0x3c
 2604 03f0 00       		.byte	0
 2605 03f1 08       		.uleb128 0x8
 2606 03f2 B8040000 		.4byte	.LVL135
 2607 03f6 3E1B0000 		.4byte	0x1b3e
 2608 03fa 04040000 		.4byte	0x404
 2609 03fe 09       		.uleb128 0x9
 2610 03ff 01       		.uleb128 0x1
 2611 0400 50       		.byte	0x50
 2612 0401 01       		.uleb128 0x1
 2613 0402 34       		.byte	0x34
 2614 0403 00       		.byte	0
 2615 0404 0A       		.uleb128 0xa
 2616 0405 BE040000 		.4byte	.LVL136
 2617 0409 C51A0000 		.4byte	0x1ac5
 2618 040d 09       		.uleb128 0x9
 2619 040e 01       		.uleb128 0x1
 2620 040f 50       		.byte	0x50
 2621 0410 02       		.uleb128 0x2
 2622 0411 08       		.byte	0x8
 2623 0412 3C       		.byte	0x3c
 2624 0413 00       		.byte	0
 2625 0414 00       		.byte	0
 2626 0415 06       		.uleb128 0x6
 2627 0416 C4010000 		.4byte	.LVL70
 2628 041a F11A0000 		.4byte	0x1af1
 2629 041e 08       		.uleb128 0x8
 2630 041f D2010000 		.4byte	.LVL71
 2631 0423 491B0000 		.4byte	0x1b49
 2632 0427 42040000 		.4byte	0x442
 2633 042b 09       		.uleb128 0x9
 2634 042c 01       		.uleb128 0x1
 2635 042d 50       		.byte	0x50
 2636 042e 01       		.uleb128 0x1
 2637 042f 49       		.byte	0x49
 2638 0430 09       		.uleb128 0x9
 2639 0431 01       		.uleb128 0x1
 2640 0432 51       		.byte	0x51
 2641 0433 02       		.uleb128 0x2
 2642 0434 09       		.byte	0x9
ARM GAS  C:\Users\Misha\AppData\Local\Temp\ccYm0xvZ.s 			page 67


 2643 0435 DD       		.byte	0xdd
 2644 0436 09       		.uleb128 0x9
 2645 0437 01       		.uleb128 0x1
 2646 0438 52       		.byte	0x52
 2647 0439 02       		.uleb128 0x2
 2648 043a 08       		.byte	0x8
 2649 043b 64       		.byte	0x64
 2650 043c 09       		.uleb128 0x9
 2651 043d 01       		.uleb128 0x1
 2652 043e 53       		.byte	0x53
 2653 043f 01       		.uleb128 0x1
 2654 0440 30       		.byte	0x30
 2655 0441 00       		.byte	0
 2656 0442 08       		.uleb128 0x8
 2657 0443 D8010000 		.4byte	.LVL72
 2658 0447 FC1A0000 		.4byte	0x1afc
 2659 044b 55040000 		.4byte	0x455
 2660 044f 09       		.uleb128 0x9
 2661 0450 01       		.uleb128 0x1
 2662 0451 50       		.byte	0x50
 2663 0452 01       		.uleb128 0x1
 2664 0453 37       		.byte	0x37
 2665 0454 00       		.byte	0
 2666 0455 08       		.uleb128 0x8
 2667 0456 EA010000 		.4byte	.LVL73
 2668 045a 071B0000 		.4byte	0x1b07
 2669 045e 85040000 		.4byte	0x485
 2670 0462 09       		.uleb128 0x9
 2671 0463 01       		.uleb128 0x1
 2672 0464 50       		.byte	0x50
 2673 0465 02       		.uleb128 0x2
 2674 0466 08       		.byte	0x8
 2675 0467 82       		.byte	0x82
 2676 0468 09       		.uleb128 0x9
 2677 0469 01       		.uleb128 0x1
 2678 046a 51       		.byte	0x51
 2679 046b 01       		.uleb128 0x1
 2680 046c 31       		.byte	0x31
 2681 046d 09       		.uleb128 0x9
 2682 046e 01       		.uleb128 0x1
 2683 046f 52       		.byte	0x52
 2684 0470 01       		.uleb128 0x1
 2685 0471 34       		.byte	0x34
 2686 0472 09       		.uleb128 0x9
 2687 0473 01       		.uleb128 0x1
 2688 0474 53       		.byte	0x53
 2689 0475 01       		.uleb128 0x1
 2690 0476 30       		.byte	0x30
 2691 0477 09       		.uleb128 0x9
 2692 0478 02       		.uleb128 0x2
 2693 0479 7D       		.byte	0x7d
 2694 047a 00       		.sleb128 0
 2695 047b 02       		.uleb128 0x2
 2696 047c 08       		.byte	0x8
 2697 047d C8       		.byte	0xc8
 2698 047e 09       		.uleb128 0x9
 2699 047f 02       		.uleb128 0x2
ARM GAS  C:\Users\Misha\AppData\Local\Temp\ccYm0xvZ.s 			page 68


 2700 0480 7D       		.byte	0x7d
 2701 0481 04       		.sleb128 4
 2702 0482 01       		.uleb128 0x1
 2703 0483 31       		.byte	0x31
 2704 0484 00       		.byte	0
 2705 0485 08       		.uleb128 0x8
 2706 0486 F0010000 		.4byte	.LVL74
 2707 048a FC1A0000 		.4byte	0x1afc
 2708 048e 98040000 		.4byte	0x498
 2709 0492 09       		.uleb128 0x9
 2710 0493 01       		.uleb128 0x1
 2711 0494 50       		.byte	0x50
 2712 0495 01       		.uleb128 0x1
 2713 0496 37       		.byte	0x37
 2714 0497 00       		.byte	0
 2715 0498 08       		.uleb128 0x8
 2716 0499 F6010000 		.4byte	.LVL75
 2717 049d 3E1B0000 		.4byte	0x1b3e
 2718 04a1 AB040000 		.4byte	0x4ab
 2719 04a5 09       		.uleb128 0x9
 2720 04a6 01       		.uleb128 0x1
 2721 04a7 50       		.byte	0x50
 2722 04a8 01       		.uleb128 0x1
 2723 04a9 32       		.byte	0x32
 2724 04aa 00       		.byte	0
 2725 04ab 08       		.uleb128 0x8
 2726 04ac FE010000 		.4byte	.LVL76
 2727 04b0 3E1B0000 		.4byte	0x1b3e
 2728 04b4 BE040000 		.4byte	0x4be
 2729 04b8 09       		.uleb128 0x9
 2730 04b9 01       		.uleb128 0x1
 2731 04ba 50       		.byte	0x50
 2732 04bb 01       		.uleb128 0x1
 2733 04bc 32       		.byte	0x32
 2734 04bd 00       		.byte	0
 2735 04be 08       		.uleb128 0x8
 2736 04bf 1A020000 		.4byte	.LVL78
 2737 04c3 E61A0000 		.4byte	0x1ae6
 2738 04c7 E1040000 		.4byte	0x4e1
 2739 04cb 09       		.uleb128 0x9
 2740 04cc 01       		.uleb128 0x1
 2741 04cd 50       		.byte	0x50
 2742 04ce 02       		.uleb128 0x2
 2743 04cf 74       		.byte	0x74
 2744 04d0 00       		.sleb128 0
 2745 04d1 09       		.uleb128 0x9
 2746 04d2 01       		.uleb128 0x1
 2747 04d3 51       		.byte	0x51
 2748 04d4 05       		.uleb128 0x5
 2749 04d5 03       		.byte	0x3
 2750 04d6 6C000000 		.4byte	.LC5
 2751 04da 09       		.uleb128 0x9
 2752 04db 01       		.uleb128 0x1
 2753 04dc 52       		.byte	0x52
 2754 04dd 02       		.uleb128 0x2
 2755 04de 75       		.byte	0x75
 2756 04df 00       		.sleb128 0
ARM GAS  C:\Users\Misha\AppData\Local\Temp\ccYm0xvZ.s 			page 69


 2757 04e0 00       		.byte	0
 2758 04e1 08       		.uleb128 0x8
 2759 04e2 20020000 		.4byte	.LVL79
 2760 04e6 D01A0000 		.4byte	0x1ad0
 2761 04ea F5040000 		.4byte	0x4f5
 2762 04ee 09       		.uleb128 0x9
 2763 04ef 01       		.uleb128 0x1
 2764 04f0 50       		.byte	0x50
 2765 04f1 02       		.uleb128 0x2
 2766 04f2 74       		.byte	0x74
 2767 04f3 00       		.sleb128 0
 2768 04f4 00       		.byte	0
 2769 04f5 08       		.uleb128 0x8
 2770 04f6 34020000 		.4byte	.LVL80
 2771 04fa 071B0000 		.4byte	0x1b07
 2772 04fe 25050000 		.4byte	0x525
 2773 0502 09       		.uleb128 0x9
 2774 0503 01       		.uleb128 0x1
 2775 0504 50       		.byte	0x50
 2776 0505 02       		.uleb128 0x2
 2777 0506 75       		.byte	0x75
 2778 0507 00       		.sleb128 0
 2779 0508 09       		.uleb128 0x9
 2780 0509 01       		.uleb128 0x1
 2781 050a 51       		.byte	0x51
 2782 050b 01       		.uleb128 0x1
 2783 050c 30       		.byte	0x30
 2784 050d 09       		.uleb128 0x9
 2785 050e 01       		.uleb128 0x1
 2786 050f 52       		.byte	0x52
 2787 0510 01       		.uleb128 0x1
 2788 0511 34       		.byte	0x34
 2789 0512 09       		.uleb128 0x9
 2790 0513 01       		.uleb128 0x1
 2791 0514 53       		.byte	0x53
 2792 0515 01       		.uleb128 0x1
 2793 0516 33       		.byte	0x33
 2794 0517 09       		.uleb128 0x9
 2795 0518 02       		.uleb128 0x2
 2796 0519 7D       		.byte	0x7d
 2797 051a 00       		.sleb128 0
 2798 051b 02       		.uleb128 0x2
 2799 051c 08       		.byte	0x8
 2800 051d C8       		.byte	0xc8
 2801 051e 09       		.uleb128 0x9
 2802 051f 02       		.uleb128 0x2
 2803 0520 7D       		.byte	0x7d
 2804 0521 04       		.sleb128 4
 2805 0522 01       		.uleb128 0x1
 2806 0523 31       		.byte	0x31
 2807 0524 00       		.byte	0
 2808 0525 08       		.uleb128 0x8
 2809 0526 3E020000 		.4byte	.LVL81
 2810 052a 281B0000 		.4byte	0x1b28
 2811 052e 3F050000 		.4byte	0x53f
 2812 0532 09       		.uleb128 0x9
 2813 0533 01       		.uleb128 0x1
ARM GAS  C:\Users\Misha\AppData\Local\Temp\ccYm0xvZ.s 			page 70


 2814 0534 50       		.byte	0x50
 2815 0535 01       		.uleb128 0x1
 2816 0536 32       		.byte	0x32
 2817 0537 09       		.uleb128 0x9
 2818 0538 01       		.uleb128 0x1
 2819 0539 51       		.byte	0x51
 2820 053a 03       		.uleb128 0x3
 2821 053b 0A       		.byte	0xa
 2822 053c E803     		.2byte	0x3e8
 2823 053e 00       		.byte	0
 2824 053f 08       		.uleb128 0x8
 2825 0540 44020000 		.4byte	.LVL82
 2826 0544 FC1A0000 		.4byte	0x1afc
 2827 0548 52050000 		.4byte	0x552
 2828 054c 09       		.uleb128 0x9
 2829 054d 01       		.uleb128 0x1
 2830 054e 50       		.byte	0x50
 2831 054f 01       		.uleb128 0x1
 2832 0550 37       		.byte	0x37
 2833 0551 00       		.byte	0
 2834 0552 08       		.uleb128 0x8
 2835 0553 4A020000 		.4byte	.LVL83
 2836 0557 3E1B0000 		.4byte	0x1b3e
 2837 055b 65050000 		.4byte	0x565
 2838 055f 09       		.uleb128 0x9
 2839 0560 01       		.uleb128 0x1
 2840 0561 50       		.byte	0x50
 2841 0562 01       		.uleb128 0x1
 2842 0563 30       		.byte	0x30
 2843 0564 00       		.byte	0
 2844 0565 08       		.uleb128 0x8
 2845 0566 50020000 		.4byte	.LVL84
 2846 056a C51A0000 		.4byte	0x1ac5
 2847 056e 79050000 		.4byte	0x579
 2848 0572 09       		.uleb128 0x9
 2849 0573 01       		.uleb128 0x1
 2850 0574 50       		.byte	0x50
 2851 0575 02       		.uleb128 0x2
 2852 0576 08       		.byte	0x8
 2853 0577 3C       		.byte	0x3c
 2854 0578 00       		.byte	0
 2855 0579 08       		.uleb128 0x8
 2856 057a 60020000 		.4byte	.LVL85
 2857 057e 3E1B0000 		.4byte	0x1b3e
 2858 0582 8C050000 		.4byte	0x58c
 2859 0586 09       		.uleb128 0x9
 2860 0587 01       		.uleb128 0x1
 2861 0588 50       		.byte	0x50
 2862 0589 01       		.uleb128 0x1
 2863 058a 33       		.byte	0x33
 2864 058b 00       		.byte	0
 2865 058c 08       		.uleb128 0x8
 2866 058d 66020000 		.4byte	.LVL86
 2867 0591 C51A0000 		.4byte	0x1ac5
 2868 0595 A0050000 		.4byte	0x5a0
 2869 0599 09       		.uleb128 0x9
 2870 059a 01       		.uleb128 0x1
ARM GAS  C:\Users\Misha\AppData\Local\Temp\ccYm0xvZ.s 			page 71


 2871 059b 50       		.byte	0x50
 2872 059c 02       		.uleb128 0x2
 2873 059d 08       		.byte	0x8
 2874 059e 3C       		.byte	0x3c
 2875 059f 00       		.byte	0
 2876 05a0 08       		.uleb128 0x8
 2877 05a1 6C020000 		.4byte	.LVL87
 2878 05a5 3E1B0000 		.4byte	0x1b3e
 2879 05a9 B3050000 		.4byte	0x5b3
 2880 05ad 09       		.uleb128 0x9
 2881 05ae 01       		.uleb128 0x1
 2882 05af 50       		.byte	0x50
 2883 05b0 01       		.uleb128 0x1
 2884 05b1 32       		.byte	0x32
 2885 05b2 00       		.byte	0
 2886 05b3 08       		.uleb128 0x8
 2887 05b4 72020000 		.4byte	.LVL88
 2888 05b8 C51A0000 		.4byte	0x1ac5
 2889 05bc C7050000 		.4byte	0x5c7
 2890 05c0 09       		.uleb128 0x9
 2891 05c1 01       		.uleb128 0x1
 2892 05c2 50       		.byte	0x50
 2893 05c3 02       		.uleb128 0x2
 2894 05c4 08       		.byte	0x8
 2895 05c5 3C       		.byte	0x3c
 2896 05c6 00       		.byte	0
 2897 05c7 08       		.uleb128 0x8
 2898 05c8 8E020000 		.4byte	.LVL89
 2899 05cc 541B0000 		.4byte	0x1b54
 2900 05d0 E6050000 		.4byte	0x5e6
 2901 05d4 09       		.uleb128 0x9
 2902 05d5 01       		.uleb128 0x1
 2903 05d6 50       		.byte	0x50
 2904 05d7 02       		.uleb128 0x2
 2905 05d8 09       		.byte	0x9
 2906 05d9 D3       		.byte	0xd3
 2907 05da 09       		.uleb128 0x9
 2908 05db 01       		.uleb128 0x1
 2909 05dc 51       		.byte	0x51
 2910 05dd 02       		.uleb128 0x2
 2911 05de 08       		.byte	0x8
 2912 05df C8       		.byte	0xc8
 2913 05e0 09       		.uleb128 0x9
 2914 05e1 01       		.uleb128 0x1
 2915 05e2 52       		.byte	0x52
 2916 05e3 01       		.uleb128 0x1
 2917 05e4 31       		.byte	0x31
 2918 05e5 00       		.byte	0
 2919 05e6 08       		.uleb128 0x8
 2920 05e7 94020000 		.4byte	.LVL90
 2921 05eb 3E1B0000 		.4byte	0x1b3e
 2922 05ef F9050000 		.4byte	0x5f9
 2923 05f3 09       		.uleb128 0x9
 2924 05f4 01       		.uleb128 0x1
 2925 05f5 50       		.byte	0x50
 2926 05f6 01       		.uleb128 0x1
 2927 05f7 33       		.byte	0x33
ARM GAS  C:\Users\Misha\AppData\Local\Temp\ccYm0xvZ.s 			page 72


 2928 05f8 00       		.byte	0
 2929 05f9 08       		.uleb128 0x8
 2930 05fa 9A020000 		.4byte	.LVL91
 2931 05fe C51A0000 		.4byte	0x1ac5
 2932 0602 0D060000 		.4byte	0x60d
 2933 0606 09       		.uleb128 0x9
 2934 0607 01       		.uleb128 0x1
 2935 0608 50       		.byte	0x50
 2936 0609 02       		.uleb128 0x2
 2937 060a 08       		.byte	0x8
 2938 060b 3C       		.byte	0x3c
 2939 060c 00       		.byte	0
 2940 060d 08       		.uleb128 0x8
 2941 060e A0020000 		.4byte	.LVL92
 2942 0612 3E1B0000 		.4byte	0x1b3e
 2943 0616 20060000 		.4byte	0x620
 2944 061a 09       		.uleb128 0x9
 2945 061b 01       		.uleb128 0x1
 2946 061c 50       		.byte	0x50
 2947 061d 01       		.uleb128 0x1
 2948 061e 32       		.byte	0x32
 2949 061f 00       		.byte	0
 2950 0620 08       		.uleb128 0x8
 2951 0621 A6020000 		.4byte	.LVL93
 2952 0625 C51A0000 		.4byte	0x1ac5
 2953 0629 34060000 		.4byte	0x634
 2954 062d 09       		.uleb128 0x9
 2955 062e 01       		.uleb128 0x1
 2956 062f 50       		.byte	0x50
 2957 0630 02       		.uleb128 0x2
 2958 0631 08       		.byte	0x8
 2959 0632 3C       		.byte	0x3c
 2960 0633 00       		.byte	0
 2961 0634 08       		.uleb128 0x8
 2962 0635 C6020000 		.4byte	.LVL94
 2963 0639 071B0000 		.4byte	0x1b07
 2964 063d 64060000 		.4byte	0x664
 2965 0641 09       		.uleb128 0x9
 2966 0642 01       		.uleb128 0x1
 2967 0643 50       		.byte	0x50
 2968 0644 02       		.uleb128 0x2
 2969 0645 75       		.byte	0x75
 2970 0646 00       		.sleb128 0
 2971 0647 09       		.uleb128 0x9
 2972 0648 01       		.uleb128 0x1
 2973 0649 51       		.byte	0x51
 2974 064a 01       		.uleb128 0x1
 2975 064b 30       		.byte	0x30
 2976 064c 09       		.uleb128 0x9
 2977 064d 01       		.uleb128 0x1
 2978 064e 52       		.byte	0x52
 2979 064f 01       		.uleb128 0x1
 2980 0650 35       		.byte	0x35
 2981 0651 09       		.uleb128 0x9
 2982 0652 01       		.uleb128 0x1
 2983 0653 53       		.byte	0x53
 2984 0654 01       		.uleb128 0x1
ARM GAS  C:\Users\Misha\AppData\Local\Temp\ccYm0xvZ.s 			page 73


 2985 0655 33       		.byte	0x33
 2986 0656 09       		.uleb128 0x9
 2987 0657 02       		.uleb128 0x2
 2988 0658 7D       		.byte	0x7d
 2989 0659 00       		.sleb128 0
 2990 065a 02       		.uleb128 0x2
 2991 065b 08       		.byte	0x8
 2992 065c C8       		.byte	0xc8
 2993 065d 09       		.uleb128 0x9
 2994 065e 02       		.uleb128 0x2
 2995 065f 7D       		.byte	0x7d
 2996 0660 04       		.sleb128 4
 2997 0661 01       		.uleb128 0x1
 2998 0662 31       		.byte	0x31
 2999 0663 00       		.byte	0
 3000 0664 08       		.uleb128 0x8
 3001 0665 D0020000 		.4byte	.LVL95
 3002 0669 281B0000 		.4byte	0x1b28
 3003 066d 7E060000 		.4byte	0x67e
 3004 0671 09       		.uleb128 0x9
 3005 0672 01       		.uleb128 0x1
 3006 0673 50       		.byte	0x50
 3007 0674 01       		.uleb128 0x1
 3008 0675 32       		.byte	0x32
 3009 0676 09       		.uleb128 0x9
 3010 0677 01       		.uleb128 0x1
 3011 0678 51       		.byte	0x51
 3012 0679 03       		.uleb128 0x3
 3013 067a 0A       		.byte	0xa
 3014 067b E803     		.2byte	0x3e8
 3015 067d 00       		.byte	0
 3016 067e 08       		.uleb128 0x8
 3017 067f 3A030000 		.4byte	.LVL96
 3018 0683 E61A0000 		.4byte	0x1ae6
 3019 0687 9B060000 		.4byte	0x69b
 3020 068b 09       		.uleb128 0x9
 3021 068c 01       		.uleb128 0x1
 3022 068d 50       		.byte	0x50
 3023 068e 02       		.uleb128 0x2
 3024 068f 74       		.byte	0x74
 3025 0690 00       		.sleb128 0
 3026 0691 09       		.uleb128 0x9
 3027 0692 01       		.uleb128 0x1
 3028 0693 51       		.byte	0x51
 3029 0694 05       		.uleb128 0x5
 3030 0695 03       		.byte	0x3
 3031 0696 90000000 		.4byte	.LC6
 3032 069a 00       		.byte	0
 3033 069b 08       		.uleb128 0x8
 3034 069c 40030000 		.4byte	.LVL97
 3035 06a0 D01A0000 		.4byte	0x1ad0
 3036 06a4 AF060000 		.4byte	0x6af
 3037 06a8 09       		.uleb128 0x9
 3038 06a9 01       		.uleb128 0x1
 3039 06aa 50       		.byte	0x50
 3040 06ab 02       		.uleb128 0x2
 3041 06ac 74       		.byte	0x74
ARM GAS  C:\Users\Misha\AppData\Local\Temp\ccYm0xvZ.s 			page 74


 3042 06ad 00       		.sleb128 0
 3043 06ae 00       		.byte	0
 3044 06af 08       		.uleb128 0x8
 3045 06b0 4A030000 		.4byte	.LVL98
 3046 06b4 E61A0000 		.4byte	0x1ae6
 3047 06b8 CC060000 		.4byte	0x6cc
 3048 06bc 09       		.uleb128 0x9
 3049 06bd 01       		.uleb128 0x1
 3050 06be 50       		.byte	0x50
 3051 06bf 02       		.uleb128 0x2
 3052 06c0 74       		.byte	0x74
 3053 06c1 00       		.sleb128 0
 3054 06c2 09       		.uleb128 0x9
 3055 06c3 01       		.uleb128 0x1
 3056 06c4 51       		.byte	0x51
 3057 06c5 05       		.uleb128 0x5
 3058 06c6 03       		.byte	0x3
 3059 06c7 A0000000 		.4byte	.LC7
 3060 06cb 00       		.byte	0
 3061 06cc 08       		.uleb128 0x8
 3062 06cd 50030000 		.4byte	.LVL99
 3063 06d1 D01A0000 		.4byte	0x1ad0
 3064 06d5 E0060000 		.4byte	0x6e0
 3065 06d9 09       		.uleb128 0x9
 3066 06da 01       		.uleb128 0x1
 3067 06db 50       		.byte	0x50
 3068 06dc 02       		.uleb128 0x2
 3069 06dd 74       		.byte	0x74
 3070 06de 00       		.sleb128 0
 3071 06df 00       		.byte	0
 3072 06e0 08       		.uleb128 0x8
 3073 06e1 5A030000 		.4byte	.LVL100
 3074 06e5 E61A0000 		.4byte	0x1ae6
 3075 06e9 FD060000 		.4byte	0x6fd
 3076 06ed 09       		.uleb128 0x9
 3077 06ee 01       		.uleb128 0x1
 3078 06ef 50       		.byte	0x50
 3079 06f0 02       		.uleb128 0x2
 3080 06f1 74       		.byte	0x74
 3081 06f2 00       		.sleb128 0
 3082 06f3 09       		.uleb128 0x9
 3083 06f4 01       		.uleb128 0x1
 3084 06f5 51       		.byte	0x51
 3085 06f6 05       		.uleb128 0x5
 3086 06f7 03       		.byte	0x3
 3087 06f8 AC000000 		.4byte	.LC8
 3088 06fc 00       		.byte	0
 3089 06fd 08       		.uleb128 0x8
 3090 06fe 60030000 		.4byte	.LVL101
 3091 0702 D01A0000 		.4byte	0x1ad0
 3092 0706 11070000 		.4byte	0x711
 3093 070a 09       		.uleb128 0x9
 3094 070b 01       		.uleb128 0x1
 3095 070c 50       		.byte	0x50
 3096 070d 02       		.uleb128 0x2
 3097 070e 74       		.byte	0x74
 3098 070f 00       		.sleb128 0
ARM GAS  C:\Users\Misha\AppData\Local\Temp\ccYm0xvZ.s 			page 75


 3099 0710 00       		.byte	0
 3100 0711 08       		.uleb128 0x8
 3101 0712 6A030000 		.4byte	.LVL102
 3102 0716 E61A0000 		.4byte	0x1ae6
 3103 071a 2E070000 		.4byte	0x72e
 3104 071e 09       		.uleb128 0x9
 3105 071f 01       		.uleb128 0x1
 3106 0720 50       		.byte	0x50
 3107 0721 02       		.uleb128 0x2
 3108 0722 74       		.byte	0x74
 3109 0723 00       		.sleb128 0
 3110 0724 09       		.uleb128 0x9
 3111 0725 01       		.uleb128 0x1
 3112 0726 51       		.byte	0x51
 3113 0727 05       		.uleb128 0x5
 3114 0728 03       		.byte	0x3
 3115 0729 BC000000 		.4byte	.LC9
 3116 072d 00       		.byte	0
 3117 072e 08       		.uleb128 0x8
 3118 072f 70030000 		.4byte	.LVL103
 3119 0733 D01A0000 		.4byte	0x1ad0
 3120 0737 42070000 		.4byte	0x742
 3121 073b 09       		.uleb128 0x9
 3122 073c 01       		.uleb128 0x1
 3123 073d 50       		.byte	0x50
 3124 073e 02       		.uleb128 0x2
 3125 073f 74       		.byte	0x74
 3126 0740 00       		.sleb128 0
 3127 0741 00       		.byte	0
 3128 0742 08       		.uleb128 0x8
 3129 0743 78030000 		.4byte	.LVL104
 3130 0747 331B0000 		.4byte	0x1b33
 3131 074b 5B070000 		.4byte	0x75b
 3132 074f 09       		.uleb128 0x9
 3133 0750 01       		.uleb128 0x1
 3134 0751 50       		.byte	0x50
 3135 0752 01       		.uleb128 0x1
 3136 0753 31       		.byte	0x31
 3137 0754 09       		.uleb128 0x9
 3138 0755 01       		.uleb128 0x1
 3139 0756 51       		.byte	0x51
 3140 0757 02       		.uleb128 0x2
 3141 0758 08       		.byte	0x8
 3142 0759 C8       		.byte	0xc8
 3143 075a 00       		.byte	0
 3144 075b 08       		.uleb128 0x8
 3145 075c 94030000 		.4byte	.LVL105
 3146 0760 071B0000 		.4byte	0x1b07
 3147 0764 8D070000 		.4byte	0x78d
 3148 0768 09       		.uleb128 0x9
 3149 0769 01       		.uleb128 0x1
 3150 076a 50       		.byte	0x50
 3151 076b 02       		.uleb128 0x2
 3152 076c 08       		.byte	0x8
 3153 076d 96       		.byte	0x96
 3154 076e 09       		.uleb128 0x9
 3155 076f 01       		.uleb128 0x1
ARM GAS  C:\Users\Misha\AppData\Local\Temp\ccYm0xvZ.s 			page 76


 3156 0770 51       		.byte	0x51
 3157 0771 02       		.uleb128 0x2
 3158 0772 79       		.byte	0x79
 3159 0773 00       		.sleb128 0
 3160 0774 09       		.uleb128 0x9
 3161 0775 01       		.uleb128 0x1
 3162 0776 52       		.byte	0x52
 3163 0777 01       		.uleb128 0x1
 3164 0778 34       		.byte	0x34
 3165 0779 09       		.uleb128 0x9
 3166 077a 01       		.uleb128 0x1
 3167 077b 53       		.byte	0x53
 3168 077c 01       		.uleb128 0x1
 3169 077d 30       		.byte	0x30
 3170 077e 09       		.uleb128 0x9
 3171 077f 02       		.uleb128 0x2
 3172 0780 7D       		.byte	0x7d
 3173 0781 00       		.sleb128 0
 3174 0782 02       		.uleb128 0x2
 3175 0783 7A       		.byte	0x7a
 3176 0784 00       		.sleb128 0
 3177 0785 09       		.uleb128 0x9
 3178 0786 02       		.uleb128 0x2
 3179 0787 7D       		.byte	0x7d
 3180 0788 04       		.sleb128 4
 3181 0789 02       		.uleb128 0x2
 3182 078a 79       		.byte	0x79
 3183 078b 00       		.sleb128 0
 3184 078c 00       		.byte	0
 3185 078d 08       		.uleb128 0x8
 3186 078e 9A030000 		.4byte	.LVL106
 3187 0792 FC1A0000 		.4byte	0x1afc
 3188 0796 A0070000 		.4byte	0x7a0
 3189 079a 09       		.uleb128 0x9
 3190 079b 01       		.uleb128 0x1
 3191 079c 50       		.byte	0x50
 3192 079d 01       		.uleb128 0x1
 3193 079e 37       		.byte	0x37
 3194 079f 00       		.byte	0
 3195 07a0 08       		.uleb128 0x8
 3196 07a1 A0030000 		.4byte	.LVL107
 3197 07a5 3E1B0000 		.4byte	0x1b3e
 3198 07a9 B3070000 		.4byte	0x7b3
 3199 07ad 09       		.uleb128 0x9
 3200 07ae 01       		.uleb128 0x1
 3201 07af 50       		.byte	0x50
 3202 07b0 01       		.uleb128 0x1
 3203 07b1 33       		.byte	0x33
 3204 07b2 00       		.byte	0
 3205 07b3 08       		.uleb128 0x8
 3206 07b4 A6030000 		.4byte	.LVL108
 3207 07b8 C51A0000 		.4byte	0x1ac5
 3208 07bc C7070000 		.4byte	0x7c7
 3209 07c0 09       		.uleb128 0x9
 3210 07c1 01       		.uleb128 0x1
 3211 07c2 50       		.byte	0x50
 3212 07c3 02       		.uleb128 0x2
ARM GAS  C:\Users\Misha\AppData\Local\Temp\ccYm0xvZ.s 			page 77


 3213 07c4 08       		.byte	0x8
 3214 07c5 32       		.byte	0x32
 3215 07c6 00       		.byte	0
 3216 07c7 08       		.uleb128 0x8
 3217 07c8 B6030000 		.4byte	.LVL109
 3218 07cc E61A0000 		.4byte	0x1ae6
 3219 07d0 E4070000 		.4byte	0x7e4
 3220 07d4 09       		.uleb128 0x9
 3221 07d5 01       		.uleb128 0x1
 3222 07d6 50       		.byte	0x50
 3223 07d7 02       		.uleb128 0x2
 3224 07d8 74       		.byte	0x74
 3225 07d9 00       		.sleb128 0
 3226 07da 09       		.uleb128 0x9
 3227 07db 01       		.uleb128 0x1
 3228 07dc 51       		.byte	0x51
 3229 07dd 05       		.uleb128 0x5
 3230 07de 03       		.byte	0x3
 3231 07df C8000000 		.4byte	.LC10
 3232 07e3 00       		.byte	0
 3233 07e4 08       		.uleb128 0x8
 3234 07e5 BC030000 		.4byte	.LVL110
 3235 07e9 D01A0000 		.4byte	0x1ad0
 3236 07ed F8070000 		.4byte	0x7f8
 3237 07f1 09       		.uleb128 0x9
 3238 07f2 01       		.uleb128 0x1
 3239 07f3 50       		.byte	0x50
 3240 07f4 02       		.uleb128 0x2
 3241 07f5 74       		.byte	0x74
 3242 07f6 00       		.sleb128 0
 3243 07f7 00       		.byte	0
 3244 07f8 08       		.uleb128 0x8
 3245 07f9 D0030000 		.4byte	.LVL112
 3246 07fd E61A0000 		.4byte	0x1ae6
 3247 0801 1B080000 		.4byte	0x81b
 3248 0805 09       		.uleb128 0x9
 3249 0806 01       		.uleb128 0x1
 3250 0807 50       		.byte	0x50
 3251 0808 02       		.uleb128 0x2
 3252 0809 74       		.byte	0x74
 3253 080a 00       		.sleb128 0
 3254 080b 09       		.uleb128 0x9
 3255 080c 01       		.uleb128 0x1
 3256 080d 51       		.byte	0x51
 3257 080e 05       		.uleb128 0x5
 3258 080f 03       		.byte	0x3
 3259 0810 D0000000 		.4byte	.LC11
 3260 0814 09       		.uleb128 0x9
 3261 0815 01       		.uleb128 0x1
 3262 0816 52       		.byte	0x52
 3263 0817 02       		.uleb128 0x2
 3264 0818 76       		.byte	0x76
 3265 0819 00       		.sleb128 0
 3266 081a 00       		.byte	0
 3267 081b 08       		.uleb128 0x8
 3268 081c D6030000 		.4byte	.LVL113
 3269 0820 D01A0000 		.4byte	0x1ad0
ARM GAS  C:\Users\Misha\AppData\Local\Temp\ccYm0xvZ.s 			page 78


 3270 0824 2F080000 		.4byte	0x82f
 3271 0828 09       		.uleb128 0x9
 3272 0829 01       		.uleb128 0x1
 3273 082a 50       		.byte	0x50
 3274 082b 02       		.uleb128 0x2
 3275 082c 74       		.byte	0x74
 3276 082d 00       		.sleb128 0
 3277 082e 00       		.byte	0
 3278 082f 08       		.uleb128 0x8
 3279 0830 EA030000 		.4byte	.LVL114
 3280 0834 071B0000 		.4byte	0x1b07
 3281 0838 60080000 		.4byte	0x860
 3282 083c 09       		.uleb128 0x9
 3283 083d 01       		.uleb128 0x1
 3284 083e 50       		.byte	0x50
 3285 083f 02       		.uleb128 0x2
 3286 0840 76       		.byte	0x76
 3287 0841 00       		.sleb128 0
 3288 0842 09       		.uleb128 0x9
 3289 0843 01       		.uleb128 0x1
 3290 0844 51       		.byte	0x51
 3291 0845 01       		.uleb128 0x1
 3292 0846 30       		.byte	0x30
 3293 0847 09       		.uleb128 0x9
 3294 0848 01       		.uleb128 0x1
 3295 0849 52       		.byte	0x52
 3296 084a 01       		.uleb128 0x1
 3297 084b 34       		.byte	0x34
 3298 084c 09       		.uleb128 0x9
 3299 084d 01       		.uleb128 0x1
 3300 084e 53       		.byte	0x53
 3301 084f 01       		.uleb128 0x1
 3302 0850 32       		.byte	0x32
 3303 0851 09       		.uleb128 0x9
 3304 0852 02       		.uleb128 0x2
 3305 0853 7D       		.byte	0x7d
 3306 0854 00       		.sleb128 0
 3307 0855 02       		.uleb128 0x2
 3308 0856 7A       		.byte	0x7a
 3309 0857 00       		.sleb128 0
 3310 0858 09       		.uleb128 0x9
 3311 0859 02       		.uleb128 0x2
 3312 085a 7D       		.byte	0x7d
 3313 085b 04       		.sleb128 4
 3314 085c 02       		.uleb128 0x2
 3315 085d 79       		.byte	0x79
 3316 085e 00       		.sleb128 0
 3317 085f 00       		.byte	0
 3318 0860 08       		.uleb128 0x8
 3319 0861 F0030000 		.4byte	.LVL115
 3320 0865 3E1B0000 		.4byte	0x1b3e
 3321 0869 73080000 		.4byte	0x873
 3322 086d 09       		.uleb128 0x9
 3323 086e 01       		.uleb128 0x1
 3324 086f 50       		.byte	0x50
 3325 0870 01       		.uleb128 0x1
 3326 0871 30       		.byte	0x30
ARM GAS  C:\Users\Misha\AppData\Local\Temp\ccYm0xvZ.s 			page 79


 3327 0872 00       		.byte	0
 3328 0873 08       		.uleb128 0x8
 3329 0874 F6030000 		.4byte	.LVL116
 3330 0878 C51A0000 		.4byte	0x1ac5
 3331 087c 87080000 		.4byte	0x887
 3332 0880 09       		.uleb128 0x9
 3333 0881 01       		.uleb128 0x1
 3334 0882 50       		.byte	0x50
 3335 0883 02       		.uleb128 0x2
 3336 0884 08       		.byte	0x8
 3337 0885 3C       		.byte	0x3c
 3338 0886 00       		.byte	0
 3339 0887 08       		.uleb128 0x8
 3340 0888 FC030000 		.4byte	.LVL117
 3341 088c 3E1B0000 		.4byte	0x1b3e
 3342 0890 9A080000 		.4byte	0x89a
 3343 0894 09       		.uleb128 0x9
 3344 0895 01       		.uleb128 0x1
 3345 0896 50       		.byte	0x50
 3346 0897 01       		.uleb128 0x1
 3347 0898 34       		.byte	0x34
 3348 0899 00       		.byte	0
 3349 089a 08       		.uleb128 0x8
 3350 089b 02040000 		.4byte	.LVL118
 3351 089f C51A0000 		.4byte	0x1ac5
 3352 08a3 AE080000 		.4byte	0x8ae
 3353 08a7 09       		.uleb128 0x9
 3354 08a8 01       		.uleb128 0x1
 3355 08a9 50       		.byte	0x50
 3356 08aa 02       		.uleb128 0x2
 3357 08ab 08       		.byte	0x8
 3358 08ac 3C       		.byte	0x3c
 3359 08ad 00       		.byte	0
 3360 08ae 08       		.uleb128 0x8
 3361 08af 06050000 		.4byte	.LVL141
 3362 08b3 E61A0000 		.4byte	0x1ae6
 3363 08b7 CB080000 		.4byte	0x8cb
 3364 08bb 09       		.uleb128 0x9
 3365 08bc 01       		.uleb128 0x1
 3366 08bd 50       		.byte	0x50
 3367 08be 02       		.uleb128 0x2
 3368 08bf 74       		.byte	0x74
 3369 08c0 00       		.sleb128 0
 3370 08c1 09       		.uleb128 0x9
 3371 08c2 01       		.uleb128 0x1
 3372 08c3 51       		.byte	0x51
 3373 08c4 05       		.uleb128 0x5
 3374 08c5 03       		.byte	0x3
 3375 08c6 E4000000 		.4byte	.LC12
 3376 08ca 00       		.byte	0
 3377 08cb 08       		.uleb128 0x8
 3378 08cc 0C050000 		.4byte	.LVL142
 3379 08d0 D01A0000 		.4byte	0x1ad0
 3380 08d4 DF080000 		.4byte	0x8df
 3381 08d8 09       		.uleb128 0x9
 3382 08d9 01       		.uleb128 0x1
 3383 08da 50       		.byte	0x50
ARM GAS  C:\Users\Misha\AppData\Local\Temp\ccYm0xvZ.s 			page 80


 3384 08db 02       		.uleb128 0x2
 3385 08dc 74       		.byte	0x74
 3386 08dd 00       		.sleb128 0
 3387 08de 00       		.byte	0
 3388 08df 08       		.uleb128 0x8
 3389 08e0 16050000 		.4byte	.LVL143
 3390 08e4 E61A0000 		.4byte	0x1ae6
 3391 08e8 FC080000 		.4byte	0x8fc
 3392 08ec 09       		.uleb128 0x9
 3393 08ed 01       		.uleb128 0x1
 3394 08ee 50       		.byte	0x50
 3395 08ef 02       		.uleb128 0x2
 3396 08f0 74       		.byte	0x74
 3397 08f1 00       		.sleb128 0
 3398 08f2 09       		.uleb128 0x9
 3399 08f3 01       		.uleb128 0x1
 3400 08f4 51       		.byte	0x51
 3401 08f5 05       		.uleb128 0x5
 3402 08f6 03       		.byte	0x3
 3403 08f7 F8000000 		.4byte	.LC13
 3404 08fb 00       		.byte	0
 3405 08fc 08       		.uleb128 0x8
 3406 08fd 1C050000 		.4byte	.LVL144
 3407 0901 D01A0000 		.4byte	0x1ad0
 3408 0905 10090000 		.4byte	0x910
 3409 0909 09       		.uleb128 0x9
 3410 090a 01       		.uleb128 0x1
 3411 090b 50       		.byte	0x50
 3412 090c 02       		.uleb128 0x2
 3413 090d 74       		.byte	0x74
 3414 090e 00       		.sleb128 0
 3415 090f 00       		.byte	0
 3416 0910 08       		.uleb128 0x8
 3417 0911 26050000 		.4byte	.LVL145
 3418 0915 E61A0000 		.4byte	0x1ae6
 3419 0919 2D090000 		.4byte	0x92d
 3420 091d 09       		.uleb128 0x9
 3421 091e 01       		.uleb128 0x1
 3422 091f 50       		.byte	0x50
 3423 0920 02       		.uleb128 0x2
 3424 0921 74       		.byte	0x74
 3425 0922 00       		.sleb128 0
 3426 0923 09       		.uleb128 0x9
 3427 0924 01       		.uleb128 0x1
 3428 0925 51       		.byte	0x51
 3429 0926 05       		.uleb128 0x5
 3430 0927 03       		.byte	0x3
 3431 0928 0C010000 		.4byte	.LC14
 3432 092c 00       		.byte	0
 3433 092d 08       		.uleb128 0x8
 3434 092e 2C050000 		.4byte	.LVL146
 3435 0932 D01A0000 		.4byte	0x1ad0
 3436 0936 41090000 		.4byte	0x941
 3437 093a 09       		.uleb128 0x9
 3438 093b 01       		.uleb128 0x1
 3439 093c 50       		.byte	0x50
 3440 093d 02       		.uleb128 0x2
ARM GAS  C:\Users\Misha\AppData\Local\Temp\ccYm0xvZ.s 			page 81


 3441 093e 74       		.byte	0x74
 3442 093f 00       		.sleb128 0
 3443 0940 00       		.byte	0
 3444 0941 08       		.uleb128 0x8
 3445 0942 36050000 		.4byte	.LVL147
 3446 0946 E61A0000 		.4byte	0x1ae6
 3447 094a 5E090000 		.4byte	0x95e
 3448 094e 09       		.uleb128 0x9
 3449 094f 01       		.uleb128 0x1
 3450 0950 50       		.byte	0x50
 3451 0951 02       		.uleb128 0x2
 3452 0952 74       		.byte	0x74
 3453 0953 00       		.sleb128 0
 3454 0954 09       		.uleb128 0x9
 3455 0955 01       		.uleb128 0x1
 3456 0956 51       		.byte	0x51
 3457 0957 05       		.uleb128 0x5
 3458 0958 03       		.byte	0x3
 3459 0959 20010000 		.4byte	.LC15
 3460 095d 00       		.byte	0
 3461 095e 08       		.uleb128 0x8
 3462 095f 3C050000 		.4byte	.LVL148
 3463 0963 D01A0000 		.4byte	0x1ad0
 3464 0967 72090000 		.4byte	0x972
 3465 096b 09       		.uleb128 0x9
 3466 096c 01       		.uleb128 0x1
 3467 096d 50       		.byte	0x50
 3468 096e 02       		.uleb128 0x2
 3469 096f 74       		.byte	0x74
 3470 0970 00       		.sleb128 0
 3471 0971 00       		.byte	0
 3472 0972 08       		.uleb128 0x8
 3473 0973 94050000 		.4byte	.LVL149
 3474 0977 071B0000 		.4byte	0x1b07
 3475 097b A3090000 		.4byte	0x9a3
 3476 097f 09       		.uleb128 0x9
 3477 0980 01       		.uleb128 0x1
 3478 0981 50       		.byte	0x50
 3479 0982 02       		.uleb128 0x2
 3480 0983 7A       		.byte	0x7a
 3481 0984 00       		.sleb128 0
 3482 0985 09       		.uleb128 0x9
 3483 0986 01       		.uleb128 0x1
 3484 0987 51       		.byte	0x51
 3485 0988 01       		.uleb128 0x1
 3486 0989 30       		.byte	0x30
 3487 098a 09       		.uleb128 0x9
 3488 098b 01       		.uleb128 0x1
 3489 098c 52       		.byte	0x52
 3490 098d 01       		.uleb128 0x1
 3491 098e 35       		.byte	0x35
 3492 098f 09       		.uleb128 0x9
 3493 0990 01       		.uleb128 0x1
 3494 0991 53       		.byte	0x53
 3495 0992 01       		.uleb128 0x1
 3496 0993 30       		.byte	0x30
 3497 0994 09       		.uleb128 0x9
ARM GAS  C:\Users\Misha\AppData\Local\Temp\ccYm0xvZ.s 			page 82


 3498 0995 02       		.uleb128 0x2
 3499 0996 7D       		.byte	0x7d
 3500 0997 00       		.sleb128 0
 3501 0998 02       		.uleb128 0x2
 3502 0999 7A       		.byte	0x7a
 3503 099a 00       		.sleb128 0
 3504 099b 09       		.uleb128 0x9
 3505 099c 02       		.uleb128 0x2
 3506 099d 7D       		.byte	0x7d
 3507 099e 04       		.sleb128 4
 3508 099f 02       		.uleb128 0x2
 3509 09a0 75       		.byte	0x75
 3510 09a1 00       		.sleb128 0
 3511 09a2 00       		.byte	0
 3512 09a3 08       		.uleb128 0x8
 3513 09a4 9C050000 		.4byte	.LVL150
 3514 09a8 331B0000 		.4byte	0x1b33
 3515 09ac BC090000 		.4byte	0x9bc
 3516 09b0 09       		.uleb128 0x9
 3517 09b1 01       		.uleb128 0x1
 3518 09b2 50       		.byte	0x50
 3519 09b3 01       		.uleb128 0x1
 3520 09b4 32       		.byte	0x32
 3521 09b5 09       		.uleb128 0x9
 3522 09b6 01       		.uleb128 0x1
 3523 09b7 51       		.byte	0x51
 3524 09b8 02       		.uleb128 0x2
 3525 09b9 7A       		.byte	0x7a
 3526 09ba 00       		.sleb128 0
 3527 09bb 00       		.byte	0
 3528 09bc 08       		.uleb128 0x8
 3529 09bd A4050000 		.4byte	.LVL151
 3530 09c1 331B0000 		.4byte	0x1b33
 3531 09c5 D6090000 		.4byte	0x9d6
 3532 09c9 09       		.uleb128 0x9
 3533 09ca 01       		.uleb128 0x1
 3534 09cb 50       		.byte	0x50
 3535 09cc 02       		.uleb128 0x2
 3536 09cd 75       		.byte	0x75
 3537 09ce 00       		.sleb128 0
 3538 09cf 09       		.uleb128 0x9
 3539 09d0 01       		.uleb128 0x1
 3540 09d1 51       		.byte	0x51
 3541 09d2 02       		.uleb128 0x2
 3542 09d3 7A       		.byte	0x7a
 3543 09d4 00       		.sleb128 0
 3544 09d5 00       		.byte	0
 3545 09d6 08       		.uleb128 0x8
 3546 09d7 AA050000 		.4byte	.LVL152
 3547 09db FC1A0000 		.4byte	0x1afc
 3548 09df E9090000 		.4byte	0x9e9
 3549 09e3 09       		.uleb128 0x9
 3550 09e4 01       		.uleb128 0x1
 3551 09e5 50       		.byte	0x50
 3552 09e6 01       		.uleb128 0x1
 3553 09e7 37       		.byte	0x37
 3554 09e8 00       		.byte	0
ARM GAS  C:\Users\Misha\AppData\Local\Temp\ccYm0xvZ.s 			page 83


 3555 09e9 08       		.uleb128 0x8
 3556 09ea BA050000 		.4byte	.LVL153
 3557 09ee 071B0000 		.4byte	0x1b07
 3558 09f2 1B0A0000 		.4byte	0xa1b
 3559 09f6 09       		.uleb128 0x9
 3560 09f7 01       		.uleb128 0x1
 3561 09f8 50       		.byte	0x50
 3562 09f9 02       		.uleb128 0x2
 3563 09fa 08       		.byte	0x8
 3564 09fb AC       		.byte	0xac
 3565 09fc 09       		.uleb128 0x9
 3566 09fd 01       		.uleb128 0x1
 3567 09fe 51       		.byte	0x51
 3568 09ff 02       		.uleb128 0x2
 3569 0a00 75       		.byte	0x75
 3570 0a01 00       		.sleb128 0
 3571 0a02 09       		.uleb128 0x9
 3572 0a03 01       		.uleb128 0x1
 3573 0a04 52       		.byte	0x52
 3574 0a05 01       		.uleb128 0x1
 3575 0a06 34       		.byte	0x34
 3576 0a07 09       		.uleb128 0x9
 3577 0a08 01       		.uleb128 0x1
 3578 0a09 53       		.byte	0x53
 3579 0a0a 01       		.uleb128 0x1
 3580 0a0b 30       		.byte	0x30
 3581 0a0c 09       		.uleb128 0x9
 3582 0a0d 02       		.uleb128 0x2
 3583 0a0e 7D       		.byte	0x7d
 3584 0a0f 00       		.sleb128 0
 3585 0a10 02       		.uleb128 0x2
 3586 0a11 7A       		.byte	0x7a
 3587 0a12 00       		.sleb128 0
 3588 0a13 09       		.uleb128 0x9
 3589 0a14 02       		.uleb128 0x2
 3590 0a15 7D       		.byte	0x7d
 3591 0a16 04       		.sleb128 4
 3592 0a17 02       		.uleb128 0x2
 3593 0a18 75       		.byte	0x75
 3594 0a19 00       		.sleb128 0
 3595 0a1a 00       		.byte	0
 3596 0a1b 08       		.uleb128 0x8
 3597 0a1c C8050000 		.4byte	.LVL154
 3598 0a20 5F1B0000 		.4byte	0x1b5f
 3599 0a24 450A0000 		.4byte	0xa45
 3600 0a28 09       		.uleb128 0x9
 3601 0a29 01       		.uleb128 0x1
 3602 0a2a 50       		.byte	0x50
 3603 0a2b 02       		.uleb128 0x2
 3604 0a2c 08       		.byte	0x8
 3605 0a2d 9B       		.byte	0x9b
 3606 0a2e 09       		.uleb128 0x9
 3607 0a2f 01       		.uleb128 0x1
 3608 0a30 51       		.byte	0x51
 3609 0a31 01       		.uleb128 0x1
 3610 0a32 32       		.byte	0x32
 3611 0a33 09       		.uleb128 0x9
ARM GAS  C:\Users\Misha\AppData\Local\Temp\ccYm0xvZ.s 			page 84


 3612 0a34 01       		.uleb128 0x1
 3613 0a35 52       		.byte	0x52
 3614 0a36 01       		.uleb128 0x1
 3615 0a37 35       		.byte	0x35
 3616 0a38 09       		.uleb128 0x9
 3617 0a39 01       		.uleb128 0x1
 3618 0a3a 53       		.byte	0x53
 3619 0a3b 01       		.uleb128 0x1
 3620 0a3c 33       		.byte	0x33
 3621 0a3d 09       		.uleb128 0x9
 3622 0a3e 02       		.uleb128 0x2
 3623 0a3f 7D       		.byte	0x7d
 3624 0a40 00       		.sleb128 0
 3625 0a41 02       		.uleb128 0x2
 3626 0a42 7A       		.byte	0x7a
 3627 0a43 00       		.sleb128 0
 3628 0a44 00       		.byte	0
 3629 0a45 0A       		.uleb128 0xa
 3630 0a46 CE050000 		.4byte	.LVL155
 3631 0a4a FC1A0000 		.4byte	0x1afc
 3632 0a4e 09       		.uleb128 0x9
 3633 0a4f 01       		.uleb128 0x1
 3634 0a50 50       		.byte	0x50
 3635 0a51 01       		.uleb128 0x1
 3636 0a52 37       		.byte	0x37
 3637 0a53 00       		.byte	0
 3638 0a54 00       		.byte	0
 3639 0a55 0D       		.uleb128 0xd
 3640 0a56 A0070000 		.4byte	.LBB10
 3641 0a5a 34000000 		.4byte	.LBE10-.LBB10
 3642 0a5e E80A0000 		.4byte	0xae8
 3643 0a62 0E       		.uleb128 0xe
 3644 0a63 31020000 		.4byte	.LASF23
 3645 0a67 01       		.byte	0x1
 3646 0a68 1A03     		.2byte	0x31a
 3647 0a6a 68000000 		.4byte	0x68
 3648 0a6e C8000000 		.4byte	.LLST8
 3649 0a72 11       		.uleb128 0x11
 3650 0a73 96060000 		.4byte	.LASF118
 3651 0a77 01       		.byte	0x1
 3652 0a78 1B03     		.2byte	0x31b
 3653 0a7a 68000000 		.4byte	0x68
 3654 0a7e 08       		.uleb128 0x8
 3655 0a7f AE070000 		.4byte	.LVL183
 3656 0a83 6A1B0000 		.4byte	0x1b6a
 3657 0a87 960A0000 		.4byte	0xa96
 3658 0a8b 09       		.uleb128 0x9
 3659 0a8c 01       		.uleb128 0x1
 3660 0a8d 50       		.byte	0x50
 3661 0a8e 01       		.uleb128 0x1
 3662 0a8f 30       		.byte	0x30
 3663 0a90 09       		.uleb128 0x9
 3664 0a91 01       		.uleb128 0x1
 3665 0a92 51       		.byte	0x51
 3666 0a93 01       		.uleb128 0x1
 3667 0a94 32       		.byte	0x32
 3668 0a95 00       		.byte	0
ARM GAS  C:\Users\Misha\AppData\Local\Temp\ccYm0xvZ.s 			page 85


 3669 0a96 08       		.uleb128 0x8
 3670 0a97 B4070000 		.4byte	.LVL184
 3671 0a9b 751B0000 		.4byte	0x1b75
 3672 0a9f A90A0000 		.4byte	0xaa9
 3673 0aa3 09       		.uleb128 0x9
 3674 0aa4 01       		.uleb128 0x1
 3675 0aa5 50       		.byte	0x50
 3676 0aa6 01       		.uleb128 0x1
 3677 0aa7 35       		.byte	0x35
 3678 0aa8 00       		.byte	0
 3679 0aa9 06       		.uleb128 0x6
 3680 0aaa B8070000 		.4byte	.LVL185
 3681 0aae 801B0000 		.4byte	0x1b80
 3682 0ab2 08       		.uleb128 0x8
 3683 0ab3 C0070000 		.4byte	.LVL186
 3684 0ab7 6A1B0000 		.4byte	0x1b6a
 3685 0abb CB0A0000 		.4byte	0xacb
 3686 0abf 09       		.uleb128 0x9
 3687 0ac0 01       		.uleb128 0x1
 3688 0ac1 50       		.byte	0x50
 3689 0ac2 01       		.uleb128 0x1
 3690 0ac3 33       		.byte	0x33
 3691 0ac4 09       		.uleb128 0x9
 3692 0ac5 01       		.uleb128 0x1
 3693 0ac6 51       		.byte	0x51
 3694 0ac7 02       		.uleb128 0x2
 3695 0ac8 75       		.byte	0x75
 3696 0ac9 00       		.sleb128 0
 3697 0aca 00       		.byte	0
 3698 0acb 0A       		.uleb128 0xa
 3699 0acc CC070000 		.4byte	.LVL187
 3700 0ad0 541B0000 		.4byte	0x1b54
 3701 0ad4 09       		.uleb128 0x9
 3702 0ad5 01       		.uleb128 0x1
 3703 0ad6 50       		.byte	0x50
 3704 0ad7 02       		.uleb128 0x2
 3705 0ad8 09       		.byte	0x9
 3706 0ad9 C4       		.byte	0xc4
 3707 0ada 09       		.uleb128 0x9
 3708 0adb 01       		.uleb128 0x1
 3709 0adc 51       		.byte	0x51
 3710 0add 02       		.uleb128 0x2
 3711 0ade 08       		.byte	0x8
 3712 0adf C8       		.byte	0xc8
 3713 0ae0 09       		.uleb128 0x9
 3714 0ae1 01       		.uleb128 0x1
 3715 0ae2 52       		.byte	0x52
 3716 0ae3 02       		.uleb128 0x2
 3717 0ae4 75       		.byte	0x75
 3718 0ae5 00       		.sleb128 0
 3719 0ae6 00       		.byte	0
 3720 0ae7 00       		.byte	0
 3721 0ae8 0D       		.uleb128 0xd
 3722 0ae9 7C090000 		.4byte	.LBB11
 3723 0aed 34010000 		.4byte	.LBE11-.LBB11
 3724 0af1 A80D0000 		.4byte	0xda8
 3725 0af5 0E       		.uleb128 0xe
ARM GAS  C:\Users\Misha\AppData\Local\Temp\ccYm0xvZ.s 			page 86


 3726 0af6 7F060000 		.4byte	.LASF24
 3727 0afa 01       		.byte	0x1
 3728 0afb A803     		.2byte	0x3a8
 3729 0afd 68000000 		.4byte	0x68
 3730 0b01 DC000000 		.4byte	.LLST9
 3731 0b05 08       		.uleb128 0x8
 3732 0b06 82090000 		.4byte	.LVL217
 3733 0b0a 1D1B0000 		.4byte	0x1b1d
 3734 0b0e 180B0000 		.4byte	0xb18
 3735 0b12 09       		.uleb128 0x9
 3736 0b13 01       		.uleb128 0x1
 3737 0b14 50       		.byte	0x50
 3738 0b15 01       		.uleb128 0x1
 3739 0b16 31       		.byte	0x31
 3740 0b17 00       		.byte	0
 3741 0b18 06       		.uleb128 0x6
 3742 0b19 8C090000 		.4byte	.LVL218
 3743 0b1d DB1A0000 		.4byte	0x1adb
 3744 0b21 08       		.uleb128 0x8
 3745 0b22 B2090000 		.4byte	.LVL221
 3746 0b26 071B0000 		.4byte	0x1b07
 3747 0b2a 530B0000 		.4byte	0xb53
 3748 0b2e 09       		.uleb128 0x9
 3749 0b2f 01       		.uleb128 0x1
 3750 0b30 50       		.byte	0x50
 3751 0b31 03       		.uleb128 0x3
 3752 0b32 0A       		.byte	0xa
 3753 0b33 2602     		.2byte	0x226
 3754 0b35 09       		.uleb128 0x9
 3755 0b36 01       		.uleb128 0x1
 3756 0b37 51       		.byte	0x51
 3757 0b38 01       		.uleb128 0x1
 3758 0b39 30       		.byte	0x30
 3759 0b3a 09       		.uleb128 0x9
 3760 0b3b 01       		.uleb128 0x1
 3761 0b3c 52       		.byte	0x52
 3762 0b3d 01       		.uleb128 0x1
 3763 0b3e 35       		.byte	0x35
 3764 0b3f 09       		.uleb128 0x9
 3765 0b40 01       		.uleb128 0x1
 3766 0b41 53       		.byte	0x53
 3767 0b42 01       		.uleb128 0x1
 3768 0b43 30       		.byte	0x30
 3769 0b44 09       		.uleb128 0x9
 3770 0b45 02       		.uleb128 0x2
 3771 0b46 7D       		.byte	0x7d
 3772 0b47 00       		.sleb128 0
 3773 0b48 02       		.uleb128 0x2
 3774 0b49 74       		.byte	0x74
 3775 0b4a 00       		.sleb128 0
 3776 0b4b 09       		.uleb128 0x9
 3777 0b4c 02       		.uleb128 0x2
 3778 0b4d 7D       		.byte	0x7d
 3779 0b4e 04       		.sleb128 4
 3780 0b4f 02       		.uleb128 0x2
 3781 0b50 75       		.byte	0x75
 3782 0b51 00       		.sleb128 0
ARM GAS  C:\Users\Misha\AppData\Local\Temp\ccYm0xvZ.s 			page 87


 3783 0b52 00       		.byte	0
 3784 0b53 08       		.uleb128 0x8
 3785 0b54 BA090000 		.4byte	.LVL222
 3786 0b58 331B0000 		.4byte	0x1b33
 3787 0b5c 6C0B0000 		.4byte	0xb6c
 3788 0b60 09       		.uleb128 0x9
 3789 0b61 01       		.uleb128 0x1
 3790 0b62 50       		.byte	0x50
 3791 0b63 01       		.uleb128 0x1
 3792 0b64 30       		.byte	0x30
 3793 0b65 09       		.uleb128 0x9
 3794 0b66 01       		.uleb128 0x1
 3795 0b67 51       		.byte	0x51
 3796 0b68 02       		.uleb128 0x2
 3797 0b69 74       		.byte	0x74
 3798 0b6a 00       		.sleb128 0
 3799 0b6b 00       		.byte	0
 3800 0b6c 08       		.uleb128 0x8
 3801 0b6d C2090000 		.4byte	.LVL223
 3802 0b71 331B0000 		.4byte	0x1b33
 3803 0b75 850B0000 		.4byte	0xb85
 3804 0b79 09       		.uleb128 0x9
 3805 0b7a 01       		.uleb128 0x1
 3806 0b7b 50       		.byte	0x50
 3807 0b7c 01       		.uleb128 0x1
 3808 0b7d 33       		.byte	0x33
 3809 0b7e 09       		.uleb128 0x9
 3810 0b7f 01       		.uleb128 0x1
 3811 0b80 51       		.byte	0x51
 3812 0b81 02       		.uleb128 0x2
 3813 0b82 74       		.byte	0x74
 3814 0b83 00       		.sleb128 0
 3815 0b84 00       		.byte	0
 3816 0b85 08       		.uleb128 0x8
 3817 0b86 D2090000 		.4byte	.LVL224
 3818 0b8a 071B0000 		.4byte	0x1b07
 3819 0b8e B70B0000 		.4byte	0xbb7
 3820 0b92 09       		.uleb128 0x9
 3821 0b93 01       		.uleb128 0x1
 3822 0b94 50       		.byte	0x50
 3823 0b95 02       		.uleb128 0x2
 3824 0b96 08       		.byte	0x8
 3825 0b97 AA       		.byte	0xaa
 3826 0b98 09       		.uleb128 0x9
 3827 0b99 01       		.uleb128 0x1
 3828 0b9a 51       		.byte	0x51
 3829 0b9b 02       		.uleb128 0x2
 3830 0b9c 75       		.byte	0x75
 3831 0b9d 00       		.sleb128 0
 3832 0b9e 09       		.uleb128 0x9
 3833 0b9f 01       		.uleb128 0x1
 3834 0ba0 52       		.byte	0x52
 3835 0ba1 01       		.uleb128 0x1
 3836 0ba2 34       		.byte	0x34
 3837 0ba3 09       		.uleb128 0x9
 3838 0ba4 01       		.uleb128 0x1
 3839 0ba5 53       		.byte	0x53
ARM GAS  C:\Users\Misha\AppData\Local\Temp\ccYm0xvZ.s 			page 88


 3840 0ba6 01       		.uleb128 0x1
 3841 0ba7 30       		.byte	0x30
 3842 0ba8 09       		.uleb128 0x9
 3843 0ba9 02       		.uleb128 0x2
 3844 0baa 7D       		.byte	0x7d
 3845 0bab 00       		.sleb128 0
 3846 0bac 02       		.uleb128 0x2
 3847 0bad 74       		.byte	0x74
 3848 0bae 00       		.sleb128 0
 3849 0baf 09       		.uleb128 0x9
 3850 0bb0 02       		.uleb128 0x2
 3851 0bb1 7D       		.byte	0x7d
 3852 0bb2 04       		.sleb128 4
 3853 0bb3 02       		.uleb128 0x2
 3854 0bb4 75       		.byte	0x75
 3855 0bb5 00       		.sleb128 0
 3856 0bb6 00       		.byte	0
 3857 0bb7 08       		.uleb128 0x8
 3858 0bb8 D8090000 		.4byte	.LVL225
 3859 0bbc FC1A0000 		.4byte	0x1afc
 3860 0bc0 CA0B0000 		.4byte	0xbca
 3861 0bc4 09       		.uleb128 0x9
 3862 0bc5 01       		.uleb128 0x1
 3863 0bc6 50       		.byte	0x50
 3864 0bc7 01       		.uleb128 0x1
 3865 0bc8 37       		.byte	0x37
 3866 0bc9 00       		.byte	0
 3867 0bca 08       		.uleb128 0x8
 3868 0bcb E0090000 		.4byte	.LVL226
 3869 0bcf 331B0000 		.4byte	0x1b33
 3870 0bd3 E30B0000 		.4byte	0xbe3
 3871 0bd7 09       		.uleb128 0x9
 3872 0bd8 01       		.uleb128 0x1
 3873 0bd9 50       		.byte	0x50
 3874 0bda 01       		.uleb128 0x1
 3875 0bdb 32       		.byte	0x32
 3876 0bdc 09       		.uleb128 0x9
 3877 0bdd 01       		.uleb128 0x1
 3878 0bde 51       		.byte	0x51
 3879 0bdf 02       		.uleb128 0x2
 3880 0be0 08       		.byte	0x8
 3881 0be1 C8       		.byte	0xc8
 3882 0be2 00       		.byte	0
 3883 0be3 08       		.uleb128 0x8
 3884 0be4 E8090000 		.4byte	.LVL227
 3885 0be8 6A1B0000 		.4byte	0x1b6a
 3886 0bec FB0B0000 		.4byte	0xbfb
 3887 0bf0 09       		.uleb128 0x9
 3888 0bf1 01       		.uleb128 0x1
 3889 0bf2 50       		.byte	0x50
 3890 0bf3 01       		.uleb128 0x1
 3891 0bf4 33       		.byte	0x33
 3892 0bf5 09       		.uleb128 0x9
 3893 0bf6 01       		.uleb128 0x1
 3894 0bf7 51       		.byte	0x51
 3895 0bf8 01       		.uleb128 0x1
 3896 0bf9 31       		.byte	0x31
ARM GAS  C:\Users\Misha\AppData\Local\Temp\ccYm0xvZ.s 			page 89


 3897 0bfa 00       		.byte	0
 3898 0bfb 08       		.uleb128 0x8
 3899 0bfc F4090000 		.4byte	.LVL228
 3900 0c00 FC1A0000 		.4byte	0x1afc
 3901 0c04 0E0C0000 		.4byte	0xc0e
 3902 0c08 09       		.uleb128 0x9
 3903 0c09 01       		.uleb128 0x1
 3904 0c0a 50       		.byte	0x50
 3905 0c0b 01       		.uleb128 0x1
 3906 0c0c 37       		.byte	0x37
 3907 0c0d 00       		.byte	0
 3908 0c0e 08       		.uleb128 0x8
 3909 0c0f 060A0000 		.4byte	.LVL229
 3910 0c13 071B0000 		.4byte	0x1b07
 3911 0c17 3E0C0000 		.4byte	0xc3e
 3912 0c1b 09       		.uleb128 0x9
 3913 0c1c 01       		.uleb128 0x1
 3914 0c1d 50       		.byte	0x50
 3915 0c1e 02       		.uleb128 0x2
 3916 0c1f 08       		.byte	0x8
 3917 0c20 82       		.byte	0x82
 3918 0c21 09       		.uleb128 0x9
 3919 0c22 01       		.uleb128 0x1
 3920 0c23 51       		.byte	0x51
 3921 0c24 01       		.uleb128 0x1
 3922 0c25 31       		.byte	0x31
 3923 0c26 09       		.uleb128 0x9
 3924 0c27 01       		.uleb128 0x1
 3925 0c28 52       		.byte	0x52
 3926 0c29 01       		.uleb128 0x1
 3927 0c2a 34       		.byte	0x34
 3928 0c2b 09       		.uleb128 0x9
 3929 0c2c 01       		.uleb128 0x1
 3930 0c2d 53       		.byte	0x53
 3931 0c2e 01       		.uleb128 0x1
 3932 0c2f 30       		.byte	0x30
 3933 0c30 09       		.uleb128 0x9
 3934 0c31 02       		.uleb128 0x2
 3935 0c32 7D       		.byte	0x7d
 3936 0c33 00       		.sleb128 0
 3937 0c34 02       		.uleb128 0x2
 3938 0c35 08       		.byte	0x8
 3939 0c36 C8       		.byte	0xc8
 3940 0c37 09       		.uleb128 0x9
 3941 0c38 02       		.uleb128 0x2
 3942 0c39 7D       		.byte	0x7d
 3943 0c3a 04       		.sleb128 4
 3944 0c3b 01       		.uleb128 0x1
 3945 0c3c 31       		.byte	0x31
 3946 0c3d 00       		.byte	0
 3947 0c3e 08       		.uleb128 0x8
 3948 0c3f 1C0A0000 		.4byte	.LVL230
 3949 0c43 071B0000 		.4byte	0x1b07
 3950 0c47 6E0C0000 		.4byte	0xc6e
 3951 0c4b 09       		.uleb128 0x9
 3952 0c4c 01       		.uleb128 0x1
 3953 0c4d 50       		.byte	0x50
ARM GAS  C:\Users\Misha\AppData\Local\Temp\ccYm0xvZ.s 			page 90


 3954 0c4e 02       		.uleb128 0x2
 3955 0c4f 08       		.byte	0x8
 3956 0c50 5F       		.byte	0x5f
 3957 0c51 09       		.uleb128 0x9
 3958 0c52 01       		.uleb128 0x1
 3959 0c53 51       		.byte	0x51
 3960 0c54 01       		.uleb128 0x1
 3961 0c55 31       		.byte	0x31
 3962 0c56 09       		.uleb128 0x9
 3963 0c57 01       		.uleb128 0x1
 3964 0c58 52       		.byte	0x52
 3965 0c59 01       		.uleb128 0x1
 3966 0c5a 34       		.byte	0x34
 3967 0c5b 09       		.uleb128 0x9
 3968 0c5c 01       		.uleb128 0x1
 3969 0c5d 53       		.byte	0x53
 3970 0c5e 01       		.uleb128 0x1
 3971 0c5f 35       		.byte	0x35
 3972 0c60 09       		.uleb128 0x9
 3973 0c61 02       		.uleb128 0x2
 3974 0c62 7D       		.byte	0x7d
 3975 0c63 00       		.sleb128 0
 3976 0c64 02       		.uleb128 0x2
 3977 0c65 08       		.byte	0x8
 3978 0c66 46       		.byte	0x46
 3979 0c67 09       		.uleb128 0x9
 3980 0c68 02       		.uleb128 0x2
 3981 0c69 7D       		.byte	0x7d
 3982 0c6a 04       		.sleb128 4
 3983 0c6b 01       		.uleb128 0x1
 3984 0c6c 30       		.byte	0x30
 3985 0c6d 00       		.byte	0
 3986 0c6e 08       		.uleb128 0x8
 3987 0c6f 260A0000 		.4byte	.LVL231
 3988 0c73 6A1B0000 		.4byte	0x1b6a
 3989 0c77 810C0000 		.4byte	0xc81
 3990 0c7b 09       		.uleb128 0x9
 3991 0c7c 01       		.uleb128 0x1
 3992 0c7d 51       		.byte	0x51
 3993 0c7e 01       		.uleb128 0x1
 3994 0c7f 31       		.byte	0x31
 3995 0c80 00       		.byte	0
 3996 0c81 06       		.uleb128 0x6
 3997 0c82 2A0A0000 		.4byte	.LVL232
 3998 0c86 8B1B0000 		.4byte	0x1b8b
 3999 0c8a 08       		.uleb128 0x8
 4000 0c8b 320A0000 		.4byte	.LVL233
 4001 0c8f 6A1B0000 		.4byte	0x1b6a
 4002 0c93 A20C0000 		.4byte	0xca2
 4003 0c97 09       		.uleb128 0x9
 4004 0c98 01       		.uleb128 0x1
 4005 0c99 50       		.byte	0x50
 4006 0c9a 01       		.uleb128 0x1
 4007 0c9b 33       		.byte	0x33
 4008 0c9c 09       		.uleb128 0x9
 4009 0c9d 01       		.uleb128 0x1
 4010 0c9e 51       		.byte	0x51
ARM GAS  C:\Users\Misha\AppData\Local\Temp\ccYm0xvZ.s 			page 91


 4011 0c9f 01       		.uleb128 0x1
 4012 0ca0 30       		.byte	0x30
 4013 0ca1 00       		.byte	0
 4014 0ca2 08       		.uleb128 0x8
 4015 0ca3 5C0A0000 		.4byte	.LVL234
 4016 0ca7 541B0000 		.4byte	0x1b54
 4017 0cab C20C0000 		.4byte	0xcc2
 4018 0caf 09       		.uleb128 0x9
 4019 0cb0 01       		.uleb128 0x1
 4020 0cb1 50       		.byte	0x50
 4021 0cb2 03       		.uleb128 0x3
 4022 0cb3 0B       		.byte	0xb
 4023 0cb4 7EFF     		.2byte	0xff7e
 4024 0cb6 09       		.uleb128 0x9
 4025 0cb7 01       		.uleb128 0x1
 4026 0cb8 51       		.byte	0x51
 4027 0cb9 02       		.uleb128 0x2
 4028 0cba 08       		.byte	0x8
 4029 0cbb C8       		.byte	0xc8
 4030 0cbc 09       		.uleb128 0x9
 4031 0cbd 01       		.uleb128 0x1
 4032 0cbe 52       		.byte	0x52
 4033 0cbf 01       		.uleb128 0x1
 4034 0cc0 31       		.byte	0x31
 4035 0cc1 00       		.byte	0
 4036 0cc2 08       		.uleb128 0x8
 4037 0cc3 640A0000 		.4byte	.LVL235
 4038 0cc7 331B0000 		.4byte	0x1b33
 4039 0ccb DB0C0000 		.4byte	0xcdb
 4040 0ccf 09       		.uleb128 0x9
 4041 0cd0 01       		.uleb128 0x1
 4042 0cd1 50       		.byte	0x50
 4043 0cd2 01       		.uleb128 0x1
 4044 0cd3 33       		.byte	0x33
 4045 0cd4 09       		.uleb128 0x9
 4046 0cd5 01       		.uleb128 0x1
 4047 0cd6 51       		.byte	0x51
 4048 0cd7 02       		.uleb128 0x2
 4049 0cd8 08       		.byte	0x8
 4050 0cd9 C8       		.byte	0xc8
 4051 0cda 00       		.byte	0
 4052 0cdb 08       		.uleb128 0x8
 4053 0cdc 6A0A0000 		.4byte	.LVL236
 4054 0ce0 FC1A0000 		.4byte	0x1afc
 4055 0ce4 EE0C0000 		.4byte	0xcee
 4056 0ce8 09       		.uleb128 0x9
 4057 0ce9 01       		.uleb128 0x1
 4058 0cea 50       		.byte	0x50
 4059 0ceb 01       		.uleb128 0x1
 4060 0cec 37       		.byte	0x37
 4061 0ced 00       		.byte	0
 4062 0cee 08       		.uleb128 0x8
 4063 0cef 800A0000 		.4byte	.LVL237
 4064 0cf3 071B0000 		.4byte	0x1b07
 4065 0cf7 200D0000 		.4byte	0xd20
 4066 0cfb 09       		.uleb128 0x9
 4067 0cfc 01       		.uleb128 0x1
ARM GAS  C:\Users\Misha\AppData\Local\Temp\ccYm0xvZ.s 			page 92


 4068 0cfd 50       		.byte	0x50
 4069 0cfe 03       		.uleb128 0x3
 4070 0cff 0A       		.byte	0xa
 4071 0d00 2602     		.2byte	0x226
 4072 0d02 09       		.uleb128 0x9
 4073 0d03 01       		.uleb128 0x1
 4074 0d04 51       		.byte	0x51
 4075 0d05 01       		.uleb128 0x1
 4076 0d06 30       		.byte	0x30
 4077 0d07 09       		.uleb128 0x9
 4078 0d08 01       		.uleb128 0x1
 4079 0d09 52       		.byte	0x52
 4080 0d0a 01       		.uleb128 0x1
 4081 0d0b 35       		.byte	0x35
 4082 0d0c 09       		.uleb128 0x9
 4083 0d0d 01       		.uleb128 0x1
 4084 0d0e 53       		.byte	0x53
 4085 0d0f 01       		.uleb128 0x1
 4086 0d10 30       		.byte	0x30
 4087 0d11 09       		.uleb128 0x9
 4088 0d12 02       		.uleb128 0x2
 4089 0d13 7D       		.byte	0x7d
 4090 0d14 00       		.sleb128 0
 4091 0d15 02       		.uleb128 0x2
 4092 0d16 75       		.byte	0x75
 4093 0d17 00       		.sleb128 0
 4094 0d18 09       		.uleb128 0x9
 4095 0d19 02       		.uleb128 0x2
 4096 0d1a 7D       		.byte	0x7d
 4097 0d1b 04       		.sleb128 4
 4098 0d1c 02       		.uleb128 0x2
 4099 0d1d 74       		.byte	0x74
 4100 0d1e 00       		.sleb128 0
 4101 0d1f 00       		.byte	0
 4102 0d20 08       		.uleb128 0x8
 4103 0d21 860A0000 		.4byte	.LVL238
 4104 0d25 FC1A0000 		.4byte	0x1afc
 4105 0d29 330D0000 		.4byte	0xd33
 4106 0d2d 09       		.uleb128 0x9
 4107 0d2e 01       		.uleb128 0x1
 4108 0d2f 50       		.byte	0x50
 4109 0d30 01       		.uleb128 0x1
 4110 0d31 37       		.byte	0x37
 4111 0d32 00       		.byte	0
 4112 0d33 08       		.uleb128 0x8
 4113 0d34 8E0A0000 		.4byte	.LVL239
 4114 0d38 331B0000 		.4byte	0x1b33
 4115 0d3c 4C0D0000 		.4byte	0xd4c
 4116 0d40 09       		.uleb128 0x9
 4117 0d41 01       		.uleb128 0x1
 4118 0d42 50       		.byte	0x50
 4119 0d43 01       		.uleb128 0x1
 4120 0d44 30       		.byte	0x30
 4121 0d45 09       		.uleb128 0x9
 4122 0d46 01       		.uleb128 0x1
 4123 0d47 51       		.byte	0x51
 4124 0d48 02       		.uleb128 0x2
ARM GAS  C:\Users\Misha\AppData\Local\Temp\ccYm0xvZ.s 			page 93


 4125 0d49 75       		.byte	0x75
 4126 0d4a 00       		.sleb128 0
 4127 0d4b 00       		.byte	0
 4128 0d4c 08       		.uleb128 0x8
 4129 0d4d 960A0000 		.4byte	.LVL240
 4130 0d51 331B0000 		.4byte	0x1b33
 4131 0d55 660D0000 		.4byte	0xd66
 4132 0d59 09       		.uleb128 0x9
 4133 0d5a 01       		.uleb128 0x1
 4134 0d5b 50       		.byte	0x50
 4135 0d5c 02       		.uleb128 0x2
 4136 0d5d 74       		.byte	0x74
 4137 0d5e 00       		.sleb128 0
 4138 0d5f 09       		.uleb128 0x9
 4139 0d60 01       		.uleb128 0x1
 4140 0d61 51       		.byte	0x51
 4141 0d62 02       		.uleb128 0x2
 4142 0d63 75       		.byte	0x75
 4143 0d64 00       		.sleb128 0
 4144 0d65 00       		.byte	0
 4145 0d66 08       		.uleb128 0x8
 4146 0d67 A60A0000 		.4byte	.LVL241
 4147 0d6b 071B0000 		.4byte	0x1b07
 4148 0d6f 980D0000 		.4byte	0xd98
 4149 0d73 09       		.uleb128 0x9
 4150 0d74 01       		.uleb128 0x1
 4151 0d75 50       		.byte	0x50
 4152 0d76 02       		.uleb128 0x2
 4153 0d77 08       		.byte	0x8
 4154 0d78 B9       		.byte	0xb9
 4155 0d79 09       		.uleb128 0x9
 4156 0d7a 01       		.uleb128 0x1
 4157 0d7b 51       		.byte	0x51
 4158 0d7c 02       		.uleb128 0x2
 4159 0d7d 74       		.byte	0x74
 4160 0d7e 00       		.sleb128 0
 4161 0d7f 09       		.uleb128 0x9
 4162 0d80 01       		.uleb128 0x1
 4163 0d81 52       		.byte	0x52
 4164 0d82 01       		.uleb128 0x1
 4165 0d83 34       		.byte	0x34
 4166 0d84 09       		.uleb128 0x9
 4167 0d85 01       		.uleb128 0x1
 4168 0d86 53       		.byte	0x53
 4169 0d87 01       		.uleb128 0x1
 4170 0d88 30       		.byte	0x30
 4171 0d89 09       		.uleb128 0x9
 4172 0d8a 02       		.uleb128 0x2
 4173 0d8b 7D       		.byte	0x7d
 4174 0d8c 00       		.sleb128 0
 4175 0d8d 02       		.uleb128 0x2
 4176 0d8e 75       		.byte	0x75
 4177 0d8f 00       		.sleb128 0
 4178 0d90 09       		.uleb128 0x9
 4179 0d91 02       		.uleb128 0x2
 4180 0d92 7D       		.byte	0x7d
 4181 0d93 04       		.sleb128 4
ARM GAS  C:\Users\Misha\AppData\Local\Temp\ccYm0xvZ.s 			page 94


 4182 0d94 02       		.uleb128 0x2
 4183 0d95 74       		.byte	0x74
 4184 0d96 00       		.sleb128 0
 4185 0d97 00       		.byte	0
 4186 0d98 0A       		.uleb128 0xa
 4187 0d99 AC0A0000 		.4byte	.LVL242
 4188 0d9d FC1A0000 		.4byte	0x1afc
 4189 0da1 09       		.uleb128 0x9
 4190 0da2 01       		.uleb128 0x1
 4191 0da3 50       		.byte	0x50
 4192 0da4 01       		.uleb128 0x1
 4193 0da5 37       		.byte	0x37
 4194 0da6 00       		.byte	0
 4195 0da7 00       		.byte	0
 4196 0da8 06       		.uleb128 0x6
 4197 0da9 0C000000 		.4byte	.LVL3
 4198 0dad 961B0000 		.4byte	0x1b96
 4199 0db1 06       		.uleb128 0x6
 4200 0db2 10000000 		.4byte	.LVL4
 4201 0db6 A11B0000 		.4byte	0x1ba1
 4202 0dba 08       		.uleb128 0x8
 4203 0dbb 16000000 		.4byte	.LVL5
 4204 0dbf D01A0000 		.4byte	0x1ad0
 4205 0dc3 D10D0000 		.4byte	0xdd1
 4206 0dc7 09       		.uleb128 0x9
 4207 0dc8 01       		.uleb128 0x1
 4208 0dc9 50       		.byte	0x50
 4209 0dca 05       		.uleb128 0x5
 4210 0dcb 03       		.byte	0x3
 4211 0dcc 18000000 		.4byte	.LC1
 4212 0dd0 00       		.byte	0
 4213 0dd1 06       		.uleb128 0x6
 4214 0dd2 1A000000 		.4byte	.LVL6
 4215 0dd6 AC1B0000 		.4byte	0x1bac
 4216 0dda 06       		.uleb128 0x6
 4217 0ddb 1E000000 		.4byte	.LVL7
 4218 0ddf B71B0000 		.4byte	0x1bb7
 4219 0de3 08       		.uleb128 0x8
 4220 0de4 24000000 		.4byte	.LVL8
 4221 0de8 C21B0000 		.4byte	0x1bc2
 4222 0dec F60D0000 		.4byte	0xdf6
 4223 0df0 09       		.uleb128 0x9
 4224 0df1 01       		.uleb128 0x1
 4225 0df2 50       		.byte	0x50
 4226 0df3 01       		.uleb128 0x1
 4227 0df4 30       		.byte	0x30
 4228 0df5 00       		.byte	0
 4229 0df6 06       		.uleb128 0x6
 4230 0df7 2C000000 		.4byte	.LVL9
 4231 0dfb CD1B0000 		.4byte	0x1bcd
 4232 0dff 08       		.uleb128 0x8
 4233 0e00 36000000 		.4byte	.LVL10
 4234 0e04 1D1B0000 		.4byte	0x1b1d
 4235 0e08 130E0000 		.4byte	0xe13
 4236 0e0c 09       		.uleb128 0x9
 4237 0e0d 01       		.uleb128 0x1
 4238 0e0e 50       		.byte	0x50
ARM GAS  C:\Users\Misha\AppData\Local\Temp\ccYm0xvZ.s 			page 95


 4239 0e0f 02       		.uleb128 0x2
 4240 0e10 75       		.byte	0x75
 4241 0e11 00       		.sleb128 0
 4242 0e12 00       		.byte	0
 4243 0e13 08       		.uleb128 0x8
 4244 0e14 3C000000 		.4byte	.LVL11
 4245 0e18 D81B0000 		.4byte	0x1bd8
 4246 0e1c 260E0000 		.4byte	0xe26
 4247 0e20 09       		.uleb128 0x9
 4248 0e21 01       		.uleb128 0x1
 4249 0e22 50       		.byte	0x50
 4250 0e23 01       		.uleb128 0x1
 4251 0e24 31       		.byte	0x31
 4252 0e25 00       		.byte	0
 4253 0e26 08       		.uleb128 0x8
 4254 0e27 44000000 		.4byte	.LVL12
 4255 0e2b C51A0000 		.4byte	0x1ac5
 4256 0e2f 3B0E0000 		.4byte	0xe3b
 4257 0e33 09       		.uleb128 0x9
 4258 0e34 01       		.uleb128 0x1
 4259 0e35 50       		.byte	0x50
 4260 0e36 03       		.uleb128 0x3
 4261 0e37 0A       		.byte	0xa
 4262 0e38 F401     		.2byte	0x1f4
 4263 0e3a 00       		.byte	0
 4264 0e3b 08       		.uleb128 0x8
 4265 0e3c 4A000000 		.4byte	.LVL13
 4266 0e40 D81B0000 		.4byte	0x1bd8
 4267 0e44 4E0E0000 		.4byte	0xe4e
 4268 0e48 09       		.uleb128 0x9
 4269 0e49 01       		.uleb128 0x1
 4270 0e4a 50       		.byte	0x50
 4271 0e4b 01       		.uleb128 0x1
 4272 0e4c 32       		.byte	0x32
 4273 0e4d 00       		.byte	0
 4274 0e4e 08       		.uleb128 0x8
 4275 0e4f 52000000 		.4byte	.LVL14
 4276 0e53 C51A0000 		.4byte	0x1ac5
 4277 0e57 630E0000 		.4byte	0xe63
 4278 0e5b 09       		.uleb128 0x9
 4279 0e5c 01       		.uleb128 0x1
 4280 0e5d 50       		.byte	0x50
 4281 0e5e 03       		.uleb128 0x3
 4282 0e5f 0A       		.byte	0xa
 4283 0e60 F401     		.2byte	0x1f4
 4284 0e62 00       		.byte	0
 4285 0e63 08       		.uleb128 0x8
 4286 0e64 58000000 		.4byte	.LVL15
 4287 0e68 D81B0000 		.4byte	0x1bd8
 4288 0e6c 760E0000 		.4byte	0xe76
 4289 0e70 09       		.uleb128 0x9
 4290 0e71 01       		.uleb128 0x1
 4291 0e72 50       		.byte	0x50
 4292 0e73 01       		.uleb128 0x1
 4293 0e74 33       		.byte	0x33
 4294 0e75 00       		.byte	0
 4295 0e76 08       		.uleb128 0x8
ARM GAS  C:\Users\Misha\AppData\Local\Temp\ccYm0xvZ.s 			page 96


 4296 0e77 60000000 		.4byte	.LVL16
 4297 0e7b C51A0000 		.4byte	0x1ac5
 4298 0e7f 8B0E0000 		.4byte	0xe8b
 4299 0e83 09       		.uleb128 0x9
 4300 0e84 01       		.uleb128 0x1
 4301 0e85 50       		.byte	0x50
 4302 0e86 03       		.uleb128 0x3
 4303 0e87 0A       		.byte	0xa
 4304 0e88 F401     		.2byte	0x1f4
 4305 0e8a 00       		.byte	0
 4306 0e8b 08       		.uleb128 0x8
 4307 0e8c 66000000 		.4byte	.LVL17
 4308 0e90 D81B0000 		.4byte	0x1bd8
 4309 0e94 9F0E0000 		.4byte	0xe9f
 4310 0e98 09       		.uleb128 0x9
 4311 0e99 01       		.uleb128 0x1
 4312 0e9a 50       		.byte	0x50
 4313 0e9b 02       		.uleb128 0x2
 4314 0e9c 75       		.byte	0x75
 4315 0e9d 00       		.sleb128 0
 4316 0e9e 00       		.byte	0
 4317 0e9f 08       		.uleb128 0x8
 4318 0ea0 6E000000 		.4byte	.LVL18
 4319 0ea4 C51A0000 		.4byte	0x1ac5
 4320 0ea8 B40E0000 		.4byte	0xeb4
 4321 0eac 09       		.uleb128 0x9
 4322 0ead 01       		.uleb128 0x1
 4323 0eae 50       		.byte	0x50
 4324 0eaf 03       		.uleb128 0x3
 4325 0eb0 0A       		.byte	0xa
 4326 0eb1 F401     		.2byte	0x1f4
 4327 0eb3 00       		.byte	0
 4328 0eb4 06       		.uleb128 0x6
 4329 0eb5 72000000 		.4byte	.LVL19
 4330 0eb9 121B0000 		.4byte	0x1b12
 4331 0ebd 06       		.uleb128 0x6
 4332 0ebe 76000000 		.4byte	.LVL20
 4333 0ec2 E31B0000 		.4byte	0x1be3
 4334 0ec6 08       		.uleb128 0x8
 4335 0ec7 7E000000 		.4byte	.LVL21
 4336 0ecb EE1B0000 		.4byte	0x1bee
 4337 0ecf DB0E0000 		.4byte	0xedb
 4338 0ed3 09       		.uleb128 0x9
 4339 0ed4 01       		.uleb128 0x1
 4340 0ed5 50       		.byte	0x50
 4341 0ed6 03       		.uleb128 0x3
 4342 0ed7 0A       		.byte	0xa
 4343 0ed8 E803     		.2byte	0x3e8
 4344 0eda 00       		.byte	0
 4345 0edb 08       		.uleb128 0x8
 4346 0edc 86000000 		.4byte	.LVL22
 4347 0ee0 C51A0000 		.4byte	0x1ac5
 4348 0ee4 F00E0000 		.4byte	0xef0
 4349 0ee8 09       		.uleb128 0x9
 4350 0ee9 01       		.uleb128 0x1
 4351 0eea 50       		.byte	0x50
 4352 0eeb 03       		.uleb128 0x3
ARM GAS  C:\Users\Misha\AppData\Local\Temp\ccYm0xvZ.s 			page 97


 4353 0eec 0A       		.byte	0xa
 4354 0eed F401     		.2byte	0x1f4
 4355 0eef 00       		.byte	0
 4356 0ef0 06       		.uleb128 0x6
 4357 0ef1 8A000000 		.4byte	.LVL23
 4358 0ef5 F91B0000 		.4byte	0x1bf9
 4359 0ef9 06       		.uleb128 0x6
 4360 0efa 8E000000 		.4byte	.LVL24
 4361 0efe 041C0000 		.4byte	0x1c04
 4362 0f02 08       		.uleb128 0x8
 4363 0f03 96000000 		.4byte	.LVL25
 4364 0f07 0F1C0000 		.4byte	0x1c0f
 4365 0f0b 170F0000 		.4byte	0xf17
 4366 0f0f 09       		.uleb128 0x9
 4367 0f10 01       		.uleb128 0x1
 4368 0f11 50       		.byte	0x50
 4369 0f12 03       		.uleb128 0x3
 4370 0f13 0A       		.byte	0xa
 4371 0f14 6004     		.2byte	0x460
 4372 0f16 00       		.byte	0
 4373 0f17 08       		.uleb128 0x8
 4374 0f18 9E000000 		.4byte	.LVL26
 4375 0f1c C51A0000 		.4byte	0x1ac5
 4376 0f20 2C0F0000 		.4byte	0xf2c
 4377 0f24 09       		.uleb128 0x9
 4378 0f25 01       		.uleb128 0x1
 4379 0f26 50       		.byte	0x50
 4380 0f27 03       		.uleb128 0x3
 4381 0f28 0A       		.byte	0xa
 4382 0f29 F401     		.2byte	0x1f4
 4383 0f2b 00       		.byte	0
 4384 0f2c 06       		.uleb128 0x6
 4385 0f2d A2000000 		.4byte	.LVL27
 4386 0f31 1A1C0000 		.4byte	0x1c1a
 4387 0f35 06       		.uleb128 0x6
 4388 0f36 A6000000 		.4byte	.LVL28
 4389 0f3a 251C0000 		.4byte	0x1c25
 4390 0f3e 06       		.uleb128 0x6
 4391 0f3f AA000000 		.4byte	.LVL29
 4392 0f43 301C0000 		.4byte	0x1c30
 4393 0f47 08       		.uleb128 0x8
 4394 0f48 B0000000 		.4byte	.LVL30
 4395 0f4c 3B1C0000 		.4byte	0x1c3b
 4396 0f50 5B0F0000 		.4byte	0xf5b
 4397 0f54 09       		.uleb128 0x9
 4398 0f55 01       		.uleb128 0x1
 4399 0f56 50       		.byte	0x50
 4400 0f57 02       		.uleb128 0x2
 4401 0f58 75       		.byte	0x75
 4402 0f59 00       		.sleb128 0
 4403 0f5a 00       		.byte	0
 4404 0f5b 08       		.uleb128 0x8
 4405 0f5c B6000000 		.4byte	.LVL31
 4406 0f60 461C0000 		.4byte	0x1c46
 4407 0f64 6F0F0000 		.4byte	0xf6f
 4408 0f68 09       		.uleb128 0x9
 4409 0f69 01       		.uleb128 0x1
ARM GAS  C:\Users\Misha\AppData\Local\Temp\ccYm0xvZ.s 			page 98


 4410 0f6a 50       		.byte	0x50
 4411 0f6b 02       		.uleb128 0x2
 4412 0f6c 75       		.byte	0x75
 4413 0f6d 00       		.sleb128 0
 4414 0f6e 00       		.byte	0
 4415 0f6f 06       		.uleb128 0x6
 4416 0f70 BA000000 		.4byte	.LVL32
 4417 0f74 511C0000 		.4byte	0x1c51
 4418 0f78 06       		.uleb128 0x6
 4419 0f79 BE000000 		.4byte	.LVL33
 4420 0f7d 5C1C0000 		.4byte	0x1c5c
 4421 0f81 06       		.uleb128 0x6
 4422 0f82 C2000000 		.4byte	.LVL34
 4423 0f86 671C0000 		.4byte	0x1c67
 4424 0f8a 06       		.uleb128 0x6
 4425 0f8b C6000000 		.4byte	.LVL35
 4426 0f8f 721C0000 		.4byte	0x1c72
 4427 0f93 06       		.uleb128 0x6
 4428 0f94 D0000000 		.4byte	.LVL36
 4429 0f98 7D1C0000 		.4byte	0x1c7d
 4430 0f9c 06       		.uleb128 0x6
 4431 0f9d D4000000 		.4byte	.LVL37
 4432 0fa1 881C0000 		.4byte	0x1c88
 4433 0fa5 08       		.uleb128 0x8
 4434 0fa6 DA000000 		.4byte	.LVL38
 4435 0faa 931C0000 		.4byte	0x1c93
 4436 0fae BC0F0000 		.4byte	0xfbc
 4437 0fb2 09       		.uleb128 0x9
 4438 0fb3 01       		.uleb128 0x1
 4439 0fb4 50       		.byte	0x50
 4440 0fb5 05       		.uleb128 0x5
 4441 0fb6 03       		.byte	0x3
 4442 0fb7 00000000 		.4byte	TIH
 4443 0fbb 00       		.byte	0
 4444 0fbc 08       		.uleb128 0x8
 4445 0fbd E0000000 		.4byte	.LVL39
 4446 0fc1 9E1C0000 		.4byte	0x1c9e
 4447 0fc5 D30F0000 		.4byte	0xfd3
 4448 0fc9 09       		.uleb128 0x9
 4449 0fca 01       		.uleb128 0x1
 4450 0fcb 50       		.byte	0x50
 4451 0fcc 05       		.uleb128 0x5
 4452 0fcd 03       		.byte	0x3
 4453 0fce 00000000 		.4byte	StartIH
 4454 0fd2 00       		.byte	0
 4455 0fd3 08       		.uleb128 0x8
 4456 0fd4 EA000000 		.4byte	.LVL40
 4457 0fd8 D01A0000 		.4byte	0x1ad0
 4458 0fdc EA0F0000 		.4byte	0xfea
 4459 0fe0 09       		.uleb128 0x9
 4460 0fe1 01       		.uleb128 0x1
 4461 0fe2 50       		.byte	0x50
 4462 0fe3 05       		.uleb128 0x5
 4463 0fe4 03       		.byte	0x3
 4464 0fe5 30000000 		.4byte	.LC2
 4465 0fe9 00       		.byte	0
 4466 0fea 06       		.uleb128 0x6
ARM GAS  C:\Users\Misha\AppData\Local\Temp\ccYm0xvZ.s 			page 99


 4467 0feb EE000000 		.4byte	.LVL41
 4468 0fef A91C0000 		.4byte	0x1ca9
 4469 0ff3 06       		.uleb128 0x6
 4470 0ff4 F2000000 		.4byte	.LVL42
 4471 0ff8 A91C0000 		.4byte	0x1ca9
 4472 0ffc 06       		.uleb128 0x6
 4473 0ffd F6000000 		.4byte	.LVL43
 4474 1001 A91C0000 		.4byte	0x1ca9
 4475 1005 06       		.uleb128 0x6
 4476 1006 FA000000 		.4byte	.LVL44
 4477 100a B41C0000 		.4byte	0x1cb4
 4478 100e 06       		.uleb128 0x6
 4479 100f FE000000 		.4byte	.LVL45
 4480 1013 BF1C0000 		.4byte	0x1cbf
 4481 1017 08       		.uleb128 0x8
 4482 1018 04010000 		.4byte	.LVL46
 4483 101c CA1C0000 		.4byte	0x1cca
 4484 1020 2B100000 		.4byte	0x102b
 4485 1024 09       		.uleb128 0x9
 4486 1025 01       		.uleb128 0x1
 4487 1026 50       		.byte	0x50
 4488 1027 02       		.uleb128 0x2
 4489 1028 75       		.byte	0x75
 4490 1029 00       		.sleb128 0
 4491 102a 00       		.byte	0
 4492 102b 08       		.uleb128 0x8
 4493 102c 04060000 		.4byte	.LVL157
 4494 1030 071B0000 		.4byte	0x1b07
 4495 1034 5C100000 		.4byte	0x105c
 4496 1038 09       		.uleb128 0x9
 4497 1039 01       		.uleb128 0x1
 4498 103a 50       		.byte	0x50
 4499 103b 02       		.uleb128 0x2
 4500 103c 08       		.byte	0x8
 4501 103d AF       		.byte	0xaf
 4502 103e 09       		.uleb128 0x9
 4503 103f 01       		.uleb128 0x1
 4504 1040 51       		.byte	0x51
 4505 1041 01       		.uleb128 0x1
 4506 1042 30       		.byte	0x30
 4507 1043 09       		.uleb128 0x9
 4508 1044 01       		.uleb128 0x1
 4509 1045 52       		.byte	0x52
 4510 1046 01       		.uleb128 0x1
 4511 1047 35       		.byte	0x35
 4512 1048 09       		.uleb128 0x9
 4513 1049 01       		.uleb128 0x1
 4514 104a 53       		.byte	0x53
 4515 104b 01       		.uleb128 0x1
 4516 104c 30       		.byte	0x30
 4517 104d 09       		.uleb128 0x9
 4518 104e 02       		.uleb128 0x2
 4519 104f 7D       		.byte	0x7d
 4520 1050 00       		.sleb128 0
 4521 1051 02       		.uleb128 0x2
 4522 1052 74       		.byte	0x74
 4523 1053 00       		.sleb128 0
ARM GAS  C:\Users\Misha\AppData\Local\Temp\ccYm0xvZ.s 			page 100


 4524 1054 09       		.uleb128 0x9
 4525 1055 02       		.uleb128 0x2
 4526 1056 7D       		.byte	0x7d
 4527 1057 04       		.sleb128 4
 4528 1058 02       		.uleb128 0x2
 4529 1059 75       		.byte	0x75
 4530 105a 00       		.sleb128 0
 4531 105b 00       		.byte	0
 4532 105c 08       		.uleb128 0x8
 4533 105d 0A060000 		.4byte	.LVL158
 4534 1061 FC1A0000 		.4byte	0x1afc
 4535 1065 6F100000 		.4byte	0x106f
 4536 1069 09       		.uleb128 0x9
 4537 106a 01       		.uleb128 0x1
 4538 106b 50       		.byte	0x50
 4539 106c 01       		.uleb128 0x1
 4540 106d 37       		.byte	0x37
 4541 106e 00       		.byte	0
 4542 106f 08       		.uleb128 0x8
 4543 1070 12060000 		.4byte	.LVL159
 4544 1074 331B0000 		.4byte	0x1b33
 4545 1078 88100000 		.4byte	0x1088
 4546 107c 09       		.uleb128 0x9
 4547 107d 01       		.uleb128 0x1
 4548 107e 50       		.byte	0x50
 4549 107f 01       		.uleb128 0x1
 4550 1080 30       		.byte	0x30
 4551 1081 09       		.uleb128 0x9
 4552 1082 01       		.uleb128 0x1
 4553 1083 51       		.byte	0x51
 4554 1084 02       		.uleb128 0x2
 4555 1085 74       		.byte	0x74
 4556 1086 00       		.sleb128 0
 4557 1087 00       		.byte	0
 4558 1088 08       		.uleb128 0x8
 4559 1089 2E060000 		.4byte	.LVL160
 4560 108d 071B0000 		.4byte	0x1b07
 4561 1091 B4100000 		.4byte	0x10b4
 4562 1095 09       		.uleb128 0x9
 4563 1096 01       		.uleb128 0x1
 4564 1097 51       		.byte	0x51
 4565 1098 02       		.uleb128 0x2
 4566 1099 75       		.byte	0x75
 4567 109a 00       		.sleb128 0
 4568 109b 09       		.uleb128 0x9
 4569 109c 01       		.uleb128 0x1
 4570 109d 52       		.byte	0x52
 4571 109e 01       		.uleb128 0x1
 4572 109f 34       		.byte	0x34
 4573 10a0 09       		.uleb128 0x9
 4574 10a1 01       		.uleb128 0x1
 4575 10a2 53       		.byte	0x53
 4576 10a3 01       		.uleb128 0x1
 4577 10a4 30       		.byte	0x30
 4578 10a5 09       		.uleb128 0x9
 4579 10a6 02       		.uleb128 0x2
 4580 10a7 7D       		.byte	0x7d
ARM GAS  C:\Users\Misha\AppData\Local\Temp\ccYm0xvZ.s 			page 101


 4581 10a8 00       		.sleb128 0
 4582 10a9 02       		.uleb128 0x2
 4583 10aa 74       		.byte	0x74
 4584 10ab 00       		.sleb128 0
 4585 10ac 09       		.uleb128 0x9
 4586 10ad 02       		.uleb128 0x2
 4587 10ae 7D       		.byte	0x7d
 4588 10af 04       		.sleb128 4
 4589 10b0 02       		.uleb128 0x2
 4590 10b1 75       		.byte	0x75
 4591 10b2 00       		.sleb128 0
 4592 10b3 00       		.byte	0
 4593 10b4 08       		.uleb128 0x8
 4594 10b5 34060000 		.4byte	.LVL161
 4595 10b9 FC1A0000 		.4byte	0x1afc
 4596 10bd C7100000 		.4byte	0x10c7
 4597 10c1 09       		.uleb128 0x9
 4598 10c2 01       		.uleb128 0x1
 4599 10c3 50       		.byte	0x50
 4600 10c4 01       		.uleb128 0x1
 4601 10c5 37       		.byte	0x37
 4602 10c6 00       		.byte	0
 4603 10c7 08       		.uleb128 0x8
 4604 10c8 3C060000 		.4byte	.LVL162
 4605 10cc 331B0000 		.4byte	0x1b33
 4606 10d0 E0100000 		.4byte	0x10e0
 4607 10d4 09       		.uleb128 0x9
 4608 10d5 01       		.uleb128 0x1
 4609 10d6 50       		.byte	0x50
 4610 10d7 01       		.uleb128 0x1
 4611 10d8 33       		.byte	0x33
 4612 10d9 09       		.uleb128 0x9
 4613 10da 01       		.uleb128 0x1
 4614 10db 51       		.byte	0x51
 4615 10dc 02       		.uleb128 0x2
 4616 10dd 74       		.byte	0x74
 4617 10de 00       		.sleb128 0
 4618 10df 00       		.byte	0
 4619 10e0 08       		.uleb128 0x8
 4620 10e1 A0060000 		.4byte	.LVL163
 4621 10e5 071B0000 		.4byte	0x1b07
 4622 10e9 10110000 		.4byte	0x1110
 4623 10ed 09       		.uleb128 0x9
 4624 10ee 01       		.uleb128 0x1
 4625 10ef 50       		.byte	0x50
 4626 10f0 01       		.uleb128 0x1
 4627 10f1 3A       		.byte	0x3a
 4628 10f2 09       		.uleb128 0x9
 4629 10f3 01       		.uleb128 0x1
 4630 10f4 51       		.byte	0x51
 4631 10f5 01       		.uleb128 0x1
 4632 10f6 30       		.byte	0x30
 4633 10f7 09       		.uleb128 0x9
 4634 10f8 01       		.uleb128 0x1
 4635 10f9 52       		.byte	0x52
 4636 10fa 01       		.uleb128 0x1
 4637 10fb 34       		.byte	0x34
ARM GAS  C:\Users\Misha\AppData\Local\Temp\ccYm0xvZ.s 			page 102


 4638 10fc 09       		.uleb128 0x9
 4639 10fd 01       		.uleb128 0x1
 4640 10fe 53       		.byte	0x53
 4641 10ff 01       		.uleb128 0x1
 4642 1100 34       		.byte	0x34
 4643 1101 09       		.uleb128 0x9
 4644 1102 02       		.uleb128 0x2
 4645 1103 7D       		.byte	0x7d
 4646 1104 00       		.sleb128 0
 4647 1105 02       		.uleb128 0x2
 4648 1106 75       		.byte	0x75
 4649 1107 00       		.sleb128 0
 4650 1108 09       		.uleb128 0x9
 4651 1109 02       		.uleb128 0x2
 4652 110a 7D       		.byte	0x7d
 4653 110b 04       		.sleb128 4
 4654 110c 02       		.uleb128 0x2
 4655 110d 74       		.byte	0x74
 4656 110e 00       		.sleb128 0
 4657 110f 00       		.byte	0
 4658 1110 08       		.uleb128 0x8
 4659 1111 A6060000 		.4byte	.LVL164
 4660 1115 FC1A0000 		.4byte	0x1afc
 4661 1119 23110000 		.4byte	0x1123
 4662 111d 09       		.uleb128 0x9
 4663 111e 01       		.uleb128 0x1
 4664 111f 50       		.byte	0x50
 4665 1120 01       		.uleb128 0x1
 4666 1121 37       		.byte	0x37
 4667 1122 00       		.byte	0
 4668 1123 08       		.uleb128 0x8
 4669 1124 AE060000 		.4byte	.LVL165
 4670 1128 331B0000 		.4byte	0x1b33
 4671 112c 3C110000 		.4byte	0x113c
 4672 1130 09       		.uleb128 0x9
 4673 1131 01       		.uleb128 0x1
 4674 1132 50       		.byte	0x50
 4675 1133 01       		.uleb128 0x1
 4676 1134 30       		.byte	0x30
 4677 1135 09       		.uleb128 0x9
 4678 1136 01       		.uleb128 0x1
 4679 1137 51       		.byte	0x51
 4680 1138 02       		.uleb128 0x2
 4681 1139 75       		.byte	0x75
 4682 113a 00       		.sleb128 0
 4683 113b 00       		.byte	0
 4684 113c 08       		.uleb128 0x8
 4685 113d B4060000 		.4byte	.LVL166
 4686 1141 FC1A0000 		.4byte	0x1afc
 4687 1145 4F110000 		.4byte	0x114f
 4688 1149 09       		.uleb128 0x9
 4689 114a 01       		.uleb128 0x1
 4690 114b 50       		.byte	0x50
 4691 114c 01       		.uleb128 0x1
 4692 114d 37       		.byte	0x37
 4693 114e 00       		.byte	0
 4694 114f 08       		.uleb128 0x8
ARM GAS  C:\Users\Misha\AppData\Local\Temp\ccYm0xvZ.s 			page 103


 4695 1150 D0060000 		.4byte	.LVL167
 4696 1154 071B0000 		.4byte	0x1b07
 4697 1158 7B110000 		.4byte	0x117b
 4698 115c 09       		.uleb128 0x9
 4699 115d 01       		.uleb128 0x1
 4700 115e 51       		.byte	0x51
 4701 115f 02       		.uleb128 0x2
 4702 1160 74       		.byte	0x74
 4703 1161 00       		.sleb128 0
 4704 1162 09       		.uleb128 0x9
 4705 1163 01       		.uleb128 0x1
 4706 1164 52       		.byte	0x52
 4707 1165 01       		.uleb128 0x1
 4708 1166 34       		.byte	0x34
 4709 1167 09       		.uleb128 0x9
 4710 1168 01       		.uleb128 0x1
 4711 1169 53       		.byte	0x53
 4712 116a 01       		.uleb128 0x1
 4713 116b 30       		.byte	0x30
 4714 116c 09       		.uleb128 0x9
 4715 116d 02       		.uleb128 0x2
 4716 116e 7D       		.byte	0x7d
 4717 116f 00       		.sleb128 0
 4718 1170 02       		.uleb128 0x2
 4719 1171 75       		.byte	0x75
 4720 1172 00       		.sleb128 0
 4721 1173 09       		.uleb128 0x9
 4722 1174 02       		.uleb128 0x2
 4723 1175 7D       		.byte	0x7d
 4724 1176 04       		.sleb128 4
 4725 1177 02       		.uleb128 0x2
 4726 1178 74       		.byte	0x74
 4727 1179 00       		.sleb128 0
 4728 117a 00       		.byte	0
 4729 117b 08       		.uleb128 0x8
 4730 117c D6060000 		.4byte	.LVL168
 4731 1180 FC1A0000 		.4byte	0x1afc
 4732 1184 8E110000 		.4byte	0x118e
 4733 1188 09       		.uleb128 0x9
 4734 1189 01       		.uleb128 0x1
 4735 118a 50       		.byte	0x50
 4736 118b 01       		.uleb128 0x1
 4737 118c 37       		.byte	0x37
 4738 118d 00       		.byte	0
 4739 118e 08       		.uleb128 0x8
 4740 118f DE060000 		.4byte	.LVL169
 4741 1193 331B0000 		.4byte	0x1b33
 4742 1197 A8110000 		.4byte	0x11a8
 4743 119b 09       		.uleb128 0x9
 4744 119c 01       		.uleb128 0x1
 4745 119d 50       		.byte	0x50
 4746 119e 02       		.uleb128 0x2
 4747 119f 74       		.byte	0x74
 4748 11a0 00       		.sleb128 0
 4749 11a1 09       		.uleb128 0x9
 4750 11a2 01       		.uleb128 0x1
 4751 11a3 51       		.byte	0x51
ARM GAS  C:\Users\Misha\AppData\Local\Temp\ccYm0xvZ.s 			page 104


 4752 11a4 02       		.uleb128 0x2
 4753 11a5 75       		.byte	0x75
 4754 11a6 00       		.sleb128 0
 4755 11a7 00       		.byte	0
 4756 11a8 08       		.uleb128 0x8
 4757 11a9 02070000 		.4byte	.LVL170
 4758 11ad 071B0000 		.4byte	0x1b07
 4759 11b1 D3110000 		.4byte	0x11d3
 4760 11b5 09       		.uleb128 0x9
 4761 11b6 01       		.uleb128 0x1
 4762 11b7 51       		.byte	0x51
 4763 11b8 01       		.uleb128 0x1
 4764 11b9 30       		.byte	0x30
 4765 11ba 09       		.uleb128 0x9
 4766 11bb 01       		.uleb128 0x1
 4767 11bc 52       		.byte	0x52
 4768 11bd 01       		.uleb128 0x1
 4769 11be 35       		.byte	0x35
 4770 11bf 09       		.uleb128 0x9
 4771 11c0 01       		.uleb128 0x1
 4772 11c1 53       		.byte	0x53
 4773 11c2 01       		.uleb128 0x1
 4774 11c3 30       		.byte	0x30
 4775 11c4 09       		.uleb128 0x9
 4776 11c5 02       		.uleb128 0x2
 4777 11c6 7D       		.byte	0x7d
 4778 11c7 00       		.sleb128 0
 4779 11c8 02       		.uleb128 0x2
 4780 11c9 75       		.byte	0x75
 4781 11ca 00       		.sleb128 0
 4782 11cb 09       		.uleb128 0x9
 4783 11cc 02       		.uleb128 0x2
 4784 11cd 7D       		.byte	0x7d
 4785 11ce 04       		.sleb128 4
 4786 11cf 02       		.uleb128 0x2
 4787 11d0 74       		.byte	0x74
 4788 11d1 00       		.sleb128 0
 4789 11d2 00       		.byte	0
 4790 11d3 08       		.uleb128 0x8
 4791 11d4 08070000 		.4byte	.LVL171
 4792 11d8 FC1A0000 		.4byte	0x1afc
 4793 11dc E6110000 		.4byte	0x11e6
 4794 11e0 09       		.uleb128 0x9
 4795 11e1 01       		.uleb128 0x1
 4796 11e2 50       		.byte	0x50
 4797 11e3 01       		.uleb128 0x1
 4798 11e4 37       		.byte	0x37
 4799 11e5 00       		.byte	0
 4800 11e6 08       		.uleb128 0x8
 4801 11e7 10070000 		.4byte	.LVL172
 4802 11eb 331B0000 		.4byte	0x1b33
 4803 11ef FF110000 		.4byte	0x11ff
 4804 11f3 09       		.uleb128 0x9
 4805 11f4 01       		.uleb128 0x1
 4806 11f5 50       		.byte	0x50
 4807 11f6 01       		.uleb128 0x1
 4808 11f7 30       		.byte	0x30
ARM GAS  C:\Users\Misha\AppData\Local\Temp\ccYm0xvZ.s 			page 105


 4809 11f8 09       		.uleb128 0x9
 4810 11f9 01       		.uleb128 0x1
 4811 11fa 51       		.byte	0x51
 4812 11fb 02       		.uleb128 0x2
 4813 11fc 75       		.byte	0x75
 4814 11fd 00       		.sleb128 0
 4815 11fe 00       		.byte	0
 4816 11ff 08       		.uleb128 0x8
 4817 1200 2A070000 		.4byte	.LVL173
 4818 1204 071B0000 		.4byte	0x1b07
 4819 1208 2B120000 		.4byte	0x122b
 4820 120c 09       		.uleb128 0x9
 4821 120d 01       		.uleb128 0x1
 4822 120e 51       		.byte	0x51
 4823 120f 02       		.uleb128 0x2
 4824 1210 74       		.byte	0x74
 4825 1211 00       		.sleb128 0
 4826 1212 09       		.uleb128 0x9
 4827 1213 01       		.uleb128 0x1
 4828 1214 52       		.byte	0x52
 4829 1215 01       		.uleb128 0x1
 4830 1216 34       		.byte	0x34
 4831 1217 09       		.uleb128 0x9
 4832 1218 01       		.uleb128 0x1
 4833 1219 53       		.byte	0x53
 4834 121a 01       		.uleb128 0x1
 4835 121b 30       		.byte	0x30
 4836 121c 09       		.uleb128 0x9
 4837 121d 02       		.uleb128 0x2
 4838 121e 7D       		.byte	0x7d
 4839 121f 00       		.sleb128 0
 4840 1220 02       		.uleb128 0x2
 4841 1221 75       		.byte	0x75
 4842 1222 00       		.sleb128 0
 4843 1223 09       		.uleb128 0x9
 4844 1224 02       		.uleb128 0x2
 4845 1225 7D       		.byte	0x7d
 4846 1226 04       		.sleb128 4
 4847 1227 02       		.uleb128 0x2
 4848 1228 74       		.byte	0x74
 4849 1229 00       		.sleb128 0
 4850 122a 00       		.byte	0
 4851 122b 08       		.uleb128 0x8
 4852 122c 30070000 		.4byte	.LVL174
 4853 1230 FC1A0000 		.4byte	0x1afc
 4854 1234 3E120000 		.4byte	0x123e
 4855 1238 09       		.uleb128 0x9
 4856 1239 01       		.uleb128 0x1
 4857 123a 50       		.byte	0x50
 4858 123b 01       		.uleb128 0x1
 4859 123c 37       		.byte	0x37
 4860 123d 00       		.byte	0
 4861 123e 08       		.uleb128 0x8
 4862 123f 38070000 		.4byte	.LVL175
 4863 1243 331B0000 		.4byte	0x1b33
 4864 1247 58120000 		.4byte	0x1258
 4865 124b 09       		.uleb128 0x9
ARM GAS  C:\Users\Misha\AppData\Local\Temp\ccYm0xvZ.s 			page 106


 4866 124c 01       		.uleb128 0x1
 4867 124d 50       		.byte	0x50
 4868 124e 02       		.uleb128 0x2
 4869 124f 74       		.byte	0x74
 4870 1250 00       		.sleb128 0
 4871 1251 09       		.uleb128 0x9
 4872 1252 01       		.uleb128 0x1
 4873 1253 51       		.byte	0x51
 4874 1254 02       		.uleb128 0x2
 4875 1255 75       		.byte	0x75
 4876 1256 00       		.sleb128 0
 4877 1257 00       		.byte	0
 4878 1258 08       		.uleb128 0x8
 4879 1259 5C070000 		.4byte	.LVL176
 4880 125d 071B0000 		.4byte	0x1b07
 4881 1261 83120000 		.4byte	0x1283
 4882 1265 09       		.uleb128 0x9
 4883 1266 01       		.uleb128 0x1
 4884 1267 51       		.byte	0x51
 4885 1268 01       		.uleb128 0x1
 4886 1269 30       		.byte	0x30
 4887 126a 09       		.uleb128 0x9
 4888 126b 01       		.uleb128 0x1
 4889 126c 52       		.byte	0x52
 4890 126d 01       		.uleb128 0x1
 4891 126e 35       		.byte	0x35
 4892 126f 09       		.uleb128 0x9
 4893 1270 01       		.uleb128 0x1
 4894 1271 53       		.byte	0x53
 4895 1272 01       		.uleb128 0x1
 4896 1273 30       		.byte	0x30
 4897 1274 09       		.uleb128 0x9
 4898 1275 02       		.uleb128 0x2
 4899 1276 7D       		.byte	0x7d
 4900 1277 00       		.sleb128 0
 4901 1278 02       		.uleb128 0x2
 4902 1279 74       		.byte	0x74
 4903 127a 00       		.sleb128 0
 4904 127b 09       		.uleb128 0x9
 4905 127c 02       		.uleb128 0x2
 4906 127d 7D       		.byte	0x7d
 4907 127e 04       		.sleb128 4
 4908 127f 02       		.uleb128 0x2
 4909 1280 75       		.byte	0x75
 4910 1281 00       		.sleb128 0
 4911 1282 00       		.byte	0
 4912 1283 08       		.uleb128 0x8
 4913 1284 62070000 		.4byte	.LVL177
 4914 1288 FC1A0000 		.4byte	0x1afc
 4915 128c 96120000 		.4byte	0x1296
 4916 1290 09       		.uleb128 0x9
 4917 1291 01       		.uleb128 0x1
 4918 1292 50       		.byte	0x50
 4919 1293 01       		.uleb128 0x1
 4920 1294 37       		.byte	0x37
 4921 1295 00       		.byte	0
 4922 1296 08       		.uleb128 0x8
ARM GAS  C:\Users\Misha\AppData\Local\Temp\ccYm0xvZ.s 			page 107


 4923 1297 6A070000 		.4byte	.LVL178
 4924 129b 331B0000 		.4byte	0x1b33
 4925 129f AF120000 		.4byte	0x12af
 4926 12a3 09       		.uleb128 0x9
 4927 12a4 01       		.uleb128 0x1
 4928 12a5 50       		.byte	0x50
 4929 12a6 01       		.uleb128 0x1
 4930 12a7 30       		.byte	0x30
 4931 12a8 09       		.uleb128 0x9
 4932 12a9 01       		.uleb128 0x1
 4933 12aa 51       		.byte	0x51
 4934 12ab 02       		.uleb128 0x2
 4935 12ac 74       		.byte	0x74
 4936 12ad 00       		.sleb128 0
 4937 12ae 00       		.byte	0
 4938 12af 08       		.uleb128 0x8
 4939 12b0 84070000 		.4byte	.LVL179
 4940 12b4 071B0000 		.4byte	0x1b07
 4941 12b8 DB120000 		.4byte	0x12db
 4942 12bc 09       		.uleb128 0x9
 4943 12bd 01       		.uleb128 0x1
 4944 12be 51       		.byte	0x51
 4945 12bf 02       		.uleb128 0x2
 4946 12c0 75       		.byte	0x75
 4947 12c1 00       		.sleb128 0
 4948 12c2 09       		.uleb128 0x9
 4949 12c3 01       		.uleb128 0x1
 4950 12c4 52       		.byte	0x52
 4951 12c5 01       		.uleb128 0x1
 4952 12c6 34       		.byte	0x34
 4953 12c7 09       		.uleb128 0x9
 4954 12c8 01       		.uleb128 0x1
 4955 12c9 53       		.byte	0x53
 4956 12ca 01       		.uleb128 0x1
 4957 12cb 30       		.byte	0x30
 4958 12cc 09       		.uleb128 0x9
 4959 12cd 02       		.uleb128 0x2
 4960 12ce 7D       		.byte	0x7d
 4961 12cf 00       		.sleb128 0
 4962 12d0 02       		.uleb128 0x2
 4963 12d1 74       		.byte	0x74
 4964 12d2 00       		.sleb128 0
 4965 12d3 09       		.uleb128 0x9
 4966 12d4 02       		.uleb128 0x2
 4967 12d5 7D       		.byte	0x7d
 4968 12d6 04       		.sleb128 4
 4969 12d7 02       		.uleb128 0x2
 4970 12d8 75       		.byte	0x75
 4971 12d9 00       		.sleb128 0
 4972 12da 00       		.byte	0
 4973 12db 08       		.uleb128 0x8
 4974 12dc 8A070000 		.4byte	.LVL180
 4975 12e0 FC1A0000 		.4byte	0x1afc
 4976 12e4 EE120000 		.4byte	0x12ee
 4977 12e8 09       		.uleb128 0x9
 4978 12e9 01       		.uleb128 0x1
 4979 12ea 50       		.byte	0x50
ARM GAS  C:\Users\Misha\AppData\Local\Temp\ccYm0xvZ.s 			page 108


 4980 12eb 01       		.uleb128 0x1
 4981 12ec 37       		.byte	0x37
 4982 12ed 00       		.byte	0
 4983 12ee 08       		.uleb128 0x8
 4984 12ef 92070000 		.4byte	.LVL181
 4985 12f3 331B0000 		.4byte	0x1b33
 4986 12f7 07130000 		.4byte	0x1307
 4987 12fb 09       		.uleb128 0x9
 4988 12fc 01       		.uleb128 0x1
 4989 12fd 50       		.byte	0x50
 4990 12fe 01       		.uleb128 0x1
 4991 12ff 33       		.byte	0x33
 4992 1300 09       		.uleb128 0x9
 4993 1301 01       		.uleb128 0x1
 4994 1302 51       		.byte	0x51
 4995 1303 02       		.uleb128 0x2
 4996 1304 74       		.byte	0x74
 4997 1305 00       		.sleb128 0
 4998 1306 00       		.byte	0
 4999 1307 08       		.uleb128 0x8
 5000 1308 00080000 		.4byte	.LVL189
 5001 130c 071B0000 		.4byte	0x1b07
 5002 1310 38130000 		.4byte	0x1338
 5003 1314 09       		.uleb128 0x9
 5004 1315 01       		.uleb128 0x1
 5005 1316 50       		.byte	0x50
 5006 1317 02       		.uleb128 0x2
 5007 1318 08       		.byte	0x8
 5008 1319 32       		.byte	0x32
 5009 131a 09       		.uleb128 0x9
 5010 131b 01       		.uleb128 0x1
 5011 131c 51       		.byte	0x51
 5012 131d 01       		.uleb128 0x1
 5013 131e 30       		.byte	0x30
 5014 131f 09       		.uleb128 0x9
 5015 1320 01       		.uleb128 0x1
 5016 1321 52       		.byte	0x52
 5017 1322 01       		.uleb128 0x1
 5018 1323 34       		.byte	0x34
 5019 1324 09       		.uleb128 0x9
 5020 1325 01       		.uleb128 0x1
 5021 1326 53       		.byte	0x53
 5022 1327 01       		.uleb128 0x1
 5023 1328 34       		.byte	0x34
 5024 1329 09       		.uleb128 0x9
 5025 132a 02       		.uleb128 0x2
 5026 132b 7D       		.byte	0x7d
 5027 132c 00       		.sleb128 0
 5028 132d 02       		.uleb128 0x2
 5029 132e 75       		.byte	0x75
 5030 132f 00       		.sleb128 0
 5031 1330 09       		.uleb128 0x9
 5032 1331 02       		.uleb128 0x2
 5033 1332 7D       		.byte	0x7d
 5034 1333 04       		.sleb128 4
 5035 1334 02       		.uleb128 0x2
 5036 1335 74       		.byte	0x74
ARM GAS  C:\Users\Misha\AppData\Local\Temp\ccYm0xvZ.s 			page 109


 5037 1336 00       		.sleb128 0
 5038 1337 00       		.byte	0
 5039 1338 08       		.uleb128 0x8
 5040 1339 08080000 		.4byte	.LVL190
 5041 133d 331B0000 		.4byte	0x1b33
 5042 1341 51130000 		.4byte	0x1351
 5043 1345 09       		.uleb128 0x9
 5044 1346 01       		.uleb128 0x1
 5045 1347 50       		.byte	0x50
 5046 1348 01       		.uleb128 0x1
 5047 1349 30       		.byte	0x30
 5048 134a 09       		.uleb128 0x9
 5049 134b 01       		.uleb128 0x1
 5050 134c 51       		.byte	0x51
 5051 134d 02       		.uleb128 0x2
 5052 134e 75       		.byte	0x75
 5053 134f 00       		.sleb128 0
 5054 1350 00       		.byte	0
 5055 1351 08       		.uleb128 0x8
 5056 1352 0E080000 		.4byte	.LVL191
 5057 1356 FC1A0000 		.4byte	0x1afc
 5058 135a 64130000 		.4byte	0x1364
 5059 135e 09       		.uleb128 0x9
 5060 135f 01       		.uleb128 0x1
 5061 1360 50       		.byte	0x50
 5062 1361 01       		.uleb128 0x1
 5063 1362 37       		.byte	0x37
 5064 1363 00       		.byte	0
 5065 1364 08       		.uleb128 0x8
 5066 1365 1E080000 		.4byte	.LVL192
 5067 1369 071B0000 		.4byte	0x1b07
 5068 136d 95130000 		.4byte	0x1395
 5069 1371 09       		.uleb128 0x9
 5070 1372 01       		.uleb128 0x1
 5071 1373 50       		.byte	0x50
 5072 1374 02       		.uleb128 0x2
 5073 1375 08       		.byte	0x8
 5074 1376 64       		.byte	0x64
 5075 1377 09       		.uleb128 0x9
 5076 1378 01       		.uleb128 0x1
 5077 1379 51       		.byte	0x51
 5078 137a 01       		.uleb128 0x1
 5079 137b 30       		.byte	0x30
 5080 137c 09       		.uleb128 0x9
 5081 137d 01       		.uleb128 0x1
 5082 137e 52       		.byte	0x52
 5083 137f 01       		.uleb128 0x1
 5084 1380 34       		.byte	0x34
 5085 1381 09       		.uleb128 0x9
 5086 1382 01       		.uleb128 0x1
 5087 1383 53       		.byte	0x53
 5088 1384 01       		.uleb128 0x1
 5089 1385 34       		.byte	0x34
 5090 1386 09       		.uleb128 0x9
 5091 1387 02       		.uleb128 0x2
 5092 1388 7D       		.byte	0x7d
 5093 1389 00       		.sleb128 0
ARM GAS  C:\Users\Misha\AppData\Local\Temp\ccYm0xvZ.s 			page 110


 5094 138a 02       		.uleb128 0x2
 5095 138b 75       		.byte	0x75
 5096 138c 00       		.sleb128 0
 5097 138d 09       		.uleb128 0x9
 5098 138e 02       		.uleb128 0x2
 5099 138f 7D       		.byte	0x7d
 5100 1390 04       		.sleb128 4
 5101 1391 02       		.uleb128 0x2
 5102 1392 74       		.byte	0x74
 5103 1393 00       		.sleb128 0
 5104 1394 00       		.byte	0
 5105 1395 08       		.uleb128 0x8
 5106 1396 26080000 		.4byte	.LVL193
 5107 139a 331B0000 		.4byte	0x1b33
 5108 139e AF130000 		.4byte	0x13af
 5109 13a2 09       		.uleb128 0x9
 5110 13a3 01       		.uleb128 0x1
 5111 13a4 50       		.byte	0x50
 5112 13a5 02       		.uleb128 0x2
 5113 13a6 74       		.byte	0x74
 5114 13a7 00       		.sleb128 0
 5115 13a8 09       		.uleb128 0x9
 5116 13a9 01       		.uleb128 0x1
 5117 13aa 51       		.byte	0x51
 5118 13ab 02       		.uleb128 0x2
 5119 13ac 75       		.byte	0x75
 5120 13ad 00       		.sleb128 0
 5121 13ae 00       		.byte	0
 5122 13af 08       		.uleb128 0x8
 5123 13b0 2C080000 		.4byte	.LVL194
 5124 13b4 FC1A0000 		.4byte	0x1afc
 5125 13b8 C2130000 		.4byte	0x13c2
 5126 13bc 09       		.uleb128 0x9
 5127 13bd 01       		.uleb128 0x1
 5128 13be 50       		.byte	0x50
 5129 13bf 01       		.uleb128 0x1
 5130 13c0 37       		.byte	0x37
 5131 13c1 00       		.byte	0
 5132 13c2 08       		.uleb128 0x8
 5133 13c3 3C080000 		.4byte	.LVL195
 5134 13c7 071B0000 		.4byte	0x1b07
 5135 13cb F4130000 		.4byte	0x13f4
 5136 13cf 09       		.uleb128 0x9
 5137 13d0 01       		.uleb128 0x1
 5138 13d1 50       		.byte	0x50
 5139 13d2 02       		.uleb128 0x2
 5140 13d3 08       		.byte	0x8
 5141 13d4 AF       		.byte	0xaf
 5142 13d5 09       		.uleb128 0x9
 5143 13d6 01       		.uleb128 0x1
 5144 13d7 51       		.byte	0x51
 5145 13d8 02       		.uleb128 0x2
 5146 13d9 74       		.byte	0x74
 5147 13da 00       		.sleb128 0
 5148 13db 09       		.uleb128 0x9
 5149 13dc 01       		.uleb128 0x1
 5150 13dd 52       		.byte	0x52
ARM GAS  C:\Users\Misha\AppData\Local\Temp\ccYm0xvZ.s 			page 111


 5151 13de 01       		.uleb128 0x1
 5152 13df 34       		.byte	0x34
 5153 13e0 09       		.uleb128 0x9
 5154 13e1 01       		.uleb128 0x1
 5155 13e2 53       		.byte	0x53
 5156 13e3 01       		.uleb128 0x1
 5157 13e4 30       		.byte	0x30
 5158 13e5 09       		.uleb128 0x9
 5159 13e6 02       		.uleb128 0x2
 5160 13e7 7D       		.byte	0x7d
 5161 13e8 00       		.sleb128 0
 5162 13e9 02       		.uleb128 0x2
 5163 13ea 75       		.byte	0x75
 5164 13eb 00       		.sleb128 0
 5165 13ec 09       		.uleb128 0x9
 5166 13ed 02       		.uleb128 0x2
 5167 13ee 7D       		.byte	0x7d
 5168 13ef 04       		.sleb128 4
 5169 13f0 02       		.uleb128 0x2
 5170 13f1 74       		.byte	0x74
 5171 13f2 00       		.sleb128 0
 5172 13f3 00       		.byte	0
 5173 13f4 08       		.uleb128 0x8
 5174 13f5 42080000 		.4byte	.LVL196
 5175 13f9 FC1A0000 		.4byte	0x1afc
 5176 13fd 07140000 		.4byte	0x1407
 5177 1401 09       		.uleb128 0x9
 5178 1402 01       		.uleb128 0x1
 5179 1403 50       		.byte	0x50
 5180 1404 01       		.uleb128 0x1
 5181 1405 37       		.byte	0x37
 5182 1406 00       		.byte	0
 5183 1407 08       		.uleb128 0x8
 5184 1408 68080000 		.4byte	.LVL197
 5185 140c 071B0000 		.4byte	0x1b07
 5186 1410 37140000 		.4byte	0x1437
 5187 1414 09       		.uleb128 0x9
 5188 1415 01       		.uleb128 0x1
 5189 1416 50       		.byte	0x50
 5190 1417 01       		.uleb128 0x1
 5191 1418 3A       		.byte	0x3a
 5192 1419 09       		.uleb128 0x9
 5193 141a 01       		.uleb128 0x1
 5194 141b 51       		.byte	0x51
 5195 141c 01       		.uleb128 0x1
 5196 141d 30       		.byte	0x30
 5197 141e 09       		.uleb128 0x9
 5198 141f 01       		.uleb128 0x1
 5199 1420 52       		.byte	0x52
 5200 1421 01       		.uleb128 0x1
 5201 1422 34       		.byte	0x34
 5202 1423 09       		.uleb128 0x9
 5203 1424 01       		.uleb128 0x1
 5204 1425 53       		.byte	0x53
 5205 1426 01       		.uleb128 0x1
 5206 1427 34       		.byte	0x34
 5207 1428 09       		.uleb128 0x9
ARM GAS  C:\Users\Misha\AppData\Local\Temp\ccYm0xvZ.s 			page 112


 5208 1429 02       		.uleb128 0x2
 5209 142a 7D       		.byte	0x7d
 5210 142b 00       		.sleb128 0
 5211 142c 02       		.uleb128 0x2
 5212 142d 75       		.byte	0x75
 5213 142e 00       		.sleb128 0
 5214 142f 09       		.uleb128 0x9
 5215 1430 02       		.uleb128 0x2
 5216 1431 7D       		.byte	0x7d
 5217 1432 04       		.sleb128 4
 5218 1433 02       		.uleb128 0x2
 5219 1434 74       		.byte	0x74
 5220 1435 00       		.sleb128 0
 5221 1436 00       		.byte	0
 5222 1437 08       		.uleb128 0x8
 5223 1438 70080000 		.4byte	.LVL198
 5224 143c 331B0000 		.4byte	0x1b33
 5225 1440 50140000 		.4byte	0x1450
 5226 1444 09       		.uleb128 0x9
 5227 1445 01       		.uleb128 0x1
 5228 1446 50       		.byte	0x50
 5229 1447 01       		.uleb128 0x1
 5230 1448 30       		.byte	0x30
 5231 1449 09       		.uleb128 0x9
 5232 144a 01       		.uleb128 0x1
 5233 144b 51       		.byte	0x51
 5234 144c 02       		.uleb128 0x2
 5235 144d 75       		.byte	0x75
 5236 144e 00       		.sleb128 0
 5237 144f 00       		.byte	0
 5238 1450 08       		.uleb128 0x8
 5239 1451 76080000 		.4byte	.LVL199
 5240 1455 FC1A0000 		.4byte	0x1afc
 5241 1459 63140000 		.4byte	0x1463
 5242 145d 09       		.uleb128 0x9
 5243 145e 01       		.uleb128 0x1
 5244 145f 50       		.byte	0x50
 5245 1460 01       		.uleb128 0x1
 5246 1461 37       		.byte	0x37
 5247 1462 00       		.byte	0
 5248 1463 08       		.uleb128 0x8
 5249 1464 86080000 		.4byte	.LVL200
 5250 1468 071B0000 		.4byte	0x1b07
 5251 146c 94140000 		.4byte	0x1494
 5252 1470 09       		.uleb128 0x9
 5253 1471 01       		.uleb128 0x1
 5254 1472 50       		.byte	0x50
 5255 1473 02       		.uleb128 0x2
 5256 1474 08       		.byte	0x8
 5257 1475 64       		.byte	0x64
 5258 1476 09       		.uleb128 0x9
 5259 1477 01       		.uleb128 0x1
 5260 1478 51       		.byte	0x51
 5261 1479 01       		.uleb128 0x1
 5262 147a 30       		.byte	0x30
 5263 147b 09       		.uleb128 0x9
 5264 147c 01       		.uleb128 0x1
ARM GAS  C:\Users\Misha\AppData\Local\Temp\ccYm0xvZ.s 			page 113


 5265 147d 52       		.byte	0x52
 5266 147e 01       		.uleb128 0x1
 5267 147f 34       		.byte	0x34
 5268 1480 09       		.uleb128 0x9
 5269 1481 01       		.uleb128 0x1
 5270 1482 53       		.byte	0x53
 5271 1483 01       		.uleb128 0x1
 5272 1484 34       		.byte	0x34
 5273 1485 09       		.uleb128 0x9
 5274 1486 02       		.uleb128 0x2
 5275 1487 7D       		.byte	0x7d
 5276 1488 00       		.sleb128 0
 5277 1489 02       		.uleb128 0x2
 5278 148a 75       		.byte	0x75
 5279 148b 00       		.sleb128 0
 5280 148c 09       		.uleb128 0x9
 5281 148d 02       		.uleb128 0x2
 5282 148e 7D       		.byte	0x7d
 5283 148f 04       		.sleb128 4
 5284 1490 02       		.uleb128 0x2
 5285 1491 74       		.byte	0x74
 5286 1492 00       		.sleb128 0
 5287 1493 00       		.byte	0
 5288 1494 08       		.uleb128 0x8
 5289 1495 8E080000 		.4byte	.LVL201
 5290 1499 331B0000 		.4byte	0x1b33
 5291 149d AE140000 		.4byte	0x14ae
 5292 14a1 09       		.uleb128 0x9
 5293 14a2 01       		.uleb128 0x1
 5294 14a3 50       		.byte	0x50
 5295 14a4 02       		.uleb128 0x2
 5296 14a5 74       		.byte	0x74
 5297 14a6 00       		.sleb128 0
 5298 14a7 09       		.uleb128 0x9
 5299 14a8 01       		.uleb128 0x1
 5300 14a9 51       		.byte	0x51
 5301 14aa 02       		.uleb128 0x2
 5302 14ab 75       		.byte	0x75
 5303 14ac 00       		.sleb128 0
 5304 14ad 00       		.byte	0
 5305 14ae 08       		.uleb128 0x8
 5306 14af 94080000 		.4byte	.LVL202
 5307 14b3 FC1A0000 		.4byte	0x1afc
 5308 14b7 C1140000 		.4byte	0x14c1
 5309 14bb 09       		.uleb128 0x9
 5310 14bc 01       		.uleb128 0x1
 5311 14bd 50       		.byte	0x50
 5312 14be 01       		.uleb128 0x1
 5313 14bf 37       		.byte	0x37
 5314 14c0 00       		.byte	0
 5315 14c1 08       		.uleb128 0x8
 5316 14c2 A4080000 		.4byte	.LVL203
 5317 14c6 071B0000 		.4byte	0x1b07
 5318 14ca F3140000 		.4byte	0x14f3
 5319 14ce 09       		.uleb128 0x9
 5320 14cf 01       		.uleb128 0x1
 5321 14d0 50       		.byte	0x50
ARM GAS  C:\Users\Misha\AppData\Local\Temp\ccYm0xvZ.s 			page 114


 5322 14d1 02       		.uleb128 0x2
 5323 14d2 08       		.byte	0x8
 5324 14d3 AF       		.byte	0xaf
 5325 14d4 09       		.uleb128 0x9
 5326 14d5 01       		.uleb128 0x1
 5327 14d6 51       		.byte	0x51
 5328 14d7 02       		.uleb128 0x2
 5329 14d8 74       		.byte	0x74
 5330 14d9 00       		.sleb128 0
 5331 14da 09       		.uleb128 0x9
 5332 14db 01       		.uleb128 0x1
 5333 14dc 52       		.byte	0x52
 5334 14dd 01       		.uleb128 0x1
 5335 14de 34       		.byte	0x34
 5336 14df 09       		.uleb128 0x9
 5337 14e0 01       		.uleb128 0x1
 5338 14e1 53       		.byte	0x53
 5339 14e2 01       		.uleb128 0x1
 5340 14e3 30       		.byte	0x30
 5341 14e4 09       		.uleb128 0x9
 5342 14e5 02       		.uleb128 0x2
 5343 14e6 7D       		.byte	0x7d
 5344 14e7 00       		.sleb128 0
 5345 14e8 02       		.uleb128 0x2
 5346 14e9 75       		.byte	0x75
 5347 14ea 00       		.sleb128 0
 5348 14eb 09       		.uleb128 0x9
 5349 14ec 02       		.uleb128 0x2
 5350 14ed 7D       		.byte	0x7d
 5351 14ee 04       		.sleb128 4
 5352 14ef 02       		.uleb128 0x2
 5353 14f0 74       		.byte	0x74
 5354 14f1 00       		.sleb128 0
 5355 14f2 00       		.byte	0
 5356 14f3 08       		.uleb128 0x8
 5357 14f4 AA080000 		.4byte	.LVL204
 5358 14f8 FC1A0000 		.4byte	0x1afc
 5359 14fc 06150000 		.4byte	0x1506
 5360 1500 09       		.uleb128 0x9
 5361 1501 01       		.uleb128 0x1
 5362 1502 50       		.byte	0x50
 5363 1503 01       		.uleb128 0x1
 5364 1504 37       		.byte	0x37
 5365 1505 00       		.byte	0
 5366 1506 08       		.uleb128 0x8
 5367 1507 D2080000 		.4byte	.LVL205
 5368 150b 071B0000 		.4byte	0x1b07
 5369 150f 31150000 		.4byte	0x1531
 5370 1513 09       		.uleb128 0x9
 5371 1514 01       		.uleb128 0x1
 5372 1515 51       		.byte	0x51
 5373 1516 01       		.uleb128 0x1
 5374 1517 30       		.byte	0x30
 5375 1518 09       		.uleb128 0x9
 5376 1519 01       		.uleb128 0x1
 5377 151a 52       		.byte	0x52
 5378 151b 01       		.uleb128 0x1
ARM GAS  C:\Users\Misha\AppData\Local\Temp\ccYm0xvZ.s 			page 115


 5379 151c 34       		.byte	0x34
 5380 151d 09       		.uleb128 0x9
 5381 151e 01       		.uleb128 0x1
 5382 151f 53       		.byte	0x53
 5383 1520 01       		.uleb128 0x1
 5384 1521 34       		.byte	0x34
 5385 1522 09       		.uleb128 0x9
 5386 1523 02       		.uleb128 0x2
 5387 1524 7D       		.byte	0x7d
 5388 1525 00       		.sleb128 0
 5389 1526 02       		.uleb128 0x2
 5390 1527 75       		.byte	0x75
 5391 1528 00       		.sleb128 0
 5392 1529 09       		.uleb128 0x9
 5393 152a 02       		.uleb128 0x2
 5394 152b 7D       		.byte	0x7d
 5395 152c 04       		.sleb128 4
 5396 152d 02       		.uleb128 0x2
 5397 152e 74       		.byte	0x74
 5398 152f 00       		.sleb128 0
 5399 1530 00       		.byte	0
 5400 1531 08       		.uleb128 0x8
 5401 1532 DA080000 		.4byte	.LVL206
 5402 1536 331B0000 		.4byte	0x1b33
 5403 153a 4A150000 		.4byte	0x154a
 5404 153e 09       		.uleb128 0x9
 5405 153f 01       		.uleb128 0x1
 5406 1540 50       		.byte	0x50
 5407 1541 01       		.uleb128 0x1
 5408 1542 30       		.byte	0x30
 5409 1543 09       		.uleb128 0x9
 5410 1544 01       		.uleb128 0x1
 5411 1545 51       		.byte	0x51
 5412 1546 02       		.uleb128 0x2
 5413 1547 75       		.byte	0x75
 5414 1548 00       		.sleb128 0
 5415 1549 00       		.byte	0
 5416 154a 08       		.uleb128 0x8
 5417 154b E0080000 		.4byte	.LVL207
 5418 154f FC1A0000 		.4byte	0x1afc
 5419 1553 5D150000 		.4byte	0x155d
 5420 1557 09       		.uleb128 0x9
 5421 1558 01       		.uleb128 0x1
 5422 1559 50       		.byte	0x50
 5423 155a 01       		.uleb128 0x1
 5424 155b 37       		.byte	0x37
 5425 155c 00       		.byte	0
 5426 155d 08       		.uleb128 0x8
 5427 155e F0080000 		.4byte	.LVL208
 5428 1562 071B0000 		.4byte	0x1b07
 5429 1566 8E150000 		.4byte	0x158e
 5430 156a 09       		.uleb128 0x9
 5431 156b 01       		.uleb128 0x1
 5432 156c 50       		.byte	0x50
 5433 156d 02       		.uleb128 0x2
 5434 156e 08       		.byte	0x8
 5435 156f 64       		.byte	0x64
ARM GAS  C:\Users\Misha\AppData\Local\Temp\ccYm0xvZ.s 			page 116


 5436 1570 09       		.uleb128 0x9
 5437 1571 01       		.uleb128 0x1
 5438 1572 51       		.byte	0x51
 5439 1573 01       		.uleb128 0x1
 5440 1574 30       		.byte	0x30
 5441 1575 09       		.uleb128 0x9
 5442 1576 01       		.uleb128 0x1
 5443 1577 52       		.byte	0x52
 5444 1578 01       		.uleb128 0x1
 5445 1579 34       		.byte	0x34
 5446 157a 09       		.uleb128 0x9
 5447 157b 01       		.uleb128 0x1
 5448 157c 53       		.byte	0x53
 5449 157d 01       		.uleb128 0x1
 5450 157e 34       		.byte	0x34
 5451 157f 09       		.uleb128 0x9
 5452 1580 02       		.uleb128 0x2
 5453 1581 7D       		.byte	0x7d
 5454 1582 00       		.sleb128 0
 5455 1583 02       		.uleb128 0x2
 5456 1584 75       		.byte	0x75
 5457 1585 00       		.sleb128 0
 5458 1586 09       		.uleb128 0x9
 5459 1587 02       		.uleb128 0x2
 5460 1588 7D       		.byte	0x7d
 5461 1589 04       		.sleb128 4
 5462 158a 02       		.uleb128 0x2
 5463 158b 74       		.byte	0x74
 5464 158c 00       		.sleb128 0
 5465 158d 00       		.byte	0
 5466 158e 08       		.uleb128 0x8
 5467 158f F8080000 		.4byte	.LVL209
 5468 1593 331B0000 		.4byte	0x1b33
 5469 1597 A8150000 		.4byte	0x15a8
 5470 159b 09       		.uleb128 0x9
 5471 159c 01       		.uleb128 0x1
 5472 159d 50       		.byte	0x50
 5473 159e 02       		.uleb128 0x2
 5474 159f 74       		.byte	0x74
 5475 15a0 00       		.sleb128 0
 5476 15a1 09       		.uleb128 0x9
 5477 15a2 01       		.uleb128 0x1
 5478 15a3 51       		.byte	0x51
 5479 15a4 02       		.uleb128 0x2
 5480 15a5 75       		.byte	0x75
 5481 15a6 00       		.sleb128 0
 5482 15a7 00       		.byte	0
 5483 15a8 08       		.uleb128 0x8
 5484 15a9 08090000 		.4byte	.LVL210
 5485 15ad 071B0000 		.4byte	0x1b07
 5486 15b1 DA150000 		.4byte	0x15da
 5487 15b5 09       		.uleb128 0x9
 5488 15b6 01       		.uleb128 0x1
 5489 15b7 50       		.byte	0x50
 5490 15b8 02       		.uleb128 0x2
 5491 15b9 08       		.byte	0x8
 5492 15ba AF       		.byte	0xaf
ARM GAS  C:\Users\Misha\AppData\Local\Temp\ccYm0xvZ.s 			page 117


 5493 15bb 09       		.uleb128 0x9
 5494 15bc 01       		.uleb128 0x1
 5495 15bd 51       		.byte	0x51
 5496 15be 02       		.uleb128 0x2
 5497 15bf 74       		.byte	0x74
 5498 15c0 00       		.sleb128 0
 5499 15c1 09       		.uleb128 0x9
 5500 15c2 01       		.uleb128 0x1
 5501 15c3 52       		.byte	0x52
 5502 15c4 01       		.uleb128 0x1
 5503 15c5 34       		.byte	0x34
 5504 15c6 09       		.uleb128 0x9
 5505 15c7 01       		.uleb128 0x1
 5506 15c8 53       		.byte	0x53
 5507 15c9 01       		.uleb128 0x1
 5508 15ca 30       		.byte	0x30
 5509 15cb 09       		.uleb128 0x9
 5510 15cc 02       		.uleb128 0x2
 5511 15cd 7D       		.byte	0x7d
 5512 15ce 00       		.sleb128 0
 5513 15cf 02       		.uleb128 0x2
 5514 15d0 75       		.byte	0x75
 5515 15d1 00       		.sleb128 0
 5516 15d2 09       		.uleb128 0x9
 5517 15d3 02       		.uleb128 0x2
 5518 15d4 7D       		.byte	0x7d
 5519 15d5 04       		.sleb128 4
 5520 15d6 02       		.uleb128 0x2
 5521 15d7 74       		.byte	0x74
 5522 15d8 00       		.sleb128 0
 5523 15d9 00       		.byte	0
 5524 15da 08       		.uleb128 0x8
 5525 15db 36090000 		.4byte	.LVL211
 5526 15df 071B0000 		.4byte	0x1b07
 5527 15e3 05160000 		.4byte	0x1605
 5528 15e7 09       		.uleb128 0x9
 5529 15e8 01       		.uleb128 0x1
 5530 15e9 51       		.byte	0x51
 5531 15ea 01       		.uleb128 0x1
 5532 15eb 30       		.byte	0x30
 5533 15ec 09       		.uleb128 0x9
 5534 15ed 01       		.uleb128 0x1
 5535 15ee 52       		.byte	0x52
 5536 15ef 01       		.uleb128 0x1
 5537 15f0 35       		.byte	0x35
 5538 15f1 09       		.uleb128 0x9
 5539 15f2 01       		.uleb128 0x1
 5540 15f3 53       		.byte	0x53
 5541 15f4 01       		.uleb128 0x1
 5542 15f5 30       		.byte	0x30
 5543 15f6 09       		.uleb128 0x9
 5544 15f7 02       		.uleb128 0x2
 5545 15f8 7D       		.byte	0x7d
 5546 15f9 00       		.sleb128 0
 5547 15fa 02       		.uleb128 0x2
 5548 15fb 75       		.byte	0x75
 5549 15fc 00       		.sleb128 0
ARM GAS  C:\Users\Misha\AppData\Local\Temp\ccYm0xvZ.s 			page 118


 5550 15fd 09       		.uleb128 0x9
 5551 15fe 02       		.uleb128 0x2
 5552 15ff 7D       		.byte	0x7d
 5553 1600 04       		.sleb128 4
 5554 1601 02       		.uleb128 0x2
 5555 1602 74       		.byte	0x74
 5556 1603 00       		.sleb128 0
 5557 1604 00       		.byte	0
 5558 1605 08       		.uleb128 0x8
 5559 1606 3E090000 		.4byte	.LVL212
 5560 160a 331B0000 		.4byte	0x1b33
 5561 160e 1E160000 		.4byte	0x161e
 5562 1612 09       		.uleb128 0x9
 5563 1613 01       		.uleb128 0x1
 5564 1614 50       		.byte	0x50
 5565 1615 01       		.uleb128 0x1
 5566 1616 30       		.byte	0x30
 5567 1617 09       		.uleb128 0x9
 5568 1618 01       		.uleb128 0x1
 5569 1619 51       		.byte	0x51
 5570 161a 02       		.uleb128 0x2
 5571 161b 75       		.byte	0x75
 5572 161c 00       		.sleb128 0
 5573 161d 00       		.byte	0
 5574 161e 08       		.uleb128 0x8
 5575 161f 44090000 		.4byte	.LVL213
 5576 1623 FC1A0000 		.4byte	0x1afc
 5577 1627 31160000 		.4byte	0x1631
 5578 162b 09       		.uleb128 0x9
 5579 162c 01       		.uleb128 0x1
 5580 162d 50       		.byte	0x50
 5581 162e 01       		.uleb128 0x1
 5582 162f 37       		.byte	0x37
 5583 1630 00       		.byte	0
 5584 1631 08       		.uleb128 0x8
 5585 1632 54090000 		.4byte	.LVL214
 5586 1636 071B0000 		.4byte	0x1b07
 5587 163a 62160000 		.4byte	0x1662
 5588 163e 09       		.uleb128 0x9
 5589 163f 01       		.uleb128 0x1
 5590 1640 50       		.byte	0x50
 5591 1641 02       		.uleb128 0x2
 5592 1642 08       		.byte	0x8
 5593 1643 64       		.byte	0x64
 5594 1644 09       		.uleb128 0x9
 5595 1645 01       		.uleb128 0x1
 5596 1646 51       		.byte	0x51
 5597 1647 01       		.uleb128 0x1
 5598 1648 30       		.byte	0x30
 5599 1649 09       		.uleb128 0x9
 5600 164a 01       		.uleb128 0x1
 5601 164b 52       		.byte	0x52
 5602 164c 01       		.uleb128 0x1
 5603 164d 34       		.byte	0x34
 5604 164e 09       		.uleb128 0x9
 5605 164f 01       		.uleb128 0x1
 5606 1650 53       		.byte	0x53
ARM GAS  C:\Users\Misha\AppData\Local\Temp\ccYm0xvZ.s 			page 119


 5607 1651 01       		.uleb128 0x1
 5608 1652 34       		.byte	0x34
 5609 1653 09       		.uleb128 0x9
 5610 1654 02       		.uleb128 0x2
 5611 1655 7D       		.byte	0x7d
 5612 1656 00       		.sleb128 0
 5613 1657 02       		.uleb128 0x2
 5614 1658 75       		.byte	0x75
 5615 1659 00       		.sleb128 0
 5616 165a 09       		.uleb128 0x9
 5617 165b 02       		.uleb128 0x2
 5618 165c 7D       		.byte	0x7d
 5619 165d 04       		.sleb128 4
 5620 165e 02       		.uleb128 0x2
 5621 165f 74       		.byte	0x74
 5622 1660 00       		.sleb128 0
 5623 1661 00       		.byte	0
 5624 1662 08       		.uleb128 0x8
 5625 1663 5C090000 		.4byte	.LVL215
 5626 1667 331B0000 		.4byte	0x1b33
 5627 166b 7C160000 		.4byte	0x167c
 5628 166f 09       		.uleb128 0x9
 5629 1670 01       		.uleb128 0x1
 5630 1671 50       		.byte	0x50
 5631 1672 02       		.uleb128 0x2
 5632 1673 74       		.byte	0x74
 5633 1674 00       		.sleb128 0
 5634 1675 09       		.uleb128 0x9
 5635 1676 01       		.uleb128 0x1
 5636 1677 51       		.byte	0x51
 5637 1678 02       		.uleb128 0x2
 5638 1679 75       		.byte	0x75
 5639 167a 00       		.sleb128 0
 5640 167b 00       		.byte	0
 5641 167c 08       		.uleb128 0x8
 5642 167d 6C090000 		.4byte	.LVL216
 5643 1681 071B0000 		.4byte	0x1b07
 5644 1685 AE160000 		.4byte	0x16ae
 5645 1689 09       		.uleb128 0x9
 5646 168a 01       		.uleb128 0x1
 5647 168b 50       		.byte	0x50
 5648 168c 02       		.uleb128 0x2
 5649 168d 08       		.byte	0x8
 5650 168e AF       		.byte	0xaf
 5651 168f 09       		.uleb128 0x9
 5652 1690 01       		.uleb128 0x1
 5653 1691 51       		.byte	0x51
 5654 1692 02       		.uleb128 0x2
 5655 1693 74       		.byte	0x74
 5656 1694 00       		.sleb128 0
 5657 1695 09       		.uleb128 0x9
 5658 1696 01       		.uleb128 0x1
 5659 1697 52       		.byte	0x52
 5660 1698 01       		.uleb128 0x1
 5661 1699 34       		.byte	0x34
 5662 169a 09       		.uleb128 0x9
 5663 169b 01       		.uleb128 0x1
ARM GAS  C:\Users\Misha\AppData\Local\Temp\ccYm0xvZ.s 			page 120


 5664 169c 53       		.byte	0x53
 5665 169d 01       		.uleb128 0x1
 5666 169e 30       		.byte	0x30
 5667 169f 09       		.uleb128 0x9
 5668 16a0 02       		.uleb128 0x2
 5669 16a1 7D       		.byte	0x7d
 5670 16a2 00       		.sleb128 0
 5671 16a3 02       		.uleb128 0x2
 5672 16a4 75       		.byte	0x75
 5673 16a5 00       		.sleb128 0
 5674 16a6 09       		.uleb128 0x9
 5675 16a7 02       		.uleb128 0x2
 5676 16a8 7D       		.byte	0x7d
 5677 16a9 04       		.sleb128 4
 5678 16aa 02       		.uleb128 0x2
 5679 16ab 74       		.byte	0x74
 5680 16ac 00       		.sleb128 0
 5681 16ad 00       		.byte	0
 5682 16ae 08       		.uleb128 0x8
 5683 16af CE0A0000 		.4byte	.LVL243
 5684 16b3 071B0000 		.4byte	0x1b07
 5685 16b7 E1160000 		.4byte	0x16e1
 5686 16bb 09       		.uleb128 0x9
 5687 16bc 01       		.uleb128 0x1
 5688 16bd 50       		.byte	0x50
 5689 16be 02       		.uleb128 0x2
 5690 16bf 08       		.byte	0x8
 5691 16c0 D2       		.byte	0xd2
 5692 16c1 09       		.uleb128 0x9
 5693 16c2 01       		.uleb128 0x1
 5694 16c3 51       		.byte	0x51
 5695 16c4 02       		.uleb128 0x2
 5696 16c5 74       		.byte	0x74
 5697 16c6 00       		.sleb128 0
 5698 16c7 09       		.uleb128 0x9
 5699 16c8 01       		.uleb128 0x1
 5700 16c9 52       		.byte	0x52
 5701 16ca 01       		.uleb128 0x1
 5702 16cb 35       		.byte	0x35
 5703 16cc 09       		.uleb128 0x9
 5704 16cd 01       		.uleb128 0x1
 5705 16ce 53       		.byte	0x53
 5706 16cf 02       		.uleb128 0x2
 5707 16d0 74       		.byte	0x74
 5708 16d1 00       		.sleb128 0
 5709 16d2 09       		.uleb128 0x9
 5710 16d3 02       		.uleb128 0x2
 5711 16d4 7D       		.byte	0x7d
 5712 16d5 00       		.sleb128 0
 5713 16d6 02       		.uleb128 0x2
 5714 16d7 75       		.byte	0x75
 5715 16d8 00       		.sleb128 0
 5716 16d9 09       		.uleb128 0x9
 5717 16da 02       		.uleb128 0x2
 5718 16db 7D       		.byte	0x7d
 5719 16dc 04       		.sleb128 4
 5720 16dd 02       		.uleb128 0x2
ARM GAS  C:\Users\Misha\AppData\Local\Temp\ccYm0xvZ.s 			page 121


 5721 16de 74       		.byte	0x74
 5722 16df 00       		.sleb128 0
 5723 16e0 00       		.byte	0
 5724 16e1 08       		.uleb128 0x8
 5725 16e2 D60A0000 		.4byte	.LVL244
 5726 16e6 331B0000 		.4byte	0x1b33
 5727 16ea FA160000 		.4byte	0x16fa
 5728 16ee 09       		.uleb128 0x9
 5729 16ef 01       		.uleb128 0x1
 5730 16f0 50       		.byte	0x50
 5731 16f1 01       		.uleb128 0x1
 5732 16f2 33       		.byte	0x33
 5733 16f3 09       		.uleb128 0x9
 5734 16f4 01       		.uleb128 0x1
 5735 16f5 51       		.byte	0x51
 5736 16f6 02       		.uleb128 0x2
 5737 16f7 75       		.byte	0x75
 5738 16f8 00       		.sleb128 0
 5739 16f9 00       		.byte	0
 5740 16fa 08       		.uleb128 0x8
 5741 16fb DC0A0000 		.4byte	.LVL245
 5742 16ff FC1A0000 		.4byte	0x1afc
 5743 1703 0D170000 		.4byte	0x170d
 5744 1707 09       		.uleb128 0x9
 5745 1708 01       		.uleb128 0x1
 5746 1709 50       		.byte	0x50
 5747 170a 01       		.uleb128 0x1
 5748 170b 37       		.byte	0x37
 5749 170c 00       		.byte	0
 5750 170d 08       		.uleb128 0x8
 5751 170e F00A0000 		.4byte	.LVL246
 5752 1712 071B0000 		.4byte	0x1b07
 5753 1716 41170000 		.4byte	0x1741
 5754 171a 09       		.uleb128 0x9
 5755 171b 01       		.uleb128 0x1
 5756 171c 50       		.byte	0x50
 5757 171d 03       		.uleb128 0x3
 5758 171e 0A       		.byte	0xa
 5759 171f F901     		.2byte	0x1f9
 5760 1721 09       		.uleb128 0x9
 5761 1722 01       		.uleb128 0x1
 5762 1723 51       		.byte	0x51
 5763 1724 02       		.uleb128 0x2
 5764 1725 74       		.byte	0x74
 5765 1726 00       		.sleb128 0
 5766 1727 09       		.uleb128 0x9
 5767 1728 01       		.uleb128 0x1
 5768 1729 52       		.byte	0x52
 5769 172a 01       		.uleb128 0x1
 5770 172b 35       		.byte	0x35
 5771 172c 09       		.uleb128 0x9
 5772 172d 01       		.uleb128 0x1
 5773 172e 53       		.byte	0x53
 5774 172f 02       		.uleb128 0x2
 5775 1730 76       		.byte	0x76
 5776 1731 00       		.sleb128 0
 5777 1732 09       		.uleb128 0x9
ARM GAS  C:\Users\Misha\AppData\Local\Temp\ccYm0xvZ.s 			page 122


 5778 1733 02       		.uleb128 0x2
 5779 1734 7D       		.byte	0x7d
 5780 1735 00       		.sleb128 0
 5781 1736 02       		.uleb128 0x2
 5782 1737 75       		.byte	0x75
 5783 1738 00       		.sleb128 0
 5784 1739 09       		.uleb128 0x9
 5785 173a 02       		.uleb128 0x2
 5786 173b 7D       		.byte	0x7d
 5787 173c 04       		.sleb128 4
 5788 173d 02       		.uleb128 0x2
 5789 173e 76       		.byte	0x76
 5790 173f 00       		.sleb128 0
 5791 1740 00       		.byte	0
 5792 1741 08       		.uleb128 0x8
 5793 1742 F80A0000 		.4byte	.LVL247
 5794 1746 331B0000 		.4byte	0x1b33
 5795 174a 5B170000 		.4byte	0x175b
 5796 174e 09       		.uleb128 0x9
 5797 174f 01       		.uleb128 0x1
 5798 1750 50       		.byte	0x50
 5799 1751 02       		.uleb128 0x2
 5800 1752 74       		.byte	0x74
 5801 1753 00       		.sleb128 0
 5802 1754 09       		.uleb128 0x9
 5803 1755 01       		.uleb128 0x1
 5804 1756 51       		.byte	0x51
 5805 1757 02       		.uleb128 0x2
 5806 1758 75       		.byte	0x75
 5807 1759 00       		.sleb128 0
 5808 175a 00       		.byte	0
 5809 175b 08       		.uleb128 0x8
 5810 175c 080B0000 		.4byte	.LVL248
 5811 1760 071B0000 		.4byte	0x1b07
 5812 1764 8D170000 		.4byte	0x178d
 5813 1768 09       		.uleb128 0x9
 5814 1769 01       		.uleb128 0x1
 5815 176a 50       		.byte	0x50
 5816 176b 02       		.uleb128 0x2
 5817 176c 08       		.byte	0x8
 5818 176d 28       		.byte	0x28
 5819 176e 09       		.uleb128 0x9
 5820 176f 01       		.uleb128 0x1
 5821 1770 51       		.byte	0x51
 5822 1771 02       		.uleb128 0x2
 5823 1772 74       		.byte	0x74
 5824 1773 00       		.sleb128 0
 5825 1774 09       		.uleb128 0x9
 5826 1775 01       		.uleb128 0x1
 5827 1776 52       		.byte	0x52
 5828 1777 01       		.uleb128 0x1
 5829 1778 34       		.byte	0x34
 5830 1779 09       		.uleb128 0x9
 5831 177a 01       		.uleb128 0x1
 5832 177b 53       		.byte	0x53
 5833 177c 01       		.uleb128 0x1
 5834 177d 34       		.byte	0x34
ARM GAS  C:\Users\Misha\AppData\Local\Temp\ccYm0xvZ.s 			page 123


 5835 177e 09       		.uleb128 0x9
 5836 177f 02       		.uleb128 0x2
 5837 1780 7D       		.byte	0x7d
 5838 1781 00       		.sleb128 0
 5839 1782 02       		.uleb128 0x2
 5840 1783 75       		.byte	0x75
 5841 1784 00       		.sleb128 0
 5842 1785 09       		.uleb128 0x9
 5843 1786 02       		.uleb128 0x2
 5844 1787 7D       		.byte	0x7d
 5845 1788 04       		.sleb128 4
 5846 1789 02       		.uleb128 0x2
 5847 178a 76       		.byte	0x76
 5848 178b 00       		.sleb128 0
 5849 178c 00       		.byte	0
 5850 178d 0A       		.uleb128 0xa
 5851 178e 100B0000 		.4byte	.LVL249
 5852 1792 6A1B0000 		.4byte	0x1b6a
 5853 1796 09       		.uleb128 0x9
 5854 1797 01       		.uleb128 0x1
 5855 1798 50       		.byte	0x50
 5856 1799 02       		.uleb128 0x2
 5857 179a 74       		.byte	0x74
 5858 179b 00       		.sleb128 0
 5859 179c 09       		.uleb128 0x9
 5860 179d 01       		.uleb128 0x1
 5861 179e 51       		.byte	0x51
 5862 179f 01       		.uleb128 0x1
 5863 17a0 32       		.byte	0x32
 5864 17a1 00       		.byte	0
 5865 17a2 00       		.byte	0
 5866 17a3 12       		.uleb128 0x12
 5867 17a4 94070000 		.4byte	.LASF25
 5868 17a8 04       		.byte	0x4
 5869 17a9 1207     		.2byte	0x712
 5870 17ab AF170000 		.4byte	0x17af
 5871 17af 13       		.uleb128 0x13
 5872 17b0 76000000 		.4byte	0x76
 5873 17b4 14       		.uleb128 0x14
 5874 17b5 DA020000 		.4byte	.LASF26
 5875 17b9 05       		.byte	0x5
 5876 17ba 22       		.byte	0x22
 5877 17bb 68000000 		.4byte	0x68
 5878 17bf 05       		.uleb128 0x5
 5879 17c0 03       		.byte	0x3
 5880 17c1 00000000 		.4byte	internal_orientation
 5881 17c5 14       		.uleb128 0x14
 5882 17c6 D9010000 		.4byte	.LASF27
 5883 17ca 06       		.byte	0x6
 5884 17cb 1D       		.byte	0x1d
 5885 17cc 68000000 		.4byte	0x68
 5886 17d0 05       		.uleb128 0x5
 5887 17d1 03       		.byte	0x3
 5888 17d2 00000000 		.4byte	driveStraightEnable
 5889 17d6 14       		.uleb128 0x14
 5890 17d7 79030000 		.4byte	.LASF28
 5891 17db 01       		.byte	0x1
ARM GAS  C:\Users\Misha\AppData\Local\Temp\ccYm0xvZ.s 			page 124


 5892 17dc 2D       		.byte	0x2d
 5893 17dd 68000000 		.4byte	0x68
 5894 17e1 05       		.uleb128 0x5
 5895 17e2 03       		.byte	0x3
 5896 17e3 00000000 		.4byte	currentPuckRackScanningIndex
 5897 17e7 15       		.uleb128 0x15
 5898 17e8 68000000 		.4byte	0x68
 5899 17ec F7170000 		.4byte	0x17f7
 5900 17f0 16       		.uleb128 0x16
 5901 17f1 9D000000 		.4byte	0x9d
 5902 17f5 04       		.byte	0x4
 5903 17f6 00       		.byte	0
 5904 17f7 14       		.uleb128 0x14
 5905 17f8 7A050000 		.4byte	.LASF29
 5906 17fc 01       		.byte	0x1
 5907 17fd 2B       		.byte	0x2b
 5908 17fe E7170000 		.4byte	0x17e7
 5909 1802 05       		.uleb128 0x5
 5910 1803 03       		.byte	0x3
 5911 1804 00000000 		.4byte	puckRackColours
 5912 1808 14       		.uleb128 0x14
 5913 1809 28010000 		.4byte	.LASF30
 5914 180d 01       		.byte	0x1
 5915 180e 2E       		.byte	0x2e
 5916 180f E7170000 		.4byte	0x17e7
 5917 1813 05       		.uleb128 0x5
 5918 1814 03       		.byte	0x3
 5919 1815 00000000 		.4byte	puckRackOffsetsFromWest
 5920 1819 14       		.uleb128 0x14
 5921 181a D0010000 		.4byte	.LASF31
 5922 181e 01       		.byte	0x1
 5923 181f 26       		.byte	0x26
 5924 1820 68000000 		.4byte	0x68
 5925 1824 05       		.uleb128 0x5
 5926 1825 03       		.byte	0x3
 5927 1826 00000000 		.4byte	sweeping
 5928 182a 15       		.uleb128 0x15
 5929 182b 81000000 		.4byte	0x81
 5930 182f 3A180000 		.4byte	0x183a
 5931 1833 16       		.uleb128 0x16
 5932 1834 9D000000 		.4byte	0x9d
 5933 1838 03       		.byte	0x3
 5934 1839 00       		.byte	0
 5935 183a 14       		.uleb128 0x14
 5936 183b 9E040000 		.4byte	.LASF32
 5937 183f 01       		.byte	0x1
 5938 1840 27       		.byte	0x27
 5939 1841 2A180000 		.4byte	0x182a
 5940 1845 05       		.uleb128 0x5
 5941 1846 03       		.byte	0x3
 5942 1847 00000000 		.4byte	block_edge_location
 5943 184b 14       		.uleb128 0x14
 5944 184c 54030000 		.4byte	.LASF33
 5945 1850 07       		.byte	0x7
 5946 1851 BD       		.byte	0xbd
 5947 1852 81000000 		.4byte	0x81
 5948 1856 05       		.uleb128 0x5
ARM GAS  C:\Users\Misha\AppData\Local\Temp\ccYm0xvZ.s 			page 125


 5949 1857 03       		.byte	0x3
 5950 1858 00000000 		.4byte	puckPileLocation
 5951 185c 14       		.uleb128 0x14
 5952 185d 93000000 		.4byte	.LASF34
 5953 1861 06       		.byte	0x6
 5954 1862 25       		.byte	0x25
 5955 1863 33000000 		.4byte	0x33
 5956 1867 05       		.uleb128 0x5
 5957 1868 03       		.byte	0x3
 5958 1869 00000000 		.4byte	drivingForwardFlag
 5959 186d 14       		.uleb128 0x14
 5960 186e 65030000 		.4byte	.LASF35
 5961 1872 06       		.byte	0x6
 5962 1873 26       		.byte	0x26
 5963 1874 33000000 		.4byte	0x33
 5964 1878 05       		.uleb128 0x5
 5965 1879 03       		.byte	0x3
 5966 187a 00000000 		.4byte	drivingBackwardFlag
 5967 187e 14       		.uleb128 0x14
 5968 187f 6A000000 		.4byte	.LASF36
 5969 1883 06       		.byte	0x6
 5970 1884 27       		.byte	0x27
 5971 1885 33000000 		.4byte	0x33
 5972 1889 05       		.uleb128 0x5
 5973 188a 03       		.byte	0x3
 5974 188b 00000000 		.4byte	turningLeftFlag
 5975 188f 14       		.uleb128 0x14
 5976 1890 59020000 		.4byte	.LASF37
 5977 1894 06       		.byte	0x6
 5978 1895 28       		.byte	0x28
 5979 1896 33000000 		.4byte	0x33
 5980 189a 05       		.uleb128 0x5
 5981 189b 03       		.byte	0x3
 5982 189c 00000000 		.4byte	turningRightFlag
 5983 18a0 14       		.uleb128 0x14
 5984 18a1 90080000 		.4byte	.LASF38
 5985 18a5 06       		.byte	0x6
 5986 18a6 2B       		.byte	0x2b
 5987 18a7 68000000 		.4byte	0x68
 5988 18ab 05       		.uleb128 0x5
 5989 18ac 03       		.byte	0x3
 5990 18ad 00000000 		.4byte	initialisation
 5991 18b1 15       		.uleb128 0x15
 5992 18b2 8F000000 		.4byte	0x8f
 5993 18b6 C1180000 		.4byte	0x18c1
 5994 18ba 16       		.uleb128 0x16
 5995 18bb 9D000000 		.4byte	0x9d
 5996 18bf 1F       		.byte	0x1f
 5997 18c0 00       		.byte	0
 5998 18c1 14       		.uleb128 0x14
 5999 18c2 50070000 		.4byte	.LASF39
 6000 18c6 01       		.byte	0x1
 6001 18c7 21       		.byte	0x21
 6002 18c8 B1180000 		.4byte	0x18b1
 6003 18cc 05       		.uleb128 0x5
 6004 18cd 03       		.byte	0x3
 6005 18ce 00000000 		.4byte	output
ARM GAS  C:\Users\Misha\AppData\Local\Temp\ccYm0xvZ.s 			page 126


 6006 18d2 15       		.uleb128 0x15
 6007 18d3 68000000 		.4byte	0x68
 6008 18d7 E2180000 		.4byte	0x18e2
 6009 18db 16       		.uleb128 0x16
 6010 18dc 9D000000 		.4byte	0x9d
 6011 18e0 05       		.byte	0x5
 6012 18e1 00       		.byte	0
 6013 18e2 17       		.uleb128 0x17
 6014 18e3 5A010000 		.4byte	.LASF40
 6015 18e7 07       		.byte	0x7
 6016 18e8 CE       		.byte	0xce
 6017 18e9 D2180000 		.4byte	0x18d2
 6018 18ed 14       		.uleb128 0x14
 6019 18ee E5030000 		.4byte	.LASF41
 6020 18f2 01       		.byte	0x1
 6021 18f3 54       		.byte	0x54
 6022 18f4 68000000 		.4byte	0x68
 6023 18f8 05       		.uleb128 0x5
 6024 18f9 03       		.byte	0x3
 6025 18fa 00000000 		.4byte	colour_flag
 6026 18fe 14       		.uleb128 0x14
 6027 18ff B2030000 		.4byte	.LASF42
 6028 1903 01       		.byte	0x1
 6029 1904 24       		.byte	0x24
 6030 1905 68000000 		.4byte	0x68
 6031 1909 05       		.uleb128 0x5
 6032 190a 03       		.byte	0x3
 6033 190b 00000000 		.4byte	state
 6034 190f 14       		.uleb128 0x14
 6035 1910 BF050000 		.4byte	.LASF43
 6036 1914 01       		.byte	0x1
 6037 1915 5A       		.byte	0x5a
 6038 1916 68000000 		.4byte	0x68
 6039 191a 05       		.uleb128 0x5
 6040 191b 03       		.byte	0x3
 6041 191c 00000000 		.4byte	moving
 6042 1920 14       		.uleb128 0x14
 6043 1921 7D010000 		.4byte	.LASF44
 6044 1925 06       		.byte	0x6
 6045 1926 2D       		.byte	0x2d
 6046 1927 68000000 		.4byte	0x68
 6047 192b 05       		.uleb128 0x5
 6048 192c 03       		.byte	0x3
 6049 192d 00000000 		.4byte	ultrasonic_flag
 6050 1931 15       		.uleb128 0x15
 6051 1932 68000000 		.4byte	0x68
 6052 1936 41190000 		.4byte	0x1941
 6053 193a 16       		.uleb128 0x16
 6054 193b 9D000000 		.4byte	0x9d
 6055 193f 02       		.byte	0x2
 6056 1940 00       		.byte	0
 6057 1941 14       		.uleb128 0x14
 6058 1942 52060000 		.4byte	.LASF45
 6059 1946 01       		.byte	0x1
 6060 1947 2C       		.byte	0x2c
 6061 1948 31190000 		.4byte	0x1931
 6062 194c 05       		.uleb128 0x5
ARM GAS  C:\Users\Misha\AppData\Local\Temp\ccYm0xvZ.s 			page 127


 6063 194d 03       		.byte	0x3
 6064 194e 00000000 		.4byte	puckConstructionPlan
 6065 1952 14       		.uleb128 0x14
 6066 1953 16050000 		.4byte	.LASF46
 6067 1957 01       		.byte	0x1
 6068 1958 5E       		.byte	0x5e
 6069 1959 68000000 		.4byte	0x68
 6070 195d 05       		.uleb128 0x5
 6071 195e 03       		.byte	0x3
 6072 195f 00000000 		.4byte	current_stage
 6073 1963 14       		.uleb128 0x14
 6074 1964 A6050000 		.4byte	.LASF47
 6075 1968 01       		.byte	0x1
 6076 1969 55       		.byte	0x55
 6077 196a 68000000 		.4byte	0x68
 6078 196e 05       		.uleb128 0x5
 6079 196f 03       		.byte	0x3
 6080 1970 00000000 		.4byte	colour_sensing_algorithm
 6081 1974 14       		.uleb128 0x14
 6082 1975 31030000 		.4byte	.LASF48
 6083 1979 01       		.byte	0x1
 6084 197a 48       		.byte	0x48
 6085 197b 68000000 		.4byte	0x68
 6086 197f 05       		.uleb128 0x5
 6087 1980 03       		.byte	0x3
 6088 1981 00000000 		.4byte	safety_override
 6089 1985 14       		.uleb128 0x14
 6090 1986 02020000 		.4byte	.LASF49
 6091 198a 01       		.byte	0x1
 6092 198b 25       		.byte	0x25
 6093 198c 68000000 		.4byte	0x68
 6094 1990 05       		.uleb128 0x5
 6095 1991 03       		.byte	0x3
 6096 1992 00000000 		.4byte	running
 6097 1996 14       		.uleb128 0x14
 6098 1997 ED010000 		.4byte	.LASF50
 6099 199b 01       		.byte	0x1
 6100 199c 2A       		.byte	0x2a
 6101 199d 68000000 		.4byte	0x68
 6102 19a1 05       		.uleb128 0x5
 6103 19a2 03       		.byte	0x3
 6104 19a3 00000000 		.4byte	currentPuckStackSize
 6105 19a7 15       		.uleb128 0x15
 6106 19a8 68000000 		.4byte	0x68
 6107 19ac B7190000 		.4byte	0x19b7
 6108 19b0 16       		.uleb128 0x16
 6109 19b1 9D000000 		.4byte	0x9d
 6110 19b5 01       		.byte	0x1
 6111 19b6 00       		.byte	0
 6112 19b7 14       		.uleb128 0x14
 6113 19b8 5D080000 		.4byte	.LASF51
 6114 19bc 01       		.byte	0x1
 6115 19bd 34       		.byte	0x34
 6116 19be A7190000 		.4byte	0x19a7
 6117 19c2 05       		.uleb128 0x5
 6118 19c3 03       		.byte	0x3
 6119 19c4 00000000 		.4byte	puckColoursTempPile
ARM GAS  C:\Users\Misha\AppData\Local\Temp\ccYm0xvZ.s 			page 128


 6120 19c8 14       		.uleb128 0x14
 6121 19c9 A2010000 		.4byte	.LASF52
 6122 19cd 01       		.byte	0x1
 6123 19ce 36       		.byte	0x36
 6124 19cf 81000000 		.4byte	0x81
 6125 19d3 05       		.uleb128 0x5
 6126 19d4 03       		.byte	0x3
 6127 19d5 00000000 		.4byte	horizontalPuckGrid
 6128 19d9 14       		.uleb128 0x14
 6129 19da FF000000 		.4byte	.LASF53
 6130 19de 01       		.byte	0x1
 6131 19df 3A       		.byte	0x3a
 6132 19e0 68000000 		.4byte	0x68
 6133 19e4 05       		.uleb128 0x5
 6134 19e5 03       		.byte	0x3
 6135 19e6 00000000 		.4byte	beginNavigation
 6136 19ea 14       		.uleb128 0x14
 6137 19eb 51080000 		.4byte	.LASF54
 6138 19ef 01       		.byte	0x1
 6139 19f0 3B       		.byte	0x3b
 6140 19f1 68000000 		.4byte	0x68
 6141 19f5 05       		.uleb128 0x5
 6142 19f6 03       		.byte	0x3
 6143 19f7 00000000 		.4byte	pathToPucks
 6144 19fb 14       		.uleb128 0x14
 6145 19fc D4050000 		.4byte	.LASF55
 6146 1a00 01       		.byte	0x1
 6147 1a01 3C       		.byte	0x3c
 6148 1a02 68000000 		.4byte	0x68
 6149 1a06 05       		.uleb128 0x5
 6150 1a07 03       		.byte	0x3
 6151 1a08 00000000 		.4byte	pathPastBlock
 6152 1a0c 15       		.uleb128 0x15
 6153 1a0d 68000000 		.4byte	0x68
 6154 1a11 1C1A0000 		.4byte	0x1a1c
 6155 1a15 16       		.uleb128 0x16
 6156 1a16 9D000000 		.4byte	0x9d
 6157 1a1a 03       		.byte	0x3
 6158 1a1b 00       		.byte	0
 6159 1a1c 14       		.uleb128 0x14
 6160 1a1d 0A020000 		.4byte	.LASF56
 6161 1a21 01       		.byte	0x1
 6162 1a22 3D       		.byte	0x3d
 6163 1a23 0C1A0000 		.4byte	0x1a0c
 6164 1a27 05       		.uleb128 0x5
 6165 1a28 03       		.byte	0x3
 6166 1a29 00000000 		.4byte	block_location
 6167 1a2d 14       		.uleb128 0x14
 6168 1a2e 2F040000 		.4byte	.LASF57
 6169 1a32 01       		.byte	0x1
 6170 1a33 42       		.byte	0x42
 6171 1a34 0C1A0000 		.4byte	0x1a0c
 6172 1a38 05       		.uleb128 0x5
 6173 1a39 03       		.byte	0x3
 6174 1a3a 00000000 		.4byte	puck_location
 6175 1a3e 14       		.uleb128 0x14
 6176 1a3f 41030000 		.4byte	.LASF58
ARM GAS  C:\Users\Misha\AppData\Local\Temp\ccYm0xvZ.s 			page 129


 6177 1a43 01       		.byte	0x1
 6178 1a44 4C       		.byte	0x4c
 6179 1a45 33000000 		.4byte	0x33
 6180 1a49 05       		.uleb128 0x5
 6181 1a4a 03       		.byte	0x3
 6182 1a4b 00000000 		.4byte	blockEastClearance
 6183 1a4f 14       		.uleb128 0x14
 6184 1a50 AA060000 		.4byte	.LASF59
 6185 1a54 01       		.byte	0x1
 6186 1a55 4D       		.byte	0x4d
 6187 1a56 33000000 		.4byte	0x33
 6188 1a5a 05       		.uleb128 0x5
 6189 1a5b 03       		.byte	0x3
 6190 1a5c 00000000 		.4byte	blockWestClearance
 6191 1a60 14       		.uleb128 0x14
 6192 1a61 2B070000 		.4byte	.LASF60
 6193 1a65 01       		.byte	0x1
 6194 1a66 4E       		.byte	0x4e
 6195 1a67 33000000 		.4byte	0x33
 6196 1a6b 05       		.uleb128 0x5
 6197 1a6c 03       		.byte	0x3
 6198 1a6d 00000000 		.4byte	puckEastClearance
 6199 1a71 14       		.uleb128 0x14
 6200 1a72 63050000 		.4byte	.LASF61
 6201 1a76 01       		.byte	0x1
 6202 1a77 4F       		.byte	0x4f
 6203 1a78 33000000 		.4byte	0x33
 6204 1a7c 05       		.uleb128 0x5
 6205 1a7d 03       		.byte	0x3
 6206 1a7e 00000000 		.4byte	puckWestClearance
 6207 1a82 14       		.uleb128 0x14
 6208 1a83 E8040000 		.4byte	.LASF62
 6209 1a87 01       		.byte	0x1
 6210 1a88 53       		.byte	0x53
 6211 1a89 68000000 		.4byte	0x68
 6212 1a8d 05       		.uleb128 0x5
 6213 1a8e 03       		.byte	0x3
 6214 1a8f 00000000 		.4byte	idac_value
 6215 1a93 14       		.uleb128 0x14
 6216 1a94 93050000 		.4byte	.LASF63
 6217 1a98 01       		.byte	0x1
 6218 1a99 5C       		.byte	0x5c
 6219 1a9a A41A0000 		.4byte	0x1aa4
 6220 1a9e 05       		.uleb128 0x5
 6221 1a9f 03       		.byte	0x3
 6222 1aa0 00000000 		.4byte	PLAN_SCAN_VERTICAL
 6223 1aa4 18       		.uleb128 0x18
 6224 1aa5 68000000 		.4byte	0x68
 6225 1aa9 14       		.uleb128 0x14
 6226 1aaa 5E070000 		.4byte	.LASF64
 6227 1aae 01       		.byte	0x1
 6228 1aaf 62       		.byte	0x62
 6229 1ab0 68000000 		.4byte	0x68
 6230 1ab4 05       		.uleb128 0x5
 6231 1ab5 03       		.byte	0x3
 6232 1ab6 00000000 		.4byte	distance_returned_global
 6233 1aba 19       		.uleb128 0x19
ARM GAS  C:\Users\Misha\AppData\Local\Temp\ccYm0xvZ.s 			page 130


 6234 1abb 3E020000 		.4byte	.LASF65
 6235 1abf 3E020000 		.4byte	.LASF65
 6236 1ac3 06       		.byte	0x6
 6237 1ac4 19       		.byte	0x19
 6238 1ac5 19       		.uleb128 0x19
 6239 1ac6 49080000 		.4byte	.LASF66
 6240 1aca 49080000 		.4byte	.LASF66
 6241 1ace 08       		.byte	0x8
 6242 1acf 76       		.byte	0x76
 6243 1ad0 19       		.uleb128 0x19
 6244 1ad1 41060000 		.4byte	.LASF67
 6245 1ad5 41060000 		.4byte	.LASF67
 6246 1ad9 09       		.byte	0x9
 6247 1ada 8B       		.byte	0x8b
 6248 1adb 19       		.uleb128 0x19
 6249 1adc 56000000 		.4byte	.LASF68
 6250 1ae0 56000000 		.4byte	.LASF68
 6251 1ae4 0A       		.byte	0xa
 6252 1ae5 1D       		.byte	0x1d
 6253 1ae6 19       		.uleb128 0x19
 6254 1ae7 3D040000 		.4byte	.LASF69
 6255 1aeb 3D040000 		.4byte	.LASF69
 6256 1aef 0B       		.byte	0xb
 6257 1af0 E7       		.byte	0xe7
 6258 1af1 19       		.uleb128 0x19
 6259 1af2 24000000 		.4byte	.LASF70
 6260 1af6 24000000 		.4byte	.LASF70
 6261 1afa 0C       		.byte	0xc
 6262 1afb 0E       		.byte	0xe
 6263 1afc 19       		.uleb128 0x19
 6264 1afd 7A000000 		.4byte	.LASF71
 6265 1b01 7A000000 		.4byte	.LASF71
 6266 1b05 05       		.byte	0x5
 6267 1b06 13       		.byte	0x13
 6268 1b07 19       		.uleb128 0x19
 6269 1b08 3D070000 		.4byte	.LASF72
 6270 1b0c 3D070000 		.4byte	.LASF72
 6271 1b10 05       		.byte	0x5
 6272 1b11 12       		.byte	0x12
 6273 1b12 19       		.uleb128 0x19
 6274 1b13 45040000 		.4byte	.LASF73
 6275 1b17 45040000 		.4byte	.LASF73
 6276 1b1b 0A       		.byte	0xa
 6277 1b1c 19       		.byte	0x19
 6278 1b1d 19       		.uleb128 0x19
 6279 1b1e 18030000 		.4byte	.LASF74
 6280 1b22 18030000 		.4byte	.LASF74
 6281 1b26 0D       		.byte	0xd
 6282 1b27 2F       		.byte	0x2f
 6283 1b28 19       		.uleb128 0x19
 6284 1b29 0F030000 		.4byte	.LASF75
 6285 1b2d 0F030000 		.4byte	.LASF75
 6286 1b31 0A       		.byte	0xa
 6287 1b32 1C       		.byte	0x1c
 6288 1b33 19       		.uleb128 0x19
 6289 1b34 C5030000 		.4byte	.LASF76
 6290 1b38 C5030000 		.4byte	.LASF76
ARM GAS  C:\Users\Misha\AppData\Local\Temp\ccYm0xvZ.s 			page 131


 6291 1b3c 05       		.byte	0x5
 6292 1b3d 18       		.byte	0x18
 6293 1b3e 19       		.uleb128 0x19
 6294 1b3f 4F050000 		.4byte	.LASF77
 6295 1b43 4F050000 		.4byte	.LASF77
 6296 1b47 06       		.byte	0x6
 6297 1b48 16       		.byte	0x16
 6298 1b49 19       		.uleb128 0x19
 6299 1b4a 5D040000 		.4byte	.LASF78
 6300 1b4e 5D040000 		.4byte	.LASF78
 6301 1b52 0E       		.byte	0xe
 6302 1b53 0F       		.byte	0xf
 6303 1b54 19       		.uleb128 0x19
 6304 1b55 35060000 		.4byte	.LASF79
 6305 1b59 35060000 		.4byte	.LASF79
 6306 1b5d 0E       		.byte	0xe
 6307 1b5e 0E       		.byte	0xe
 6308 1b5f 19       		.uleb128 0x19
 6309 1b60 83040000 		.4byte	.LASF80
 6310 1b64 83040000 		.4byte	.LASF80
 6311 1b68 05       		.byte	0x5
 6312 1b69 16       		.byte	0x16
 6313 1b6a 19       		.uleb128 0x19
 6314 1b6b 70020000 		.4byte	.LASF81
 6315 1b6f 70020000 		.4byte	.LASF81
 6316 1b73 0F       		.byte	0xf
 6317 1b74 0F       		.byte	0xf
 6318 1b75 19       		.uleb128 0x19
 6319 1b76 09040000 		.4byte	.LASF82
 6320 1b7a 09040000 		.4byte	.LASF82
 6321 1b7e 05       		.byte	0x5
 6322 1b7f 10       		.byte	0x10
 6323 1b80 19       		.uleb128 0x19
 6324 1b81 8A050000 		.4byte	.LASF83
 6325 1b85 8A050000 		.4byte	.LASF83
 6326 1b89 0F       		.byte	0xf
 6327 1b8a 11       		.byte	0x11
 6328 1b8b 19       		.uleb128 0x19
 6329 1b8c 00000000 		.4byte	.LASF84
 6330 1b90 00000000 		.4byte	.LASF84
 6331 1b94 0F       		.byte	0xf
 6332 1b95 10       		.byte	0x10
 6333 1b96 19       		.uleb128 0x19
 6334 1b97 43050000 		.4byte	.LASF85
 6335 1b9b 43050000 		.4byte	.LASF85
 6336 1b9f 10       		.byte	0x10
 6337 1ba0 3D       		.byte	0x3d
 6338 1ba1 19       		.uleb128 0x19
 6339 1ba2 B8030000 		.4byte	.LASF86
 6340 1ba6 B8030000 		.4byte	.LASF86
 6341 1baa 09       		.byte	0x9
 6342 1bab 54       		.byte	0x54
 6343 1bac 19       		.uleb128 0x19
 6344 1bad C7020000 		.4byte	.LASF87
 6345 1bb1 C7020000 		.4byte	.LASF87
 6346 1bb5 11       		.byte	0x11
 6347 1bb6 3A       		.byte	0x3a
ARM GAS  C:\Users\Misha\AppData\Local\Temp\ccYm0xvZ.s 			page 132


 6348 1bb7 19       		.uleb128 0x19
 6349 1bb8 F3040000 		.4byte	.LASF88
 6350 1bbc F3040000 		.4byte	.LASF88
 6351 1bc0 12       		.byte	0x12
 6352 1bc1 3C       		.byte	0x3c
 6353 1bc2 19       		.uleb128 0x19
 6354 1bc3 72040000 		.4byte	.LASF89
 6355 1bc7 72040000 		.4byte	.LASF89
 6356 1bcb 12       		.byte	0x12
 6357 1bcc 40       		.byte	0x40
 6358 1bcd 19       		.uleb128 0x19
 6359 1bce F5050000 		.4byte	.LASF90
 6360 1bd2 F5050000 		.4byte	.LASF90
 6361 1bd6 12       		.byte	0x12
 6362 1bd7 41       		.byte	0x41
 6363 1bd8 19       		.uleb128 0x19
 6364 1bd9 C9040000 		.4byte	.LASF91
 6365 1bdd C9040000 		.4byte	.LASF91
 6366 1be1 13       		.byte	0x13
 6367 1be2 2F       		.byte	0x2f
 6368 1be3 19       		.uleb128 0x19
 6369 1be4 01050000 		.4byte	.LASF92
 6370 1be8 01050000 		.4byte	.LASF92
 6371 1bec 14       		.byte	0x14
 6372 1bed 92       		.byte	0x92
 6373 1bee 19       		.uleb128 0x19
 6374 1bef 96030000 		.4byte	.LASF93
 6375 1bf3 96030000 		.4byte	.LASF93
 6376 1bf7 14       		.byte	0x14
 6377 1bf8 C3       		.byte	0xc3
 6378 1bf9 19       		.uleb128 0x19
 6379 1bfa 8D010000 		.4byte	.LASF94
 6380 1bfe 8D010000 		.4byte	.LASF94
 6381 1c02 14       		.byte	0x14
 6382 1c03 DC       		.byte	0xdc
 6383 1c04 19       		.uleb128 0x19
 6384 1c05 19020000 		.4byte	.LASF95
 6385 1c09 19020000 		.4byte	.LASF95
 6386 1c0d 15       		.byte	0x15
 6387 1c0e 92       		.byte	0x92
 6388 1c0f 19       		.uleb128 0x19
 6389 1c10 24050000 		.4byte	.LASF96
 6390 1c14 24050000 		.4byte	.LASF96
 6391 1c18 15       		.byte	0x15
 6392 1c19 C3       		.byte	0xc3
 6393 1c1a 19       		.uleb128 0x19
 6394 1c1b 67060000 		.4byte	.LASF97
 6395 1c1f 67060000 		.4byte	.LASF97
 6396 1c23 15       		.byte	0x15
 6397 1c24 DC       		.byte	0xdc
 6398 1c25 19       		.uleb128 0x19
 6399 1c26 17040000 		.4byte	.LASF98
 6400 1c2a 17040000 		.4byte	.LASF98
 6401 1c2e 16       		.byte	0x16
 6402 1c2f 92       		.byte	0x92
 6403 1c30 19       		.uleb128 0x19
 6404 1c31 EF020000 		.4byte	.LASF99
ARM GAS  C:\Users\Misha\AppData\Local\Temp\ccYm0xvZ.s 			page 133


 6405 1c35 EF020000 		.4byte	.LASF99
 6406 1c39 17       		.byte	0x17
 6407 1c3a 92       		.byte	0x92
 6408 1c3b 19       		.uleb128 0x19
 6409 1c3c 71080000 		.4byte	.LASF100
 6410 1c40 71080000 		.4byte	.LASF100
 6411 1c44 16       		.byte	0x16
 6412 1c45 C3       		.byte	0xc3
 6413 1c46 19       		.uleb128 0x19
 6414 1c47 36000000 		.4byte	.LASF101
 6415 1c4b 36000000 		.4byte	.LASF101
 6416 1c4f 17       		.byte	0x17
 6417 1c50 C3       		.byte	0xc3
 6418 1c51 19       		.uleb128 0x19
 6419 1c52 F1030000 		.4byte	.LASF102
 6420 1c56 F1030000 		.4byte	.LASF102
 6421 1c5a 16       		.byte	0x16
 6422 1c5b DC       		.byte	0xdc
 6423 1c5c 19       		.uleb128 0x19
 6424 1c5d AE020000 		.4byte	.LASF103
 6425 1c61 AE020000 		.4byte	.LASF103
 6426 1c65 17       		.byte	0x17
 6427 1c66 DC       		.byte	0xdc
 6428 1c67 19       		.uleb128 0x19
 6429 1c68 0F010000 		.4byte	.LASF104
 6430 1c6c 0F010000 		.4byte	.LASF104
 6431 1c70 18       		.byte	0x18
 6432 1c71 48       		.byte	0x48
 6433 1c72 19       		.uleb128 0x19
 6434 1c73 B4000000 		.4byte	.LASF105
 6435 1c77 B4000000 		.4byte	.LASF105
 6436 1c7b 19       		.byte	0x19
 6437 1c7c 48       		.byte	0x48
 6438 1c7d 19       		.uleb128 0x19
 6439 1c7e C6050000 		.4byte	.LASF106
 6440 1c82 C6050000 		.4byte	.LASF106
 6441 1c86 1A       		.byte	0x1a
 6442 1c87 5A       		.byte	0x5a
 6443 1c88 19       		.uleb128 0x19
 6444 1c89 B5010000 		.4byte	.LASF107
 6445 1c8d B5010000 		.4byte	.LASF107
 6446 1c91 1A       		.byte	0x1a
 6447 1c92 5E       		.byte	0x5e
 6448 1c93 19       		.uleb128 0x19
 6449 1c94 A6000000 		.4byte	.LASF108
 6450 1c98 A6000000 		.4byte	.LASF108
 6451 1c9c 1B       		.byte	0x1b
 6452 1c9d 18       		.byte	0x18
 6453 1c9e 19       		.uleb128 0x19
 6454 1c9f 27060000 		.4byte	.LASF109
 6455 1ca3 27060000 		.4byte	.LASF109
 6456 1ca7 1C       		.byte	0x1c
 6457 1ca8 18       		.byte	0x18
 6458 1ca9 19       		.uleb128 0x19
 6459 1caa 17070000 		.4byte	.LASF110
 6460 1cae 17070000 		.4byte	.LASF110
 6461 1cb2 06       		.byte	0x6
ARM GAS  C:\Users\Misha\AppData\Local\Temp\ccYm0xvZ.s 			page 134


 6462 1cb3 1A       		.byte	0x1a
 6463 1cb4 19       		.uleb128 0x19
 6464 1cb5 08000000 		.4byte	.LASF111
 6465 1cb9 08000000 		.4byte	.LASF111
 6466 1cbd 1D       		.byte	0x1d
 6467 1cbe 5A       		.byte	0x5a
 6468 1cbf 19       		.uleb128 0x19
 6469 1cc0 CE000000 		.4byte	.LASF112
 6470 1cc4 CE000000 		.4byte	.LASF112
 6471 1cc8 1D       		.byte	0x1d
 6472 1cc9 5E       		.byte	0x5e
 6473 1cca 19       		.uleb128 0x19
 6474 1ccb 77070000 		.4byte	.LASF113
 6475 1ccf 77070000 		.4byte	.LASF113
 6476 1cd3 1E       		.byte	0x1e
 6477 1cd4 2F       		.byte	0x2f
 6478 1cd5 00       		.byte	0
 6479              		.section	.debug_abbrev,"",%progbits
 6480              	.Ldebug_abbrev0:
 6481 0000 01       		.uleb128 0x1
 6482 0001 11       		.uleb128 0x11
 6483 0002 01       		.byte	0x1
 6484 0003 25       		.uleb128 0x25
 6485 0004 0E       		.uleb128 0xe
 6486 0005 13       		.uleb128 0x13
 6487 0006 0B       		.uleb128 0xb
 6488 0007 03       		.uleb128 0x3
 6489 0008 0E       		.uleb128 0xe
 6490 0009 1B       		.uleb128 0x1b
 6491 000a 0E       		.uleb128 0xe
 6492 000b 55       		.uleb128 0x55
 6493 000c 17       		.uleb128 0x17
 6494 000d 11       		.uleb128 0x11
 6495 000e 01       		.uleb128 0x1
 6496 000f 10       		.uleb128 0x10
 6497 0010 17       		.uleb128 0x17
 6498 0011 00       		.byte	0
 6499 0012 00       		.byte	0
 6500 0013 02       		.uleb128 0x2
 6501 0014 24       		.uleb128 0x24
 6502 0015 00       		.byte	0
 6503 0016 0B       		.uleb128 0xb
 6504 0017 0B       		.uleb128 0xb
 6505 0018 3E       		.uleb128 0x3e
 6506 0019 0B       		.uleb128 0xb
 6507 001a 03       		.uleb128 0x3
 6508 001b 0E       		.uleb128 0xe
 6509 001c 00       		.byte	0
 6510 001d 00       		.byte	0
 6511 001e 03       		.uleb128 0x3
 6512 001f 16       		.uleb128 0x16
 6513 0020 00       		.byte	0
 6514 0021 03       		.uleb128 0x3
 6515 0022 0E       		.uleb128 0xe
 6516 0023 3A       		.uleb128 0x3a
 6517 0024 0B       		.uleb128 0xb
 6518 0025 3B       		.uleb128 0x3b
ARM GAS  C:\Users\Misha\AppData\Local\Temp\ccYm0xvZ.s 			page 135


 6519 0026 0B       		.uleb128 0xb
 6520 0027 49       		.uleb128 0x49
 6521 0028 13       		.uleb128 0x13
 6522 0029 00       		.byte	0
 6523 002a 00       		.byte	0
 6524 002b 04       		.uleb128 0x4
 6525 002c 24       		.uleb128 0x24
 6526 002d 00       		.byte	0
 6527 002e 0B       		.uleb128 0xb
 6528 002f 0B       		.uleb128 0xb
 6529 0030 3E       		.uleb128 0x3e
 6530 0031 0B       		.uleb128 0xb
 6531 0032 03       		.uleb128 0x3
 6532 0033 08       		.uleb128 0x8
 6533 0034 00       		.byte	0
 6534 0035 00       		.byte	0
 6535 0036 05       		.uleb128 0x5
 6536 0037 2E       		.uleb128 0x2e
 6537 0038 01       		.byte	0x1
 6538 0039 3F       		.uleb128 0x3f
 6539 003a 19       		.uleb128 0x19
 6540 003b 03       		.uleb128 0x3
 6541 003c 08       		.uleb128 0x8
 6542 003d 3A       		.uleb128 0x3a
 6543 003e 0B       		.uleb128 0xb
 6544 003f 3B       		.uleb128 0x3b
 6545 0040 0B       		.uleb128 0xb
 6546 0041 27       		.uleb128 0x27
 6547 0042 19       		.uleb128 0x19
 6548 0043 11       		.uleb128 0x11
 6549 0044 01       		.uleb128 0x1
 6550 0045 12       		.uleb128 0x12
 6551 0046 06       		.uleb128 0x6
 6552 0047 40       		.uleb128 0x40
 6553 0048 18       		.uleb128 0x18
 6554 0049 9742     		.uleb128 0x2117
 6555 004b 19       		.uleb128 0x19
 6556 004c 01       		.uleb128 0x1
 6557 004d 13       		.uleb128 0x13
 6558 004e 00       		.byte	0
 6559 004f 00       		.byte	0
 6560 0050 06       		.uleb128 0x6
 6561 0051 898201   		.uleb128 0x4109
 6562 0054 00       		.byte	0
 6563 0055 11       		.uleb128 0x11
 6564 0056 01       		.uleb128 0x1
 6565 0057 31       		.uleb128 0x31
 6566 0058 13       		.uleb128 0x13
 6567 0059 00       		.byte	0
 6568 005a 00       		.byte	0
 6569 005b 07       		.uleb128 0x7
 6570 005c 2E       		.uleb128 0x2e
 6571 005d 01       		.byte	0x1
 6572 005e 3F       		.uleb128 0x3f
 6573 005f 19       		.uleb128 0x19
 6574 0060 03       		.uleb128 0x3
 6575 0061 0E       		.uleb128 0xe
ARM GAS  C:\Users\Misha\AppData\Local\Temp\ccYm0xvZ.s 			page 136


 6576 0062 3A       		.uleb128 0x3a
 6577 0063 0B       		.uleb128 0xb
 6578 0064 3B       		.uleb128 0x3b
 6579 0065 0B       		.uleb128 0xb
 6580 0066 27       		.uleb128 0x27
 6581 0067 19       		.uleb128 0x19
 6582 0068 11       		.uleb128 0x11
 6583 0069 01       		.uleb128 0x1
 6584 006a 12       		.uleb128 0x12
 6585 006b 06       		.uleb128 0x6
 6586 006c 40       		.uleb128 0x40
 6587 006d 18       		.uleb128 0x18
 6588 006e 9742     		.uleb128 0x2117
 6589 0070 19       		.uleb128 0x19
 6590 0071 01       		.uleb128 0x1
 6591 0072 13       		.uleb128 0x13
 6592 0073 00       		.byte	0
 6593 0074 00       		.byte	0
 6594 0075 08       		.uleb128 0x8
 6595 0076 898201   		.uleb128 0x4109
 6596 0079 01       		.byte	0x1
 6597 007a 11       		.uleb128 0x11
 6598 007b 01       		.uleb128 0x1
 6599 007c 31       		.uleb128 0x31
 6600 007d 13       		.uleb128 0x13
 6601 007e 01       		.uleb128 0x1
 6602 007f 13       		.uleb128 0x13
 6603 0080 00       		.byte	0
 6604 0081 00       		.byte	0
 6605 0082 09       		.uleb128 0x9
 6606 0083 8A8201   		.uleb128 0x410a
 6607 0086 00       		.byte	0
 6608 0087 02       		.uleb128 0x2
 6609 0088 18       		.uleb128 0x18
 6610 0089 9142     		.uleb128 0x2111
 6611 008b 18       		.uleb128 0x18
 6612 008c 00       		.byte	0
 6613 008d 00       		.byte	0
 6614 008e 0A       		.uleb128 0xa
 6615 008f 898201   		.uleb128 0x4109
 6616 0092 01       		.byte	0x1
 6617 0093 11       		.uleb128 0x11
 6618 0094 01       		.uleb128 0x1
 6619 0095 31       		.uleb128 0x31
 6620 0096 13       		.uleb128 0x13
 6621 0097 00       		.byte	0
 6622 0098 00       		.byte	0
 6623 0099 0B       		.uleb128 0xb
 6624 009a 2E       		.uleb128 0x2e
 6625 009b 01       		.byte	0x1
 6626 009c 3F       		.uleb128 0x3f
 6627 009d 19       		.uleb128 0x19
 6628 009e 03       		.uleb128 0x3
 6629 009f 0E       		.uleb128 0xe
 6630 00a0 3A       		.uleb128 0x3a
 6631 00a1 0B       		.uleb128 0xb
 6632 00a2 3B       		.uleb128 0x3b
ARM GAS  C:\Users\Misha\AppData\Local\Temp\ccYm0xvZ.s 			page 137


 6633 00a3 0B       		.uleb128 0xb
 6634 00a4 27       		.uleb128 0x27
 6635 00a5 19       		.uleb128 0x19
 6636 00a6 49       		.uleb128 0x49
 6637 00a7 13       		.uleb128 0x13
 6638 00a8 8701     		.uleb128 0x87
 6639 00aa 19       		.uleb128 0x19
 6640 00ab 11       		.uleb128 0x11
 6641 00ac 01       		.uleb128 0x1
 6642 00ad 12       		.uleb128 0x12
 6643 00ae 06       		.uleb128 0x6
 6644 00af 40       		.uleb128 0x40
 6645 00b0 18       		.uleb128 0x18
 6646 00b1 9642     		.uleb128 0x2116
 6647 00b3 19       		.uleb128 0x19
 6648 00b4 01       		.uleb128 0x1
 6649 00b5 13       		.uleb128 0x13
 6650 00b6 00       		.byte	0
 6651 00b7 00       		.byte	0
 6652 00b8 0C       		.uleb128 0xc
 6653 00b9 34       		.uleb128 0x34
 6654 00ba 00       		.byte	0
 6655 00bb 03       		.uleb128 0x3
 6656 00bc 0E       		.uleb128 0xe
 6657 00bd 3A       		.uleb128 0x3a
 6658 00be 0B       		.uleb128 0xb
 6659 00bf 3B       		.uleb128 0x3b
 6660 00c0 0B       		.uleb128 0xb
 6661 00c1 49       		.uleb128 0x49
 6662 00c2 13       		.uleb128 0x13
 6663 00c3 1C       		.uleb128 0x1c
 6664 00c4 0B       		.uleb128 0xb
 6665 00c5 00       		.byte	0
 6666 00c6 00       		.byte	0
 6667 00c7 0D       		.uleb128 0xd
 6668 00c8 0B       		.uleb128 0xb
 6669 00c9 01       		.byte	0x1
 6670 00ca 11       		.uleb128 0x11
 6671 00cb 01       		.uleb128 0x1
 6672 00cc 12       		.uleb128 0x12
 6673 00cd 06       		.uleb128 0x6
 6674 00ce 01       		.uleb128 0x1
 6675 00cf 13       		.uleb128 0x13
 6676 00d0 00       		.byte	0
 6677 00d1 00       		.byte	0
 6678 00d2 0E       		.uleb128 0xe
 6679 00d3 34       		.uleb128 0x34
 6680 00d4 00       		.byte	0
 6681 00d5 03       		.uleb128 0x3
 6682 00d6 0E       		.uleb128 0xe
 6683 00d7 3A       		.uleb128 0x3a
 6684 00d8 0B       		.uleb128 0xb
 6685 00d9 3B       		.uleb128 0x3b
 6686 00da 05       		.uleb128 0x5
 6687 00db 49       		.uleb128 0x49
 6688 00dc 13       		.uleb128 0x13
 6689 00dd 02       		.uleb128 0x2
ARM GAS  C:\Users\Misha\AppData\Local\Temp\ccYm0xvZ.s 			page 138


 6690 00de 17       		.uleb128 0x17
 6691 00df 00       		.byte	0
 6692 00e0 00       		.byte	0
 6693 00e1 0F       		.uleb128 0xf
 6694 00e2 34       		.uleb128 0x34
 6695 00e3 00       		.byte	0
 6696 00e4 03       		.uleb128 0x3
 6697 00e5 08       		.uleb128 0x8
 6698 00e6 3A       		.uleb128 0x3a
 6699 00e7 0B       		.uleb128 0xb
 6700 00e8 3B       		.uleb128 0x3b
 6701 00e9 05       		.uleb128 0x5
 6702 00ea 49       		.uleb128 0x49
 6703 00eb 13       		.uleb128 0x13
 6704 00ec 02       		.uleb128 0x2
 6705 00ed 17       		.uleb128 0x17
 6706 00ee 00       		.byte	0
 6707 00ef 00       		.byte	0
 6708 00f0 10       		.uleb128 0x10
 6709 00f1 0B       		.uleb128 0xb
 6710 00f2 01       		.byte	0x1
 6711 00f3 55       		.uleb128 0x55
 6712 00f4 17       		.uleb128 0x17
 6713 00f5 01       		.uleb128 0x1
 6714 00f6 13       		.uleb128 0x13
 6715 00f7 00       		.byte	0
 6716 00f8 00       		.byte	0
 6717 00f9 11       		.uleb128 0x11
 6718 00fa 34       		.uleb128 0x34
 6719 00fb 00       		.byte	0
 6720 00fc 03       		.uleb128 0x3
 6721 00fd 0E       		.uleb128 0xe
 6722 00fe 3A       		.uleb128 0x3a
 6723 00ff 0B       		.uleb128 0xb
 6724 0100 3B       		.uleb128 0x3b
 6725 0101 05       		.uleb128 0x5
 6726 0102 49       		.uleb128 0x49
 6727 0103 13       		.uleb128 0x13
 6728 0104 00       		.byte	0
 6729 0105 00       		.byte	0
 6730 0106 12       		.uleb128 0x12
 6731 0107 34       		.uleb128 0x34
 6732 0108 00       		.byte	0
 6733 0109 03       		.uleb128 0x3
 6734 010a 0E       		.uleb128 0xe
 6735 010b 3A       		.uleb128 0x3a
 6736 010c 0B       		.uleb128 0xb
 6737 010d 3B       		.uleb128 0x3b
 6738 010e 05       		.uleb128 0x5
 6739 010f 49       		.uleb128 0x49
 6740 0110 13       		.uleb128 0x13
 6741 0111 3F       		.uleb128 0x3f
 6742 0112 19       		.uleb128 0x19
 6743 0113 3C       		.uleb128 0x3c
 6744 0114 19       		.uleb128 0x19
 6745 0115 00       		.byte	0
 6746 0116 00       		.byte	0
ARM GAS  C:\Users\Misha\AppData\Local\Temp\ccYm0xvZ.s 			page 139


 6747 0117 13       		.uleb128 0x13
 6748 0118 35       		.uleb128 0x35
 6749 0119 00       		.byte	0
 6750 011a 49       		.uleb128 0x49
 6751 011b 13       		.uleb128 0x13
 6752 011c 00       		.byte	0
 6753 011d 00       		.byte	0
 6754 011e 14       		.uleb128 0x14
 6755 011f 34       		.uleb128 0x34
 6756 0120 00       		.byte	0
 6757 0121 03       		.uleb128 0x3
 6758 0122 0E       		.uleb128 0xe
 6759 0123 3A       		.uleb128 0x3a
 6760 0124 0B       		.uleb128 0xb
 6761 0125 3B       		.uleb128 0x3b
 6762 0126 0B       		.uleb128 0xb
 6763 0127 49       		.uleb128 0x49
 6764 0128 13       		.uleb128 0x13
 6765 0129 3F       		.uleb128 0x3f
 6766 012a 19       		.uleb128 0x19
 6767 012b 02       		.uleb128 0x2
 6768 012c 18       		.uleb128 0x18
 6769 012d 00       		.byte	0
 6770 012e 00       		.byte	0
 6771 012f 15       		.uleb128 0x15
 6772 0130 01       		.uleb128 0x1
 6773 0131 01       		.byte	0x1
 6774 0132 49       		.uleb128 0x49
 6775 0133 13       		.uleb128 0x13
 6776 0134 01       		.uleb128 0x1
 6777 0135 13       		.uleb128 0x13
 6778 0136 00       		.byte	0
 6779 0137 00       		.byte	0
 6780 0138 16       		.uleb128 0x16
 6781 0139 21       		.uleb128 0x21
 6782 013a 00       		.byte	0
 6783 013b 49       		.uleb128 0x49
 6784 013c 13       		.uleb128 0x13
 6785 013d 2F       		.uleb128 0x2f
 6786 013e 0B       		.uleb128 0xb
 6787 013f 00       		.byte	0
 6788 0140 00       		.byte	0
 6789 0141 17       		.uleb128 0x17
 6790 0142 34       		.uleb128 0x34
 6791 0143 00       		.byte	0
 6792 0144 03       		.uleb128 0x3
 6793 0145 0E       		.uleb128 0xe
 6794 0146 3A       		.uleb128 0x3a
 6795 0147 0B       		.uleb128 0xb
 6796 0148 3B       		.uleb128 0x3b
 6797 0149 0B       		.uleb128 0xb
 6798 014a 49       		.uleb128 0x49
 6799 014b 13       		.uleb128 0x13
 6800 014c 3F       		.uleb128 0x3f
 6801 014d 19       		.uleb128 0x19
 6802 014e 3C       		.uleb128 0x3c
 6803 014f 19       		.uleb128 0x19
ARM GAS  C:\Users\Misha\AppData\Local\Temp\ccYm0xvZ.s 			page 140


 6804 0150 00       		.byte	0
 6805 0151 00       		.byte	0
 6806 0152 18       		.uleb128 0x18
 6807 0153 26       		.uleb128 0x26
 6808 0154 00       		.byte	0
 6809 0155 49       		.uleb128 0x49
 6810 0156 13       		.uleb128 0x13
 6811 0157 00       		.byte	0
 6812 0158 00       		.byte	0
 6813 0159 19       		.uleb128 0x19
 6814 015a 2E       		.uleb128 0x2e
 6815 015b 00       		.byte	0
 6816 015c 3F       		.uleb128 0x3f
 6817 015d 19       		.uleb128 0x19
 6818 015e 3C       		.uleb128 0x3c
 6819 015f 19       		.uleb128 0x19
 6820 0160 6E       		.uleb128 0x6e
 6821 0161 0E       		.uleb128 0xe
 6822 0162 03       		.uleb128 0x3
 6823 0163 0E       		.uleb128 0xe
 6824 0164 3A       		.uleb128 0x3a
 6825 0165 0B       		.uleb128 0xb
 6826 0166 3B       		.uleb128 0x3b
 6827 0167 0B       		.uleb128 0xb
 6828 0168 00       		.byte	0
 6829 0169 00       		.byte	0
 6830 016a 00       		.byte	0
 6831              		.section	.debug_loc,"",%progbits
 6832              	.Ldebug_loc0:
 6833              	.LLST0:
 6834 0000 8C010000 		.4byte	.LVL63
 6835 0004 92010000 		.4byte	.LVL64
 6836 0008 0200     		.2byte	0x2
 6837 000a 30       		.byte	0x30
 6838 000b 9F       		.byte	0x9f
 6839 000c 92010000 		.4byte	.LVL64
 6840 0010 B2010000 		.4byte	.LVL67
 6841 0014 0100     		.2byte	0x1
 6842 0016 52       		.byte	0x52
 6843 0017 00000000 		.4byte	0
 6844 001b 00000000 		.4byte	0
 6845              	.LLST1:
 6846 001f 3A010000 		.4byte	.LVL51
 6847 0023 3E010000 		.4byte	.LVL52
 6848 0027 0200     		.2byte	0x2
 6849 0029 30       		.byte	0x30
 6850 002a 9F       		.byte	0x9f
 6851 002b 3E010000 		.4byte	.LVL52
 6852 002f 60010000 		.4byte	.LVL57
 6853 0033 0100     		.2byte	0x1
 6854 0035 54       		.byte	0x54
 6855 0036 00000000 		.4byte	0
 6856 003a 00000000 		.4byte	0
 6857              	.LLST2:
 6858 003e 5E010000 		.4byte	.LVL56
 6859 0042 62010000 		.4byte	.LVL58
 6860 0046 0200     		.2byte	0x2
ARM GAS  C:\Users\Misha\AppData\Local\Temp\ccYm0xvZ.s 			page 141


 6861 0048 30       		.byte	0x30
 6862 0049 9F       		.byte	0x9f
 6863 004a 62010000 		.4byte	.LVL58
 6864 004e B6010000 		.4byte	.LVL69
 6865 0052 0100     		.2byte	0x1
 6866 0054 54       		.byte	0x54
 6867 0055 00000000 		.4byte	0
 6868 0059 00000000 		.4byte	0
 6869              	.LLST3:
 6870 005d 8C010000 		.4byte	.LVL63
 6871 0061 92010000 		.4byte	.LVL64
 6872 0065 0200     		.2byte	0x2
 6873 0067 30       		.byte	0x30
 6874 0068 9F       		.byte	0x9f
 6875 0069 92010000 		.4byte	.LVL64
 6876 006d B4010000 		.4byte	.LVL68
 6877 0071 0100     		.2byte	0x1
 6878 0073 53       		.byte	0x53
 6879 0074 00000000 		.4byte	0
 6880 0078 00000000 		.4byte	0
 6881              	.LLST4:
 6882 007c 0E020000 		.4byte	.LVL77
 6883 0080 5C040000 		.4byte	.LVL126
 6884 0084 0100     		.2byte	0x1
 6885 0086 55       		.byte	0x55
 6886 0087 00000000 		.4byte	0
 6887 008b 00000000 		.4byte	0
 6888              	.LLST5:
 6889 008f C6030000 		.4byte	.LVL111
 6890 0093 D4050000 		.4byte	.LVL156
 6891 0097 0100     		.2byte	0x1
 6892 0099 56       		.byte	0x56
 6893 009a 00000000 		.4byte	0
 6894 009e 00000000 		.4byte	0
 6895              	.LLST6:
 6896 00a2 2E040000 		.4byte	.LVL121
 6897 00a6 4A040000 		.4byte	.LVL123
 6898 00aa 0100     		.2byte	0x1
 6899 00ac 50       		.byte	0x50
 6900 00ad 00000000 		.4byte	0
 6901 00b1 00000000 		.4byte	0
 6902              	.LLST7:
 6903 00b5 D4040000 		.4byte	.LVL139
 6904 00b9 DA040000 		.4byte	.LVL140
 6905 00bd 0100     		.2byte	0x1
 6906 00bf 50       		.byte	0x50
 6907 00c0 00000000 		.4byte	0
 6908 00c4 00000000 		.4byte	0
 6909              	.LLST8:
 6910 00c8 A0070000 		.4byte	.LVL182
 6911 00cc D4070000 		.4byte	.LVL188
 6912 00d0 0200     		.2byte	0x2
 6913 00d2 31       		.byte	0x31
 6914 00d3 9F       		.byte	0x9f
 6915 00d4 00000000 		.4byte	0
 6916 00d8 00000000 		.4byte	0
 6917              	.LLST9:
ARM GAS  C:\Users\Misha\AppData\Local\Temp\ccYm0xvZ.s 			page 142


 6918 00dc 90090000 		.4byte	.LVL219
 6919 00e0 A8090000 		.4byte	.LVL220
 6920 00e4 0100     		.2byte	0x1
 6921 00e6 52       		.byte	0x52
 6922 00e7 A8090000 		.4byte	.LVL220
 6923 00eb B1090000 		.4byte	.LVL221-1
 6924 00ef 0500     		.2byte	0x5
 6925 00f1 03       		.byte	0x3
 6926 00f2 00000000 		.4byte	current_stage
 6927 00f6 00000000 		.4byte	0
 6928 00fa 00000000 		.4byte	0
 6929              		.section	.debug_aranges,"",%progbits
 6930 0000 2C000000 		.4byte	0x2c
 6931 0004 0200     		.2byte	0x2
 6932 0006 00000000 		.4byte	.Ldebug_info0
 6933 000a 04       		.byte	0x4
 6934 000b 00       		.byte	0
 6935 000c 0000     		.2byte	0
 6936 000e 0000     		.2byte	0
 6937 0010 00000000 		.4byte	.LFB64
 6938 0014 08000000 		.4byte	.LFE64-.LFB64
 6939 0018 00000000 		.4byte	.LFB65
 6940 001c 24000000 		.4byte	.LFE65-.LFB65
 6941 0020 00000000 		.4byte	.LFB66
 6942 0024 1C0B0000 		.4byte	.LFE66-.LFB66
 6943 0028 00000000 		.4byte	0
 6944 002c 00000000 		.4byte	0
 6945              		.section	.debug_ranges,"",%progbits
 6946              	.Ldebug_ranges0:
 6947 0000 8C010000 		.4byte	.LBB5
 6948 0004 8E010000 		.4byte	.LBE5
 6949 0008 90010000 		.4byte	.LBB6
 6950 000c B0010000 		.4byte	.LBE6
 6951 0010 00000000 		.4byte	0
 6952 0014 00000000 		.4byte	0
 6953 0018 00000000 		.4byte	.LFB64
 6954 001c 08000000 		.4byte	.LFE64
 6955 0020 00000000 		.4byte	.LFB65
 6956 0024 24000000 		.4byte	.LFE65
 6957 0028 00000000 		.4byte	.LFB66
 6958 002c 1C0B0000 		.4byte	.LFE66
 6959 0030 00000000 		.4byte	0
 6960 0034 00000000 		.4byte	0
 6961              		.section	.debug_line,"",%progbits
 6962              	.Ldebug_line0:
 6963 0000 58050000 		.section	.debug_str,"MS",%progbits,1
 6963      02005303 
 6963      00000201 
 6963      FB0E0D00 
 6963      01010101 
 6964              	.LASF84:
 6965 0000 61726D4F 		.ascii	"armOpen\000"
 6965      70656E00 
 6966              	.LASF111:
 6967 0008 54696D65 		.ascii	"Timer_straight_adjust_Start\000"
 6967      725F7374 
 6967      72616967 
ARM GAS  C:\Users\Misha\AppData\Local\Temp\ccYm0xvZ.s 			page 143


 6967      68745F61 
 6967      646A7573 
 6968              	.LASF70:
 6969 0024 756C7469 		.ascii	"ultimateDebugging\000"
 6969      6D617465 
 6969      44656275 
 6969      6767696E 
 6969      6700
 6970              	.LASF101:
 6971 0036 4D6F746F 		.ascii	"Motor_Right_Driver_WriteCompare\000"
 6971      725F5269 
 6971      6768745F 
 6971      44726976 
 6971      65725F57 
 6972              	.LASF68:
 6973 0056 636F6C6F 		.ascii	"colourSensingOutput\000"
 6973      75725365 
 6973      6E73696E 
 6973      674F7574 
 6973      70757400 
 6974              	.LASF36:
 6975 006a 7475726E 		.ascii	"turningLeftFlag\000"
 6975      696E674C 
 6975      65667446 
 6975      6C616700 
 6976              	.LASF71:
 6977 007a 73747261 		.ascii	"straightAdjust\000"
 6977      69676874 
 6977      41646A75 
 6977      737400
 6978              	.LASF2:
 6979 0089 73686F72 		.ascii	"short int\000"
 6979      7420696E 
 6979      7400
 6980              	.LASF34:
 6981 0093 64726976 		.ascii	"drivingForwardFlag\000"
 6981      696E6746 
 6981      6F727761 
 6981      7264466C 
 6981      616700
 6982              	.LASF108:
 6983 00a6 536F6E69 		.ascii	"Sonic_StartEx\000"
 6983      635F5374 
 6983      61727445 
 6983      7800
 6984              	.LASF105:
 6985 00b4 4D6F746F 		.ascii	"Motor_Right_Decoder_Start\000"
 6985      725F5269 
 6985      6768745F 
 6985      4465636F 
 6985      6465725F 
 6986              	.LASF112:
 6987 00ce 54696D65 		.ascii	"Timer_straight_adjust_ReadStatusRegister\000"
 6987      725F7374 
 6987      72616967 
 6987      68745F61 
 6987      646A7573 
ARM GAS  C:\Users\Misha\AppData\Local\Temp\ccYm0xvZ.s 			page 144


 6988              	.LASF10:
 6989 00f7 696E7433 		.ascii	"int32_t\000"
 6989      325F7400 
 6990              	.LASF53:
 6991 00ff 62656769 		.ascii	"beginNavigation\000"
 6991      6E4E6176 
 6991      69676174 
 6991      696F6E00 
 6992              	.LASF104:
 6993 010f 4D6F746F 		.ascii	"Motor_Left_Decoder_Start\000"
 6993      725F4C65 
 6993      66745F44 
 6993      65636F64 
 6993      65725F53 
 6994              	.LASF30:
 6995 0128 7075636B 		.ascii	"puckRackOffsetsFromWest\000"
 6995      5261636B 
 6995      4F666673 
 6995      65747346 
 6995      726F6D57 
 6996              	.LASF14:
 6997 0140 6C6F6E67 		.ascii	"long double\000"
 6997      20646F75 
 6997      626C6500 
 6998              	.LASF19:
 6999 014c 7075636B 		.ascii	"puckRackIndex\000"
 6999      5261636B 
 6999      496E6465 
 6999      7800
 7000              	.LASF40:
 7001 015a 756C7472 		.ascii	"ultrasonic_distances_mm\000"
 7001      61736F6E 
 7001      69635F64 
 7001      69737461 
 7001      6E636573 
 7002              	.LASF21:
 7003 0172 7075636B 		.ascii	"puck_check\000"
 7003      5F636865 
 7003      636B00
 7004              	.LASF44:
 7005 017d 756C7472 		.ascii	"ultrasonic_flag\000"
 7005      61736F6E 
 7005      69635F66 
 7005      6C616700 
 7006              	.LASF94:
 7007 018d 5261636B 		.ascii	"Rack_Servo_PWM_Sleep\000"
 7007      5F536572 
 7007      766F5F50 
 7007      574D5F53 
 7007      6C656570 
 7008              	.LASF52:
 7009 01a2 686F7269 		.ascii	"horizontalPuckGrid\000"
 7009      7A6F6E74 
 7009      616C5075 
 7009      636B4772 
 7009      696400
 7010              	.LASF107:
ARM GAS  C:\Users\Misha\AppData\Local\Temp\ccYm0xvZ.s 			page 145


 7011 01b5 54696D65 		.ascii	"Timer_1_ReadStatusRegister\000"
 7011      725F315F 
 7011      52656164 
 7011      53746174 
 7011      75735265 
 7012              	.LASF31:
 7013 01d0 73776565 		.ascii	"sweeping\000"
 7013      70696E67 
 7013      00
 7014              	.LASF27:
 7015 01d9 64726976 		.ascii	"driveStraightEnable\000"
 7015      65537472 
 7015      61696768 
 7015      74456E61 
 7015      626C6500 
 7016              	.LASF50:
 7017 01ed 63757272 		.ascii	"currentPuckStackSize\000"
 7017      656E7450 
 7017      75636B53 
 7017      7461636B 
 7017      53697A65 
 7018              	.LASF49:
 7019 0202 72756E6E 		.ascii	"running\000"
 7019      696E6700 
 7020              	.LASF56:
 7021 020a 626C6F63 		.ascii	"block_location\000"
 7021      6B5F6C6F 
 7021      63617469 
 7021      6F6E00
 7022              	.LASF95:
 7023 0219 47726970 		.ascii	"Gripper_Servo_PWM_Start\000"
 7023      7065725F 
 7023      53657276 
 7023      6F5F5057 
 7023      4D5F5374 
 7024              	.LASF23:
 7025 0231 7075636B 		.ascii	"puck_correct\000"
 7025      5F636F72 
 7025      72656374 
 7025      00
 7026              	.LASF65:
 7027 023e 756C7472 		.ascii	"ultrasonicInterruptHandler\000"
 7027      61736F6E 
 7027      6963496E 
 7027      74657272 
 7027      75707448 
 7028              	.LASF37:
 7029 0259 7475726E 		.ascii	"turningRightFlag\000"
 7029      696E6752 
 7029      69676874 
 7029      466C6167 
 7029      00
 7030              	.LASF11:
 7031 026a 666C6F61 		.ascii	"float\000"
 7031      7400
 7032              	.LASF81:
 7033 0270 6368616E 		.ascii	"changeHeightToPuck\000"
ARM GAS  C:\Users\Misha\AppData\Local\Temp\ccYm0xvZ.s 			page 146


 7033      67654865 
 7033      69676874 
 7033      546F5075 
 7033      636B00
 7034              	.LASF6:
 7035 0283 6C6F6E67 		.ascii	"long long int\000"
 7035      206C6F6E 
 7035      6720696E 
 7035      7400
 7036              	.LASF17:
 7037 0291 626C6F63 		.ascii	"block_and_puck_edge_midpoint\000"
 7037      6B5F616E 
 7037      645F7075 
 7037      636B5F65 
 7037      6467655F 
 7038              	.LASF103:
 7039 02ae 4D6F746F 		.ascii	"Motor_Right_Driver_Sleep\000"
 7039      725F5269 
 7039      6768745F 
 7039      44726976 
 7039      65725F53 
 7040              	.LASF87:
 7041 02c7 4144435F 		.ascii	"ADC_Start\000"
 7041      53746172 
 7041      7400
 7042              	.LASF4:
 7043 02d1 6C6F6E67 		.ascii	"long int\000"
 7043      20696E74 
 7043      00
 7044              	.LASF26:
 7045 02da 696E7465 		.ascii	"internal_orientation\000"
 7045      726E616C 
 7045      5F6F7269 
 7045      656E7461 
 7045      74696F6E 
 7046              	.LASF99:
 7047 02ef 4D6F746F 		.ascii	"Motor_Right_Driver_Start\000"
 7047      725F5269 
 7047      6768745F 
 7047      44726976 
 7047      65725F53 
 7048              	.LASF22:
 7049 0308 6F666673 		.ascii	"offset\000"
 7049      657400
 7050              	.LASF75:
 7051 030f 626C696E 		.ascii	"blinkLED\000"
 7051      6B4C4544 
 7051      00
 7052              	.LASF74:
 7053 0318 636F6E74 		.ascii	"control_photodiode_Write\000"
 7053      726F6C5F 
 7053      70686F74 
 7053      6F64696F 
 7053      64655F57 
 7054              	.LASF48:
 7055 0331 73616665 		.ascii	"safety_override\000"
 7055      74795F6F 
ARM GAS  C:\Users\Misha\AppData\Local\Temp\ccYm0xvZ.s 			page 147


 7055      76657272 
 7055      69646500 
 7056              	.LASF58:
 7057 0341 626C6F63 		.ascii	"blockEastClearance\000"
 7057      6B456173 
 7057      74436C65 
 7057      6172616E 
 7057      636500
 7058              	.LASF33:
 7059 0354 7075636B 		.ascii	"puckPileLocation\000"
 7059      50696C65 
 7059      4C6F6361 
 7059      74696F6E 
 7059      00
 7060              	.LASF35:
 7061 0365 64726976 		.ascii	"drivingBackwardFlag\000"
 7061      696E6742 
 7061      61636B77 
 7061      61726446 
 7061      6C616700 
 7062              	.LASF28:
 7063 0379 63757272 		.ascii	"currentPuckRackScanningIndex\000"
 7063      656E7450 
 7063      75636B52 
 7063      61636B53 
 7063      63616E6E 
 7064              	.LASF93:
 7065 0396 5261636B 		.ascii	"Rack_Servo_PWM_WriteCompare\000"
 7065      5F536572 
 7065      766F5F50 
 7065      574D5F57 
 7065      72697465 
 7066              	.LASF42:
 7067 03b2 73746174 		.ascii	"state\000"
 7067      6500
 7068              	.LASF86:
 7069 03b8 55415254 		.ascii	"UART_1_Start\000"
 7069      5F315F53 
 7069      74617274 
 7069      00
 7070              	.LASF76:
 7071 03c5 6368616E 		.ascii	"changeOrientation\000"
 7071      67654F72 
 7071      69656E74 
 7071      6174696F 
 7071      6E00
 7072              	.LASF1:
 7073 03d7 756E7369 		.ascii	"unsigned char\000"
 7073      676E6564 
 7073      20636861 
 7073      7200
 7074              	.LASF41:
 7075 03e5 636F6C6F 		.ascii	"colour_flag\000"
 7075      75725F66 
 7075      6C616700 
 7076              	.LASF102:
 7077 03f1 4D6F746F 		.ascii	"Motor_Left_Driver_Sleep\000"
ARM GAS  C:\Users\Misha\AppData\Local\Temp\ccYm0xvZ.s 			page 148


 7077      725F4C65 
 7077      66745F44 
 7077      72697665 
 7077      725F536C 
 7078              	.LASF82:
 7079 0409 6D6F7665 		.ascii	"moveUntilPuck\000"
 7079      556E7469 
 7079      6C507563 
 7079      6B00
 7080              	.LASF98:
 7081 0417 4D6F746F 		.ascii	"Motor_Left_Driver_Start\000"
 7081      725F4C65 
 7081      66745F44 
 7081      72697665 
 7081      725F5374 
 7082              	.LASF57:
 7083 042f 7075636B 		.ascii	"puck_location\000"
 7083      5F6C6F63 
 7083      6174696F 
 7083      6E00
 7084              	.LASF69:
 7085 043d 73707269 		.ascii	"sprintf\000"
 7085      6E746600 
 7086              	.LASF73:
 7087 0445 636F6C6F 		.ascii	"colourSensingInitialise\000"
 7087      75725365 
 7087      6E73696E 
 7087      67496E69 
 7087      7469616C 
 7088              	.LASF78:
 7089 045d 7472616E 		.ascii	"translateMoveDynamic\000"
 7089      736C6174 
 7089      654D6F76 
 7089      6544796E 
 7089      616D6963 
 7090              	.LASF89:
 7091 0472 49444143 		.ascii	"IDAC8_1_SetRange\000"
 7091      385F315F 
 7091      53657452 
 7091      616E6765 
 7091      00
 7092              	.LASF80:
 7093 0483 7472616E 		.ascii	"translateUntil\000"
 7093      736C6174 
 7093      65556E74 
 7093      696C00
 7094              	.LASF0:
 7095 0492 7369676E 		.ascii	"signed char\000"
 7095      65642063 
 7095      68617200 
 7096              	.LASF32:
 7097 049e 626C6F63 		.ascii	"block_edge_location\000"
 7097      6B5F6564 
 7097      67655F6C 
 7097      6F636174 
 7097      696F6E00 
 7098              	.LASF7:
ARM GAS  C:\Users\Misha\AppData\Local\Temp\ccYm0xvZ.s 			page 149


 7099 04b2 6C6F6E67 		.ascii	"long long unsigned int\000"
 7099      206C6F6E 
 7099      6720756E 
 7099      7369676E 
 7099      65642069 
 7100              	.LASF91:
 7101 04c9 636F6E74 		.ascii	"control_led_Write\000"
 7101      726F6C5F 
 7101      6C65645F 
 7101      57726974 
 7101      6500
 7102              	.LASF8:
 7103 04db 756E7369 		.ascii	"unsigned int\000"
 7103      676E6564 
 7103      20696E74 
 7103      00
 7104              	.LASF62:
 7105 04e8 69646163 		.ascii	"idac_value\000"
 7105      5F76616C 
 7105      756500
 7106              	.LASF88:
 7107 04f3 49444143 		.ascii	"IDAC8_1_Start\000"
 7107      385F315F 
 7107      53746172 
 7107      7400
 7108              	.LASF92:
 7109 0501 5261636B 		.ascii	"Rack_Servo_PWM_Start\000"
 7109      5F536572 
 7109      766F5F50 
 7109      574D5F53 
 7109      74617274 
 7110              	.LASF46:
 7111 0516 63757272 		.ascii	"current_stage\000"
 7111      656E745F 
 7111      73746167 
 7111      6500
 7112              	.LASF96:
 7113 0524 47726970 		.ascii	"Gripper_Servo_PWM_WriteCompare\000"
 7113      7065725F 
 7113      53657276 
 7113      6F5F5057 
 7113      4D5F5772 
 7114              	.LASF85:
 7115 0543 5449415F 		.ascii	"TIA_1_Start\000"
 7115      315F5374 
 7115      61727400 
 7116              	.LASF77:
 7117 054f 64697374 		.ascii	"distanceSensor\000"
 7117      616E6365 
 7117      53656E73 
 7117      6F7200
 7118              	.LASF13:
 7119 055e 63686172 		.ascii	"char\000"
 7119      00
 7120              	.LASF61:
 7121 0563 7075636B 		.ascii	"puckWestClearance\000"
 7121      57657374 
ARM GAS  C:\Users\Misha\AppData\Local\Temp\ccYm0xvZ.s 			page 150


 7121      436C6561 
 7121      72616E63 
 7121      6500
 7122              	.LASF117:
 7123 0575 6D61696E 		.ascii	"main\000"
 7123      00
 7124              	.LASF29:
 7125 057a 7075636B 		.ascii	"puckRackColours\000"
 7125      5261636B 
 7125      436F6C6F 
 7125      75727300 
 7126              	.LASF83:
 7127 058a 61726D43 		.ascii	"armClose\000"
 7127      6C6F7365 
 7127      00
 7128              	.LASF63:
 7129 0593 504C414E 		.ascii	"PLAN_SCAN_VERTICAL\000"
 7129      5F534341 
 7129      4E5F5645 
 7129      52544943 
 7129      414C00
 7130              	.LASF47:
 7131 05a6 636F6C6F 		.ascii	"colour_sensing_algorithm\000"
 7131      75725F73 
 7131      656E7369 
 7131      6E675F61 
 7131      6C676F72 
 7132              	.LASF43:
 7133 05bf 6D6F7669 		.ascii	"moving\000"
 7133      6E6700
 7134              	.LASF106:
 7135 05c6 54696D65 		.ascii	"Timer_1_Start\000"
 7135      725F315F 
 7135      53746172 
 7135      7400
 7136              	.LASF55:
 7137 05d4 70617468 		.ascii	"pathPastBlock\000"
 7137      50617374 
 7137      426C6F63 
 7137      6B00
 7138              	.LASF3:
 7139 05e2 73686F72 		.ascii	"short unsigned int\000"
 7139      7420756E 
 7139      7369676E 
 7139      65642069 
 7139      6E7400
 7140              	.LASF90:
 7141 05f5 49444143 		.ascii	"IDAC8_1_SetValue\000"
 7141      385F315F 
 7141      53657456 
 7141      616C7565 
 7141      00
 7142              	.LASF115:
 7143 0606 6D61696E 		.ascii	"main.c\000"
 7143      2E6300
 7144              	.LASF16:
 7145 060d 53746172 		.ascii	"StartIH\000"
ARM GAS  C:\Users\Misha\AppData\Local\Temp\ccYm0xvZ.s 			page 151


 7145      74494800 
 7146              	.LASF5:
 7147 0615 6C6F6E67 		.ascii	"long unsigned int\000"
 7147      20756E73 
 7147      69676E65 
 7147      6420696E 
 7147      7400
 7148              	.LASF109:
 7149 0627 53746172 		.ascii	"Start_StartEx\000"
 7149      745F5374 
 7149      61727445 
 7149      7800
 7150              	.LASF79:
 7151 0635 6D6F7665 		.ascii	"moveDynamic\000"
 7151      44796E61 
 7151      6D696300 
 7152              	.LASF67:
 7153 0641 55415254 		.ascii	"UART_1_PutString\000"
 7153      5F315F50 
 7153      75745374 
 7153      72696E67 
 7153      00
 7154              	.LASF45:
 7155 0652 7075636B 		.ascii	"puckConstructionPlan\000"
 7155      436F6E73 
 7155      74727563 
 7155      74696F6E 
 7155      506C616E 
 7156              	.LASF97:
 7157 0667 47726970 		.ascii	"Gripper_Servo_PWM_Sleep\000"
 7157      7065725F 
 7157      53657276 
 7157      6F5F5057 
 7157      4D5F536C 
 7158              	.LASF24:
 7159 067f 68656C64 		.ascii	"heldColour\000"
 7159      436F6C6F 
 7159      757200
 7160              	.LASF20:
 7161 068a 626C6F63 		.ascii	"block_check\000"
 7161      6B5F6368 
 7161      65636B00 
 7162              	.LASF118:
 7163 0696 7075636B 		.ascii	"puck_scan\000"
 7163      5F736361 
 7163      6E00
 7164              	.LASF9:
 7165 06a0 5F5F696E 		.ascii	"__int32_t\000"
 7165      7433325F 
 7165      7400
 7166              	.LASF59:
 7167 06aa 626C6F63 		.ascii	"blockWestClearance\000"
 7167      6B576573 
 7167      74436C65 
 7167      6172616E 
 7167      636500
 7168              	.LASF116:
ARM GAS  C:\Users\Misha\AppData\Local\Temp\ccYm0xvZ.s 			page 152


 7169 06bd 433A5C55 		.ascii	"C:\\Users\\Misha\\Documents\\PSoC Creator\\ECE3091_"
 7169      73657273 
 7169      5C4D6973 
 7169      68615C44 
 7169      6F63756D 
 7170 06eb 47726F75 		.ascii	"Group17\\Group17RobotReal\\Group17Robot.cydsn\000"
 7170      7031375C 
 7170      47726F75 
 7170      70313752 
 7170      6F626F74 
 7171              	.LASF110:
 7172 0717 73616665 		.ascii	"safetyDistanceCheck\000"
 7172      74794469 
 7172      7374616E 
 7172      63654368 
 7172      65636B00 
 7173              	.LASF60:
 7174 072b 7075636B 		.ascii	"puckEastClearance\000"
 7174      45617374 
 7174      436C6561 
 7174      72616E63 
 7174      6500
 7175              	.LASF72:
 7176 073d 6D6F7665 		.ascii	"moveUntil\000"
 7176      556E7469 
 7176      6C00
 7177              	.LASF15:
 7178 0747 73697A65 		.ascii	"sizetype\000"
 7178      74797065 
 7178      00
 7179              	.LASF39:
 7180 0750 6F757470 		.ascii	"output\000"
 7180      757400
 7181              	.LASF12:
 7182 0757 646F7562 		.ascii	"double\000"
 7182      6C6500
 7183              	.LASF64:
 7184 075e 64697374 		.ascii	"distance_returned_global\000"
 7184      616E6365 
 7184      5F726574 
 7184      75726E65 
 7184      645F676C 
 7185              	.LASF113:
 7186 0777 436F6E74 		.ascii	"Control_Reset_Straight_Write\000"
 7186      726F6C5F 
 7186      52657365 
 7186      745F5374 
 7186      72616967 
 7187              	.LASF25:
 7188 0794 49544D5F 		.ascii	"ITM_RxBuffer\000"
 7188      52784275 
 7188      66666572 
 7188      00
 7189              	.LASF114:
 7190 07a1 474E5520 		.ascii	"GNU C11 5.4.1 20160609 (release) [ARM/embedded-5-br"
 7190      43313120 
 7190      352E342E 
ARM GAS  C:\Users\Misha\AppData\Local\Temp\ccYm0xvZ.s 			page 153


 7190      31203230 
 7190      31363036 
 7191 07d4 616E6368 		.ascii	"anch revision 237715] -mcpu=cortex-m3 -mthumb -g -O"
 7191      20726576 
 7191      6973696F 
 7191      6E203233 
 7191      37373135 
 7192 0807 67202D66 		.ascii	"g -ffunction-sections -ffat-lto-objects\000"
 7192      66756E63 
 7192      74696F6E 
 7192      2D736563 
 7192      74696F6E 
 7193              	.LASF18:
 7194 082f 7075636B 		.ascii	"puckConstructionPlanIndex\000"
 7194      436F6E73 
 7194      74727563 
 7194      74696F6E 
 7194      506C616E 
 7195              	.LASF66:
 7196 0849 43794465 		.ascii	"CyDelay\000"
 7196      6C617900 
 7197              	.LASF54:
 7198 0851 70617468 		.ascii	"pathToPucks\000"
 7198      546F5075 
 7198      636B7300 
 7199              	.LASF51:
 7200 085d 7075636B 		.ascii	"puckColoursTempPile\000"
 7200      436F6C6F 
 7200      75727354 
 7200      656D7050 
 7200      696C6500 
 7201              	.LASF100:
 7202 0871 4D6F746F 		.ascii	"Motor_Left_Driver_WriteCompare\000"
 7202      725F4C65 
 7202      66745F44 
 7202      72697665 
 7202      725F5772 
 7203              	.LASF38:
 7204 0890 696E6974 		.ascii	"initialisation\000"
 7204      69616C69 
 7204      73617469 
 7204      6F6E00
 7205              		.ident	"GCC: (GNU Tools for ARM Embedded Processors) 5.4.1 20160609 (release) [ARM/embedded-5-bran
