ARM GAS  C:\Users\Misha\AppData\Local\Temp\cc8yPQTr.s 			page 1


   1              		.syntax unified
   2              		.cpu cortex-m3
   3              		.fpu softvfp
   4              		.eabi_attribute 20, 1
   5              		.eabi_attribute 21, 1
   6              		.eabi_attribute 23, 3
   7              		.eabi_attribute 24, 1
   8              		.eabi_attribute 25, 1
   9              		.eabi_attribute 26, 1
  10              		.eabi_attribute 30, 1
  11              		.eabi_attribute 34, 1
  12              		.eabi_attribute 18, 4
  13              		.thumb
  14              		.syntax unified
  15              		.file	"main.c"
  16              		.text
  17              	.Ltext0:
  18              		.cfi_sections	.debug_frame
  19              		.section	.text.TIH,"ax",%progbits
  20              		.align	2
  21              		.global	TIH
  22              		.thumb
  23              		.thumb_func
  24              		.type	TIH, %function
  25              	TIH:
  26              	.LFB64:
  27              		.file 1 "main.c"
   1:main.c        ****  
   2:main.c        **** /* ========================================
   3:main.c        ****  *
   4:main.c        ****  * Copyright Group 17, 2019
   5:main.c        ****  * All Rights Reserved
   6:main.c        ****  * UNPUBLISHED, LICENSED SOFTWARE.
   7:main.c        ****  *
   8:main.c        ****  * CONFIDENTIAL AND PROPRIETARY INFORMATION
   9:main.c        ****  * WHICH IS THE PROPERTY OF Blayke, Misha, Nidhin.
  10:main.c        ****  *
  11:main.c        ****  * ========================================
  12:main.c        **** */
  13:main.c        **** 
  14:main.c        **** // * PSOC LIBRARY * //
  15:main.c        **** #include "project.h"
  16:main.c        **** 
  17:main.c        **** // * C LIBRARIES * // 
  18:main.c        **** #include <stdlib.h>
  19:main.c        **** #include <stdio.h>
  20:main.c        **** #include <math.h>
  21:main.c        **** 
  22:main.c        **** // * OUR LIBRARIES * //
  23:main.c        **** #include "main.h"
  24:main.c        **** #include "colour.h"
  25:main.c        **** #include "ultrasonic.h" 
  26:main.c        **** #include "servo.h"
  27:main.c        **** #include "motor.h"
  28:main.c        **** #include "customMath.h"
  29:main.c        **** #include "navigation.h"
  30:main.c        **** #include "debugging.h"
ARM GAS  C:\Users\Misha\AppData\Local\Temp\cc8yPQTr.s 			page 2


  31:main.c        **** 
  32:main.c        **** 
  33:main.c        **** extern char output[32];   
  34:main.c        **** 
  35:main.c        **** // * STATE VARIABLES * //
  36:main.c        **** int state = STATE_PRE_RUN;
  37:main.c        **** int running = 1;
  38:main.c        **** int sweeping = 0;
  39:main.c        **** float block_edge_location[4] = {0,0,0,0}; // N E S W edge positions respectively
  40:main.c        **** 
  41:main.c        **** // * PUCK CONSTRUCTION VARIABLES * //
  42:main.c        **** int currentPuckStackSize = 0; // How many pucks are currently on the construction plate
  43:main.c        **** int puckRackColours[5] = {BLANK,BLANK,BLANK,BLANK,BLANK}; // 5 slots in puck rack.
  44:main.c        **** int puckConstructionPlan[3] = {BLANK,BLANK,BLANK};
  45:main.c        **** int currentPuckRackScanningIndex = 0;
  46:main.c        **** int puckRackOffsetsFromWest[5] = {PUCK_RACK_0_WEST_DISTANCE,
  47:main.c        ****                                 PUCK_RACK_1_WEST_DISTANCE,
  48:main.c        ****                                 PUCK_RACK_2_WEST_DISTANCE,
  49:main.c        ****                                 PUCK_RACK_3_WEST_DISTANCE,
  50:main.c        ****                                 PUCK_RACK_4_WEST_DISTANCE };
  51:main.c        **** 
  52:main.c        **** int puckColoursTempPile[2] = {BLANK,BLANK}; // Index 0 refers to east home base edge, 1 refers to w
  53:main.c        **** 
  54:main.c        **** float horizontalPuckGrid = 0;
  55:main.c        **** 
  56:main.c        **** // * NAVIGATION AND POSITION VARIABLES * //
  57:main.c        **** 
  58:main.c        **** int beginNavigation = 0; // Allow us to break out of the intial phase when powered up
  59:main.c        **** int pathToPucks; // This will give us a corridor/ that we should initially take when trying to go t
  60:main.c        **** int pathPastBlock;
  61:main.c        **** int block_location[4] = {0,0,0,0};      // The block location values
  62:main.c        ****                                         //#define NORTH 0
  63:main.c        ****                                         //#define EAST 1
  64:main.c        ****                                         //#define SOUTH 2
  65:main.c        ****                                         //#define WEST 3
  66:main.c        **** int puck_location[4] = {0,0,0,0};       // The block location values
  67:main.c        ****                                         //#define NORTH 0
  68:main.c        ****                                         //#define EAST 1
  69:main.c        ****                                         //#define SOUTH 2
  70:main.c        ****                                         //#define WEST 3
  71:main.c        **** 
  72:main.c        **** int safety_override = FALSE;            
  73:main.c        **** 
  74:main.c        **** // These block clearance variables are only true if we have enough room either side of the block to
  75:main.c        **** // And only true for the puck clearance variables if there is enough room to be able to turn at the
  76:main.c        **** short int blockEastClearance = 0;
  77:main.c        **** short int blockWestClearance = 0;
  78:main.c        **** short int puckEastClearance = 0;
  79:main.c        **** short int puckWestClearance = 0;
  80:main.c        **** 
  81:main.c        **** // * COLOUR VARIABLES * //
  82:main.c        **** 
  83:main.c        **** int idac_value = 0;  
  84:main.c        **** int colour_flag = 1;                    // sets which photodiode to use 
  85:main.c        **** int colour_sensing_algorithm = 0;      // Determines which colour sensing algorithm to use:
  86:main.c        ****                                                 // 0: Wall algorithm
  87:main.c        ****                                             // 1: Claw algorithm
ARM GAS  C:\Users\Misha\AppData\Local\Temp\cc8yPQTr.s 			page 3


  88:main.c        ****                                                 // 2: old algorithm
  89:main.c        **** 
  90:main.c        **** int moving = 0; // Temp to stop while loop from repeated runs of scanning plan code
  91:main.c        **** 
  92:main.c        **** const int PLAN_SCAN_VERTICAL = 10; // Set to ultrasonic distance at the home base 
  93:main.c        **** 
  94:main.c        **** int current_stage = 1;      // There are 3 stages, we start at 1
  95:main.c        **** 
  96:main.c        **** 
  97:main.c        **** // GLOBAL VARIABLE
  98:main.c        **** int distance_returned_global;
  99:main.c        **** 
 100:main.c        **** 
 101:main.c        **** // * INTERRUPT HANDLING * // 
 102:main.c        **** CY_ISR(TIH)                             // Ultrasonic ISR Definition
 103:main.c        **** {
  28              		.loc 1 103 0
  29              		.cfi_startproc
  30              		@ args = 0, pretend = 0, frame = 0
  31              		@ frame_needed = 0, uses_anonymous_args = 0
  32 0000 08B5     		push	{r3, lr}
  33              		.cfi_def_cfa_offset 8
  34              		.cfi_offset 3, -8
  35              		.cfi_offset 14, -4
 104:main.c        ****     ultrasonicInterruptHandler();
  36              		.loc 1 104 0
  37 0002 FFF7FEFF 		bl	ultrasonicInterruptHandler
  38              	.LVL0:
  39 0006 08BD     		pop	{r3, pc}
  40              		.cfi_endproc
  41              	.LFE64:
  42              		.size	TIH, .-TIH
  43              		.section	.text.StartIH,"ax",%progbits
  44              		.align	2
  45              		.global	StartIH
  46              		.thumb
  47              		.thumb_func
  48              		.type	StartIH, %function
  49              	StartIH:
  50              	.LFB65:
 105:main.c        **** }
 106:main.c        **** 
 107:main.c        **** CY_ISR(StartIH)                             // Ultrasonic ISR Definition
 108:main.c        **** {
  51              		.loc 1 108 0
  52              		.cfi_startproc
  53              		@ args = 0, pretend = 0, frame = 0
  54              		@ frame_needed = 0, uses_anonymous_args = 0
  55 0000 08B5     		push	{r3, lr}
  56              		.cfi_def_cfa_offset 8
  57              		.cfi_offset 3, -8
  58              		.cfi_offset 14, -4
 109:main.c        ****     CyDelay(100);
  59              		.loc 1 109 0
  60 0002 6420     		movs	r0, #100
  61 0004 FFF7FEFF 		bl	CyDelay
  62              	.LVL1:
ARM GAS  C:\Users\Misha\AppData\Local\Temp\cc8yPQTr.s 			page 4


 110:main.c        ****     if (beginNavigation){
  63              		.loc 1 110 0
  64 0008 044B     		ldr	r3, .L6
  65 000a 1B68     		ldr	r3, [r3]
  66 000c 2BB1     		cbz	r3, .L3
 111:main.c        ****         UART_1_PutString("Beginning Navigation \n");
  67              		.loc 1 111 0
  68 000e 0448     		ldr	r0, .L6+4
  69 0010 FFF7FEFF 		bl	UART_1_PutString
  70              	.LVL2:
 112:main.c        ****         //state = STATE_SCAN_PLAN; 
 113:main.c        ****         state = STATE_LOCATE_BLOCK_AND_PUCKS;
  71              		.loc 1 113 0
  72 0014 0222     		movs	r2, #2
  73 0016 014B     		ldr	r3, .L6
  74 0018 5A60     		str	r2, [r3, #4]
  75              	.L3:
  76 001a 08BD     		pop	{r3, pc}
  77              	.L7:
  78              		.align	2
  79              	.L6:
  80 001c 00000000 		.word	.LANCHOR0
  81 0020 00000000 		.word	.LC0
  82              		.cfi_endproc
  83              	.LFE65:
  84              		.size	StartIH, .-StartIH
  85              		.global	__aeabi_i2d
  86              		.global	__aeabi_dmul
  87              		.global	__aeabi_d2iz
  88              		.section	.text.main,"ax",%progbits
  89              		.align	2
  90              		.global	main
  91              		.thumb
  92              		.thumb_func
  93              		.type	main, %function
  94              	main:
  95              	.LFB66:
 114:main.c        ****     }
 115:main.c        **** }
 116:main.c        ****  
 117:main.c        **** //Interrupt service routines for dcmotor function
 118:main.c        **** /*
 119:main.c        **** CY_ISR(Encoder_Counts_1_IH){
 120:main.c        ****     stopMotor1AndUpdate();
 121:main.c        **** }
 122:main.c        **** 
 123:main.c        **** CY_ISR(Encoder_Counts_2_IH){
 124:main.c        ****     stopMotor2AndUpdate();
 125:main.c        **** }
 126:main.c        **** 
 127:main.c        **** CY_ISR(Drift_Check_IH){    
 128:main.c        ****     Drift_Check_Timer_ReadStatusRegister(); //Clears the interrupt
 129:main.c        ****     Drift_Check_Timer_Stop(); //Stops the timer
 130:main.c        ****     motor1EncoderCounts = Motor_1_Encoder_Counts_ReadCounter();
 131:main.c        ****     motor2EncoderCounts = Motor_2_Encoder_Counts_ReadCounter();
 132:main.c        ****     driftCorrect(); //Does checking
 133:main.c        **** }
ARM GAS  C:\Users\Misha\AppData\Local\Temp\cc8yPQTr.s 			page 5


 134:main.c        **** */
 135:main.c        **** 
 136:main.c        **** int main(void)
 137:main.c        **** {
  96              		.loc 1 137 0
  97              		.cfi_startproc
  98              		@ args = 0, pretend = 0, frame = 0
  99              		@ frame_needed = 0, uses_anonymous_args = 0
 100 0000 2DE9F047 		push	{r4, r5, r6, r7, r8, r9, r10, lr}
 101              		.cfi_def_cfa_offset 32
 102              		.cfi_offset 4, -32
 103              		.cfi_offset 5, -28
 104              		.cfi_offset 6, -24
 105              		.cfi_offset 7, -20
 106              		.cfi_offset 8, -16
 107              		.cfi_offset 9, -12
 108              		.cfi_offset 10, -8
 109              		.cfi_offset 14, -4
 110 0004 82B0     		sub	sp, sp, #8
 111              		.cfi_def_cfa_offset 40
 138:main.c        ****     CyGlobalIntEnable; /* Enable global interrupts. */
 112              		.loc 1 138 0
 113              		.syntax unified
 114              	@ 138 "main.c" 1
 115 0006 62B6     		CPSIE   i
 116              	@ 0 "" 2
 139:main.c        **** 
 140:main.c        ****     
 141:main.c        ****     TIA_1_Start();
 117              		.loc 1 141 0
 118              		.thumb
 119              		.syntax unified
 120 0008 FFF7FEFF 		bl	TIA_1_Start
 121              	.LVL3:
 142:main.c        ****     UART_1_Start();
 122              		.loc 1 142 0
 123 000c FFF7FEFF 		bl	UART_1_Start
 124              	.LVL4:
 143:main.c        ****     UART_1_PutString("UART commencing... \n");
 125              		.loc 1 143 0
 126 0010 B848     		ldr	r0, .L49
 127 0012 FFF7FEFF 		bl	UART_1_PutString
 128              	.LVL5:
 144:main.c        ****     ADC_Start();
 129              		.loc 1 144 0
 130 0016 FFF7FEFF 		bl	ADC_Start
 131              	.LVL6:
 145:main.c        ****     IDAC8_1_Start();
 132              		.loc 1 145 0
 133 001a FFF7FEFF 		bl	IDAC8_1_Start
 134              	.LVL7:
 146:main.c        ****     
 147:main.c        ****     // DEBUGGING:
 148:main.c        ****         // Moved to debugging.c file, set it there
 149:main.c        ****     
 150:main.c        ****     
 151:main.c        ****     // IDAC initialisation: 
ARM GAS  C:\Users\Misha\AppData\Local\Temp\cc8yPQTr.s 			page 6


 152:main.c        ****     IDAC8_1_SetRange(IDAC8_1_RANGE_32uA);       // Sets the range between 0 and 32uA
 135              		.loc 1 152 0
 136 001e 0020     		movs	r0, #0
 137 0020 FFF7FEFF 		bl	IDAC8_1_SetRange
 138              	.LVL8:
 153:main.c        ****     IDAC8_1_SetValue(idac_value);               // set a value between 0 and 255
 139              		.loc 1 153 0
 140 0024 B44C     		ldr	r4, .L49+4
 141 0026 207A     		ldrb	r0, [r4, #8]	@ zero_extendqisi2
 142 0028 FFF7FEFF 		bl	IDAC8_1_SetValue
 143              	.LVL9:
 154:main.c        ****     
 155:main.c        ****     // Colour Sensing Initialisation & Debugging:
 156:main.c        ****     colour_sensing_algorithm = 0;
 144              		.loc 1 156 0
 145 002c 0025     		movs	r5, #0
 146 002e E560     		str	r5, [r4, #12]
 157:main.c        ****     control_photodiode_Write(colour_sensing_algorithm);            // controls which photodiode is 
 147              		.loc 1 157 0
 148 0030 2846     		mov	r0, r5
 149 0032 FFF7FEFF 		bl	control_photodiode_Write
 150              	.LVL10:
 158:main.c        ****                                                 // 0: wall
 159:main.c        ****                                                 // 1: claw
 160:main.c        ****     control_led_Write(1);   CyDelay(500);  // Ensures all the RGBs are working
 151              		.loc 1 160 0
 152 0036 0120     		movs	r0, #1
 153 0038 FFF7FEFF 		bl	control_led_Write
 154              	.LVL11:
 155 003c 4FF4FA70 		mov	r0, #500
 156 0040 FFF7FEFF 		bl	CyDelay
 157              	.LVL12:
 161:main.c        ****     control_led_Write(2);   CyDelay(500);
 158              		.loc 1 161 0
 159 0044 0220     		movs	r0, #2
 160 0046 FFF7FEFF 		bl	control_led_Write
 161              	.LVL13:
 162 004a 4FF4FA70 		mov	r0, #500
 163 004e FFF7FEFF 		bl	CyDelay
 164              	.LVL14:
 162:main.c        ****     control_led_Write(3);   CyDelay(500);
 165              		.loc 1 162 0
 166 0052 0320     		movs	r0, #3
 167 0054 FFF7FEFF 		bl	control_led_Write
 168              	.LVL15:
 169 0058 4FF4FA70 		mov	r0, #500
 170 005c FFF7FEFF 		bl	CyDelay
 171              	.LVL16:
 163:main.c        ****     control_led_Write(0);   CyDelay(500);
 172              		.loc 1 163 0
 173 0060 2846     		mov	r0, r5
 174 0062 FFF7FEFF 		bl	control_led_Write
 175              	.LVL17:
 176 0066 4FF4FA70 		mov	r0, #500
 177 006a FFF7FEFF 		bl	CyDelay
 178              	.LVL18:
 164:main.c        ****     colourSensingInitialise();                  // Initialises the colour sensor
ARM GAS  C:\Users\Misha\AppData\Local\Temp\cc8yPQTr.s 			page 7


 179              		.loc 1 164 0
 180 006e FFF7FEFF 		bl	colourSensingInitialise
 181              	.LVL19:
 165:main.c        ****     
 166:main.c        **** 
 167:main.c        ****     //Servos for the arm instatination
 168:main.c        ****     Rack_Servo_PWM_Start();
 182              		.loc 1 168 0
 183 0072 FFF7FEFF 		bl	Rack_Servo_PWM_Start
 184              	.LVL20:
 169:main.c        ****     Rack_Servo_PWM_WriteCompare(1000);          // BRINGs rack to highest position, so not to mess 
 185              		.loc 1 169 0
 186 0076 4FF47A70 		mov	r0, #1000
 187 007a FFF7FEFF 		bl	Rack_Servo_PWM_WriteCompare
 188              	.LVL21:
 170:main.c        ****     CyDelay(500);
 189              		.loc 1 170 0
 190 007e 4FF4FA70 		mov	r0, #500
 191 0082 FFF7FEFF 		bl	CyDelay
 192              	.LVL22:
 171:main.c        ****     Rack_Servo_PWM_Sleep();
 193              		.loc 1 171 0
 194 0086 FFF7FEFF 		bl	Rack_Servo_PWM_Sleep
 195              	.LVL23:
 172:main.c        ****     
 173:main.c        ****     Gripper_Servo_PWM_Start();
 196              		.loc 1 173 0
 197 008a FFF7FEFF 		bl	Gripper_Servo_PWM_Start
 198              	.LVL24:
 174:main.c        ****     Gripper_Servo_PWM_WriteCompare(1120);       //This is the open gripper position
 199              		.loc 1 174 0
 200 008e 4FF48C60 		mov	r0, #1120
 201 0092 FFF7FEFF 		bl	Gripper_Servo_PWM_WriteCompare
 202              	.LVL25:
 175:main.c        ****     CyDelay(500);
 203              		.loc 1 175 0
 204 0096 4FF4FA70 		mov	r0, #500
 205 009a FFF7FEFF 		bl	CyDelay
 206              	.LVL26:
 176:main.c        ****     Gripper_Servo_PWM_Sleep();
 207              		.loc 1 176 0
 208 009e FFF7FEFF 		bl	Gripper_Servo_PWM_Sleep
 209              	.LVL27:
 177:main.c        ****     
 178:main.c        ****     // Motors Initialisation:
 179:main.c        ****     Motor_Left_Driver_Start();
 210              		.loc 1 179 0
 211 00a2 FFF7FEFF 		bl	Motor_Left_Driver_Start
 212              	.LVL28:
 180:main.c        ****     Motor_Right_Driver_Start();
 213              		.loc 1 180 0
 214 00a6 FFF7FEFF 		bl	Motor_Right_Driver_Start
 215              	.LVL29:
 181:main.c        ****     Motor_Left_Driver_WriteCompare(0);          // sets the motors to 0 so it will be smooth next t
 216              		.loc 1 181 0
 217 00aa 2846     		mov	r0, r5
 218 00ac FFF7FEFF 		bl	Motor_Left_Driver_WriteCompare
ARM GAS  C:\Users\Misha\AppData\Local\Temp\cc8yPQTr.s 			page 8


 219              	.LVL30:
 182:main.c        ****     Motor_Right_Driver_WriteCompare(0);
 220              		.loc 1 182 0
 221 00b0 2846     		mov	r0, r5
 222 00b2 FFF7FEFF 		bl	Motor_Right_Driver_WriteCompare
 223              	.LVL31:
 183:main.c        ****     Motor_Left_Driver_Sleep();                  // Puts motor to sleep
 224              		.loc 1 183 0
 225 00b6 FFF7FEFF 		bl	Motor_Left_Driver_Sleep
 226              	.LVL32:
 184:main.c        ****     Motor_Right_Driver_Sleep();                 // Puts motor to sleep
 227              		.loc 1 184 0
 228 00ba FFF7FEFF 		bl	Motor_Right_Driver_Sleep
 229              	.LVL33:
 185:main.c        ****     
 186:main.c        ****     Motor_Left_Decoder_Start();
 230              		.loc 1 186 0
 231 00be FFF7FEFF 		bl	Motor_Left_Decoder_Start
 232              	.LVL34:
 187:main.c        ****     Motor_Right_Decoder_Start();
 233              		.loc 1 187 0
 234 00c2 FFF7FEFF 		bl	Motor_Right_Decoder_Start
 235              	.LVL35:
 188:main.c        ****     
 189:main.c        ****     internal_orientation = WEST;                // robot initial starts in the East direction
 236              		.loc 1 189 0
 237 00c6 0326     		movs	r6, #3
 238 00c8 8C4B     		ldr	r3, .L49+8
 239 00ca 1E60     		str	r6, [r3]
 190:main.c        ****     
 191:main.c        ****     // Timer and ISR instantiation
 192:main.c        ****     Timer_1_Start();                
 240              		.loc 1 192 0
 241 00cc FFF7FEFF 		bl	Timer_1_Start
 242              	.LVL36:
 193:main.c        ****     Timer_1_ReadStatusRegister();
 243              		.loc 1 193 0
 244 00d0 FFF7FEFF 		bl	Timer_1_ReadStatusRegister
 245              	.LVL37:
 194:main.c        ****     Sonic_StartEx(TIH);
 246              		.loc 1 194 0
 247 00d4 8A48     		ldr	r0, .L49+12
 248 00d6 FFF7FEFF 		bl	Sonic_StartEx
 249              	.LVL38:
 195:main.c        ****     Start_StartEx(StartIH);
 250              		.loc 1 195 0
 251 00da 8A48     		ldr	r0, .L49+16
 252 00dc FFF7FEFF 		bl	Start_StartEx
 253              	.LVL39:
 196:main.c        ****     beginNavigation = 1; // Set to true after it has run ISR at least once
 254              		.loc 1 196 0
 255 00e0 0127     		movs	r7, #1
 256 00e2 2760     		str	r7, [r4]
 197:main.c        ****     
 198:main.c        ****     // Ultrasonic Initialisation & Calibration:
 199:main.c        ****     // The ultrasonics take several test measurements to ensure they are working
 200:main.c        ****         
ARM GAS  C:\Users\Misha\AppData\Local\Temp\cc8yPQTr.s 			page 9


 201:main.c        ****     UART_1_PutString("Ultrasonic Calibration tests: \n");
 257              		.loc 1 201 0
 258 00e4 8848     		ldr	r0, .L49+20
 259 00e6 FFF7FEFF 		bl	UART_1_PutString
 260              	.LVL40:
 202:main.c        ****     safetyDistanceCheck();
 261              		.loc 1 202 0
 262 00ea FFF7FEFF 		bl	safetyDistanceCheck
 263              	.LVL41:
 203:main.c        ****     safetyDistanceCheck();
 264              		.loc 1 203 0
 265 00ee FFF7FEFF 		bl	safetyDistanceCheck
 266              	.LVL42:
 204:main.c        ****     safetyDistanceCheck();
 267              		.loc 1 204 0
 268 00f2 FFF7FEFF 		bl	safetyDistanceCheck
 269              	.LVL43:
 205:main.c        ****     
 206:main.c        ****     // Straight adjust timer: 
 207:main.c        ****     Timer_straight_adjust_Start();                
 270              		.loc 1 207 0
 271 00f6 FFF7FEFF 		bl	Timer_straight_adjust_Start
 272              	.LVL44:
 208:main.c        ****     Timer_straight_adjust_ReadStatusRegister();
 273              		.loc 1 208 0
 274 00fa FFF7FEFF 		bl	Timer_straight_adjust_ReadStatusRegister
 275              	.LVL45:
 209:main.c        ****     Control_Reset_Straight_Write(0);
 276              		.loc 1 209 0
 277 00fe 2846     		mov	r0, r5
 278 0100 FFF7FEFF 		bl	Control_Reset_Straight_Write
 279              	.LVL46:
 210:main.c        ****     
 211:main.c        ****     // FORCING STATE:
 212:main.c        ****     // Manual state set for testing
 213:main.c        ****     state = STATE_PRE_RUN;
 280              		.loc 1 213 0
 281 0104 6560     		str	r5, [r4, #4]
 214:main.c        ****     puckConstructionPlan[0] = RED;
 282              		.loc 1 214 0
 283 0106 2761     		str	r7, [r4, #16]
 215:main.c        ****     puckConstructionPlan[1] = GREEN;
 284              		.loc 1 215 0
 285 0108 0223     		movs	r3, #2
 286 010a 6361     		str	r3, [r4, #20]
 216:main.c        ****     puckConstructionPlan[2] = BLUE;
 287              		.loc 1 216 0
 288 010c A661     		str	r6, [r4, #24]
 289              	.LVL47:
 290              	.L46:
 217:main.c        ****     int block_and_puck_edge_midpoint = 0;
 218:main.c        ****     
 219:main.c        **** 
 220:main.c        ****     // Main Loop for States
 221:main.c        ****     
 222:main.c        ****     //while(1){}
 223:main.c        ****     
ARM GAS  C:\Users\Misha\AppData\Local\Temp\cc8yPQTr.s 			page 10


 224:main.c        ****     for(;;)
 225:main.c        ****     {
 226:main.c        **** 
 227:main.c        ****         if (state == STATE_PRE_RUN){
 228:main.c        ****         
 229:main.c        ****         }
 230:main.c        ****         
 231:main.c        ****         //changeOrientation(SOUTH, SPEED);
 232:main.c        ****         //changeOrientation(NORTH, SPEED);
 233:main.c        ****         //changeOrientation(WEST, SPEED);
 234:main.c        ****         
 235:main.c        ****         //while(1) {}
 236:main.c        ****         
 237:main.c        **** 
 238:main.c        ****         
 239:main.c        ****         
 240:main.c        ****         while(0) {
 241:main.c        ****                 UART_1_PutString("turning left\n");
 242:main.c        ****                 moveSwivel(-25,20,FALSE);
 243:main.c        ****                 UART_1_PutString("turning right \n");
 244:main.c        ****                 moveSwivel(25,20,FALSE);
 245:main.c        ****         }
 246:main.c        ****         
 247:main.c        ****         while(0){
 248:main.c        ****             distanceSensor(SIDE_LEFT);
 249:main.c        ****             CyDelay(60);
 250:main.c        ****             sprintf(output, "%d \t", ultrasonic_distances_mm[SIDE_LEFT]);
 251:main.c        ****             UART_1_PutString(output);
 252:main.c        ****         }
 253:main.c        ****         
 254:main.c        ****         
 255:main.c        ****         
 256:main.c        ****         
 257:main.c        ****         
 258:main.c        ****         //changeHeightToPuck(GROUND,NEITHER);
 259:main.c        ****         //moveUntilPuck(CLAW_BLACK_PUCK_ALGORITHM);
 260:main.c        ****         //translateUntil(150, LEFT, LESS_THAN, SIDE_LEFT, SPEED);
 261:main.c        ****         
 262:main.c        ****         //while(1);
 263:main.c        ****         
 264:main.c        ****        
 265:main.c        ****         
 266:main.c        ****         /*
 267:main.c        ****         for (int i = 0; i < 6; i++) {
 268:main.c        ****             translateMoveDynamic(10, -15, 100, FALSE);      // This will translate to the right by 
 269:main.c        ****         }
 270:main.c        ****         
 271:main.c        ****         for (int i = 0; i < 6; i++) {
 272:main.c        ****             translateMoveDynamic(-10, 15, 100, FALSE);      // This will translate to the left by o
 273:main.c        ****         }
 274:main.c        ****         */
 275:main.c        ****         
 276:main.c        ****         
 277:main.c        ****         // checks the distance measured by the ultrasonic
 278:main.c        ****         //moveDynamic(move,SPEED,TRUE);
 279:main.c        ****         //moveDynamic(-move,SPEED,TRUE);
 280:main.c        ****         
ARM GAS  C:\Users\Misha\AppData\Local\Temp\cc8yPQTr.s 			page 11


 281:main.c        ****         // wasnt moving for some of the tests 
 282:main.c        ****             
 283:main.c        ****         
 284:main.c        ****     
 285:main.c        ****         // Start button is pressed so quit sensing
 286:main.c        **** 
 287:main.c        ****         
 288:main.c        ****         /*
 289:main.c        ****         while (beginNavigation == 0) {
 290:main.c        ****             distanceCheck();           
 291:main.c        ****             UART_1_PutString("\n");
 292:main.c        ****             CyDelay(1000); // Check distance once a second.
 293:main.c        ****                 
 294:main.c        ****         }
 295:main.c        ****         */
 296:main.c        ****         
 297:main.c        ****         
 298:main.c        ****         
 299:main.c        ****         
 300:main.c        ****         
 301:main.c        ****         // Enter picking up puck state for the moment FOR TESTING
 302:main.c        ****         //colour_sensing_algorithm = 1;
 303:main.c        ****         //control_photodiode_Write(1);
 304:main.c        ****         //state = STATE_FIND_REQUIRED_PUCK;
 305:main.c        ****         
 306:main.c        ****         
 307:main.c        ****      
 308:main.c        ****         
 309:main.c        ****         //state = STATE_FIND_REQUIRED_PUCK;
 310:main.c        ****         
 311:main.c        ****         //moveUntil(100,FORWARD,GREATER_THAN,SIDE_LEFT,SPEED);
 312:main.c        ****         
 313:main.c        ****         //while(1) {};
 314:main.c        ****         
 315:main.c        ****         
 316:main.c        ****         // state = STATE_LOCATE_BLOCK_AND_PUCKS;
 317:main.c        ****         
 318:main.c        ****         
 319:main.c        ****         //UART_1_PutString("hI");
 320:main.c        ****         
 321:main.c        ****         //changeOrientation(NORTH, SPEED);
 322:main.c        ****         //changeOrientation(WEST, SPEED);
 323:main.c        ****                 
 324:main.c        ****         //state = STATE_DEPOSIT_PUCK;
 325:main.c        ****         //currentPuckStackSize = 2;
 326:main.c        ****         //current_stage = 3;
 327:main.c        ****          
 328:main.c        **** //
 329:main.c        **** // *** 1. STATE SCAN PLAN: *** // 
 330:main.c        **** //
 331:main.c        ****         
 332:main.c        **** 
 333:main.c        ****         
 334:main.c        ****         
 335:main.c        ****         
 336:main.c        ****         if (state == STATE_SCAN_PLAN) {              // colour sensing, while switch has not been p
 291              		.loc 1 336 0
ARM GAS  C:\Users\Misha\AppData\Local\Temp\cc8yPQTr.s 			page 12


 292 010e 7A4B     		ldr	r3, .L49+4
 293 0110 5B68     		ldr	r3, [r3, #4]
 294 0112 012B     		cmp	r3, #1
 295 0114 4FD1     		bne	.L9
 296              	.LBB2:
 337:main.c        ****             
 338:main.c        ****             
 339:main.c        ****             
 340:main.c        ****             // Debugging: 
 341:main.c        ****         
 342:main.c        ****             ultimateDebugging();        // If any of the debugging flags are activated, this will b
 297              		.loc 1 342 0
 298 0116 FFF7FEFF 		bl	ultimateDebugging
 299              	.LVL48:
 343:main.c        **** 
 344:main.c        ****             
 345:main.c        ****             
 346:main.c        ****             // Checking translating function:
 347:main.c        ****             
 348:main.c        ****             //straightAdjust();
 349:main.c        ****             //blinkLED(GREEN,1000);
 350:main.c        ****             //moveSwivel(180, SPEED_LOW, FALSE);
 351:main.c        ****             //straightAdjustBack();
 352:main.c        ****             //blinkLED(GREEN, 1000);
 353:main.c        ****             
 354:main.c        ****             //while(1) {}
 355:main.c        ****             
 356:main.c        ****             // TRUE START:
 357:main.c        ****                 
 358:main.c        ****             
 359:main.c        ****             while(0){
 360:main.c        ****                 moveUntil(400, FORWARD, LESS_THAN, FRONT_LEFT, SPEED, TRUE);
 361:main.c        ****                 moveDynamic(-450, SPEED, TRUE);
 362:main.c        ****                 CyDelay(500);   
 363:main.c        ****                 colourSensingInitialise();      // Initialises wall colour sensor against the black
 364:main.c        ****                 CyDelay(500);
 365:main.c        ****                 moveDynamic(170, SPEED, TRUE);
 366:main.c        ****                 CyDelay(500);
 367:main.c        ****                 
 368:main.c        ****                 
 369:main.c        ****                 
 370:main.c        ****                 for (int i = 0; i < 5; i++) {                       // scan each of the pucks 
 371:main.c        ****                     puckRackColours[i] = colourSensingOutput();
 372:main.c        ****                     CyDelay(500);
 373:main.c        ****                     moveDynamic(61, SPEED, TRUE);
 374:main.c        ****                     CyDelay(500);
 375:main.c        ****                 }
 376:main.c        ****             
 377:main.c        ****             }
 378:main.c        **** 
 379:main.c        **** 
 380:main.c        ****             
 381:main.c        ****             straightAdjust(FRONT_SENSORS);
 300              		.loc 1 381 0
 301 011a 0720     		movs	r0, #7
 302 011c FFF7FEFF 		bl	straightAdjust
 303              	.LVL49:
ARM GAS  C:\Users\Misha\AppData\Local\Temp\cc8yPQTr.s 			page 13


 382:main.c        ****             moveUntil(-100, BACKWARD, LESS_THAN, BACK, SPEED, TRUE);
 304              		.loc 1 382 0
 305 0120 0123     		movs	r3, #1
 306 0122 0193     		str	r3, [sp, #4]
 307 0124 C823     		movs	r3, #200
 308 0126 0093     		str	r3, [sp]
 309 0128 0423     		movs	r3, #4
 310 012a 1A46     		mov	r2, r3
 311 012c 0021     		movs	r1, #0
 312 012e 6FF06300 		mvn	r0, #99
 313 0132 FFF7FEFF 		bl	moveUntil
 314              	.LVL50:
 383:main.c        ****             colourSensingInitialise();      // Initialises wall colour sensor against the black wal
 315              		.loc 1 383 0
 316 0136 FFF7FEFF 		bl	colourSensingInitialise
 317              	.LVL51:
 318              	.LBB3:
 384:main.c        ****                         
 385:main.c        ****             
 386:main.c        ****             
 387:main.c        ****             for (int i = 0; i < 5; i++) { 
 319              		.loc 1 387 0
 320 013a 0024     		movs	r4, #0
 321 013c 0AE0     		b	.L10
 322              	.LVL52:
 323              	.L11:
 388:main.c        ****                 // scan each of the pucks 
 389:main.c        ****                 //moveUntil(puckRackOffsetsFromWest[i]);
 390:main.c        ****                 puckRackColours[i] = colourSensingOutput();
 324              		.loc 1 390 0 discriminator 3
 325 013e FFF7FEFF 		bl	colourSensingOutput
 326              	.LVL53:
 327 0142 6D4B     		ldr	r3, .L49+4
 328 0144 03EB8403 		add	r3, r3, r4, lsl #2
 329 0148 D861     		str	r0, [r3, #28]
 391:main.c        ****                 CyDelay(500);
 330              		.loc 1 391 0 discriminator 3
 331 014a 4FF4FA70 		mov	r0, #500
 332 014e FFF7FEFF 		bl	CyDelay
 333              	.LVL54:
 387:main.c        ****                 // scan each of the pucks 
 334              		.loc 1 387 0 discriminator 3
 335 0152 0134     		adds	r4, r4, #1
 336              	.LVL55:
 337              	.L10:
 387:main.c        ****                 // scan each of the pucks 
 338              		.loc 1 387 0 is_stmt 0 discriminator 1
 339 0154 042C     		cmp	r4, #4
 340 0156 F2DD     		ble	.L11
 341              	.LBE3:
 392:main.c        **** 
 393:main.c        ****             //straightAdjust();
 394:main.c        ****             }
 395:main.c        ****             
 396:main.c        ****             UART_1_PutString("Found Colours: \n");
 342              		.loc 1 396 0 is_stmt 1
 343 0158 6C48     		ldr	r0, .L49+24
ARM GAS  C:\Users\Misha\AppData\Local\Temp\cc8yPQTr.s 			page 14


 344 015a FFF7FEFF 		bl	UART_1_PutString
 345              	.LVL56:
 346              	.LBB4:
 397:main.c        ****             for (int i = 0; i < 5; i++) 
 347              		.loc 1 397 0
 348 015e 0024     		movs	r4, #0
 349              	.LVL57:
 350 0160 0CE0     		b	.L12
 351              	.LVL58:
 352              	.L13:
 398:main.c        ****             {
 399:main.c        ****                 sprintf(output, "%i \n", puckRackColours[i]);    // updates UART showing values of 
 353              		.loc 1 399 0 discriminator 3
 354 0162 654B     		ldr	r3, .L49+4
 355 0164 03EB8403 		add	r3, r3, r4, lsl #2
 356 0168 694D     		ldr	r5, .L49+28
 357 016a DA69     		ldr	r2, [r3, #28]
 358 016c 6949     		ldr	r1, .L49+32
 359 016e 2846     		mov	r0, r5
 360 0170 FFF7FEFF 		bl	sprintf
 361              	.LVL59:
 400:main.c        ****                 UART_1_PutString(output);
 362              		.loc 1 400 0 discriminator 3
 363 0174 2846     		mov	r0, r5
 364 0176 FFF7FEFF 		bl	UART_1_PutString
 365              	.LVL60:
 397:main.c        ****             for (int i = 0; i < 5; i++) 
 366              		.loc 1 397 0 discriminator 3
 367 017a 0134     		adds	r4, r4, #1
 368              	.LVL61:
 369              	.L12:
 397:main.c        ****             for (int i = 0; i < 5; i++) 
 370              		.loc 1 397 0 is_stmt 0 discriminator 1
 371 017c 042C     		cmp	r4, #4
 372 017e F0DD     		ble	.L13
 373              	.LBE4:
 401:main.c        ****             }
 402:main.c        ****             
 403:main.c        ****             
 404:main.c        ****             control_photodiode_Write(CLAW_SENSING);    // changes to claw photodiode
 374              		.loc 1 404 0 is_stmt 1
 375 0180 0120     		movs	r0, #1
 376 0182 FFF7FEFF 		bl	control_photodiode_Write
 377              	.LVL62:
 405:main.c        ****             colour_sensing_algorithm = CLAW_1_ALGORITHM;   // changes it to claw algorithm
 378              		.loc 1 405 0
 379 0186 0122     		movs	r2, #1
 380 0188 5B4B     		ldr	r3, .L49+4
 381 018a DA60     		str	r2, [r3, #12]
 382              	.LVL63:
 383              	.LBB5:
 406:main.c        ****                                  
 407:main.c        ****             // THEN WE FILTER THE NO PUCK VALUES:
 408:main.c        ****             int puckConstructionPlanIndex = 0; // Will be used to iterate through the 3 puck colour
 409:main.c        ****             
 410:main.c        ****             // Iterate over all 5 rack slots and place the 3 colours into puckConstructionPlan.
 411:main.c        ****             for (int puckRackIndex = 0; puckRackIndex < 5; puckRackIndex++){
ARM GAS  C:\Users\Misha\AppData\Local\Temp\cc8yPQTr.s 			page 15


 384              		.loc 1 411 0
 385 018c 0023     		movs	r3, #0
 386              	.LBE5:
 408:main.c        ****             
 387              		.loc 1 408 0
 388 018e 1A46     		mov	r2, r3
 389              	.LBB6:
 390              		.loc 1 411 0
 391 0190 0CE0     		b	.L14
 392              	.LVL64:
 393              	.L16:
 412:main.c        ****                 if (puckRackColours[puckRackIndex] != BLANK && puckConstructionPlanIndex != 3){
 394              		.loc 1 412 0
 395 0192 5949     		ldr	r1, .L49+4
 396 0194 01EB8301 		add	r1, r1, r3, lsl #2
 397 0198 C869     		ldr	r0, [r1, #28]
 398 019a 30B1     		cbz	r0, .L15
 399              		.loc 1 412 0 is_stmt 0 discriminator 1
 400 019c 032A     		cmp	r2, #3
 401 019e 04D0     		beq	.L15
 413:main.c        ****                     puckConstructionPlan[puckConstructionPlanIndex] = puckRackColours[puckRackIndex
 402              		.loc 1 413 0 is_stmt 1
 403 01a0 5549     		ldr	r1, .L49+4
 404 01a2 01EB8201 		add	r1, r1, r2, lsl #2
 405 01a6 0861     		str	r0, [r1, #16]
 414:main.c        ****                     puckConstructionPlanIndex++;
 406              		.loc 1 414 0
 407 01a8 0132     		adds	r2, r2, #1
 408              	.LVL65:
 409              	.L15:
 411:main.c        ****                 if (puckRackColours[puckRackIndex] != BLANK && puckConstructionPlanIndex != 3){
 410              		.loc 1 411 0 discriminator 2
 411 01aa 0133     		adds	r3, r3, #1
 412              	.LVL66:
 413              	.L14:
 411:main.c        ****                 if (puckRackColours[puckRackIndex] != BLANK && puckConstructionPlanIndex != 3){
 414              		.loc 1 411 0 is_stmt 0 discriminator 1
 415 01ac 042B     		cmp	r3, #4
 416 01ae F0DD     		ble	.L16
 417              	.LBE6:
 415:main.c        ****                 }
 416:main.c        ****             }
 417:main.c        ****                     
 418:main.c        ****             // MOVE into the next state: 
 419:main.c        ****             state = STATE_LOCATE_BLOCK_AND_PUCKS;
 418              		.loc 1 419 0 is_stmt 1
 419 01b0 0222     		movs	r2, #2
 420              	.LVL67:
 421 01b2 514B     		ldr	r3, .L49+4
 422              	.LVL68:
 423 01b4 5A60     		str	r2, [r3, #4]
 424              	.LVL69:
 425              	.L9:
 426              	.LBE2:
 420:main.c        ****             
 421:main.c        ****             /*
 422:main.c        ****             if (!moving){
ARM GAS  C:\Users\Misha\AppData\Local\Temp\cc8yPQTr.s 			page 16


 423:main.c        ****                 moving = 1;
 424:main.c        ****             if (initialisation){moveBackwardIndefinitely(); initialisation = 0;}
 425:main.c        ****             else {moveForwardIndefinitely();}        
 426:main.c        **** 
 427:main.c        ****             moveAndAngle(SCAN_INITIALISE_HORIZONTAL,PLAN_SCAN_VERTICAL,WEST_ANGLE); // Move beyond 
 428:main.c        ****             
 429:main.c        ****             // Read the black wall
 430:main.c        ****             
 431:main.c        ****             for (currentPuckRackScanningIndex = 0; currentPuckRackScanningIndex <= 4; currentPuckRa
 432:main.c        ****                 moveAndAngle(puckRackOffsetsFromWest[currentPuckRackScanningIndex],PLAN_SCAN_VERTIC
 433:main.c        ****                 puckRackColours[currentPuckRackScanningIndex] = colourSensingOutput();
 434:main.c        ****             }
 435:main.c        ****    
 436:main.c        ****             */
 437:main.c        ****         }
 438:main.c        **** 
 439:main.c        **** //
 440:main.c        **** // *** 2. STATE LOCATE BLOCKS AND PUCKS: *** // 
 441:main.c        **** //
 442:main.c        ****         
 443:main.c        ****     	if (state == STATE_LOCATE_BLOCK_AND_PUCKS){
 427              		.loc 1 443 0
 428 01b6 504B     		ldr	r3, .L49+4
 429 01b8 5B68     		ldr	r3, [r3, #4]
 430 01ba 022B     		cmp	r3, #2
 431 01bc 40F00582 		bne	.L17
 432              	.LBB7:
 444:main.c        ****             
 445:main.c        **** 
 446:main.c        ****             ultimateDebugging();   
 433              		.loc 1 446 0
 434 01c0 FFF7FEFF 		bl	ultimateDebugging
 435              	.LVL70:
 447:main.c        **** 
 448:main.c        ****             // move away from home base:
 449:main.c        ****             
 450:main.c        ****             translateMoveDynamic(25, -35, 100, FALSE);
 436              		.loc 1 450 0
 437 01c4 0023     		movs	r3, #0
 438 01c6 6422     		movs	r2, #100
 439 01c8 6FF02201 		mvn	r1, #34
 440 01cc 1920     		movs	r0, #25
 441 01ce FFF7FEFF 		bl	translateMoveDynamic
 442              	.LVL71:
 451:main.c        ****             straightAdjust(FRONT_SENSORS);
 443              		.loc 1 451 0
 444 01d2 0720     		movs	r0, #7
 445 01d4 FFF7FEFF 		bl	straightAdjust
 446              	.LVL72:
 452:main.c        ****     
 453:main.c        ****             // Move until construction zone            
 454:main.c        ****             moveUntil(130, FORWARD, LESS_THAN, FRONT_LEFT, SPEED, TRUE);  // Move to west wall
 447              		.loc 1 454 0
 448 01d8 0121     		movs	r1, #1
 449 01da 0191     		str	r1, [sp, #4]
 450 01dc C823     		movs	r3, #200
 451 01de 0093     		str	r3, [sp]
ARM GAS  C:\Users\Misha\AppData\Local\Temp\cc8yPQTr.s 			page 17


 452 01e0 0023     		movs	r3, #0
 453 01e2 0422     		movs	r2, #4
 454 01e4 8220     		movs	r0, #130
 455 01e6 FFF7FEFF 		bl	moveUntil
 456              	.LVL73:
 455:main.c        ****             straightAdjust(FRONT_SENSORS);                                      // straighten again
 457              		.loc 1 455 0
 458 01ea 0720     		movs	r0, #7
 459 01ec FFF7FEFF 		bl	straightAdjust
 460              	.LVL74:
 456:main.c        ****             
 457:main.c        ****             // SCAN FOR BLOCKS:
 458:main.c        ****             
 459:main.c        ****             distanceSensor(SIDE_LEFT);  // takes how far we are away from home base wall
 461              		.loc 1 459 0
 462 01f0 0220     		movs	r0, #2
 463 01f2 FFF7FEFF 		bl	distanceSensor
 464              	.LVL75:
 460:main.c        ****             while (ultrasonic_distances_mm[SIDE_LEFT] > (BLOCK_ZONE_SOUTH - WIDTH_SENSOR_TO_SENSOR)
 465              		.loc 1 460 0
 466 01f6 02E0     		b	.L18
 467              	.L19:
 461:main.c        ****                 // stays in while loop until side left value taken is appropriate
 462:main.c        ****                 // E.g. the side left value should be less than BLOCK_ZONE_SOUTH - WIDTH_SENSOR_TO_
 463:main.c        ****                 // So, it should be less than 500mm - 220mm = 280mm
 464:main.c        ****                 distanceSensor(SIDE_LEFT);
 468              		.loc 1 464 0
 469 01f8 0220     		movs	r0, #2
 470 01fa FFF7FEFF 		bl	distanceSensor
 471              	.LVL76:
 472              	.L18:
 460:main.c        ****             while (ultrasonic_distances_mm[SIDE_LEFT] > (BLOCK_ZONE_SOUTH - WIDTH_SENSOR_TO_SENSOR)
 473              		.loc 1 460 0
 474 01fe 464B     		ldr	r3, .L49+36
 475 0200 9D68     		ldr	r5, [r3, #8]
 476 0202 B5F58C7F 		cmp	r5, #280
 477 0206 F7DC     		bgt	.L19
 465:main.c        ****                } 
 466:main.c        ****             
 467:main.c        ****             
 468:main.c        ****             int block_check = BLOCK_ZONE_NORTH - ultrasonic_distances_mm[SIDE_LEFT] - WIDTH_SENSOR_
 478              		.loc 1 468 0
 479 0208 C5F50375 		rsb	r5, r5, #524
 480 020c 0135     		adds	r5, r5, #1
 481              	.LVL77:
 469:main.c        ****                 // TAKES our distance from north wall, 
 470:main.c        ****                 // takes distance from arena, takes away 
 471:main.c        ****                 // minus 50 is a tolerance
 472:main.c        ****                 // This equals 700MM - leftside - 220mm + 45 = 525mm maximum, but we'll be away fro
 473:main.c        ****             
 474:main.c        ****             sprintf(output, "distance from robot to block: %d \t", block_check);
 482              		.loc 1 474 0
 483 020e 404C     		ldr	r4, .L49+28
 484 0210 2A46     		mov	r2, r5
 485 0212 4249     		ldr	r1, .L49+40
 486 0214 2046     		mov	r0, r4
 487 0216 FFF7FEFF 		bl	sprintf
ARM GAS  C:\Users\Misha\AppData\Local\Temp\cc8yPQTr.s 			page 18


 488              	.LVL78:
 475:main.c        ****             UART_1_PutString(output);
 489              		.loc 1 475 0
 490 021a 2046     		mov	r0, r4
 491 021c FFF7FEFF 		bl	UART_1_PutString
 492              	.LVL79:
 476:main.c        ****             
 477:main.c        ****             //block_check = 350;  // This is a default length that isn't dynamic, the block check
 478:main.c        ****             
 479:main.c        ****             
 480:main.c        ****             // Stopping at the West side of the block: 
 481:main.c        ****             moveUntil(block_check, BACKWARD, LESS_THAN, SIDE_RIGHT, SPEED, TRUE);   
 493              		.loc 1 481 0
 494 0220 0123     		movs	r3, #1
 495 0222 0193     		str	r3, [sp, #4]
 496 0224 C823     		movs	r3, #200
 497 0226 0093     		str	r3, [sp]
 498 0228 0323     		movs	r3, #3
 499 022a 0422     		movs	r2, #4
 500 022c 0021     		movs	r1, #0
 501 022e 2846     		mov	r0, r5
 502 0230 FFF7FEFF 		bl	moveUntil
 503              	.LVL80:
 482:main.c        ****                                 // this will move backwards until it hits the block or the wall
 483:main.c        ****             blinkLED(GREEN,1000);      // To show it ended at the correct spot
 504              		.loc 1 483 0
 505 0234 4FF47A71 		mov	r1, #1000
 506 0238 0220     		movs	r0, #2
 507 023a FFF7FEFF 		bl	blinkLED
 508              	.LVL81:
 484:main.c        ****             
 485:main.c        ****             
 486:main.c        ****             // Update the west clearance of the block: 
 487:main.c        ****             
 488:main.c        ****             //toleranceCheck();       // This checks if the values being polled are appropriate 
 489:main.c        ****             
 490:main.c        ****             straightAdjust(FRONT_SENSORS);
 509              		.loc 1 490 0
 510 023e 0720     		movs	r0, #7
 511 0240 FFF7FEFF 		bl	straightAdjust
 512              	.LVL82:
 491:main.c        ****             distanceSensor(FRONT_LEFT); // Use front_right instead? 
 513              		.loc 1 491 0
 514 0244 0020     		movs	r0, #0
 515 0246 FFF7FEFF 		bl	distanceSensor
 516              	.LVL83:
 492:main.c        ****             CyDelay(DELAY);
 517              		.loc 1 492 0
 518 024a 3C20     		movs	r0, #60
 519 024c FFF7FEFF 		bl	CyDelay
 520              	.LVL84:
 493:main.c        ****             
 494:main.c        ****             block_location[WEST] = ultrasonic_distances_mm[FRONT_LEFT] + DISTANCE_FRONT_SENSOR_TO_S
 521              		.loc 1 494 0
 522 0250 314C     		ldr	r4, .L49+36
 523 0252 2368     		ldr	r3, [r4]
 524 0254 9633     		adds	r3, r3, #150
ARM GAS  C:\Users\Misha\AppData\Local\Temp\cc8yPQTr.s 			page 19


 525 0256 284E     		ldr	r6, .L49+4
 526 0258 F363     		str	r3, [r6, #60]
 495:main.c        ****             
 496:main.c        ****  
 497:main.c        ****             //straightAdjust();                   // Ensure we are straight to take measurements
 498:main.c        ****                                                   // may need to readjust this 
 499:main.c        ****             
 500:main.c        ****             
 501:main.c        ****             // Move back a bit to find the left side and right side values (adds a bit of tolerance
 502:main.c        ****             //moveDynamic(-(BLOCK_WIDTH/2), SPEED, TRUE);   
 503:main.c        ****             // Double check if the above is required
 504:main.c        ****             
 505:main.c        ****             //straightAdjust();                   // Ensure we are straight to take measurements
 506:main.c        ****                                                 // may need to readjust this 
 507:main.c        ****             
 508:main.c        ****             
 509:main.c        ****             // Updating the South Clearances of the object: 
 510:main.c        ****             
 511:main.c        ****             distanceSensor(SIDE_RIGHT); 
 527              		.loc 1 511 0
 528 025a 0320     		movs	r0, #3
 529 025c FFF7FEFF 		bl	distanceSensor
 530              	.LVL85:
 512:main.c        ****             CyDelay(60); 
 531              		.loc 1 512 0
 532 0260 3C20     		movs	r0, #60
 533 0262 FFF7FEFF 		bl	CyDelay
 534              	.LVL86:
 513:main.c        ****             distanceSensor(SIDE_LEFT); 
 535              		.loc 1 513 0
 536 0266 0220     		movs	r0, #2
 537 0268 FFF7FEFF 		bl	distanceSensor
 538              	.LVL87:
 514:main.c        ****             CyDelay(60); 
 539              		.loc 1 514 0
 540 026c 3C20     		movs	r0, #60
 541 026e FFF7FEFF 		bl	CyDelay
 542              	.LVL88:
 515:main.c        ****             
 516:main.c        ****             block_location[SOUTH] = ultrasonic_distances_mm[SIDE_LEFT] + WIDTH_SENSOR_TO_SENSOR + u
 543              		.loc 1 516 0
 544 0272 A368     		ldr	r3, [r4, #8]
 545 0274 03F1DC02 		add	r2, r3, #220
 546 0278 E368     		ldr	r3, [r4, #12]
 547 027a 1344     		add	r3, r3, r2
 548 027c B363     		str	r3, [r6, #56]
 517:main.c        ****             
 518:main.c        ****             // Check that the value makes sense: 
 519:main.c        ****             if (block_location[SOUTH] > block_check) {
 549              		.loc 1 519 0
 550 027e 9D42     		cmp	r5, r3
 551 0280 17DA     		bge	.L20
 520:main.c        ****                 moveDynamic(-(BLOCK_WIDTH/2),SPEED,TRUE);
 552              		.loc 1 520 0
 553 0282 0122     		movs	r2, #1
 554 0284 C821     		movs	r1, #200
 555 0286 6FF02C00 		mvn	r0, #44
ARM GAS  C:\Users\Misha\AppData\Local\Temp\cc8yPQTr.s 			page 20


 556 028a FFF7FEFF 		bl	moveDynamic
 557              	.LVL89:
 521:main.c        ****                 
 522:main.c        ****                 distanceSensor(SIDE_RIGHT); 
 558              		.loc 1 522 0
 559 028e 0320     		movs	r0, #3
 560 0290 FFF7FEFF 		bl	distanceSensor
 561              	.LVL90:
 523:main.c        ****                 CyDelay(60); 
 562              		.loc 1 523 0
 563 0294 3C20     		movs	r0, #60
 564 0296 FFF7FEFF 		bl	CyDelay
 565              	.LVL91:
 524:main.c        ****                 distanceSensor(SIDE_LEFT); 
 566              		.loc 1 524 0
 567 029a 0220     		movs	r0, #2
 568 029c FFF7FEFF 		bl	distanceSensor
 569              	.LVL92:
 525:main.c        ****                 CyDelay(60); 
 570              		.loc 1 525 0
 571 02a0 3C20     		movs	r0, #60
 572 02a2 FFF7FEFF 		bl	CyDelay
 573              	.LVL93:
 526:main.c        ****             
 527:main.c        ****             block_location[SOUTH] = ultrasonic_distances_mm[SIDE_LEFT] + WIDTH_SENSOR_TO_SENSOR + u
 574              		.loc 1 527 0
 575 02a6 A368     		ldr	r3, [r4, #8]
 576 02a8 03F1DC02 		add	r2, r3, #220
 577 02ac E368     		ldr	r3, [r4, #12]
 578 02ae 1344     		add	r3, r3, r2
 579 02b0 B363     		str	r3, [r6, #56]
 580              	.L20:
 528:main.c        ****             }
 529:main.c        ****             
 530:main.c        ****             // Stopping at the East side of the block: 
 531:main.c        ****             moveUntil(block_check, BACKWARD, GREATER_THAN, SIDE_RIGHT, SPEED, TRUE);  
 581              		.loc 1 531 0
 582 02b2 0123     		movs	r3, #1
 583 02b4 0193     		str	r3, [sp, #4]
 584 02b6 C823     		movs	r3, #200
 585 02b8 0093     		str	r3, [sp]
 586 02ba 0323     		movs	r3, #3
 587 02bc 0522     		movs	r2, #5
 588 02be 0021     		movs	r1, #0
 589 02c0 2846     		mov	r0, r5
 590 02c2 FFF7FEFF 		bl	moveUntil
 591              	.LVL94:
 532:main.c        ****                                 // this will move backwards until no longer hitting the block, or t
 533:main.c        ****             blinkLED(GREEN,1000);      // To show it ended at the correct spot
 592              		.loc 1 533 0
 593 02c6 4FF47A71 		mov	r1, #1000
 594 02ca 0220     		movs	r0, #2
 595 02cc FFF7FEFF 		bl	blinkLED
 596              	.LVL95:
 534:main.c        ****             
 535:main.c        ****             // Updating the East Clearance:
 536:main.c        ****             block_location[EAST] = ultrasonic_distances_mm[BACK] + DISTANCE_BACK_SENSOR_TO_SIDE_SEN
ARM GAS  C:\Users\Misha\AppData\Local\Temp\cc8yPQTr.s 			page 21


 597              		.loc 1 536 0
 598 02d0 114B     		ldr	r3, .L49+36
 599 02d2 1B69     		ldr	r3, [r3, #16]
 600 02d4 6433     		adds	r3, r3, #100
 601 02d6 084A     		ldr	r2, .L49+4
 602 02d8 5363     		str	r3, [r2, #52]
 537:main.c        ****                                                         // double check the distance back sensor to
 538:main.c        ****                 
 539:main.c        ****             // Updating the North Clearance: 
 540:main.c        ****             if (ARENA_WIDTH - block_location[EAST] - block_location[EAST] > BLOCK_WIDTH) {
 603              		.loc 1 540 0
 604 02da C3F59662 		rsb	r2, r3, #1200
 605 02de D31A     		subs	r3, r2, r3
 606 02e0 5A2B     		cmp	r3, #90
 607 02e2 1DDD     		ble	.L21
 541:main.c        ****                 // block is " -- " this orientation
 542:main.c        ****                 block_location[NORTH] = ARENA_WIDTH - block_location[SOUTH] - BLOCK_WIDTH;         
 608              		.loc 1 542 0
 609 02e4 044A     		ldr	r2, .L49+4
 610 02e6 936B     		ldr	r3, [r2, #56]
 611 02e8 C3F58A63 		rsb	r3, r3, #1104
 612 02ec 0633     		adds	r3, r3, #6
 613 02ee 1363     		str	r3, [r2, #48]
 614 02f0 1CE0     		b	.L22
 615              	.L50:
 616 02f2 00BF     		.align	2
 617              	.L49:
 618 02f4 18000000 		.word	.LC1
 619 02f8 00000000 		.word	.LANCHOR0
 620 02fc 00000000 		.word	internal_orientation
 621 0300 00000000 		.word	TIH
 622 0304 00000000 		.word	StartIH
 623 0308 30000000 		.word	.LC2
 624 030c 50000000 		.word	.LC3
 625 0310 00000000 		.word	output
 626 0314 64000000 		.word	.LC4
 627 0318 00000000 		.word	ultrasonic_distances_mm
 628 031c 6C000000 		.word	.LC5
 629              	.L21:
 543:main.c        ****             }
 544:main.c        ****             else {
 545:main.c        ****                 // block is " | " this orientation
 546:main.c        ****                 block_location[NORTH] = ARENA_WIDTH - block_location[SOUTH] - BLOCK_LENGTH;
 630              		.loc 1 546 0
 631 0320 C74A     		ldr	r2, .L51+8
 632 0322 936B     		ldr	r3, [r2, #56]
 633 0324 C3F56D73 		rsb	r3, r3, #948
 634 0328 0233     		adds	r3, r3, #2
 635 032a 1363     		str	r3, [r2, #48]
 636              	.L22:
 547:main.c        ****             }
 548:main.c        ****             
 549:main.c        **** 
 550:main.c        ****             /*
 551:main.c        ****             // If either of the following cases are true, we can just put in default values, 
 552:main.c        ****                 // as it will be easy to circumvent the block
 553:main.c        ****                 // This orientation will be unlikely 
ARM GAS  C:\Users\Misha\AppData\Local\Temp\cc8yPQTr.s 			page 22


 554:main.c        ****             
 555:main.c        ****             if (ultrasonic_distances_mm[BACK] < SAFETY_MARGIN + 50) {
 556:main.c        ****                 // block is " | " this orientation, and close to the side wall
 557:main.c        ****                 
 558:main.c        ****                 // Fill out all the details: 
 559:main.c        ****                 block_location[NORTH] = ARENA_WIDTH - ultrasonic_distances_mm[SIDE_LEFT] - ultrason
 560:main.c        ****                 block_location[EAST] = 0;
 561:main.c        ****                 block_location[SOUTH] = ultrasonic_distances_mm[SIDE_LEFT] + WIDTH_SENSOR_TO_SENSOR
 562:main.c        ****                 block_location[WEST] = ARENA_WIDTH - BLOCK_WIDTH; 
 563:main.c        ****                 
 564:main.c        ****             }
 565:main.c        ****             if (ultrasonic_distances_mm[BACK] < BLOCK_LENGTH + 50) {
 566:main.c        ****                 // block is " -- " this orientation, and close to the side wall 
 567:main.c        ****                 
 568:main.c        ****                 // Fill out all the details: 
 569:main.c        ****                 block_location[NORTH] = ARENA_WIDTH - ultrasonic_distances_mm[SIDE_LEFT] - ultrason
 570:main.c        ****                 block_location[EAST] = 0;
 571:main.c        ****                 block_location[SOUTH] = ultrasonic_distances_mm[SIDE_LEFT] + WIDTH_SENSOR_TO_SENSOR
 572:main.c        ****                 block_location[WEST] = ARENA_WIDTH - BLOCK_LENGTH; 
 573:main.c        ****             }
 574:main.c        ****             
 575:main.c        **** 
 576:main.c        ****             // Block location values:
 577:main.c        ****             block_location[SOUTH] = ultrasonic_distances_mm[SIDE_LEFT] + WIDTH_SENSOR_TO_SENSOR + u
 578:main.c        ****             block_location[WEST] = ultrasonic_distances_mm[FRONT_LEFT] + DISTANCE_FRONT_SENSOR_TO_S
 579:main.c        ****             CyDelay(1000);         
 580:main.c        ****             
 581:main.c        ****             */
 582:main.c        ****             
 583:main.c        ****             
 584:main.c        ****             //PRINTING BLOCK LOCATIONS: 
 585:main.c        ****             sprintf(output, "north: %d, \n", block_location[NORTH]);       
 637              		.loc 1 585 0
 638 032c C44F     		ldr	r7, .L51+8
 639 032e C54C     		ldr	r4, .L51+12
 640 0330 3A6B     		ldr	r2, [r7, #48]
 641 0332 C549     		ldr	r1, .L51+16
 642 0334 2046     		mov	r0, r4
 643 0336 FFF7FEFF 		bl	sprintf
 644              	.LVL96:
 586:main.c        ****             UART_1_PutString(output);
 645              		.loc 1 586 0
 646 033a 2046     		mov	r0, r4
 647 033c FFF7FEFF 		bl	UART_1_PutString
 648              	.LVL97:
 587:main.c        ****             sprintf(output, "east: %d, \n", block_location[EAST]);       
 649              		.loc 1 587 0
 650 0340 7A6B     		ldr	r2, [r7, #52]
 651 0342 C249     		ldr	r1, .L51+20
 652 0344 2046     		mov	r0, r4
 653 0346 FFF7FEFF 		bl	sprintf
 654              	.LVL98:
 588:main.c        ****             UART_1_PutString(output);
 655              		.loc 1 588 0
 656 034a 2046     		mov	r0, r4
 657 034c FFF7FEFF 		bl	UART_1_PutString
 658              	.LVL99:
ARM GAS  C:\Users\Misha\AppData\Local\Temp\cc8yPQTr.s 			page 23


 589:main.c        ****             sprintf(output, "south: %d, \n", block_location[SOUTH]);       
 659              		.loc 1 589 0
 660 0350 BA6B     		ldr	r2, [r7, #56]
 661 0352 BF49     		ldr	r1, .L51+24
 662 0354 2046     		mov	r0, r4
 663 0356 FFF7FEFF 		bl	sprintf
 664              	.LVL100:
 590:main.c        ****             UART_1_PutString(output);
 665              		.loc 1 590 0
 666 035a 2046     		mov	r0, r4
 667 035c FFF7FEFF 		bl	UART_1_PutString
 668              	.LVL101:
 591:main.c        ****             sprintf(output, "west: %d, \n", block_location[WEST]);       
 669              		.loc 1 591 0
 670 0360 FA6B     		ldr	r2, [r7, #60]
 671 0362 BC49     		ldr	r1, .L51+28
 672 0364 2046     		mov	r0, r4
 673 0366 FFF7FEFF 		bl	sprintf
 674              	.LVL102:
 592:main.c        ****             UART_1_PutString(output);
 675              		.loc 1 592 0
 676 036a 2046     		mov	r0, r4
 677 036c FFF7FEFF 		bl	UART_1_PutString
 678              	.LVL103:
 593:main.c        ****             
 594:main.c        ****             
 595:main.c        ****             // Start moving forward to find the location of the PUCKS:           
 596:main.c        ****             changeOrientation(EAST, SPEED);                             // No matter where we are t
 679              		.loc 1 596 0
 680 0370 C821     		movs	r1, #200
 681 0372 0120     		movs	r0, #1
 682 0374 FFF7FEFF 		bl	changeOrientation
 683              	.LVL104:
 597:main.c        ****             moveUntil(150, FORWARD, LESS_THAN, FRONT_LEFT, SPEED, TRUE);
 684              		.loc 1 597 0
 685 0378 4FF00109 		mov	r9, #1
 686 037c CDF80490 		str	r9, [sp, #4]
 687 0380 4FF0C80A 		mov	r10, #200
 688 0384 CDF800A0 		str	r10, [sp]
 689 0388 0023     		movs	r3, #0
 690 038a 0422     		movs	r2, #4
 691 038c 4946     		mov	r1, r9
 692 038e 9620     		movs	r0, #150
 693 0390 FFF7FEFF 		bl	moveUntil
 694              	.LVL105:
 598:main.c        ****                     // above code could be inefficient if puck is closer to west side of arena 
 599:main.c        ****             straightAdjust(FRONT_SENSORS);
 695              		.loc 1 599 0
 696 0394 0720     		movs	r0, #7
 697 0396 FFF7FEFF 		bl	straightAdjust
 698              	.LVL106:
 600:main.c        ****             
 601:main.c        ****             distanceSensor(SIDE_RIGHT);
 699              		.loc 1 601 0
 700 039a 0320     		movs	r0, #3
 701 039c FFF7FEFF 		bl	distanceSensor
 702              	.LVL107:
ARM GAS  C:\Users\Misha\AppData\Local\Temp\cc8yPQTr.s 			page 24


 602:main.c        ****             CyDelay(50);
 703              		.loc 1 602 0
 704 03a0 3220     		movs	r0, #50
 705 03a2 FFF7FEFF 		bl	CyDelay
 706              	.LVL108:
 603:main.c        ****             
 604:main.c        ****             sprintf(output, "%d \t", ultrasonic_distances_mm[SIDE_RIGHT]);
 707              		.loc 1 604 0
 708 03a6 DFF8B882 		ldr	r8, .L51+40
 709 03aa D8F80C20 		ldr	r2, [r8, #12]
 710 03ae AA49     		ldr	r1, .L51+32
 711 03b0 2046     		mov	r0, r4
 712 03b2 FFF7FEFF 		bl	sprintf
 713              	.LVL109:
 605:main.c        ****             UART_1_PutString(output);
 714              		.loc 1 605 0
 715 03b6 2046     		mov	r0, r4
 716 03b8 FFF7FEFF 		bl	UART_1_PutString
 717              	.LVL110:
 606:main.c        ****             
 607:main.c        ****             int puck_check = ARENA_LENGTH - PUCK_GRID_FROM_NORTH - ultrasonic_distances_mm[SIDE_RIG
 718              		.loc 1 607 0
 719 03bc D8F80C60 		ldr	r6, [r8, #12]
 720 03c0 C6F54976 		rsb	r6, r6, #804
 721 03c4 4E44     		add	r6, r6, r9
 722              	.LVL111:
 608:main.c        ****             //puck_check = 700;
 609:main.c        ****             
 610:main.c        ****             sprintf(output, "puck check: %d, \n", puck_check);       
 723              		.loc 1 610 0
 724 03c6 3246     		mov	r2, r6
 725 03c8 A449     		ldr	r1, .L51+36
 726 03ca 2046     		mov	r0, r4
 727 03cc FFF7FEFF 		bl	sprintf
 728              	.LVL112:
 611:main.c        ****             UART_1_PutString(output);
 729              		.loc 1 611 0
 730 03d0 2046     		mov	r0, r4
 731 03d2 FFF7FEFF 		bl	UART_1_PutString
 732              	.LVL113:
 612:main.c        ****                         
 613:main.c        ****             // Check front and back sensors:
 614:main.c        ****             moveUntil(puck_check, BACKWARD, LESS_THAN, SIDE_LEFT, SPEED, TRUE);   // this will move
 733              		.loc 1 614 0
 734 03d6 CDF80490 		str	r9, [sp, #4]
 735 03da CDF800A0 		str	r10, [sp]
 736 03de 0223     		movs	r3, #2
 737 03e0 0422     		movs	r2, #4
 738 03e2 0021     		movs	r1, #0
 739 03e4 3046     		mov	r0, r6
 740 03e6 FFF7FEFF 		bl	moveUntil
 741              	.LVL114:
 615:main.c        ****             
 616:main.c        ****             
 617:main.c        ****             distanceSensor(FRONT_LEFT);
 742              		.loc 1 617 0
 743 03ea 0020     		movs	r0, #0
ARM GAS  C:\Users\Misha\AppData\Local\Temp\cc8yPQTr.s 			page 25


 744 03ec FFF7FEFF 		bl	distanceSensor
 745              	.LVL115:
 618:main.c        ****             CyDelay(DELAY);
 746              		.loc 1 618 0
 747 03f0 3C20     		movs	r0, #60
 748 03f2 FFF7FEFF 		bl	CyDelay
 749              	.LVL116:
 619:main.c        ****             distanceSensor(BACK);
 750              		.loc 1 619 0
 751 03f6 0420     		movs	r0, #4
 752 03f8 FFF7FEFF 		bl	distanceSensor
 753              	.LVL117:
 620:main.c        ****             CyDelay(DELAY);
 754              		.loc 1 620 0
 755 03fc 3C20     		movs	r0, #60
 756 03fe FFF7FEFF 		bl	CyDelay
 757              	.LVL118:
 621:main.c        ****             
 622:main.c        ****             
 623:main.c        ****             
 624:main.c        ****             // checking if accidentally detected block:
 625:main.c        ****             // if the distance we are at is less than the block, we can say we didnt detect the blo
 626:main.c        ****                 // or the distance measured hittin the puck is greater than the puck threshold 
 627:main.c        ****             if (ultrasonic_distances_mm[FRONT_LEFT] + DISTANCE_FRONT_SENSOR_TO_SIDE_SENSOR < block_
 758              		.loc 1 627 0
 759 0402 D8F80040 		ldr	r4, [r8]
 760 0406 9634     		adds	r4, r4, #150
 761 0408 7B6B     		ldr	r3, [r7, #52]
 762 040a 9C42     		cmp	r4, r3
 763 040c 03DB     		blt	.L23
 628:main.c        ****                     || ultrasonic_distances_mm[SIDE_LEFT] > block_check)
 764              		.loc 1 628 0
 765 040e D8F80830 		ldr	r3, [r8, #8]
 766 0412 9D42     		cmp	r5, r3
 767 0414 17DA     		bge	.L24
 768              	.L23:
 769              	.LBB8:
 629:main.c        ****             {
 630:main.c        ****                 
 631:main.c        ****                 int offset = ultrasonic_distances_mm[SIDE_LEFT]*sin(18*M_PI/180);
 770              		.loc 1 631 0
 771 0416 924B     		ldr	r3, .L51+40
 772 0418 9868     		ldr	r0, [r3, #8]
 773 041a FFF7FEFF 		bl	__aeabi_i2d
 774              	.LVL119:
 775 041e 86A3     		adr	r3, .L51
 776 0420 D3E90023 		ldrd	r2, [r3]
 777 0424 FFF7FEFF 		bl	__aeabi_dmul
 778              	.LVL120:
 779 0428 FFF7FEFF 		bl	__aeabi_d2iz
 780              	.LVL121:
 632:main.c        ****                 // puck detected
 633:main.c        ****                 // puck detectedDISTANCE_FRONT_SENSOR_TO_SIDE_SENSOR
 634:main.c        ****                 puck_location[EAST] = ultrasonic_distances_mm[FRONT_LEFT] + DISTANCE_FRONT_SENSOR_T
 781              		.loc 1 634 0
 782 042c 2044     		add	r0, r0, r4
 783              	.LVL122:
ARM GAS  C:\Users\Misha\AppData\Local\Temp\cc8yPQTr.s 			page 26


 784 042e 844A     		ldr	r2, .L51+8
 785 0430 5064     		str	r0, [r2, #68]
 635:main.c        ****                 puck_location[WEST] = ARENA_WIDTH - puck_location[EAST] - PUCK_GRID_WIDTH;
 786              		.loc 1 635 0
 787 0432 C0F56873 		rsb	r3, r0, #928
 788 0436 0233     		adds	r3, r3, #2
 789 0438 D364     		str	r3, [r2, #76]
 636:main.c        ****                 
 637:main.c        ****                 blinkLED(GREEN,1000);   // puck location was succesfully found
 790              		.loc 1 637 0
 791 043a 4FF47A71 		mov	r1, #1000
 792 043e 0220     		movs	r0, #2
 793 0440 FFF7FEFF 		bl	blinkLED
 794              	.LVL123:
 795              	.LBE8:
 629:main.c        ****                 
 796              		.loc 1 629 0
 797 0444 53E0     		b	.L25
 798              	.L24:
 799              	.LBB9:
 638:main.c        ****             }
 639:main.c        ****             else {
 640:main.c        ****                 // block detected & rescans from opposite side:
 641:main.c        ****                 
 642:main.c        ****                 blinkLED(RED,1000); // indicates we hit the block instead 
 800              		.loc 1 642 0
 801 0446 4FF47A71 		mov	r1, #1000
 802 044a 0120     		movs	r0, #1
 803 044c FFF7FEFF 		bl	blinkLED
 804              	.LVL124:
 643:main.c        ****                 
 644:main.c        ****                 moveUntil(200, BACKWARD, LESS_THAN, BACK, SPEED, TRUE);   // This should take us to
 805              		.loc 1 644 0
 806 0450 0125     		movs	r5, #1
 807              	.LVL125:
 808 0452 0195     		str	r5, [sp, #4]
 809 0454 C824     		movs	r4, #200
 810 0456 0094     		str	r4, [sp]
 811 0458 0423     		movs	r3, #4
 812 045a 1A46     		mov	r2, r3
 813 045c 0021     		movs	r1, #0
 814 045e 2046     		mov	r0, r4
 815 0460 FFF7FEFF 		bl	moveUntil
 816              	.LVL126:
 645:main.c        ****                 changeOrientation(WEST, SPEED);
 817              		.loc 1 645 0
 818 0464 2146     		mov	r1, r4
 819 0466 0320     		movs	r0, #3
 820 0468 FFF7FEFF 		bl	changeOrientation
 821              	.LVL127:
 646:main.c        ****                 moveUntil(130, FORWARD, LESS_THAN, FRONT_LEFT, SPEED, TRUE);
 822              		.loc 1 646 0
 823 046c 0195     		str	r5, [sp, #4]
 824 046e 0094     		str	r4, [sp]
 825 0470 0023     		movs	r3, #0
 826 0472 0422     		movs	r2, #4
 827 0474 2946     		mov	r1, r5
ARM GAS  C:\Users\Misha\AppData\Local\Temp\cc8yPQTr.s 			page 27


 828 0476 8220     		movs	r0, #130
 829 0478 FFF7FEFF 		bl	moveUntil
 830              	.LVL128:
 647:main.c        ****                 straightAdjust(FRONT_SENSORS);   // adjusts against the wall
 831              		.loc 1 647 0
 832 047c 0720     		movs	r0, #7
 833 047e FFF7FEFF 		bl	straightAdjust
 834              	.LVL129:
 648:main.c        ****                 moveUntil(puck_check, BACKWARD, LESS_THAN, SIDE_RIGHT, SPEED, TRUE);   // this will
 835              		.loc 1 648 0
 836 0482 0195     		str	r5, [sp, #4]
 837 0484 0094     		str	r4, [sp]
 838 0486 0323     		movs	r3, #3
 839 0488 0422     		movs	r2, #4
 840 048a 0021     		movs	r1, #0
 841 048c 3046     		mov	r0, r6
 842 048e FFF7FEFF 		bl	moveUntil
 843              	.LVL130:
 649:main.c        ****                 blinkLED(GREEN,1000);   // Find the edge of the puck zone 
 844              		.loc 1 649 0
 845 0492 4FF47A71 		mov	r1, #1000
 846 0496 0220     		movs	r0, #2
 847 0498 FFF7FEFF 		bl	blinkLED
 848              	.LVL131:
 650:main.c        ****                                 
 651:main.c        ****                 distanceSensor(FRONT_LEFT);
 849              		.loc 1 651 0
 850 049c 0020     		movs	r0, #0
 851 049e FFF7FEFF 		bl	distanceSensor
 852              	.LVL132:
 652:main.c        ****                 CyDelay(DELAY);
 853              		.loc 1 652 0
 854 04a2 3C20     		movs	r0, #60
 855 04a4 FFF7FEFF 		bl	CyDelay
 856              	.LVL133:
 653:main.c        ****                 distanceSensor(BACK);
 857              		.loc 1 653 0
 858 04a8 0420     		movs	r0, #4
 859 04aa FFF7FEFF 		bl	distanceSensor
 860              	.LVL134:
 654:main.c        ****                 CyDelay(DELAY);
 861              		.loc 1 654 0
 862 04ae 3C20     		movs	r0, #60
 863 04b0 FFF7FEFF 		bl	CyDelay
 864              	.LVL135:
 655:main.c        ****                 
 656:main.c        ****                 int offset = ultrasonic_distances_mm[SIDE_RIGHT]*sin(18*M_PI/180);
 865              		.loc 1 656 0
 866 04b4 6A4C     		ldr	r4, .L51+40
 867 04b6 E068     		ldr	r0, [r4, #12]
 868 04b8 FFF7FEFF 		bl	__aeabi_i2d
 869              	.LVL136:
 870 04bc 5EA3     		adr	r3, .L51
 871 04be D3E90023 		ldrd	r2, [r3]
 872 04c2 FFF7FEFF 		bl	__aeabi_dmul
 873              	.LVL137:
 874 04c6 FFF7FEFF 		bl	__aeabi_d2iz
ARM GAS  C:\Users\Misha\AppData\Local\Temp\cc8yPQTr.s 			page 28


 875              	.LVL138:
 657:main.c        ****                 
 658:main.c        ****                 puck_location[WEST] = ultrasonic_distances_mm[FRONT_LEFT] + DISTANCE_FRONT_SENSOR_T
 876              		.loc 1 658 0
 877 04ca 2368     		ldr	r3, [r4]
 878 04cc 9633     		adds	r3, r3, #150
 879 04ce 1844     		add	r0, r0, r3
 880              	.LVL139:
 881 04d0 5B4A     		ldr	r2, .L51+8
 882 04d2 D064     		str	r0, [r2, #76]
 659:main.c        ****                 puck_location[EAST] = ARENA_WIDTH - puck_location[WEST] - PUCK_GRID_WIDTH;
 883              		.loc 1 659 0
 884 04d4 C0F56873 		rsb	r3, r0, #928
 885 04d8 0233     		adds	r3, r3, #2
 886 04da 5364     		str	r3, [r2, #68]
 660:main.c        ****                 
 661:main.c        ****                 if (ultrasonic_distances_mm[BACK] < 100 ) {
 887              		.loc 1 661 0
 888 04dc 2369     		ldr	r3, [r4, #16]
 889 04de 632B     		cmp	r3, #99
 890 04e0 05DC     		bgt	.L25
 662:main.c        ****                     // Assume that pucks are in NorthEast corner
 663:main.c        ****                     puck_location[EAST] = 100; 
 891              		.loc 1 663 0
 892 04e2 1346     		mov	r3, r2
 893 04e4 6422     		movs	r2, #100
 894 04e6 5A64     		str	r2, [r3, #68]
 664:main.c        ****                     puck_location[WEST] = 1200 - PUCK_GRID_WIDTH - 100;
 895              		.loc 1 664 0
 896 04e8 40F23E32 		movw	r2, #830
 897 04ec DA64     		str	r2, [r3, #76]
 898              	.L25:
 899              	.LBE9:
 665:main.c        ****                     
 666:main.c        ****                     
 667:main.c        ****                     // This might not work when the block is in another place and the pucks are rig
 668:main.c        ****                     // behind it and it doesnt trigger properly 
 669:main.c        ****                 }
 670:main.c        ****                 
 671:main.c        ****             }
 672:main.c        ****             
 673:main.c        ****             sprintf(output, "east puck: %d, \n", puck_location[EAST]);       
 900              		.loc 1 673 0
 901 04ee 544D     		ldr	r5, .L51+8
 902 04f0 544C     		ldr	r4, .L51+12
 903 04f2 6A6C     		ldr	r2, [r5, #68]
 904 04f4 5B49     		ldr	r1, .L51+44
 905 04f6 2046     		mov	r0, r4
 906 04f8 FFF7FEFF 		bl	sprintf
 907              	.LVL140:
 674:main.c        ****             UART_1_PutString(output);
 908              		.loc 1 674 0
 909 04fc 2046     		mov	r0, r4
 910 04fe FFF7FEFF 		bl	UART_1_PutString
 911              	.LVL141:
 675:main.c        ****             sprintf(output, "west puck: %d, \n", puck_location[WEST]);       
 912              		.loc 1 675 0
ARM GAS  C:\Users\Misha\AppData\Local\Temp\cc8yPQTr.s 			page 29


 913 0502 EA6C     		ldr	r2, [r5, #76]
 914 0504 5849     		ldr	r1, .L51+48
 915 0506 2046     		mov	r0, r4
 916 0508 FFF7FEFF 		bl	sprintf
 917              	.LVL142:
 676:main.c        ****             UART_1_PutString(output);
 918              		.loc 1 676 0
 919 050c 2046     		mov	r0, r4
 920 050e FFF7FEFF 		bl	UART_1_PutString
 921              	.LVL143:
 677:main.c        ****             sprintf(output, "east block: %d, \n", block_location[EAST]);       
 922              		.loc 1 677 0
 923 0512 6A6B     		ldr	r2, [r5, #52]
 924 0514 5549     		ldr	r1, .L51+52
 925 0516 2046     		mov	r0, r4
 926 0518 FFF7FEFF 		bl	sprintf
 927              	.LVL144:
 678:main.c        ****             UART_1_PutString(output);
 928              		.loc 1 678 0
 929 051c 2046     		mov	r0, r4
 930 051e FFF7FEFF 		bl	UART_1_PutString
 931              	.LVL145:
 679:main.c        ****             sprintf(output, "west block: %d, \n", block_location[WEST]);       
 932              		.loc 1 679 0
 933 0522 EA6B     		ldr	r2, [r5, #60]
 934 0524 5249     		ldr	r1, .L51+56
 935 0526 2046     		mov	r0, r4
 936 0528 FFF7FEFF 		bl	sprintf
 937              	.LVL146:
 680:main.c        ****             UART_1_PutString(output);
 938              		.loc 1 680 0
 939 052c 2046     		mov	r0, r4
 940 052e FFF7FEFF 		bl	UART_1_PutString
 941              	.LVL147:
 681:main.c        ****             
 682:main.c        ****             
 683:main.c        ****             
 684:main.c        ****             
 685:main.c        ****             
 686:main.c        ****             
 687:main.c        ****             // Finding the different block & puck clearances: 
 688:main.c        ****             
 689:main.c        ****                     // there should be a threshold that allows the robot to travel through a cleara
 690:main.c        ****                     // E.g. robot width + 100mm
 691:main.c        ****             
 692:main.c        ****                     // the robot will travel to the chosen (block_clearance/2) and travel down ther
 693:main.c        ****                     // so it is in the middle of the block clearance and the wall 
 694:main.c        ****             
 695:main.c        ****                     // check if between the edge of the block and the puck zone gives enough cleara
 696:main.c        ****                     
 697:main.c        ****             
 698:main.c        ****             if (block_location[EAST] > WIDTH_WHEEL_TO_WHEEL + BLOCK_TOLERANCE) {
 942              		.loc 1 698 0
 943 0532 6B6B     		ldr	r3, [r5, #52]
 944 0534 B3F5847F 		cmp	r3, #264
 945 0538 02DD     		ble	.L26
 699:main.c        ****                 // the east clearance of block check
ARM GAS  C:\Users\Misha\AppData\Local\Temp\cc8yPQTr.s 			page 30


 700:main.c        ****               blockEastClearance = 1;  
 946              		.loc 1 700 0
 947 053a 0122     		movs	r2, #1
 948 053c A5F85020 		strh	r2, [r5, #80]	@ movhi
 949              	.L26:
 701:main.c        ****             }
 702:main.c        ****             if (block_location[WEST] > WIDTH_WHEEL_TO_WHEEL + BLOCK_TOLERANCE) {
 950              		.loc 1 702 0
 951 0540 3F4B     		ldr	r3, .L51+8
 952 0542 DB6B     		ldr	r3, [r3, #60]
 953 0544 B3F5847F 		cmp	r3, #264
 954 0548 03DD     		ble	.L27
 703:main.c        ****                 // the east clearance of block check
 704:main.c        ****               blockWestClearance = 1;  
 955              		.loc 1 704 0
 956 054a 0122     		movs	r2, #1
 957 054c 3C4B     		ldr	r3, .L51+8
 958 054e A3F85220 		strh	r2, [r3, #82]	@ movhi
 959              	.L27:
 705:main.c        ****             }
 706:main.c        ****             if (puck_location[EAST] > WIDTH_WHEEL_TO_WHEEL + BLOCK_TOLERANCE) {
 960              		.loc 1 706 0
 961 0552 3B4B     		ldr	r3, .L51+8
 962 0554 5B6C     		ldr	r3, [r3, #68]
 963 0556 B3F5847F 		cmp	r3, #264
 964 055a 03DD     		ble	.L28
 707:main.c        ****                 // the east clearance of block check
 708:main.c        ****               puckEastClearance = 1;  
 965              		.loc 1 708 0
 966 055c 0122     		movs	r2, #1
 967 055e 384B     		ldr	r3, .L51+8
 968 0560 A3F85420 		strh	r2, [r3, #84]	@ movhi
 969              	.L28:
 709:main.c        ****             }
 710:main.c        ****             if (puck_location[WEST] > WIDTH_WHEEL_TO_WHEEL + BLOCK_TOLERANCE) {
 970              		.loc 1 710 0
 971 0564 364B     		ldr	r3, .L51+8
 972 0566 DB6C     		ldr	r3, [r3, #76]
 973 0568 B3F5847F 		cmp	r3, #264
 974 056c 03DD     		ble	.L29
 711:main.c        ****                 // the east clearance of block check
 712:main.c        ****               puckWestClearance = 1;  
 975              		.loc 1 712 0
 976 056e 0122     		movs	r2, #1
 977 0570 334B     		ldr	r3, .L51+8
 978 0572 A3F85620 		strh	r2, [r3, #86]	@ movhi
 979              	.L29:
 713:main.c        ****             }
 714:main.c        ****             
 715:main.c        ****             
 716:main.c        ****             //changeOrientation(WEST,SPEED);
 717:main.c        ****             //moveDynamic(-600, SPEED, TRUE);
 718:main.c        ****             //moveUntil((puck_location[EAST]/2),FORWARD, LESS_THAN, FRONT_LEFT, SPEED, TRUE);
 719:main.c        ****             //straightAdjust();
 720:main.c        ****             //changeOrientation(WEST,SPEED);
 721:main.c        ****             //moveUntil((PUCK_GRID_FROM_NORTH/2), FORWARD, LESS_THAN, FRONT_LEFT, SPEED,TRUE);
 722:main.c        ****             //straightAdjust();
ARM GAS  C:\Users\Misha\AppData\Local\Temp\cc8yPQTr.s 			page 31


 723:main.c        ****             //changeOrientation(EAST, SPEED);
 724:main.c        ****             ///oveDynamic(1200, SPEED, TRUE);
 725:main.c        ****             
 726:main.c        ****             moveUntil(200, BACKWARD, GREATER_THAN, FRONT_LEFT, SPEED, TRUE);
 980              		.loc 1 726 0
 981 0576 0125     		movs	r5, #1
 982 0578 0195     		str	r5, [sp, #4]
 983 057a C824     		movs	r4, #200
 984 057c 0094     		str	r4, [sp]
 985 057e 0023     		movs	r3, #0
 986 0580 0522     		movs	r2, #5
 987 0582 1946     		mov	r1, r3
 988 0584 2046     		mov	r0, r4
 989 0586 FFF7FEFF 		bl	moveUntil
 990              	.LVL148:
 727:main.c        ****             changeOrientation(SOUTH,SPEED);
 991              		.loc 1 727 0
 992 058a 2146     		mov	r1, r4
 993 058c 0220     		movs	r0, #2
 994 058e FFF7FEFF 		bl	changeOrientation
 995              	.LVL149:
 728:main.c        ****             changeOrientation(EAST, SPEED);
 996              		.loc 1 728 0
 997 0592 2146     		mov	r1, r4
 998 0594 2846     		mov	r0, r5
 999 0596 FFF7FEFF 		bl	changeOrientation
 1000              	.LVL150:
 729:main.c        ****             straightAdjust(FRONT_SENSORS);
 1001              		.loc 1 729 0
 1002 059a 0720     		movs	r0, #7
 1003 059c FFF7FEFF 		bl	straightAdjust
 1004              	.LVL151:
 730:main.c        ****             moveUntil(CLEARANCE_RADIUS_CENTER_TO_FRONT + SAFETY_MARGIN/2, FORWARD, LESS_THAN, FRONT
 1005              		.loc 1 730 0
 1006 05a0 0195     		str	r5, [sp, #4]
 1007 05a2 0094     		str	r4, [sp]
 1008 05a4 0023     		movs	r3, #0
 1009 05a6 0422     		movs	r2, #4
 1010 05a8 2946     		mov	r1, r5
 1011 05aa AC20     		movs	r0, #172
 1012 05ac FFF7FEFF 		bl	moveUntil
 1013              	.LVL152:
 731:main.c        ****             translateUntil(CLEARANCE_RADIUS_CENTER_TO_BACK - SAFETY_MARGIN, LEFT, GREATER_THAN, SID
 1014              		.loc 1 731 0
 1015 05b0 0094     		str	r4, [sp]
 1016 05b2 0323     		movs	r3, #3
 1017 05b4 0522     		movs	r2, #5
 1018 05b6 0221     		movs	r1, #2
 1019 05b8 9B20     		movs	r0, #155
 1020 05ba FFF7FEFF 		bl	translateUntil
 1021              	.LVL153:
 732:main.c        ****             straightAdjust(FRONT_SENSORS);
 1022              		.loc 1 732 0
 1023 05be 0720     		movs	r0, #7
 1024 05c0 FFF7FEFF 		bl	straightAdjust
 1025              	.LVL154:
 733:main.c        ****             
ARM GAS  C:\Users\Misha\AppData\Local\Temp\cc8yPQTr.s 			page 32


 734:main.c        ****             // PUCK has now been found, enter the IF statements to locate and pick up pucks 
 735:main.c        ****             state = STATE_GO_TO_PUCKS;
 1026              		.loc 1 735 0
 1027 05c4 0322     		movs	r2, #3
 1028 05c6 1E4B     		ldr	r3, .L51+8
 1029 05c8 5A60     		str	r2, [r3, #4]
 1030              	.LVL155:
 1031              	.L17:
 1032              	.LBE7:
 736:main.c        **** 	    }     
 737:main.c        **** 
 738:main.c        **** //
 739:main.c        **** // *** 3. STATE GO TO PUCKS: *** // 
 740:main.c        **** //
 741:main.c        **** 
 742:main.c        ****         // Ensure that we are @ east wall facing east at a minimum verticaldistance so we can turn 
 743:main.c        ****         
 744:main.c        ****         if (state == STATE_GO_TO_PUCKS){
 1033              		.loc 1 744 0
 1034 05ca 1D4B     		ldr	r3, .L51+8
 1035 05cc 5B68     		ldr	r3, [r3, #4]
 1036 05ce 032B     		cmp	r3, #3
 1037 05d0 40F0DE80 		bne	.L30
 745:main.c        ****             
 746:main.c        **** 
 747:main.c        ****             // The different route finding Algorithms for the different combinations: 
 748:main.c        ****             
 749:main.c        ****             if (blockEastClearance && puckEastClearance){
 1038              		.loc 1 749 0
 1039 05d4 1A4B     		ldr	r3, .L51+8
 1040 05d6 B3F95020 		ldrsh	r2, [r3, #80]
 1041 05da 002A     		cmp	r2, #0
 1042 05dc 4AD0     		beq	.L31
 1043              		.loc 1 749 0 is_stmt 0 discriminator 1
 1044 05de B3F95430 		ldrsh	r3, [r3, #84]
 1045 05e2 002B     		cmp	r3, #0
 1046 05e4 46D0     		beq	.L31
 750:main.c        ****                 
 751:main.c        ****                 moveUntil(WALL_CLEARANCE_FRONT, BACKWARD, GREATER_THAN, FRONT_LEFT, SPEED, TRUE);
 1047              		.loc 1 751 0 is_stmt 1
 1048 05e6 0125     		movs	r5, #1
 1049 05e8 0195     		str	r5, [sp, #4]
 1050 05ea C824     		movs	r4, #200
 1051 05ec 0094     		str	r4, [sp]
 1052 05ee 0023     		movs	r3, #0
 1053 05f0 0522     		movs	r2, #5
 1054 05f2 1946     		mov	r1, r3
 1055 05f4 AF20     		movs	r0, #175
 1056 05f6 FFF7FEFF 		bl	moveUntil
 1057              	.LVL156:
 752:main.c        ****                 straightAdjust(FRONT_SENSORS);
 1058              		.loc 1 752 0
 1059 05fa 0720     		movs	r0, #7
 1060 05fc FFF7FEFF 		bl	straightAdjust
 1061              	.LVL157:
 753:main.c        ****                 changeOrientation(NORTH, SPEED);
 1062              		.loc 1 753 0
ARM GAS  C:\Users\Misha\AppData\Local\Temp\cc8yPQTr.s 			page 33


 1063 0600 2146     		mov	r1, r4
 1064 0602 0020     		movs	r0, #0
 1065 0604 FFF7FEFF 		bl	changeOrientation
 1066              	.LVL158:
 754:main.c        ****                 //straightAdjust();
 755:main.c        ****                 moveUntil(PUCK_GRID_FROM_NORTH - DISTANCE_FRONT_SENSOR_FROM_CENTER - PUCK_GRID_DIST
 1067              		.loc 1 755 0
 1068 0608 0D4B     		ldr	r3, .L51+8
 1069 060a 986D     		ldr	r0, [r3, #88]
 1070 060c 6FF03603 		mvn	r3, #54
 1071 0610 03FB00F0 		mul	r0, r3, r0
 1072 0614 0195     		str	r5, [sp, #4]
 1073 0616 0094     		str	r4, [sp]
 1074 0618 0023     		movs	r3, #0
 1075 061a 0422     		movs	r2, #4
 1076 061c 2946     		mov	r1, r5
 1077 061e E130     		adds	r0, r0, #225
 1078 0620 FFF7FEFF 		bl	moveUntil
 1079              	.LVL159:
 756:main.c        ****                 straightAdjust(FRONT_SENSORS);
 1080              		.loc 1 756 0
 1081 0624 0720     		movs	r0, #7
 1082 0626 FFF7FEFF 		bl	straightAdjust
 1083              	.LVL160:
 757:main.c        ****                 changeOrientation(WEST, SPEED);
 1084              		.loc 1 757 0
 1085 062a 2146     		mov	r1, r4
 1086 062c 0320     		movs	r0, #3
 1087 062e FFF7FEFF 		bl	changeOrientation
 1088              	.LVL161:
 1089 0632 AAE0     		b	.L32
 1090              	.L52:
 1091 0634 AFF30080 		.align	3
 1092              	.L51:
 1093 0638 4FE92F37 		.word	925886799
 1094 063c EFC6D33F 		.word	1070843631
 1095 0640 00000000 		.word	.LANCHOR0
 1096 0644 00000000 		.word	output
 1097 0648 90000000 		.word	.LC6
 1098 064c A0000000 		.word	.LC7
 1099 0650 AC000000 		.word	.LC8
 1100 0654 BC000000 		.word	.LC9
 1101 0658 C8000000 		.word	.LC10
 1102 065c D0000000 		.word	.LC11
 1103 0660 00000000 		.word	ultrasonic_distances_mm
 1104 0664 E4000000 		.word	.LC12
 1105 0668 F8000000 		.word	.LC13
 1106 066c 0C010000 		.word	.LC14
 1107 0670 20010000 		.word	.LC15
 1108              	.L31:
 758:main.c        **** 
 759:main.c        ****                 
 760:main.c        ****                 
 761:main.c        ****             }
 762:main.c        ****             
 763:main.c        ****             else if (blockWestClearance && puckWestClearance){
 1109              		.loc 1 763 0
ARM GAS  C:\Users\Misha\AppData\Local\Temp\cc8yPQTr.s 			page 34


 1110 0674 A34B     		ldr	r3, .L53
 1111 0676 B3F95230 		ldrsh	r3, [r3, #82]
 1112 067a 6BB3     		cbz	r3, .L33
 1113              		.loc 1 763 0 is_stmt 0 discriminator 1
 1114 067c A149     		ldr	r1, .L53
 1115 067e B1F95610 		ldrsh	r1, [r1, #86]
 1116 0682 49B3     		cbz	r1, .L33
 764:main.c        ****             
 765:main.c        ****                 //moveUntil(CLEARANCE_RADIUS_CENTER_TO_FRONT, BACKWARD, GREATER_THAN, FRONT_LEFT, S
 766:main.c        ****                 moveUntil(CLEARANCE_RADIUS_CENTER_TO_BACK - DISTANCE_BACK_SENSOR_FROM_CENTER, BACKW
 1117              		.loc 1 766 0 is_stmt 1
 1118 0684 0124     		movs	r4, #1
 1119 0686 0194     		str	r4, [sp, #4]
 1120 0688 C825     		movs	r5, #200
 1121 068a 0095     		str	r5, [sp]
 1122 068c 0423     		movs	r3, #4
 1123 068e 1A46     		mov	r2, r3
 1124 0690 0021     		movs	r1, #0
 1125 0692 0A20     		movs	r0, #10
 1126 0694 FFF7FEFF 		bl	moveUntil
 1127              	.LVL162:
 767:main.c        ****                 straightAdjust(FRONT_SENSORS); //? Remove if it fucks things up
 1128              		.loc 1 767 0
 1129 0698 0720     		movs	r0, #7
 1130 069a FFF7FEFF 		bl	straightAdjust
 1131              	.LVL163:
 768:main.c        ****                 changeOrientation(NORTH, SPEED);
 1132              		.loc 1 768 0
 1133 069e 2946     		mov	r1, r5
 1134 06a0 0020     		movs	r0, #0
 1135 06a2 FFF7FEFF 		bl	changeOrientation
 1136              	.LVL164:
 769:main.c        ****                 straightAdjust(FRONT_SENSORS); //? Remove if it fucks things up
 1137              		.loc 1 769 0
 1138 06a6 0720     		movs	r0, #7
 1139 06a8 FFF7FEFF 		bl	straightAdjust
 1140              	.LVL165:
 770:main.c        ****                 moveUntil(PUCK_GRID_FROM_NORTH - DISTANCE_FRONT_SENSOR_FROM_CENTER - PUCK_GRID_DIST
 1141              		.loc 1 770 0
 1142 06ac 954B     		ldr	r3, .L53
 1143 06ae 986D     		ldr	r0, [r3, #88]
 1144 06b0 6FF03603 		mvn	r3, #54
 1145 06b4 03FB00F0 		mul	r0, r3, r0
 1146 06b8 0194     		str	r4, [sp, #4]
 1147 06ba 0095     		str	r5, [sp]
 1148 06bc 0023     		movs	r3, #0
 1149 06be 0422     		movs	r2, #4
 1150 06c0 2146     		mov	r1, r4
 1151 06c2 E130     		adds	r0, r0, #225
 1152 06c4 FFF7FEFF 		bl	moveUntil
 1153              	.LVL166:
 771:main.c        ****                 //translateMoveDynamic(CLEARANCE_RADIUS_CENTER_TO_BACK, 10, SPEED, FALSE); // Chang
 772:main.c        ****                 straightAdjust(FRONT_SENSORS);
 1154              		.loc 1 772 0
 1155 06c8 0720     		movs	r0, #7
 1156 06ca FFF7FEFF 		bl	straightAdjust
 1157              	.LVL167:
ARM GAS  C:\Users\Misha\AppData\Local\Temp\cc8yPQTr.s 			page 35


 773:main.c        ****                 changeOrientation(EAST, SPEED);
 1158              		.loc 1 773 0
 1159 06ce 2946     		mov	r1, r5
 1160 06d0 2046     		mov	r0, r4
 1161 06d2 FFF7FEFF 		bl	changeOrientation
 1162              	.LVL168:
 1163 06d6 58E0     		b	.L32
 1164              	.L33:
 774:main.c        **** 
 775:main.c        ****                             
 776:main.c        ****             }
 777:main.c        ****             
 778:main.c        ****             
 779:main.c        ****             else if (blockEastClearance && puckWestClearance){
 1165              		.loc 1 779 0
 1166 06d8 5AB3     		cbz	r2, .L34
 1167              		.loc 1 779 0 is_stmt 0 discriminator 1
 1168 06da 8A4A     		ldr	r2, .L53
 1169 06dc B2F95620 		ldrsh	r2, [r2, #86]
 1170 06e0 3AB3     		cbz	r2, .L34
 780:main.c        **** 
 781:main.c        ****                 //moveUntil(block_and_puck_edge_midpoint - DISTANCE_BACK_SENSOR_FROM_CENTER, BACKWA
 782:main.c        ****                 moveUntil(block_location[EAST] - DISTANCE_FRONT_SENSOR_FROM_CENTER - WIDTH_WHEEL_TO
 1171              		.loc 1 782 0 is_stmt 1
 1172 06e2 884E     		ldr	r6, .L53
 1173 06e4 706B     		ldr	r0, [r6, #52]
 1174 06e6 0124     		movs	r4, #1
 1175 06e8 0194     		str	r4, [sp, #4]
 1176 06ea C825     		movs	r5, #200
 1177 06ec 0095     		str	r5, [sp]
 1178 06ee 0023     		movs	r3, #0
 1179 06f0 0522     		movs	r2, #5
 1180 06f2 1946     		mov	r1, r3
 1181 06f4 A738     		subs	r0, r0, #167
 1182 06f6 FFF7FEFF 		bl	moveUntil
 1183              	.LVL169:
 783:main.c        ****                 straightAdjust(FRONT_SENSORS);
 1184              		.loc 1 783 0
 1185 06fa 0720     		movs	r0, #7
 1186 06fc FFF7FEFF 		bl	straightAdjust
 1187              	.LVL170:
 784:main.c        ****                 changeOrientation(NORTH, SPEED);
 1188              		.loc 1 784 0
 1189 0700 2946     		mov	r1, r5
 1190 0702 0020     		movs	r0, #0
 1191 0704 FFF7FEFF 		bl	changeOrientation
 1192              	.LVL171:
 785:main.c        ****                 //straightAdjust();
 786:main.c        ****                 moveUntil(PUCK_GRID_FROM_NORTH - DISTANCE_FRONT_SENSOR_FROM_CENTER - PUCK_GRID_DIST
 1193              		.loc 1 786 0
 1194 0708 B06D     		ldr	r0, [r6, #88]
 1195 070a 6FF03603 		mvn	r3, #54
 1196 070e 03FB00F0 		mul	r0, r3, r0
 1197 0712 0194     		str	r4, [sp, #4]
 1198 0714 0095     		str	r5, [sp]
 1199 0716 0023     		movs	r3, #0
 1200 0718 0422     		movs	r2, #4
ARM GAS  C:\Users\Misha\AppData\Local\Temp\cc8yPQTr.s 			page 36


 1201 071a 2146     		mov	r1, r4
 1202 071c E130     		adds	r0, r0, #225
 1203 071e FFF7FEFF 		bl	moveUntil
 1204              	.LVL172:
 787:main.c        ****                 straightAdjust(FRONT_SENSORS);
 1205              		.loc 1 787 0
 1206 0722 0720     		movs	r0, #7
 1207 0724 FFF7FEFF 		bl	straightAdjust
 1208              	.LVL173:
 788:main.c        ****                 changeOrientation(EAST, SPEED);
 1209              		.loc 1 788 0
 1210 0728 2946     		mov	r1, r5
 1211 072a 2046     		mov	r0, r4
 1212 072c FFF7FEFF 		bl	changeOrientation
 1213              	.LVL174:
 1214 0730 2BE0     		b	.L32
 1215              	.L34:
 789:main.c        ****                 
 790:main.c        ****             }
 791:main.c        ****             
 792:main.c        ****             else if (blockWestClearance && puckEastClearance){
 1216              		.loc 1 792 0
 1217 0732 53B3     		cbz	r3, .L32
 1218              		.loc 1 792 0 is_stmt 0 discriminator 1
 1219 0734 734B     		ldr	r3, .L53
 1220 0736 B3F95430 		ldrsh	r3, [r3, #84]
 1221 073a 33B3     		cbz	r3, .L32
 793:main.c        ****                 
 794:main.c        ****                 moveUntil(block_location[WEST] - DISTANCE_FRONT_SENSOR_FROM_CENTER + WIDTH_WHEEL_TO
 1222              		.loc 1 794 0 is_stmt 1
 1223 073c 714E     		ldr	r6, .L53
 1224 073e F06B     		ldr	r0, [r6, #60]
 1225 0740 0125     		movs	r5, #1
 1226 0742 0195     		str	r5, [sp, #4]
 1227 0744 C824     		movs	r4, #200
 1228 0746 0094     		str	r4, [sp]
 1229 0748 0023     		movs	r3, #0
 1230 074a 0522     		movs	r2, #5
 1231 074c 1946     		mov	r1, r3
 1232 074e 4330     		adds	r0, r0, #67
 1233 0750 FFF7FEFF 		bl	moveUntil
 1234              	.LVL175:
 795:main.c        ****                 straightAdjust(FRONT_SENSORS);
 1235              		.loc 1 795 0
 1236 0754 0720     		movs	r0, #7
 1237 0756 FFF7FEFF 		bl	straightAdjust
 1238              	.LVL176:
 796:main.c        ****                 changeOrientation(NORTH, SPEED);
 1239              		.loc 1 796 0
 1240 075a 2146     		mov	r1, r4
 1241 075c 0020     		movs	r0, #0
 1242 075e FFF7FEFF 		bl	changeOrientation
 1243              	.LVL177:
 797:main.c        ****                 moveUntil(PUCK_GRID_FROM_NORTH - DISTANCE_FRONT_SENSOR_FROM_CENTER - PUCK_GRID_DIST
 1244              		.loc 1 797 0
 1245 0762 B06D     		ldr	r0, [r6, #88]
 1246 0764 6FF03603 		mvn	r3, #54
ARM GAS  C:\Users\Misha\AppData\Local\Temp\cc8yPQTr.s 			page 37


 1247 0768 03FB00F0 		mul	r0, r3, r0
 1248 076c 0195     		str	r5, [sp, #4]
 1249 076e 0094     		str	r4, [sp]
 1250 0770 0023     		movs	r3, #0
 1251 0772 0422     		movs	r2, #4
 1252 0774 2946     		mov	r1, r5
 1253 0776 E130     		adds	r0, r0, #225
 1254 0778 FFF7FEFF 		bl	moveUntil
 1255              	.LVL178:
 798:main.c        ****                 straightAdjust(FRONT_SENSORS);
 1256              		.loc 1 798 0
 1257 077c 0720     		movs	r0, #7
 1258 077e FFF7FEFF 		bl	straightAdjust
 1259              	.LVL179:
 799:main.c        ****                 changeOrientation(WEST, SPEED);
 1260              		.loc 1 799 0
 1261 0782 2146     		mov	r1, r4
 1262 0784 0320     		movs	r0, #3
 1263 0786 FFF7FEFF 		bl	changeOrientation
 1264              	.LVL180:
 1265              	.L32:
 800:main.c        ****                 
 801:main.c        ****             }
 802:main.c        ****             
 803:main.c        ****             state = STATE_FIND_REQUIRED_PUCK;
 1266              		.loc 1 803 0
 1267 078a 0422     		movs	r2, #4
 1268 078c 5D4B     		ldr	r3, .L53
 1269 078e 5A60     		str	r2, [r3, #4]
 1270              	.L30:
 804:main.c        **** 
 805:main.c        ****         }
 806:main.c        ****  
 807:main.c        **** //        
 808:main.c        **** // *** 4. STATE FIND REQUIRED PUCK: *** // 
 809:main.c        **** //
 810:main.c        ****         
 811:main.c        ****         
 812:main.c        ****         if (state == STATE_FIND_REQUIRED_PUCK){
 1271              		.loc 1 812 0
 1272 0790 5C4B     		ldr	r3, .L53
 1273 0792 5B68     		ldr	r3, [r3, #4]
 1274 0794 042B     		cmp	r3, #4
 1275 0796 19D1     		bne	.L35
 1276              	.LVL181:
 1277              	.LBB10:
 813:main.c        ****         
 814:main.c        ****         int puck_correct = FALSE;   // A flag to determine if the correct puck has been picked up
 815:main.c        ****         int puck_scan;
 816:main.c        ****         
 817:main.c        ****     
 818:main.c        ****         //Temp delete after teesting!!!!!!!!!!!!!!!!!!!!!
 819:main.c        ****         puck_correct = TRUE;
 820:main.c        ****         
 821:main.c        ****             
 822:main.c        ****         // Scanning puck:
 823:main.c        ****             
ARM GAS  C:\Users\Misha\AppData\Local\Temp\cc8yPQTr.s 			page 38


 824:main.c        ****         safety_override = TRUE;     // DEACTIVATES the safety override so pucks don't interfere  
 1278              		.loc 1 824 0
 1279 0798 5A4C     		ldr	r4, .L53
 1280 079a 0125     		movs	r5, #1
 1281 079c E565     		str	r5, [r4, #92]
 825:main.c        **** 
 826:main.c        ****         while (puck_correct == FALSE) 
 827:main.c        ****         {
 828:main.c        ****             moveDynamic(50, SPEED_LOW, TRUE);  // robot moves forward towards puck
 829:main.c        ****                                     // could replace this with the distance gathered from the ultra
 830:main.c        ****             changeHeightToPuck(ABOVE_1_PUCK, NEITHER);  // arm lowers onto robot
 831:main.c        ****             puck_scan = colourSensingOutput();  // colour sensor takes a scan
 832:main.c        ****             changeHeightToPuck(ABOVE_3_PUCK, NEITHER);  // arm returns to high position
 833:main.c        ****             moveDynamic(-50, SPEED, TRUE);   // robot moves backwards
 834:main.c        ****             if (puck_scan == puckConstructionPlan[current_stage-1]) {puck_correct = TRUE;}         
 835:main.c        ****             else 
 836:main.c        ****             {
 837:main.c        ****                 /*
 838:main.c        ****                 // Bring us to the next puck along: 
 839:main.c        ****                 moveSwivel(45, SPEED, TRUE);
 840:main.c        ****                 moveDynamic(-30,SPEED, TRUE);
 841:main.c        ****                 moveSwivel(-30, SPEED, TRUE);
 842:main.c        ****                 */
 843:main.c        ****             }
 844:main.c        ****         }
 845:main.c        **** 
 846:main.c        ****         changeHeightToPuck(GROUND, NEITHER);      // arm lowers to ground
 1282              		.loc 1 846 0
 1283 079e 0221     		movs	r1, #2
 1284 07a0 0020     		movs	r0, #0
 1285 07a2 FFF7FEFF 		bl	changeHeightToPuck
 1286              	.LVL182:
 847:main.c        ****         //armClose();
 848:main.c        ****         //changeHeightToPuck(1);
 849:main.c        ****         moveUntilPuck(CLAW_GROUND_ALGORITHM);
 1287              		.loc 1 849 0
 1288 07a6 0520     		movs	r0, #5
 1289 07a8 FFF7FEFF 		bl	moveUntilPuck
 1290              	.LVL183:
 850:main.c        ****         //moveDynamic(60);       // robot moves forward
 851:main.c        ****         armClose();                 // claw closes on puck
 1291              		.loc 1 851 0
 1292 07ac FFF7FEFF 		bl	armClose
 1293              	.LVL184:
 852:main.c        ****         changeHeightToPuck(ABOVE_3_PUCK, CLOSE);      // arm lifts up to highest position
 1294              		.loc 1 852 0
 1295 07b0 2946     		mov	r1, r5
 1296 07b2 0320     		movs	r0, #3
 1297 07b4 FFF7FEFF 		bl	changeHeightToPuck
 1298              	.LVL185:
 853:main.c        ****         moveDynamic(-60, SPEED, TRUE);       // robot moves back away from puck area 
 1299              		.loc 1 853 0
 1300 07b8 2A46     		mov	r2, r5
 1301 07ba C821     		movs	r1, #200
 1302 07bc 6FF03B00 		mvn	r0, #59
 1303 07c0 FFF7FEFF 		bl	moveDynamic
 1304              	.LVL186:
ARM GAS  C:\Users\Misha\AppData\Local\Temp\cc8yPQTr.s 			page 39


 854:main.c        ****         
 855:main.c        ****         
 856:main.c        ****         safety_override = FALSE;        // reactivate safety override
 1305              		.loc 1 856 0
 1306 07c4 0023     		movs	r3, #0
 1307 07c6 E365     		str	r3, [r4, #92]
 857:main.c        ****     
 858:main.c        ****         state = STATE_RETURN_TO_SOUTH;
 1308              		.loc 1 858 0
 1309 07c8 0523     		movs	r3, #5
 1310 07ca 6360     		str	r3, [r4, #4]
 1311              	.LVL187:
 1312              	.L35:
 1313              	.LBE10:
 859:main.c        ****    
 860:main.c        ****         }
 861:main.c        ****  
 862:main.c        ****         
 863:main.c        **** //
 864:main.c        **** // *** 5. STATE RETURN TO SOUTH: *** // 
 865:main.c        **** //      
 866:main.c        ****         
 867:main.c        ****         // Assume that we are currently in the north side of the arena facing the pucks.
 868:main.c        ****         // This state will return us to the south side of the block and face east at the east wall.
 869:main.c        ****         if (state == STATE_RETURN_TO_SOUTH){
 1314              		.loc 1 869 0
 1315 07cc 4D4B     		ldr	r3, .L53
 1316 07ce 5B68     		ldr	r3, [r3, #4]
 1317 07d0 052B     		cmp	r3, #5
 1318 07d2 40F0CA80 		bne	.L36
 870:main.c        ****             if (blockEastClearance && puckEastClearance){
 1319              		.loc 1 870 0
 1320 07d6 4B4B     		ldr	r3, .L53
 1321 07d8 B3F95020 		ldrsh	r2, [r3, #80]
 1322 07dc 72B3     		cbz	r2, .L37
 1323              		.loc 1 870 0 is_stmt 0 discriminator 1
 1324 07de B3F95430 		ldrsh	r3, [r3, #84]
 1325 07e2 5BB3     		cbz	r3, .L37
 871:main.c        ****                 
 872:main.c        ****                 moveUntil(CLEARANCE_RADIUS_CENTER_TO_BACK - 190, BACKWARD, LESS_THAN, BACK, SPEED, 
 1326              		.loc 1 872 0 is_stmt 1
 1327 07e4 0124     		movs	r4, #1
 1328 07e6 0194     		str	r4, [sp, #4]
 1329 07e8 C825     		movs	r5, #200
 1330 07ea 0095     		str	r5, [sp]
 1331 07ec 0423     		movs	r3, #4
 1332 07ee 1A46     		mov	r2, r3
 1333 07f0 0021     		movs	r1, #0
 1334 07f2 3220     		movs	r0, #50
 1335 07f4 FFF7FEFF 		bl	moveUntil
 1336              	.LVL188:
 873:main.c        ****                 // straightAdjust() using back sensor?
 874:main.c        ****                 changeOrientation(NORTH,SPEED);
 1337              		.loc 1 874 0
 1338 07f8 2946     		mov	r1, r5
 1339 07fa 0020     		movs	r0, #0
 1340 07fc FFF7FEFF 		bl	changeOrientation
ARM GAS  C:\Users\Misha\AppData\Local\Temp\cc8yPQTr.s 			page 40


 1341              	.LVL189:
 875:main.c        ****                 straightAdjust(FRONT_SENSORS);
 1342              		.loc 1 875 0
 1343 0800 0720     		movs	r0, #7
 1344 0802 FFF7FEFF 		bl	straightAdjust
 1345              	.LVL190:
 876:main.c        ****                 moveUntil(CLEARANCE_RADIUS_CENTER_TO_BACK - 140, BACKWARD, LESS_THAN, BACK, SPEED, 
 1346              		.loc 1 876 0
 1347 0806 0194     		str	r4, [sp, #4]
 1348 0808 0095     		str	r5, [sp]
 1349 080a 0423     		movs	r3, #4
 1350 080c 1A46     		mov	r2, r3
 1351 080e 0021     		movs	r1, #0
 1352 0810 6420     		movs	r0, #100
 1353 0812 FFF7FEFF 		bl	moveUntil
 1354              	.LVL191:
 877:main.c        ****                 //straightAdjust();
 878:main.c        ****                 changeOrientation(EAST,SPEED);
 1355              		.loc 1 878 0
 1356 0816 2946     		mov	r1, r5
 1357 0818 2046     		mov	r0, r4
 1358 081a FFF7FEFF 		bl	changeOrientation
 1359              	.LVL192:
 879:main.c        ****                 straightAdjust(FRONT_SENSORS);
 1360              		.loc 1 879 0
 1361 081e 0720     		movs	r0, #7
 1362 0820 FFF7FEFF 		bl	straightAdjust
 1363              	.LVL193:
 880:main.c        ****                 moveUntil(WALL_CLEARANCE_FRONT, FORWARD, LESS_THAN, FRONT_LEFT, SPEED, TRUE);
 1364              		.loc 1 880 0
 1365 0824 0194     		str	r4, [sp, #4]
 1366 0826 0095     		str	r5, [sp]
 1367 0828 0023     		movs	r3, #0
 1368 082a 0422     		movs	r2, #4
 1369 082c 2146     		mov	r1, r4
 1370 082e AF20     		movs	r0, #175
 1371 0830 FFF7FEFF 		bl	moveUntil
 1372              	.LVL194:
 881:main.c        ****                 straightAdjust(FRONT_SENSORS);
 1373              		.loc 1 881 0
 1374 0834 0720     		movs	r0, #7
 1375 0836 FFF7FEFF 		bl	straightAdjust
 1376              	.LVL195:
 1377 083a 93E0     		b	.L38
 1378              	.L37:
 882:main.c        ****                 
 883:main.c        ****             }
 884:main.c        ****             
 885:main.c        ****             else if (blockWestClearance && puckWestClearance){
 1379              		.loc 1 885 0
 1380 083c 314B     		ldr	r3, .L53
 1381 083e B3F95230 		ldrsh	r3, [r3, #82]
 1382 0842 7BB3     		cbz	r3, .L39
 1383              		.loc 1 885 0 is_stmt 0 discriminator 1
 1384 0844 2F49     		ldr	r1, .L53
 1385 0846 B1F95610 		ldrsh	r1, [r1, #86]
 1386 084a 59B3     		cbz	r1, .L39
ARM GAS  C:\Users\Misha\AppData\Local\Temp\cc8yPQTr.s 			page 41


 886:main.c        ****             
 887:main.c        ****                 moveUntil(CLEARANCE_RADIUS_CENTER_TO_BACK - DISTANCE_BACK_SENSOR_FROM_CENTER, BACKW
 1387              		.loc 1 887 0 is_stmt 1
 1388 084c 0124     		movs	r4, #1
 1389 084e 0194     		str	r4, [sp, #4]
 1390 0850 C825     		movs	r5, #200
 1391 0852 0095     		str	r5, [sp]
 1392 0854 0423     		movs	r3, #4
 1393 0856 1A46     		mov	r2, r3
 1394 0858 0021     		movs	r1, #0
 1395 085a 0A20     		movs	r0, #10
 1396 085c FFF7FEFF 		bl	moveUntil
 1397              	.LVL196:
 888:main.c        ****                 // straightAdjust() using back sensor?
 889:main.c        ****                 changeOrientation(NORTH,SPEED);
 1398              		.loc 1 889 0
 1399 0860 2946     		mov	r1, r5
 1400 0862 0020     		movs	r0, #0
 1401 0864 FFF7FEFF 		bl	changeOrientation
 1402              	.LVL197:
 890:main.c        ****                 straightAdjust(FRONT_SENSORS);
 1403              		.loc 1 890 0
 1404 0868 0720     		movs	r0, #7
 1405 086a FFF7FEFF 		bl	straightAdjust
 1406              	.LVL198:
 891:main.c        ****                 moveUntil(CLEARANCE_RADIUS_CENTER_TO_BACK - 140, BACKWARD, LESS_THAN, BACK, SPEED, 
 1407              		.loc 1 891 0
 1408 086e 0194     		str	r4, [sp, #4]
 1409 0870 0095     		str	r5, [sp]
 1410 0872 0423     		movs	r3, #4
 1411 0874 1A46     		mov	r2, r3
 1412 0876 0021     		movs	r1, #0
 1413 0878 6420     		movs	r0, #100
 1414 087a FFF7FEFF 		bl	moveUntil
 1415              	.LVL199:
 892:main.c        ****                 //straightAdjust();
 893:main.c        ****                 changeOrientation(EAST,SPEED);
 1416              		.loc 1 893 0
 1417 087e 2946     		mov	r1, r5
 1418 0880 2046     		mov	r0, r4
 1419 0882 FFF7FEFF 		bl	changeOrientation
 1420              	.LVL200:
 894:main.c        ****                 straightAdjust(FRONT_SENSORS);
 1421              		.loc 1 894 0
 1422 0886 0720     		movs	r0, #7
 1423 0888 FFF7FEFF 		bl	straightAdjust
 1424              	.LVL201:
 895:main.c        ****                 moveUntil(WALL_CLEARANCE_FRONT, FORWARD, LESS_THAN, FRONT_LEFT, SPEED, TRUE);
 1425              		.loc 1 895 0
 1426 088c 0194     		str	r4, [sp, #4]
 1427 088e 0095     		str	r5, [sp]
 1428 0890 0023     		movs	r3, #0
 1429 0892 0422     		movs	r2, #4
 1430 0894 2146     		mov	r1, r4
 1431 0896 AF20     		movs	r0, #175
 1432 0898 FFF7FEFF 		bl	moveUntil
 1433              	.LVL202:
ARM GAS  C:\Users\Misha\AppData\Local\Temp\cc8yPQTr.s 			page 42


 896:main.c        ****                 straightAdjust(FRONT_SENSORS);
 1434              		.loc 1 896 0
 1435 089c 0720     		movs	r0, #7
 1436 089e FFF7FEFF 		bl	straightAdjust
 1437              	.LVL203:
 1438 08a2 5FE0     		b	.L38
 1439              	.L39:
 897:main.c        ****               
 898:main.c        ****             }
 899:main.c        ****             
 900:main.c        ****             
 901:main.c        ****             else if (blockEastClearance && puckWestClearance){
 1440              		.loc 1 901 0
 1441 08a4 82B3     		cbz	r2, .L40
 1442              		.loc 1 901 0 is_stmt 0 discriminator 1
 1443 08a6 174A     		ldr	r2, .L53
 1444 08a8 B2F95620 		ldrsh	r2, [r2, #86]
 1445 08ac 62B3     		cbz	r2, .L40
 902:main.c        **** 
 903:main.c        ****                 moveUntil(ARENA_WIDTH - (block_location[EAST] - DISTANCE_FRONT_SENSOR_FROM_CENTER -
 1446              		.loc 1 903 0 is_stmt 1
 1447 08ae 154B     		ldr	r3, .L53
 1448 08b0 586B     		ldr	r0, [r3, #52]
 1449 08b2 0124     		movs	r4, #1
 1450 08b4 0194     		str	r4, [sp, #4]
 1451 08b6 C825     		movs	r5, #200
 1452 08b8 0095     		str	r5, [sp]
 1453 08ba 0423     		movs	r3, #4
 1454 08bc 1A46     		mov	r2, r3
 1455 08be 0021     		movs	r1, #0
 1456 08c0 C0F5AA60 		rsb	r0, r0, #1360
 1457 08c4 0730     		adds	r0, r0, #7
 1458 08c6 FFF7FEFF 		bl	moveUntil
 1459              	.LVL204:
 904:main.c        ****                 //straightAdjust();
 905:main.c        ****                 changeOrientation(NORTH, SPEED);
 1460              		.loc 1 905 0
 1461 08ca 2946     		mov	r1, r5
 1462 08cc 0020     		movs	r0, #0
 1463 08ce FFF7FEFF 		bl	changeOrientation
 1464              	.LVL205:
 906:main.c        ****                 straightAdjust(FRONT_SENSORS);
 1465              		.loc 1 906 0
 1466 08d2 0720     		movs	r0, #7
 1467 08d4 FFF7FEFF 		bl	straightAdjust
 1468              	.LVL206:
 907:main.c        ****                 moveUntil(CLEARANCE_RADIUS_CENTER_TO_BACK - 140, BACKWARD, LESS_THAN, BACK, SPEED, 
 1469              		.loc 1 907 0
 1470 08d8 0194     		str	r4, [sp, #4]
 1471 08da 0095     		str	r5, [sp]
 1472 08dc 0423     		movs	r3, #4
 1473 08de 1A46     		mov	r2, r3
 1474 08e0 0021     		movs	r1, #0
 1475 08e2 6420     		movs	r0, #100
 1476 08e4 FFF7FEFF 		bl	moveUntil
 1477              	.LVL207:
 908:main.c        ****                 //displaceLeft(); Repeatedly call this if below function not implemented
ARM GAS  C:\Users\Misha\AppData\Local\Temp\cc8yPQTr.s 			page 43


 909:main.c        ****                 //displaceLeftUntil(CLEARANCE_RADIUS_CENTER_TO_BACK,RIGHT);
 910:main.c        ****                 changeOrientation(EAST, SPEED);
 1478              		.loc 1 910 0
 1479 08e8 2946     		mov	r1, r5
 1480 08ea 2046     		mov	r0, r4
 1481 08ec FFF7FEFF 		bl	changeOrientation
 1482              	.LVL208:
 911:main.c        ****                 //displaceLeft();
 912:main.c        ****                 //displaceLeftUntil(DISTANCE_PUCKS_FROM_NORTH + WIDTH_SENSOR_TO_CENTER ,RIGHT);
 913:main.c        ****                 moveUntil(WALL_CLEARANCE_FRONT, FORWARD, LESS_THAN, FRONT_LEFT, SPEED, TRUE);
 1483              		.loc 1 913 0
 1484 08f0 0194     		str	r4, [sp, #4]
 1485 08f2 0095     		str	r5, [sp]
 1486 08f4 0023     		movs	r3, #0
 1487 08f6 0422     		movs	r2, #4
 1488 08f8 2146     		mov	r1, r4
 1489 08fa AF20     		movs	r0, #175
 1490 08fc FFF7FEFF 		bl	moveUntil
 1491              	.LVL209:
 1492 0900 30E0     		b	.L38
 1493              	.L54:
 1494 0902 00BF     		.align	2
 1495              	.L53:
 1496 0904 00000000 		.word	.LANCHOR0
 1497              	.L40:
 914:main.c        ****                 
 915:main.c        ****             }
 916:main.c        ****             
 917:main.c        ****             else if (blockWestClearance && puckEastClearance){
 1498              		.loc 1 917 0
 1499 0908 63B3     		cbz	r3, .L38
 1500              		.loc 1 917 0 is_stmt 0 discriminator 1
 1501 090a 804B     		ldr	r3, .L55
 1502 090c B3F95430 		ldrsh	r3, [r3, #84]
 1503 0910 43B3     		cbz	r3, .L38
 918:main.c        ****                 
 919:main.c        ****                 moveUntil(ARENA_WIDTH - (block_location[WEST] - DISTANCE_FRONT_SENSOR_FROM_CENTER +
 1504              		.loc 1 919 0 is_stmt 1
 1505 0912 7E4B     		ldr	r3, .L55
 1506 0914 D86B     		ldr	r0, [r3, #60]
 1507 0916 0124     		movs	r4, #1
 1508 0918 0194     		str	r4, [sp, #4]
 1509 091a C825     		movs	r5, #200
 1510 091c 0095     		str	r5, [sp]
 1511 091e 0023     		movs	r3, #0
 1512 0920 0522     		movs	r2, #5
 1513 0922 1946     		mov	r1, r3
 1514 0924 C0F58D60 		rsb	r0, r0, #1128
 1515 0928 1044     		add	r0, r0, r2
 1516 092a FFF7FEFF 		bl	moveUntil
 1517              	.LVL210:
 920:main.c        ****                 changeOrientation(NORTH, SPEED);
 1518              		.loc 1 920 0
 1519 092e 2946     		mov	r1, r5
 1520 0930 0020     		movs	r0, #0
 1521 0932 FFF7FEFF 		bl	changeOrientation
 1522              	.LVL211:
ARM GAS  C:\Users\Misha\AppData\Local\Temp\cc8yPQTr.s 			page 44


 921:main.c        ****                 straightAdjust(FRONT_SENSORS);
 1523              		.loc 1 921 0
 1524 0936 0720     		movs	r0, #7
 1525 0938 FFF7FEFF 		bl	straightAdjust
 1526              	.LVL212:
 922:main.c        ****                 moveUntil(CLEARANCE_RADIUS_CENTER_TO_BACK - 140, BACKWARD, LESS_THAN, BACK, SPEED, 
 1527              		.loc 1 922 0
 1528 093c 0194     		str	r4, [sp, #4]
 1529 093e 0095     		str	r5, [sp]
 1530 0940 0423     		movs	r3, #4
 1531 0942 1A46     		mov	r2, r3
 1532 0944 0021     		movs	r1, #0
 1533 0946 6420     		movs	r0, #100
 1534 0948 FFF7FEFF 		bl	moveUntil
 1535              	.LVL213:
 923:main.c        ****                 //displaceLeft(); Repeatedly call this if below function not implemented
 924:main.c        ****                 //displaceLeftUntil(CLEARANCE_RADIUS_CENTER_TO_BACK,RIGHT);
 925:main.c        ****                 changeOrientation(EAST, SPEED);
 1536              		.loc 1 925 0
 1537 094c 2946     		mov	r1, r5
 1538 094e 2046     		mov	r0, r4
 1539 0950 FFF7FEFF 		bl	changeOrientation
 1540              	.LVL214:
 926:main.c        ****                 //displaceLeft();
 927:main.c        ****                 //displaceLeftUntil(DISTANCE_PUCKS_FROM_NORTH + WIDTH_SENSOR_TO_CENTER ,RIGHT);
 928:main.c        ****                 moveUntil(WALL_CLEARANCE_FRONT, FORWARD, LESS_THAN, FRONT_LEFT, SPEED, TRUE);
 1541              		.loc 1 928 0
 1542 0954 0194     		str	r4, [sp, #4]
 1543 0956 0095     		str	r5, [sp]
 1544 0958 0023     		movs	r3, #0
 1545 095a 0422     		movs	r2, #4
 1546 095c 2146     		mov	r1, r4
 1547 095e AF20     		movs	r0, #175
 1548 0960 FFF7FEFF 		bl	moveUntil
 1549              	.LVL215:
 1550              	.L38:
 929:main.c        ****                 
 930:main.c        ****             }   
 931:main.c        ****             
 932:main.c        ****             state = STATE_DEPOSIT_PUCK;
 1551              		.loc 1 932 0
 1552 0964 0622     		movs	r2, #6
 1553 0966 694B     		ldr	r3, .L55
 1554 0968 5A60     		str	r2, [r3, #4]
 1555              	.L36:
 933:main.c        ****         }
 934:main.c        ****         
 935:main.c        **** //        
 936:main.c        **** // *** 6. STATE DEPOSIT PUCK: *** // 
 937:main.c        **** //
 938:main.c        ****         
 939:main.c        ****         // We choose where we put the puck. Depending if its needed now, later or never.
 940:main.c        ****         if (state == STATE_DEPOSIT_PUCK){
 1556              		.loc 1 940 0
 1557 096a 684B     		ldr	r3, .L55
 1558 096c 5B68     		ldr	r3, [r3, #4]
 1559 096e 062B     		cmp	r3, #6
ARM GAS  C:\Users\Misha\AppData\Local\Temp\cc8yPQTr.s 			page 45


 1560 0970 40F09A80 		bne	.L41
 1561              	.LBB11:
 941:main.c        ****                 
 942:main.c        ****             
 943:main.c        ****             // Temp grab puck
 944:main.c        ****             control_photodiode_Write(CLAW_SENSING);    // changes to claw photodiode
 1562              		.loc 1 944 0
 1563 0974 0120     		movs	r0, #1
 1564 0976 FFF7FEFF 		bl	control_photodiode_Write
 1565              	.LVL216:
 945:main.c        ****             colour_sensing_algorithm = CLAW_GROUND_ALGORITHM;   // changes it to claw algorithm
 1566              		.loc 1 945 0
 1567 097a 644C     		ldr	r4, .L55
 1568 097c 0523     		movs	r3, #5
 1569 097e E360     		str	r3, [r4, #12]
 946:main.c        ****             
 947:main.c        ****             /*
 948:main.c        ****             armOpen();
 949:main.c        ****             colourSensingInitialise();
 950:main.c        ****             CyDelay(2000);
 951:main.c        ****             armClose();
 952:main.c        ****             */
 953:main.c        ****             
 954:main.c        ****             
 955:main.c        ****             
 956:main.c        ****             int heldColour = colourSensingOutput();
 1570              		.loc 1 956 0
 1571 0980 FFF7FEFF 		bl	colourSensingOutput
 1572              	.LVL217:
 957:main.c        ****             //blinkLED(heldColour,500);
 958:main.c        ****             
 959:main.c        ****             
 960:main.c        ****             // TO DELETE
 961:main.c        ****             heldColour = current_stage; // temp checking it can stack with a fixed rgb order for si
 1573              		.loc 1 961 0
 1574 0984 624B     		ldr	r3, .L55+4
 1575 0986 1A68     		ldr	r2, [r3]
 1576              	.LVL218:
 962:main.c        ****             //armOpen();
 963:main.c        ****             //CyDelay(1000);
 964:main.c        ****             //armClose();
 965:main.c        ****             
 966:main.c        ****             
 967:main.c        ****             if (heldColour == puckConstructionPlan[currentPuckStackSize] ) { // The currently held 
 1577              		.loc 1 967 0
 1578 0988 A36D     		ldr	r3, [r4, #88]
 1579 098a 04EB8304 		add	r4, r4, r3, lsl #2
 1580 098e 2369     		ldr	r3, [r4, #16]
 1581 0990 9A42     		cmp	r2, r3
 1582 0992 1DD1     		bne	.L42
 968:main.c        ****                 moveUntil(HOME_MIDPOINT - DISTANCE_FRONT_SENSOR_FROM_CENTER, BACKWARD, GREATER_THAN
 1583              		.loc 1 968 0
 1584 0994 0125     		movs	r5, #1
 1585 0996 0195     		str	r5, [sp, #4]
 1586 0998 C824     		movs	r4, #200
 1587 099a 0094     		str	r4, [sp]
 1588 099c 0023     		movs	r3, #0
ARM GAS  C:\Users\Misha\AppData\Local\Temp\cc8yPQTr.s 			page 46


 1589 099e 0522     		movs	r2, #5
 1590              	.LVL219:
 1591 09a0 1946     		mov	r1, r3
 1592 09a2 40F22620 		movw	r0, #550
 1593 09a6 FFF7FEFF 		bl	moveUntil
 1594              	.LVL220:
 969:main.c        ****                 changeOrientation(NORTH,SPEED);
 1595              		.loc 1 969 0
 1596 09aa 2146     		mov	r1, r4
 1597 09ac 0020     		movs	r0, #0
 1598 09ae FFF7FEFF 		bl	changeOrientation
 1599              	.LVL221:
 970:main.c        ****                 changeOrientation(WEST,SPEED);
 1600              		.loc 1 970 0
 1601 09b2 2146     		mov	r1, r4
 1602 09b4 0320     		movs	r0, #3
 1603 09b6 FFF7FEFF 		bl	changeOrientation
 1604              	.LVL222:
 971:main.c        ****                 moveUntil(CONSTRUCTION_MIDPOINT - DISTANCE_FRONT_SENSOR_FROM_CENTER - 30, FORWARD, 
 1605              		.loc 1 971 0
 1606 09ba 0195     		str	r5, [sp, #4]
 1607 09bc 0094     		str	r4, [sp]
 1608 09be 0023     		movs	r3, #0
 1609 09c0 0422     		movs	r2, #4
 1610 09c2 2946     		mov	r1, r5
 1611 09c4 AA20     		movs	r0, #170
 1612 09c6 FFF7FEFF 		bl	moveUntil
 1613              	.LVL223:
 972:main.c        ****                 straightAdjust(FRONT_SENSORS);
 1614              		.loc 1 972 0
 1615 09ca 0720     		movs	r0, #7
 1616 09cc FFF7FEFF 		bl	straightAdjust
 1617              	.LVL224:
 1618              	.L42:
 973:main.c        ****                 
 974:main.c        ****                 //changeOrientation(SOUTH, SPEED);
 975:main.c        ****                 //moveUntil(CONSTRUCTION_MIDPOINT - DISTANCE_FRONT_SENSOR_FROM_CENTER, FORWARD, LES
 976:main.c        ****                 
 977:main.c        ****                 
 978:main.c        ****                 
 979:main.c        ****             }
 980:main.c        ****             /*
 981:main.c        ****             else if ( heldColour == puckConstructionPlan[1] || heldColour == puckConstructionPlan[2
 982:main.c        ****                 moveUntil(ARENA_WIDTH - FIRST_TEMP_DROPOFF + DISTANCE_FRONT_SENSOR_FROM_CENTER, BAC
 983:main.c        ****                 straightAdjust();
 984:main.c        ****             }
 985:main.c        ****             
 986:main.c        ****             else {
 987:main.c        ****                 moveUntil(ARENA_WIDTH-FIRST_DISCARD_ZONE + DISTANCE_FRONT_SENSOR_FROM_CENTER, BACKW
 988:main.c        ****             } // Discard the puck so drop it in rubbish pile
 989:main.c        ****             
 990:main.c        ****             */
 991:main.c        **** 
 992:main.c        ****             changeOrientation(SOUTH,SPEED);    
 1619              		.loc 1 992 0
 1620 09d0 C821     		movs	r1, #200
 1621 09d2 0220     		movs	r0, #2
ARM GAS  C:\Users\Misha\AppData\Local\Temp\cc8yPQTr.s 			page 47


 1622 09d4 FFF7FEFF 		bl	changeOrientation
 1623              	.LVL225:
 993:main.c        ****             changeHeightToPuck(ABOVE_3_PUCK, CLOSE); // Lift claw above stack to avoid hitting the 
 1624              		.loc 1 993 0
 1625 09d8 0121     		movs	r1, #1
 1626 09da 0320     		movs	r0, #3
 1627 09dc FFF7FEFF 		bl	changeHeightToPuck
 1628              	.LVL226:
 994:main.c        ****             
 995:main.c        ****             if (currentPuckStackSize == 0){
 1629              		.loc 1 995 0
 1630 09e0 4A4B     		ldr	r3, .L55
 1631 09e2 9B6D     		ldr	r3, [r3, #88]
 1632 09e4 63B9     		cbnz	r3, .L43
 996:main.c        ****                 straightAdjust(FRONT_SENSORS);
 1633              		.loc 1 996 0
 1634 09e6 0720     		movs	r0, #7
 1635 09e8 FFF7FEFF 		bl	straightAdjust
 1636              	.LVL227:
 997:main.c        ****                 moveUntil(CONSTRUCTION_DISTANCE_FROM_WALL, FORWARD, LESS_THAN, FRONT_LEFT, SPEED,TR
 1637              		.loc 1 997 0
 1638 09ec 0121     		movs	r1, #1
 1639 09ee 0191     		str	r1, [sp, #4]
 1640 09f0 C823     		movs	r3, #200
 1641 09f2 0093     		str	r3, [sp]
 1642 09f4 0023     		movs	r3, #0
 1643 09f6 0422     		movs	r2, #4
 1644 09f8 8220     		movs	r0, #130
 1645 09fa FFF7FEFF 		bl	moveUntil
 1646              	.LVL228:
 1647 09fe 09E0     		b	.L44
 1648              	.L43:
 998:main.c        ****                
 999:main.c        ****             }
1000:main.c        ****             else {
1001:main.c        ****                 moveUntil(DISTANCE_BEFORE_STACK_MIDDLE_SENSOR, FORWARD, LESS_THAN, FRONT_MIDDLE, SP
 1649              		.loc 1 1001 0
 1650 0a00 0023     		movs	r3, #0
 1651 0a02 0193     		str	r3, [sp, #4]
 1652 0a04 4623     		movs	r3, #70
 1653 0a06 0093     		str	r3, [sp]
 1654 0a08 0523     		movs	r3, #5
 1655 0a0a 0422     		movs	r2, #4
 1656 0a0c 0121     		movs	r1, #1
 1657 0a0e 5F20     		movs	r0, #95
 1658 0a10 FFF7FEFF 		bl	moveUntil
 1659              	.LVL229:
 1660              	.L44:
1002:main.c        ****                 //moveDynamic(140, SPEED, FALSE);            
1003:main.c        ****             }
1004:main.c        ****             
1005:main.c        ****             //moveDynamic(CONSTRUCTION_DISTANCE_CLEAR_FROM_STACK - CONSTRUCTION_DISTANCE_FROM_WALL,
1006:main.c        ****             
1007:main.c        ****             changeHeightToPuck(currentPuckStackSize, CLOSE);
 1661              		.loc 1 1007 0
 1662 0a14 0121     		movs	r1, #1
 1663 0a16 3D4B     		ldr	r3, .L55
ARM GAS  C:\Users\Misha\AppData\Local\Temp\cc8yPQTr.s 			page 48


 1664 0a18 986D     		ldr	r0, [r3, #88]
 1665 0a1a FFF7FEFF 		bl	changeHeightToPuck
 1666              	.LVL230:
1008:main.c        ****             armOpen();
 1667              		.loc 1 1008 0
 1668 0a1e FFF7FEFF 		bl	armOpen
 1669              	.LVL231:
1009:main.c        ****             changeHeightToPuck(ABOVE_3_PUCK, OPEN); // Move higher than stack to avoid hitting it.
 1670              		.loc 1 1009 0
 1671 0a22 0021     		movs	r1, #0
 1672 0a24 0320     		movs	r0, #3
 1673 0a26 FFF7FEFF 		bl	changeHeightToPuck
 1674              	.LVL232:
1010:main.c        ****             
1011:main.c        **** 
1012:main.c        ****             if (current_stage >= 3){state = STATE_PARK_HOME;}        // Returns to home 
 1675              		.loc 1 1012 0
 1676 0a2a 394B     		ldr	r3, .L55+4
 1677 0a2c 1B68     		ldr	r3, [r3]
 1678 0a2e 022B     		cmp	r3, #2
 1679 0a30 03DD     		ble	.L45
 1680              		.loc 1 1012 0 is_stmt 0 discriminator 1
 1681 0a32 0722     		movs	r2, #7
 1682 0a34 354B     		ldr	r3, .L55
 1683 0a36 5A60     		str	r2, [r3, #4]
 1684 0a38 36E0     		b	.L41
 1685              	.L45:
1013:main.c        ****             else {current_stage++; currentPuckStackSize++;
 1686              		.loc 1 1013 0 is_stmt 1
 1687 0a3a 0133     		adds	r3, r3, #1
 1688 0a3c 344A     		ldr	r2, .L55+4
 1689 0a3e 1360     		str	r3, [r2]
 1690 0a40 324E     		ldr	r6, .L55
 1691 0a42 B36D     		ldr	r3, [r6, #88]
 1692 0a44 0133     		adds	r3, r3, #1
 1693 0a46 B365     		str	r3, [r6, #88]
1014:main.c        ****             // Need to go back to the east wall facing east.
1015:main.c        ****                 //moveUntil(CONSTRUCTION_DISTANCE_CLEAR_FROM_STACK, BACKWARD, GREATER_THAN, FRONT_L
1016:main.c        ****                 moveDynamic(-130,SPEED,TRUE);
 1694              		.loc 1 1016 0
 1695 0a48 0122     		movs	r2, #1
 1696 0a4a C821     		movs	r1, #200
 1697 0a4c 6FF08100 		mvn	r0, #129
 1698 0a50 FFF7FEFF 		bl	moveDynamic
 1699              	.LVL233:
1017:main.c        ****                 changeOrientation(WEST,SPEED);
 1700              		.loc 1 1017 0
 1701 0a54 C821     		movs	r1, #200
 1702 0a56 0320     		movs	r0, #3
 1703 0a58 FFF7FEFF 		bl	changeOrientation
 1704              	.LVL234:
1018:main.c        ****                 straightAdjust(FRONT_SENSORS);
 1705              		.loc 1 1018 0
 1706 0a5c 0720     		movs	r0, #7
 1707 0a5e FFF7FEFF 		bl	straightAdjust
 1708              	.LVL235:
1019:main.c        ****                 moveUntil(HOME_MIDPOINT - DISTANCE_FRONT_SENSOR_FROM_CENTER, BACKWARD, GREATER_THAN
ARM GAS  C:\Users\Misha\AppData\Local\Temp\cc8yPQTr.s 			page 49


 1709              		.loc 1 1019 0
 1710 0a62 0124     		movs	r4, #1
 1711 0a64 0194     		str	r4, [sp, #4]
 1712 0a66 C825     		movs	r5, #200
 1713 0a68 0095     		str	r5, [sp]
 1714 0a6a 0023     		movs	r3, #0
 1715 0a6c 0522     		movs	r2, #5
 1716 0a6e 1946     		mov	r1, r3
 1717 0a70 40F22620 		movw	r0, #550
 1718 0a74 FFF7FEFF 		bl	moveUntil
 1719              	.LVL236:
1020:main.c        ****                 straightAdjust(FRONT_SENSORS);
 1720              		.loc 1 1020 0
 1721 0a78 0720     		movs	r0, #7
 1722 0a7a FFF7FEFF 		bl	straightAdjust
 1723              	.LVL237:
1021:main.c        ****                 changeOrientation(NORTH,SPEED);
 1724              		.loc 1 1021 0
 1725 0a7e 2946     		mov	r1, r5
 1726 0a80 0020     		movs	r0, #0
 1727 0a82 FFF7FEFF 		bl	changeOrientation
 1728              	.LVL238:
1022:main.c        ****                 changeOrientation(EAST,SPEED);
 1729              		.loc 1 1022 0
 1730 0a86 2946     		mov	r1, r5
 1731 0a88 2046     		mov	r0, r4
 1732 0a8a FFF7FEFF 		bl	changeOrientation
 1733              	.LVL239:
1023:main.c        ****                 moveUntil(DISTANCE_FRONT_SENSOR_FROM_CENTER + SAFETY_MARGIN + 50, FORWARD, LESS_THA
 1734              		.loc 1 1023 0
 1735 0a8e 0194     		str	r4, [sp, #4]
 1736 0a90 0095     		str	r5, [sp]
 1737 0a92 0023     		movs	r3, #0
 1738 0a94 0422     		movs	r2, #4
 1739 0a96 2146     		mov	r1, r4
 1740 0a98 B920     		movs	r0, #185
 1741 0a9a FFF7FEFF 		bl	moveUntil
 1742              	.LVL240:
1024:main.c        ****                 straightAdjust(FRONT_SENSORS);
 1743              		.loc 1 1024 0
 1744 0a9e 0720     		movs	r0, #7
 1745 0aa0 FFF7FEFF 		bl	straightAdjust
 1746              	.LVL241:
1025:main.c        ****                 
1026:main.c        ****                 
1027:main.c        ****                 //Usually we will check if the next colour we need is in home base already
1028:main.c        ****                 //
1029:main.c        ****                 // If in east edge of home base
1030:main.c        ****                 if ( puckConstructionPlan[currentPuckStackSize] == puckColoursTempPile[0]){
1031:main.c        ****                     
1032:main.c        ****                 }
1033:main.c        ****                 //If in west edge of home base
1034:main.c        ****                 else if(puckConstructionPlan[currentPuckStackSize] == puckColoursTempPile[1]){
1035:main.c        ****                          
1036:main.c        ****                 }
1037:main.c        ****                 
1038:main.c        ****                 state = STATE_GO_TO_PUCKS; // Go grab the next puck from the pile since it isn't in
ARM GAS  C:\Users\Misha\AppData\Local\Temp\cc8yPQTr.s 			page 50


 1747              		.loc 1 1038 0
 1748 0aa4 0323     		movs	r3, #3
 1749 0aa6 7360     		str	r3, [r6, #4]
 1750              	.L41:
 1751              	.LBE11:
1039:main.c        ****             }
1040:main.c        ****             
1041:main.c        ****             
1042:main.c        **** 
1043:main.c        ****         }
1044:main.c        ****  
1045:main.c        **** //        
1046:main.c        **** // *** 7. STATE PARK HOME: *** // 
1047:main.c        **** //        
1048:main.c        ****         
1049:main.c        ****         if (state == STATE_PARK_HOME){
 1752              		.loc 1 1049 0
 1753 0aa8 184B     		ldr	r3, .L55
 1754 0aaa 5B68     		ldr	r3, [r3, #4]
 1755 0aac 072B     		cmp	r3, #7
 1756 0aae 7FF42EAB 		bne	.L46
1050:main.c        ****             
1051:main.c        ****             // When we enter this state we can assume that we have just deposited the final puck on
1052:main.c        ****             // Thus we are facing the stack.
1053:main.c        ****             
1054:main.c        ****             
1055:main.c        ****             moveUntil(CONSTRUCTION_DISTANCE_CLEAR_FROM_STACK, BACKWARD, GREATER_THAN, FRONT_LEFT, S
 1757              		.loc 1 1055 0
 1758 0ab2 0024     		movs	r4, #0
 1759 0ab4 0194     		str	r4, [sp, #4]
 1760 0ab6 C825     		movs	r5, #200
 1761 0ab8 0095     		str	r5, [sp]
 1762 0aba 2346     		mov	r3, r4
 1763 0abc 0522     		movs	r2, #5
 1764 0abe 2146     		mov	r1, r4
 1765 0ac0 D220     		movs	r0, #210
 1766 0ac2 FFF7FEFF 		bl	moveUntil
 1767              	.LVL242:
1056:main.c        ****             changeOrientation(WEST,SPEED);
 1768              		.loc 1 1056 0
 1769 0ac6 2946     		mov	r1, r5
 1770 0ac8 0320     		movs	r0, #3
 1771 0aca FFF7FEFF 		bl	changeOrientation
 1772              	.LVL243:
1057:main.c        ****             straightAdjust(FRONT_SENSORS);
 1773              		.loc 1 1057 0
 1774 0ace 0720     		movs	r0, #7
 1775 0ad0 FFF7FEFF 		bl	straightAdjust
 1776              	.LVL244:
1058:main.c        ****             moveUntil(HOME_MIDPOINT - DISTANCE_FRONT_SENSOR_FROM_CENTER - 45 , BACKWARD, GREATER_TH
 1777              		.loc 1 1058 0
 1778 0ad4 0126     		movs	r6, #1
 1779 0ad6 0196     		str	r6, [sp, #4]
 1780 0ad8 0095     		str	r5, [sp]
 1781 0ada 3346     		mov	r3, r6
 1782 0adc 0522     		movs	r2, #5
 1783 0ade 2146     		mov	r1, r4
ARM GAS  C:\Users\Misha\AppData\Local\Temp\cc8yPQTr.s 			page 51


 1784 0ae0 40F2F910 		movw	r0, #505
 1785 0ae4 FFF7FEFF 		bl	moveUntil
 1786              	.LVL245:
1059:main.c        ****             changeOrientation(NORTH,SPEED);
 1787              		.loc 1 1059 0
 1788 0ae8 2946     		mov	r1, r5
 1789 0aea 2046     		mov	r0, r4
 1790 0aec FFF7FEFF 		bl	changeOrientation
 1791              	.LVL246:
1060:main.c        ****             moveUntil(HOME_PARKING_DISTANCE , BACKWARD, LESS_THAN, BACK, SPEED, TRUE);
 1792              		.loc 1 1060 0
 1793 0af0 0196     		str	r6, [sp, #4]
 1794 0af2 0095     		str	r5, [sp]
 1795 0af4 0423     		movs	r3, #4
 1796 0af6 1A46     		mov	r2, r3
 1797 0af8 2146     		mov	r1, r4
 1798 0afa 2820     		movs	r0, #40
 1799 0afc FFF7FEFF 		bl	moveUntil
 1800              	.LVL247:
1061:main.c        **** 
1062:main.c        ****             // END Congratulations:
1063:main.c        ****             changeHeightToPuck(GROUND, NEITHER);
 1801              		.loc 1 1063 0
 1802 0b00 0221     		movs	r1, #2
 1803 0b02 2046     		mov	r0, r4
 1804 0b04 FFF7FEFF 		bl	changeHeightToPuck
 1805              	.LVL248:
 1806              	.L47:
 1807 0b08 FEE7     		b	.L47
 1808              	.L56:
 1809 0b0a 00BF     		.align	2
 1810              	.L55:
 1811 0b0c 00000000 		.word	.LANCHOR0
 1812 0b10 00000000 		.word	.LANCHOR1
 1813              		.cfi_endproc
 1814              	.LFE66:
 1815              		.size	main, .-main
 1816              		.comm	distance_returned_global,4,4
 1817              		.global	current_stage
 1818              		.global	PLAN_SCAN_VERTICAL
 1819              		.global	moving
 1820              		.global	colour_sensing_algorithm
 1821              		.global	colour_flag
 1822              		.global	idac_value
 1823              		.global	puckWestClearance
 1824              		.global	puckEastClearance
 1825              		.global	blockWestClearance
 1826              		.global	blockEastClearance
 1827              		.global	safety_override
 1828              		.global	puck_location
 1829              		.global	block_location
 1830              		.comm	pathPastBlock,4,4
 1831              		.comm	pathToPucks,4,4
 1832              		.global	beginNavigation
 1833              		.global	horizontalPuckGrid
 1834              		.global	puckColoursTempPile
 1835              		.global	puckConstructionPlan
ARM GAS  C:\Users\Misha\AppData\Local\Temp\cc8yPQTr.s 			page 52


 1836              		.global	currentPuckStackSize
 1837              		.global	running
 1838              		.global	state
 1839              		.comm	ultrasonic_flag,4,4
 1840              		.comm	initialisation,4,4
 1841              		.comm	output,32,4
 1842              		.comm	turningRightFlag,2,2
 1843              		.comm	turningLeftFlag,2,2
 1844              		.comm	drivingBackwardFlag,2,2
 1845              		.comm	drivingForwardFlag,2,2
 1846              		.comm	puckPileLocation,4,4
 1847              		.global	block_edge_location
 1848              		.global	sweeping
 1849              		.global	puckRackOffsetsFromWest
 1850              		.global	puckRackColours
 1851              		.global	currentPuckRackScanningIndex
 1852              		.comm	driveStraightEnable,4,4
 1853              		.comm	internal_orientation,4,4
 1854              		.section	.rodata
 1855              		.align	2
 1856              		.type	PLAN_SCAN_VERTICAL, %object
 1857              		.size	PLAN_SCAN_VERTICAL, 4
 1858              	PLAN_SCAN_VERTICAL:
 1859 0000 0A000000 		.word	10
 1860              		.data
 1861              		.align	2
 1862              		.set	.LANCHOR1,. + 0
 1863              		.type	current_stage, %object
 1864              		.size	current_stage, 4
 1865              	current_stage:
 1866 0000 01000000 		.word	1
 1867              		.type	colour_flag, %object
 1868              		.size	colour_flag, 4
 1869              	colour_flag:
 1870 0004 01000000 		.word	1
 1871              		.type	running, %object
 1872              		.size	running, 4
 1873              	running:
 1874 0008 01000000 		.word	1
 1875              		.type	puckRackOffsetsFromWest, %object
 1876              		.size	puckRackOffsetsFromWest, 20
 1877              	puckRackOffsetsFromWest:
 1878 000c D0020000 		.word	720
 1879 0010 94020000 		.word	660
 1880 0014 58020000 		.word	600
 1881 0018 1C020000 		.word	540
 1882 001c E0010000 		.word	480
 1883              		.section	.rodata.str1.4,"aMS",%progbits,1
 1884              		.align	2
 1885              	.LC0:
 1886 0000 42656769 		.ascii	"Beginning Navigation \012\000"
 1886      6E6E696E 
 1886      67204E61 
 1886      76696761 
 1886      74696F6E 
 1887 0017 00       		.space	1
 1888              	.LC1:
ARM GAS  C:\Users\Misha\AppData\Local\Temp\cc8yPQTr.s 			page 53


 1889 0018 55415254 		.ascii	"UART commencing... \012\000"
 1889      20636F6D 
 1889      6D656E63 
 1889      696E672E 
 1889      2E2E200A 
 1890 002d 000000   		.space	3
 1891              	.LC2:
 1892 0030 556C7472 		.ascii	"Ultrasonic Calibration tests: \012\000"
 1892      61736F6E 
 1892      69632043 
 1892      616C6962 
 1892      72617469 
 1893              	.LC3:
 1894 0050 466F756E 		.ascii	"Found Colours: \012\000"
 1894      6420436F 
 1894      6C6F7572 
 1894      733A200A 
 1894      00
 1895 0061 000000   		.space	3
 1896              	.LC4:
 1897 0064 2569200A 		.ascii	"%i \012\000"
 1897      00
 1898 0069 000000   		.space	3
 1899              	.LC5:
 1900 006c 64697374 		.ascii	"distance from robot to block: %d \011\000"
 1900      616E6365 
 1900      2066726F 
 1900      6D20726F 
 1900      626F7420 
 1901 008f 00       		.space	1
 1902              	.LC6:
 1903 0090 6E6F7274 		.ascii	"north: %d, \012\000"
 1903      683A2025 
 1903      642C200A 
 1903      00
 1904 009d 000000   		.space	3
 1905              	.LC7:
 1906 00a0 65617374 		.ascii	"east: %d, \012\000"
 1906      3A202564 
 1906      2C200A00 
 1907              	.LC8:
 1908 00ac 736F7574 		.ascii	"south: %d, \012\000"
 1908      683A2025 
 1908      642C200A 
 1908      00
 1909 00b9 000000   		.space	3
 1910              	.LC9:
 1911 00bc 77657374 		.ascii	"west: %d, \012\000"
 1911      3A202564 
 1911      2C200A00 
 1912              	.LC10:
 1913 00c8 25642009 		.ascii	"%d \011\000"
 1913      00
 1914 00cd 000000   		.space	3
 1915              	.LC11:
 1916 00d0 7075636B 		.ascii	"puck check: %d, \012\000"
 1916      20636865 
ARM GAS  C:\Users\Misha\AppData\Local\Temp\cc8yPQTr.s 			page 54


 1916      636B3A20 
 1916      25642C20 
 1916      0A00
 1917 00e2 0000     		.space	2
 1918              	.LC12:
 1919 00e4 65617374 		.ascii	"east puck: %d, \012\000"
 1919      20707563 
 1919      6B3A2025 
 1919      642C200A 
 1919      00
 1920 00f5 000000   		.space	3
 1921              	.LC13:
 1922 00f8 77657374 		.ascii	"west puck: %d, \012\000"
 1922      20707563 
 1922      6B3A2025 
 1922      642C200A 
 1922      00
 1923 0109 000000   		.space	3
 1924              	.LC14:
 1925 010c 65617374 		.ascii	"east block: %d, \012\000"
 1925      20626C6F 
 1925      636B3A20 
 1925      25642C20 
 1925      0A00
 1926 011e 0000     		.space	2
 1927              	.LC15:
 1928 0120 77657374 		.ascii	"west block: %d, \012\000"
 1928      20626C6F 
 1928      636B3A20 
 1928      25642C20 
 1928      0A00
 1929              		.bss
 1930              		.align	2
 1931              		.set	.LANCHOR0,. + 0
 1932              		.type	beginNavigation, %object
 1933              		.size	beginNavigation, 4
 1934              	beginNavigation:
 1935 0000 00000000 		.space	4
 1936              		.type	state, %object
 1937              		.size	state, 4
 1938              	state:
 1939 0004 00000000 		.space	4
 1940              		.type	idac_value, %object
 1941              		.size	idac_value, 4
 1942              	idac_value:
 1943 0008 00000000 		.space	4
 1944              		.type	colour_sensing_algorithm, %object
 1945              		.size	colour_sensing_algorithm, 4
 1946              	colour_sensing_algorithm:
 1947 000c 00000000 		.space	4
 1948              		.type	puckConstructionPlan, %object
 1949              		.size	puckConstructionPlan, 12
 1950              	puckConstructionPlan:
 1951 0010 00000000 		.space	12
 1951      00000000 
 1951      00000000 
 1952              		.type	puckRackColours, %object
ARM GAS  C:\Users\Misha\AppData\Local\Temp\cc8yPQTr.s 			page 55


 1953              		.size	puckRackColours, 20
 1954              	puckRackColours:
 1955 001c 00000000 		.space	20
 1955      00000000 
 1955      00000000 
 1955      00000000 
 1955      00000000 
 1956              		.type	block_location, %object
 1957              		.size	block_location, 16
 1958              	block_location:
 1959 0030 00000000 		.space	16
 1959      00000000 
 1959      00000000 
 1959      00000000 
 1960              		.type	puck_location, %object
 1961              		.size	puck_location, 16
 1962              	puck_location:
 1963 0040 00000000 		.space	16
 1963      00000000 
 1963      00000000 
 1963      00000000 
 1964              		.type	blockEastClearance, %object
 1965              		.size	blockEastClearance, 2
 1966              	blockEastClearance:
 1967 0050 0000     		.space	2
 1968              		.type	blockWestClearance, %object
 1969              		.size	blockWestClearance, 2
 1970              	blockWestClearance:
 1971 0052 0000     		.space	2
 1972              		.type	puckEastClearance, %object
 1973              		.size	puckEastClearance, 2
 1974              	puckEastClearance:
 1975 0054 0000     		.space	2
 1976              		.type	puckWestClearance, %object
 1977              		.size	puckWestClearance, 2
 1978              	puckWestClearance:
 1979 0056 0000     		.space	2
 1980              		.type	currentPuckStackSize, %object
 1981              		.size	currentPuckStackSize, 4
 1982              	currentPuckStackSize:
 1983 0058 00000000 		.space	4
 1984              		.type	safety_override, %object
 1985              		.size	safety_override, 4
 1986              	safety_override:
 1987 005c 00000000 		.space	4
 1988              		.type	moving, %object
 1989              		.size	moving, 4
 1990              	moving:
 1991 0060 00000000 		.space	4
 1992              		.type	horizontalPuckGrid, %object
 1993              		.size	horizontalPuckGrid, 4
 1994              	horizontalPuckGrid:
 1995 0064 00000000 		.space	4
 1996              		.type	puckColoursTempPile, %object
 1997              		.size	puckColoursTempPile, 8
 1998              	puckColoursTempPile:
 1999 0068 00000000 		.space	8
ARM GAS  C:\Users\Misha\AppData\Local\Temp\cc8yPQTr.s 			page 56


 1999      00000000 
 2000              		.type	block_edge_location, %object
 2001              		.size	block_edge_location, 16
 2002              	block_edge_location:
 2003 0070 00000000 		.space	16
 2003      00000000 
 2003      00000000 
 2003      00000000 
 2004              		.type	sweeping, %object
 2005              		.size	sweeping, 4
 2006              	sweeping:
 2007 0080 00000000 		.space	4
 2008              		.type	currentPuckRackScanningIndex, %object
 2009              		.size	currentPuckRackScanningIndex, 4
 2010              	currentPuckRackScanningIndex:
 2011 0084 00000000 		.space	4
 2012              		.text
 2013              	.Letext0:
 2014              		.file 2 "c:\\program files (x86)\\cypress\\psoc creator\\4.2\\psoc creator\\import\\gnu\\arm\\5.4.
 2015              		.file 3 "c:\\program files (x86)\\cypress\\psoc creator\\4.2\\psoc creator\\import\\gnu\\arm\\5.4.
 2016              		.file 4 "Generated_Source\\PSoC5/core_cm3.h"
 2017              		.file 5 "navigation.h"
 2018              		.file 6 "ultrasonic.h"
 2019              		.file 7 "main.h"
 2020              		.file 8 "Generated_Source\\PSoC5/CyLib.h"
 2021              		.file 9 "Generated_Source\\PSoC5/UART_1.h"
 2022              		.file 10 "colour.h"
 2023              		.file 11 "c:\\program files (x86)\\cypress\\psoc creator\\4.2\\psoc creator\\import\\gnu\\arm\\5.4
 2024              		.file 12 "debugging.h"
 2025              		.file 13 "Generated_Source\\PSoC5/control_photodiode.h"
 2026              		.file 14 "motor.h"
 2027              		.file 15 "servo.h"
 2028              		.file 16 "Generated_Source\\PSoC5/TIA_1.h"
 2029              		.file 17 "Generated_Source\\PSoC5/ADC.h"
 2030              		.file 18 "Generated_Source\\PSoC5/IDAC8_1.h"
 2031              		.file 19 "Generated_Source\\PSoC5/control_led.h"
 2032              		.file 20 "Generated_Source\\PSoC5/Rack_Servo_PWM.h"
 2033              		.file 21 "Generated_Source\\PSoC5/Gripper_Servo_PWM.h"
 2034              		.file 22 "Generated_Source\\PSoC5/Motor_Left_Driver.h"
 2035              		.file 23 "Generated_Source\\PSoC5/Motor_Right_Driver.h"
 2036              		.file 24 "Generated_Source\\PSoC5/Motor_Left_Decoder.h"
 2037              		.file 25 "Generated_Source\\PSoC5/Motor_Right_Decoder.h"
 2038              		.file 26 "Generated_Source\\PSoC5/Timer_1.h"
 2039              		.file 27 "Generated_Source\\PSoC5/Sonic.h"
 2040              		.file 28 "Generated_Source\\PSoC5/Start.h"
 2041              		.file 29 "Generated_Source\\PSoC5/Timer_straight_adjust.h"
 2042              		.file 30 "Generated_Source\\PSoC5/Control_Reset_Straight.h"