ARM GAS  C:\Users\jerry\AppData\Local\Temp\cc40088P.s 			page 1


   1              		.syntax unified
   2              		.cpu cortex-m3
   3              		.fpu softvfp
   4              		.eabi_attribute 20, 1
   5              		.eabi_attribute 21, 1
   6              		.eabi_attribute 23, 3
   7              		.eabi_attribute 24, 1
   8              		.eabi_attribute 25, 1
   9              		.eabi_attribute 26, 1
  10              		.eabi_attribute 30, 1
  11              		.eabi_attribute 34, 1
  12              		.eabi_attribute 18, 4
  13              		.thumb
  14              		.syntax unified
  15              		.file	"main.c"
  16              		.text
  17              	.Ltext0:
  18              		.cfi_sections	.debug_frame
  19              		.section	.text.TIH,"ax",%progbits
  20              		.align	2
  21              		.global	TIH
  22              		.thumb
  23              		.thumb_func
  24              		.type	TIH, %function
  25              	TIH:
  26              	.LFB64:
  27              		.file 1 "main.c"
   1:main.c        ****  
   2:main.c        **** /* ========================================
   3:main.c        ****  *
   4:main.c        ****  * Copyright Group 17, 2019
   5:main.c        ****  * All Rights Reserved
   6:main.c        ****  * UNPUBLISHED, LICENSED SOFTWARE.
   7:main.c        ****  *
   8:main.c        ****  * CONFIDENTIAL AND PROPRIETARY INFORMATION
   9:main.c        ****  * WHICH IS THE PROPERTY OF Blayke, Misha, Nidhin.
  10:main.c        ****  *
  11:main.c        ****  * ========================================
  12:main.c        **** */
  13:main.c        **** 
  14:main.c        **** // * PSOC LIBRARY * //
  15:main.c        **** #include "project.h"
  16:main.c        **** 
  17:main.c        **** // * C LIBRARIES * // 
  18:main.c        **** #include <stdlib.h>
  19:main.c        **** #include <stdio.h>
  20:main.c        **** #include <math.h>
  21:main.c        **** 
  22:main.c        **** // * OUR LIBRARIES * //
  23:main.c        **** #include "main.h"
  24:main.c        **** #include "colour.h"
  25:main.c        **** #include "ultrasonic.h" 
  26:main.c        **** #include "servo.h"
  27:main.c        **** #include "motor.h"
  28:main.c        **** #include "customMath.h"
  29:main.c        **** #include "navigation.h"
  30:main.c        **** #include "debugging.h"
ARM GAS  C:\Users\jerry\AppData\Local\Temp\cc40088P.s 			page 2


  31:main.c        **** 
  32:main.c        **** 
  33:main.c        **** extern char output[32];   
  34:main.c        **** 
  35:main.c        **** // * STATE VARIABLES * //
  36:main.c        **** int state = STATE_PRE_RUN;
  37:main.c        **** float block_edge_location[4] = {0,0,0,0}; // N E S W edge positions respectively
  38:main.c        **** 
  39:main.c        **** // * PUCK CONSTRUCTION VARIABLES * //
  40:main.c        **** int current_puck_stack_size = 0; // How many pucks are currently on the construction plate
  41:main.c        **** int puck_rack_scans[5] = {BLANK,BLANK,BLANK,BLANK,BLANK}; // 5 slots in puck rack.
  42:main.c        **** int puck_construction_plan[3] = {BLANK,BLANK,BLANK};
  43:main.c        **** int puck_rack_west_offsets[5] = {PUCK_RACK_0_WEST_DISTANCE,
  44:main.c        ****                                 PUCK_RACK_1_WEST_DISTANCE,
  45:main.c        ****                                 PUCK_RACK_2_WEST_DISTANCE,
  46:main.c        ****                                 PUCK_RACK_3_WEST_DISTANCE,
  47:main.c        ****                                 PUCK_RACK_4_WEST_DISTANCE };
  48:main.c        **** 
  49:main.c        **** int puck_temp_pile[2] = {BLANK,BLANK}; // Index 0 refers to east home base edge, 1 refers to west h
  50:main.c        **** 
  51:main.c        **** // * NAVIGATION AND POSITION VARIABLES * //
  52:main.c        **** 
  53:main.c        **** int begin_navigation = 0; // Allow us to break out of the intial phase when powered up
  54:main.c        **** int block_location[4] = {0,0,0,0};      // The block location values
  55:main.c        ****                                         //#define NORTH 0
  56:main.c        ****                                         //#define EAST 1
  57:main.c        ****                                         //#define SOUTH 2
  58:main.c        ****                                         //#define WEST 3
  59:main.c        **** int puck_location[4] = {0,0,0,0};       // The block location values
  60:main.c        ****                                         //#define NORTH 0
  61:main.c        ****                                         //#define EAST 1
  62:main.c        ****                                         //#define SOUTH 2
  63:main.c        ****                                         //#define WEST 3
  64:main.c        **** 
  65:main.c        **** int safety_override = FALSE;            
  66:main.c        **** 
  67:main.c        **** // These block clearance variables are only true if we have enough room either side of the block to
  68:main.c        **** // And only true for the puck clearance variables if there is enough room to be able to turn at the
  69:main.c        **** short int block_east_clearance = 0;
  70:main.c        **** short int block_west_clearance = 0;
  71:main.c        **** short int puck_east_clearance = 0;
  72:main.c        **** short int puck_west_clearance = 0;
  73:main.c        **** 
  74:main.c        **** // * COLOUR VARIABLES * //
  75:main.c        **** 
  76:main.c        **** int idac_value = 0;  
  77:main.c        **** int colour_flag = 1;                    // sets which photodiode to use 
  78:main.c        **** int colour_sensing_algorithm = 0;      // Determines which colour sensing algorithm to use:
  79:main.c        ****                                                 // 0: Wall algorithm
  80:main.c        ****                                             // 1: Claw algorithm
  81:main.c        ****                                                 // 2: old algorithm
  82:main.c        **** 
  83:main.c        **** int moving = 0; // Temp to stop while loop from repeated runs of scanning plan code
  84:main.c        **** 
  85:main.c        **** const int PLAN_SCAN_VERTICAL = 10; // Set to ultrasonic distance at the home base 
  86:main.c        **** 
  87:main.c        **** int current_stage = 1;      // There are 3 stages, we start at 1
ARM GAS  C:\Users\jerry\AppData\Local\Temp\cc40088P.s 			page 3


  88:main.c        **** 
  89:main.c        **** 
  90:main.c        **** // GLOBAL VARIABLE
  91:main.c        **** int distance_returned_global;
  92:main.c        **** 
  93:main.c        **** 
  94:main.c        **** // * INTERRUPT HANDLING * // 
  95:main.c        **** CY_ISR(TIH)                             // Ultrasonic ISR Definition
  96:main.c        **** {
  28              		.loc 1 96 0
  29              		.cfi_startproc
  30              		@ args = 0, pretend = 0, frame = 0
  31              		@ frame_needed = 0, uses_anonymous_args = 0
  32 0000 08B5     		push	{r3, lr}
  33              		.cfi_def_cfa_offset 8
  34              		.cfi_offset 3, -8
  35              		.cfi_offset 14, -4
  97:main.c        ****     ultrasonicInterruptHandler();
  36              		.loc 1 97 0
  37 0002 FFF7FEFF 		bl	ultrasonicInterruptHandler
  38              	.LVL0:
  39 0006 08BD     		pop	{r3, pc}
  40              		.cfi_endproc
  41              	.LFE64:
  42              		.size	TIH, .-TIH
  43              		.section	.text.StartIH,"ax",%progbits
  44              		.align	2
  45              		.global	StartIH
  46              		.thumb
  47              		.thumb_func
  48              		.type	StartIH, %function
  49              	StartIH:
  50              	.LFB65:
  98:main.c        **** }
  99:main.c        **** 
 100:main.c        **** CY_ISR(StartIH)                             // Ultrasonic ISR Definition
 101:main.c        **** {
  51              		.loc 1 101 0
  52              		.cfi_startproc
  53              		@ args = 0, pretend = 0, frame = 0
  54              		@ frame_needed = 0, uses_anonymous_args = 0
  55 0000 08B5     		push	{r3, lr}
  56              		.cfi_def_cfa_offset 8
  57              		.cfi_offset 3, -8
  58              		.cfi_offset 14, -4
 102:main.c        ****     CyDelay(100);
  59              		.loc 1 102 0
  60 0002 6420     		movs	r0, #100
  61 0004 FFF7FEFF 		bl	CyDelay
  62              	.LVL1:
 103:main.c        ****     if (begin_navigation){
  63              		.loc 1 103 0
  64 0008 044B     		ldr	r3, .L6
  65 000a 1B68     		ldr	r3, [r3]
  66 000c 2BB1     		cbz	r3, .L3
 104:main.c        ****         UART_1_PutString("Beginning Navigation \n");
  67              		.loc 1 104 0
ARM GAS  C:\Users\jerry\AppData\Local\Temp\cc40088P.s 			page 4


  68 000e 0448     		ldr	r0, .L6+4
  69 0010 FFF7FEFF 		bl	UART_1_PutString
  70              	.LVL2:
 105:main.c        ****         //state = STATE_SCAN_PLAN; // Put to this for competition
 106:main.c        ****         state = STATE_LOCATE_BLOCK_AND_PUCKS;
  71              		.loc 1 106 0
  72 0014 0222     		movs	r2, #2
  73 0016 014B     		ldr	r3, .L6
  74 0018 5A60     		str	r2, [r3, #4]
  75              	.L3:
  76 001a 08BD     		pop	{r3, pc}
  77              	.L7:
  78              		.align	2
  79              	.L6:
  80 001c 00000000 		.word	.LANCHOR0
  81 0020 00000000 		.word	.LC0
  82              		.cfi_endproc
  83              	.LFE65:
  84              		.size	StartIH, .-StartIH
  85              		.section	.text.SAIH,"ax",%progbits
  86              		.align	2
  87              		.global	SAIH
  88              		.thumb
  89              		.thumb_func
  90              		.type	SAIH, %function
  91              	SAIH:
  92              	.LFB66:
 107:main.c        ****         //state = STATE_FIND_REQUIRED_PUCK;
 108:main.c        ****         //state = STATE_DEPOSIT_PUCK;
 109:main.c        ****         //state = STATE_PARK_HOME;
 110:main.c        ****         //preferential_route = WEST;
 111:main.c        ****         
 112:main.c        ****     }
 113:main.c        **** }
 114:main.c        **** 
 115:main.c        **** CY_ISR(SAIH)                             // 
 116:main.c        **** {
  93              		.loc 1 116 0
  94              		.cfi_startproc
  95              		@ args = 0, pretend = 0, frame = 0
  96              		@ frame_needed = 0, uses_anonymous_args = 0
  97 0000 08B5     		push	{r3, lr}
  98              		.cfi_def_cfa_offset 8
  99              		.cfi_offset 3, -8
 100              		.cfi_offset 14, -4
 117:main.c        ****     // Set a global variable 
 118:main.c        ****     Timer_straight_adjust_ReadStatusRegister();   // CLEARS INTERRUPTS 
 101              		.loc 1 118 0
 102 0002 FFF7FEFF 		bl	Timer_straight_adjust_ReadStatusRegister
 103              	.LVL3:
 119:main.c        ****     Motor_Left_Driver_Sleep();                  // puts it back to sleep
 104              		.loc 1 119 0
 105 0006 FFF7FEFF 		bl	Motor_Left_Driver_Sleep
 106              	.LVL4:
 120:main.c        ****     Motor_Right_Driver_Sleep();
 107              		.loc 1 120 0
 108 000a FFF7FEFF 		bl	Motor_Right_Driver_Sleep
ARM GAS  C:\Users\jerry\AppData\Local\Temp\cc40088P.s 			page 5


 109              	.LVL5:
 121:main.c        ****     moveDynamic(-20,SPEED,TRUE);                // calls movedynamic
 110              		.loc 1 121 0
 111 000e 0122     		movs	r2, #1
 112 0010 C821     		movs	r1, #200
 113 0012 6FF01300 		mvn	r0, #19
 114 0016 FFF7FEFF 		bl	moveDynamic
 115              	.LVL6:
 122:main.c        ****     moveDynamic(20, SPEED,TRUE); 
 116              		.loc 1 122 0
 117 001a 0122     		movs	r2, #1
 118 001c C821     		movs	r1, #200
 119 001e 1420     		movs	r0, #20
 120 0020 FFF7FEFF 		bl	moveDynamic
 121              	.LVL7:
 123:main.c        ****     Control_Reset_Straight_Write(1);
 122              		.loc 1 123 0
 123 0024 0120     		movs	r0, #1
 124 0026 FFF7FEFF 		bl	Control_Reset_Straight_Write
 125              	.LVL8:
 124:main.c        ****     CyDelay(10);
 126              		.loc 1 124 0
 127 002a 0A20     		movs	r0, #10
 128 002c FFF7FEFF 		bl	CyDelay
 129              	.LVL9:
 125:main.c        ****     Control_Reset_Straight_Write(0);
 130              		.loc 1 125 0
 131 0030 0020     		movs	r0, #0
 132 0032 FFF7FEFF 		bl	Control_Reset_Straight_Write
 133              	.LVL10:
 126:main.c        ****     Motor_Left_Driver_Wakeup();
 134              		.loc 1 126 0
 135 0036 FFF7FEFF 		bl	Motor_Left_Driver_Wakeup
 136              	.LVL11:
 127:main.c        ****     Motor_Left_Driver_WriteCompare(SPEED); // brings it back to continue the while loop
 137              		.loc 1 127 0
 138 003a C820     		movs	r0, #200
 139 003c FFF7FEFF 		bl	Motor_Left_Driver_WriteCompare
 140              	.LVL12:
 128:main.c        ****     Motor_Right_Driver_Wakeup();
 141              		.loc 1 128 0
 142 0040 FFF7FEFF 		bl	Motor_Right_Driver_Wakeup
 143              	.LVL13:
 129:main.c        ****     Motor_Right_Driver_WriteCompare(SPEED);
 144              		.loc 1 129 0
 145 0044 C820     		movs	r0, #200
 146 0046 FFF7FEFF 		bl	Motor_Right_Driver_WriteCompare
 147              	.LVL14:
 148 004a 08BD     		pop	{r3, pc}
 149              		.cfi_endproc
 150              	.LFE66:
 151              		.size	SAIH, .-SAIH
 152              		.section	.text.main,"ax",%progbits
 153              		.align	2
 154              		.global	main
 155              		.thumb
 156              		.thumb_func
ARM GAS  C:\Users\jerry\AppData\Local\Temp\cc40088P.s 			page 6


 157              		.type	main, %function
 158              	main:
 159              	.LFB67:
 130:main.c        **** }
 131:main.c        ****  
 132:main.c        **** 
 133:main.c        **** int main(void)
 134:main.c        **** {
 160              		.loc 1 134 0
 161              		.cfi_startproc
 162              		@ args = 0, pretend = 0, frame = 0
 163              		@ frame_needed = 0, uses_anonymous_args = 0
 164 0000 2DE9F043 		push	{r4, r5, r6, r7, r8, r9, lr}
 165              		.cfi_def_cfa_offset 28
 166              		.cfi_offset 4, -28
 167              		.cfi_offset 5, -24
 168              		.cfi_offset 6, -20
 169              		.cfi_offset 7, -16
 170              		.cfi_offset 8, -12
 171              		.cfi_offset 9, -8
 172              		.cfi_offset 14, -4
 173 0004 83B0     		sub	sp, sp, #12
 174              		.cfi_def_cfa_offset 40
 135:main.c        ****     CyGlobalIntEnable; /* Enable global interrupts. */
 175              		.loc 1 135 0
 176              		.syntax unified
 177              	@ 135 "main.c" 1
 178 0006 62B6     		CPSIE   i
 179              	@ 0 "" 2
 136:main.c        **** 
 137:main.c        ****     
 138:main.c        ****     TIA_1_Start();
 180              		.loc 1 138 0
 181              		.thumb
 182              		.syntax unified
 183 0008 FFF7FEFF 		bl	TIA_1_Start
 184              	.LVL15:
 139:main.c        ****     UART_1_Start();
 185              		.loc 1 139 0
 186 000c FFF7FEFF 		bl	UART_1_Start
 187              	.LVL16:
 140:main.c        ****     UART_1_PutString("UART commencing... \n");
 188              		.loc 1 140 0
 189 0010 8E48     		ldr	r0, .L60
 190 0012 FFF7FEFF 		bl	UART_1_PutString
 191              	.LVL17:
 141:main.c        ****     ADC_Start();
 192              		.loc 1 141 0
 193 0016 FFF7FEFF 		bl	ADC_Start
 194              	.LVL18:
 142:main.c        ****     IDAC8_1_Start();
 195              		.loc 1 142 0
 196 001a FFF7FEFF 		bl	IDAC8_1_Start
 197              	.LVL19:
 143:main.c        ****     
 144:main.c        ****     // DEBUGGING:
 145:main.c        ****         // Moved to debugging.c file, set it there
ARM GAS  C:\Users\jerry\AppData\Local\Temp\cc40088P.s 			page 7


 146:main.c        ****     
 147:main.c        ****     
 148:main.c        ****     // IDAC initialisation: 
 149:main.c        ****     IDAC8_1_SetRange(IDAC8_1_RANGE_32uA);       // Sets the range between 0 and 32uA
 198              		.loc 1 149 0
 199 001e 0020     		movs	r0, #0
 200 0020 FFF7FEFF 		bl	IDAC8_1_SetRange
 201              	.LVL20:
 150:main.c        ****     IDAC8_1_SetValue(idac_value);               // set a value between 0 and 255
 202              		.loc 1 150 0
 203 0024 8A4C     		ldr	r4, .L60+4
 204 0026 207A     		ldrb	r0, [r4, #8]	@ zero_extendqisi2
 205 0028 FFF7FEFF 		bl	IDAC8_1_SetValue
 206              	.LVL21:
 151:main.c        ****     
 152:main.c        ****     // Colour Sensing Initialisation & Debugging:
 153:main.c        ****     colour_sensing_algorithm = 0;
 207              		.loc 1 153 0
 208 002c 0025     		movs	r5, #0
 209 002e E560     		str	r5, [r4, #12]
 154:main.c        ****     control_photodiode_Write(colour_sensing_algorithm);            // controls which photodiode is 
 210              		.loc 1 154 0
 211 0030 2846     		mov	r0, r5
 212 0032 FFF7FEFF 		bl	control_photodiode_Write
 213              	.LVL22:
 155:main.c        ****                                                 // 0: wall
 156:main.c        ****                                                 // 1: claw
 157:main.c        ****     control_led_Write(1);   CyDelay(500);  // Ensures all the RGBs are working
 214              		.loc 1 157 0
 215 0036 0120     		movs	r0, #1
 216 0038 FFF7FEFF 		bl	control_led_Write
 217              	.LVL23:
 218 003c 4FF4FA70 		mov	r0, #500
 219 0040 FFF7FEFF 		bl	CyDelay
 220              	.LVL24:
 158:main.c        ****     control_led_Write(2);   CyDelay(500);
 221              		.loc 1 158 0
 222 0044 0220     		movs	r0, #2
 223 0046 FFF7FEFF 		bl	control_led_Write
 224              	.LVL25:
 225 004a 4FF4FA70 		mov	r0, #500
 226 004e FFF7FEFF 		bl	CyDelay
 227              	.LVL26:
 159:main.c        ****     control_led_Write(3);   CyDelay(500);
 228              		.loc 1 159 0
 229 0052 0320     		movs	r0, #3
 230 0054 FFF7FEFF 		bl	control_led_Write
 231              	.LVL27:
 232 0058 4FF4FA70 		mov	r0, #500
 233 005c FFF7FEFF 		bl	CyDelay
 234              	.LVL28:
 160:main.c        ****     control_led_Write(0);   CyDelay(500);
 235              		.loc 1 160 0
 236 0060 2846     		mov	r0, r5
 237 0062 FFF7FEFF 		bl	control_led_Write
 238              	.LVL29:
 239 0066 4FF4FA70 		mov	r0, #500
ARM GAS  C:\Users\jerry\AppData\Local\Temp\cc40088P.s 			page 8


 240 006a FFF7FEFF 		bl	CyDelay
 241              	.LVL30:
 161:main.c        ****     colourSensingInitialise();                  // Initialises the colour sensor
 242              		.loc 1 161 0
 243 006e FFF7FEFF 		bl	colourSensingInitialise
 244              	.LVL31:
 162:main.c        ****     
 163:main.c        **** 
 164:main.c        ****     //Servos for the arm instatination
 165:main.c        ****     Rack_Servo_PWM_Start();
 245              		.loc 1 165 0
 246 0072 FFF7FEFF 		bl	Rack_Servo_PWM_Start
 247              	.LVL32:
 166:main.c        ****     Rack_Servo_PWM_WriteCompare(1000);          // BRINGs rack to highest position, so not to mess 
 248              		.loc 1 166 0
 249 0076 4FF47A70 		mov	r0, #1000
 250 007a FFF7FEFF 		bl	Rack_Servo_PWM_WriteCompare
 251              	.LVL33:
 167:main.c        ****     CyDelay(500);
 252              		.loc 1 167 0
 253 007e 4FF4FA70 		mov	r0, #500
 254 0082 FFF7FEFF 		bl	CyDelay
 255              	.LVL34:
 168:main.c        ****     Rack_Servo_PWM_Sleep();
 256              		.loc 1 168 0
 257 0086 FFF7FEFF 		bl	Rack_Servo_PWM_Sleep
 258              	.LVL35:
 169:main.c        ****     
 170:main.c        ****     Gripper_Servo_PWM_Start();
 259              		.loc 1 170 0
 260 008a FFF7FEFF 		bl	Gripper_Servo_PWM_Start
 261              	.LVL36:
 171:main.c        ****     Gripper_Servo_PWM_WriteCompare(1120);       //This is the open gripper position
 262              		.loc 1 171 0
 263 008e 4FF48C60 		mov	r0, #1120
 264 0092 FFF7FEFF 		bl	Gripper_Servo_PWM_WriteCompare
 265              	.LVL37:
 172:main.c        ****     CyDelay(500);
 266              		.loc 1 172 0
 267 0096 4FF4FA70 		mov	r0, #500
 268 009a FFF7FEFF 		bl	CyDelay
 269              	.LVL38:
 173:main.c        ****     Gripper_Servo_PWM_Sleep();
 270              		.loc 1 173 0
 271 009e FFF7FEFF 		bl	Gripper_Servo_PWM_Sleep
 272              	.LVL39:
 174:main.c        ****     
 175:main.c        ****     // Motors Initialisation:
 176:main.c        ****     Motor_Left_Driver_Start();
 273              		.loc 1 176 0
 274 00a2 FFF7FEFF 		bl	Motor_Left_Driver_Start
 275              	.LVL40:
 177:main.c        ****     Motor_Right_Driver_Start();
 276              		.loc 1 177 0
 277 00a6 FFF7FEFF 		bl	Motor_Right_Driver_Start
 278              	.LVL41:
 178:main.c        ****     Motor_Left_Driver_WriteCompare(0);          // sets the motors to 0 so it will be smooth next t
ARM GAS  C:\Users\jerry\AppData\Local\Temp\cc40088P.s 			page 9


 279              		.loc 1 178 0
 280 00aa 2846     		mov	r0, r5
 281 00ac FFF7FEFF 		bl	Motor_Left_Driver_WriteCompare
 282              	.LVL42:
 179:main.c        ****     Motor_Right_Driver_WriteCompare(0);
 283              		.loc 1 179 0
 284 00b0 2846     		mov	r0, r5
 285 00b2 FFF7FEFF 		bl	Motor_Right_Driver_WriteCompare
 286              	.LVL43:
 180:main.c        ****     Motor_Left_Driver_Sleep();                  // Puts motor to sleep
 287              		.loc 1 180 0
 288 00b6 FFF7FEFF 		bl	Motor_Left_Driver_Sleep
 289              	.LVL44:
 181:main.c        ****     Motor_Right_Driver_Sleep();                 // Puts motor to sleep
 290              		.loc 1 181 0
 291 00ba FFF7FEFF 		bl	Motor_Right_Driver_Sleep
 292              	.LVL45:
 182:main.c        ****     
 183:main.c        ****     Motor_Left_Decoder_Start();
 293              		.loc 1 183 0
 294 00be FFF7FEFF 		bl	Motor_Left_Decoder_Start
 295              	.LVL46:
 184:main.c        ****     Motor_Right_Decoder_Start();
 296              		.loc 1 184 0
 297 00c2 FFF7FEFF 		bl	Motor_Right_Decoder_Start
 298              	.LVL47:
 185:main.c        ****     
 186:main.c        ****     internal_orientation = WEST;                // robot initial starts in the West direction
 299              		.loc 1 186 0
 300 00c6 0326     		movs	r6, #3
 301 00c8 624B     		ldr	r3, .L60+8
 302 00ca 1E60     		str	r6, [r3]
 187:main.c        ****     //internal_orientation = SOUTH;                
 188:main.c        ****     
 189:main.c        ****     // Timer and ISR instantiation
 190:main.c        ****     Timer_1_Start();                
 303              		.loc 1 190 0
 304 00cc FFF7FEFF 		bl	Timer_1_Start
 305              	.LVL48:
 191:main.c        ****     Timer_1_ReadStatusRegister();
 306              		.loc 1 191 0
 307 00d0 FFF7FEFF 		bl	Timer_1_ReadStatusRegister
 308              	.LVL49:
 192:main.c        ****     Sonic_StartEx(TIH);
 309              		.loc 1 192 0
 310 00d4 6048     		ldr	r0, .L60+12
 311 00d6 FFF7FEFF 		bl	Sonic_StartEx
 312              	.LVL50:
 193:main.c        ****     Start_StartEx(StartIH);
 313              		.loc 1 193 0
 314 00da 6048     		ldr	r0, .L60+16
 315 00dc FFF7FEFF 		bl	Start_StartEx
 316              	.LVL51:
 194:main.c        ****     Straight_StartEx(SAIH);
 317              		.loc 1 194 0
 318 00e0 5F48     		ldr	r0, .L60+20
 319 00e2 FFF7FEFF 		bl	Straight_StartEx
ARM GAS  C:\Users\jerry\AppData\Local\Temp\cc40088P.s 			page 10


 320              	.LVL52:
 195:main.c        ****     begin_navigation = 1; // Set to true after it has run ISR at least once
 321              		.loc 1 195 0
 322 00e6 0127     		movs	r7, #1
 323 00e8 2760     		str	r7, [r4]
 196:main.c        ****     
 197:main.c        ****     // Ultrasonic Initialisation & Calibration:
 198:main.c        ****     // The ultrasonics take several test measurements to ensure they are working
 199:main.c        ****         
 200:main.c        ****     UART_1_PutString("Ultrasonic Calibration tests: \n");
 324              		.loc 1 200 0
 325 00ea 5E48     		ldr	r0, .L60+24
 326 00ec FFF7FEFF 		bl	UART_1_PutString
 327              	.LVL53:
 201:main.c        ****     safetyDistanceCheck();
 328              		.loc 1 201 0
 329 00f0 FFF7FEFF 		bl	safetyDistanceCheck
 330              	.LVL54:
 202:main.c        ****     safetyDistanceCheck();
 331              		.loc 1 202 0
 332 00f4 FFF7FEFF 		bl	safetyDistanceCheck
 333              	.LVL55:
 203:main.c        ****     safetyDistanceCheck();
 334              		.loc 1 203 0
 335 00f8 FFF7FEFF 		bl	safetyDistanceCheck
 336              	.LVL56:
 204:main.c        ****     
 205:main.c        ****     // Straight adjust timer: 
 206:main.c        ****     Timer_straight_adjust_Start();              
 337              		.loc 1 206 0
 338 00fc FFF7FEFF 		bl	Timer_straight_adjust_Start
 339              	.LVL57:
 207:main.c        ****     Timer_straight_adjust_ReadStatusRegister();
 340              		.loc 1 207 0
 341 0100 FFF7FEFF 		bl	Timer_straight_adjust_ReadStatusRegister
 342              	.LVL58:
 208:main.c        ****     //Control_Reset_Straight_Write(0);
 209:main.c        ****     
 210:main.c        ****     // FORCING STATE:
 211:main.c        ****     // Manual state set for testing
 212:main.c        ****     state = STATE_PRE_RUN;
 343              		.loc 1 212 0
 344 0104 6560     		str	r5, [r4, #4]
 213:main.c        ****     puck_construction_plan[0] = RED;
 345              		.loc 1 213 0
 346 0106 2761     		str	r7, [r4, #16]
 214:main.c        ****     puck_construction_plan[1] = GREEN;
 347              		.loc 1 214 0
 348 0108 0223     		movs	r3, #2
 349 010a 6361     		str	r3, [r4, #20]
 215:main.c        ****     puck_construction_plan[2] = BLUE;
 350              		.loc 1 215 0
 351 010c A661     		str	r6, [r4, #24]
 352              	.L57:
 216:main.c        ****     
 217:main.c        **** 
 218:main.c        ****     // Main Loop for States
ARM GAS  C:\Users\jerry\AppData\Local\Temp\cc40088P.s 			page 11


 219:main.c        ****     
 220:main.c        ****     //while(1){}
 221:main.c        ****     
 222:main.c        ****     for(;;)
 223:main.c        ****     {
 224:main.c        **** 
 225:main.c        ****         if (state == STATE_PRE_RUN){
 226:main.c        ****         
 227:main.c        ****         }
 228:main.c        **** 
 229:main.c        ****         while(0){
 230:main.c        ****             distanceSensor(SIDE_LEFT);
 231:main.c        ****             CyDelay(60);
 232:main.c        ****             sprintf(output, "%d \t", sensor_distances[SIDE_LEFT]);
 233:main.c        ****             UART_1_PutString(output);
 234:main.c        ****         }
 235:main.c        **** 
 236:main.c        **** // *** 1. STATE SCAN PLAN: *** // 
 237:main.c        **** //
 238:main.c        ****         
 239:main.c        ****       
 240:main.c        ****         if (state == STATE_SCAN_PLAN) {              // colour sensing, while switch has not been p
 353              		.loc 1 240 0
 354 010e 504B     		ldr	r3, .L60+4
 355 0110 5B68     		ldr	r3, [r3, #4]
 356 0112 012B     		cmp	r3, #1
 357 0114 78D1     		bne	.L11
 358              	.LBB2:
 241:main.c        **** 
 242:main.c        **** 
 243:main.c        ****             // Debugging: 
 244:main.c        **** 
 245:main.c        ****             ultimateDebugging();        // If any of the debugging flags are activated, this will b
 359              		.loc 1 245 0
 360 0116 FFF7FEFF 		bl	ultimateDebugging
 361              	.LVL59:
 246:main.c        ****             
 247:main.c        **** 
 248:main.c        ****             straightAdjust(FRONT_SENSORS);
 362              		.loc 1 248 0
 363 011a 0720     		movs	r0, #7
 364 011c FFF7FEFF 		bl	straightAdjust
 365              	.LVL60:
 249:main.c        ****             moveUntil(-100, BACKWARD, LESS_THAN, BACK_RIGHT, SPEED, TRUE);
 366              		.loc 1 249 0
 367 0120 0124     		movs	r4, #1
 368 0122 0194     		str	r4, [sp, #4]
 369 0124 C825     		movs	r5, #200
 370 0126 0095     		str	r5, [sp]
 371 0128 0423     		movs	r3, #4
 372 012a 2246     		mov	r2, r4
 373 012c 0021     		movs	r1, #0
 374 012e 6FF06300 		mvn	r0, #99
 375 0132 FFF7FEFF 		bl	moveUntil
 376              	.LVL61:
 250:main.c        ****             moveUntil(400, FORWARD, LESS_THAN, FRONT_LEFT, SPEED, TRUE);
 377              		.loc 1 250 0
ARM GAS  C:\Users\jerry\AppData\Local\Temp\cc40088P.s 			page 12


 378 0136 0194     		str	r4, [sp, #4]
 379 0138 0095     		str	r5, [sp]
 380 013a 0023     		movs	r3, #0
 381 013c 2246     		mov	r2, r4
 382 013e 2146     		mov	r1, r4
 383 0140 4FF4C870 		mov	r0, #400
 384 0144 FFF7FEFF 		bl	moveUntil
 385              	.LVL62:
 251:main.c        ****             moveDynamic(-450, SPEED, TRUE);
 386              		.loc 1 251 0
 387 0148 2246     		mov	r2, r4
 388 014a 2946     		mov	r1, r5
 389 014c 4648     		ldr	r0, .L60+28
 390 014e FFF7FEFF 		bl	moveDynamic
 391              	.LVL63:
 252:main.c        ****             CyDelay(500);   
 392              		.loc 1 252 0
 393 0152 4FF4FA70 		mov	r0, #500
 394 0156 FFF7FEFF 		bl	CyDelay
 395              	.LVL64:
 253:main.c        ****             colourSensingInitialise();      // Initialises wall colour sensor against the black wal
 396              		.loc 1 253 0
 397 015a FFF7FEFF 		bl	colourSensingInitialise
 398              	.LVL65:
 254:main.c        ****             CyDelay(500);
 399              		.loc 1 254 0
 400 015e 4FF4FA70 		mov	r0, #500
 401 0162 FFF7FEFF 		bl	CyDelay
 402              	.LVL66:
 255:main.c        ****             moveDynamic(170, SPEED, TRUE);
 403              		.loc 1 255 0
 404 0166 2246     		mov	r2, r4
 405 0168 2946     		mov	r1, r5
 406 016a AA20     		movs	r0, #170
 407 016c FFF7FEFF 		bl	moveDynamic
 408              	.LVL67:
 256:main.c        ****             CyDelay(500);
 409              		.loc 1 256 0
 410 0170 4FF4FA70 		mov	r0, #500
 411 0174 FFF7FEFF 		bl	CyDelay
 412              	.LVL68:
 413              	.LBB3:
 257:main.c        **** 
 258:main.c        ****             for (int i = 0; i < 5; i++) {                       // scan each of the pucks 
 414              		.loc 1 258 0
 415 0178 0024     		movs	r4, #0
 416 017a 14E0     		b	.L12
 417              	.LVL69:
 418              	.L13:
 259:main.c        ****                 puck_rack_scans[i] = colourSensingOutput();
 419              		.loc 1 259 0 discriminator 3
 420 017c FFF7FEFF 		bl	colourSensingOutput
 421              	.LVL70:
 422 0180 334D     		ldr	r5, .L60+4
 423 0182 05EB8405 		add	r5, r5, r4, lsl #2
 424 0186 E861     		str	r0, [r5, #28]
 260:main.c        ****                 CyDelay(500);
ARM GAS  C:\Users\jerry\AppData\Local\Temp\cc40088P.s 			page 13


 425              		.loc 1 260 0 discriminator 3
 426 0188 4FF4FA70 		mov	r0, #500
 427 018c FFF7FEFF 		bl	CyDelay
 428              	.LVL71:
 261:main.c        ****                 moveDynamic(61, SPEED, TRUE);
 429              		.loc 1 261 0 discriminator 3
 430 0190 0122     		movs	r2, #1
 431 0192 C821     		movs	r1, #200
 432 0194 3D20     		movs	r0, #61
 433 0196 FFF7FEFF 		bl	moveDynamic
 434              	.LVL72:
 262:main.c        ****                 blinkLED(puck_rack_scans[i],500);   // Will show us which coloured puck it thinks i
 435              		.loc 1 262 0 discriminator 3
 436 019a 4FF4FA71 		mov	r1, #500
 437 019e E869     		ldr	r0, [r5, #28]
 438 01a0 FFF7FEFF 		bl	blinkLED
 439              	.LVL73:
 258:main.c        ****                 puck_rack_scans[i] = colourSensingOutput();
 440              		.loc 1 258 0 discriminator 3
 441 01a4 0134     		adds	r4, r4, #1
 442              	.LVL74:
 443              	.L12:
 258:main.c        ****                 puck_rack_scans[i] = colourSensingOutput();
 444              		.loc 1 258 0 is_stmt 0 discriminator 1
 445 01a6 042C     		cmp	r4, #4
 446 01a8 E8DD     		ble	.L13
 447              	.LBE3:
 263:main.c        ****             }
 264:main.c        ****             
 265:main.c        ****             //straightAdjust(FRONT_SENSORS);
 266:main.c        ****             //moveUntil(-100, BACKWARD, LESS_THAN, BACK, SPEED, TRUE);
 267:main.c        ****             //colourSensingInitialise();      // Initialises wall colour sensor against the black w
 268:main.c        ****                           
 269:main.c        ****             UART_1_PutString("Found Colours: \n");
 448              		.loc 1 269 0 is_stmt 1
 449 01aa 3048     		ldr	r0, .L60+32
 450 01ac FFF7FEFF 		bl	UART_1_PutString
 451              	.LVL75:
 452              	.LBB4:
 270:main.c        ****             for (int i = 0; i < 5; i++) 
 453              		.loc 1 270 0
 454 01b0 0024     		movs	r4, #0
 455              	.LVL76:
 456 01b2 0CE0     		b	.L14
 457              	.LVL77:
 458              	.L15:
 271:main.c        ****             {
 272:main.c        ****                 sprintf(output, "%i \n", puck_rack_scans[i]);    // updates UART showing values of 
 459              		.loc 1 272 0 discriminator 3
 460 01b4 264B     		ldr	r3, .L60+4
 461 01b6 03EB8403 		add	r3, r3, r4, lsl #2
 462 01ba 2D4D     		ldr	r5, .L60+36
 463 01bc DA69     		ldr	r2, [r3, #28]
 464 01be 2D49     		ldr	r1, .L60+40
 465 01c0 2846     		mov	r0, r5
 466 01c2 FFF7FEFF 		bl	sprintf
 467              	.LVL78:
ARM GAS  C:\Users\jerry\AppData\Local\Temp\cc40088P.s 			page 14


 273:main.c        ****                 UART_1_PutString(output);
 468              		.loc 1 273 0 discriminator 3
 469 01c6 2846     		mov	r0, r5
 470 01c8 FFF7FEFF 		bl	UART_1_PutString
 471              	.LVL79:
 270:main.c        ****             for (int i = 0; i < 5; i++) 
 472              		.loc 1 270 0 discriminator 3
 473 01cc 0134     		adds	r4, r4, #1
 474              	.LVL80:
 475              	.L14:
 270:main.c        ****             for (int i = 0; i < 5; i++) 
 476              		.loc 1 270 0 is_stmt 0 discriminator 1
 477 01ce 042C     		cmp	r4, #4
 478 01d0 F0DD     		ble	.L15
 479              	.LBE4:
 274:main.c        ****             }
 275:main.c        ****             
 276:main.c        ****             
 277:main.c        ****             control_photodiode_Write(CLAW_SENSING);    // changes to claw photodiode
 480              		.loc 1 277 0 is_stmt 1
 481 01d2 0120     		movs	r0, #1
 482 01d4 FFF7FEFF 		bl	control_photodiode_Write
 483              	.LVL81:
 278:main.c        ****             colour_sensing_algorithm = CLAW_1_ALGORITHM;   // changes it to claw algorithm
 484              		.loc 1 278 0
 485 01d8 0122     		movs	r2, #1
 486 01da 1D4B     		ldr	r3, .L60+4
 487 01dc DA60     		str	r2, [r3, #12]
 488              	.LVL82:
 489              	.LBB5:
 279:main.c        ****                                  
 280:main.c        ****             // THEN WE FILTER THE NO PUCK VALUES:
 281:main.c        ****             int puck_construction_plan_index = 0; // Will be used to iterate through the 3 puck col
 282:main.c        ****             
 283:main.c        ****             // Iterate over all 5 rack slots and place the 3 colours into puck_construction_plan.
 284:main.c        ****             for (int puck_rack_index = 0; puck_rack_index < 5; puck_rack_index++){
 490              		.loc 1 284 0
 491 01de 0023     		movs	r3, #0
 492              	.LBE5:
 281:main.c        ****             
 493              		.loc 1 281 0
 494 01e0 1A46     		mov	r2, r3
 495              	.LBB6:
 496              		.loc 1 284 0
 497 01e2 0CE0     		b	.L16
 498              	.LVL83:
 499              	.L18:
 285:main.c        ****                 if (puck_rack_scans[puck_rack_index] != BLANK && puck_construction_plan_index != 3)
 500              		.loc 1 285 0
 501 01e4 1A49     		ldr	r1, .L60+4
 502 01e6 01EB8301 		add	r1, r1, r3, lsl #2
 503 01ea C869     		ldr	r0, [r1, #28]
 504 01ec 30B1     		cbz	r0, .L17
 505              		.loc 1 285 0 is_stmt 0 discriminator 1
 506 01ee 032A     		cmp	r2, #3
 507 01f0 04D0     		beq	.L17
 286:main.c        ****                     puck_construction_plan[puck_construction_plan_index] = puck_rack_scans[puck_rac
ARM GAS  C:\Users\jerry\AppData\Local\Temp\cc40088P.s 			page 15


 508              		.loc 1 286 0 is_stmt 1
 509 01f2 1749     		ldr	r1, .L60+4
 510 01f4 01EB8201 		add	r1, r1, r2, lsl #2
 511 01f8 0861     		str	r0, [r1, #16]
 287:main.c        ****                     puck_construction_plan_index++;
 512              		.loc 1 287 0
 513 01fa 0132     		adds	r2, r2, #1
 514              	.LVL84:
 515              	.L17:
 284:main.c        ****                 if (puck_rack_scans[puck_rack_index] != BLANK && puck_construction_plan_index != 3)
 516              		.loc 1 284 0 discriminator 2
 517 01fc 0133     		adds	r3, r3, #1
 518              	.LVL85:
 519              	.L16:
 284:main.c        ****                 if (puck_rack_scans[puck_rack_index] != BLANK && puck_construction_plan_index != 3)
 520              		.loc 1 284 0 is_stmt 0 discriminator 1
 521 01fe 042B     		cmp	r3, #4
 522 0200 F0DD     		ble	.L18
 523              	.LBE6:
 288:main.c        ****                 }
 289:main.c        ****             }
 290:main.c        ****                     
 291:main.c        ****             // MOVE into the next state: 
 292:main.c        ****             state = STATE_LOCATE_BLOCK_AND_PUCKS;
 524              		.loc 1 292 0 is_stmt 1
 525 0202 0222     		movs	r2, #2
 526              	.LVL86:
 527 0204 124B     		ldr	r3, .L60+4
 528              	.LVL87:
 529 0206 5A60     		str	r2, [r3, #4]
 530              	.LVL88:
 531              	.L11:
 532              	.LBE2:
 293:main.c        **** 
 294:main.c        ****         }
 295:main.c        **** 
 296:main.c        **** //
 297:main.c        **** // *** 2. STATE LOCATE BLOCKS AND PUCKS: *** // 
 298:main.c        **** //
 299:main.c        ****         
 300:main.c        ****     	if (state == STATE_LOCATE_BLOCK_AND_PUCKS){
 533              		.loc 1 300 0
 534 0208 114B     		ldr	r3, .L60+4
 535 020a 5B68     		ldr	r3, [r3, #4]
 536 020c 022B     		cmp	r3, #2
 537 020e 40F00781 		bne	.L19
 538              	.LBB7:
 301:main.c        ****             
 302:main.c        ****             ultimateDebugging();   
 539              		.loc 1 302 0
 540 0212 FFF7FEFF 		bl	ultimateDebugging
 541              	.LVL89:
 303:main.c        **** 
 304:main.c        ****             // move away from home base:
 305:main.c        ****             
 306:main.c        ****             translateMoveDynamic(45, -35, 100, FALSE);
 542              		.loc 1 306 0
ARM GAS  C:\Users\jerry\AppData\Local\Temp\cc40088P.s 			page 16


 543 0216 0023     		movs	r3, #0
 544 0218 6422     		movs	r2, #100
 545 021a 6FF02201 		mvn	r1, #34
 546 021e 1648     		ldr	r0, .L60+44
 547 0220 FFF7FEFF 		bl	translateMoveDynamic
 548              	.LVL90:
 307:main.c        ****             //straightAdjust(FRONT_SENSORS);
 308:main.c        ****     
 309:main.c        ****             // Move until construction zone            
 310:main.c        ****             moveUntil(130, FORWARD, LESS_THAN, FRONT_LEFT, SPEED, TRUE);  // Move to west wall
 549              		.loc 1 310 0
 550 0224 0121     		movs	r1, #1
 551 0226 0191     		str	r1, [sp, #4]
 552 0228 C823     		movs	r3, #200
 553 022a 0093     		str	r3, [sp]
 554 022c 0023     		movs	r3, #0
 555 022e 0A46     		mov	r2, r1
 556 0230 8220     		movs	r0, #130
 557 0232 FFF7FEFF 		bl	moveUntil
 558              	.LVL91:
 311:main.c        ****             straightAdjust(FRONT_SENSORS);                                      // straighten again
 559              		.loc 1 311 0
 560 0236 0720     		movs	r0, #7
 561 0238 FFF7FEFF 		bl	straightAdjust
 562              	.LVL92:
 312:main.c        ****             
 313:main.c        ****             
 314:main.c        ****             distanceSensor(SIDE_LEFT);  // takes how far we are away from home base wall
 563              		.loc 1 314 0
 564 023c 0220     		movs	r0, #2
 565 023e FFF7FEFF 		bl	distanceSensor
 566              	.LVL93:
 315:main.c        ****             CyDelay(50);
 567              		.loc 1 315 0
 568 0242 3220     		movs	r0, #50
 569 0244 FFF7FEFF 		bl	CyDelay
 570              	.LVL94:
 316:main.c        ****             while (sensor_distances[SIDE_LEFT] > (BLOCK_ZONE_SOUTH - WIDTH_SENSOR_TO_SENSOR)) {
 571              		.loc 1 316 0
 572 0248 1EE0     		b	.L20
 573              	.L61:
 574 024a 00BF     		.align	2
 575              	.L60:
 576 024c 18000000 		.word	.LC1
 577 0250 00000000 		.word	.LANCHOR0
 578 0254 00000000 		.word	internal_orientation
 579 0258 00000000 		.word	TIH
 580 025c 00000000 		.word	StartIH
 581 0260 00000000 		.word	SAIH
 582 0264 30000000 		.word	.LC2
 583 0268 3EFEFFFF 		.word	-450
 584 026c 50000000 		.word	.LC3
 585 0270 00000000 		.word	output
 586 0274 64000000 		.word	.LC4
 587 0278 00003442 		.word	1110704128
 588              	.L21:
 317:main.c        ****                 // stays in while loop until side left value taken is appropriate
ARM GAS  C:\Users\jerry\AppData\Local\Temp\cc40088P.s 			page 17


 318:main.c        ****                 // E.g. the side left value should be less than BLOCK_ZONE_SOUTH - WIDTH_SENSOR_TO_
 319:main.c        ****                 // So, it should be less than 500mm - 220mm = 280mm
 320:main.c        ****                 distanceSensor(SIDE_LEFT);
 589              		.loc 1 320 0
 590 027c 0220     		movs	r0, #2
 591 027e FFF7FEFF 		bl	distanceSensor
 592              	.LVL95:
 321:main.c        ****                 CyDelay(50);
 593              		.loc 1 321 0
 594 0282 3220     		movs	r0, #50
 595 0284 FFF7FEFF 		bl	CyDelay
 596              	.LVL96:
 597              	.L20:
 316:main.c        ****             while (sensor_distances[SIDE_LEFT] > (BLOCK_ZONE_SOUTH - WIDTH_SENSOR_TO_SENSOR)) {
 598              		.loc 1 316 0
 599 0288 C14B     		ldr	r3, .L62
 600 028a 9E68     		ldr	r6, [r3, #8]
 601 028c B6F58C7F 		cmp	r6, #280
 602 0290 F4DC     		bgt	.L21
 322:main.c        ****                 } 
 323:main.c        ****             
 324:main.c        ****             int block_threshold = BLOCK_ZONE_NORTH - sensor_distances[SIDE_LEFT] - WIDTH_SENSOR_TO_
 603              		.loc 1 324 0
 604 0292 C6F50376 		rsb	r6, r6, #524
 605 0296 0136     		adds	r6, r6, #1
 606              	.LVL97:
 325:main.c        ****             
 326:main.c        ****             
 327:main.c        ****             // Check if we FIND the block: 
 328:main.c        ****             
 329:main.c        ****             moveUntil(block_threshold, BACKWARD, LESS_THAN, SIDE_RIGHT, SPEED, TRUE);  
 607              		.loc 1 329 0
 608 0298 0124     		movs	r4, #1
 609 029a 0194     		str	r4, [sp, #4]
 610 029c C825     		movs	r5, #200
 611 029e 0095     		str	r5, [sp]
 612 02a0 0323     		movs	r3, #3
 613 02a2 2246     		mov	r2, r4
 614 02a4 0021     		movs	r1, #0
 615 02a6 3046     		mov	r0, r6
 616 02a8 FFF7FEFF 		bl	moveUntil
 617              	.LVL98:
 330:main.c        ****                 // We have hit the west side of the block
 331:main.c        ****                 //UART_1_PutString("BLOCK FIRST");
 332:main.c        ****                 
 333:main.c        ****                 blinkLED(GREEN,1000);   
 618              		.loc 1 333 0
 619 02ac 4FF47A71 		mov	r1, #1000
 620 02b0 0220     		movs	r0, #2
 621 02b2 FFF7FEFF 		bl	blinkLED
 622              	.LVL99:
 334:main.c        ****                 
 335:main.c        ****                 // Find the WEST clearance of the block with ultrasonics: 
 336:main.c        ****                 distanceSensor(FRONT_LEFT); 
 623              		.loc 1 336 0
 624 02b6 0020     		movs	r0, #0
 625 02b8 FFF7FEFF 		bl	distanceSensor
ARM GAS  C:\Users\jerry\AppData\Local\Temp\cc40088P.s 			page 18


 626              	.LVL100:
 337:main.c        ****                 CyDelay(DELAY);
 627              		.loc 1 337 0
 628 02bc 3C20     		movs	r0, #60
 629 02be FFF7FEFF 		bl	CyDelay
 630              	.LVL101:
 338:main.c        ****                 
 339:main.c        ****                 block_location[WEST] = sensor_distances[FRONT_LEFT] + DISTANCE_FRONT_SENSOR_TO_SIDE
 631              		.loc 1 339 0
 632 02c2 DFF8CC92 		ldr	r9, .L62
 633 02c6 D9F80020 		ldr	r2, [r9]
 634 02ca 02F19603 		add	r3, r2, #150
 635 02ce DFF8D082 		ldr	r8, .L62+16
 636 02d2 C8F83C30 		str	r3, [r8, #60]
 340:main.c        ****                 sprintf(output, "west block front sensor: %d, \n", sensor_distances[FRONT_LEFT] ); 
 637              		.loc 1 340 0
 638 02d6 AF4F     		ldr	r7, .L62+4
 639 02d8 AF49     		ldr	r1, .L62+8
 640 02da 3846     		mov	r0, r7
 641 02dc FFF7FEFF 		bl	sprintf
 642              	.LVL102:
 341:main.c        ****                 UART_1_PutString(output);
 643              		.loc 1 341 0
 644 02e0 3846     		mov	r0, r7
 645 02e2 FFF7FEFF 		bl	UART_1_PutString
 646              	.LVL103:
 342:main.c        ****                 
 343:main.c        ****                 // OR find the west clearance of the block with encoders: 
 344:main.c        ****                 //block_location[WEST] = 130 + global_distance + DISTANCE_WHEEL_TO_SENSOR;    //130
 345:main.c        ****                 
 346:main.c        ****                 // Stopping at the East side of the block:
 347:main.c        ****                 moveDynamic(-BLOCK_WIDTH/2,SPEED,TRUE);
 647              		.loc 1 347 0
 648 02e6 2246     		mov	r2, r4
 649 02e8 2946     		mov	r1, r5
 650 02ea 6FF02C00 		mvn	r0, #44
 651 02ee FFF7FEFF 		bl	moveDynamic
 652              	.LVL104:
 348:main.c        ****                 moveUntil(block_threshold, BACKWARD, GREATER_THAN, SIDE_RIGHT, SPEED, TRUE);    // 
 653              		.loc 1 348 0
 654 02f2 0194     		str	r4, [sp, #4]
 655 02f4 0095     		str	r5, [sp]
 656 02f6 0323     		movs	r3, #3
 657 02f8 4FF0FF32 		mov	r2, #-1
 658 02fc 0021     		movs	r1, #0
 659 02fe 3046     		mov	r0, r6
 660 0300 FFF7FEFF 		bl	moveUntil
 661              	.LVL105:
 349:main.c        ****                 blinkLED(GREEN,1000);                                                           // 
 662              		.loc 1 349 0
 663 0304 4FF47A71 		mov	r1, #1000
 664 0308 0220     		movs	r0, #2
 665 030a FFF7FEFF 		bl	blinkLED
 666              	.LVL106:
 350:main.c        ****                 
 351:main.c        ****                 distanceSensor(BACK_RIGHT);
 667              		.loc 1 351 0
ARM GAS  C:\Users\jerry\AppData\Local\Temp\cc40088P.s 			page 19


 668 030e 0420     		movs	r0, #4
 669 0310 FFF7FEFF 		bl	distanceSensor
 670              	.LVL107:
 352:main.c        ****                 CyDelay(50);
 671              		.loc 1 352 0
 672 0314 3220     		movs	r0, #50
 673 0316 FFF7FEFF 		bl	CyDelay
 674              	.LVL108:
 353:main.c        ****                 block_location[EAST] = sensor_distances[BACK_RIGHT] + DISTANCE_BACK_SENSOR_TO_SIDE_
 675              		.loc 1 353 0
 676 031a D9F81030 		ldr	r3, [r9, #16]
 677 031e 6433     		adds	r3, r3, #100
 678 0320 C8F83430 		str	r3, [r8, #52]
 354:main.c        ****                 
 355:main.c        **** 
 356:main.c        ****                 // determining if the block is facing east or west and then offsetting that value: 
 357:main.c        ****                 /*
 358:main.c        ****                 if (global_distance < (BLOCK_LENGTH/2)) {
 359:main.c        ****                     // block is facing this way "|"
 360:main.c        ****                     block_location[EAST] = ARENA_WIDTH - block_location[WEST] - BLOCK_WIDTH;
 361:main.c        ****                 }
 362:main.c        ****                 else {
 363:main.c        ****                     // block is facing this way "---"
 364:main.c        ****                     block_location[EAST] = ARENA_WIDTH - block_location[WEST] - BLOCK_LENGTH;
 365:main.c        ****                     
 366:main.c        ****                 }
 367:main.c        **** 
 368:main.c        ****                 */
 369:main.c        ****                 
 370:main.c        ****                 sprintf(output, "east block front sensor: %d, \n", sensor_distances[FRONT_LEFT] ); 
 679              		.loc 1 370 0
 680 0324 D9F80020 		ldr	r2, [r9]
 681 0328 9C49     		ldr	r1, .L62+12
 682 032a 3846     		mov	r0, r7
 683 032c FFF7FEFF 		bl	sprintf
 684              	.LVL109:
 371:main.c        ****                 UART_1_PutString(output);
 685              		.loc 1 371 0
 686 0330 3846     		mov	r0, r7
 687 0332 FFF7FEFF 		bl	UART_1_PutString
 688              	.LVL110:
 372:main.c        **** 
 373:main.c        ****  
 374:main.c        ****                 
 375:main.c        ****             // brings us to the east side WITH SAFETY margins: 
 376:main.c        ****             moveDynamic(-100,SPEED,TRUE);
 689              		.loc 1 376 0
 690 0336 2246     		mov	r2, r4
 691 0338 2946     		mov	r1, r5
 692 033a 6FF06300 		mvn	r0, #99
 693 033e FFF7FEFF 		bl	moveDynamic
 694              	.LVL111:
 377:main.c        ****             changeOrientation(EAST,SPEED);
 695              		.loc 1 377 0
 696 0342 2946     		mov	r1, r5
 697 0344 2046     		mov	r0, r4
 698 0346 FFF7FEFF 		bl	changeOrientation
ARM GAS  C:\Users\jerry\AppData\Local\Temp\cc40088P.s 			page 20


 699              	.LVL112:
 378:main.c        ****             moveUntil(CLEARANCE_RADIUS_CENTER_TO_FRONT + SAFETY_MARGIN/2, FORWARD, LESS_THAN, FRONT
 700              		.loc 1 378 0
 701 034a 0194     		str	r4, [sp, #4]
 702 034c 0095     		str	r5, [sp]
 703 034e 0023     		movs	r3, #0
 704 0350 2246     		mov	r2, r4
 705 0352 2146     		mov	r1, r4
 706 0354 AC20     		movs	r0, #172
 707 0356 FFF7FEFF 		bl	moveUntil
 708              	.LVL113:
 379:main.c        ****             changeOrientation(SOUTH, SPEED);
 709              		.loc 1 379 0
 710 035a 2946     		mov	r1, r5
 711 035c 0220     		movs	r0, #2
 712 035e FFF7FEFF 		bl	changeOrientation
 713              	.LVL114:
 380:main.c        ****             moveUntil(CLEARANCE_RADIUS_CENTER_TO_FRONT + SAFETY_MARGIN/2, BACKWARD, GREATER_THAN, F
 714              		.loc 1 380 0
 715 0362 0194     		str	r4, [sp, #4]
 716 0364 0095     		str	r5, [sp]
 717 0366 0023     		movs	r3, #0
 718 0368 4FF0FF32 		mov	r2, #-1
 719 036c 1946     		mov	r1, r3
 720 036e AC20     		movs	r0, #172
 721 0370 FFF7FEFF 		bl	moveUntil
 722              	.LVL115:
 381:main.c        ****             changeOrientation(EAST, SPEED);
 723              		.loc 1 381 0
 724 0374 2946     		mov	r1, r5
 725 0376 2046     		mov	r0, r4
 726 0378 FFF7FEFF 		bl	changeOrientation
 727              	.LVL116:
 382:main.c        ****             
 383:main.c        ****             
 384:main.c        ****             
 385:main.c        ****             // DETERMINES THE CLEARANCES AVAILABLE FOR OUR ROBOT
 386:main.c        ****             if (block_location[EAST] > WIDTH_WHEEL_TO_WHEEL + BLOCK_TOLERANCE + 100) {
 728              		.loc 1 386 0
 729 037c D8F83420 		ldr	r2, [r8, #52]
 730 0380 B2F5B67F 		cmp	r2, #364
 731 0384 02DD     		ble	.L22
 387:main.c        ****                 // the east clearance of block check
 388:main.c        ****               block_east_clearance = 1;  
 732              		.loc 1 388 0
 733 0386 4346     		mov	r3, r8
 734 0388 A3F84040 		strh	r4, [r3, #64]	@ movhi
 735              	.L22:
 389:main.c        ****             }
 390:main.c        ****             if (block_location[WEST] > WIDTH_WHEEL_TO_WHEEL + BLOCK_TOLERANCE + 100) {
 736              		.loc 1 390 0
 737 038c 844B     		ldr	r3, .L62+16
 738 038e DB6B     		ldr	r3, [r3, #60]
 739 0390 B3F5B67F 		cmp	r3, #364
 740 0394 03DD     		ble	.L23
 391:main.c        ****                 // the east clearance of block check
 392:main.c        ****               block_west_clearance = 1;  
ARM GAS  C:\Users\jerry\AppData\Local\Temp\cc40088P.s 			page 21


 741              		.loc 1 392 0
 742 0396 0120     		movs	r0, #1
 743 0398 8149     		ldr	r1, .L62+16
 744 039a A1F84200 		strh	r0, [r1, #66]	@ movhi
 745              	.L23:
 393:main.c        ****             }
 394:main.c        **** 
 395:main.c        ****             
 396:main.c        ****             // DETERMINES WHICH PATH TO TAKE: 
 397:main.c        ****             if (block_location[EAST] > block_location[WEST]) {
 746              		.loc 1 397 0
 747 039e 9A42     		cmp	r2, r3
 748 03a0 03DD     		ble	.L24
 398:main.c        ****                 preferential_route = EAST;
 749              		.loc 1 398 0
 750 03a2 0122     		movs	r2, #1
 751 03a4 7F4B     		ldr	r3, .L62+20
 752 03a6 1A60     		str	r2, [r3]
 753 03a8 02E0     		b	.L25
 754              	.L24:
 399:main.c        ****             }
 400:main.c        ****             else {
 401:main.c        ****                 preferential_route = WEST;
 755              		.loc 1 401 0
 756 03aa 0322     		movs	r2, #3
 757 03ac 7D4B     		ldr	r3, .L62+20
 758 03ae 1A60     		str	r2, [r3]
 759              	.L25:
 402:main.c        ****             }
 403:main.c        ****             // Middle route:
 404:main.c        ****                 // preferential_route = MIDDLE; 
 405:main.c        ****             
 406:main.c        ****                       
 407:main.c        ****             
 408:main.c        ****             
 409:main.c        ****             sprintf(output, "west puck clearance: %d, \n", puck_west_clearance);       
 760              		.loc 1 409 0
 761 03b0 7B4D     		ldr	r5, .L62+16
 762 03b2 784C     		ldr	r4, .L62+4
 763 03b4 B5F94420 		ldrsh	r2, [r5, #68]
 764 03b8 7B49     		ldr	r1, .L62+24
 765 03ba 2046     		mov	r0, r4
 766 03bc FFF7FEFF 		bl	sprintf
 767              	.LVL117:
 410:main.c        ****             UART_1_PutString(output);
 768              		.loc 1 410 0
 769 03c0 2046     		mov	r0, r4
 770 03c2 FFF7FEFF 		bl	UART_1_PutString
 771              	.LVL118:
 411:main.c        ****             sprintf(output, "east puck clearance: %d, \n\n", puck_east_clearance);       
 772              		.loc 1 411 0
 773 03c6 B5F94620 		ldrsh	r2, [r5, #70]
 774 03ca 7849     		ldr	r1, .L62+28
 775 03cc 2046     		mov	r0, r4
 776 03ce FFF7FEFF 		bl	sprintf
 777              	.LVL119:
 412:main.c        ****             UART_1_PutString(output);
ARM GAS  C:\Users\jerry\AppData\Local\Temp\cc40088P.s 			page 22


 778              		.loc 1 412 0
 779 03d2 2046     		mov	r0, r4
 780 03d4 FFF7FEFF 		bl	UART_1_PutString
 781              	.LVL120:
 413:main.c        ****             
 414:main.c        ****             sprintf(output, "west block clearance: %d, \n", block_west_clearance);       
 782              		.loc 1 414 0
 783 03d8 B5F94220 		ldrsh	r2, [r5, #66]
 784 03dc 7449     		ldr	r1, .L62+32
 785 03de 2046     		mov	r0, r4
 786 03e0 FFF7FEFF 		bl	sprintf
 787              	.LVL121:
 415:main.c        ****             UART_1_PutString(output);
 788              		.loc 1 415 0
 789 03e4 2046     		mov	r0, r4
 790 03e6 FFF7FEFF 		bl	UART_1_PutString
 791              	.LVL122:
 416:main.c        ****             sprintf(output, "east block clearance: %d, \n", block_east_clearance);       
 792              		.loc 1 416 0
 793 03ea B5F94020 		ldrsh	r2, [r5, #64]
 794 03ee 7149     		ldr	r1, .L62+36
 795 03f0 2046     		mov	r0, r4
 796 03f2 FFF7FEFF 		bl	sprintf
 797              	.LVL123:
 417:main.c        ****             UART_1_PutString(output);
 798              		.loc 1 417 0
 799 03f6 2046     		mov	r0, r4
 800 03f8 FFF7FEFF 		bl	UART_1_PutString
 801              	.LVL124:
 418:main.c        ****             
 419:main.c        ****             sprintf(output, "west block distance: %d, \n", block_location[WEST]);       
 802              		.loc 1 419 0
 803 03fc EA6B     		ldr	r2, [r5, #60]
 804 03fe 6E49     		ldr	r1, .L62+40
 805 0400 2046     		mov	r0, r4
 806 0402 FFF7FEFF 		bl	sprintf
 807              	.LVL125:
 420:main.c        ****             UART_1_PutString(output);
 808              		.loc 1 420 0
 809 0406 2046     		mov	r0, r4
 810 0408 FFF7FEFF 		bl	UART_1_PutString
 811              	.LVL126:
 421:main.c        ****             sprintf(output, "east block distance: %d, \n", block_location[EAST]);       
 812              		.loc 1 421 0
 813 040c 6A6B     		ldr	r2, [r5, #52]
 814 040e 6B49     		ldr	r1, .L62+44
 815 0410 2046     		mov	r0, r4
 816 0412 FFF7FEFF 		bl	sprintf
 817              	.LVL127:
 422:main.c        ****             UART_1_PutString(output);
 818              		.loc 1 422 0
 819 0416 2046     		mov	r0, r4
 820 0418 FFF7FEFF 		bl	UART_1_PutString
 821              	.LVL128:
 423:main.c        ****             
 424:main.c        ****             
 425:main.c        ****             
ARM GAS  C:\Users\jerry\AppData\Local\Temp\cc40088P.s 			page 23


 426:main.c        ****             
 427:main.c        ****             
 428:main.c        ****            // while(1) {} // just want to do the block and puck finding
 429:main.c        ****             
 430:main.c        ****             //changeOrientation(WEST,SPEED);
 431:main.c        ****             //moveDynamic(-600, SPEED, TRUE);
 432:main.c        ****             //moveUntil((puck_location[EAST]/2),FORWARD, LESS_THAN, FRONT_LEFT, SPEED, TRUE);
 433:main.c        ****             //straightAdjust();
 434:main.c        ****             //changeOrientation(WEST,SPEED);
 435:main.c        ****             //moveUntil((PUCK_GRID_FROM_NORTH/2), FORWARD, LESS_THAN, FRONT_LEFT, SPEED,TRUE);
 436:main.c        ****             //straightAdjust();
 437:main.c        ****             //changeOrientation(EAST, SPEED);
 438:main.c        ****             ///oveDynamic(1200, SPEED, TRUE);
 439:main.c        ****             
 440:main.c        **** 
 441:main.c        ****             
 442:main.c        ****             /*
 443:main.c        ****             moveUntil(200, BACKWARD, GREATER_THAN, FRONT_LEFT, SPEED, TRUE);
 444:main.c        ****             changeOrientation(SOUTH,SPEED);
 445:main.c        ****             changeOrientation(EAST, SPEED);
 446:main.c        ****             straightAdjust(FRONT_SENSORS);
 447:main.c        ****             moveUntil(CLEARANCE_RADIUS_CENTER_TO_FRONT + SAFETY_MARGIN/2, FORWARD, LESS_THAN, FRONT
 448:main.c        ****             translateUntil(CLEARANCE_RADIUS_CENTER_TO_BACK - SAFETY_MARGIN, 200, LEFT, GREATER_THAN
 449:main.c        ****             straightAdjust(FRONT_SENSORS);
 450:main.c        ****             */
 451:main.c        ****             
 452:main.c        ****             // PUCK has now been found, enter the IF statements to locate and pick up pucks 
 453:main.c        ****             state = STATE_GO_TO_PUCKS;
 822              		.loc 1 453 0
 823 041c 0323     		movs	r3, #3
 824 041e 6B60     		str	r3, [r5, #4]
 825              	.LVL129:
 826              	.L19:
 827              	.LBE7:
 454:main.c        **** 	    }     
 455:main.c        **** 
 456:main.c        **** //
 457:main.c        **** // *** 3. STATE GO TO PUCKS: *** // 
 458:main.c        **** //
 459:main.c        **** 
 460:main.c        ****         // Ensure that we are @ east wall facing east at a minimum verticaldistance so we can turn 
 461:main.c        ****         
 462:main.c        ****         if (state == STATE_GO_TO_PUCKS){
 828              		.loc 1 462 0
 829 0420 5F4B     		ldr	r3, .L62+16
 830 0422 5B68     		ldr	r3, [r3, #4]
 831 0424 032B     		cmp	r3, #3
 832 0426 40F0DE82 		bne	.L27
 833 042a F3E0     		b	.L26
 834              	.L35:
 463:main.c        ****             
 464:main.c        ****             // The different route finding Algorithms for the different combinations: 
 465:main.c        ****             
 466:main.c        ****     // EAST ROUTE: 
 467:main.c        ****             while (preferential_route == EAST) {
 468:main.c        ****                 UART_1_PutString("Taking east route");
 835              		.loc 1 468 0
ARM GAS  C:\Users\jerry\AppData\Local\Temp\cc40088P.s 			page 24


 836 042c 6448     		ldr	r0, .L62+48
 837 042e FFF7FEFF 		bl	UART_1_PutString
 838              	.LVL130:
 469:main.c        ****                 //moveUntil(WALL_CLEARANCE_FRONT, BACKWARD, GREATER_THAN, FRONT_LEFT, SPEED, TRUE);
 470:main.c        ****                 moveForwardThenBackward(150,LESS_THAN,FRONT_MIDDLE,SPEED_LOW,TRUE);
 839              		.loc 1 470 0
 840 0432 0124     		movs	r4, #1
 841 0434 0094     		str	r4, [sp]
 842 0436 4623     		movs	r3, #70
 843 0438 0522     		movs	r2, #5
 844 043a 2146     		mov	r1, r4
 845 043c 9620     		movs	r0, #150
 846 043e FFF7FEFF 		bl	moveForwardThenBackward
 847              	.LVL131:
 471:main.c        ****                 straightAdjust(FRONT_SENSORS);
 848              		.loc 1 471 0
 849 0442 0720     		movs	r0, #7
 850 0444 FFF7FEFF 		bl	straightAdjust
 851              	.LVL132:
 472:main.c        ****                 //changeOrientation(SOUTH, SPEED);        // this should clear us of the wall
 473:main.c        ****                 //moveUntil(CLEARANCE_RADIUS_CENTER_TO_FRONT + SAFETY_MARGIN/2, BACKWARD, GREATER_T
 474:main.c        ****                 //changeOrientation(EAST, SPEED);
 475:main.c        ****                 changeOrientation(NORTH, SPEED);
 852              		.loc 1 475 0
 853 0448 C821     		movs	r1, #200
 854 044a 0020     		movs	r0, #0
 855 044c FFF7FEFF 		bl	changeOrientation
 856              	.LVL133:
 476:main.c        ****                 //straightAdjust(FRONT_SENSORS);    
 477:main.c        ****                 
 478:main.c        ****                 distanceSensor(BACK_LEFT);          // checking initial distance from the wall
 857              		.loc 1 478 0
 858 0450 0620     		movs	r0, #6
 859 0452 FFF7FEFF 		bl	distanceSensor
 860              	.LVL134:
 479:main.c        ****                 CyDelay(50);
 861              		.loc 1 479 0
 862 0456 3220     		movs	r0, #50
 863 0458 FFF7FEFF 		bl	CyDelay
 864              	.LVL135:
 480:main.c        ****                 initial_tolerance = sensor_distances[BACK_LEFT];
 865              		.loc 1 480 0
 866 045c 4C4B     		ldr	r3, .L62
 867 045e 9B69     		ldr	r3, [r3, #24]
 868 0460 584D     		ldr	r5, .L62+52
 869 0462 2B60     		str	r3, [r5]
 481:main.c        ****                 
 482:main.c        ****                 //moveUntil(PUCK_GRID_FROM_NORTH + DISTANCE_FRONT_SENSOR_FROM_CENTER - PUCK_GRID_DI
 483:main.c        ****                         // move until corner wall
 484:main.c        ****                 moveUntil(CLEARANCE_RADIUS_CENTER_TO_BACK, FORWARD, LESS_THAN, FRONT_LEFT, SPEED, T
 870              		.loc 1 484 0
 871 0464 0194     		str	r4, [sp, #4]
 872 0466 C823     		movs	r3, #200
 873 0468 0093     		str	r3, [sp]
 874 046a 0023     		movs	r3, #0
 875 046c 2246     		mov	r2, r4
 876 046e 2146     		mov	r1, r4
ARM GAS  C:\Users\jerry\AppData\Local\Temp\cc40088P.s 			page 25


 877 0470 F020     		movs	r0, #240
 878 0472 FFF7FEFF 		bl	moveUntil
 879              	.LVL136:
 485:main.c        ****                 
 486:main.c        ****                 
 487:main.c        ****                 sprintf(output, "initial tolerance: %d\n", initial_tolerance);      
 880              		.loc 1 487 0
 881 0476 474C     		ldr	r4, .L62+4
 882 0478 2A68     		ldr	r2, [r5]
 883 047a 5349     		ldr	r1, .L62+56
 884 047c 2046     		mov	r0, r4
 885 047e FFF7FEFF 		bl	sprintf
 886              	.LVL137:
 488:main.c        ****                 UART_1_PutString(output); 
 887              		.loc 1 488 0
 888 0482 2046     		mov	r0, r4
 889 0484 FFF7FEFF 		bl	UART_1_PutString
 890              	.LVL138:
 489:main.c        ****                 
 490:main.c        ****                 sprintf(output, "global distance: %d\n", global_distance);      
 891              		.loc 1 490 0
 892 0488 504E     		ldr	r6, .L62+60
 893 048a 3268     		ldr	r2, [r6]
 894 048c 5049     		ldr	r1, .L62+64
 895 048e 2046     		mov	r0, r4
 896 0490 FFF7FEFF 		bl	sprintf
 897              	.LVL139:
 491:main.c        ****                 UART_1_PutString(output); 
 898              		.loc 1 491 0
 899 0494 2046     		mov	r0, r4
 900 0496 FFF7FEFF 		bl	UART_1_PutString
 901              	.LVL140:
 492:main.c        ****                 
 493:main.c        ****                 if (global_distance < ARENA_WIDTH - PUCK_GRID_FROM_NORTH - DISTANCE_BACK_SENSOR_FRO
 902              		.loc 1 493 0
 903 049a 2868     		ldr	r0, [r5]
 904 049c C0F51473 		rsb	r3, r0, #592
 905 04a0 0333     		adds	r3, r3, #3
 906 04a2 3268     		ldr	r2, [r6]
 907 04a4 9342     		cmp	r3, r2
 908 04a6 22DD     		ble	.L28
 494:main.c        ****                     // Has hit the pucks and must try the west route
 495:main.c        ****                     // move until backwards to original starting position 
 496:main.c        ****                     
 497:main.c        ****                     moveUntil(initial_tolerance, BACKWARD, LESS_THAN, BACK_LEFT, SPEED, TRUE);  // 
 909              		.loc 1 497 0
 910 04a8 0124     		movs	r4, #1
 911 04aa 0194     		str	r4, [sp, #4]
 912 04ac C825     		movs	r5, #200
 913 04ae 0095     		str	r5, [sp]
 914 04b0 0623     		movs	r3, #6
 915 04b2 2246     		mov	r2, r4
 916 04b4 0021     		movs	r1, #0
 917 04b6 FFF7FEFF 		bl	moveUntil
 918              	.LVL141:
 498:main.c        ****                     moveForwardThenBackward(initial_tolerance,GREATER_THAN,BACK_LEFT,SPEED_LOW,TRUE
 919              		.loc 1 498 0
ARM GAS  C:\Users\jerry\AppData\Local\Temp\cc40088P.s 			page 26


 920 04ba 424B     		ldr	r3, .L62+52
 921 04bc 1868     		ldr	r0, [r3]
 922 04be 0094     		str	r4, [sp]
 923 04c0 4623     		movs	r3, #70
 924 04c2 0622     		movs	r2, #6
 925 04c4 4FF0FF31 		mov	r1, #-1
 926 04c8 FFF7FEFF 		bl	moveForwardThenBackward
 927              	.LVL142:
 499:main.c        ****                     changeOrientation(EAST, SPEED);
 928              		.loc 1 499 0
 929 04cc 2946     		mov	r1, r5
 930 04ce 2046     		mov	r0, r4
 931 04d0 FFF7FEFF 		bl	changeOrientation
 932              	.LVL143:
 500:main.c        ****                     if (block_west_clearance == 1) { preferential_route = WEST; } else {preferentia
 933              		.loc 1 500 0
 934 04d4 324B     		ldr	r3, .L62+16
 935 04d6 B3F94230 		ldrsh	r3, [r3, #66]
 936 04da A342     		cmp	r3, r4
 937 04dc 03D1     		bne	.L29
 938              		.loc 1 500 0 is_stmt 0 discriminator 1
 939 04de 0322     		movs	r2, #3
 940 04e0 304B     		ldr	r3, .L62+20
 941 04e2 1A60     		str	r2, [r3]
 942 04e4 D4E1     		b	.L30
 943              	.L29:
 944              		.loc 1 500 0 discriminator 2
 945 04e6 0222     		movs	r2, #2
 946 04e8 2E4B     		ldr	r3, .L62+20
 947 04ea 1A60     		str	r2, [r3]
 948 04ec D0E1     		b	.L30
 949              	.L28:
 501:main.c        ****                     break;  // breaks out of the route to change routes 
 502:main.c        ****                 }
 503:main.c        ****                 else {
 504:main.c        ****                     // have moved into the corner, checking if enough tolerance in corner 
 505:main.c        ****                     distanceSensor(SIDE_LEFT); 
 950              		.loc 1 505 0 is_stmt 1
 951 04ee 0220     		movs	r0, #2
 952 04f0 FFF7FEFF 		bl	distanceSensor
 953              	.LVL144:
 506:main.c        ****                     CyDelay(50);
 954              		.loc 1 506 0
 955 04f4 3220     		movs	r0, #50
 956 04f6 FFF7FEFF 		bl	CyDelay
 957              	.LVL145:
 507:main.c        ****                     
 508:main.c        ****                     if (sensor_distances[SIDE_LEFT] > CLEARANCE_RADIUS_CENTER_TO_BACK - (SIDE_SENSO
 958              		.loc 1 508 0
 959 04fa 254B     		ldr	r3, .L62
 960 04fc 9B68     		ldr	r3, [r3, #8]
 961 04fe 732B     		cmp	r3, #115
 962 0500 6CDD     		ble	.L31
 509:main.c        ****     // continue with the route MAIN CODE FOR ROUTE
 510:main.c        ****                         straightAdjust(FRONT_SENSORS);
 963              		.loc 1 510 0
 964 0502 0720     		movs	r0, #7
ARM GAS  C:\Users\jerry\AppData\Local\Temp\cc40088P.s 			page 27


 965 0504 FFF7FEFF 		bl	straightAdjust
 966              	.LVL146:
 511:main.c        ****                         changeOrientation(WEST, SPEED);
 967              		.loc 1 511 0
 968 0508 C821     		movs	r1, #200
 969 050a 0320     		movs	r0, #3
 970 050c FFF7FEFF 		bl	changeOrientation
 971              	.LVL147:
 512:main.c        ****                         straightAdjust(BACK_SENSORS);
 972              		.loc 1 512 0
 973 0510 0820     		movs	r0, #8
 974 0512 FFF7FEFF 		bl	straightAdjust
 975              	.LVL148:
 513:main.c        ****         
 514:main.c        ****                         if (current_stage == 1) {             
 976              		.loc 1 514 0
 977 0516 2F4B     		ldr	r3, .L62+68
 978 0518 1B68     		ldr	r3, [r3]
 979 051a 012B     		cmp	r3, #1
 980 051c 12D1     		bne	.L32
 515:main.c        ****                             moveUntil(DISTANCE_MIDDLE_STOPPED_FROM_PUCK, FORWARD, LESS_THAN, FRONT_
 981              		.loc 1 515 0
 982 051e 0121     		movs	r1, #1
 983 0520 0191     		str	r1, [sp, #4]
 984 0522 C820     		movs	r0, #200
 985 0524 0090     		str	r0, [sp]
 986 0526 0523     		movs	r3, #5
 987 0528 0A46     		mov	r2, r1
 988 052a FFF7FEFF 		bl	moveUntil
 989              	.LVL149:
 516:main.c        ****                             distanceSensor(BACK_LEFT);
 990              		.loc 1 516 0
 991 052e 0620     		movs	r0, #6
 992 0530 FFF7FEFF 		bl	distanceSensor
 993              	.LVL150:
 517:main.c        ****                             CyDelay(50);
 994              		.loc 1 517 0
 995 0534 3220     		movs	r0, #50
 996 0536 FFF7FEFF 		bl	CyDelay
 997              	.LVL151:
 518:main.c        ****                             puck_grid_initial = sensor_distances[BACK_LEFT];
 998              		.loc 1 518 0
 999 053a 154B     		ldr	r3, .L62
 1000 053c 9A69     		ldr	r2, [r3, #24]
 1001 053e 264B     		ldr	r3, .L62+72
 1002 0540 1A60     		str	r2, [r3]
 1003 0542 0AE0     		b	.L33
 1004              	.L32:
 519:main.c        ****                         }
 520:main.c        ****                         else {
 521:main.c        ****                             moveUntil(puck_grid_initial, FORWARD, GREATER_THAN, BACK_LEFT, SPEED, T
 1005              		.loc 1 521 0
 1006 0544 244B     		ldr	r3, .L62+72
 1007 0546 1868     		ldr	r0, [r3]
 1008 0548 0121     		movs	r1, #1
 1009 054a 0191     		str	r1, [sp, #4]
 1010 054c C823     		movs	r3, #200
ARM GAS  C:\Users\jerry\AppData\Local\Temp\cc40088P.s 			page 28


 1011 054e 0093     		str	r3, [sp]
 1012 0550 0623     		movs	r3, #6
 1013 0552 4FF0FF32 		mov	r2, #-1
 1014 0556 FFF7FEFF 		bl	moveUntil
 1015              	.LVL152:
 1016              	.L33:
 522:main.c        ****                         }
 523:main.c        ****                         
 524:main.c        ****                         changeOrientation(NORTH, SPEED_LOW);
 1017              		.loc 1 524 0
 1018 055a 4621     		movs	r1, #70
 1019 055c 0020     		movs	r0, #0
 1020 055e FFF7FEFF 		bl	changeOrientation
 1021              	.LVL153:
 525:main.c        ****                         moveForwardThenBackward(255 - 52 * current_puck_stack_size, LESS_THAN, FRON
 1022              		.loc 1 525 0
 1023 0562 0F4C     		ldr	r4, .L62+16
 1024 0564 A06C     		ldr	r0, [r4, #72]
 1025 0566 6FF03303 		mvn	r3, #51
 1026 056a 03FB00F0 		mul	r0, r3, r0
 1027 056e 0121     		movs	r1, #1
 1028 0570 0091     		str	r1, [sp]
 1029 0572 4623     		movs	r3, #70
 1030 0574 0522     		movs	r2, #5
 1031 0576 FF30     		adds	r0, r0, #255
 1032 0578 FFF7FEFF 		bl	moveForwardThenBackward
 1033              	.LVL154:
 526:main.c        ****                         straightAdjust(FRONT_SENSORS);
 1034              		.loc 1 526 0
 1035 057c 0720     		movs	r0, #7
 1036 057e FFF7FEFF 		bl	straightAdjust
 1037              	.LVL155:
 527:main.c        ****                         changeOrientation(WEST, SPEED_LOW);
 1038              		.loc 1 527 0
 1039 0582 4621     		movs	r1, #70
 1040 0584 0320     		movs	r0, #3
 1041 0586 FFF7FEFF 		bl	changeOrientation
 1042              	.LVL156:
 528:main.c        ****                         
 529:main.c        ****                         state = STATE_FIND_REQUIRED_PUCK;       // CHANGE STATE
 1043              		.loc 1 529 0
 1044 058a 0423     		movs	r3, #4
 1045 058c 6360     		str	r3, [r4, #4]
 530:main.c        ****                         
 531:main.c        ****                         break;
 1046              		.loc 1 531 0
 1047 058e 7FE1     		b	.L30
 1048              	.L63:
 1049              		.align	2
 1050              	.L62:
 1051 0590 00000000 		.word	sensor_distances
 1052 0594 00000000 		.word	output
 1053 0598 6C000000 		.word	.LC5
 1054 059c 8C000000 		.word	.LC6
 1055 05a0 00000000 		.word	.LANCHOR0
 1056 05a4 00000000 		.word	preferential_route
 1057 05a8 AC000000 		.word	.LC7
ARM GAS  C:\Users\jerry\AppData\Local\Temp\cc40088P.s 			page 29


 1058 05ac C8000000 		.word	.LC8
 1059 05b0 E4000000 		.word	.LC9
 1060 05b4 00010000 		.word	.LC10
 1061 05b8 1C010000 		.word	.LC11
 1062 05bc 38010000 		.word	.LC12
 1063 05c0 54010000 		.word	.LC13
 1064 05c4 00000000 		.word	initial_tolerance
 1065 05c8 68010000 		.word	.LC14
 1066 05cc 00000000 		.word	global_distance
 1067 05d0 80010000 		.word	.LC15
 1068 05d4 00000000 		.word	.LANCHOR1
 1069 05d8 00000000 		.word	puck_grid_initial
 1070              	.L31:
 532:main.c        ****                     }   
 533:main.c        ****                     else {
 534:main.c        ****                         // Not enough distance to continue this route
 535:main.c        ****                         moveUntil(initial_tolerance, BACKWARD, LESS_THAN, BACK_LEFT, SPEED, TRUE); 
 1071              		.loc 1 535 0
 1072 05dc A14B     		ldr	r3, .L64
 1073 05de 1868     		ldr	r0, [r3]
 1074 05e0 0124     		movs	r4, #1
 1075 05e2 0194     		str	r4, [sp, #4]
 1076 05e4 C825     		movs	r5, #200
 1077 05e6 0095     		str	r5, [sp]
 1078 05e8 0623     		movs	r3, #6
 1079 05ea 2246     		mov	r2, r4
 1080 05ec 0021     		movs	r1, #0
 1081 05ee FFF7FEFF 		bl	moveUntil
 1082              	.LVL157:
 536:main.c        ****                         changeOrientation(EAST, SPEED);
 1083              		.loc 1 536 0
 1084 05f2 2946     		mov	r1, r5
 1085 05f4 2046     		mov	r0, r4
 1086 05f6 FFF7FEFF 		bl	changeOrientation
 1087              	.LVL158:
 537:main.c        ****                         if (block_west_clearance == 1) { preferential_route = WEST; } else {prefere
 1088              		.loc 1 537 0
 1089 05fa 9B4B     		ldr	r3, .L64+4
 1090 05fc B3F94230 		ldrsh	r3, [r3, #66]
 1091 0600 A342     		cmp	r3, r4
 1092 0602 03D1     		bne	.L34
 1093              		.loc 1 537 0 is_stmt 0 discriminator 1
 1094 0604 0322     		movs	r2, #3
 1095 0606 994B     		ldr	r3, .L64+8
 1096 0608 1A60     		str	r2, [r3]
 1097 060a 41E1     		b	.L30
 1098              	.L34:
 1099              		.loc 1 537 0 discriminator 2
 1100 060c 0222     		movs	r2, #2
 1101 060e 974B     		ldr	r3, .L64+8
 1102 0610 1A60     		str	r2, [r3]
 1103 0612 3DE1     		b	.L30
 1104              	.L26:
 467:main.c        ****                 UART_1_PutString("Taking east route");
 1105              		.loc 1 467 0 is_stmt 1
 1106 0614 954B     		ldr	r3, .L64+8
 1107 0616 1B68     		ldr	r3, [r3]
ARM GAS  C:\Users\jerry\AppData\Local\Temp\cc40088P.s 			page 30


 1108 0618 012B     		cmp	r3, #1
 1109 061a 40F03981 		bne	.L30
 1110 061e 05E7     		b	.L35
 1111              	.L43:
 538:main.c        ****                         break;  
 539:main.c        ****                     }
 540:main.c        ****                 }
 541:main.c        ****             }
 542:main.c        ****             
 543:main.c        ****     // WEST ROUTE: 
 544:main.c        ****             while (preferential_route == WEST) {
 545:main.c        ****                 UART_1_PutString("Taking west route");
 1112              		.loc 1 545 0
 1113 0620 9348     		ldr	r0, .L64+12
 1114 0622 FFF7FEFF 		bl	UART_1_PutString
 1115              	.LVL159:
 546:main.c        ****                 moveUntil(CLEARANCE_RADIUS_CENTER_TO_BACK , BACKWARD, GREATER_THAN, FRONT_LEFT, SPE
 1116              		.loc 1 546 0
 1117 0626 0125     		movs	r5, #1
 1118 0628 0195     		str	r5, [sp, #4]
 1119 062a C824     		movs	r4, #200
 1120 062c 0094     		str	r4, [sp]
 1121 062e 0023     		movs	r3, #0
 1122 0630 4FF0FF32 		mov	r2, #-1
 1123 0634 1946     		mov	r1, r3
 1124 0636 F020     		movs	r0, #240
 1125 0638 FFF7FEFF 		bl	moveUntil
 1126              	.LVL160:
 547:main.c        ****                 straightAdjust(FRONT_SENSORS); 
 1127              		.loc 1 547 0
 1128 063c 0720     		movs	r0, #7
 1129 063e FFF7FEFF 		bl	straightAdjust
 1130              	.LVL161:
 548:main.c        ****                 changeOrientation(NORTH, SPEED);        // FASSE SOUTH TO ADJUST
 1131              		.loc 1 548 0
 1132 0642 2146     		mov	r1, r4
 1133 0644 0020     		movs	r0, #0
 1134 0646 FFF7FEFF 		bl	changeOrientation
 1135              	.LVL162:
 549:main.c        ****                 changeOrientation(WEST, SPEED);
 1136              		.loc 1 549 0
 1137 064a 2146     		mov	r1, r4
 1138 064c 0320     		movs	r0, #3
 1139 064e FFF7FEFF 		bl	changeOrientation
 1140              	.LVL163:
 550:main.c        ****                 straightAdjust(BACK_SENSORS);           // fine up toll here
 1141              		.loc 1 550 0
 1142 0652 0820     		movs	r0, #8
 1143 0654 FFF7FEFF 		bl	straightAdjust
 1144              	.LVL164:
 551:main.c        ****                 moveUntil(150, FORWARD, LESS_THAN, FRONT_LEFT, SPEED, TRUE);
 1145              		.loc 1 551 0
 1146 0658 0195     		str	r5, [sp, #4]
 1147 065a 0094     		str	r4, [sp]
 1148 065c 0023     		movs	r3, #0
 1149 065e 2A46     		mov	r2, r5
 1150 0660 2946     		mov	r1, r5
ARM GAS  C:\Users\jerry\AppData\Local\Temp\cc40088P.s 			page 31


 1151 0662 9620     		movs	r0, #150
 1152 0664 FFF7FEFF 		bl	moveUntil
 1153              	.LVL165:
 552:main.c        ****                 changeOrientation(SOUTH, SPEED);       // about to BACK UP INTO WEST CORNER
 1154              		.loc 1 552 0
 1155 0668 2146     		mov	r1, r4
 1156 066a 0220     		movs	r0, #2
 1157 066c FFF7FEFF 		bl	changeOrientation
 1158              	.LVL166:
 553:main.c        ****                 moveUntil(CLEARANCE_RADIUS_CENTER_TO_BACK, BACKWARD, GREATER_THAN, FRONT_LEFT, SPEE
 1159              		.loc 1 553 0
 1160 0670 0195     		str	r5, [sp, #4]
 1161 0672 0094     		str	r4, [sp]
 1162 0674 0023     		movs	r3, #0
 1163 0676 4FF0FF32 		mov	r2, #-1
 1164 067a 1946     		mov	r1, r3
 1165 067c F020     		movs	r0, #240
 1166 067e FFF7FEFF 		bl	moveUntil
 1167              	.LVL167:
 554:main.c        ****                 changeOrientation(WEST, SPEED);
 1168              		.loc 1 554 0
 1169 0682 2146     		mov	r1, r4
 1170 0684 0320     		movs	r0, #3
 1171 0686 FFF7FEFF 		bl	changeOrientation
 1172              	.LVL168:
 555:main.c        ****                 changeOrientation(NORTH, SPEED);
 1173              		.loc 1 555 0
 1174 068a 2146     		mov	r1, r4
 1175 068c 0020     		movs	r0, #0
 1176 068e FFF7FEFF 		bl	changeOrientation
 1177              	.LVL169:
 556:main.c        ****                 straightAdjust(BACK_SENSORS); 
 1178              		.loc 1 556 0
 1179 0692 0820     		movs	r0, #8
 1180 0694 FFF7FEFF 		bl	straightAdjust
 1181              	.LVL170:
 557:main.c        ****                 
 558:main.c        ****                 distanceSensor(BACK_LEFT);          // checking initial distance from the wall
 1182              		.loc 1 558 0
 1183 0698 0620     		movs	r0, #6
 1184 069a FFF7FEFF 		bl	distanceSensor
 1185              	.LVL171:
 559:main.c        ****                 CyDelay(50);
 1186              		.loc 1 559 0
 1187 069e 3220     		movs	r0, #50
 1188 06a0 FFF7FEFF 		bl	CyDelay
 1189              	.LVL172:
 560:main.c        ****                 initial_tolerance = sensor_distances[BACK_LEFT];
 1190              		.loc 1 560 0
 1191 06a4 734B     		ldr	r3, .L64+16
 1192 06a6 9B69     		ldr	r3, [r3, #24]
 1193 06a8 6E4E     		ldr	r6, .L64
 1194 06aa 3360     		str	r3, [r6]
 561:main.c        **** 
 562:main.c        ****                 //moveUntil(PUCK_GRID_FROM_NORTH + DISTANCE_FRONT_SENSOR_FROM_CENTER - PUCK_GRID_DI
 563:main.c        ****                 moveUntil(150, FORWARD, LESS_THAN, FRONT_LEFT, SPEED, TRUE);
 1195              		.loc 1 563 0
ARM GAS  C:\Users\jerry\AppData\Local\Temp\cc40088P.s 			page 32


 1196 06ac 0195     		str	r5, [sp, #4]
 1197 06ae 0094     		str	r4, [sp]
 1198 06b0 0023     		movs	r3, #0
 1199 06b2 2A46     		mov	r2, r5
 1200 06b4 2946     		mov	r1, r5
 1201 06b6 9620     		movs	r0, #150
 1202 06b8 FFF7FEFF 		bl	moveUntil
 1203              	.LVL173:
 564:main.c        ****                 
 565:main.c        ****                 
 566:main.c        ****                 sprintf(output, "initial tolerance: %d\n", initial_tolerance);      
 1204              		.loc 1 566 0
 1205 06bc 6E4C     		ldr	r4, .L64+20
 1206 06be 3268     		ldr	r2, [r6]
 1207 06c0 6E49     		ldr	r1, .L64+24
 1208 06c2 2046     		mov	r0, r4
 1209 06c4 FFF7FEFF 		bl	sprintf
 1210              	.LVL174:
 567:main.c        ****                 UART_1_PutString(output); 
 1211              		.loc 1 567 0
 1212 06c8 2046     		mov	r0, r4
 1213 06ca FFF7FEFF 		bl	UART_1_PutString
 1214              	.LVL175:
 568:main.c        ****                 
 569:main.c        ****                 sprintf(output, "global distance: %d\n", global_distance);      
 1215              		.loc 1 569 0
 1216 06ce 6C4D     		ldr	r5, .L64+28
 1217 06d0 2A68     		ldr	r2, [r5]
 1218 06d2 6C49     		ldr	r1, .L64+32
 1219 06d4 2046     		mov	r0, r4
 1220 06d6 FFF7FEFF 		bl	sprintf
 1221              	.LVL176:
 570:main.c        ****                 UART_1_PutString(output); 
 1222              		.loc 1 570 0
 1223 06da 2046     		mov	r0, r4
 1224 06dc FFF7FEFF 		bl	UART_1_PutString
 1225              	.LVL177:
 571:main.c        ****                 
 572:main.c        ****                 
 573:main.c        ****                 // move until corner wall
 574:main.c        ****                 if (global_distance < ARENA_WIDTH - PUCK_GRID_FROM_NORTH - DISTANCE_BACK_SENSOR_FRO
 1226              		.loc 1 574 0
 1227 06e0 3068     		ldr	r0, [r6]
 1228 06e2 C0F51473 		rsb	r3, r0, #592
 1229 06e6 0333     		adds	r3, r3, #3
 1230 06e8 2A68     		ldr	r2, [r5]
 1231 06ea 9342     		cmp	r3, r2
 1232 06ec 31DD     		ble	.L36
 575:main.c        ****                     // Has hit the pucks and must try the west route
 576:main.c        ****                     moveUntil(initial_tolerance, BACKWARD, LESS_THAN, BACK_LEFT, SPEED, TRUE);  // 
 1233              		.loc 1 576 0
 1234 06ee 0124     		movs	r4, #1
 1235 06f0 0194     		str	r4, [sp, #4]
 1236 06f2 C825     		movs	r5, #200
 1237 06f4 0095     		str	r5, [sp]
 1238 06f6 0623     		movs	r3, #6
 1239 06f8 2246     		mov	r2, r4
ARM GAS  C:\Users\jerry\AppData\Local\Temp\cc40088P.s 			page 33


 1240 06fa 0021     		movs	r1, #0
 1241 06fc FFF7FEFF 		bl	moveUntil
 1242              	.LVL178:
 577:main.c        ****                     changeOrientation(WEST, SPEED);
 1243              		.loc 1 577 0
 1244 0700 2946     		mov	r1, r5
 1245 0702 0320     		movs	r0, #3
 1246 0704 FFF7FEFF 		bl	changeOrientation
 1247              	.LVL179:
 578:main.c        ****                     moveUntil(CLEARANCE_RADIUS_CENTER_TO_BACK,BACKWARD,GREATER_THAN,FRONT_LEFT,SPEE
 1248              		.loc 1 578 0
 1249 0708 0194     		str	r4, [sp, #4]
 1250 070a 0095     		str	r5, [sp]
 1251 070c 0023     		movs	r3, #0
 1252 070e 4FF0FF32 		mov	r2, #-1
 1253 0712 1946     		mov	r1, r3
 1254 0714 F020     		movs	r0, #240
 1255 0716 FFF7FEFF 		bl	moveUntil
 1256              	.LVL180:
 579:main.c        ****                     changeOrientation(NORTH, SPEED);
 1257              		.loc 1 579 0
 1258 071a 2946     		mov	r1, r5
 1259 071c 0020     		movs	r0, #0
 1260 071e FFF7FEFF 		bl	changeOrientation
 1261              	.LVL181:
 580:main.c        ****                     changeOrientation(EAST, SPEED);
 1262              		.loc 1 580 0
 1263 0722 2946     		mov	r1, r5
 1264 0724 2046     		mov	r0, r4
 1265 0726 FFF7FEFF 		bl	changeOrientation
 1266              	.LVL182:
 581:main.c        ****                     moveUntil(150,FORWARD,LESS_THAN,FRONT_LEFT,SPEED,TRUE);   // bring us back to o
 1267              		.loc 1 581 0
 1268 072a 0194     		str	r4, [sp, #4]
 1269 072c 0095     		str	r5, [sp]
 1270 072e 0023     		movs	r3, #0
 1271 0730 2246     		mov	r2, r4
 1272 0732 2146     		mov	r1, r4
 1273 0734 9620     		movs	r0, #150
 1274 0736 FFF7FEFF 		bl	moveUntil
 1275              	.LVL183:
 582:main.c        ****                     if (block_east_clearance == 1) { preferential_route = EAST; } else {preferentia
 1276              		.loc 1 582 0
 1277 073a 4B4B     		ldr	r3, .L64+4
 1278 073c B3F94030 		ldrsh	r3, [r3, #64]
 1279 0740 A342     		cmp	r3, r4
 1280 0742 02D1     		bne	.L37
 1281              		.loc 1 582 0 is_stmt 0 discriminator 1
 1282 0744 494B     		ldr	r3, .L64+8
 1283 0746 1C60     		str	r4, [r3]
 1284 0748 A7E0     		b	.L38
 1285              	.L37:
 1286              		.loc 1 582 0 discriminator 2
 1287 074a 0222     		movs	r2, #2
 1288 074c 474B     		ldr	r3, .L64+8
 1289 074e 1A60     		str	r2, [r3]
 1290 0750 A3E0     		b	.L38
ARM GAS  C:\Users\jerry\AppData\Local\Temp\cc40088P.s 			page 34


 1291              	.L36:
 583:main.c        ****                     break;  // breaks out of the route to change routes 
 584:main.c        ****                 }
 585:main.c        ****                 else {
 586:main.c        ****                     // have moved into the corner, checking if enough tolerance in corner 
 587:main.c        ****                     distanceSensor(SIDE_RIGHT); 
 1292              		.loc 1 587 0 is_stmt 1
 1293 0752 0320     		movs	r0, #3
 1294 0754 FFF7FEFF 		bl	distanceSensor
 1295              	.LVL184:
 588:main.c        ****                     CyDelay(50);
 1296              		.loc 1 588 0
 1297 0758 3220     		movs	r0, #50
 1298 075a FFF7FEFF 		bl	CyDelay
 1299              	.LVL185:
 589:main.c        ****                     if (sensor_distances[SIDE_RIGHT] > CLEARANCE_RADIUS_CENTER_TO_BACK - (SIDE_SENS
 1300              		.loc 1 589 0
 1301 075e 454B     		ldr	r3, .L64+16
 1302 0760 DB68     		ldr	r3, [r3, #12]
 1303 0762 732B     		cmp	r3, #115
 1304 0764 5ADD     		ble	.L39
 590:main.c        ****     // continue with the route MAIN CODE FOR ROUTE
 591:main.c        ****                         straightAdjust(FRONT_SENSORS);
 1305              		.loc 1 591 0
 1306 0766 0720     		movs	r0, #7
 1307 0768 FFF7FEFF 		bl	straightAdjust
 1308              	.LVL186:
 592:main.c        ****                         changeOrientation(WEST, SPEED);
 1309              		.loc 1 592 0
 1310 076c C821     		movs	r1, #200
 1311 076e 0320     		movs	r0, #3
 1312 0770 FFF7FEFF 		bl	changeOrientation
 1313              	.LVL187:
 593:main.c        ****                         moveUntil(CLEARANCE_RADIUS_CENTER_TO_BACK, BACKWARD, GREATER_THAN, FRONT_LE
 1314              		.loc 1 593 0
 1315 0774 0125     		movs	r5, #1
 1316 0776 0195     		str	r5, [sp, #4]
 1317 0778 C824     		movs	r4, #200
 1318 077a 0094     		str	r4, [sp]
 1319 077c 0023     		movs	r3, #0
 1320 077e 4FF0FF32 		mov	r2, #-1
 1321 0782 1946     		mov	r1, r3
 1322 0784 F020     		movs	r0, #240
 1323 0786 FFF7FEFF 		bl	moveUntil
 1324              	.LVL188:
 594:main.c        ****                         changeOrientation(NORTH, SPEED);
 1325              		.loc 1 594 0
 1326 078a 2146     		mov	r1, r4
 1327 078c 0020     		movs	r0, #0
 1328 078e FFF7FEFF 		bl	changeOrientation
 1329              	.LVL189:
 595:main.c        ****                         changeOrientation(EAST, SPEED);
 1330              		.loc 1 595 0
 1331 0792 2146     		mov	r1, r4
 1332 0794 2846     		mov	r0, r5
 1333 0796 FFF7FEFF 		bl	changeOrientation
 1334              	.LVL190:
ARM GAS  C:\Users\jerry\AppData\Local\Temp\cc40088P.s 			page 35


 596:main.c        ****                         straightAdjust(BACK_SENSORS);
 1335              		.loc 1 596 0
 1336 079a 0820     		movs	r0, #8
 1337 079c FFF7FEFF 		bl	straightAdjust
 1338              	.LVL191:
 597:main.c        **** 
 598:main.c        ****                         if (current_stage == 1) {             
 1339              		.loc 1 598 0
 1340 07a0 394B     		ldr	r3, .L64+36
 1341 07a2 1B68     		ldr	r3, [r3]
 1342 07a4 AB42     		cmp	r3, r5
 1343 07a6 12D1     		bne	.L40
 599:main.c        ****                             moveUntil(DISTANCE_MIDDLE_STOPPED_FROM_PUCK, FORWARD, LESS_THAN, FRONT_
 1344              		.loc 1 599 0
 1345 07a8 2946     		mov	r1, r5
 1346 07aa 0195     		str	r5, [sp, #4]
 1347 07ac 2046     		mov	r0, r4
 1348 07ae 0094     		str	r4, [sp]
 1349 07b0 0523     		movs	r3, #5
 1350 07b2 2A46     		mov	r2, r5
 1351 07b4 FFF7FEFF 		bl	moveUntil
 1352              	.LVL192:
 600:main.c        ****                             distanceSensor(BACK_LEFT);
 1353              		.loc 1 600 0
 1354 07b8 0620     		movs	r0, #6
 1355 07ba FFF7FEFF 		bl	distanceSensor
 1356              	.LVL193:
 601:main.c        ****                             CyDelay(50);
 1357              		.loc 1 601 0
 1358 07be 3220     		movs	r0, #50
 1359 07c0 FFF7FEFF 		bl	CyDelay
 1360              	.LVL194:
 602:main.c        ****                             puck_grid_initial = sensor_distances[BACK_LEFT];
 1361              		.loc 1 602 0
 1362 07c4 2B4B     		ldr	r3, .L64+16
 1363 07c6 9A69     		ldr	r2, [r3, #24]
 1364 07c8 304B     		ldr	r3, .L64+40
 1365 07ca 1A60     		str	r2, [r3]
 1366 07cc 0AE0     		b	.L41
 1367              	.L40:
 603:main.c        ****                         }
 604:main.c        ****                         else {
 605:main.c        ****                             moveUntil(puck_grid_initial, FORWARD, GREATER_THAN, BACK_LEFT, SPEED, T
 1368              		.loc 1 605 0
 1369 07ce 2F4B     		ldr	r3, .L64+40
 1370 07d0 1868     		ldr	r0, [r3]
 1371 07d2 0121     		movs	r1, #1
 1372 07d4 0191     		str	r1, [sp, #4]
 1373 07d6 C823     		movs	r3, #200
 1374 07d8 0093     		str	r3, [sp]
 1375 07da 0623     		movs	r3, #6
 1376 07dc 4FF0FF32 		mov	r2, #-1
 1377 07e0 FFF7FEFF 		bl	moveUntil
 1378              	.LVL195:
 1379              	.L41:
 606:main.c        ****                         }
 607:main.c        ****                         changeOrientation(NORTH, SPEED_LOW);
ARM GAS  C:\Users\jerry\AppData\Local\Temp\cc40088P.s 			page 36


 1380              		.loc 1 607 0
 1381 07e4 4621     		movs	r1, #70
 1382 07e6 0020     		movs	r0, #0
 1383 07e8 FFF7FEFF 		bl	changeOrientation
 1384              	.LVL196:
 608:main.c        ****                         moveForwardThenBackward(255 - 52* current_puck_stack_size, LESS_THAN, FRONT
 1385              		.loc 1 608 0
 1386 07ec 1E4D     		ldr	r5, .L64+4
 1387 07ee A86C     		ldr	r0, [r5, #72]
 1388 07f0 6FF03303 		mvn	r3, #51
 1389 07f4 03FB00F0 		mul	r0, r3, r0
 1390 07f8 0124     		movs	r4, #1
 1391 07fa 0094     		str	r4, [sp]
 1392 07fc 4623     		movs	r3, #70
 1393 07fe 0522     		movs	r2, #5
 1394 0800 2146     		mov	r1, r4
 1395 0802 FF30     		adds	r0, r0, #255
 1396 0804 FFF7FEFF 		bl	moveForwardThenBackward
 1397              	.LVL197:
 609:main.c        ****                         straightAdjust(FRONT_SENSORS);
 1398              		.loc 1 609 0
 1399 0808 0720     		movs	r0, #7
 1400 080a FFF7FEFF 		bl	straightAdjust
 1401              	.LVL198:
 610:main.c        ****                         changeOrientation(EAST, SPEED_LOW);       
 1402              		.loc 1 610 0
 1403 080e 4621     		movs	r1, #70
 1404 0810 2046     		mov	r0, r4
 1405 0812 FFF7FEFF 		bl	changeOrientation
 1406              	.LVL199:
 611:main.c        ****                         
 612:main.c        ****                         state = STATE_FIND_REQUIRED_PUCK;       // CHANGE STATE
 1407              		.loc 1 612 0
 1408 0816 0423     		movs	r3, #4
 1409 0818 6B60     		str	r3, [r5, #4]
 613:main.c        ****                         
 614:main.c        ****                         break;
 1410              		.loc 1 614 0
 1411 081a 3EE0     		b	.L38
 1412              	.L39:
 615:main.c        ****                     }   
 616:main.c        ****                     else {
 617:main.c        ****                         // Not enough distance to continue this route
 618:main.c        ****                         
 619:main.c        ****                         moveUntil(initial_tolerance, BACKWARD, LESS_THAN, BACK_LEFT, SPEED, TRUE); 
 1413              		.loc 1 619 0
 1414 081c 114B     		ldr	r3, .L64
 1415 081e 1868     		ldr	r0, [r3]
 1416 0820 0124     		movs	r4, #1
 1417 0822 0194     		str	r4, [sp, #4]
 1418 0824 C825     		movs	r5, #200
 1419 0826 0095     		str	r5, [sp]
 1420 0828 0623     		movs	r3, #6
 1421 082a 2246     		mov	r2, r4
 1422 082c 0021     		movs	r1, #0
 1423 082e FFF7FEFF 		bl	moveUntil
 1424              	.LVL200:
ARM GAS  C:\Users\jerry\AppData\Local\Temp\cc40088P.s 			page 37


 620:main.c        ****                         changeOrientation(EAST, SPEED);
 1425              		.loc 1 620 0
 1426 0832 2946     		mov	r1, r5
 1427 0834 2046     		mov	r0, r4
 1428 0836 FFF7FEFF 		bl	changeOrientation
 1429              	.LVL201:
 621:main.c        ****                         moveUntil(150,FORWARD,LESS_THAN,FRONT_MIDDLE,SPEED,TRUE);   // bring us bac
 1430              		.loc 1 621 0
 1431 083a 0194     		str	r4, [sp, #4]
 1432 083c 0095     		str	r5, [sp]
 1433 083e 0523     		movs	r3, #5
 1434 0840 2246     		mov	r2, r4
 1435 0842 2146     		mov	r1, r4
 1436 0844 9620     		movs	r0, #150
 1437 0846 FFF7FEFF 		bl	moveUntil
 1438              	.LVL202:
 622:main.c        **** 
 623:main.c        ****                         if (block_east_clearance == 1) { preferential_route = EAST; } else {prefere
 1439              		.loc 1 623 0
 1440 084a 074B     		ldr	r3, .L64+4
 1441 084c B3F94030 		ldrsh	r3, [r3, #64]
 1442 0850 A342     		cmp	r3, r4
 1443 0852 02D1     		bne	.L42
 1444              		.loc 1 623 0 is_stmt 0 discriminator 1
 1445 0854 054B     		ldr	r3, .L64+8
 1446 0856 1C60     		str	r4, [r3]
 1447 0858 1FE0     		b	.L38
 1448              	.L42:
 1449              		.loc 1 623 0 discriminator 2
 1450 085a 0222     		movs	r2, #2
 1451 085c 034B     		ldr	r3, .L64+8
 1452 085e 1A60     		str	r2, [r3]
 1453 0860 1BE0     		b	.L38
 1454              	.L65:
 1455 0862 00BF     		.align	2
 1456              	.L64:
 1457 0864 00000000 		.word	initial_tolerance
 1458 0868 00000000 		.word	.LANCHOR0
 1459 086c 00000000 		.word	preferential_route
 1460 0870 98010000 		.word	.LC16
 1461 0874 00000000 		.word	sensor_distances
 1462 0878 00000000 		.word	output
 1463 087c 68010000 		.word	.LC14
 1464 0880 00000000 		.word	global_distance
 1465 0884 80010000 		.word	.LC15
 1466 0888 00000000 		.word	.LANCHOR1
 1467 088c 00000000 		.word	puck_grid_initial
 1468              	.L30:
 544:main.c        ****                 UART_1_PutString("Taking west route");
 1469              		.loc 1 544 0 is_stmt 1
 1470 0890 C64B     		ldr	r3, .L66
 1471 0892 1B68     		ldr	r3, [r3]
 1472 0894 032B     		cmp	r3, #3
 1473 0896 3FF4C3AE 		beq	.L43
 1474              	.L38:
 624:main.c        ****                         break;
 625:main.c        ****                     }
ARM GAS  C:\Users\jerry\AppData\Local\Temp\cc40088P.s 			page 38


 626:main.c        ****                 }
 627:main.c        ****                 
 628:main.c        ****                 
 629:main.c        ****             }
 630:main.c        ****             
 631:main.c        ****             
 632:main.c        ****     // MIDDLE ROUTE:         
 633:main.c        ****             if (preferential_route == MIDDLE) {
 1475              		.loc 1 633 0
 1476 089a C44B     		ldr	r3, .L66
 1477 089c 1B68     		ldr	r3, [r3]
 1478 089e 022B     		cmp	r3, #2
 1479 08a0 40F0A180 		bne	.L27
 634:main.c        ****                 UART_1_PutString("entering middle route");
 1480              		.loc 1 634 0
 1481 08a4 C248     		ldr	r0, .L66+4
 1482 08a6 FFF7FEFF 		bl	UART_1_PutString
 1483              	.LVL203:
 635:main.c        ****                 // check whether east or west clearence is clear, if thats the case, hug the side o
 636:main.c        ****                     // if EAST clearance is clear, we hug east side of block, and move towards east
 637:main.c        ****                     // if WEST clearance is clear, we hug the west side of the block, and move towa
 638:main.c        ****                 if (block_east_clearance == 1) {
 1484              		.loc 1 638 0
 1485 08aa C24B     		ldr	r3, .L66+8
 1486 08ac B3F94030 		ldrsh	r3, [r3, #64]
 1487 08b0 012B     		cmp	r3, #1
 1488 08b2 4BD1     		bne	.L44
 639:main.c        ****                     moveUntil(ARENA_LENGTH - block_location[EAST] , BACKWARD, LESS_THAN, BACK_RIGHT
 1489              		.loc 1 639 0
 1490 08b4 BF4F     		ldr	r7, .L66+8
 1491 08b6 786B     		ldr	r0, [r7, #52]
 1492 08b8 0124     		movs	r4, #1
 1493 08ba 0194     		str	r4, [sp, #4]
 1494 08bc C825     		movs	r5, #200
 1495 08be 0095     		str	r5, [sp]
 1496 08c0 0423     		movs	r3, #4
 1497 08c2 2246     		mov	r2, r4
 1498 08c4 0021     		movs	r1, #0
 1499 08c6 C0F59660 		rsb	r0, r0, #1200
 1500 08ca FFF7FEFF 		bl	moveUntil
 1501              	.LVL204:
 640:main.c        ****                     straightAdjust(BACK_SENSORS); //? Remove if it fucks things up
 1502              		.loc 1 640 0
 1503 08ce 0820     		movs	r0, #8
 1504 08d0 FFF7FEFF 		bl	straightAdjust
 1505              	.LVL205:
 641:main.c        ****                     changeOrientation(NORTH, SPEED);
 1506              		.loc 1 641 0
 1507 08d4 2946     		mov	r1, r5
 1508 08d6 0020     		movs	r0, #0
 1509 08d8 FFF7FEFF 		bl	changeOrientation
 1510              	.LVL206:
 642:main.c        ****                     straightAdjust(BACK_SENSORS); //? Remove if it fucks things up
 1511              		.loc 1 642 0
 1512 08dc 0820     		movs	r0, #8
 1513 08de FFF7FEFF 		bl	straightAdjust
 1514              	.LVL207:
ARM GAS  C:\Users\jerry\AppData\Local\Temp\cc40088P.s 			page 39


 643:main.c        ****                     moveUntil(255 - 52* current_puck_stack_size, FORWARD, LESS_THAN, FRONT_MIDDLE, 
 1515              		.loc 1 643 0
 1516 08e2 BB6C     		ldr	r3, [r7, #72]
 1517 08e4 6FF03306 		mvn	r6, #51
 1518 08e8 06FB03F0 		mul	r0, r6, r3
 1519 08ec 0194     		str	r4, [sp, #4]
 1520 08ee 0095     		str	r5, [sp]
 1521 08f0 0523     		movs	r3, #5
 1522 08f2 2246     		mov	r2, r4
 1523 08f4 2146     		mov	r1, r4
 1524 08f6 FF30     		adds	r0, r0, #255
 1525 08f8 FFF7FEFF 		bl	moveUntil
 1526              	.LVL208:
 644:main.c        ****                     //translateMoveDynamic(CLEARANCE_RADIUS_CENTER_TO_BACK, 10, SPEED, FALSE); // C
 645:main.c        ****                     straightAdjust(FRONT_SENSORS);
 1527              		.loc 1 645 0
 1528 08fc 0720     		movs	r0, #7
 1529 08fe FFF7FEFF 		bl	straightAdjust
 1530              	.LVL209:
 646:main.c        ****                     changeOrientation(EAST, SPEED);
 1531              		.loc 1 646 0
 1532 0902 2946     		mov	r1, r5
 1533 0904 2046     		mov	r0, r4
 1534 0906 FFF7FEFF 		bl	changeOrientation
 1535              	.LVL210:
 647:main.c        ****                     straightAdjust(BACK_SENSORS);
 1536              		.loc 1 647 0
 1537 090a 0820     		movs	r0, #8
 1538 090c FFF7FEFF 		bl	straightAdjust
 1539              	.LVL211:
 648:main.c        **** 
 649:main.c        ****                     moveUntil(DISTANCE_MIDDLE_STOPPED_FROM_PUCK, FORWARD, LESS_THAN, FRONT_MIDDLE, 
 1540              		.loc 1 649 0
 1541 0910 0194     		str	r4, [sp, #4]
 1542 0912 0095     		str	r5, [sp]
 1543 0914 0523     		movs	r3, #5
 1544 0916 2246     		mov	r2, r4
 1545 0918 2146     		mov	r1, r4
 1546 091a 2846     		mov	r0, r5
 1547 091c FFF7FEFF 		bl	moveUntil
 1548              	.LVL212:
 650:main.c        ****                     changeOrientation(NORTH, SPEED_LOW);
 1549              		.loc 1 650 0
 1550 0920 4621     		movs	r1, #70
 1551 0922 0020     		movs	r0, #0
 1552 0924 FFF7FEFF 		bl	changeOrientation
 1553              	.LVL213:
 651:main.c        ****                     moveForwardThenBackward(255 - 52* current_puck_stack_size, LESS_THAN, FRONT_MID
 1554              		.loc 1 651 0
 1555 0928 B86C     		ldr	r0, [r7, #72]
 1556 092a 06FB00F0 		mul	r0, r6, r0
 1557 092e 0094     		str	r4, [sp]
 1558 0930 4623     		movs	r3, #70
 1559 0932 0522     		movs	r2, #5
 1560 0934 2146     		mov	r1, r4
 1561 0936 FF30     		adds	r0, r0, #255
 1562 0938 FFF7FEFF 		bl	moveForwardThenBackward
ARM GAS  C:\Users\jerry\AppData\Local\Temp\cc40088P.s 			page 40


 1563              	.LVL214:
 652:main.c        ****                     straightAdjust(FRONT_SENSORS);
 1564              		.loc 1 652 0
 1565 093c 0720     		movs	r0, #7
 1566 093e FFF7FEFF 		bl	straightAdjust
 1567              	.LVL215:
 653:main.c        ****                     changeOrientation(EAST, SPEED_LOW);
 1568              		.loc 1 653 0
 1569 0942 4621     		movs	r1, #70
 1570 0944 2046     		mov	r0, r4
 1571 0946 FFF7FEFF 		bl	changeOrientation
 1572              	.LVL216:
 1573 094a 49E0     		b	.L45
 1574              	.L44:
 654:main.c        ****                     
 655:main.c        ****                 }
 656:main.c        ****                 
 657:main.c        ****                 
 658:main.c        ****                 else {
 659:main.c        ****                     moveUntil(ARENA_WIDTH - block_location[WEST] + 50, BACKWARD, GREATER_THAN, FRON
 1575              		.loc 1 659 0
 1576 094c 994F     		ldr	r7, .L66+8
 1577 094e F86B     		ldr	r0, [r7, #60]
 1578 0950 0124     		movs	r4, #1
 1579 0952 0194     		str	r4, [sp, #4]
 1580 0954 C825     		movs	r5, #200
 1581 0956 0095     		str	r5, [sp]
 1582 0958 0023     		movs	r3, #0
 1583 095a 4FF0FF32 		mov	r2, #-1
 1584 095e 1946     		mov	r1, r3
 1585 0960 C0F59C60 		rsb	r0, r0, #1248
 1586 0964 0230     		adds	r0, r0, #2
 1587 0966 FFF7FEFF 		bl	moveUntil
 1588              	.LVL217:
 660:main.c        ****                     straightAdjust(FRONT_SENSORS);
 1589              		.loc 1 660 0
 1590 096a 0720     		movs	r0, #7
 1591 096c FFF7FEFF 		bl	straightAdjust
 1592              	.LVL218:
 661:main.c        ****                     changeOrientation(NORTH, SPEED);    // gets it ready for going aslong the wall 
 1593              		.loc 1 661 0
 1594 0970 2946     		mov	r1, r5
 1595 0972 0020     		movs	r0, #0
 1596 0974 FFF7FEFF 		bl	changeOrientation
 1597              	.LVL219:
 662:main.c        ****                     //straightAdjust();
 663:main.c        ****                     //moveUntil(PUCK_GRID_FROM_NORTH + DISTANCE_MIDDLE_SENSOR_TO_CENTER - PUCK_GRID
 664:main.c        ****                     moveUntil(255 - 52* current_puck_stack_size, FORWARD, LESS_THAN, FRONT_MIDDLE, 
 1598              		.loc 1 664 0
 1599 0978 BB6C     		ldr	r3, [r7, #72]
 1600 097a 6FF03306 		mvn	r6, #51
 1601 097e 06FB03F0 		mul	r0, r6, r3
 1602 0982 0194     		str	r4, [sp, #4]
 1603 0984 0095     		str	r5, [sp]
 1604 0986 0523     		movs	r3, #5
 1605 0988 2246     		mov	r2, r4
 1606 098a 2146     		mov	r1, r4
ARM GAS  C:\Users\jerry\AppData\Local\Temp\cc40088P.s 			page 41


 1607 098c FF30     		adds	r0, r0, #255
 1608 098e FFF7FEFF 		bl	moveUntil
 1609              	.LVL220:
 665:main.c        ****                     straightAdjust(FRONT_SENSORS);
 1610              		.loc 1 665 0
 1611 0992 0720     		movs	r0, #7
 1612 0994 FFF7FEFF 		bl	straightAdjust
 1613              	.LVL221:
 666:main.c        ****                     changeOrientation(WEST, SPEED);
 1614              		.loc 1 666 0
 1615 0998 2946     		mov	r1, r5
 1616 099a 0320     		movs	r0, #3
 1617 099c FFF7FEFF 		bl	changeOrientation
 1618              	.LVL222:
 667:main.c        ****                     straightAdjust(BACK_SENSORS);
 1619              		.loc 1 667 0
 1620 09a0 0820     		movs	r0, #8
 1621 09a2 FFF7FEFF 		bl	straightAdjust
 1622              	.LVL223:
 668:main.c        **** 
 669:main.c        ****                     
 670:main.c        ****                     moveUntil(DISTANCE_MIDDLE_STOPPED_FROM_PUCK, FORWARD, LESS_THAN, FRONT_MIDDLE, 
 1623              		.loc 1 670 0
 1624 09a6 0194     		str	r4, [sp, #4]
 1625 09a8 0095     		str	r5, [sp]
 1626 09aa 0523     		movs	r3, #5
 1627 09ac 2246     		mov	r2, r4
 1628 09ae 2146     		mov	r1, r4
 1629 09b0 2846     		mov	r0, r5
 1630 09b2 FFF7FEFF 		bl	moveUntil
 1631              	.LVL224:
 671:main.c        ****                     changeOrientation(NORTH, SPEED_LOW);
 1632              		.loc 1 671 0
 1633 09b6 4621     		movs	r1, #70
 1634 09b8 0020     		movs	r0, #0
 1635 09ba FFF7FEFF 		bl	changeOrientation
 1636              	.LVL225:
 672:main.c        ****                     moveForwardThenBackward(255 - 52* current_puck_stack_size, LESS_THAN, FRONT_MID
 1637              		.loc 1 672 0
 1638 09be B86C     		ldr	r0, [r7, #72]
 1639 09c0 06FB00F0 		mul	r0, r6, r0
 1640 09c4 0094     		str	r4, [sp]
 1641 09c6 4623     		movs	r3, #70
 1642 09c8 0522     		movs	r2, #5
 1643 09ca 2146     		mov	r1, r4
 1644 09cc FF30     		adds	r0, r0, #255
 1645 09ce FFF7FEFF 		bl	moveForwardThenBackward
 1646              	.LVL226:
 673:main.c        ****                     straightAdjust(FRONT_SENSORS);
 1647              		.loc 1 673 0
 1648 09d2 0720     		movs	r0, #7
 1649 09d4 FFF7FEFF 		bl	straightAdjust
 1650              	.LVL227:
 674:main.c        ****                     changeOrientation(WEST, SPEED_LOW);
 1651              		.loc 1 674 0
 1652 09d8 4621     		movs	r1, #70
 1653 09da 0320     		movs	r0, #3
ARM GAS  C:\Users\jerry\AppData\Local\Temp\cc40088P.s 			page 42


 1654 09dc FFF7FEFF 		bl	changeOrientation
 1655              	.LVL228:
 1656              	.L45:
 675:main.c        **** 
 676:main.c        ****                 }
 677:main.c        ****                 
 678:main.c        ****                 state = STATE_FIND_REQUIRED_PUCK;       // CHANGE STATE
 1657              		.loc 1 678 0
 1658 09e0 0422     		movs	r2, #4
 1659 09e2 744B     		ldr	r3, .L66+8
 1660 09e4 5A60     		str	r2, [r3, #4]
 1661              	.L27:
 679:main.c        ****                 
 680:main.c        ****             }
 681:main.c        ****             
 682:main.c        ****             
 683:main.c        ****             
 684:main.c        ****     // OLD CODE: 
 685:main.c        ****             /*
 686:main.c        ****             if (block_east_clearance && puck_east_clearance){
 687:main.c        ****                 
 688:main.c        ****                 moveUntil(WALL_CLEARANCE_FRONT, BACKWARD, GREATER_THAN, FRONT_MIDDLE, SPEED, TRUE);
 689:main.c        ****                 straightAdjust(FRONT_SENSORS);
 690:main.c        **** <<<<<<< HEAD
 691:main.c        ****                 changeOrientation(NORTH, SPEED);    // gets it ready for going aslong the wall 
 692:main.c        ****                 //straightAdjust();
 693:main.c        ****                 moveUntil(PUCK_GRID_FROM_NORTH - DISTANCE_FRONT_SENSOR_FROM_CENTER - PUCK_GRID_DIST
 694:main.c        **** =======
 695:main.c        ****                 changeOrientation(NORTH, SPEED);
 696:main.c        ****                 straightAdjust(BACK_SENSORS);
 697:main.c        ****                 moveUntil(PUCK_GRID_FROM_NORTH - DISTANCE_MIDDLE_SENSOR_TO_CENTER - PUCK_GRID_DISTA
 698:main.c        **** >>>>>>> 46d80350303a0caac89f9e1b47d05a20e237c383
 699:main.c        ****                 straightAdjust(FRONT_SENSORS);
 700:main.c        ****                 changeOrientation(WEST, SPEED);
 701:main.c        ****                 straightAdjust(BACK_SENSORS); /////////////////////////////////////
 702:main.c        **** 
 703:main.c        ****                 
 704:main.c        ****                 moveUntil(DISTANCE_MIDDLE_STOPPED_FROM_PUCK, FORWARD, LESS_THAN, FRONT_MIDDLE, SPEE
 705:main.c        ****                 changeOrientation(NORTH, SPEED_LOW);
 706:main.c        ****                 straightAdjust(FRONT_SENSORS); /////////////////////////////////////
 707:main.c        ****                 moveForwardThenBackward(PUCK_GRID_FROM_NORTH - DISTANCE_MIDDLE_SENSOR_TO_CENTER - P
 708:main.c        ****                 straightAdjust(FRONT_SENSORS);
 709:main.c        ****                 changeOrientation(WEST, SPEED_LOW);
 710:main.c        ****                 
 711:main.c        ****             }
 712:main.c        ****             
 713:main.c        ****             else if (block_west_clearance && puck_west_clearance){
 714:main.c        ****             
 715:main.c        ****                 //moveUntil(CLEARANCE_RADIUS_CENTER_TO_FRONT, BACKWARD, GREATER_THAN, FRONT_LEFT, S
 716:main.c        ****                 moveUntil(CLEARANCE_RADIUS_CENTER_TO_BACK - DISTANCE_BACK_SENSOR_FROM_CENTER, BACKW
 717:main.c        **** <<<<<<< HEAD
 718:main.c        ****                 straightAdjust(BACK_SENSORS); //? Remove if it fucks things up
 719:main.c        **** =======
 720:main.c        ****                 straightAdjust(FRONT_SENSORS); //? Remove if it fucks things up
 721:main.c        **** >>>>>>> 46d80350303a0caac89f9e1b47d05a20e237c383
 722:main.c        ****                 changeOrientation(NORTH, SPEED);
 723:main.c        ****                 straightAdjust(BACK_SENSORS); //? Remove if it fucks things up
ARM GAS  C:\Users\jerry\AppData\Local\Temp\cc40088P.s 			page 43


 724:main.c        ****                 moveUntil(PUCK_GRID_FROM_NORTH - DISTANCE_FRONT_SENSOR_FROM_CENTER - PUCK_GRID_DIST
 725:main.c        ****                 //translateMoveDynamic(CLEARANCE_RADIUS_CENTER_TO_BACK, 10, SPEED, FALSE); // Chang
 726:main.c        ****                 straightAdjust(FRONT_SENSORS);
 727:main.c        ****                 changeOrientation(EAST, SPEED);
 728:main.c        ****                 straightAdjust(BACK_SENSORS);
 729:main.c        **** 
 730:main.c        ****                 moveUntil(DISTANCE_MIDDLE_STOPPED_FROM_PUCK, FORWARD, LESS_THAN, FRONT_MIDDLE, SPEE
 731:main.c        ****                 changeOrientation(NORTH, SPEED_LOW);
 732:main.c        ****                 moveForwardThenBackward(PUCK_GRID_FROM_NORTH - DISTANCE_FRONT_SENSOR_FROM_CENTER - 
 733:main.c        ****                 straightAdjust(FRONT_SENSORS);
 734:main.c        ****                 changeOrientation(EAST, SPEED_LOW);
 735:main.c        ****             }
 736:main.c        ****             
 737:main.c        ****             
 738:main.c        ****             else if (block_east_clearance && puck_west_clearance){
 739:main.c        **** 
 740:main.c        ****                 //moveUntil(block_and_puck_edge_midpoint - DISTANCE_BACK_SENSOR_FROM_CENTER, BACKWA
 741:main.c        ****                 moveUntil(block_location[EAST] - DISTANCE_FRONT_SENSOR_FROM_CENTER - WIDTH_WHEEL_TO
 742:main.c        ****                 straightAdjust(FRONT_SENSORS);
 743:main.c        ****                 changeOrientation(NORTH, SPEED);
 744:main.c        ****                 //straightAdjust();
 745:main.c        ****                 moveUntil(PUCK_GRID_FROM_NORTH - DISTANCE_FRONT_SENSOR_FROM_CENTER - PUCK_GRID_DIST
 746:main.c        ****                 straightAdjust(FRONT_SENSORS);
 747:main.c        ****                 changeOrientation(EAST, SPEED);
 748:main.c        ****                 straightAdjust(BACK_SENSORS);
 749:main.c        ****                 
 750:main.c        ****                 moveUntil(DISTANCE_MIDDLE_STOPPED_FROM_PUCK, FORWARD, LESS_THAN, FRONT_MIDDLE, SPEE
 751:main.c        ****                 changeOrientation(NORTH, SPEED_LOW);
 752:main.c        ****                 moveForwardThenBackward(PUCK_GRID_FROM_NORTH - DISTANCE_FRONT_SENSOR_FROM_CENTER - 
 753:main.c        ****                 straightAdjust(FRONT_SENSORS);
 754:main.c        ****                 changeOrientation(EAST, SPEED_LOW);
 755:main.c        ****             }
 756:main.c        ****             
 757:main.c        ****             else if (block_west_clearance && puck_east_clearance){
 758:main.c        ****                 
 759:main.c        ****                 moveUntil(block_location[WEST] - DISTANCE_FRONT_SENSOR_FROM_CENTER + WIDTH_WHEEL_TO
 760:main.c        ****                 straightAdjust(FRONT_SENSORS);
 761:main.c        ****                 changeOrientation(NORTH, SPEED);
 762:main.c        ****                 moveUntil(PUCK_GRID_FROM_NORTH - DISTANCE_FRONT_SENSOR_FROM_CENTER - PUCK_GRID_DIST
 763:main.c        ****                 straightAdjust(FRONT_SENSORS);
 764:main.c        ****                 changeOrientation(WEST, SPEED);
 765:main.c        ****                 straightAdjust(BACK_SENSORS);
 766:main.c        ****                 
 767:main.c        ****                 moveUntil(DISTANCE_MIDDLE_STOPPED_FROM_PUCK, FORWARD, LESS_THAN, FRONT_MIDDLE, SPEE
 768:main.c        ****                 changeOrientation(NORTH, SPEED_LOW);
 769:main.c        ****                 moveForwardThenBackward(PUCK_GRID_FROM_NORTH - DISTANCE_FRONT_SENSOR_FROM_CENTER - 
 770:main.c        ****                 straightAdjust(FRONT_SENSORS);
 771:main.c        ****                 changeOrientation(WEST, SPEED_LOW);
 772:main.c        ****             }
 773:main.c        ****             */
 774:main.c        ****             
 775:main.c        ****             
 776:main.c        **** 
 777:main.c        ****         }
 778:main.c        ****  
 779:main.c        **** //        
 780:main.c        **** // *** 4. STATE FIND REQUIRED PUCK: *** // 
ARM GAS  C:\Users\jerry\AppData\Local\Temp\cc40088P.s 			page 44


 781:main.c        **** //
 782:main.c        ****         
 783:main.c        ****         
 784:main.c        ****         if (state == STATE_FIND_REQUIRED_PUCK){
 1662              		.loc 1 784 0
 1663 09e6 734B     		ldr	r3, .L66+8
 1664 09e8 5B68     		ldr	r3, [r3, #4]
 1665 09ea 042B     		cmp	r3, #4
 1666 09ec 19D1     		bne	.L46
 1667              	.LVL229:
 1668              	.LBB8:
 785:main.c        ****         
 786:main.c        ****             int puck_correct = FALSE;   // A flag to determine if the correct puck has been picked 
 787:main.c        ****             int puck_scan;
 788:main.c        ****             
 789:main.c        ****         
 790:main.c        ****             //Temp delete after teesting!!!!!!!!!!!!!!!!!!!!!
 791:main.c        ****             puck_correct = TRUE;
 792:main.c        ****             
 793:main.c        ****                 
 794:main.c        ****             // Scanning puck:
 795:main.c        ****                 
 796:main.c        ****             safety_override = TRUE;     // DEACTIVATES the safety override so pucks don't interfere
 1669              		.loc 1 796 0
 1670 09ee 714C     		ldr	r4, .L66+8
 1671 09f0 0125     		movs	r5, #1
 1672 09f2 E564     		str	r5, [r4, #76]
 797:main.c        **** 
 798:main.c        ****             while (puck_correct == FALSE) 
 799:main.c        ****             {
 800:main.c        ****                 moveDynamic(50, SPEED_LOW, TRUE);  // robot moves forward towards puck
 801:main.c        ****                                         // could replace this with the distance gathered from the u
 802:main.c        ****                 changeHeightToPuck(ABOVE_1_PUCK, NEITHER);  // arm lowers onto robot
 803:main.c        ****                 puck_scan = colourSensingOutput();  // colour sensor takes a scan
 804:main.c        ****                 changeHeightToPuck(ABOVE_3_PUCK, NEITHER);  // arm returns to high position
 805:main.c        ****                 moveDynamic(-50, SPEED, TRUE);   // robot moves backwards
 806:main.c        ****                 if (puck_scan == puck_construction_plan[current_stage-1]) {puck_correct = TRUE;}   
 807:main.c        ****                 else 
 808:main.c        ****                 {
 809:main.c        ****                     /*
 810:main.c        ****                     // Bring us to the next puck along: 
 811:main.c        ****                     moveSwivel(45, SPEED, TRUE);
 812:main.c        ****                     moveDynamic(-30,SPEED, TRUE);
 813:main.c        ****                     moveSwivel(-30, SPEED, TRUE);
 814:main.c        ****                     */
 815:main.c        ****                 }
 816:main.c        ****             }
 817:main.c        **** 
 818:main.c        ****             changeHeightToPuck(GROUND, NEITHER);      // arm lowers to ground
 1673              		.loc 1 818 0
 1674 09f4 0221     		movs	r1, #2
 1675 09f6 0020     		movs	r0, #0
 1676 09f8 FFF7FEFF 		bl	changeHeightToPuck
 1677              	.LVL230:
 819:main.c        ****             //armClose();
 820:main.c        ****             //changeHeightToPuck(1);
 821:main.c        ****             moveUntilPuck(CLAW_GROUND_ALGORITHM);
ARM GAS  C:\Users\jerry\AppData\Local\Temp\cc40088P.s 			page 45


 1678              		.loc 1 821 0
 1679 09fc 0520     		movs	r0, #5
 1680 09fe FFF7FEFF 		bl	moveUntilPuck
 1681              	.LVL231:
 822:main.c        ****             //moveDynamic(60);       // robot moves forward
 823:main.c        ****             armClose();                 // claw closes on puck
 1682              		.loc 1 823 0
 1683 0a02 FFF7FEFF 		bl	armClose
 1684              	.LVL232:
 824:main.c        ****             changeHeightToPuck(ABOVE_3_PUCK, CLOSE);      // arm lifts up to highest position
 1685              		.loc 1 824 0
 1686 0a06 2946     		mov	r1, r5
 1687 0a08 0320     		movs	r0, #3
 1688 0a0a FFF7FEFF 		bl	changeHeightToPuck
 1689              	.LVL233:
 825:main.c        ****             //armCloseIndefinitely(TRUE);
 826:main.c        ****             moveDynamic(-60, SPEED_LOW, TRUE);       // robot moves back away from puck area 
 1690              		.loc 1 826 0
 1691 0a0e 2A46     		mov	r2, r5
 1692 0a10 4621     		movs	r1, #70
 1693 0a12 6FF03B00 		mvn	r0, #59
 1694 0a16 FFF7FEFF 		bl	moveDynamic
 1695              	.LVL234:
 827:main.c        ****             //armCloseIndefinitely(FALSE);
 828:main.c        ****             
 829:main.c        ****             safety_override = FALSE;        // reactivate safety override
 1696              		.loc 1 829 0
 1697 0a1a 0023     		movs	r3, #0
 1698 0a1c E364     		str	r3, [r4, #76]
 830:main.c        ****         
 831:main.c        ****             //while(1) {}
 832:main.c        ****             
 833:main.c        ****             
 834:main.c        ****             state = STATE_RETURN_TO_SOUTH;
 1699              		.loc 1 834 0
 1700 0a1e 0523     		movs	r3, #5
 1701 0a20 6360     		str	r3, [r4, #4]
 1702              	.LVL235:
 1703              	.L46:
 1704              	.LBE8:
 835:main.c        ****        
 836:main.c        ****         }
 837:main.c        ****  
 838:main.c        ****         
 839:main.c        **** //
 840:main.c        **** // *** 5. STATE RETURN TO SOUTH: *** // 
 841:main.c        **** //      
 842:main.c        ****         
 843:main.c        ****         // Assume that we are currently in the north side of the arena facing the pucks.
 844:main.c        ****         // This state will return us to the south side of the block and face east at the east wall.
 845:main.c        ****         if (state == STATE_RETURN_TO_SOUTH){
 1705              		.loc 1 845 0
 1706 0a22 644B     		ldr	r3, .L66+8
 1707 0a24 5B68     		ldr	r3, [r3, #4]
 1708 0a26 052B     		cmp	r3, #5
 1709 0a28 40F0FF80 		bne	.L47
 846:main.c        ****             UART_1_PutString("entering return to south");
ARM GAS  C:\Users\jerry\AppData\Local\Temp\cc40088P.s 			page 46


 1710              		.loc 1 846 0
 1711 0a2c 6248     		ldr	r0, .L66+12
 1712 0a2e FFF7FEFF 		bl	UART_1_PutString
 1713              	.LVL236:
 847:main.c        ****             if (preferential_route == EAST){
 1714              		.loc 1 847 0
 1715 0a32 5E4B     		ldr	r3, .L66
 1716 0a34 1B68     		ldr	r3, [r3]
 1717 0a36 012B     		cmp	r3, #1
 1718 0a38 34D1     		bne	.L48
 848:main.c        ****                 UART_1_PutString("entering east ret to south");
 1719              		.loc 1 848 0
 1720 0a3a 6048     		ldr	r0, .L66+16
 1721 0a3c FFF7FEFF 		bl	UART_1_PutString
 1722              	.LVL237:
 849:main.c        ****                 straightAdjust(BACK_SENSORS); /////////////////////////
 1723              		.loc 1 849 0
 1724 0a40 0820     		movs	r0, #8
 1725 0a42 FFF7FEFF 		bl	straightAdjust
 1726              	.LVL238:
 850:main.c        ****                 moveUntil(CLEARANCE_RADIUS_CENTER_TO_BACK - 190, BACKWARD, LESS_THAN, BACK_RIGHT, S
 1727              		.loc 1 850 0
 1728 0a46 0124     		movs	r4, #1
 1729 0a48 0194     		str	r4, [sp, #4]
 1730 0a4a C825     		movs	r5, #200
 1731 0a4c 0095     		str	r5, [sp]
 1732 0a4e 0423     		movs	r3, #4
 1733 0a50 2246     		mov	r2, r4
 1734 0a52 0021     		movs	r1, #0
 1735 0a54 3220     		movs	r0, #50
 1736 0a56 FFF7FEFF 		bl	moveUntil
 1737              	.LVL239:
 851:main.c        ****                 // straightAdjust() using back sensor?
 852:main.c        ****                 changeOrientation(NORTH,SPEED);
 1738              		.loc 1 852 0
 1739 0a5a 2946     		mov	r1, r5
 1740 0a5c 0020     		movs	r0, #0
 1741 0a5e FFF7FEFF 		bl	changeOrientation
 1742              	.LVL240:
 853:main.c        ****                 straightAdjust(FRONT_SENSORS);
 1743              		.loc 1 853 0
 1744 0a62 0720     		movs	r0, #7
 1745 0a64 FFF7FEFF 		bl	straightAdjust
 1746              	.LVL241:
 854:main.c        ****                 moveUntil(CLEARANCE_RADIUS_CENTER_TO_BACK - 140, BACKWARD, LESS_THAN, BACK_RIGHT, S
 1747              		.loc 1 854 0
 1748 0a68 0194     		str	r4, [sp, #4]
 1749 0a6a 0095     		str	r5, [sp]
 1750 0a6c 0423     		movs	r3, #4
 1751 0a6e 2246     		mov	r2, r4
 1752 0a70 0021     		movs	r1, #0
 1753 0a72 6420     		movs	r0, #100
 1754 0a74 FFF7FEFF 		bl	moveUntil
 1755              	.LVL242:
 855:main.c        ****                 straightAdjust(BACK_SENSORS);
 1756              		.loc 1 855 0
 1757 0a78 0820     		movs	r0, #8
ARM GAS  C:\Users\jerry\AppData\Local\Temp\cc40088P.s 			page 47


 1758 0a7a FFF7FEFF 		bl	straightAdjust
 1759              	.LVL243:
 856:main.c        ****                 changeOrientation(EAST,SPEED);
 1760              		.loc 1 856 0
 1761 0a7e 2946     		mov	r1, r5
 1762 0a80 2046     		mov	r0, r4
 1763 0a82 FFF7FEFF 		bl	changeOrientation
 1764              	.LVL244:
 857:main.c        ****                 straightAdjust(FRONT_SENSORS);
 1765              		.loc 1 857 0
 1766 0a86 0720     		movs	r0, #7
 1767 0a88 FFF7FEFF 		bl	straightAdjust
 1768              	.LVL245:
 858:main.c        ****                 moveUntil(WALL_CLEARANCE_FRONT, FORWARD, LESS_THAN, FRONT_MIDDLE, SPEED, TRUE);
 1769              		.loc 1 858 0
 1770 0a8c 0194     		str	r4, [sp, #4]
 1771 0a8e 0095     		str	r5, [sp]
 1772 0a90 0523     		movs	r3, #5
 1773 0a92 2246     		mov	r2, r4
 1774 0a94 2146     		mov	r1, r4
 1775 0a96 2846     		mov	r0, r5
 1776 0a98 FFF7FEFF 		bl	moveUntil
 1777              	.LVL246:
 859:main.c        ****                 straightAdjust(FRONT_SENSORS);
 1778              		.loc 1 859 0
 1779 0a9c 0720     		movs	r0, #7
 1780 0a9e FFF7FEFF 		bl	straightAdjust
 1781              	.LVL247:
 1782 0aa2 BFE0     		b	.L49
 1783              	.L48:
 860:main.c        ****                 
 861:main.c        ****             }
 862:main.c        ****             
 863:main.c        ****             else if (preferential_route == WEST){
 1784              		.loc 1 863 0
 1785 0aa4 032B     		cmp	r3, #3
 1786 0aa6 48D1     		bne	.L50
 864:main.c        ****                 
 865:main.c        ****                 UART_1_PutString("enterint ret to south west");
 1787              		.loc 1 865 0
 1788 0aa8 4548     		ldr	r0, .L66+20
 1789 0aaa FFF7FEFF 		bl	UART_1_PutString
 1790              	.LVL248:
 866:main.c        ****                 moveUntil(30, BACKWARD, LESS_THAN, BACK_RIGHT, SPEED, TRUE);   // backs us into the
 1791              		.loc 1 866 0
 1792 0aae 0124     		movs	r4, #1
 1793 0ab0 0194     		str	r4, [sp, #4]
 1794 0ab2 C825     		movs	r5, #200
 1795 0ab4 0095     		str	r5, [sp]
 1796 0ab6 0423     		movs	r3, #4
 1797 0ab8 2246     		mov	r2, r4
 1798 0aba 0021     		movs	r1, #0
 1799 0abc 1E20     		movs	r0, #30
 1800 0abe FFF7FEFF 		bl	moveUntil
 1801              	.LVL249:
 867:main.c        ****                 //moveUntil(CLEARANCE_RADIUS_CENTER_TO_BACK, FORWARD, GREATER_THAN, BACK_RIGHT, SPE
 868:main.c        ****                 straightAdjust(BACK_SENSORS);
ARM GAS  C:\Users\jerry\AppData\Local\Temp\cc40088P.s 			page 48


 1802              		.loc 1 868 0
 1803 0ac2 0820     		movs	r0, #8
 1804 0ac4 FFF7FEFF 		bl	straightAdjust
 1805              	.LVL250:
 869:main.c        ****                 changeOrientation(NORTH,SPEED);
 1806              		.loc 1 869 0
 1807 0ac8 2946     		mov	r1, r5
 1808 0aca 0020     		movs	r0, #0
 1809 0acc FFF7FEFF 		bl	changeOrientation
 1810              	.LVL251:
 870:main.c        ****                 straightAdjust(FRONT_SENSORS);
 1811              		.loc 1 870 0
 1812 0ad0 0720     		movs	r0, #7
 1813 0ad2 FFF7FEFF 		bl	straightAdjust
 1814              	.LVL252:
 871:main.c        ****                 //moveUntil(CLEARANCE_RADIUS_CENTER_TO_BACK - DISTANCE_BACK_SENSOR_FROM_CENTER, BAC
 872:main.c        ****                 moveUntil(CLEARANCE_RADIUS_CENTER_TO_BACK, BACKWARD, GREATER_THAN, FRONT_LEFT, SPEE
 1815              		.loc 1 872 0
 1816 0ad6 0194     		str	r4, [sp, #4]
 1817 0ad8 0095     		str	r5, [sp]
 1818 0ada 0023     		movs	r3, #0
 1819 0adc 4FF0FF32 		mov	r2, #-1
 1820 0ae0 1946     		mov	r1, r3
 1821 0ae2 F020     		movs	r0, #240
 1822 0ae4 FFF7FEFF 		bl	moveUntil
 1823              	.LVL253:
 873:main.c        ****                 straightAdjust(FRONT_SENSORS);
 1824              		.loc 1 873 0
 1825 0ae8 0720     		movs	r0, #7
 1826 0aea FFF7FEFF 		bl	straightAdjust
 1827              	.LVL254:
 874:main.c        ****                 changeOrientation(EAST,SPEED);
 1828              		.loc 1 874 0
 1829 0aee 2946     		mov	r1, r5
 1830 0af0 2046     		mov	r0, r4
 1831 0af2 FFF7FEFF 		bl	changeOrientation
 1832              	.LVL255:
 875:main.c        ****                 straightAdjust(BACK_SENSORS);
 1833              		.loc 1 875 0
 1834 0af6 0820     		movs	r0, #8
 1835 0af8 FFF7FEFF 		bl	straightAdjust
 1836              	.LVL256:
 876:main.c        ****                 //moveUntil(CLEARANCE_RADIUS_CENTER_TO_BACK - DISTANCE_BACK_SENSOR_FROM_CENTER, BAC
 877:main.c        ****                 changeOrientation(SOUTH,SPEED);
 1837              		.loc 1 877 0
 1838 0afc 2946     		mov	r1, r5
 1839 0afe 0220     		movs	r0, #2
 1840 0b00 FFF7FEFF 		bl	changeOrientation
 1841              	.LVL257:
 878:main.c        ****                 straightAdjust(BACK_LEFT);
 1842              		.loc 1 878 0
 1843 0b04 0620     		movs	r0, #6
 1844 0b06 FFF7FEFF 		bl	straightAdjust
 1845              	.LVL258:
 879:main.c        ****                 moveUntil(CLEARANCE_RADIUS_CENTER_TO_BACK, FORWARD, LESS_THAN, FRONT_LEFT, SPEED, T
 1846              		.loc 1 879 0
 1847 0b0a 0194     		str	r4, [sp, #4]
ARM GAS  C:\Users\jerry\AppData\Local\Temp\cc40088P.s 			page 49


 1848 0b0c 0095     		str	r5, [sp]
 1849 0b0e 0023     		movs	r3, #0
 1850 0b10 2246     		mov	r2, r4
 1851 0b12 2146     		mov	r1, r4
 1852 0b14 F020     		movs	r0, #240
 1853 0b16 FFF7FEFF 		bl	moveUntil
 1854              	.LVL259:
 880:main.c        ****                 
 881:main.c        ****                 // above moveUntil isn't stopping early enough i think (IT WAS CAUSE OF FRONT_MIDDL
 882:main.c        ****                 
 883:main.c        ****                 changeOrientation(EAST,SPEED);
 1855              		.loc 1 883 0
 1856 0b1a 2946     		mov	r1, r5
 1857 0b1c 2046     		mov	r0, r4
 1858 0b1e FFF7FEFF 		bl	changeOrientation
 1859              	.LVL260:
 884:main.c        ****                 straightAdjust(BACK_SENSORS);  // we should be in the east where we originally star
 1860              		.loc 1 884 0
 1861 0b22 0820     		movs	r0, #8
 1862 0b24 FFF7FEFF 		bl	straightAdjust
 1863              	.LVL261:
 885:main.c        ****                 //moveUntil(WALL_CLEARANCE_FRONT, FORWARD, LESS_THAN, FRONT_MIDDLE, SPEED, TRUE);
 886:main.c        ****                 moveUntil(150, FORWARD, LESS_THAN, FRONT_MIDDLE, SPEED, TRUE);
 1864              		.loc 1 886 0
 1865 0b28 0194     		str	r4, [sp, #4]
 1866 0b2a 0095     		str	r5, [sp]
 1867 0b2c 0523     		movs	r3, #5
 1868 0b2e 2246     		mov	r2, r4
 1869 0b30 2146     		mov	r1, r4
 1870 0b32 9620     		movs	r0, #150
 1871 0b34 FFF7FEFF 		bl	moveUntil
 1872              	.LVL262:
 1873 0b38 74E0     		b	.L49
 1874              	.L50:
 887:main.c        ****               
 888:main.c        ****             }
 889:main.c        ****             
 890:main.c        ****             else if (preferential_route == MIDDLE) {
 1875              		.loc 1 890 0
 1876 0b3a 022B     		cmp	r3, #2
 1877 0b3c 72D1     		bne	.L49
 891:main.c        ****                 UART_1_PutString("entering ret middle");
 1878              		.loc 1 891 0
 1879 0b3e 2148     		ldr	r0, .L66+24
 1880 0b40 FFF7FEFF 		bl	UART_1_PutString
 1881              	.LVL263:
 892:main.c        ****                 if (block_east_clearance == 1) {
 1882              		.loc 1 892 0
 1883 0b44 1B4B     		ldr	r3, .L66+8
 1884 0b46 B3F94030 		ldrsh	r3, [r3, #64]
 1885 0b4a 012B     		cmp	r3, #1
 1886 0b4c 3CD1     		bne	.L51
 893:main.c        ****                     changeOrientation(NORTH, SPEED);
 1887              		.loc 1 893 0
 1888 0b4e C821     		movs	r1, #200
 1889 0b50 0020     		movs	r0, #0
 1890 0b52 FFF7FEFF 		bl	changeOrientation
ARM GAS  C:\Users\jerry\AppData\Local\Temp\cc40088P.s 			page 50


 1891              	.LVL264:
 894:main.c        ****                     moveUntil(500,BACKWARD, LESS_THAN, BACK_LEFT, SPEED, TRUE);
 1892              		.loc 1 894 0
 1893 0b56 0124     		movs	r4, #1
 1894 0b58 0194     		str	r4, [sp, #4]
 1895 0b5a C825     		movs	r5, #200
 1896 0b5c 0095     		str	r5, [sp]
 1897 0b5e 0623     		movs	r3, #6
 1898 0b60 2246     		mov	r2, r4
 1899 0b62 0021     		movs	r1, #0
 1900 0b64 4FF4FA70 		mov	r0, #500
 1901 0b68 FFF7FEFF 		bl	moveUntil
 1902              	.LVL265:
 895:main.c        ****                     changeOrientation(WEST,SPEED);
 1903              		.loc 1 895 0
 1904 0b6c 2946     		mov	r1, r5
 1905 0b6e 0320     		movs	r0, #3
 1906 0b70 FFF7FEFF 		bl	changeOrientation
 1907              	.LVL266:
 896:main.c        ****                     changeOrientation(SOUTH,SPEED);
 1908              		.loc 1 896 0
 1909 0b74 2946     		mov	r1, r5
 1910 0b76 0220     		movs	r0, #2
 1911 0b78 FFF7FEFF 		bl	changeOrientation
 1912              	.LVL267:
 897:main.c        ****                     moveUntil(CLEARANCE_RADIUS_CENTER_TO_BACK,FORWARD, LESS_THAN, FRONT_LEFT, SPEED
 1913              		.loc 1 897 0
 1914 0b7c 0194     		str	r4, [sp, #4]
 1915 0b7e 0095     		str	r5, [sp]
 1916 0b80 0023     		movs	r3, #0
 1917 0b82 2246     		mov	r2, r4
 1918 0b84 2146     		mov	r1, r4
 1919 0b86 F020     		movs	r0, #240
 1920 0b88 FFF7FEFF 		bl	moveUntil
 1921              	.LVL268:
 898:main.c        ****                     straightAdjust(FRONT_SENSORS);
 1922              		.loc 1 898 0
 1923 0b8c 0720     		movs	r0, #7
 1924 0b8e FFF7FEFF 		bl	straightAdjust
 1925              	.LVL269:
 899:main.c        ****                     changeOrientation(EAST,SPEED);
 1926              		.loc 1 899 0
 1927 0b92 2946     		mov	r1, r5
 1928 0b94 2046     		mov	r0, r4
 1929 0b96 FFF7FEFF 		bl	changeOrientation
 1930              	.LVL270:
 900:main.c        ****                     moveUntil(150,FORWARD, LESS_THAN, FRONT_LEFT, SPEED, TRUE);
 1931              		.loc 1 900 0
 1932 0b9a 0194     		str	r4, [sp, #4]
 1933 0b9c 0095     		str	r5, [sp]
 1934 0b9e 0023     		movs	r3, #0
 1935 0ba0 2246     		mov	r2, r4
 1936 0ba2 2146     		mov	r1, r4
 1937 0ba4 9620     		movs	r0, #150
 1938 0ba6 FFF7FEFF 		bl	moveUntil
 1939              	.LVL271:
 1940 0baa 3BE0     		b	.L49
ARM GAS  C:\Users\jerry\AppData\Local\Temp\cc40088P.s 			page 51


 1941              	.L67:
 1942              		.align	2
 1943              	.L66:
 1944 0bac 00000000 		.word	preferential_route
 1945 0bb0 AC010000 		.word	.LC17
 1946 0bb4 00000000 		.word	.LANCHOR0
 1947 0bb8 C4010000 		.word	.LC18
 1948 0bbc E0010000 		.word	.LC19
 1949 0bc0 FC010000 		.word	.LC20
 1950 0bc4 18020000 		.word	.LC21
 1951              	.L51:
 901:main.c        ****                                         
 902:main.c        ****                 }
 903:main.c        ****                 else {
 904:main.c        ****                     // know the block is far away, just travel straight down
 905:main.c        ****                     changeOrientation(NORTH, SPEED);
 1952              		.loc 1 905 0
 1953 0bc8 C821     		movs	r1, #200
 1954 0bca 0020     		movs	r0, #0
 1955 0bcc FFF7FEFF 		bl	changeOrientation
 1956              	.LVL272:
 906:main.c        ****                     moveUntil(500,BACKWARD, LESS_THAN, BACK_LEFT, SPEED, TRUE);
 1957              		.loc 1 906 0
 1958 0bd0 0124     		movs	r4, #1
 1959 0bd2 0194     		str	r4, [sp, #4]
 1960 0bd4 C825     		movs	r5, #200
 1961 0bd6 0095     		str	r5, [sp]
 1962 0bd8 0623     		movs	r3, #6
 1963 0bda 2246     		mov	r2, r4
 1964 0bdc 0021     		movs	r1, #0
 1965 0bde 4FF4FA70 		mov	r0, #500
 1966 0be2 FFF7FEFF 		bl	moveUntil
 1967              	.LVL273:
 907:main.c        ****                     changeOrientation(EAST,SPEED);
 1968              		.loc 1 907 0
 1969 0be6 2946     		mov	r1, r5
 1970 0be8 2046     		mov	r0, r4
 1971 0bea FFF7FEFF 		bl	changeOrientation
 1972              	.LVL274:
 908:main.c        ****                     changeOrientation(SOUTH,SPEED);
 1973              		.loc 1 908 0
 1974 0bee 2946     		mov	r1, r5
 1975 0bf0 0220     		movs	r0, #2
 1976 0bf2 FFF7FEFF 		bl	changeOrientation
 1977              	.LVL275:
 909:main.c        ****                     moveUntil(CLEARANCE_RADIUS_CENTER_TO_BACK,FORWARD, LESS_THAN, FRONT_LEFT, SPEED
 1978              		.loc 1 909 0
 1979 0bf6 0194     		str	r4, [sp, #4]
 1980 0bf8 0095     		str	r5, [sp]
 1981 0bfa 0023     		movs	r3, #0
 1982 0bfc 2246     		mov	r2, r4
 1983 0bfe 2146     		mov	r1, r4
 1984 0c00 F020     		movs	r0, #240
 1985 0c02 FFF7FEFF 		bl	moveUntil
 1986              	.LVL276:
 910:main.c        ****                     straightAdjust(FRONT_SENSORS);
 1987              		.loc 1 910 0
ARM GAS  C:\Users\jerry\AppData\Local\Temp\cc40088P.s 			page 52


 1988 0c06 0720     		movs	r0, #7
 1989 0c08 FFF7FEFF 		bl	straightAdjust
 1990              	.LVL277:
 911:main.c        ****                     changeOrientation(EAST,SPEED);
 1991              		.loc 1 911 0
 1992 0c0c 2946     		mov	r1, r5
 1993 0c0e 2046     		mov	r0, r4
 1994 0c10 FFF7FEFF 		bl	changeOrientation
 1995              	.LVL278:
 912:main.c        ****                     moveUntil(150,FORWARD, LESS_THAN, FRONT_LEFT, SPEED, TRUE);
 1996              		.loc 1 912 0
 1997 0c14 0194     		str	r4, [sp, #4]
 1998 0c16 0095     		str	r5, [sp]
 1999 0c18 0023     		movs	r3, #0
 2000 0c1a 2246     		mov	r2, r4
 2001 0c1c 2146     		mov	r1, r4
 2002 0c1e 9620     		movs	r0, #150
 2003 0c20 FFF7FEFF 		bl	moveUntil
 2004              	.LVL279:
 2005              	.L49:
 913:main.c        ****                 }
 914:main.c        ****                 
 915:main.c        ****             }
 916:main.c        ****             
 917:main.c        ****             
 918:main.c        ****             
 919:main.c        ****     // Old code         
 920:main.c        ****             /*
 921:main.c        ****             else if (block_east_clearance && puck_west_clearance){
 922:main.c        **** 
 923:main.c        ****                 moveUntil(ARENA_WIDTH - (block_location[EAST] - DISTANCE_FRONT_SENSOR_FROM_CENTER -
 924:main.c        ****                 //straightAdjust();
 925:main.c        ****                 changeOrientation(NORTH, SPEED);
 926:main.c        ****                 straightAdjust(FRONT_SENSORS);
 927:main.c        ****                 moveUntil(CLEARANCE_RADIUS_CENTER_TO_BACK - 140, BACKWARD, LESS_THAN, BACK_RIGHT, S
 928:main.c        ****                 //displaceLeft(); Repeatedly call this if below function not implemented
 929:main.c        ****                 //displaceLeftUntil(CLEARANCE_RADIUS_CENTER_TO_BACK,RIGHT);
 930:main.c        ****                 changeOrientation(EAST, SPEED);
 931:main.c        ****                 //displaceLeft();
 932:main.c        ****                 //displaceLeftUntil(DISTANCE_PUCKS_FROM_NORTH + WIDTH_SENSOR_TO_CENTER ,RIGHT);
 933:main.c        ****                 moveUntil(WALL_CLEARANCE_FRONT, FORWARD, LESS_THAN, FRONT_MIDDLE, SPEED, TRUE);
 934:main.c        ****                 
 935:main.c        ****             }
 936:main.c        ****             
 937:main.c        ****             else if (block_west_clearance && puck_east_clearance){
 938:main.c        ****                 
 939:main.c        ****                 moveUntil(ARENA_WIDTH - (block_location[WEST] - DISTANCE_FRONT_SENSOR_FROM_CENTER +
 940:main.c        ****                 changeOrientation(NORTH, SPEED);
 941:main.c        ****                 straightAdjust(FRONT_SENSORS);
 942:main.c        ****                 moveUntil(CLEARANCE_RADIUS_CENTER_TO_BACK - 140, BACKWARD, LESS_THAN, BACK_RIGHT, S
 943:main.c        ****                 //displaceLeft(); Repeatedly call this if below function not implemented
 944:main.c        ****                 //displaceLeftUntil(CLEARANCE_RADIUS_CENTER_TO_BACK,RIGHT);
 945:main.c        ****                 changeOrientation(EAST, SPEED);
 946:main.c        ****                 //displaceLeft();
 947:main.c        ****                 //displaceLeftUntil(DISTANCE_PUCKS_FROM_NORTH + WIDTH_SENSOR_TO_CENTER ,RIGHT);
 948:main.c        ****                 moveUntil(WALL_CLEARANCE_FRONT, FORWARD, LESS_THAN, FRONT_LEFT, SPEED, TRUE);
 949:main.c        ****                 
ARM GAS  C:\Users\jerry\AppData\Local\Temp\cc40088P.s 			page 53


 950:main.c        ****             }   
 951:main.c        ****             */
 952:main.c        ****             
 953:main.c        ****             
 954:main.c        ****             state = STATE_DEPOSIT_PUCK;
 2006              		.loc 1 954 0
 2007 0c24 0622     		movs	r2, #6
 2008 0c26 7E4B     		ldr	r3, .L68
 2009 0c28 5A60     		str	r2, [r3, #4]
 2010              	.L47:
 955:main.c        ****         }
 956:main.c        ****         
 957:main.c        **** //        
 958:main.c        **** // *** 6. STATE DEPOSIT PUCK: *** // 
 959:main.c        **** //
 960:main.c        ****         
 961:main.c        ****         // We choose where we put the puck. Depending if its needed now, later or never.
 962:main.c        ****         if (state == STATE_DEPOSIT_PUCK){
 2011              		.loc 1 962 0
 2012 0c2a 7D4B     		ldr	r3, .L68
 2013 0c2c 5B68     		ldr	r3, [r3, #4]
 2014 0c2e 062B     		cmp	r3, #6
 2015 0c30 40F0C180 		bne	.L52
 2016              	.LBB9:
 963:main.c        ****                 
 964:main.c        ****             
 965:main.c        ****             // Temp grab puck
 966:main.c        ****             control_photodiode_Write(CLAW_SENSING);    // changes to claw photodiode
 2017              		.loc 1 966 0
 2018 0c34 0120     		movs	r0, #1
 2019 0c36 FFF7FEFF 		bl	control_photodiode_Write
 2020              	.LVL280:
 967:main.c        ****             colour_sensing_algorithm = CLAW_GROUND_ALGORITHM;   // changes it to claw algorithm
 2021              		.loc 1 967 0
 2022 0c3a 794C     		ldr	r4, .L68
 2023 0c3c 0523     		movs	r3, #5
 2024 0c3e E360     		str	r3, [r4, #12]
 968:main.c        ****             
 969:main.c        ****             /*
 970:main.c        ****             armOpen();
 971:main.c        ****             colourSensingInitialise();
 972:main.c        ****             CyDelay(2000);
 973:main.c        ****             armClose();
 974:main.c        ****             */
 975:main.c        ****             
 976:main.c        ****             
 977:main.c        ****             
 978:main.c        ****             int heldColour = colourSensingOutput();
 2025              		.loc 1 978 0
 2026 0c40 FFF7FEFF 		bl	colourSensingOutput
 2027              	.LVL281:
 979:main.c        ****             //blinkLED(heldColour,500);
 980:main.c        ****             
 981:main.c        ****             
 982:main.c        ****             // TO DELETE
 983:main.c        ****             heldColour = current_stage; // temp checking it can stack with a fixed rgb order for si
 2028              		.loc 1 983 0
ARM GAS  C:\Users\jerry\AppData\Local\Temp\cc40088P.s 			page 54


 2029 0c44 774B     		ldr	r3, .L68+4
 2030 0c46 1A68     		ldr	r2, [r3]
 2031              	.LVL282:
 984:main.c        ****             //armOpen();
 985:main.c        ****             //CyDelay(1000);
 986:main.c        ****             //armClose();
 987:main.c        ****             
 988:main.c        ****             
 989:main.c        ****             if (heldColour == puck_construction_plan[current_puck_stack_size] ) { // The currently 
 2032              		.loc 1 989 0
 2033 0c48 A36C     		ldr	r3, [r4, #72]
 2034 0c4a 04EB8304 		add	r4, r4, r3, lsl #2
 2035 0c4e 2369     		ldr	r3, [r4, #16]
 2036 0c50 9A42     		cmp	r2, r3
 2037 0c52 45D1     		bne	.L53
 990:main.c        ****                 translateUntil(CLEARANCE_RADIUS_CENTER_TO_FRONT + 10,200,LEFT,GREATER_THAN);
 2038              		.loc 1 990 0
 2039 0c54 744E     		ldr	r6, .L68+8
 2040 0c56 4FF0FF33 		mov	r3, #-1
 2041 0c5a 0222     		movs	r2, #2
 2042              	.LVL283:
 2043 0c5c 3146     		mov	r1, r6
 2044 0c5e 8C20     		movs	r0, #140
 2045 0c60 FFF7FEFF 		bl	translateUntil
 2046              	.LVL284:
 991:main.c        ****                 changeOrientation(SOUTH,SPEED);
 2047              		.loc 1 991 0
 2048 0c64 C821     		movs	r1, #200
 2049 0c66 0220     		movs	r0, #2
 2050 0c68 FFF7FEFF 		bl	changeOrientation
 2051              	.LVL285:
 992:main.c        ****                 moveForwardThenBackward(CLEARANCE_RADIUS_CENTER_TO_BACK + DISTANCE_MIDDLE_SENSOR_TO
 2052              		.loc 1 992 0
 2053 0c6c 0124     		movs	r4, #1
 2054 0c6e 0094     		str	r4, [sp]
 2055 0c70 4623     		movs	r3, #70
 2056 0c72 0522     		movs	r2, #5
 2057 0c74 2146     		mov	r1, r4
 2058 0c76 FF20     		movs	r0, #255
 2059 0c78 FFF7FEFF 		bl	moveForwardThenBackward
 2060              	.LVL286:
 993:main.c        ****                 changeOrientation(EAST,SPEED);
 2061              		.loc 1 993 0
 2062 0c7c C821     		movs	r1, #200
 2063 0c7e 2046     		mov	r0, r4
 2064 0c80 FFF7FEFF 		bl	changeOrientation
 2065              	.LVL287:
 994:main.c        ****                 straightAdjust(FRONT_SENSORS);
 2066              		.loc 1 994 0
 2067 0c84 0720     		movs	r0, #7
 2068 0c86 FFF7FEFF 		bl	straightAdjust
 2069              	.LVL288:
 995:main.c        ****                 moveUntil(HOME_MIDPOINT - DISTANCE_MIDDLE_SENSOR_TO_CENTER, BACKWARD, GREATER_THAN,
 2070              		.loc 1 995 0
 2071 0c8a 0194     		str	r4, [sp, #4]
 2072 0c8c C825     		movs	r5, #200
 2073 0c8e 0095     		str	r5, [sp]
ARM GAS  C:\Users\jerry\AppData\Local\Temp\cc40088P.s 			page 55


 2074 0c90 0523     		movs	r3, #5
 2075 0c92 4FF0FF32 		mov	r2, #-1
 2076 0c96 0021     		movs	r1, #0
 2077 0c98 40F24920 		movw	r0, #585
 2078 0c9c FFF7FEFF 		bl	moveUntil
 2079              	.LVL289:
 996:main.c        ****                 changeOrientation(NORTH,SPEED);
 2080              		.loc 1 996 0
 2081 0ca0 2946     		mov	r1, r5
 2082 0ca2 0020     		movs	r0, #0
 2083 0ca4 FFF7FEFF 		bl	changeOrientation
 2084              	.LVL290:
 997:main.c        ****                 changeOrientation(WEST,SPEED);
 2085              		.loc 1 997 0
 2086 0ca8 2946     		mov	r1, r5
 2087 0caa 0320     		movs	r0, #3
 2088 0cac FFF7FEFF 		bl	changeOrientation
 2089              	.LVL291:
 998:main.c        ****                 translateUntil(120,200,LEFT,LESS_THAN);
 2090              		.loc 1 998 0
 2091 0cb0 2346     		mov	r3, r4
 2092 0cb2 0222     		movs	r2, #2
 2093 0cb4 3146     		mov	r1, r6
 2094 0cb6 7820     		movs	r0, #120
 2095 0cb8 FFF7FEFF 		bl	translateUntil
 2096              	.LVL292:
 999:main.c        ****                 moveUntil(CONSTRUCTION_MIDPOINT - DISTANCE_FRONT_SENSOR_FROM_CENTER - 30, FORWARD, 
 2097              		.loc 1 999 0
 2098 0cbc 0194     		str	r4, [sp, #4]
 2099 0cbe 0095     		str	r5, [sp]
 2100 0cc0 0523     		movs	r3, #5
 2101 0cc2 2246     		mov	r2, r4
 2102 0cc4 2146     		mov	r1, r4
 2103 0cc6 AA20     		movs	r0, #170
 2104 0cc8 FFF7FEFF 		bl	moveUntil
 2105              	.LVL293:
1000:main.c        ****                 //moveForwardThenBackward(CONSTRUCTION_MIDPOINT - DISTANCE_FRONT_SENSOR_FROM_CENTER
1001:main.c        ****                 moveForwardThenBackward(190, LESS_THAN, FRONT_MIDDLE, SPEED_LOW, TRUE);
 2106              		.loc 1 1001 0
 2107 0ccc 0094     		str	r4, [sp]
 2108 0cce 4623     		movs	r3, #70
 2109 0cd0 0522     		movs	r2, #5
 2110 0cd2 2146     		mov	r1, r4
 2111 0cd4 BE20     		movs	r0, #190
 2112 0cd6 FFF7FEFF 		bl	moveForwardThenBackward
 2113              	.LVL294:
1002:main.c        ****                 straightAdjust(FRONT_SENSORS);
 2114              		.loc 1 1002 0
 2115 0cda 0720     		movs	r0, #7
 2116 0cdc FFF7FEFF 		bl	straightAdjust
 2117              	.LVL295:
 2118              	.L53:
1003:main.c        ****                 
1004:main.c        ****                 //changeOrientation(SOUTH, SPEED);
1005:main.c        ****                 //moveUntil(CONSTRUCTION_MIDPOINT - DISTANCE_FRONT_SENSOR_FROM_CENTER, FORWARD, LES
1006:main.c        ****                 
1007:main.c        ****                 
ARM GAS  C:\Users\jerry\AppData\Local\Temp\cc40088P.s 			page 56


1008:main.c        ****                 
1009:main.c        ****             }
1010:main.c        ****             /*
1011:main.c        ****             else if ( heldColour == puck_construction_plan[1] || heldColour == puck_construction_pl
1012:main.c        ****                 moveUntil(ARENA_WIDTH - FIRST_TEMP_DROPOFF + DISTANCE_FRONT_SENSOR_FROM_CENTER, BAC
1013:main.c        ****                 straightAdjust();
1014:main.c        ****             }
1015:main.c        ****             
1016:main.c        ****             else {
1017:main.c        ****                 moveUntil(ARENA_WIDTH-FIRST_DISCARD_ZONE + DISTANCE_FRONT_SENSOR_FROM_CENTER, BACKW
1018:main.c        ****             } // Discard the puck so drop it in rubbish pile
1019:main.c        ****             
1020:main.c        ****             */
1021:main.c        **** 
1022:main.c        ****             changeOrientation(SOUTH,SPEED);    
 2119              		.loc 1 1022 0
 2120 0ce0 C821     		movs	r1, #200
 2121 0ce2 0220     		movs	r0, #2
 2122 0ce4 FFF7FEFF 		bl	changeOrientation
 2123              	.LVL296:
1023:main.c        ****             changeHeightToPuck(ABOVE_3_PUCK, CLOSE); // Lift claw above stack to avoid hitting the 
 2124              		.loc 1 1023 0
 2125 0ce8 0121     		movs	r1, #1
 2126 0cea 0320     		movs	r0, #3
 2127 0cec FFF7FEFF 		bl	changeHeightToPuck
 2128              	.LVL297:
1024:main.c        ****             
1025:main.c        ****             if (current_puck_stack_size == 0){
 2129              		.loc 1 1025 0
 2130 0cf0 4B4B     		ldr	r3, .L68
 2131 0cf2 9B6C     		ldr	r3, [r3, #72]
 2132 0cf4 53B9     		cbnz	r3, .L54
1026:main.c        ****                 straightAdjust(FRONT_SENSORS);
 2133              		.loc 1 1026 0
 2134 0cf6 0720     		movs	r0, #7
 2135 0cf8 FFF7FEFF 		bl	straightAdjust
 2136              	.LVL298:
1027:main.c        ****                 //moveUntil(CONSTRUCTION_DISTANCE_FROM_WALL, FORWARD, LESS_THAN, FRONT_LEFT, SPEED,
1028:main.c        ****                 moveForwardThenBackward(150, LESS_THAN, FRONT_MIDDLE, SPEED_LOW, TRUE);
 2137              		.loc 1 1028 0
 2138 0cfc 0121     		movs	r1, #1
 2139 0cfe 0091     		str	r1, [sp]
 2140 0d00 4623     		movs	r3, #70
 2141 0d02 0522     		movs	r2, #5
 2142 0d04 9620     		movs	r0, #150
 2143 0d06 FFF7FEFF 		bl	moveForwardThenBackward
 2144              	.LVL299:
 2145 0d0a 09E0     		b	.L55
 2146              	.L54:
1029:main.c        ****             }
1030:main.c        ****             else {
1031:main.c        ****                 moveUntil(DISTANCE_BEFORE_STACK_MIDDLE_SENSOR, FORWARD, LESS_THAN, FRONT_MIDDLE, SP
 2147              		.loc 1 1031 0
 2148 0d0c 0023     		movs	r3, #0
 2149 0d0e 0193     		str	r3, [sp, #4]
 2150 0d10 4623     		movs	r3, #70
 2151 0d12 0093     		str	r3, [sp]
ARM GAS  C:\Users\jerry\AppData\Local\Temp\cc40088P.s 			page 57


 2152 0d14 0523     		movs	r3, #5
 2153 0d16 0122     		movs	r2, #1
 2154 0d18 1146     		mov	r1, r2
 2155 0d1a 5A20     		movs	r0, #90
 2156 0d1c FFF7FEFF 		bl	moveUntil
 2157              	.LVL300:
 2158              	.L55:
1032:main.c        ****                 //moveDynamic(140, SPEED, FALSE);            
1033:main.c        ****             }
1034:main.c        ****             
1035:main.c        ****             //moveDynamic(CONSTRUCTION_DISTANCE_CLEAR_FROM_STACK - CONSTRUCTION_DISTANCE_FROM_WALL,
1036:main.c        ****             
1037:main.c        ****             //armCloseIndefinitely(FALSE);
1038:main.c        ****             
1039:main.c        ****             changeHeightToPuck(current_puck_stack_size, CLOSE);
 2159              		.loc 1 1039 0
 2160 0d20 0121     		movs	r1, #1
 2161 0d22 3F4B     		ldr	r3, .L68
 2162 0d24 986C     		ldr	r0, [r3, #72]
 2163 0d26 FFF7FEFF 		bl	changeHeightToPuck
 2164              	.LVL301:
1040:main.c        ****             armOpen();
 2165              		.loc 1 1040 0
 2166 0d2a FFF7FEFF 		bl	armOpen
 2167              	.LVL302:
1041:main.c        ****             changeHeightToPuck(ABOVE_3_PUCK, OPEN); // Move higher than stack to avoid hitting it.
 2168              		.loc 1 1041 0
 2169 0d2e 0021     		movs	r1, #0
 2170 0d30 0320     		movs	r0, #3
 2171 0d32 FFF7FEFF 		bl	changeHeightToPuck
 2172              	.LVL303:
1042:main.c        ****             
1043:main.c        **** 
1044:main.c        ****             if (current_stage >= 3){state = STATE_PARK_HOME;}        // Returns to home 
 2173              		.loc 1 1044 0
 2174 0d36 3B4B     		ldr	r3, .L68+4
 2175 0d38 1B68     		ldr	r3, [r3]
 2176 0d3a 022B     		cmp	r3, #2
 2177 0d3c 03DD     		ble	.L56
 2178              		.loc 1 1044 0 is_stmt 0 discriminator 1
 2179 0d3e 0722     		movs	r2, #7
 2180 0d40 374B     		ldr	r3, .L68
 2181 0d42 5A60     		str	r2, [r3, #4]
 2182 0d44 37E0     		b	.L52
 2183              	.L56:
1045:main.c        ****             else {current_stage++; current_puck_stack_size++;
 2184              		.loc 1 1045 0 is_stmt 1
 2185 0d46 0133     		adds	r3, r3, #1
 2186 0d48 364A     		ldr	r2, .L68+4
 2187 0d4a 1360     		str	r3, [r2]
 2188 0d4c 344E     		ldr	r6, .L68
 2189 0d4e B36C     		ldr	r3, [r6, #72]
 2190 0d50 0133     		adds	r3, r3, #1
 2191 0d52 B364     		str	r3, [r6, #72]
1046:main.c        ****             // Need to go back to the east wall facing east.
1047:main.c        ****                 //moveUntil(CONSTRUCTION_DISTANCE_CLEAR_FROM_STACK, BACKWARD, GREATER_THAN, FRONT_L
1048:main.c        ****                 moveDynamic(-130,SPEED,TRUE);
ARM GAS  C:\Users\jerry\AppData\Local\Temp\cc40088P.s 			page 58


 2192              		.loc 1 1048 0
 2193 0d54 0122     		movs	r2, #1
 2194 0d56 C821     		movs	r1, #200
 2195 0d58 6FF08100 		mvn	r0, #129
 2196 0d5c FFF7FEFF 		bl	moveDynamic
 2197              	.LVL304:
1049:main.c        ****                 changeOrientation(WEST,SPEED);
 2198              		.loc 1 1049 0
 2199 0d60 C821     		movs	r1, #200
 2200 0d62 0320     		movs	r0, #3
 2201 0d64 FFF7FEFF 		bl	changeOrientation
 2202              	.LVL305:
1050:main.c        ****                 straightAdjust(FRONT_SENSORS);
 2203              		.loc 1 1050 0
 2204 0d68 0720     		movs	r0, #7
 2205 0d6a FFF7FEFF 		bl	straightAdjust
 2206              	.LVL306:
1051:main.c        ****                 moveUntil(HOME_MIDPOINT - DISTANCE_FRONT_SENSOR_FROM_CENTER, BACKWARD, GREATER_THAN
 2207              		.loc 1 1051 0
 2208 0d6e 0124     		movs	r4, #1
 2209 0d70 0194     		str	r4, [sp, #4]
 2210 0d72 C825     		movs	r5, #200
 2211 0d74 0095     		str	r5, [sp]
 2212 0d76 0523     		movs	r3, #5
 2213 0d78 4FF0FF32 		mov	r2, #-1
 2214 0d7c 0021     		movs	r1, #0
 2215 0d7e 40F22620 		movw	r0, #550
 2216 0d82 FFF7FEFF 		bl	moveUntil
 2217              	.LVL307:
1052:main.c        ****                 straightAdjust(FRONT_SENSORS);
 2218              		.loc 1 1052 0
 2219 0d86 0720     		movs	r0, #7
 2220 0d88 FFF7FEFF 		bl	straightAdjust
 2221              	.LVL308:
1053:main.c        ****                 changeOrientation(NORTH,SPEED);
 2222              		.loc 1 1053 0
 2223 0d8c 2946     		mov	r1, r5
 2224 0d8e 0020     		movs	r0, #0
 2225 0d90 FFF7FEFF 		bl	changeOrientation
 2226              	.LVL309:
1054:main.c        ****                 changeOrientation(EAST,SPEED);
 2227              		.loc 1 1054 0
 2228 0d94 2946     		mov	r1, r5
 2229 0d96 2046     		mov	r0, r4
 2230 0d98 FFF7FEFF 		bl	changeOrientation
 2231              	.LVL310:
1055:main.c        ****                 moveUntil(DISTANCE_FRONT_SENSOR_FROM_CENTER + SAFETY_MARGIN + 50, FORWARD, LESS_THA
 2232              		.loc 1 1055 0
 2233 0d9c 0194     		str	r4, [sp, #4]
 2234 0d9e 0095     		str	r5, [sp]
 2235 0da0 0523     		movs	r3, #5
 2236 0da2 2246     		mov	r2, r4
 2237 0da4 2146     		mov	r1, r4
 2238 0da6 B920     		movs	r0, #185
 2239 0da8 FFF7FEFF 		bl	moveUntil
 2240              	.LVL311:
1056:main.c        ****                 straightAdjust(FRONT_SENSORS);
ARM GAS  C:\Users\jerry\AppData\Local\Temp\cc40088P.s 			page 59


 2241              		.loc 1 1056 0
 2242 0dac 0720     		movs	r0, #7
 2243 0dae FFF7FEFF 		bl	straightAdjust
 2244              	.LVL312:
1057:main.c        ****                 
1058:main.c        ****                 
1059:main.c        ****                 //Usually we will check if the next colour we need is in home base already
1060:main.c        ****                 //
1061:main.c        ****                 // If in east edge of home base
1062:main.c        ****                 if ( puck_construction_plan[current_puck_stack_size] == puck_temp_pile[0]){
1063:main.c        ****                     
1064:main.c        ****                 }
1065:main.c        ****                 //If in west edge of home base
1066:main.c        ****                 else if(puck_construction_plan[current_puck_stack_size] == puck_temp_pile[1]){
1067:main.c        ****                          
1068:main.c        ****                 }
1069:main.c        ****                 
1070:main.c        ****                 state = STATE_GO_TO_PUCKS; // Go grab the next puck from the pile since it isn't in
 2245              		.loc 1 1070 0
 2246 0db2 0323     		movs	r3, #3
 2247 0db4 7360     		str	r3, [r6, #4]
 2248              	.L52:
 2249              	.LBE9:
1071:main.c        ****             }
1072:main.c        ****             
1073:main.c        ****             
1074:main.c        **** 
1075:main.c        ****         }
1076:main.c        ****  
1077:main.c        **** //        
1078:main.c        **** // *** 7. STATE PARK HOME: *** // 
1079:main.c        **** //        
1080:main.c        ****         
1081:main.c        ****         if (state == STATE_PARK_HOME){
 2250              		.loc 1 1081 0
 2251 0db6 1A4B     		ldr	r3, .L68
 2252 0db8 5B68     		ldr	r3, [r3, #4]
 2253 0dba 072B     		cmp	r3, #7
 2254 0dbc 7FF4A7A9 		bne	.L57
1082:main.c        ****             
1083:main.c        ****             // When we enter this state we can assume that we have just deposited the final puck on
1084:main.c        ****             // Thus we are facing the stack.
1085:main.c        ****             
1086:main.c        ****             
1087:main.c        ****             moveUntil(CONSTRUCTION_DISTANCE_CLEAR_FROM_STACK, BACKWARD, GREATER_THAN, FRONT_MIDDLE,
 2255              		.loc 1 1087 0
 2256 0dc0 0024     		movs	r4, #0
 2257 0dc2 0194     		str	r4, [sp, #4]
 2258 0dc4 C826     		movs	r6, #200
 2259 0dc6 0096     		str	r6, [sp]
 2260 0dc8 0523     		movs	r3, #5
 2261 0dca 4FF0FF32 		mov	r2, #-1
 2262 0dce 2146     		mov	r1, r4
 2263 0dd0 FA20     		movs	r0, #250
 2264 0dd2 FFF7FEFF 		bl	moveUntil
 2265              	.LVL313:
1088:main.c        ****             changeOrientation(WEST,SPEED);
ARM GAS  C:\Users\jerry\AppData\Local\Temp\cc40088P.s 			page 60


 2266              		.loc 1 1088 0
 2267 0dd6 3146     		mov	r1, r6
 2268 0dd8 0320     		movs	r0, #3
 2269 0dda FFF7FEFF 		bl	changeOrientation
 2270              	.LVL314:
1089:main.c        ****             straightAdjust(FRONT_SENSORS);
 2271              		.loc 1 1089 0
 2272 0dde 0720     		movs	r0, #7
 2273 0de0 FFF7FEFF 		bl	straightAdjust
 2274              	.LVL315:
1090:main.c        ****             moveForwardThenBackward(HOME_MIDPOINT + DISTANCE_MIDDLE_SENSOR_TO_CENTER - 45, LESS_THA
 2275              		.loc 1 1090 0
 2276 0de4 0125     		movs	r5, #1
 2277 0de6 0095     		str	r5, [sp]
 2278 0de8 4623     		movs	r3, #70
 2279 0dea 0522     		movs	r2, #5
 2280 0dec 2946     		mov	r1, r5
 2281 0dee 40F23A20 		movw	r0, #570
 2282 0df2 FFF7FEFF 		bl	moveForwardThenBackward
 2283              	.LVL316:
1091:main.c        ****             straightAdjust(FRONT_SENSORS);
 2284              		.loc 1 1091 0
 2285 0df6 0720     		movs	r0, #7
 2286 0df8 FFF7FEFF 		bl	straightAdjust
 2287              	.LVL317:
1092:main.c        ****             changeOrientation(NORTH,SPEED);
 2288              		.loc 1 1092 0
 2289 0dfc 3146     		mov	r1, r6
 2290 0dfe 2046     		mov	r0, r4
 2291 0e00 FFF7FEFF 		bl	changeOrientation
 2292              	.LVL318:
1093:main.c        ****             moveUntil(HOME_PARKING_DISTANCE , BACKWARD, LESS_THAN, BACK_RIGHT, SPEED_LOW, TRUE);
 2293              		.loc 1 1093 0
 2294 0e04 0195     		str	r5, [sp, #4]
 2295 0e06 4623     		movs	r3, #70
 2296 0e08 0093     		str	r3, [sp]
 2297 0e0a 0423     		movs	r3, #4
 2298 0e0c 2A46     		mov	r2, r5
 2299 0e0e 2146     		mov	r1, r4
 2300 0e10 1E20     		movs	r0, #30
 2301 0e12 FFF7FEFF 		bl	moveUntil
 2302              	.LVL319:
1094:main.c        **** 
1095:main.c        ****             // END Congratulations:
1096:main.c        ****             changeHeightToPuck(GROUND, NEITHER);
 2303              		.loc 1 1096 0
 2304 0e16 0221     		movs	r1, #2
 2305 0e18 2046     		mov	r0, r4
 2306 0e1a FFF7FEFF 		bl	changeHeightToPuck
 2307              	.LVL320:
 2308              	.L58:
 2309 0e1e FEE7     		b	.L58
 2310              	.L69:
 2311              		.align	2
 2312              	.L68:
 2313 0e20 00000000 		.word	.LANCHOR0
 2314 0e24 00000000 		.word	.LANCHOR1
ARM GAS  C:\Users\jerry\AppData\Local\Temp\cc40088P.s 			page 61


 2315 0e28 00004843 		.word	1128792064
 2316              		.cfi_endproc
 2317              	.LFE67:
 2318              		.size	main, .-main
 2319              		.comm	distance_returned_global,4,4
 2320              		.global	current_stage
 2321              		.global	PLAN_SCAN_VERTICAL
 2322              		.global	moving
 2323              		.global	colour_sensing_algorithm
 2324              		.global	colour_flag
 2325              		.global	idac_value
 2326              		.global	puck_west_clearance
 2327              		.global	puck_east_clearance
 2328              		.global	block_west_clearance
 2329              		.global	block_east_clearance
 2330              		.global	safety_override
 2331              		.global	puck_location
 2332              		.global	block_location
 2333              		.global	begin_navigation
 2334              		.global	puck_temp_pile
 2335              		.global	puck_construction_plan
 2336              		.global	current_puck_stack_size
 2337              		.global	state
 2338              		.comm	ultrasonic_flag,4,4
 2339              		.comm	initialisation,4,4
 2340              		.comm	puck_grid_initial,4,4
 2341              		.comm	set_path,4,4
 2342              		.comm	initial_tolerance,4,4
 2343              		.comm	preferential_route,4,4
 2344              		.comm	global_distance,4,4
 2345              		.comm	global_encoder,4,4
 2346              		.comm	output,32,4
 2347              		.global	block_edge_location
 2348              		.global	puck_rack_west_offsets
 2349              		.global	puck_rack_scans
 2350              		.comm	internal_orientation,4,4
 2351              		.section	.rodata
 2352              		.align	2
 2353              		.type	PLAN_SCAN_VERTICAL, %object
 2354              		.size	PLAN_SCAN_VERTICAL, 4
 2355              	PLAN_SCAN_VERTICAL:
 2356 0000 0A000000 		.word	10
 2357              		.data
 2358              		.align	2
 2359              		.set	.LANCHOR1,. + 0
 2360              		.type	current_stage, %object
 2361              		.size	current_stage, 4
 2362              	current_stage:
 2363 0000 01000000 		.word	1
 2364              		.type	colour_flag, %object
 2365              		.size	colour_flag, 4
 2366              	colour_flag:
 2367 0004 01000000 		.word	1
 2368              		.type	puck_rack_west_offsets, %object
 2369              		.size	puck_rack_west_offsets, 20
 2370              	puck_rack_west_offsets:
 2371 0008 D0020000 		.word	720
ARM GAS  C:\Users\jerry\AppData\Local\Temp\cc40088P.s 			page 62


 2372 000c 94020000 		.word	660
 2373 0010 58020000 		.word	600
 2374 0014 1C020000 		.word	540
 2375 0018 E0010000 		.word	480
 2376              		.section	.rodata.str1.4,"aMS",%progbits,1
 2377              		.align	2
 2378              	.LC0:
 2379 0000 42656769 		.ascii	"Beginning Navigation \012\000"
 2379      6E6E696E 
 2379      67204E61 
 2379      76696761 
 2379      74696F6E 
 2380 0017 00       		.space	1
 2381              	.LC1:
 2382 0018 55415254 		.ascii	"UART commencing... \012\000"
 2382      20636F6D 
 2382      6D656E63 
 2382      696E672E 
 2382      2E2E200A 
 2383 002d 000000   		.space	3
 2384              	.LC2:
 2385 0030 556C7472 		.ascii	"Ultrasonic Calibration tests: \012\000"
 2385      61736F6E 
 2385      69632043 
 2385      616C6962 
 2385      72617469 
 2386              	.LC3:
 2387 0050 466F756E 		.ascii	"Found Colours: \012\000"
 2387      6420436F 
 2387      6C6F7572 
 2387      733A200A 
 2387      00
 2388 0061 000000   		.space	3
 2389              	.LC4:
 2390 0064 2569200A 		.ascii	"%i \012\000"
 2390      00
 2391 0069 000000   		.space	3
 2392              	.LC5:
 2393 006c 77657374 		.ascii	"west block front sensor: %d, \012\000"
 2393      20626C6F 
 2393      636B2066 
 2393      726F6E74 
 2393      2073656E 
 2394 008b 00       		.space	1
 2395              	.LC6:
 2396 008c 65617374 		.ascii	"east block front sensor: %d, \012\000"
 2396      20626C6F 
 2396      636B2066 
 2396      726F6E74 
 2396      2073656E 
 2397 00ab 00       		.space	1
 2398              	.LC7:
 2399 00ac 77657374 		.ascii	"west puck clearance: %d, \012\000"
 2399      20707563 
 2399      6B20636C 
 2399      65617261 
 2399      6E63653A 
ARM GAS  C:\Users\jerry\AppData\Local\Temp\cc40088P.s 			page 63


 2400 00c7 00       		.space	1
 2401              	.LC8:
 2402 00c8 65617374 		.ascii	"east puck clearance: %d, \012\012\000"
 2402      20707563 
 2402      6B20636C 
 2402      65617261 
 2402      6E63653A 
 2403              	.LC9:
 2404 00e4 77657374 		.ascii	"west block clearance: %d, \012\000"
 2404      20626C6F 
 2404      636B2063 
 2404      6C656172 
 2404      616E6365 
 2405              	.LC10:
 2406 0100 65617374 		.ascii	"east block clearance: %d, \012\000"
 2406      20626C6F 
 2406      636B2063 
 2406      6C656172 
 2406      616E6365 
 2407              	.LC11:
 2408 011c 77657374 		.ascii	"west block distance: %d, \012\000"
 2408      20626C6F 
 2408      636B2064 
 2408      69737461 
 2408      6E63653A 
 2409 0137 00       		.space	1
 2410              	.LC12:
 2411 0138 65617374 		.ascii	"east block distance: %d, \012\000"
 2411      20626C6F 
 2411      636B2064 
 2411      69737461 
 2411      6E63653A 
 2412 0153 00       		.space	1
 2413              	.LC13:
 2414 0154 54616B69 		.ascii	"Taking east route\000"
 2414      6E672065 
 2414      61737420 
 2414      726F7574 
 2414      6500
 2415 0166 0000     		.space	2
 2416              	.LC14:
 2417 0168 696E6974 		.ascii	"initial tolerance: %d\012\000"
 2417      69616C20 
 2417      746F6C65 
 2417      72616E63 
 2417      653A2025 
 2418 017f 00       		.space	1
 2419              	.LC15:
 2420 0180 676C6F62 		.ascii	"global distance: %d\012\000"
 2420      616C2064 
 2420      69737461 
 2420      6E63653A 
 2420      2025640A 
 2421 0195 000000   		.space	3
 2422              	.LC16:
 2423 0198 54616B69 		.ascii	"Taking west route\000"
 2423      6E672077 
ARM GAS  C:\Users\jerry\AppData\Local\Temp\cc40088P.s 			page 64


 2423      65737420 
 2423      726F7574 
 2423      6500
 2424 01aa 0000     		.space	2
 2425              	.LC17:
 2426 01ac 656E7465 		.ascii	"entering middle route\000"
 2426      72696E67 
 2426      206D6964 
 2426      646C6520 
 2426      726F7574 
 2427 01c2 0000     		.space	2
 2428              	.LC18:
 2429 01c4 656E7465 		.ascii	"entering return to south\000"
 2429      72696E67 
 2429      20726574 
 2429      75726E20 
 2429      746F2073 
 2430 01dd 000000   		.space	3
 2431              	.LC19:
 2432 01e0 656E7465 		.ascii	"entering east ret to south\000"
 2432      72696E67 
 2432      20656173 
 2432      74207265 
 2432      7420746F 
 2433 01fb 00       		.space	1
 2434              	.LC20:
 2435 01fc 656E7465 		.ascii	"enterint ret to south west\000"
 2435      72696E74 
 2435      20726574 
 2435      20746F20 
 2435      736F7574 
 2436 0217 00       		.space	1
 2437              	.LC21:
 2438 0218 656E7465 		.ascii	"entering ret middle\000"
 2438      72696E67 
 2438      20726574 
 2438      206D6964 
 2438      646C6500 
 2439              		.bss
 2440              		.align	2
 2441              		.set	.LANCHOR0,. + 0
 2442              		.type	begin_navigation, %object
 2443              		.size	begin_navigation, 4
 2444              	begin_navigation:
 2445 0000 00000000 		.space	4
 2446              		.type	state, %object
 2447              		.size	state, 4
 2448              	state:
 2449 0004 00000000 		.space	4
 2450              		.type	idac_value, %object
 2451              		.size	idac_value, 4
 2452              	idac_value:
 2453 0008 00000000 		.space	4
 2454              		.type	colour_sensing_algorithm, %object
 2455              		.size	colour_sensing_algorithm, 4
 2456              	colour_sensing_algorithm:
 2457 000c 00000000 		.space	4
ARM GAS  C:\Users\jerry\AppData\Local\Temp\cc40088P.s 			page 65


 2458              		.type	puck_construction_plan, %object
 2459              		.size	puck_construction_plan, 12
 2460              	puck_construction_plan:
 2461 0010 00000000 		.space	12
 2461      00000000 
 2461      00000000 
 2462              		.type	puck_rack_scans, %object
 2463              		.size	puck_rack_scans, 20
 2464              	puck_rack_scans:
 2465 001c 00000000 		.space	20
 2465      00000000 
 2465      00000000 
 2465      00000000 
 2465      00000000 
 2466              		.type	block_location, %object
 2467              		.size	block_location, 16
 2468              	block_location:
 2469 0030 00000000 		.space	16
 2469      00000000 
 2469      00000000 
 2469      00000000 
 2470              		.type	block_east_clearance, %object
 2471              		.size	block_east_clearance, 2
 2472              	block_east_clearance:
 2473 0040 0000     		.space	2
 2474              		.type	block_west_clearance, %object
 2475              		.size	block_west_clearance, 2
 2476              	block_west_clearance:
 2477 0042 0000     		.space	2
 2478              		.type	puck_west_clearance, %object
 2479              		.size	puck_west_clearance, 2
 2480              	puck_west_clearance:
 2481 0044 0000     		.space	2
 2482              		.type	puck_east_clearance, %object
 2483              		.size	puck_east_clearance, 2
 2484              	puck_east_clearance:
 2485 0046 0000     		.space	2
 2486              		.type	current_puck_stack_size, %object
 2487              		.size	current_puck_stack_size, 4
 2488              	current_puck_stack_size:
 2489 0048 00000000 		.space	4
 2490              		.type	safety_override, %object
 2491              		.size	safety_override, 4
 2492              	safety_override:
 2493 004c 00000000 		.space	4
 2494              		.type	moving, %object
 2495              		.size	moving, 4
 2496              	moving:
 2497 0050 00000000 		.space	4
 2498              		.type	puck_location, %object
 2499              		.size	puck_location, 16
 2500              	puck_location:
 2501 0054 00000000 		.space	16
 2501      00000000 
 2501      00000000 
 2501      00000000 
 2502              		.type	puck_temp_pile, %object
ARM GAS  C:\Users\jerry\AppData\Local\Temp\cc40088P.s 			page 66


 2503              		.size	puck_temp_pile, 8
 2504              	puck_temp_pile:
 2505 0064 00000000 		.space	8
 2505      00000000 
 2506              		.type	block_edge_location, %object
 2507              		.size	block_edge_location, 16
 2508              	block_edge_location:
 2509 006c 00000000 		.space	16
 2509      00000000 
 2509      00000000 
 2509      00000000 
 2510              		.text
 2511              	.Letext0:
 2512              		.file 2 "c:\\program files (x86)\\cypress\\psoc creator\\4.2\\psoc creator\\import\\gnu\\arm\\5.4.
 2513              		.file 3 "c:\\program files (x86)\\cypress\\psoc creator\\4.2\\psoc creator\\import\\gnu\\arm\\5.4.
 2514              		.file 4 "Generated_Source\\PSoC5/core_cm3.h"
 2515              		.file 5 "navigation.h"
 2516              		.file 6 "ultrasonic.h"
 2517              		.file 7 "main.h"
 2518              		.file 8 "Generated_Source\\PSoC5/CyLib.h"
 2519              		.file 9 "Generated_Source\\PSoC5/UART_1.h"
 2520              		.file 10 "Generated_Source\\PSoC5/Timer_straight_adjust.h"
 2521              		.file 11 "Generated_Source\\PSoC5/Motor_Left_Driver.h"
 2522              		.file 12 "Generated_Source\\PSoC5/Motor_Right_Driver.h"
 2523              		.file 13 "motor.h"
 2524              		.file 14 "Generated_Source\\PSoC5/Control_Reset_Straight.h"
 2525              		.file 15 "colour.h"
 2526              		.file 16 "c:\\program files (x86)\\cypress\\psoc creator\\4.2\\psoc creator\\import\\gnu\\arm\\5.4
 2527              		.file 17 "debugging.h"
 2528              		.file 18 "Generated_Source\\PSoC5/control_photodiode.h"
 2529              		.file 19 "servo.h"
 2530              		.file 20 "Generated_Source\\PSoC5/TIA_1.h"
 2531              		.file 21 "Generated_Source\\PSoC5/ADC.h"
 2532              		.file 22 "Generated_Source\\PSoC5/IDAC8_1.h"
 2533              		.file 23 "Generated_Source\\PSoC5/control_led.h"
 2534              		.file 24 "Generated_Source\\PSoC5/Rack_Servo_PWM.h"
 2535              		.file 25 "Generated_Source\\PSoC5/Gripper_Servo_PWM.h"
 2536              		.file 26 "Generated_Source\\PSoC5/Motor_Left_Decoder.h"
 2537              		.file 27 "Generated_Source\\PSoC5/Motor_Right_Decoder.h"
 2538              		.file 28 "Generated_Source\\PSoC5/Timer_1.h"
 2539              		.file 29 "Generated_Source\\PSoC5/Sonic.h"
 2540              		.file 30 "Generated_Source\\PSoC5/Start.h"
 2541              		.file 31 "Generated_Source\\PSoC5/Straight.h"
 2542              		.section	.debug_info,"",%progbits
 2543              	.Ldebug_info0:
 2544 0000 97250000 		.4byte	0x2597
 2545 0004 0400     		.2byte	0x4
 2546 0006 00000000 		.4byte	.Ldebug_abbrev0
 2547 000a 04       		.byte	0x4
 2548 000b 01       		.uleb128 0x1
 2549 000c 78070000 		.4byte	.LASF110
 2550 0010 0C       		.byte	0xc
 2551 0011 63060000 		.4byte	.LASF111
 2552 0015 00060000 		.4byte	.LASF112
 2553 0019 18000000 		.4byte	.Ldebug_ranges0+0x18
 2554 001d 00000000 		.4byte	0
 2555 0021 00000000 		.4byte	.Ldebug_line0
ARM GAS  C:\Users\jerry\AppData\Local\Temp\cc40088P.s 			page 67


 2556 0025 02       		.uleb128 0x2
 2557 0026 04       		.byte	0x4
 2558 0027 04       		.byte	0x4
 2559 0028 88020000 		.4byte	.LASF0
 2560 002c 02       		.uleb128 0x2
 2561 002d 01       		.byte	0x1
 2562 002e 06       		.byte	0x6
 2563 002f 8B040000 		.4byte	.LASF1
 2564 0033 02       		.uleb128 0x2
 2565 0034 01       		.byte	0x1
 2566 0035 08       		.byte	0x8
 2567 0036 D0030000 		.4byte	.LASF2
 2568 003a 02       		.uleb128 0x2
 2569 003b 02       		.byte	0x2
 2570 003c 05       		.byte	0x5
 2571 003d C6000000 		.4byte	.LASF3
 2572 0041 02       		.uleb128 0x2
 2573 0042 02       		.byte	0x2
 2574 0043 07       		.byte	0x7
 2575 0044 BB060000 		.4byte	.LASF4
 2576 0048 03       		.uleb128 0x3
 2577 0049 F6060000 		.4byte	.LASF10
 2578 004d 02       		.byte	0x2
 2579 004e 3F       		.byte	0x3f
 2580 004f 53000000 		.4byte	0x53
 2581 0053 02       		.uleb128 0x2
 2582 0054 04       		.byte	0x4
 2583 0055 05       		.byte	0x5
 2584 0056 F5020000 		.4byte	.LASF5
 2585 005a 02       		.uleb128 0x2
 2586 005b 04       		.byte	0x4
 2587 005c 07       		.byte	0x7
 2588 005d EC040000 		.4byte	.LASF6
 2589 0061 02       		.uleb128 0x2
 2590 0062 08       		.byte	0x8
 2591 0063 05       		.byte	0x5
 2592 0064 A1020000 		.4byte	.LASF7
 2593 0068 02       		.uleb128 0x2
 2594 0069 08       		.byte	0x8
 2595 006a 07       		.byte	0x7
 2596 006b AB040000 		.4byte	.LASF8
 2597 006f 04       		.uleb128 0x4
 2598 0070 04       		.byte	0x4
 2599 0071 05       		.byte	0x5
 2600 0072 696E7400 		.ascii	"int\000"
 2601 0076 02       		.uleb128 0x2
 2602 0077 04       		.byte	0x4
 2603 0078 07       		.byte	0x7
 2604 0079 D4040000 		.4byte	.LASF9
 2605 007d 03       		.uleb128 0x3
 2606 007e 77050000 		.4byte	.LASF11
 2607 0082 03       		.byte	0x3
 2608 0083 2C       		.byte	0x2c
 2609 0084 48000000 		.4byte	0x48
 2610 0088 02       		.uleb128 0x2
 2611 0089 08       		.byte	0x8
 2612 008a 04       		.byte	0x4
ARM GAS  C:\Users\jerry\AppData\Local\Temp\cc40088P.s 			page 68


 2613 008b 2E070000 		.4byte	.LASF12
 2614 008f 02       		.uleb128 0x2
 2615 0090 01       		.byte	0x1
 2616 0091 08       		.byte	0x8
 2617 0092 6D050000 		.4byte	.LASF13
 2618 0096 02       		.uleb128 0x2
 2619 0097 08       		.byte	0x8
 2620 0098 04       		.byte	0x4
 2621 0099 4F010000 		.4byte	.LASF14
 2622 009d 02       		.uleb128 0x2
 2623 009e 04       		.byte	0x4
 2624 009f 07       		.byte	0x7
 2625 00a0 1E070000 		.4byte	.LASF15
 2626 00a4 05       		.uleb128 0x5
 2627 00a5 54494800 		.ascii	"TIH\000"
 2628 00a9 01       		.byte	0x1
 2629 00aa 5F       		.byte	0x5f
 2630 00ab 00000000 		.4byte	.LFB64
 2631 00af 08000000 		.4byte	.LFE64-.LFB64
 2632 00b3 01       		.uleb128 0x1
 2633 00b4 9C       		.byte	0x9c
 2634 00b5 C3000000 		.4byte	0xc3
 2635 00b9 06       		.uleb128 0x6
 2636 00ba 06000000 		.4byte	.LVL0
 2637 00be 53230000 		.4byte	0x2353
 2638 00c2 00       		.byte	0
 2639 00c3 07       		.uleb128 0x7
 2640 00c4 7E010000 		.4byte	.LASF16
 2641 00c8 01       		.byte	0x1
 2642 00c9 64       		.byte	0x64
 2643 00ca 00000000 		.4byte	.LFB65
 2644 00ce 24000000 		.4byte	.LFE65-.LFB65
 2645 00d2 01       		.uleb128 0x1
 2646 00d3 9C       		.byte	0x9c
 2647 00d4 00010000 		.4byte	0x100
 2648 00d8 08       		.uleb128 0x8
 2649 00d9 08000000 		.4byte	.LVL1
 2650 00dd 5E230000 		.4byte	0x235e
 2651 00e1 EC000000 		.4byte	0xec
 2652 00e5 09       		.uleb128 0x9
 2653 00e6 01       		.uleb128 0x1
 2654 00e7 50       		.byte	0x50
 2655 00e8 02       		.uleb128 0x2
 2656 00e9 08       		.byte	0x8
 2657 00ea 64       		.byte	0x64
 2658 00eb 00       		.byte	0
 2659 00ec 0A       		.uleb128 0xa
 2660 00ed 14000000 		.4byte	.LVL2
 2661 00f1 69230000 		.4byte	0x2369
 2662 00f5 09       		.uleb128 0x9
 2663 00f6 01       		.uleb128 0x1
 2664 00f7 50       		.byte	0x50
 2665 00f8 05       		.uleb128 0x5
 2666 00f9 03       		.byte	0x3
 2667 00fa 00000000 		.4byte	.LC0
 2668 00fe 00       		.byte	0
 2669 00ff 00       		.byte	0
ARM GAS  C:\Users\jerry\AppData\Local\Temp\cc40088P.s 			page 69


 2670 0100 07       		.uleb128 0x7
 2671 0101 97030000 		.4byte	.LASF17
 2672 0105 01       		.byte	0x1
 2673 0106 73       		.byte	0x73
 2674 0107 00000000 		.4byte	.LFB66
 2675 010b 4C000000 		.4byte	.LFE66-.LFB66
 2676 010f 01       		.uleb128 0x1
 2677 0110 9C       		.byte	0x9c
 2678 0111 DD010000 		.4byte	0x1dd
 2679 0115 06       		.uleb128 0x6
 2680 0116 06000000 		.4byte	.LVL3
 2681 011a 74230000 		.4byte	0x2374
 2682 011e 06       		.uleb128 0x6
 2683 011f 0A000000 		.4byte	.LVL4
 2684 0123 7F230000 		.4byte	0x237f
 2685 0127 06       		.uleb128 0x6
 2686 0128 0E000000 		.4byte	.LVL5
 2687 012c 8A230000 		.4byte	0x238a
 2688 0130 08       		.uleb128 0x8
 2689 0131 1A000000 		.4byte	.LVL6
 2690 0135 95230000 		.4byte	0x2395
 2691 0139 4F010000 		.4byte	0x14f
 2692 013d 09       		.uleb128 0x9
 2693 013e 01       		.uleb128 0x1
 2694 013f 50       		.byte	0x50
 2695 0140 02       		.uleb128 0x2
 2696 0141 09       		.byte	0x9
 2697 0142 EC       		.byte	0xec
 2698 0143 09       		.uleb128 0x9
 2699 0144 01       		.uleb128 0x1
 2700 0145 51       		.byte	0x51
 2701 0146 02       		.uleb128 0x2
 2702 0147 08       		.byte	0x8
 2703 0148 C8       		.byte	0xc8
 2704 0149 09       		.uleb128 0x9
 2705 014a 01       		.uleb128 0x1
 2706 014b 52       		.byte	0x52
 2707 014c 01       		.uleb128 0x1
 2708 014d 31       		.byte	0x31
 2709 014e 00       		.byte	0
 2710 014f 08       		.uleb128 0x8
 2711 0150 24000000 		.4byte	.LVL7
 2712 0154 95230000 		.4byte	0x2395
 2713 0158 6D010000 		.4byte	0x16d
 2714 015c 09       		.uleb128 0x9
 2715 015d 01       		.uleb128 0x1
 2716 015e 50       		.byte	0x50
 2717 015f 01       		.uleb128 0x1
 2718 0160 44       		.byte	0x44
 2719 0161 09       		.uleb128 0x9
 2720 0162 01       		.uleb128 0x1
 2721 0163 51       		.byte	0x51
 2722 0164 02       		.uleb128 0x2
 2723 0165 08       		.byte	0x8
 2724 0166 C8       		.byte	0xc8
 2725 0167 09       		.uleb128 0x9
 2726 0168 01       		.uleb128 0x1
ARM GAS  C:\Users\jerry\AppData\Local\Temp\cc40088P.s 			page 70


 2727 0169 52       		.byte	0x52
 2728 016a 01       		.uleb128 0x1
 2729 016b 31       		.byte	0x31
 2730 016c 00       		.byte	0
 2731 016d 08       		.uleb128 0x8
 2732 016e 2A000000 		.4byte	.LVL8
 2733 0172 A0230000 		.4byte	0x23a0
 2734 0176 80010000 		.4byte	0x180
 2735 017a 09       		.uleb128 0x9
 2736 017b 01       		.uleb128 0x1
 2737 017c 50       		.byte	0x50
 2738 017d 01       		.uleb128 0x1
 2739 017e 31       		.byte	0x31
 2740 017f 00       		.byte	0
 2741 0180 08       		.uleb128 0x8
 2742 0181 30000000 		.4byte	.LVL9
 2743 0185 5E230000 		.4byte	0x235e
 2744 0189 93010000 		.4byte	0x193
 2745 018d 09       		.uleb128 0x9
 2746 018e 01       		.uleb128 0x1
 2747 018f 50       		.byte	0x50
 2748 0190 01       		.uleb128 0x1
 2749 0191 3A       		.byte	0x3a
 2750 0192 00       		.byte	0
 2751 0193 08       		.uleb128 0x8
 2752 0194 36000000 		.4byte	.LVL10
 2753 0198 A0230000 		.4byte	0x23a0
 2754 019c A6010000 		.4byte	0x1a6
 2755 01a0 09       		.uleb128 0x9
 2756 01a1 01       		.uleb128 0x1
 2757 01a2 50       		.byte	0x50
 2758 01a3 01       		.uleb128 0x1
 2759 01a4 30       		.byte	0x30
 2760 01a5 00       		.byte	0
 2761 01a6 06       		.uleb128 0x6
 2762 01a7 3A000000 		.4byte	.LVL11
 2763 01ab AB230000 		.4byte	0x23ab
 2764 01af 08       		.uleb128 0x8
 2765 01b0 40000000 		.4byte	.LVL12
 2766 01b4 B6230000 		.4byte	0x23b6
 2767 01b8 C3010000 		.4byte	0x1c3
 2768 01bc 09       		.uleb128 0x9
 2769 01bd 01       		.uleb128 0x1
 2770 01be 50       		.byte	0x50
 2771 01bf 02       		.uleb128 0x2
 2772 01c0 09       		.byte	0x9
 2773 01c1 C8       		.byte	0xc8
 2774 01c2 00       		.byte	0
 2775 01c3 06       		.uleb128 0x6
 2776 01c4 44000000 		.4byte	.LVL13
 2777 01c8 C1230000 		.4byte	0x23c1
 2778 01cc 0A       		.uleb128 0xa
 2779 01cd 4A000000 		.4byte	.LVL14
 2780 01d1 CC230000 		.4byte	0x23cc
 2781 01d5 09       		.uleb128 0x9
 2782 01d6 01       		.uleb128 0x1
 2783 01d7 50       		.byte	0x50
ARM GAS  C:\Users\jerry\AppData\Local\Temp\cc40088P.s 			page 71


 2784 01d8 02       		.uleb128 0x2
 2785 01d9 09       		.byte	0x9
 2786 01da C8       		.byte	0xc8
 2787 01db 00       		.byte	0
 2788 01dc 00       		.byte	0
 2789 01dd 0B       		.uleb128 0xb
 2790 01de 72050000 		.4byte	.LASF113
 2791 01e2 01       		.byte	0x1
 2792 01e3 85       		.byte	0x85
 2793 01e4 6F000000 		.4byte	0x6f
 2794 01e8 00000000 		.4byte	.LFB67
 2795 01ec 2C0E0000 		.4byte	.LFE67-.LFB67
 2796 01f0 01       		.uleb128 0x1
 2797 01f1 9C       		.byte	0x9c
 2798 01f2 A2200000 		.4byte	0x20a2
 2799 01f6 0C       		.uleb128 0xc
 2800 01f7 16010000 		.4byte	.LBB2
 2801 01fb F2000000 		.4byte	.LBE2-.LBB2
 2802 01ff 12040000 		.4byte	0x412
 2803 0203 0D       		.uleb128 0xd
 2804 0204 2C030000 		.4byte	.LASF18
 2805 0208 01       		.byte	0x1
 2806 0209 1901     		.2byte	0x119
 2807 020b 6F000000 		.4byte	0x6f
 2808 020f 00000000 		.4byte	.LLST0
 2809 0213 0C       		.uleb128 0xc
 2810 0214 78010000 		.4byte	.LBB3
 2811 0218 32000000 		.4byte	.LBE3-.LBB3
 2812 021c 7D020000 		.4byte	0x27d
 2813 0220 0E       		.uleb128 0xe
 2814 0221 6900     		.ascii	"i\000"
 2815 0223 01       		.byte	0x1
 2816 0224 0201     		.2byte	0x102
 2817 0226 6F000000 		.4byte	0x6f
 2818 022a 1F000000 		.4byte	.LLST1
 2819 022e 06       		.uleb128 0x6
 2820 022f 80010000 		.4byte	.LVL70
 2821 0233 D7230000 		.4byte	0x23d7
 2822 0237 08       		.uleb128 0x8
 2823 0238 90010000 		.4byte	.LVL71
 2824 023c 5E230000 		.4byte	0x235e
 2825 0240 4C020000 		.4byte	0x24c
 2826 0244 09       		.uleb128 0x9
 2827 0245 01       		.uleb128 0x1
 2828 0246 50       		.byte	0x50
 2829 0247 03       		.uleb128 0x3
 2830 0248 0A       		.byte	0xa
 2831 0249 F401     		.2byte	0x1f4
 2832 024b 00       		.byte	0
 2833 024c 08       		.uleb128 0x8
 2834 024d 9A010000 		.4byte	.LVL72
 2835 0251 95230000 		.4byte	0x2395
 2836 0255 6B020000 		.4byte	0x26b
 2837 0259 09       		.uleb128 0x9
 2838 025a 01       		.uleb128 0x1
 2839 025b 50       		.byte	0x50
 2840 025c 02       		.uleb128 0x2
ARM GAS  C:\Users\jerry\AppData\Local\Temp\cc40088P.s 			page 72


 2841 025d 08       		.byte	0x8
 2842 025e 3D       		.byte	0x3d
 2843 025f 09       		.uleb128 0x9
 2844 0260 01       		.uleb128 0x1
 2845 0261 51       		.byte	0x51
 2846 0262 02       		.uleb128 0x2
 2847 0263 08       		.byte	0x8
 2848 0264 C8       		.byte	0xc8
 2849 0265 09       		.uleb128 0x9
 2850 0266 01       		.uleb128 0x1
 2851 0267 52       		.byte	0x52
 2852 0268 01       		.uleb128 0x1
 2853 0269 31       		.byte	0x31
 2854 026a 00       		.byte	0
 2855 026b 0A       		.uleb128 0xa
 2856 026c A4010000 		.4byte	.LVL73
 2857 0270 E2230000 		.4byte	0x23e2
 2858 0274 09       		.uleb128 0x9
 2859 0275 01       		.uleb128 0x1
 2860 0276 51       		.byte	0x51
 2861 0277 03       		.uleb128 0x3
 2862 0278 0A       		.byte	0xa
 2863 0279 F401     		.2byte	0x1f4
 2864 027b 00       		.byte	0
 2865 027c 00       		.byte	0
 2866 027d 0C       		.uleb128 0xc
 2867 027e B0010000 		.4byte	.LBB4
 2868 0282 22000000 		.4byte	.LBE4-.LBB4
 2869 0286 C6020000 		.4byte	0x2c6
 2870 028a 0E       		.uleb128 0xe
 2871 028b 6900     		.ascii	"i\000"
 2872 028d 01       		.byte	0x1
 2873 028e 0E01     		.2byte	0x10e
 2874 0290 6F000000 		.4byte	0x6f
 2875 0294 3E000000 		.4byte	.LLST2
 2876 0298 08       		.uleb128 0x8
 2877 0299 C6010000 		.4byte	.LVL78
 2878 029d ED230000 		.4byte	0x23ed
 2879 02a1 B5020000 		.4byte	0x2b5
 2880 02a5 09       		.uleb128 0x9
 2881 02a6 01       		.uleb128 0x1
 2882 02a7 50       		.byte	0x50
 2883 02a8 02       		.uleb128 0x2
 2884 02a9 75       		.byte	0x75
 2885 02aa 00       		.sleb128 0
 2886 02ab 09       		.uleb128 0x9
 2887 02ac 01       		.uleb128 0x1
 2888 02ad 51       		.byte	0x51
 2889 02ae 05       		.uleb128 0x5
 2890 02af 03       		.byte	0x3
 2891 02b0 64000000 		.4byte	.LC4
 2892 02b4 00       		.byte	0
 2893 02b5 0A       		.uleb128 0xa
 2894 02b6 CC010000 		.4byte	.LVL79
 2895 02ba 69230000 		.4byte	0x2369
 2896 02be 09       		.uleb128 0x9
 2897 02bf 01       		.uleb128 0x1
ARM GAS  C:\Users\jerry\AppData\Local\Temp\cc40088P.s 			page 73


 2898 02c0 50       		.byte	0x50
 2899 02c1 02       		.uleb128 0x2
 2900 02c2 75       		.byte	0x75
 2901 02c3 00       		.sleb128 0
 2902 02c4 00       		.byte	0
 2903 02c5 00       		.byte	0
 2904 02c6 0F       		.uleb128 0xf
 2905 02c7 00000000 		.4byte	.Ldebug_ranges0+0
 2906 02cb E0020000 		.4byte	0x2e0
 2907 02cf 0D       		.uleb128 0xd
 2908 02d0 89060000 		.4byte	.LASF19
 2909 02d4 01       		.byte	0x1
 2910 02d5 1C01     		.2byte	0x11c
 2911 02d7 6F000000 		.4byte	0x6f
 2912 02db 5D000000 		.4byte	.LLST3
 2913 02df 00       		.byte	0
 2914 02e0 06       		.uleb128 0x6
 2915 02e1 1A010000 		.4byte	.LVL59
 2916 02e5 F8230000 		.4byte	0x23f8
 2917 02e9 08       		.uleb128 0x8
 2918 02ea 20010000 		.4byte	.LVL60
 2919 02ee 03240000 		.4byte	0x2403
 2920 02f2 FC020000 		.4byte	0x2fc
 2921 02f6 09       		.uleb128 0x9
 2922 02f7 01       		.uleb128 0x1
 2923 02f8 50       		.byte	0x50
 2924 02f9 01       		.uleb128 0x1
 2925 02fa 37       		.byte	0x37
 2926 02fb 00       		.byte	0
 2927 02fc 08       		.uleb128 0x8
 2928 02fd 36010000 		.4byte	.LVL61
 2929 0301 0E240000 		.4byte	0x240e
 2930 0305 2E030000 		.4byte	0x32e
 2931 0309 09       		.uleb128 0x9
 2932 030a 01       		.uleb128 0x1
 2933 030b 50       		.byte	0x50
 2934 030c 02       		.uleb128 0x2
 2935 030d 09       		.byte	0x9
 2936 030e 9C       		.byte	0x9c
 2937 030f 09       		.uleb128 0x9
 2938 0310 01       		.uleb128 0x1
 2939 0311 51       		.byte	0x51
 2940 0312 01       		.uleb128 0x1
 2941 0313 30       		.byte	0x30
 2942 0314 09       		.uleb128 0x9
 2943 0315 01       		.uleb128 0x1
 2944 0316 52       		.byte	0x52
 2945 0317 02       		.uleb128 0x2
 2946 0318 74       		.byte	0x74
 2947 0319 00       		.sleb128 0
 2948 031a 09       		.uleb128 0x9
 2949 031b 01       		.uleb128 0x1
 2950 031c 53       		.byte	0x53
 2951 031d 01       		.uleb128 0x1
 2952 031e 34       		.byte	0x34
 2953 031f 09       		.uleb128 0x9
 2954 0320 02       		.uleb128 0x2
ARM GAS  C:\Users\jerry\AppData\Local\Temp\cc40088P.s 			page 74


 2955 0321 7D       		.byte	0x7d
 2956 0322 00       		.sleb128 0
 2957 0323 02       		.uleb128 0x2
 2958 0324 75       		.byte	0x75
 2959 0325 00       		.sleb128 0
 2960 0326 09       		.uleb128 0x9
 2961 0327 02       		.uleb128 0x2
 2962 0328 7D       		.byte	0x7d
 2963 0329 04       		.sleb128 4
 2964 032a 02       		.uleb128 0x2
 2965 032b 74       		.byte	0x74
 2966 032c 00       		.sleb128 0
 2967 032d 00       		.byte	0
 2968 032e 08       		.uleb128 0x8
 2969 032f 48010000 		.4byte	.LVL62
 2970 0333 0E240000 		.4byte	0x240e
 2971 0337 62030000 		.4byte	0x362
 2972 033b 09       		.uleb128 0x9
 2973 033c 01       		.uleb128 0x1
 2974 033d 50       		.byte	0x50
 2975 033e 03       		.uleb128 0x3
 2976 033f 0A       		.byte	0xa
 2977 0340 9001     		.2byte	0x190
 2978 0342 09       		.uleb128 0x9
 2979 0343 01       		.uleb128 0x1
 2980 0344 51       		.byte	0x51
 2981 0345 02       		.uleb128 0x2
 2982 0346 74       		.byte	0x74
 2983 0347 00       		.sleb128 0
 2984 0348 09       		.uleb128 0x9
 2985 0349 01       		.uleb128 0x1
 2986 034a 52       		.byte	0x52
 2987 034b 02       		.uleb128 0x2
 2988 034c 74       		.byte	0x74
 2989 034d 00       		.sleb128 0
 2990 034e 09       		.uleb128 0x9
 2991 034f 01       		.uleb128 0x1
 2992 0350 53       		.byte	0x53
 2993 0351 01       		.uleb128 0x1
 2994 0352 30       		.byte	0x30
 2995 0353 09       		.uleb128 0x9
 2996 0354 02       		.uleb128 0x2
 2997 0355 7D       		.byte	0x7d
 2998 0356 00       		.sleb128 0
 2999 0357 02       		.uleb128 0x2
 3000 0358 75       		.byte	0x75
 3001 0359 00       		.sleb128 0
 3002 035a 09       		.uleb128 0x9
 3003 035b 02       		.uleb128 0x2
 3004 035c 7D       		.byte	0x7d
 3005 035d 04       		.sleb128 4
 3006 035e 02       		.uleb128 0x2
 3007 035f 74       		.byte	0x74
 3008 0360 00       		.sleb128 0
 3009 0361 00       		.byte	0
 3010 0362 08       		.uleb128 0x8
 3011 0363 52010000 		.4byte	.LVL63
ARM GAS  C:\Users\jerry\AppData\Local\Temp\cc40088P.s 			page 75


 3012 0367 95230000 		.4byte	0x2395
 3013 036b 83030000 		.4byte	0x383
 3014 036f 09       		.uleb128 0x9
 3015 0370 01       		.uleb128 0x1
 3016 0371 50       		.byte	0x50
 3017 0372 03       		.uleb128 0x3
 3018 0373 0B       		.byte	0xb
 3019 0374 3EFE     		.2byte	0xfe3e
 3020 0376 09       		.uleb128 0x9
 3021 0377 01       		.uleb128 0x1
 3022 0378 51       		.byte	0x51
 3023 0379 02       		.uleb128 0x2
 3024 037a 75       		.byte	0x75
 3025 037b 00       		.sleb128 0
 3026 037c 09       		.uleb128 0x9
 3027 037d 01       		.uleb128 0x1
 3028 037e 52       		.byte	0x52
 3029 037f 02       		.uleb128 0x2
 3030 0380 74       		.byte	0x74
 3031 0381 00       		.sleb128 0
 3032 0382 00       		.byte	0
 3033 0383 08       		.uleb128 0x8
 3034 0384 5A010000 		.4byte	.LVL64
 3035 0388 5E230000 		.4byte	0x235e
 3036 038c 98030000 		.4byte	0x398
 3037 0390 09       		.uleb128 0x9
 3038 0391 01       		.uleb128 0x1
 3039 0392 50       		.byte	0x50
 3040 0393 03       		.uleb128 0x3
 3041 0394 0A       		.byte	0xa
 3042 0395 F401     		.2byte	0x1f4
 3043 0397 00       		.byte	0
 3044 0398 06       		.uleb128 0x6
 3045 0399 5E010000 		.4byte	.LVL65
 3046 039d 19240000 		.4byte	0x2419
 3047 03a1 08       		.uleb128 0x8
 3048 03a2 66010000 		.4byte	.LVL66
 3049 03a6 5E230000 		.4byte	0x235e
 3050 03aa B6030000 		.4byte	0x3b6
 3051 03ae 09       		.uleb128 0x9
 3052 03af 01       		.uleb128 0x1
 3053 03b0 50       		.byte	0x50
 3054 03b1 03       		.uleb128 0x3
 3055 03b2 0A       		.byte	0xa
 3056 03b3 F401     		.2byte	0x1f4
 3057 03b5 00       		.byte	0
 3058 03b6 08       		.uleb128 0x8
 3059 03b7 70010000 		.4byte	.LVL67
 3060 03bb 95230000 		.4byte	0x2395
 3061 03bf D6030000 		.4byte	0x3d6
 3062 03c3 09       		.uleb128 0x9
 3063 03c4 01       		.uleb128 0x1
 3064 03c5 50       		.byte	0x50
 3065 03c6 02       		.uleb128 0x2
 3066 03c7 08       		.byte	0x8
 3067 03c8 AA       		.byte	0xaa
 3068 03c9 09       		.uleb128 0x9
ARM GAS  C:\Users\jerry\AppData\Local\Temp\cc40088P.s 			page 76


 3069 03ca 01       		.uleb128 0x1
 3070 03cb 51       		.byte	0x51
 3071 03cc 02       		.uleb128 0x2
 3072 03cd 75       		.byte	0x75
 3073 03ce 00       		.sleb128 0
 3074 03cf 09       		.uleb128 0x9
 3075 03d0 01       		.uleb128 0x1
 3076 03d1 52       		.byte	0x52
 3077 03d2 02       		.uleb128 0x2
 3078 03d3 74       		.byte	0x74
 3079 03d4 00       		.sleb128 0
 3080 03d5 00       		.byte	0
 3081 03d6 08       		.uleb128 0x8
 3082 03d7 78010000 		.4byte	.LVL68
 3083 03db 5E230000 		.4byte	0x235e
 3084 03df EB030000 		.4byte	0x3eb
 3085 03e3 09       		.uleb128 0x9
 3086 03e4 01       		.uleb128 0x1
 3087 03e5 50       		.byte	0x50
 3088 03e6 03       		.uleb128 0x3
 3089 03e7 0A       		.byte	0xa
 3090 03e8 F401     		.2byte	0x1f4
 3091 03ea 00       		.byte	0
 3092 03eb 08       		.uleb128 0x8
 3093 03ec B0010000 		.4byte	.LVL75
 3094 03f0 69230000 		.4byte	0x2369
 3095 03f4 02040000 		.4byte	0x402
 3096 03f8 09       		.uleb128 0x9
 3097 03f9 01       		.uleb128 0x1
 3098 03fa 50       		.byte	0x50
 3099 03fb 05       		.uleb128 0x5
 3100 03fc 03       		.byte	0x3
 3101 03fd 50000000 		.4byte	.LC3
 3102 0401 00       		.byte	0
 3103 0402 0A       		.uleb128 0xa
 3104 0403 D8010000 		.4byte	.LVL81
 3105 0407 24240000 		.4byte	0x2424
 3106 040b 09       		.uleb128 0x9
 3107 040c 01       		.uleb128 0x1
 3108 040d 50       		.byte	0x50
 3109 040e 01       		.uleb128 0x1
 3110 040f 31       		.byte	0x31
 3111 0410 00       		.byte	0
 3112 0411 00       		.byte	0
 3113 0412 0C       		.uleb128 0xc
 3114 0413 12020000 		.4byte	.LBB7
 3115 0417 0E020000 		.4byte	.LBE7-.LBB7
 3116 041b 45080000 		.4byte	0x845
 3117 041f 0D       		.uleb128 0xd
 3118 0420 0C050000 		.4byte	.LASF20
 3119 0424 01       		.byte	0x1
 3120 0425 4401     		.2byte	0x144
 3121 0427 6F000000 		.4byte	0x6f
 3122 042b 7C000000 		.4byte	.LLST4
 3123 042f 06       		.uleb128 0x6
 3124 0430 16020000 		.4byte	.LVL89
 3125 0434 F8230000 		.4byte	0x23f8
ARM GAS  C:\Users\jerry\AppData\Local\Temp\cc40088P.s 			page 77


 3126 0438 08       		.uleb128 0x8
 3127 0439 24020000 		.4byte	.LVL90
 3128 043d 2F240000 		.4byte	0x242f
 3129 0441 57040000 		.4byte	0x457
 3130 0445 09       		.uleb128 0x9
 3131 0446 01       		.uleb128 0x1
 3132 0447 51       		.byte	0x51
 3133 0448 02       		.uleb128 0x2
 3134 0449 09       		.byte	0x9
 3135 044a DD       		.byte	0xdd
 3136 044b 09       		.uleb128 0x9
 3137 044c 01       		.uleb128 0x1
 3138 044d 52       		.byte	0x52
 3139 044e 02       		.uleb128 0x2
 3140 044f 08       		.byte	0x8
 3141 0450 64       		.byte	0x64
 3142 0451 09       		.uleb128 0x9
 3143 0452 01       		.uleb128 0x1
 3144 0453 53       		.byte	0x53
 3145 0454 01       		.uleb128 0x1
 3146 0455 30       		.byte	0x30
 3147 0456 00       		.byte	0
 3148 0457 08       		.uleb128 0x8
 3149 0458 36020000 		.4byte	.LVL91
 3150 045c 0E240000 		.4byte	0x240e
 3151 0460 87040000 		.4byte	0x487
 3152 0464 09       		.uleb128 0x9
 3153 0465 01       		.uleb128 0x1
 3154 0466 50       		.byte	0x50
 3155 0467 02       		.uleb128 0x2
 3156 0468 08       		.byte	0x8
 3157 0469 82       		.byte	0x82
 3158 046a 09       		.uleb128 0x9
 3159 046b 01       		.uleb128 0x1
 3160 046c 51       		.byte	0x51
 3161 046d 01       		.uleb128 0x1
 3162 046e 31       		.byte	0x31
 3163 046f 09       		.uleb128 0x9
 3164 0470 01       		.uleb128 0x1
 3165 0471 52       		.byte	0x52
 3166 0472 01       		.uleb128 0x1
 3167 0473 31       		.byte	0x31
 3168 0474 09       		.uleb128 0x9
 3169 0475 01       		.uleb128 0x1
 3170 0476 53       		.byte	0x53
 3171 0477 01       		.uleb128 0x1
 3172 0478 30       		.byte	0x30
 3173 0479 09       		.uleb128 0x9
 3174 047a 02       		.uleb128 0x2
 3175 047b 7D       		.byte	0x7d
 3176 047c 00       		.sleb128 0
 3177 047d 02       		.uleb128 0x2
 3178 047e 08       		.byte	0x8
 3179 047f C8       		.byte	0xc8
 3180 0480 09       		.uleb128 0x9
 3181 0481 02       		.uleb128 0x2
 3182 0482 7D       		.byte	0x7d
ARM GAS  C:\Users\jerry\AppData\Local\Temp\cc40088P.s 			page 78


 3183 0483 04       		.sleb128 4
 3184 0484 01       		.uleb128 0x1
 3185 0485 31       		.byte	0x31
 3186 0486 00       		.byte	0
 3187 0487 08       		.uleb128 0x8
 3188 0488 3C020000 		.4byte	.LVL92
 3189 048c 03240000 		.4byte	0x2403
 3190 0490 9A040000 		.4byte	0x49a
 3191 0494 09       		.uleb128 0x9
 3192 0495 01       		.uleb128 0x1
 3193 0496 50       		.byte	0x50
 3194 0497 01       		.uleb128 0x1
 3195 0498 37       		.byte	0x37
 3196 0499 00       		.byte	0
 3197 049a 08       		.uleb128 0x8
 3198 049b 42020000 		.4byte	.LVL93
 3199 049f 3A240000 		.4byte	0x243a
 3200 04a3 AD040000 		.4byte	0x4ad
 3201 04a7 09       		.uleb128 0x9
 3202 04a8 01       		.uleb128 0x1
 3203 04a9 50       		.byte	0x50
 3204 04aa 01       		.uleb128 0x1
 3205 04ab 32       		.byte	0x32
 3206 04ac 00       		.byte	0
 3207 04ad 08       		.uleb128 0x8
 3208 04ae 48020000 		.4byte	.LVL94
 3209 04b2 5E230000 		.4byte	0x235e
 3210 04b6 C1040000 		.4byte	0x4c1
 3211 04ba 09       		.uleb128 0x9
 3212 04bb 01       		.uleb128 0x1
 3213 04bc 50       		.byte	0x50
 3214 04bd 02       		.uleb128 0x2
 3215 04be 08       		.byte	0x8
 3216 04bf 32       		.byte	0x32
 3217 04c0 00       		.byte	0
 3218 04c1 08       		.uleb128 0x8
 3219 04c2 82020000 		.4byte	.LVL95
 3220 04c6 3A240000 		.4byte	0x243a
 3221 04ca D4040000 		.4byte	0x4d4
 3222 04ce 09       		.uleb128 0x9
 3223 04cf 01       		.uleb128 0x1
 3224 04d0 50       		.byte	0x50
 3225 04d1 01       		.uleb128 0x1
 3226 04d2 32       		.byte	0x32
 3227 04d3 00       		.byte	0
 3228 04d4 08       		.uleb128 0x8
 3229 04d5 88020000 		.4byte	.LVL96
 3230 04d9 5E230000 		.4byte	0x235e
 3231 04dd E8040000 		.4byte	0x4e8
 3232 04e1 09       		.uleb128 0x9
 3233 04e2 01       		.uleb128 0x1
 3234 04e3 50       		.byte	0x50
 3235 04e4 02       		.uleb128 0x2
 3236 04e5 08       		.byte	0x8
 3237 04e6 32       		.byte	0x32
 3238 04e7 00       		.byte	0
 3239 04e8 08       		.uleb128 0x8
ARM GAS  C:\Users\jerry\AppData\Local\Temp\cc40088P.s 			page 79


 3240 04e9 AC020000 		.4byte	.LVL98
 3241 04ed 0E240000 		.4byte	0x240e
 3242 04f1 1A050000 		.4byte	0x51a
 3243 04f5 09       		.uleb128 0x9
 3244 04f6 01       		.uleb128 0x1
 3245 04f7 50       		.byte	0x50
 3246 04f8 02       		.uleb128 0x2
 3247 04f9 76       		.byte	0x76
 3248 04fa 00       		.sleb128 0
 3249 04fb 09       		.uleb128 0x9
 3250 04fc 01       		.uleb128 0x1
 3251 04fd 51       		.byte	0x51
 3252 04fe 01       		.uleb128 0x1
 3253 04ff 30       		.byte	0x30
 3254 0500 09       		.uleb128 0x9
 3255 0501 01       		.uleb128 0x1
 3256 0502 52       		.byte	0x52
 3257 0503 02       		.uleb128 0x2
 3258 0504 74       		.byte	0x74
 3259 0505 00       		.sleb128 0
 3260 0506 09       		.uleb128 0x9
 3261 0507 01       		.uleb128 0x1
 3262 0508 53       		.byte	0x53
 3263 0509 01       		.uleb128 0x1
 3264 050a 33       		.byte	0x33
 3265 050b 09       		.uleb128 0x9
 3266 050c 02       		.uleb128 0x2
 3267 050d 7D       		.byte	0x7d
 3268 050e 00       		.sleb128 0
 3269 050f 02       		.uleb128 0x2
 3270 0510 75       		.byte	0x75
 3271 0511 00       		.sleb128 0
 3272 0512 09       		.uleb128 0x9
 3273 0513 02       		.uleb128 0x2
 3274 0514 7D       		.byte	0x7d
 3275 0515 04       		.sleb128 4
 3276 0516 02       		.uleb128 0x2
 3277 0517 74       		.byte	0x74
 3278 0518 00       		.sleb128 0
 3279 0519 00       		.byte	0
 3280 051a 08       		.uleb128 0x8
 3281 051b B6020000 		.4byte	.LVL99
 3282 051f E2230000 		.4byte	0x23e2
 3283 0523 34050000 		.4byte	0x534
 3284 0527 09       		.uleb128 0x9
 3285 0528 01       		.uleb128 0x1
 3286 0529 50       		.byte	0x50
 3287 052a 01       		.uleb128 0x1
 3288 052b 32       		.byte	0x32
 3289 052c 09       		.uleb128 0x9
 3290 052d 01       		.uleb128 0x1
 3291 052e 51       		.byte	0x51
 3292 052f 03       		.uleb128 0x3
 3293 0530 0A       		.byte	0xa
 3294 0531 E803     		.2byte	0x3e8
 3295 0533 00       		.byte	0
 3296 0534 08       		.uleb128 0x8
ARM GAS  C:\Users\jerry\AppData\Local\Temp\cc40088P.s 			page 80


 3297 0535 BC020000 		.4byte	.LVL100
 3298 0539 3A240000 		.4byte	0x243a
 3299 053d 47050000 		.4byte	0x547
 3300 0541 09       		.uleb128 0x9
 3301 0542 01       		.uleb128 0x1
 3302 0543 50       		.byte	0x50
 3303 0544 01       		.uleb128 0x1
 3304 0545 30       		.byte	0x30
 3305 0546 00       		.byte	0
 3306 0547 08       		.uleb128 0x8
 3307 0548 C2020000 		.4byte	.LVL101
 3308 054c 5E230000 		.4byte	0x235e
 3309 0550 5B050000 		.4byte	0x55b
 3310 0554 09       		.uleb128 0x9
 3311 0555 01       		.uleb128 0x1
 3312 0556 50       		.byte	0x50
 3313 0557 02       		.uleb128 0x2
 3314 0558 08       		.byte	0x8
 3315 0559 3C       		.byte	0x3c
 3316 055a 00       		.byte	0
 3317 055b 08       		.uleb128 0x8
 3318 055c E0020000 		.4byte	.LVL102
 3319 0560 ED230000 		.4byte	0x23ed
 3320 0564 78050000 		.4byte	0x578
 3321 0568 09       		.uleb128 0x9
 3322 0569 01       		.uleb128 0x1
 3323 056a 50       		.byte	0x50
 3324 056b 02       		.uleb128 0x2
 3325 056c 77       		.byte	0x77
 3326 056d 00       		.sleb128 0
 3327 056e 09       		.uleb128 0x9
 3328 056f 01       		.uleb128 0x1
 3329 0570 51       		.byte	0x51
 3330 0571 05       		.uleb128 0x5
 3331 0572 03       		.byte	0x3
 3332 0573 6C000000 		.4byte	.LC5
 3333 0577 00       		.byte	0
 3334 0578 08       		.uleb128 0x8
 3335 0579 E6020000 		.4byte	.LVL103
 3336 057d 69230000 		.4byte	0x2369
 3337 0581 8C050000 		.4byte	0x58c
 3338 0585 09       		.uleb128 0x9
 3339 0586 01       		.uleb128 0x1
 3340 0587 50       		.byte	0x50
 3341 0588 02       		.uleb128 0x2
 3342 0589 77       		.byte	0x77
 3343 058a 00       		.sleb128 0
 3344 058b 00       		.byte	0
 3345 058c 08       		.uleb128 0x8
 3346 058d F2020000 		.4byte	.LVL104
 3347 0591 95230000 		.4byte	0x2395
 3348 0595 AC050000 		.4byte	0x5ac
 3349 0599 09       		.uleb128 0x9
 3350 059a 01       		.uleb128 0x1
 3351 059b 50       		.byte	0x50
 3352 059c 02       		.uleb128 0x2
 3353 059d 09       		.byte	0x9
ARM GAS  C:\Users\jerry\AppData\Local\Temp\cc40088P.s 			page 81


 3354 059e D3       		.byte	0xd3
 3355 059f 09       		.uleb128 0x9
 3356 05a0 01       		.uleb128 0x1
 3357 05a1 51       		.byte	0x51
 3358 05a2 02       		.uleb128 0x2
 3359 05a3 75       		.byte	0x75
 3360 05a4 00       		.sleb128 0
 3361 05a5 09       		.uleb128 0x9
 3362 05a6 01       		.uleb128 0x1
 3363 05a7 52       		.byte	0x52
 3364 05a8 02       		.uleb128 0x2
 3365 05a9 74       		.byte	0x74
 3366 05aa 00       		.sleb128 0
 3367 05ab 00       		.byte	0
 3368 05ac 08       		.uleb128 0x8
 3369 05ad 04030000 		.4byte	.LVL105
 3370 05b1 0E240000 		.4byte	0x240e
 3371 05b5 DE050000 		.4byte	0x5de
 3372 05b9 09       		.uleb128 0x9
 3373 05ba 01       		.uleb128 0x1
 3374 05bb 50       		.byte	0x50
 3375 05bc 02       		.uleb128 0x2
 3376 05bd 76       		.byte	0x76
 3377 05be 00       		.sleb128 0
 3378 05bf 09       		.uleb128 0x9
 3379 05c0 01       		.uleb128 0x1
 3380 05c1 51       		.byte	0x51
 3381 05c2 01       		.uleb128 0x1
 3382 05c3 30       		.byte	0x30
 3383 05c4 09       		.uleb128 0x9
 3384 05c5 01       		.uleb128 0x1
 3385 05c6 52       		.byte	0x52
 3386 05c7 02       		.uleb128 0x2
 3387 05c8 09       		.byte	0x9
 3388 05c9 FF       		.byte	0xff
 3389 05ca 09       		.uleb128 0x9
 3390 05cb 01       		.uleb128 0x1
 3391 05cc 53       		.byte	0x53
 3392 05cd 01       		.uleb128 0x1
 3393 05ce 33       		.byte	0x33
 3394 05cf 09       		.uleb128 0x9
 3395 05d0 02       		.uleb128 0x2
 3396 05d1 7D       		.byte	0x7d
 3397 05d2 00       		.sleb128 0
 3398 05d3 02       		.uleb128 0x2
 3399 05d4 75       		.byte	0x75
 3400 05d5 00       		.sleb128 0
 3401 05d6 09       		.uleb128 0x9
 3402 05d7 02       		.uleb128 0x2
 3403 05d8 7D       		.byte	0x7d
 3404 05d9 04       		.sleb128 4
 3405 05da 02       		.uleb128 0x2
 3406 05db 74       		.byte	0x74
 3407 05dc 00       		.sleb128 0
 3408 05dd 00       		.byte	0
 3409 05de 08       		.uleb128 0x8
 3410 05df 0E030000 		.4byte	.LVL106
ARM GAS  C:\Users\jerry\AppData\Local\Temp\cc40088P.s 			page 82


 3411 05e3 E2230000 		.4byte	0x23e2
 3412 05e7 F8050000 		.4byte	0x5f8
 3413 05eb 09       		.uleb128 0x9
 3414 05ec 01       		.uleb128 0x1
 3415 05ed 50       		.byte	0x50
 3416 05ee 01       		.uleb128 0x1
 3417 05ef 32       		.byte	0x32
 3418 05f0 09       		.uleb128 0x9
 3419 05f1 01       		.uleb128 0x1
 3420 05f2 51       		.byte	0x51
 3421 05f3 03       		.uleb128 0x3
 3422 05f4 0A       		.byte	0xa
 3423 05f5 E803     		.2byte	0x3e8
 3424 05f7 00       		.byte	0
 3425 05f8 08       		.uleb128 0x8
 3426 05f9 14030000 		.4byte	.LVL107
 3427 05fd 3A240000 		.4byte	0x243a
 3428 0601 0B060000 		.4byte	0x60b
 3429 0605 09       		.uleb128 0x9
 3430 0606 01       		.uleb128 0x1
 3431 0607 50       		.byte	0x50
 3432 0608 01       		.uleb128 0x1
 3433 0609 34       		.byte	0x34
 3434 060a 00       		.byte	0
 3435 060b 08       		.uleb128 0x8
 3436 060c 1A030000 		.4byte	.LVL108
 3437 0610 5E230000 		.4byte	0x235e
 3438 0614 1F060000 		.4byte	0x61f
 3439 0618 09       		.uleb128 0x9
 3440 0619 01       		.uleb128 0x1
 3441 061a 50       		.byte	0x50
 3442 061b 02       		.uleb128 0x2
 3443 061c 08       		.byte	0x8
 3444 061d 32       		.byte	0x32
 3445 061e 00       		.byte	0
 3446 061f 08       		.uleb128 0x8
 3447 0620 30030000 		.4byte	.LVL109
 3448 0624 ED230000 		.4byte	0x23ed
 3449 0628 3C060000 		.4byte	0x63c
 3450 062c 09       		.uleb128 0x9
 3451 062d 01       		.uleb128 0x1
 3452 062e 50       		.byte	0x50
 3453 062f 02       		.uleb128 0x2
 3454 0630 77       		.byte	0x77
 3455 0631 00       		.sleb128 0
 3456 0632 09       		.uleb128 0x9
 3457 0633 01       		.uleb128 0x1
 3458 0634 51       		.byte	0x51
 3459 0635 05       		.uleb128 0x5
 3460 0636 03       		.byte	0x3
 3461 0637 8C000000 		.4byte	.LC6
 3462 063b 00       		.byte	0
 3463 063c 08       		.uleb128 0x8
 3464 063d 36030000 		.4byte	.LVL110
 3465 0641 69230000 		.4byte	0x2369
 3466 0645 50060000 		.4byte	0x650
 3467 0649 09       		.uleb128 0x9
ARM GAS  C:\Users\jerry\AppData\Local\Temp\cc40088P.s 			page 83


 3468 064a 01       		.uleb128 0x1
 3469 064b 50       		.byte	0x50
 3470 064c 02       		.uleb128 0x2
 3471 064d 77       		.byte	0x77
 3472 064e 00       		.sleb128 0
 3473 064f 00       		.byte	0
 3474 0650 08       		.uleb128 0x8
 3475 0651 42030000 		.4byte	.LVL111
 3476 0655 95230000 		.4byte	0x2395
 3477 0659 70060000 		.4byte	0x670
 3478 065d 09       		.uleb128 0x9
 3479 065e 01       		.uleb128 0x1
 3480 065f 50       		.byte	0x50
 3481 0660 02       		.uleb128 0x2
 3482 0661 09       		.byte	0x9
 3483 0662 9C       		.byte	0x9c
 3484 0663 09       		.uleb128 0x9
 3485 0664 01       		.uleb128 0x1
 3486 0665 51       		.byte	0x51
 3487 0666 02       		.uleb128 0x2
 3488 0667 75       		.byte	0x75
 3489 0668 00       		.sleb128 0
 3490 0669 09       		.uleb128 0x9
 3491 066a 01       		.uleb128 0x1
 3492 066b 52       		.byte	0x52
 3493 066c 02       		.uleb128 0x2
 3494 066d 74       		.byte	0x74
 3495 066e 00       		.sleb128 0
 3496 066f 00       		.byte	0
 3497 0670 08       		.uleb128 0x8
 3498 0671 4A030000 		.4byte	.LVL112
 3499 0675 45240000 		.4byte	0x2445
 3500 0679 8A060000 		.4byte	0x68a
 3501 067d 09       		.uleb128 0x9
 3502 067e 01       		.uleb128 0x1
 3503 067f 50       		.byte	0x50
 3504 0680 02       		.uleb128 0x2
 3505 0681 74       		.byte	0x74
 3506 0682 00       		.sleb128 0
 3507 0683 09       		.uleb128 0x9
 3508 0684 01       		.uleb128 0x1
 3509 0685 51       		.byte	0x51
 3510 0686 02       		.uleb128 0x2
 3511 0687 75       		.byte	0x75
 3512 0688 00       		.sleb128 0
 3513 0689 00       		.byte	0
 3514 068a 08       		.uleb128 0x8
 3515 068b 5A030000 		.4byte	.LVL113
 3516 068f 0E240000 		.4byte	0x240e
 3517 0693 BD060000 		.4byte	0x6bd
 3518 0697 09       		.uleb128 0x9
 3519 0698 01       		.uleb128 0x1
 3520 0699 50       		.byte	0x50
 3521 069a 02       		.uleb128 0x2
 3522 069b 08       		.byte	0x8
 3523 069c AC       		.byte	0xac
 3524 069d 09       		.uleb128 0x9
ARM GAS  C:\Users\jerry\AppData\Local\Temp\cc40088P.s 			page 84


 3525 069e 01       		.uleb128 0x1
 3526 069f 51       		.byte	0x51
 3527 06a0 02       		.uleb128 0x2
 3528 06a1 74       		.byte	0x74
 3529 06a2 00       		.sleb128 0
 3530 06a3 09       		.uleb128 0x9
 3531 06a4 01       		.uleb128 0x1
 3532 06a5 52       		.byte	0x52
 3533 06a6 02       		.uleb128 0x2
 3534 06a7 74       		.byte	0x74
 3535 06a8 00       		.sleb128 0
 3536 06a9 09       		.uleb128 0x9
 3537 06aa 01       		.uleb128 0x1
 3538 06ab 53       		.byte	0x53
 3539 06ac 01       		.uleb128 0x1
 3540 06ad 30       		.byte	0x30
 3541 06ae 09       		.uleb128 0x9
 3542 06af 02       		.uleb128 0x2
 3543 06b0 7D       		.byte	0x7d
 3544 06b1 00       		.sleb128 0
 3545 06b2 02       		.uleb128 0x2
 3546 06b3 75       		.byte	0x75
 3547 06b4 00       		.sleb128 0
 3548 06b5 09       		.uleb128 0x9
 3549 06b6 02       		.uleb128 0x2
 3550 06b7 7D       		.byte	0x7d
 3551 06b8 04       		.sleb128 4
 3552 06b9 02       		.uleb128 0x2
 3553 06ba 74       		.byte	0x74
 3554 06bb 00       		.sleb128 0
 3555 06bc 00       		.byte	0
 3556 06bd 08       		.uleb128 0x8
 3557 06be 62030000 		.4byte	.LVL114
 3558 06c2 45240000 		.4byte	0x2445
 3559 06c6 D6060000 		.4byte	0x6d6
 3560 06ca 09       		.uleb128 0x9
 3561 06cb 01       		.uleb128 0x1
 3562 06cc 50       		.byte	0x50
 3563 06cd 01       		.uleb128 0x1
 3564 06ce 32       		.byte	0x32
 3565 06cf 09       		.uleb128 0x9
 3566 06d0 01       		.uleb128 0x1
 3567 06d1 51       		.byte	0x51
 3568 06d2 02       		.uleb128 0x2
 3569 06d3 75       		.byte	0x75
 3570 06d4 00       		.sleb128 0
 3571 06d5 00       		.byte	0
 3572 06d6 08       		.uleb128 0x8
 3573 06d7 74030000 		.4byte	.LVL115
 3574 06db 0E240000 		.4byte	0x240e
 3575 06df 08070000 		.4byte	0x708
 3576 06e3 09       		.uleb128 0x9
 3577 06e4 01       		.uleb128 0x1
 3578 06e5 50       		.byte	0x50
 3579 06e6 02       		.uleb128 0x2
 3580 06e7 08       		.byte	0x8
 3581 06e8 AC       		.byte	0xac
ARM GAS  C:\Users\jerry\AppData\Local\Temp\cc40088P.s 			page 85


 3582 06e9 09       		.uleb128 0x9
 3583 06ea 01       		.uleb128 0x1
 3584 06eb 51       		.byte	0x51
 3585 06ec 01       		.uleb128 0x1
 3586 06ed 30       		.byte	0x30
 3587 06ee 09       		.uleb128 0x9
 3588 06ef 01       		.uleb128 0x1
 3589 06f0 52       		.byte	0x52
 3590 06f1 02       		.uleb128 0x2
 3591 06f2 09       		.byte	0x9
 3592 06f3 FF       		.byte	0xff
 3593 06f4 09       		.uleb128 0x9
 3594 06f5 01       		.uleb128 0x1
 3595 06f6 53       		.byte	0x53
 3596 06f7 01       		.uleb128 0x1
 3597 06f8 30       		.byte	0x30
 3598 06f9 09       		.uleb128 0x9
 3599 06fa 02       		.uleb128 0x2
 3600 06fb 7D       		.byte	0x7d
 3601 06fc 00       		.sleb128 0
 3602 06fd 02       		.uleb128 0x2
 3603 06fe 75       		.byte	0x75
 3604 06ff 00       		.sleb128 0
 3605 0700 09       		.uleb128 0x9
 3606 0701 02       		.uleb128 0x2
 3607 0702 7D       		.byte	0x7d
 3608 0703 04       		.sleb128 4
 3609 0704 02       		.uleb128 0x2
 3610 0705 74       		.byte	0x74
 3611 0706 00       		.sleb128 0
 3612 0707 00       		.byte	0
 3613 0708 08       		.uleb128 0x8
 3614 0709 7C030000 		.4byte	.LVL116
 3615 070d 45240000 		.4byte	0x2445
 3616 0711 22070000 		.4byte	0x722
 3617 0715 09       		.uleb128 0x9
 3618 0716 01       		.uleb128 0x1
 3619 0717 50       		.byte	0x50
 3620 0718 02       		.uleb128 0x2
 3621 0719 74       		.byte	0x74
 3622 071a 00       		.sleb128 0
 3623 071b 09       		.uleb128 0x9
 3624 071c 01       		.uleb128 0x1
 3625 071d 51       		.byte	0x51
 3626 071e 02       		.uleb128 0x2
 3627 071f 75       		.byte	0x75
 3628 0720 00       		.sleb128 0
 3629 0721 00       		.byte	0
 3630 0722 08       		.uleb128 0x8
 3631 0723 C0030000 		.4byte	.LVL117
 3632 0727 ED230000 		.4byte	0x23ed
 3633 072b 3F070000 		.4byte	0x73f
 3634 072f 09       		.uleb128 0x9
 3635 0730 01       		.uleb128 0x1
 3636 0731 50       		.byte	0x50
 3637 0732 02       		.uleb128 0x2
 3638 0733 77       		.byte	0x77
ARM GAS  C:\Users\jerry\AppData\Local\Temp\cc40088P.s 			page 86


 3639 0734 00       		.sleb128 0
 3640 0735 09       		.uleb128 0x9
 3641 0736 01       		.uleb128 0x1
 3642 0737 51       		.byte	0x51
 3643 0738 05       		.uleb128 0x5
 3644 0739 03       		.byte	0x3
 3645 073a AC000000 		.4byte	.LC7
 3646 073e 00       		.byte	0
 3647 073f 08       		.uleb128 0x8
 3648 0740 C6030000 		.4byte	.LVL118
 3649 0744 69230000 		.4byte	0x2369
 3650 0748 53070000 		.4byte	0x753
 3651 074c 09       		.uleb128 0x9
 3652 074d 01       		.uleb128 0x1
 3653 074e 50       		.byte	0x50
 3654 074f 02       		.uleb128 0x2
 3655 0750 77       		.byte	0x77
 3656 0751 00       		.sleb128 0
 3657 0752 00       		.byte	0
 3658 0753 08       		.uleb128 0x8
 3659 0754 D2030000 		.4byte	.LVL119
 3660 0758 ED230000 		.4byte	0x23ed
 3661 075c 70070000 		.4byte	0x770
 3662 0760 09       		.uleb128 0x9
 3663 0761 01       		.uleb128 0x1
 3664 0762 50       		.byte	0x50
 3665 0763 02       		.uleb128 0x2
 3666 0764 77       		.byte	0x77
 3667 0765 00       		.sleb128 0
 3668 0766 09       		.uleb128 0x9
 3669 0767 01       		.uleb128 0x1
 3670 0768 51       		.byte	0x51
 3671 0769 05       		.uleb128 0x5
 3672 076a 03       		.byte	0x3
 3673 076b C8000000 		.4byte	.LC8
 3674 076f 00       		.byte	0
 3675 0770 08       		.uleb128 0x8
 3676 0771 D8030000 		.4byte	.LVL120
 3677 0775 69230000 		.4byte	0x2369
 3678 0779 84070000 		.4byte	0x784
 3679 077d 09       		.uleb128 0x9
 3680 077e 01       		.uleb128 0x1
 3681 077f 50       		.byte	0x50
 3682 0780 02       		.uleb128 0x2
 3683 0781 77       		.byte	0x77
 3684 0782 00       		.sleb128 0
 3685 0783 00       		.byte	0
 3686 0784 08       		.uleb128 0x8
 3687 0785 E4030000 		.4byte	.LVL121
 3688 0789 ED230000 		.4byte	0x23ed
 3689 078d A1070000 		.4byte	0x7a1
 3690 0791 09       		.uleb128 0x9
 3691 0792 01       		.uleb128 0x1
 3692 0793 50       		.byte	0x50
 3693 0794 02       		.uleb128 0x2
 3694 0795 77       		.byte	0x77
 3695 0796 00       		.sleb128 0
ARM GAS  C:\Users\jerry\AppData\Local\Temp\cc40088P.s 			page 87


 3696 0797 09       		.uleb128 0x9
 3697 0798 01       		.uleb128 0x1
 3698 0799 51       		.byte	0x51
 3699 079a 05       		.uleb128 0x5
 3700 079b 03       		.byte	0x3
 3701 079c E4000000 		.4byte	.LC9
 3702 07a0 00       		.byte	0
 3703 07a1 08       		.uleb128 0x8
 3704 07a2 EA030000 		.4byte	.LVL122
 3705 07a6 69230000 		.4byte	0x2369
 3706 07aa B5070000 		.4byte	0x7b5
 3707 07ae 09       		.uleb128 0x9
 3708 07af 01       		.uleb128 0x1
 3709 07b0 50       		.byte	0x50
 3710 07b1 02       		.uleb128 0x2
 3711 07b2 77       		.byte	0x77
 3712 07b3 00       		.sleb128 0
 3713 07b4 00       		.byte	0
 3714 07b5 08       		.uleb128 0x8
 3715 07b6 F6030000 		.4byte	.LVL123
 3716 07ba ED230000 		.4byte	0x23ed
 3717 07be D2070000 		.4byte	0x7d2
 3718 07c2 09       		.uleb128 0x9
 3719 07c3 01       		.uleb128 0x1
 3720 07c4 50       		.byte	0x50
 3721 07c5 02       		.uleb128 0x2
 3722 07c6 77       		.byte	0x77
 3723 07c7 00       		.sleb128 0
 3724 07c8 09       		.uleb128 0x9
 3725 07c9 01       		.uleb128 0x1
 3726 07ca 51       		.byte	0x51
 3727 07cb 05       		.uleb128 0x5
 3728 07cc 03       		.byte	0x3
 3729 07cd 00010000 		.4byte	.LC10
 3730 07d1 00       		.byte	0
 3731 07d2 08       		.uleb128 0x8
 3732 07d3 FC030000 		.4byte	.LVL124
 3733 07d7 69230000 		.4byte	0x2369
 3734 07db E6070000 		.4byte	0x7e6
 3735 07df 09       		.uleb128 0x9
 3736 07e0 01       		.uleb128 0x1
 3737 07e1 50       		.byte	0x50
 3738 07e2 02       		.uleb128 0x2
 3739 07e3 77       		.byte	0x77
 3740 07e4 00       		.sleb128 0
 3741 07e5 00       		.byte	0
 3742 07e6 08       		.uleb128 0x8
 3743 07e7 06040000 		.4byte	.LVL125
 3744 07eb ED230000 		.4byte	0x23ed
 3745 07ef 03080000 		.4byte	0x803
 3746 07f3 09       		.uleb128 0x9
 3747 07f4 01       		.uleb128 0x1
 3748 07f5 50       		.byte	0x50
 3749 07f6 02       		.uleb128 0x2
 3750 07f7 77       		.byte	0x77
 3751 07f8 00       		.sleb128 0
 3752 07f9 09       		.uleb128 0x9
ARM GAS  C:\Users\jerry\AppData\Local\Temp\cc40088P.s 			page 88


 3753 07fa 01       		.uleb128 0x1
 3754 07fb 51       		.byte	0x51
 3755 07fc 05       		.uleb128 0x5
 3756 07fd 03       		.byte	0x3
 3757 07fe 1C010000 		.4byte	.LC11
 3758 0802 00       		.byte	0
 3759 0803 08       		.uleb128 0x8
 3760 0804 0C040000 		.4byte	.LVL126
 3761 0808 69230000 		.4byte	0x2369
 3762 080c 17080000 		.4byte	0x817
 3763 0810 09       		.uleb128 0x9
 3764 0811 01       		.uleb128 0x1
 3765 0812 50       		.byte	0x50
 3766 0813 02       		.uleb128 0x2
 3767 0814 77       		.byte	0x77
 3768 0815 00       		.sleb128 0
 3769 0816 00       		.byte	0
 3770 0817 08       		.uleb128 0x8
 3771 0818 16040000 		.4byte	.LVL127
 3772 081c ED230000 		.4byte	0x23ed
 3773 0820 34080000 		.4byte	0x834
 3774 0824 09       		.uleb128 0x9
 3775 0825 01       		.uleb128 0x1
 3776 0826 50       		.byte	0x50
 3777 0827 02       		.uleb128 0x2
 3778 0828 77       		.byte	0x77
 3779 0829 00       		.sleb128 0
 3780 082a 09       		.uleb128 0x9
 3781 082b 01       		.uleb128 0x1
 3782 082c 51       		.byte	0x51
 3783 082d 05       		.uleb128 0x5
 3784 082e 03       		.byte	0x3
 3785 082f 38010000 		.4byte	.LC12
 3786 0833 00       		.byte	0
 3787 0834 0A       		.uleb128 0xa
 3788 0835 1C040000 		.4byte	.LVL128
 3789 0839 69230000 		.4byte	0x2369
 3790 083d 09       		.uleb128 0x9
 3791 083e 01       		.uleb128 0x1
 3792 083f 50       		.byte	0x50
 3793 0840 02       		.uleb128 0x2
 3794 0841 77       		.byte	0x77
 3795 0842 00       		.sleb128 0
 3796 0843 00       		.byte	0
 3797 0844 00       		.byte	0
 3798 0845 0C       		.uleb128 0xc
 3799 0846 EE090000 		.4byte	.LBB8
 3800 084a 34000000 		.4byte	.LBE8-.LBB8
 3801 084e D8080000 		.4byte	0x8d8
 3802 0852 0D       		.uleb128 0xd
 3803 0853 4E020000 		.4byte	.LASF21
 3804 0857 01       		.byte	0x1
 3805 0858 1203     		.2byte	0x312
 3806 085a 6F000000 		.4byte	0x6f
 3807 085e 8F000000 		.4byte	.LLST5
 3808 0862 10       		.uleb128 0x10
 3809 0863 EC060000 		.4byte	.LASF114
ARM GAS  C:\Users\jerry\AppData\Local\Temp\cc40088P.s 			page 89


 3810 0867 01       		.byte	0x1
 3811 0868 1303     		.2byte	0x313
 3812 086a 6F000000 		.4byte	0x6f
 3813 086e 08       		.uleb128 0x8
 3814 086f FC090000 		.4byte	.LVL230
 3815 0873 50240000 		.4byte	0x2450
 3816 0877 86080000 		.4byte	0x886
 3817 087b 09       		.uleb128 0x9
 3818 087c 01       		.uleb128 0x1
 3819 087d 50       		.byte	0x50
 3820 087e 01       		.uleb128 0x1
 3821 087f 30       		.byte	0x30
 3822 0880 09       		.uleb128 0x9
 3823 0881 01       		.uleb128 0x1
 3824 0882 51       		.byte	0x51
 3825 0883 01       		.uleb128 0x1
 3826 0884 32       		.byte	0x32
 3827 0885 00       		.byte	0
 3828 0886 08       		.uleb128 0x8
 3829 0887 020A0000 		.4byte	.LVL231
 3830 088b 5B240000 		.4byte	0x245b
 3831 088f 99080000 		.4byte	0x899
 3832 0893 09       		.uleb128 0x9
 3833 0894 01       		.uleb128 0x1
 3834 0895 50       		.byte	0x50
 3835 0896 01       		.uleb128 0x1
 3836 0897 35       		.byte	0x35
 3837 0898 00       		.byte	0
 3838 0899 06       		.uleb128 0x6
 3839 089a 060A0000 		.4byte	.LVL232
 3840 089e 66240000 		.4byte	0x2466
 3841 08a2 08       		.uleb128 0x8
 3842 08a3 0E0A0000 		.4byte	.LVL233
 3843 08a7 50240000 		.4byte	0x2450
 3844 08ab BB080000 		.4byte	0x8bb
 3845 08af 09       		.uleb128 0x9
 3846 08b0 01       		.uleb128 0x1
 3847 08b1 50       		.byte	0x50
 3848 08b2 01       		.uleb128 0x1
 3849 08b3 33       		.byte	0x33
 3850 08b4 09       		.uleb128 0x9
 3851 08b5 01       		.uleb128 0x1
 3852 08b6 51       		.byte	0x51
 3853 08b7 02       		.uleb128 0x2
 3854 08b8 75       		.byte	0x75
 3855 08b9 00       		.sleb128 0
 3856 08ba 00       		.byte	0
 3857 08bb 0A       		.uleb128 0xa
 3858 08bc 1A0A0000 		.4byte	.LVL234
 3859 08c0 95230000 		.4byte	0x2395
 3860 08c4 09       		.uleb128 0x9
 3861 08c5 01       		.uleb128 0x1
 3862 08c6 50       		.byte	0x50
 3863 08c7 02       		.uleb128 0x2
 3864 08c8 09       		.byte	0x9
 3865 08c9 C4       		.byte	0xc4
 3866 08ca 09       		.uleb128 0x9
ARM GAS  C:\Users\jerry\AppData\Local\Temp\cc40088P.s 			page 90


 3867 08cb 01       		.uleb128 0x1
 3868 08cc 51       		.byte	0x51
 3869 08cd 02       		.uleb128 0x2
 3870 08ce 08       		.byte	0x8
 3871 08cf 46       		.byte	0x46
 3872 08d0 09       		.uleb128 0x9
 3873 08d1 01       		.uleb128 0x1
 3874 08d2 52       		.byte	0x52
 3875 08d3 02       		.uleb128 0x2
 3876 08d4 75       		.byte	0x75
 3877 08d5 00       		.sleb128 0
 3878 08d6 00       		.byte	0
 3879 08d7 00       		.byte	0
 3880 08d8 0C       		.uleb128 0xc
 3881 08d9 340C0000 		.4byte	.LBB9
 3882 08dd 82010000 		.4byte	.LBE9-.LBB9
 3883 08e1 800C0000 		.4byte	0xc80
 3884 08e5 0D       		.uleb128 0xd
 3885 08e6 CE060000 		.4byte	.LASF22
 3886 08ea 01       		.byte	0x1
 3887 08eb D203     		.2byte	0x3d2
 3888 08ed 6F000000 		.4byte	0x6f
 3889 08f1 A3000000 		.4byte	.LLST6
 3890 08f5 08       		.uleb128 0x8
 3891 08f6 3A0C0000 		.4byte	.LVL280
 3892 08fa 24240000 		.4byte	0x2424
 3893 08fe 08090000 		.4byte	0x908
 3894 0902 09       		.uleb128 0x9
 3895 0903 01       		.uleb128 0x1
 3896 0904 50       		.byte	0x50
 3897 0905 01       		.uleb128 0x1
 3898 0906 31       		.byte	0x31
 3899 0907 00       		.byte	0
 3900 0908 06       		.uleb128 0x6
 3901 0909 440C0000 		.4byte	.LVL281
 3902 090d D7230000 		.4byte	0x23d7
 3903 0911 08       		.uleb128 0x8
 3904 0912 640C0000 		.4byte	.LVL284
 3905 0916 71240000 		.4byte	0x2471
 3906 091a 37090000 		.4byte	0x937
 3907 091e 09       		.uleb128 0x9
 3908 091f 01       		.uleb128 0x1
 3909 0920 50       		.byte	0x50
 3910 0921 02       		.uleb128 0x2
 3911 0922 08       		.byte	0x8
 3912 0923 8C       		.byte	0x8c
 3913 0924 09       		.uleb128 0x9
 3914 0925 01       		.uleb128 0x1
 3915 0926 51       		.byte	0x51
 3916 0927 03       		.uleb128 0x3
 3917 0928 F5       		.byte	0xf5
 3918 0929 06       		.uleb128 0x6
 3919 092a 25       		.uleb128 0x25
 3920 092b 09       		.uleb128 0x9
 3921 092c 01       		.uleb128 0x1
 3922 092d 52       		.byte	0x52
 3923 092e 01       		.uleb128 0x1
ARM GAS  C:\Users\jerry\AppData\Local\Temp\cc40088P.s 			page 91


 3924 092f 32       		.byte	0x32
 3925 0930 09       		.uleb128 0x9
 3926 0931 01       		.uleb128 0x1
 3927 0932 53       		.byte	0x53
 3928 0933 02       		.uleb128 0x2
 3929 0934 09       		.byte	0x9
 3930 0935 FF       		.byte	0xff
 3931 0936 00       		.byte	0
 3932 0937 08       		.uleb128 0x8
 3933 0938 6C0C0000 		.4byte	.LVL285
 3934 093c 45240000 		.4byte	0x2445
 3935 0940 50090000 		.4byte	0x950
 3936 0944 09       		.uleb128 0x9
 3937 0945 01       		.uleb128 0x1
 3938 0946 50       		.byte	0x50
 3939 0947 01       		.uleb128 0x1
 3940 0948 32       		.byte	0x32
 3941 0949 09       		.uleb128 0x9
 3942 094a 01       		.uleb128 0x1
 3943 094b 51       		.byte	0x51
 3944 094c 02       		.uleb128 0x2
 3945 094d 08       		.byte	0x8
 3946 094e C8       		.byte	0xc8
 3947 094f 00       		.byte	0
 3948 0950 08       		.uleb128 0x8
 3949 0951 7C0C0000 		.4byte	.LVL286
 3950 0955 7C240000 		.4byte	0x247c
 3951 0959 7C090000 		.4byte	0x97c
 3952 095d 09       		.uleb128 0x9
 3953 095e 01       		.uleb128 0x1
 3954 095f 50       		.byte	0x50
 3955 0960 02       		.uleb128 0x2
 3956 0961 08       		.byte	0x8
 3957 0962 FF       		.byte	0xff
 3958 0963 09       		.uleb128 0x9
 3959 0964 01       		.uleb128 0x1
 3960 0965 51       		.byte	0x51
 3961 0966 02       		.uleb128 0x2
 3962 0967 74       		.byte	0x74
 3963 0968 00       		.sleb128 0
 3964 0969 09       		.uleb128 0x9
 3965 096a 01       		.uleb128 0x1
 3966 096b 52       		.byte	0x52
 3967 096c 01       		.uleb128 0x1
 3968 096d 35       		.byte	0x35
 3969 096e 09       		.uleb128 0x9
 3970 096f 01       		.uleb128 0x1
 3971 0970 53       		.byte	0x53
 3972 0971 02       		.uleb128 0x2
 3973 0972 08       		.byte	0x8
 3974 0973 46       		.byte	0x46
 3975 0974 09       		.uleb128 0x9
 3976 0975 02       		.uleb128 0x2
 3977 0976 7D       		.byte	0x7d
 3978 0977 00       		.sleb128 0
 3979 0978 02       		.uleb128 0x2
 3980 0979 74       		.byte	0x74
ARM GAS  C:\Users\jerry\AppData\Local\Temp\cc40088P.s 			page 92


 3981 097a 00       		.sleb128 0
 3982 097b 00       		.byte	0
 3983 097c 08       		.uleb128 0x8
 3984 097d 840C0000 		.4byte	.LVL287
 3985 0981 45240000 		.4byte	0x2445
 3986 0985 96090000 		.4byte	0x996
 3987 0989 09       		.uleb128 0x9
 3988 098a 01       		.uleb128 0x1
 3989 098b 50       		.byte	0x50
 3990 098c 02       		.uleb128 0x2
 3991 098d 74       		.byte	0x74
 3992 098e 00       		.sleb128 0
 3993 098f 09       		.uleb128 0x9
 3994 0990 01       		.uleb128 0x1
 3995 0991 51       		.byte	0x51
 3996 0992 02       		.uleb128 0x2
 3997 0993 08       		.byte	0x8
 3998 0994 C8       		.byte	0xc8
 3999 0995 00       		.byte	0
 4000 0996 08       		.uleb128 0x8
 4001 0997 8A0C0000 		.4byte	.LVL288
 4002 099b 03240000 		.4byte	0x2403
 4003 099f A9090000 		.4byte	0x9a9
 4004 09a3 09       		.uleb128 0x9
 4005 09a4 01       		.uleb128 0x1
 4006 09a5 50       		.byte	0x50
 4007 09a6 01       		.uleb128 0x1
 4008 09a7 37       		.byte	0x37
 4009 09a8 00       		.byte	0
 4010 09a9 08       		.uleb128 0x8
 4011 09aa A00C0000 		.4byte	.LVL289
 4012 09ae 0E240000 		.4byte	0x240e
 4013 09b2 DC090000 		.4byte	0x9dc
 4014 09b6 09       		.uleb128 0x9
 4015 09b7 01       		.uleb128 0x1
 4016 09b8 50       		.byte	0x50
 4017 09b9 03       		.uleb128 0x3
 4018 09ba 0A       		.byte	0xa
 4019 09bb 4902     		.2byte	0x249
 4020 09bd 09       		.uleb128 0x9
 4021 09be 01       		.uleb128 0x1
 4022 09bf 51       		.byte	0x51
 4023 09c0 01       		.uleb128 0x1
 4024 09c1 30       		.byte	0x30
 4025 09c2 09       		.uleb128 0x9
 4026 09c3 01       		.uleb128 0x1
 4027 09c4 52       		.byte	0x52
 4028 09c5 02       		.uleb128 0x2
 4029 09c6 09       		.byte	0x9
 4030 09c7 FF       		.byte	0xff
 4031 09c8 09       		.uleb128 0x9
 4032 09c9 01       		.uleb128 0x1
 4033 09ca 53       		.byte	0x53
 4034 09cb 01       		.uleb128 0x1
 4035 09cc 35       		.byte	0x35
 4036 09cd 09       		.uleb128 0x9
 4037 09ce 02       		.uleb128 0x2
ARM GAS  C:\Users\jerry\AppData\Local\Temp\cc40088P.s 			page 93


 4038 09cf 7D       		.byte	0x7d
 4039 09d0 00       		.sleb128 0
 4040 09d1 02       		.uleb128 0x2
 4041 09d2 75       		.byte	0x75
 4042 09d3 00       		.sleb128 0
 4043 09d4 09       		.uleb128 0x9
 4044 09d5 02       		.uleb128 0x2
 4045 09d6 7D       		.byte	0x7d
 4046 09d7 04       		.sleb128 4
 4047 09d8 02       		.uleb128 0x2
 4048 09d9 74       		.byte	0x74
 4049 09da 00       		.sleb128 0
 4050 09db 00       		.byte	0
 4051 09dc 08       		.uleb128 0x8
 4052 09dd A80C0000 		.4byte	.LVL290
 4053 09e1 45240000 		.4byte	0x2445
 4054 09e5 F5090000 		.4byte	0x9f5
 4055 09e9 09       		.uleb128 0x9
 4056 09ea 01       		.uleb128 0x1
 4057 09eb 50       		.byte	0x50
 4058 09ec 01       		.uleb128 0x1
 4059 09ed 30       		.byte	0x30
 4060 09ee 09       		.uleb128 0x9
 4061 09ef 01       		.uleb128 0x1
 4062 09f0 51       		.byte	0x51
 4063 09f1 02       		.uleb128 0x2
 4064 09f2 75       		.byte	0x75
 4065 09f3 00       		.sleb128 0
 4066 09f4 00       		.byte	0
 4067 09f5 08       		.uleb128 0x8
 4068 09f6 B00C0000 		.4byte	.LVL291
 4069 09fa 45240000 		.4byte	0x2445
 4070 09fe 0E0A0000 		.4byte	0xa0e
 4071 0a02 09       		.uleb128 0x9
 4072 0a03 01       		.uleb128 0x1
 4073 0a04 50       		.byte	0x50
 4074 0a05 01       		.uleb128 0x1
 4075 0a06 33       		.byte	0x33
 4076 0a07 09       		.uleb128 0x9
 4077 0a08 01       		.uleb128 0x1
 4078 0a09 51       		.byte	0x51
 4079 0a0a 02       		.uleb128 0x2
 4080 0a0b 75       		.byte	0x75
 4081 0a0c 00       		.sleb128 0
 4082 0a0d 00       		.byte	0
 4083 0a0e 08       		.uleb128 0x8
 4084 0a0f BC0C0000 		.4byte	.LVL292
 4085 0a13 71240000 		.4byte	0x2471
 4086 0a17 340A0000 		.4byte	0xa34
 4087 0a1b 09       		.uleb128 0x9
 4088 0a1c 01       		.uleb128 0x1
 4089 0a1d 50       		.byte	0x50
 4090 0a1e 02       		.uleb128 0x2
 4091 0a1f 08       		.byte	0x8
 4092 0a20 78       		.byte	0x78
 4093 0a21 09       		.uleb128 0x9
 4094 0a22 01       		.uleb128 0x1
ARM GAS  C:\Users\jerry\AppData\Local\Temp\cc40088P.s 			page 94


 4095 0a23 51       		.byte	0x51
 4096 0a24 03       		.uleb128 0x3
 4097 0a25 F5       		.byte	0xf5
 4098 0a26 06       		.uleb128 0x6
 4099 0a27 25       		.uleb128 0x25
 4100 0a28 09       		.uleb128 0x9
 4101 0a29 01       		.uleb128 0x1
 4102 0a2a 52       		.byte	0x52
 4103 0a2b 01       		.uleb128 0x1
 4104 0a2c 32       		.byte	0x32
 4105 0a2d 09       		.uleb128 0x9
 4106 0a2e 01       		.uleb128 0x1
 4107 0a2f 53       		.byte	0x53
 4108 0a30 02       		.uleb128 0x2
 4109 0a31 74       		.byte	0x74
 4110 0a32 00       		.sleb128 0
 4111 0a33 00       		.byte	0
 4112 0a34 08       		.uleb128 0x8
 4113 0a35 CC0C0000 		.4byte	.LVL293
 4114 0a39 0E240000 		.4byte	0x240e
 4115 0a3d 670A0000 		.4byte	0xa67
 4116 0a41 09       		.uleb128 0x9
 4117 0a42 01       		.uleb128 0x1
 4118 0a43 50       		.byte	0x50
 4119 0a44 02       		.uleb128 0x2
 4120 0a45 08       		.byte	0x8
 4121 0a46 AA       		.byte	0xaa
 4122 0a47 09       		.uleb128 0x9
 4123 0a48 01       		.uleb128 0x1
 4124 0a49 51       		.byte	0x51
 4125 0a4a 02       		.uleb128 0x2
 4126 0a4b 74       		.byte	0x74
 4127 0a4c 00       		.sleb128 0
 4128 0a4d 09       		.uleb128 0x9
 4129 0a4e 01       		.uleb128 0x1
 4130 0a4f 52       		.byte	0x52
 4131 0a50 02       		.uleb128 0x2
 4132 0a51 74       		.byte	0x74
 4133 0a52 00       		.sleb128 0
 4134 0a53 09       		.uleb128 0x9
 4135 0a54 01       		.uleb128 0x1
 4136 0a55 53       		.byte	0x53
 4137 0a56 01       		.uleb128 0x1
 4138 0a57 35       		.byte	0x35
 4139 0a58 09       		.uleb128 0x9
 4140 0a59 02       		.uleb128 0x2
 4141 0a5a 7D       		.byte	0x7d
 4142 0a5b 00       		.sleb128 0
 4143 0a5c 02       		.uleb128 0x2
 4144 0a5d 75       		.byte	0x75
 4145 0a5e 00       		.sleb128 0
 4146 0a5f 09       		.uleb128 0x9
 4147 0a60 02       		.uleb128 0x2
 4148 0a61 7D       		.byte	0x7d
 4149 0a62 04       		.sleb128 4
 4150 0a63 02       		.uleb128 0x2
 4151 0a64 74       		.byte	0x74
ARM GAS  C:\Users\jerry\AppData\Local\Temp\cc40088P.s 			page 95


 4152 0a65 00       		.sleb128 0
 4153 0a66 00       		.byte	0
 4154 0a67 08       		.uleb128 0x8
 4155 0a68 DA0C0000 		.4byte	.LVL294
 4156 0a6c 7C240000 		.4byte	0x247c
 4157 0a70 930A0000 		.4byte	0xa93
 4158 0a74 09       		.uleb128 0x9
 4159 0a75 01       		.uleb128 0x1
 4160 0a76 50       		.byte	0x50
 4161 0a77 02       		.uleb128 0x2
 4162 0a78 08       		.byte	0x8
 4163 0a79 BE       		.byte	0xbe
 4164 0a7a 09       		.uleb128 0x9
 4165 0a7b 01       		.uleb128 0x1
 4166 0a7c 51       		.byte	0x51
 4167 0a7d 02       		.uleb128 0x2
 4168 0a7e 74       		.byte	0x74
 4169 0a7f 00       		.sleb128 0
 4170 0a80 09       		.uleb128 0x9
 4171 0a81 01       		.uleb128 0x1
 4172 0a82 52       		.byte	0x52
 4173 0a83 01       		.uleb128 0x1
 4174 0a84 35       		.byte	0x35
 4175 0a85 09       		.uleb128 0x9
 4176 0a86 01       		.uleb128 0x1
 4177 0a87 53       		.byte	0x53
 4178 0a88 02       		.uleb128 0x2
 4179 0a89 08       		.byte	0x8
 4180 0a8a 46       		.byte	0x46
 4181 0a8b 09       		.uleb128 0x9
 4182 0a8c 02       		.uleb128 0x2
 4183 0a8d 7D       		.byte	0x7d
 4184 0a8e 00       		.sleb128 0
 4185 0a8f 02       		.uleb128 0x2
 4186 0a90 74       		.byte	0x74
 4187 0a91 00       		.sleb128 0
 4188 0a92 00       		.byte	0
 4189 0a93 08       		.uleb128 0x8
 4190 0a94 E00C0000 		.4byte	.LVL295
 4191 0a98 03240000 		.4byte	0x2403
 4192 0a9c A60A0000 		.4byte	0xaa6
 4193 0aa0 09       		.uleb128 0x9
 4194 0aa1 01       		.uleb128 0x1
 4195 0aa2 50       		.byte	0x50
 4196 0aa3 01       		.uleb128 0x1
 4197 0aa4 37       		.byte	0x37
 4198 0aa5 00       		.byte	0
 4199 0aa6 08       		.uleb128 0x8
 4200 0aa7 E80C0000 		.4byte	.LVL296
 4201 0aab 45240000 		.4byte	0x2445
 4202 0aaf BF0A0000 		.4byte	0xabf
 4203 0ab3 09       		.uleb128 0x9
 4204 0ab4 01       		.uleb128 0x1
 4205 0ab5 50       		.byte	0x50
 4206 0ab6 01       		.uleb128 0x1
 4207 0ab7 32       		.byte	0x32
 4208 0ab8 09       		.uleb128 0x9
ARM GAS  C:\Users\jerry\AppData\Local\Temp\cc40088P.s 			page 96


 4209 0ab9 01       		.uleb128 0x1
 4210 0aba 51       		.byte	0x51
 4211 0abb 02       		.uleb128 0x2
 4212 0abc 08       		.byte	0x8
 4213 0abd C8       		.byte	0xc8
 4214 0abe 00       		.byte	0
 4215 0abf 08       		.uleb128 0x8
 4216 0ac0 F00C0000 		.4byte	.LVL297
 4217 0ac4 50240000 		.4byte	0x2450
 4218 0ac8 D70A0000 		.4byte	0xad7
 4219 0acc 09       		.uleb128 0x9
 4220 0acd 01       		.uleb128 0x1
 4221 0ace 50       		.byte	0x50
 4222 0acf 01       		.uleb128 0x1
 4223 0ad0 33       		.byte	0x33
 4224 0ad1 09       		.uleb128 0x9
 4225 0ad2 01       		.uleb128 0x1
 4226 0ad3 51       		.byte	0x51
 4227 0ad4 01       		.uleb128 0x1
 4228 0ad5 31       		.byte	0x31
 4229 0ad6 00       		.byte	0
 4230 0ad7 08       		.uleb128 0x8
 4231 0ad8 FC0C0000 		.4byte	.LVL298
 4232 0adc 03240000 		.4byte	0x2403
 4233 0ae0 EA0A0000 		.4byte	0xaea
 4234 0ae4 09       		.uleb128 0x9
 4235 0ae5 01       		.uleb128 0x1
 4236 0ae6 50       		.byte	0x50
 4237 0ae7 01       		.uleb128 0x1
 4238 0ae8 37       		.byte	0x37
 4239 0ae9 00       		.byte	0
 4240 0aea 08       		.uleb128 0x8
 4241 0aeb 0A0D0000 		.4byte	.LVL299
 4242 0aef 7C240000 		.4byte	0x247c
 4243 0af3 140B0000 		.4byte	0xb14
 4244 0af7 09       		.uleb128 0x9
 4245 0af8 01       		.uleb128 0x1
 4246 0af9 50       		.byte	0x50
 4247 0afa 02       		.uleb128 0x2
 4248 0afb 08       		.byte	0x8
 4249 0afc 96       		.byte	0x96
 4250 0afd 09       		.uleb128 0x9
 4251 0afe 01       		.uleb128 0x1
 4252 0aff 51       		.byte	0x51
 4253 0b00 01       		.uleb128 0x1
 4254 0b01 31       		.byte	0x31
 4255 0b02 09       		.uleb128 0x9
 4256 0b03 01       		.uleb128 0x1
 4257 0b04 52       		.byte	0x52
 4258 0b05 01       		.uleb128 0x1
 4259 0b06 35       		.byte	0x35
 4260 0b07 09       		.uleb128 0x9
 4261 0b08 01       		.uleb128 0x1
 4262 0b09 53       		.byte	0x53
 4263 0b0a 02       		.uleb128 0x2
 4264 0b0b 08       		.byte	0x8
 4265 0b0c 46       		.byte	0x46
ARM GAS  C:\Users\jerry\AppData\Local\Temp\cc40088P.s 			page 97


 4266 0b0d 09       		.uleb128 0x9
 4267 0b0e 02       		.uleb128 0x2
 4268 0b0f 7D       		.byte	0x7d
 4269 0b10 00       		.sleb128 0
 4270 0b11 01       		.uleb128 0x1
 4271 0b12 31       		.byte	0x31
 4272 0b13 00       		.byte	0
 4273 0b14 08       		.uleb128 0x8
 4274 0b15 200D0000 		.4byte	.LVL300
 4275 0b19 0E240000 		.4byte	0x240e
 4276 0b1d 440B0000 		.4byte	0xb44
 4277 0b21 09       		.uleb128 0x9
 4278 0b22 01       		.uleb128 0x1
 4279 0b23 50       		.byte	0x50
 4280 0b24 02       		.uleb128 0x2
 4281 0b25 08       		.byte	0x8
 4282 0b26 5A       		.byte	0x5a
 4283 0b27 09       		.uleb128 0x9
 4284 0b28 01       		.uleb128 0x1
 4285 0b29 51       		.byte	0x51
 4286 0b2a 01       		.uleb128 0x1
 4287 0b2b 31       		.byte	0x31
 4288 0b2c 09       		.uleb128 0x9
 4289 0b2d 01       		.uleb128 0x1
 4290 0b2e 52       		.byte	0x52
 4291 0b2f 01       		.uleb128 0x1
 4292 0b30 31       		.byte	0x31
 4293 0b31 09       		.uleb128 0x9
 4294 0b32 01       		.uleb128 0x1
 4295 0b33 53       		.byte	0x53
 4296 0b34 01       		.uleb128 0x1
 4297 0b35 35       		.byte	0x35
 4298 0b36 09       		.uleb128 0x9
 4299 0b37 02       		.uleb128 0x2
 4300 0b38 7D       		.byte	0x7d
 4301 0b39 00       		.sleb128 0
 4302 0b3a 02       		.uleb128 0x2
 4303 0b3b 08       		.byte	0x8
 4304 0b3c 46       		.byte	0x46
 4305 0b3d 09       		.uleb128 0x9
 4306 0b3e 02       		.uleb128 0x2
 4307 0b3f 7D       		.byte	0x7d
 4308 0b40 04       		.sleb128 4
 4309 0b41 01       		.uleb128 0x1
 4310 0b42 30       		.byte	0x30
 4311 0b43 00       		.byte	0
 4312 0b44 08       		.uleb128 0x8
 4313 0b45 2A0D0000 		.4byte	.LVL301
 4314 0b49 50240000 		.4byte	0x2450
 4315 0b4d 570B0000 		.4byte	0xb57
 4316 0b51 09       		.uleb128 0x9
 4317 0b52 01       		.uleb128 0x1
 4318 0b53 51       		.byte	0x51
 4319 0b54 01       		.uleb128 0x1
 4320 0b55 31       		.byte	0x31
 4321 0b56 00       		.byte	0
 4322 0b57 06       		.uleb128 0x6
ARM GAS  C:\Users\jerry\AppData\Local\Temp\cc40088P.s 			page 98


 4323 0b58 2E0D0000 		.4byte	.LVL302
 4324 0b5c 87240000 		.4byte	0x2487
 4325 0b60 08       		.uleb128 0x8
 4326 0b61 360D0000 		.4byte	.LVL303
 4327 0b65 50240000 		.4byte	0x2450
 4328 0b69 780B0000 		.4byte	0xb78
 4329 0b6d 09       		.uleb128 0x9
 4330 0b6e 01       		.uleb128 0x1
 4331 0b6f 50       		.byte	0x50
 4332 0b70 01       		.uleb128 0x1
 4333 0b71 33       		.byte	0x33
 4334 0b72 09       		.uleb128 0x9
 4335 0b73 01       		.uleb128 0x1
 4336 0b74 51       		.byte	0x51
 4337 0b75 01       		.uleb128 0x1
 4338 0b76 30       		.byte	0x30
 4339 0b77 00       		.byte	0
 4340 0b78 08       		.uleb128 0x8
 4341 0b79 600D0000 		.4byte	.LVL304
 4342 0b7d 95230000 		.4byte	0x2395
 4343 0b81 980B0000 		.4byte	0xb98
 4344 0b85 09       		.uleb128 0x9
 4345 0b86 01       		.uleb128 0x1
 4346 0b87 50       		.byte	0x50
 4347 0b88 03       		.uleb128 0x3
 4348 0b89 0B       		.byte	0xb
 4349 0b8a 7EFF     		.2byte	0xff7e
 4350 0b8c 09       		.uleb128 0x9
 4351 0b8d 01       		.uleb128 0x1
 4352 0b8e 51       		.byte	0x51
 4353 0b8f 02       		.uleb128 0x2
 4354 0b90 08       		.byte	0x8
 4355 0b91 C8       		.byte	0xc8
 4356 0b92 09       		.uleb128 0x9
 4357 0b93 01       		.uleb128 0x1
 4358 0b94 52       		.byte	0x52
 4359 0b95 01       		.uleb128 0x1
 4360 0b96 31       		.byte	0x31
 4361 0b97 00       		.byte	0
 4362 0b98 08       		.uleb128 0x8
 4363 0b99 680D0000 		.4byte	.LVL305
 4364 0b9d 45240000 		.4byte	0x2445
 4365 0ba1 B10B0000 		.4byte	0xbb1
 4366 0ba5 09       		.uleb128 0x9
 4367 0ba6 01       		.uleb128 0x1
 4368 0ba7 50       		.byte	0x50
 4369 0ba8 01       		.uleb128 0x1
 4370 0ba9 33       		.byte	0x33
 4371 0baa 09       		.uleb128 0x9
 4372 0bab 01       		.uleb128 0x1
 4373 0bac 51       		.byte	0x51
 4374 0bad 02       		.uleb128 0x2
 4375 0bae 08       		.byte	0x8
 4376 0baf C8       		.byte	0xc8
 4377 0bb0 00       		.byte	0
 4378 0bb1 08       		.uleb128 0x8
 4379 0bb2 6E0D0000 		.4byte	.LVL306
ARM GAS  C:\Users\jerry\AppData\Local\Temp\cc40088P.s 			page 99


 4380 0bb6 03240000 		.4byte	0x2403
 4381 0bba C40B0000 		.4byte	0xbc4
 4382 0bbe 09       		.uleb128 0x9
 4383 0bbf 01       		.uleb128 0x1
 4384 0bc0 50       		.byte	0x50
 4385 0bc1 01       		.uleb128 0x1
 4386 0bc2 37       		.byte	0x37
 4387 0bc3 00       		.byte	0
 4388 0bc4 08       		.uleb128 0x8
 4389 0bc5 860D0000 		.4byte	.LVL307
 4390 0bc9 0E240000 		.4byte	0x240e
 4391 0bcd F70B0000 		.4byte	0xbf7
 4392 0bd1 09       		.uleb128 0x9
 4393 0bd2 01       		.uleb128 0x1
 4394 0bd3 50       		.byte	0x50
 4395 0bd4 03       		.uleb128 0x3
 4396 0bd5 0A       		.byte	0xa
 4397 0bd6 2602     		.2byte	0x226
 4398 0bd8 09       		.uleb128 0x9
 4399 0bd9 01       		.uleb128 0x1
 4400 0bda 51       		.byte	0x51
 4401 0bdb 01       		.uleb128 0x1
 4402 0bdc 30       		.byte	0x30
 4403 0bdd 09       		.uleb128 0x9
 4404 0bde 01       		.uleb128 0x1
 4405 0bdf 52       		.byte	0x52
 4406 0be0 02       		.uleb128 0x2
 4407 0be1 09       		.byte	0x9
 4408 0be2 FF       		.byte	0xff
 4409 0be3 09       		.uleb128 0x9
 4410 0be4 01       		.uleb128 0x1
 4411 0be5 53       		.byte	0x53
 4412 0be6 01       		.uleb128 0x1
 4413 0be7 35       		.byte	0x35
 4414 0be8 09       		.uleb128 0x9
 4415 0be9 02       		.uleb128 0x2
 4416 0bea 7D       		.byte	0x7d
 4417 0beb 00       		.sleb128 0
 4418 0bec 02       		.uleb128 0x2
 4419 0bed 75       		.byte	0x75
 4420 0bee 00       		.sleb128 0
 4421 0bef 09       		.uleb128 0x9
 4422 0bf0 02       		.uleb128 0x2
 4423 0bf1 7D       		.byte	0x7d
 4424 0bf2 04       		.sleb128 4
 4425 0bf3 02       		.uleb128 0x2
 4426 0bf4 74       		.byte	0x74
 4427 0bf5 00       		.sleb128 0
 4428 0bf6 00       		.byte	0
 4429 0bf7 08       		.uleb128 0x8
 4430 0bf8 8C0D0000 		.4byte	.LVL308
 4431 0bfc 03240000 		.4byte	0x2403
 4432 0c00 0A0C0000 		.4byte	0xc0a
 4433 0c04 09       		.uleb128 0x9
 4434 0c05 01       		.uleb128 0x1
 4435 0c06 50       		.byte	0x50
 4436 0c07 01       		.uleb128 0x1
ARM GAS  C:\Users\jerry\AppData\Local\Temp\cc40088P.s 			page 100


 4437 0c08 37       		.byte	0x37
 4438 0c09 00       		.byte	0
 4439 0c0a 08       		.uleb128 0x8
 4440 0c0b 940D0000 		.4byte	.LVL309
 4441 0c0f 45240000 		.4byte	0x2445
 4442 0c13 230C0000 		.4byte	0xc23
 4443 0c17 09       		.uleb128 0x9
 4444 0c18 01       		.uleb128 0x1
 4445 0c19 50       		.byte	0x50
 4446 0c1a 01       		.uleb128 0x1
 4447 0c1b 30       		.byte	0x30
 4448 0c1c 09       		.uleb128 0x9
 4449 0c1d 01       		.uleb128 0x1
 4450 0c1e 51       		.byte	0x51
 4451 0c1f 02       		.uleb128 0x2
 4452 0c20 75       		.byte	0x75
 4453 0c21 00       		.sleb128 0
 4454 0c22 00       		.byte	0
 4455 0c23 08       		.uleb128 0x8
 4456 0c24 9C0D0000 		.4byte	.LVL310
 4457 0c28 45240000 		.4byte	0x2445
 4458 0c2c 3D0C0000 		.4byte	0xc3d
 4459 0c30 09       		.uleb128 0x9
 4460 0c31 01       		.uleb128 0x1
 4461 0c32 50       		.byte	0x50
 4462 0c33 02       		.uleb128 0x2
 4463 0c34 74       		.byte	0x74
 4464 0c35 00       		.sleb128 0
 4465 0c36 09       		.uleb128 0x9
 4466 0c37 01       		.uleb128 0x1
 4467 0c38 51       		.byte	0x51
 4468 0c39 02       		.uleb128 0x2
 4469 0c3a 75       		.byte	0x75
 4470 0c3b 00       		.sleb128 0
 4471 0c3c 00       		.byte	0
 4472 0c3d 08       		.uleb128 0x8
 4473 0c3e AC0D0000 		.4byte	.LVL311
 4474 0c42 0E240000 		.4byte	0x240e
 4475 0c46 700C0000 		.4byte	0xc70
 4476 0c4a 09       		.uleb128 0x9
 4477 0c4b 01       		.uleb128 0x1
 4478 0c4c 50       		.byte	0x50
 4479 0c4d 02       		.uleb128 0x2
 4480 0c4e 08       		.byte	0x8
 4481 0c4f B9       		.byte	0xb9
 4482 0c50 09       		.uleb128 0x9
 4483 0c51 01       		.uleb128 0x1
 4484 0c52 51       		.byte	0x51
 4485 0c53 02       		.uleb128 0x2
 4486 0c54 74       		.byte	0x74
 4487 0c55 00       		.sleb128 0
 4488 0c56 09       		.uleb128 0x9
 4489 0c57 01       		.uleb128 0x1
 4490 0c58 52       		.byte	0x52
 4491 0c59 02       		.uleb128 0x2
 4492 0c5a 74       		.byte	0x74
 4493 0c5b 00       		.sleb128 0
ARM GAS  C:\Users\jerry\AppData\Local\Temp\cc40088P.s 			page 101


 4494 0c5c 09       		.uleb128 0x9
 4495 0c5d 01       		.uleb128 0x1
 4496 0c5e 53       		.byte	0x53
 4497 0c5f 01       		.uleb128 0x1
 4498 0c60 35       		.byte	0x35
 4499 0c61 09       		.uleb128 0x9
 4500 0c62 02       		.uleb128 0x2
 4501 0c63 7D       		.byte	0x7d
 4502 0c64 00       		.sleb128 0
 4503 0c65 02       		.uleb128 0x2
 4504 0c66 75       		.byte	0x75
 4505 0c67 00       		.sleb128 0
 4506 0c68 09       		.uleb128 0x9
 4507 0c69 02       		.uleb128 0x2
 4508 0c6a 7D       		.byte	0x7d
 4509 0c6b 04       		.sleb128 4
 4510 0c6c 02       		.uleb128 0x2
 4511 0c6d 74       		.byte	0x74
 4512 0c6e 00       		.sleb128 0
 4513 0c6f 00       		.byte	0
 4514 0c70 0A       		.uleb128 0xa
 4515 0c71 B20D0000 		.4byte	.LVL312
 4516 0c75 03240000 		.4byte	0x2403
 4517 0c79 09       		.uleb128 0x9
 4518 0c7a 01       		.uleb128 0x1
 4519 0c7b 50       		.byte	0x50
 4520 0c7c 01       		.uleb128 0x1
 4521 0c7d 37       		.byte	0x37
 4522 0c7e 00       		.byte	0
 4523 0c7f 00       		.byte	0
 4524 0c80 06       		.uleb128 0x6
 4525 0c81 0C000000 		.4byte	.LVL15
 4526 0c85 92240000 		.4byte	0x2492
 4527 0c89 06       		.uleb128 0x6
 4528 0c8a 10000000 		.4byte	.LVL16
 4529 0c8e 9D240000 		.4byte	0x249d
 4530 0c92 08       		.uleb128 0x8
 4531 0c93 16000000 		.4byte	.LVL17
 4532 0c97 69230000 		.4byte	0x2369
 4533 0c9b A90C0000 		.4byte	0xca9
 4534 0c9f 09       		.uleb128 0x9
 4535 0ca0 01       		.uleb128 0x1
 4536 0ca1 50       		.byte	0x50
 4537 0ca2 05       		.uleb128 0x5
 4538 0ca3 03       		.byte	0x3
 4539 0ca4 18000000 		.4byte	.LC1
 4540 0ca8 00       		.byte	0
 4541 0ca9 06       		.uleb128 0x6
 4542 0caa 1A000000 		.4byte	.LVL18
 4543 0cae A8240000 		.4byte	0x24a8
 4544 0cb2 06       		.uleb128 0x6
 4545 0cb3 1E000000 		.4byte	.LVL19
 4546 0cb7 B3240000 		.4byte	0x24b3
 4547 0cbb 08       		.uleb128 0x8
 4548 0cbc 24000000 		.4byte	.LVL20
 4549 0cc0 BE240000 		.4byte	0x24be
 4550 0cc4 CE0C0000 		.4byte	0xcce
ARM GAS  C:\Users\jerry\AppData\Local\Temp\cc40088P.s 			page 102


 4551 0cc8 09       		.uleb128 0x9
 4552 0cc9 01       		.uleb128 0x1
 4553 0cca 50       		.byte	0x50
 4554 0ccb 01       		.uleb128 0x1
 4555 0ccc 30       		.byte	0x30
 4556 0ccd 00       		.byte	0
 4557 0cce 06       		.uleb128 0x6
 4558 0ccf 2C000000 		.4byte	.LVL21
 4559 0cd3 C9240000 		.4byte	0x24c9
 4560 0cd7 08       		.uleb128 0x8
 4561 0cd8 36000000 		.4byte	.LVL22
 4562 0cdc 24240000 		.4byte	0x2424
 4563 0ce0 EB0C0000 		.4byte	0xceb
 4564 0ce4 09       		.uleb128 0x9
 4565 0ce5 01       		.uleb128 0x1
 4566 0ce6 50       		.byte	0x50
 4567 0ce7 02       		.uleb128 0x2
 4568 0ce8 75       		.byte	0x75
 4569 0ce9 00       		.sleb128 0
 4570 0cea 00       		.byte	0
 4571 0ceb 08       		.uleb128 0x8
 4572 0cec 3C000000 		.4byte	.LVL23
 4573 0cf0 D4240000 		.4byte	0x24d4
 4574 0cf4 FE0C0000 		.4byte	0xcfe
 4575 0cf8 09       		.uleb128 0x9
 4576 0cf9 01       		.uleb128 0x1
 4577 0cfa 50       		.byte	0x50
 4578 0cfb 01       		.uleb128 0x1
 4579 0cfc 31       		.byte	0x31
 4580 0cfd 00       		.byte	0
 4581 0cfe 08       		.uleb128 0x8
 4582 0cff 44000000 		.4byte	.LVL24
 4583 0d03 5E230000 		.4byte	0x235e
 4584 0d07 130D0000 		.4byte	0xd13
 4585 0d0b 09       		.uleb128 0x9
 4586 0d0c 01       		.uleb128 0x1
 4587 0d0d 50       		.byte	0x50
 4588 0d0e 03       		.uleb128 0x3
 4589 0d0f 0A       		.byte	0xa
 4590 0d10 F401     		.2byte	0x1f4
 4591 0d12 00       		.byte	0
 4592 0d13 08       		.uleb128 0x8
 4593 0d14 4A000000 		.4byte	.LVL25
 4594 0d18 D4240000 		.4byte	0x24d4
 4595 0d1c 260D0000 		.4byte	0xd26
 4596 0d20 09       		.uleb128 0x9
 4597 0d21 01       		.uleb128 0x1
 4598 0d22 50       		.byte	0x50
 4599 0d23 01       		.uleb128 0x1
 4600 0d24 32       		.byte	0x32
 4601 0d25 00       		.byte	0
 4602 0d26 08       		.uleb128 0x8
 4603 0d27 52000000 		.4byte	.LVL26
 4604 0d2b 5E230000 		.4byte	0x235e
 4605 0d2f 3B0D0000 		.4byte	0xd3b
 4606 0d33 09       		.uleb128 0x9
 4607 0d34 01       		.uleb128 0x1
ARM GAS  C:\Users\jerry\AppData\Local\Temp\cc40088P.s 			page 103


 4608 0d35 50       		.byte	0x50
 4609 0d36 03       		.uleb128 0x3
 4610 0d37 0A       		.byte	0xa
 4611 0d38 F401     		.2byte	0x1f4
 4612 0d3a 00       		.byte	0
 4613 0d3b 08       		.uleb128 0x8
 4614 0d3c 58000000 		.4byte	.LVL27
 4615 0d40 D4240000 		.4byte	0x24d4
 4616 0d44 4E0D0000 		.4byte	0xd4e
 4617 0d48 09       		.uleb128 0x9
 4618 0d49 01       		.uleb128 0x1
 4619 0d4a 50       		.byte	0x50
 4620 0d4b 01       		.uleb128 0x1
 4621 0d4c 33       		.byte	0x33
 4622 0d4d 00       		.byte	0
 4623 0d4e 08       		.uleb128 0x8
 4624 0d4f 60000000 		.4byte	.LVL28
 4625 0d53 5E230000 		.4byte	0x235e
 4626 0d57 630D0000 		.4byte	0xd63
 4627 0d5b 09       		.uleb128 0x9
 4628 0d5c 01       		.uleb128 0x1
 4629 0d5d 50       		.byte	0x50
 4630 0d5e 03       		.uleb128 0x3
 4631 0d5f 0A       		.byte	0xa
 4632 0d60 F401     		.2byte	0x1f4
 4633 0d62 00       		.byte	0
 4634 0d63 08       		.uleb128 0x8
 4635 0d64 66000000 		.4byte	.LVL29
 4636 0d68 D4240000 		.4byte	0x24d4
 4637 0d6c 770D0000 		.4byte	0xd77
 4638 0d70 09       		.uleb128 0x9
 4639 0d71 01       		.uleb128 0x1
 4640 0d72 50       		.byte	0x50
 4641 0d73 02       		.uleb128 0x2
 4642 0d74 75       		.byte	0x75
 4643 0d75 00       		.sleb128 0
 4644 0d76 00       		.byte	0
 4645 0d77 08       		.uleb128 0x8
 4646 0d78 6E000000 		.4byte	.LVL30
 4647 0d7c 5E230000 		.4byte	0x235e
 4648 0d80 8C0D0000 		.4byte	0xd8c
 4649 0d84 09       		.uleb128 0x9
 4650 0d85 01       		.uleb128 0x1
 4651 0d86 50       		.byte	0x50
 4652 0d87 03       		.uleb128 0x3
 4653 0d88 0A       		.byte	0xa
 4654 0d89 F401     		.2byte	0x1f4
 4655 0d8b 00       		.byte	0
 4656 0d8c 06       		.uleb128 0x6
 4657 0d8d 72000000 		.4byte	.LVL31
 4658 0d91 19240000 		.4byte	0x2419
 4659 0d95 06       		.uleb128 0x6
 4660 0d96 76000000 		.4byte	.LVL32
 4661 0d9a DF240000 		.4byte	0x24df
 4662 0d9e 08       		.uleb128 0x8
 4663 0d9f 7E000000 		.4byte	.LVL33
 4664 0da3 EA240000 		.4byte	0x24ea
ARM GAS  C:\Users\jerry\AppData\Local\Temp\cc40088P.s 			page 104


 4665 0da7 B30D0000 		.4byte	0xdb3
 4666 0dab 09       		.uleb128 0x9
 4667 0dac 01       		.uleb128 0x1
 4668 0dad 50       		.byte	0x50
 4669 0dae 03       		.uleb128 0x3
 4670 0daf 0A       		.byte	0xa
 4671 0db0 E803     		.2byte	0x3e8
 4672 0db2 00       		.byte	0
 4673 0db3 08       		.uleb128 0x8
 4674 0db4 86000000 		.4byte	.LVL34
 4675 0db8 5E230000 		.4byte	0x235e
 4676 0dbc C80D0000 		.4byte	0xdc8
 4677 0dc0 09       		.uleb128 0x9
 4678 0dc1 01       		.uleb128 0x1
 4679 0dc2 50       		.byte	0x50
 4680 0dc3 03       		.uleb128 0x3
 4681 0dc4 0A       		.byte	0xa
 4682 0dc5 F401     		.2byte	0x1f4
 4683 0dc7 00       		.byte	0
 4684 0dc8 06       		.uleb128 0x6
 4685 0dc9 8A000000 		.4byte	.LVL35
 4686 0dcd F5240000 		.4byte	0x24f5
 4687 0dd1 06       		.uleb128 0x6
 4688 0dd2 8E000000 		.4byte	.LVL36
 4689 0dd6 00250000 		.4byte	0x2500
 4690 0dda 08       		.uleb128 0x8
 4691 0ddb 96000000 		.4byte	.LVL37
 4692 0ddf 0B250000 		.4byte	0x250b
 4693 0de3 EF0D0000 		.4byte	0xdef
 4694 0de7 09       		.uleb128 0x9
 4695 0de8 01       		.uleb128 0x1
 4696 0de9 50       		.byte	0x50
 4697 0dea 03       		.uleb128 0x3
 4698 0deb 0A       		.byte	0xa
 4699 0dec 6004     		.2byte	0x460
 4700 0dee 00       		.byte	0
 4701 0def 08       		.uleb128 0x8
 4702 0df0 9E000000 		.4byte	.LVL38
 4703 0df4 5E230000 		.4byte	0x235e
 4704 0df8 040E0000 		.4byte	0xe04
 4705 0dfc 09       		.uleb128 0x9
 4706 0dfd 01       		.uleb128 0x1
 4707 0dfe 50       		.byte	0x50
 4708 0dff 03       		.uleb128 0x3
 4709 0e00 0A       		.byte	0xa
 4710 0e01 F401     		.2byte	0x1f4
 4711 0e03 00       		.byte	0
 4712 0e04 06       		.uleb128 0x6
 4713 0e05 A2000000 		.4byte	.LVL39
 4714 0e09 16250000 		.4byte	0x2516
 4715 0e0d 06       		.uleb128 0x6
 4716 0e0e A6000000 		.4byte	.LVL40
 4717 0e12 21250000 		.4byte	0x2521
 4718 0e16 06       		.uleb128 0x6
 4719 0e17 AA000000 		.4byte	.LVL41
 4720 0e1b 2C250000 		.4byte	0x252c
 4721 0e1f 08       		.uleb128 0x8
ARM GAS  C:\Users\jerry\AppData\Local\Temp\cc40088P.s 			page 105


 4722 0e20 B0000000 		.4byte	.LVL42
 4723 0e24 B6230000 		.4byte	0x23b6
 4724 0e28 330E0000 		.4byte	0xe33
 4725 0e2c 09       		.uleb128 0x9
 4726 0e2d 01       		.uleb128 0x1
 4727 0e2e 50       		.byte	0x50
 4728 0e2f 02       		.uleb128 0x2
 4729 0e30 75       		.byte	0x75
 4730 0e31 00       		.sleb128 0
 4731 0e32 00       		.byte	0
 4732 0e33 08       		.uleb128 0x8
 4733 0e34 B6000000 		.4byte	.LVL43
 4734 0e38 CC230000 		.4byte	0x23cc
 4735 0e3c 470E0000 		.4byte	0xe47
 4736 0e40 09       		.uleb128 0x9
 4737 0e41 01       		.uleb128 0x1
 4738 0e42 50       		.byte	0x50
 4739 0e43 02       		.uleb128 0x2
 4740 0e44 75       		.byte	0x75
 4741 0e45 00       		.sleb128 0
 4742 0e46 00       		.byte	0
 4743 0e47 06       		.uleb128 0x6
 4744 0e48 BA000000 		.4byte	.LVL44
 4745 0e4c 7F230000 		.4byte	0x237f
 4746 0e50 06       		.uleb128 0x6
 4747 0e51 BE000000 		.4byte	.LVL45
 4748 0e55 8A230000 		.4byte	0x238a
 4749 0e59 06       		.uleb128 0x6
 4750 0e5a C2000000 		.4byte	.LVL46
 4751 0e5e 37250000 		.4byte	0x2537
 4752 0e62 06       		.uleb128 0x6
 4753 0e63 C6000000 		.4byte	.LVL47
 4754 0e67 42250000 		.4byte	0x2542
 4755 0e6b 06       		.uleb128 0x6
 4756 0e6c D0000000 		.4byte	.LVL48
 4757 0e70 4D250000 		.4byte	0x254d
 4758 0e74 06       		.uleb128 0x6
 4759 0e75 D4000000 		.4byte	.LVL49
 4760 0e79 58250000 		.4byte	0x2558
 4761 0e7d 08       		.uleb128 0x8
 4762 0e7e DA000000 		.4byte	.LVL50
 4763 0e82 63250000 		.4byte	0x2563
 4764 0e86 940E0000 		.4byte	0xe94
 4765 0e8a 09       		.uleb128 0x9
 4766 0e8b 01       		.uleb128 0x1
 4767 0e8c 50       		.byte	0x50
 4768 0e8d 05       		.uleb128 0x5
 4769 0e8e 03       		.byte	0x3
 4770 0e8f 00000000 		.4byte	TIH
 4771 0e93 00       		.byte	0
 4772 0e94 08       		.uleb128 0x8
 4773 0e95 E0000000 		.4byte	.LVL51
 4774 0e99 6E250000 		.4byte	0x256e
 4775 0e9d AB0E0000 		.4byte	0xeab
 4776 0ea1 09       		.uleb128 0x9
 4777 0ea2 01       		.uleb128 0x1
 4778 0ea3 50       		.byte	0x50
ARM GAS  C:\Users\jerry\AppData\Local\Temp\cc40088P.s 			page 106


 4779 0ea4 05       		.uleb128 0x5
 4780 0ea5 03       		.byte	0x3
 4781 0ea6 00000000 		.4byte	StartIH
 4782 0eaa 00       		.byte	0
 4783 0eab 08       		.uleb128 0x8
 4784 0eac E6000000 		.4byte	.LVL52
 4785 0eb0 79250000 		.4byte	0x2579
 4786 0eb4 C20E0000 		.4byte	0xec2
 4787 0eb8 09       		.uleb128 0x9
 4788 0eb9 01       		.uleb128 0x1
 4789 0eba 50       		.byte	0x50
 4790 0ebb 05       		.uleb128 0x5
 4791 0ebc 03       		.byte	0x3
 4792 0ebd 00000000 		.4byte	SAIH
 4793 0ec1 00       		.byte	0
 4794 0ec2 08       		.uleb128 0x8
 4795 0ec3 F0000000 		.4byte	.LVL53
 4796 0ec7 69230000 		.4byte	0x2369
 4797 0ecb D90E0000 		.4byte	0xed9
 4798 0ecf 09       		.uleb128 0x9
 4799 0ed0 01       		.uleb128 0x1
 4800 0ed1 50       		.byte	0x50
 4801 0ed2 05       		.uleb128 0x5
 4802 0ed3 03       		.byte	0x3
 4803 0ed4 30000000 		.4byte	.LC2
 4804 0ed8 00       		.byte	0
 4805 0ed9 06       		.uleb128 0x6
 4806 0eda F4000000 		.4byte	.LVL54
 4807 0ede 84250000 		.4byte	0x2584
 4808 0ee2 06       		.uleb128 0x6
 4809 0ee3 F8000000 		.4byte	.LVL55
 4810 0ee7 84250000 		.4byte	0x2584
 4811 0eeb 06       		.uleb128 0x6
 4812 0eec FC000000 		.4byte	.LVL56
 4813 0ef0 84250000 		.4byte	0x2584
 4814 0ef4 06       		.uleb128 0x6
 4815 0ef5 00010000 		.4byte	.LVL57
 4816 0ef9 8F250000 		.4byte	0x258f
 4817 0efd 06       		.uleb128 0x6
 4818 0efe 04010000 		.4byte	.LVL58
 4819 0f02 74230000 		.4byte	0x2374
 4820 0f06 08       		.uleb128 0x8
 4821 0f07 32040000 		.4byte	.LVL130
 4822 0f0b 69230000 		.4byte	0x2369
 4823 0f0f 1D0F0000 		.4byte	0xf1d
 4824 0f13 09       		.uleb128 0x9
 4825 0f14 01       		.uleb128 0x1
 4826 0f15 50       		.byte	0x50
 4827 0f16 05       		.uleb128 0x5
 4828 0f17 03       		.byte	0x3
 4829 0f18 54010000 		.4byte	.LC13
 4830 0f1c 00       		.byte	0
 4831 0f1d 08       		.uleb128 0x8
 4832 0f1e 42040000 		.4byte	.LVL131
 4833 0f22 7C240000 		.4byte	0x247c
 4834 0f26 490F0000 		.4byte	0xf49
 4835 0f2a 09       		.uleb128 0x9
ARM GAS  C:\Users\jerry\AppData\Local\Temp\cc40088P.s 			page 107


 4836 0f2b 01       		.uleb128 0x1
 4837 0f2c 50       		.byte	0x50
 4838 0f2d 02       		.uleb128 0x2
 4839 0f2e 08       		.byte	0x8
 4840 0f2f 96       		.byte	0x96
 4841 0f30 09       		.uleb128 0x9
 4842 0f31 01       		.uleb128 0x1
 4843 0f32 51       		.byte	0x51
 4844 0f33 02       		.uleb128 0x2
 4845 0f34 74       		.byte	0x74
 4846 0f35 00       		.sleb128 0
 4847 0f36 09       		.uleb128 0x9
 4848 0f37 01       		.uleb128 0x1
 4849 0f38 52       		.byte	0x52
 4850 0f39 01       		.uleb128 0x1
 4851 0f3a 35       		.byte	0x35
 4852 0f3b 09       		.uleb128 0x9
 4853 0f3c 01       		.uleb128 0x1
 4854 0f3d 53       		.byte	0x53
 4855 0f3e 02       		.uleb128 0x2
 4856 0f3f 08       		.byte	0x8
 4857 0f40 46       		.byte	0x46
 4858 0f41 09       		.uleb128 0x9
 4859 0f42 02       		.uleb128 0x2
 4860 0f43 7D       		.byte	0x7d
 4861 0f44 00       		.sleb128 0
 4862 0f45 02       		.uleb128 0x2
 4863 0f46 74       		.byte	0x74
 4864 0f47 00       		.sleb128 0
 4865 0f48 00       		.byte	0
 4866 0f49 08       		.uleb128 0x8
 4867 0f4a 48040000 		.4byte	.LVL132
 4868 0f4e 03240000 		.4byte	0x2403
 4869 0f52 5C0F0000 		.4byte	0xf5c
 4870 0f56 09       		.uleb128 0x9
 4871 0f57 01       		.uleb128 0x1
 4872 0f58 50       		.byte	0x50
 4873 0f59 01       		.uleb128 0x1
 4874 0f5a 37       		.byte	0x37
 4875 0f5b 00       		.byte	0
 4876 0f5c 08       		.uleb128 0x8
 4877 0f5d 50040000 		.4byte	.LVL133
 4878 0f61 45240000 		.4byte	0x2445
 4879 0f65 750F0000 		.4byte	0xf75
 4880 0f69 09       		.uleb128 0x9
 4881 0f6a 01       		.uleb128 0x1
 4882 0f6b 50       		.byte	0x50
 4883 0f6c 01       		.uleb128 0x1
 4884 0f6d 30       		.byte	0x30
 4885 0f6e 09       		.uleb128 0x9
 4886 0f6f 01       		.uleb128 0x1
 4887 0f70 51       		.byte	0x51
 4888 0f71 02       		.uleb128 0x2
 4889 0f72 08       		.byte	0x8
 4890 0f73 C8       		.byte	0xc8
 4891 0f74 00       		.byte	0
 4892 0f75 08       		.uleb128 0x8
ARM GAS  C:\Users\jerry\AppData\Local\Temp\cc40088P.s 			page 108


 4893 0f76 56040000 		.4byte	.LVL134
 4894 0f7a 3A240000 		.4byte	0x243a
 4895 0f7e 880F0000 		.4byte	0xf88
 4896 0f82 09       		.uleb128 0x9
 4897 0f83 01       		.uleb128 0x1
 4898 0f84 50       		.byte	0x50
 4899 0f85 01       		.uleb128 0x1
 4900 0f86 36       		.byte	0x36
 4901 0f87 00       		.byte	0
 4902 0f88 08       		.uleb128 0x8
 4903 0f89 5C040000 		.4byte	.LVL135
 4904 0f8d 5E230000 		.4byte	0x235e
 4905 0f91 9C0F0000 		.4byte	0xf9c
 4906 0f95 09       		.uleb128 0x9
 4907 0f96 01       		.uleb128 0x1
 4908 0f97 50       		.byte	0x50
 4909 0f98 02       		.uleb128 0x2
 4910 0f99 08       		.byte	0x8
 4911 0f9a 32       		.byte	0x32
 4912 0f9b 00       		.byte	0
 4913 0f9c 08       		.uleb128 0x8
 4914 0f9d 76040000 		.4byte	.LVL136
 4915 0fa1 0E240000 		.4byte	0x240e
 4916 0fa5 CF0F0000 		.4byte	0xfcf
 4917 0fa9 09       		.uleb128 0x9
 4918 0faa 01       		.uleb128 0x1
 4919 0fab 50       		.byte	0x50
 4920 0fac 02       		.uleb128 0x2
 4921 0fad 08       		.byte	0x8
 4922 0fae F0       		.byte	0xf0
 4923 0faf 09       		.uleb128 0x9
 4924 0fb0 01       		.uleb128 0x1
 4925 0fb1 51       		.byte	0x51
 4926 0fb2 02       		.uleb128 0x2
 4927 0fb3 74       		.byte	0x74
 4928 0fb4 00       		.sleb128 0
 4929 0fb5 09       		.uleb128 0x9
 4930 0fb6 01       		.uleb128 0x1
 4931 0fb7 52       		.byte	0x52
 4932 0fb8 02       		.uleb128 0x2
 4933 0fb9 74       		.byte	0x74
 4934 0fba 00       		.sleb128 0
 4935 0fbb 09       		.uleb128 0x9
 4936 0fbc 01       		.uleb128 0x1
 4937 0fbd 53       		.byte	0x53
 4938 0fbe 01       		.uleb128 0x1
 4939 0fbf 30       		.byte	0x30
 4940 0fc0 09       		.uleb128 0x9
 4941 0fc1 02       		.uleb128 0x2
 4942 0fc2 7D       		.byte	0x7d
 4943 0fc3 00       		.sleb128 0
 4944 0fc4 02       		.uleb128 0x2
 4945 0fc5 08       		.byte	0x8
 4946 0fc6 C8       		.byte	0xc8
 4947 0fc7 09       		.uleb128 0x9
 4948 0fc8 02       		.uleb128 0x2
 4949 0fc9 7D       		.byte	0x7d
ARM GAS  C:\Users\jerry\AppData\Local\Temp\cc40088P.s 			page 109


 4950 0fca 04       		.sleb128 4
 4951 0fcb 02       		.uleb128 0x2
 4952 0fcc 74       		.byte	0x74
 4953 0fcd 00       		.sleb128 0
 4954 0fce 00       		.byte	0
 4955 0fcf 08       		.uleb128 0x8
 4956 0fd0 82040000 		.4byte	.LVL137
 4957 0fd4 ED230000 		.4byte	0x23ed
 4958 0fd8 EC0F0000 		.4byte	0xfec
 4959 0fdc 09       		.uleb128 0x9
 4960 0fdd 01       		.uleb128 0x1
 4961 0fde 50       		.byte	0x50
 4962 0fdf 02       		.uleb128 0x2
 4963 0fe0 74       		.byte	0x74
 4964 0fe1 00       		.sleb128 0
 4965 0fe2 09       		.uleb128 0x9
 4966 0fe3 01       		.uleb128 0x1
 4967 0fe4 51       		.byte	0x51
 4968 0fe5 05       		.uleb128 0x5
 4969 0fe6 03       		.byte	0x3
 4970 0fe7 68010000 		.4byte	.LC14
 4971 0feb 00       		.byte	0
 4972 0fec 08       		.uleb128 0x8
 4973 0fed 88040000 		.4byte	.LVL138
 4974 0ff1 69230000 		.4byte	0x2369
 4975 0ff5 00100000 		.4byte	0x1000
 4976 0ff9 09       		.uleb128 0x9
 4977 0ffa 01       		.uleb128 0x1
 4978 0ffb 50       		.byte	0x50
 4979 0ffc 02       		.uleb128 0x2
 4980 0ffd 74       		.byte	0x74
 4981 0ffe 00       		.sleb128 0
 4982 0fff 00       		.byte	0
 4983 1000 08       		.uleb128 0x8
 4984 1001 94040000 		.4byte	.LVL139
 4985 1005 ED230000 		.4byte	0x23ed
 4986 1009 1D100000 		.4byte	0x101d
 4987 100d 09       		.uleb128 0x9
 4988 100e 01       		.uleb128 0x1
 4989 100f 50       		.byte	0x50
 4990 1010 02       		.uleb128 0x2
 4991 1011 74       		.byte	0x74
 4992 1012 00       		.sleb128 0
 4993 1013 09       		.uleb128 0x9
 4994 1014 01       		.uleb128 0x1
 4995 1015 51       		.byte	0x51
 4996 1016 05       		.uleb128 0x5
 4997 1017 03       		.byte	0x3
 4998 1018 80010000 		.4byte	.LC15
 4999 101c 00       		.byte	0
 5000 101d 08       		.uleb128 0x8
 5001 101e 9A040000 		.4byte	.LVL140
 5002 1022 69230000 		.4byte	0x2369
 5003 1026 31100000 		.4byte	0x1031
 5004 102a 09       		.uleb128 0x9
 5005 102b 01       		.uleb128 0x1
 5006 102c 50       		.byte	0x50
ARM GAS  C:\Users\jerry\AppData\Local\Temp\cc40088P.s 			page 110


 5007 102d 02       		.uleb128 0x2
 5008 102e 74       		.byte	0x74
 5009 102f 00       		.sleb128 0
 5010 1030 00       		.byte	0
 5011 1031 08       		.uleb128 0x8
 5012 1032 BA040000 		.4byte	.LVL141
 5013 1036 0E240000 		.4byte	0x240e
 5014 103a 5D100000 		.4byte	0x105d
 5015 103e 09       		.uleb128 0x9
 5016 103f 01       		.uleb128 0x1
 5017 1040 51       		.byte	0x51
 5018 1041 01       		.uleb128 0x1
 5019 1042 30       		.byte	0x30
 5020 1043 09       		.uleb128 0x9
 5021 1044 01       		.uleb128 0x1
 5022 1045 52       		.byte	0x52
 5023 1046 02       		.uleb128 0x2
 5024 1047 74       		.byte	0x74
 5025 1048 00       		.sleb128 0
 5026 1049 09       		.uleb128 0x9
 5027 104a 01       		.uleb128 0x1
 5028 104b 53       		.byte	0x53
 5029 104c 01       		.uleb128 0x1
 5030 104d 36       		.byte	0x36
 5031 104e 09       		.uleb128 0x9
 5032 104f 02       		.uleb128 0x2
 5033 1050 7D       		.byte	0x7d
 5034 1051 00       		.sleb128 0
 5035 1052 02       		.uleb128 0x2
 5036 1053 75       		.byte	0x75
 5037 1054 00       		.sleb128 0
 5038 1055 09       		.uleb128 0x9
 5039 1056 02       		.uleb128 0x2
 5040 1057 7D       		.byte	0x7d
 5041 1058 04       		.sleb128 4
 5042 1059 02       		.uleb128 0x2
 5043 105a 74       		.byte	0x74
 5044 105b 00       		.sleb128 0
 5045 105c 00       		.byte	0
 5046 105d 08       		.uleb128 0x8
 5047 105e CC040000 		.4byte	.LVL142
 5048 1062 7C240000 		.4byte	0x247c
 5049 1066 83100000 		.4byte	0x1083
 5050 106a 09       		.uleb128 0x9
 5051 106b 01       		.uleb128 0x1
 5052 106c 51       		.byte	0x51
 5053 106d 02       		.uleb128 0x2
 5054 106e 09       		.byte	0x9
 5055 106f FF       		.byte	0xff
 5056 1070 09       		.uleb128 0x9
 5057 1071 01       		.uleb128 0x1
 5058 1072 52       		.byte	0x52
 5059 1073 01       		.uleb128 0x1
 5060 1074 36       		.byte	0x36
 5061 1075 09       		.uleb128 0x9
 5062 1076 01       		.uleb128 0x1
 5063 1077 53       		.byte	0x53
ARM GAS  C:\Users\jerry\AppData\Local\Temp\cc40088P.s 			page 111


 5064 1078 02       		.uleb128 0x2
 5065 1079 08       		.byte	0x8
 5066 107a 46       		.byte	0x46
 5067 107b 09       		.uleb128 0x9
 5068 107c 02       		.uleb128 0x2
 5069 107d 7D       		.byte	0x7d
 5070 107e 00       		.sleb128 0
 5071 107f 02       		.uleb128 0x2
 5072 1080 74       		.byte	0x74
 5073 1081 00       		.sleb128 0
 5074 1082 00       		.byte	0
 5075 1083 08       		.uleb128 0x8
 5076 1084 D4040000 		.4byte	.LVL143
 5077 1088 45240000 		.4byte	0x2445
 5078 108c 9D100000 		.4byte	0x109d
 5079 1090 09       		.uleb128 0x9
 5080 1091 01       		.uleb128 0x1
 5081 1092 50       		.byte	0x50
 5082 1093 02       		.uleb128 0x2
 5083 1094 74       		.byte	0x74
 5084 1095 00       		.sleb128 0
 5085 1096 09       		.uleb128 0x9
 5086 1097 01       		.uleb128 0x1
 5087 1098 51       		.byte	0x51
 5088 1099 02       		.uleb128 0x2
 5089 109a 75       		.byte	0x75
 5090 109b 00       		.sleb128 0
 5091 109c 00       		.byte	0
 5092 109d 08       		.uleb128 0x8
 5093 109e F4040000 		.4byte	.LVL144
 5094 10a2 3A240000 		.4byte	0x243a
 5095 10a6 B0100000 		.4byte	0x10b0
 5096 10aa 09       		.uleb128 0x9
 5097 10ab 01       		.uleb128 0x1
 5098 10ac 50       		.byte	0x50
 5099 10ad 01       		.uleb128 0x1
 5100 10ae 32       		.byte	0x32
 5101 10af 00       		.byte	0
 5102 10b0 08       		.uleb128 0x8
 5103 10b1 FA040000 		.4byte	.LVL145
 5104 10b5 5E230000 		.4byte	0x235e
 5105 10b9 C4100000 		.4byte	0x10c4
 5106 10bd 09       		.uleb128 0x9
 5107 10be 01       		.uleb128 0x1
 5108 10bf 50       		.byte	0x50
 5109 10c0 02       		.uleb128 0x2
 5110 10c1 08       		.byte	0x8
 5111 10c2 32       		.byte	0x32
 5112 10c3 00       		.byte	0
 5113 10c4 08       		.uleb128 0x8
 5114 10c5 08050000 		.4byte	.LVL146
 5115 10c9 03240000 		.4byte	0x2403
 5116 10cd D7100000 		.4byte	0x10d7
 5117 10d1 09       		.uleb128 0x9
 5118 10d2 01       		.uleb128 0x1
 5119 10d3 50       		.byte	0x50
 5120 10d4 01       		.uleb128 0x1
ARM GAS  C:\Users\jerry\AppData\Local\Temp\cc40088P.s 			page 112


 5121 10d5 37       		.byte	0x37
 5122 10d6 00       		.byte	0
 5123 10d7 08       		.uleb128 0x8
 5124 10d8 10050000 		.4byte	.LVL147
 5125 10dc 45240000 		.4byte	0x2445
 5126 10e0 F0100000 		.4byte	0x10f0
 5127 10e4 09       		.uleb128 0x9
 5128 10e5 01       		.uleb128 0x1
 5129 10e6 50       		.byte	0x50
 5130 10e7 01       		.uleb128 0x1
 5131 10e8 33       		.byte	0x33
 5132 10e9 09       		.uleb128 0x9
 5133 10ea 01       		.uleb128 0x1
 5134 10eb 51       		.byte	0x51
 5135 10ec 02       		.uleb128 0x2
 5136 10ed 08       		.byte	0x8
 5137 10ee C8       		.byte	0xc8
 5138 10ef 00       		.byte	0
 5139 10f0 08       		.uleb128 0x8
 5140 10f1 16050000 		.4byte	.LVL148
 5141 10f5 03240000 		.4byte	0x2403
 5142 10f9 03110000 		.4byte	0x1103
 5143 10fd 09       		.uleb128 0x9
 5144 10fe 01       		.uleb128 0x1
 5145 10ff 50       		.byte	0x50
 5146 1100 01       		.uleb128 0x1
 5147 1101 38       		.byte	0x38
 5148 1102 00       		.byte	0
 5149 1103 08       		.uleb128 0x8
 5150 1104 2E050000 		.4byte	.LVL149
 5151 1108 0E240000 		.4byte	0x240e
 5152 110c 33110000 		.4byte	0x1133
 5153 1110 09       		.uleb128 0x9
 5154 1111 01       		.uleb128 0x1
 5155 1112 50       		.byte	0x50
 5156 1113 02       		.uleb128 0x2
 5157 1114 08       		.byte	0x8
 5158 1115 C8       		.byte	0xc8
 5159 1116 09       		.uleb128 0x9
 5160 1117 01       		.uleb128 0x1
 5161 1118 51       		.byte	0x51
 5162 1119 01       		.uleb128 0x1
 5163 111a 31       		.byte	0x31
 5164 111b 09       		.uleb128 0x9
 5165 111c 01       		.uleb128 0x1
 5166 111d 52       		.byte	0x52
 5167 111e 01       		.uleb128 0x1
 5168 111f 31       		.byte	0x31
 5169 1120 09       		.uleb128 0x9
 5170 1121 01       		.uleb128 0x1
 5171 1122 53       		.byte	0x53
 5172 1123 01       		.uleb128 0x1
 5173 1124 35       		.byte	0x35
 5174 1125 09       		.uleb128 0x9
 5175 1126 02       		.uleb128 0x2
 5176 1127 7D       		.byte	0x7d
 5177 1128 00       		.sleb128 0
ARM GAS  C:\Users\jerry\AppData\Local\Temp\cc40088P.s 			page 113


 5178 1129 02       		.uleb128 0x2
 5179 112a 08       		.byte	0x8
 5180 112b C8       		.byte	0xc8
 5181 112c 09       		.uleb128 0x9
 5182 112d 02       		.uleb128 0x2
 5183 112e 7D       		.byte	0x7d
 5184 112f 04       		.sleb128 4
 5185 1130 01       		.uleb128 0x1
 5186 1131 31       		.byte	0x31
 5187 1132 00       		.byte	0
 5188 1133 08       		.uleb128 0x8
 5189 1134 34050000 		.4byte	.LVL150
 5190 1138 3A240000 		.4byte	0x243a
 5191 113c 46110000 		.4byte	0x1146
 5192 1140 09       		.uleb128 0x9
 5193 1141 01       		.uleb128 0x1
 5194 1142 50       		.byte	0x50
 5195 1143 01       		.uleb128 0x1
 5196 1144 36       		.byte	0x36
 5197 1145 00       		.byte	0
 5198 1146 08       		.uleb128 0x8
 5199 1147 3A050000 		.4byte	.LVL151
 5200 114b 5E230000 		.4byte	0x235e
 5201 114f 5A110000 		.4byte	0x115a
 5202 1153 09       		.uleb128 0x9
 5203 1154 01       		.uleb128 0x1
 5204 1155 50       		.byte	0x50
 5205 1156 02       		.uleb128 0x2
 5206 1157 08       		.byte	0x8
 5207 1158 32       		.byte	0x32
 5208 1159 00       		.byte	0
 5209 115a 08       		.uleb128 0x8
 5210 115b 5A050000 		.4byte	.LVL152
 5211 115f 0E240000 		.4byte	0x240e
 5212 1163 85110000 		.4byte	0x1185
 5213 1167 09       		.uleb128 0x9
 5214 1168 01       		.uleb128 0x1
 5215 1169 51       		.byte	0x51
 5216 116a 01       		.uleb128 0x1
 5217 116b 31       		.byte	0x31
 5218 116c 09       		.uleb128 0x9
 5219 116d 01       		.uleb128 0x1
 5220 116e 52       		.byte	0x52
 5221 116f 02       		.uleb128 0x2
 5222 1170 09       		.byte	0x9
 5223 1171 FF       		.byte	0xff
 5224 1172 09       		.uleb128 0x9
 5225 1173 01       		.uleb128 0x1
 5226 1174 53       		.byte	0x53
 5227 1175 01       		.uleb128 0x1
 5228 1176 36       		.byte	0x36
 5229 1177 09       		.uleb128 0x9
 5230 1178 02       		.uleb128 0x2
 5231 1179 7D       		.byte	0x7d
 5232 117a 00       		.sleb128 0
 5233 117b 02       		.uleb128 0x2
 5234 117c 08       		.byte	0x8
ARM GAS  C:\Users\jerry\AppData\Local\Temp\cc40088P.s 			page 114


 5235 117d C8       		.byte	0xc8
 5236 117e 09       		.uleb128 0x9
 5237 117f 02       		.uleb128 0x2
 5238 1180 7D       		.byte	0x7d
 5239 1181 04       		.sleb128 4
 5240 1182 01       		.uleb128 0x1
 5241 1183 31       		.byte	0x31
 5242 1184 00       		.byte	0
 5243 1185 08       		.uleb128 0x8
 5244 1186 62050000 		.4byte	.LVL153
 5245 118a 45240000 		.4byte	0x2445
 5246 118e 9E110000 		.4byte	0x119e
 5247 1192 09       		.uleb128 0x9
 5248 1193 01       		.uleb128 0x1
 5249 1194 50       		.byte	0x50
 5250 1195 01       		.uleb128 0x1
 5251 1196 30       		.byte	0x30
 5252 1197 09       		.uleb128 0x9
 5253 1198 01       		.uleb128 0x1
 5254 1199 51       		.byte	0x51
 5255 119a 02       		.uleb128 0x2
 5256 119b 08       		.byte	0x8
 5257 119c 46       		.byte	0x46
 5258 119d 00       		.byte	0
 5259 119e 08       		.uleb128 0x8
 5260 119f 7C050000 		.4byte	.LVL154
 5261 11a3 7C240000 		.4byte	0x247c
 5262 11a7 C2110000 		.4byte	0x11c2
 5263 11ab 09       		.uleb128 0x9
 5264 11ac 01       		.uleb128 0x1
 5265 11ad 51       		.byte	0x51
 5266 11ae 01       		.uleb128 0x1
 5267 11af 31       		.byte	0x31
 5268 11b0 09       		.uleb128 0x9
 5269 11b1 01       		.uleb128 0x1
 5270 11b2 52       		.byte	0x52
 5271 11b3 01       		.uleb128 0x1
 5272 11b4 35       		.byte	0x35
 5273 11b5 09       		.uleb128 0x9
 5274 11b6 01       		.uleb128 0x1
 5275 11b7 53       		.byte	0x53
 5276 11b8 02       		.uleb128 0x2
 5277 11b9 08       		.byte	0x8
 5278 11ba 46       		.byte	0x46
 5279 11bb 09       		.uleb128 0x9
 5280 11bc 02       		.uleb128 0x2
 5281 11bd 7D       		.byte	0x7d
 5282 11be 00       		.sleb128 0
 5283 11bf 01       		.uleb128 0x1
 5284 11c0 31       		.byte	0x31
 5285 11c1 00       		.byte	0
 5286 11c2 08       		.uleb128 0x8
 5287 11c3 82050000 		.4byte	.LVL155
 5288 11c7 03240000 		.4byte	0x2403
 5289 11cb D5110000 		.4byte	0x11d5
 5290 11cf 09       		.uleb128 0x9
 5291 11d0 01       		.uleb128 0x1
ARM GAS  C:\Users\jerry\AppData\Local\Temp\cc40088P.s 			page 115


 5292 11d1 50       		.byte	0x50
 5293 11d2 01       		.uleb128 0x1
 5294 11d3 37       		.byte	0x37
 5295 11d4 00       		.byte	0
 5296 11d5 08       		.uleb128 0x8
 5297 11d6 8A050000 		.4byte	.LVL156
 5298 11da 45240000 		.4byte	0x2445
 5299 11de EE110000 		.4byte	0x11ee
 5300 11e2 09       		.uleb128 0x9
 5301 11e3 01       		.uleb128 0x1
 5302 11e4 50       		.byte	0x50
 5303 11e5 01       		.uleb128 0x1
 5304 11e6 33       		.byte	0x33
 5305 11e7 09       		.uleb128 0x9
 5306 11e8 01       		.uleb128 0x1
 5307 11e9 51       		.byte	0x51
 5308 11ea 02       		.uleb128 0x2
 5309 11eb 08       		.byte	0x8
 5310 11ec 46       		.byte	0x46
 5311 11ed 00       		.byte	0
 5312 11ee 08       		.uleb128 0x8
 5313 11ef F2050000 		.4byte	.LVL157
 5314 11f3 0E240000 		.4byte	0x240e
 5315 11f7 1A120000 		.4byte	0x121a
 5316 11fb 09       		.uleb128 0x9
 5317 11fc 01       		.uleb128 0x1
 5318 11fd 51       		.byte	0x51
 5319 11fe 01       		.uleb128 0x1
 5320 11ff 30       		.byte	0x30
 5321 1200 09       		.uleb128 0x9
 5322 1201 01       		.uleb128 0x1
 5323 1202 52       		.byte	0x52
 5324 1203 02       		.uleb128 0x2
 5325 1204 74       		.byte	0x74
 5326 1205 00       		.sleb128 0
 5327 1206 09       		.uleb128 0x9
 5328 1207 01       		.uleb128 0x1
 5329 1208 53       		.byte	0x53
 5330 1209 01       		.uleb128 0x1
 5331 120a 36       		.byte	0x36
 5332 120b 09       		.uleb128 0x9
 5333 120c 02       		.uleb128 0x2
 5334 120d 7D       		.byte	0x7d
 5335 120e 00       		.sleb128 0
 5336 120f 02       		.uleb128 0x2
 5337 1210 75       		.byte	0x75
 5338 1211 00       		.sleb128 0
 5339 1212 09       		.uleb128 0x9
 5340 1213 02       		.uleb128 0x2
 5341 1214 7D       		.byte	0x7d
 5342 1215 04       		.sleb128 4
 5343 1216 02       		.uleb128 0x2
 5344 1217 74       		.byte	0x74
 5345 1218 00       		.sleb128 0
 5346 1219 00       		.byte	0
 5347 121a 08       		.uleb128 0x8
 5348 121b FA050000 		.4byte	.LVL158
ARM GAS  C:\Users\jerry\AppData\Local\Temp\cc40088P.s 			page 116


 5349 121f 45240000 		.4byte	0x2445
 5350 1223 34120000 		.4byte	0x1234
 5351 1227 09       		.uleb128 0x9
 5352 1228 01       		.uleb128 0x1
 5353 1229 50       		.byte	0x50
 5354 122a 02       		.uleb128 0x2
 5355 122b 74       		.byte	0x74
 5356 122c 00       		.sleb128 0
 5357 122d 09       		.uleb128 0x9
 5358 122e 01       		.uleb128 0x1
 5359 122f 51       		.byte	0x51
 5360 1230 02       		.uleb128 0x2
 5361 1231 75       		.byte	0x75
 5362 1232 00       		.sleb128 0
 5363 1233 00       		.byte	0
 5364 1234 08       		.uleb128 0x8
 5365 1235 26060000 		.4byte	.LVL159
 5366 1239 69230000 		.4byte	0x2369
 5367 123d 4B120000 		.4byte	0x124b
 5368 1241 09       		.uleb128 0x9
 5369 1242 01       		.uleb128 0x1
 5370 1243 50       		.byte	0x50
 5371 1244 05       		.uleb128 0x5
 5372 1245 03       		.byte	0x3
 5373 1246 98010000 		.4byte	.LC16
 5374 124a 00       		.byte	0
 5375 124b 08       		.uleb128 0x8
 5376 124c 3C060000 		.4byte	.LVL160
 5377 1250 0E240000 		.4byte	0x240e
 5378 1254 7D120000 		.4byte	0x127d
 5379 1258 09       		.uleb128 0x9
 5380 1259 01       		.uleb128 0x1
 5381 125a 50       		.byte	0x50
 5382 125b 02       		.uleb128 0x2
 5383 125c 08       		.byte	0x8
 5384 125d F0       		.byte	0xf0
 5385 125e 09       		.uleb128 0x9
 5386 125f 01       		.uleb128 0x1
 5387 1260 51       		.byte	0x51
 5388 1261 01       		.uleb128 0x1
 5389 1262 30       		.byte	0x30
 5390 1263 09       		.uleb128 0x9
 5391 1264 01       		.uleb128 0x1
 5392 1265 52       		.byte	0x52
 5393 1266 02       		.uleb128 0x2
 5394 1267 09       		.byte	0x9
 5395 1268 FF       		.byte	0xff
 5396 1269 09       		.uleb128 0x9
 5397 126a 01       		.uleb128 0x1
 5398 126b 53       		.byte	0x53
 5399 126c 01       		.uleb128 0x1
 5400 126d 30       		.byte	0x30
 5401 126e 09       		.uleb128 0x9
 5402 126f 02       		.uleb128 0x2
 5403 1270 7D       		.byte	0x7d
 5404 1271 00       		.sleb128 0
 5405 1272 02       		.uleb128 0x2
ARM GAS  C:\Users\jerry\AppData\Local\Temp\cc40088P.s 			page 117


 5406 1273 74       		.byte	0x74
 5407 1274 00       		.sleb128 0
 5408 1275 09       		.uleb128 0x9
 5409 1276 02       		.uleb128 0x2
 5410 1277 7D       		.byte	0x7d
 5411 1278 04       		.sleb128 4
 5412 1279 02       		.uleb128 0x2
 5413 127a 75       		.byte	0x75
 5414 127b 00       		.sleb128 0
 5415 127c 00       		.byte	0
 5416 127d 08       		.uleb128 0x8
 5417 127e 42060000 		.4byte	.LVL161
 5418 1282 03240000 		.4byte	0x2403
 5419 1286 90120000 		.4byte	0x1290
 5420 128a 09       		.uleb128 0x9
 5421 128b 01       		.uleb128 0x1
 5422 128c 50       		.byte	0x50
 5423 128d 01       		.uleb128 0x1
 5424 128e 37       		.byte	0x37
 5425 128f 00       		.byte	0
 5426 1290 08       		.uleb128 0x8
 5427 1291 4A060000 		.4byte	.LVL162
 5428 1295 45240000 		.4byte	0x2445
 5429 1299 A9120000 		.4byte	0x12a9
 5430 129d 09       		.uleb128 0x9
 5431 129e 01       		.uleb128 0x1
 5432 129f 50       		.byte	0x50
 5433 12a0 01       		.uleb128 0x1
 5434 12a1 30       		.byte	0x30
 5435 12a2 09       		.uleb128 0x9
 5436 12a3 01       		.uleb128 0x1
 5437 12a4 51       		.byte	0x51
 5438 12a5 02       		.uleb128 0x2
 5439 12a6 74       		.byte	0x74
 5440 12a7 00       		.sleb128 0
 5441 12a8 00       		.byte	0
 5442 12a9 08       		.uleb128 0x8
 5443 12aa 52060000 		.4byte	.LVL163
 5444 12ae 45240000 		.4byte	0x2445
 5445 12b2 C2120000 		.4byte	0x12c2
 5446 12b6 09       		.uleb128 0x9
 5447 12b7 01       		.uleb128 0x1
 5448 12b8 50       		.byte	0x50
 5449 12b9 01       		.uleb128 0x1
 5450 12ba 33       		.byte	0x33
 5451 12bb 09       		.uleb128 0x9
 5452 12bc 01       		.uleb128 0x1
 5453 12bd 51       		.byte	0x51
 5454 12be 02       		.uleb128 0x2
 5455 12bf 74       		.byte	0x74
 5456 12c0 00       		.sleb128 0
 5457 12c1 00       		.byte	0
 5458 12c2 08       		.uleb128 0x8
 5459 12c3 58060000 		.4byte	.LVL164
 5460 12c7 03240000 		.4byte	0x2403
 5461 12cb D5120000 		.4byte	0x12d5
 5462 12cf 09       		.uleb128 0x9
ARM GAS  C:\Users\jerry\AppData\Local\Temp\cc40088P.s 			page 118


 5463 12d0 01       		.uleb128 0x1
 5464 12d1 50       		.byte	0x50
 5465 12d2 01       		.uleb128 0x1
 5466 12d3 38       		.byte	0x38
 5467 12d4 00       		.byte	0
 5468 12d5 08       		.uleb128 0x8
 5469 12d6 68060000 		.4byte	.LVL165
 5470 12da 0E240000 		.4byte	0x240e
 5471 12de 08130000 		.4byte	0x1308
 5472 12e2 09       		.uleb128 0x9
 5473 12e3 01       		.uleb128 0x1
 5474 12e4 50       		.byte	0x50
 5475 12e5 02       		.uleb128 0x2
 5476 12e6 08       		.byte	0x8
 5477 12e7 96       		.byte	0x96
 5478 12e8 09       		.uleb128 0x9
 5479 12e9 01       		.uleb128 0x1
 5480 12ea 51       		.byte	0x51
 5481 12eb 02       		.uleb128 0x2
 5482 12ec 75       		.byte	0x75
 5483 12ed 00       		.sleb128 0
 5484 12ee 09       		.uleb128 0x9
 5485 12ef 01       		.uleb128 0x1
 5486 12f0 52       		.byte	0x52
 5487 12f1 02       		.uleb128 0x2
 5488 12f2 75       		.byte	0x75
 5489 12f3 00       		.sleb128 0
 5490 12f4 09       		.uleb128 0x9
 5491 12f5 01       		.uleb128 0x1
 5492 12f6 53       		.byte	0x53
 5493 12f7 01       		.uleb128 0x1
 5494 12f8 30       		.byte	0x30
 5495 12f9 09       		.uleb128 0x9
 5496 12fa 02       		.uleb128 0x2
 5497 12fb 7D       		.byte	0x7d
 5498 12fc 00       		.sleb128 0
 5499 12fd 02       		.uleb128 0x2
 5500 12fe 74       		.byte	0x74
 5501 12ff 00       		.sleb128 0
 5502 1300 09       		.uleb128 0x9
 5503 1301 02       		.uleb128 0x2
 5504 1302 7D       		.byte	0x7d
 5505 1303 04       		.sleb128 4
 5506 1304 02       		.uleb128 0x2
 5507 1305 75       		.byte	0x75
 5508 1306 00       		.sleb128 0
 5509 1307 00       		.byte	0
 5510 1308 08       		.uleb128 0x8
 5511 1309 70060000 		.4byte	.LVL166
 5512 130d 45240000 		.4byte	0x2445
 5513 1311 21130000 		.4byte	0x1321
 5514 1315 09       		.uleb128 0x9
 5515 1316 01       		.uleb128 0x1
 5516 1317 50       		.byte	0x50
 5517 1318 01       		.uleb128 0x1
 5518 1319 32       		.byte	0x32
 5519 131a 09       		.uleb128 0x9
ARM GAS  C:\Users\jerry\AppData\Local\Temp\cc40088P.s 			page 119


 5520 131b 01       		.uleb128 0x1
 5521 131c 51       		.byte	0x51
 5522 131d 02       		.uleb128 0x2
 5523 131e 74       		.byte	0x74
 5524 131f 00       		.sleb128 0
 5525 1320 00       		.byte	0
 5526 1321 08       		.uleb128 0x8
 5527 1322 82060000 		.4byte	.LVL167
 5528 1326 0E240000 		.4byte	0x240e
 5529 132a 53130000 		.4byte	0x1353
 5530 132e 09       		.uleb128 0x9
 5531 132f 01       		.uleb128 0x1
 5532 1330 50       		.byte	0x50
 5533 1331 02       		.uleb128 0x2
 5534 1332 08       		.byte	0x8
 5535 1333 F0       		.byte	0xf0
 5536 1334 09       		.uleb128 0x9
 5537 1335 01       		.uleb128 0x1
 5538 1336 51       		.byte	0x51
 5539 1337 01       		.uleb128 0x1
 5540 1338 30       		.byte	0x30
 5541 1339 09       		.uleb128 0x9
 5542 133a 01       		.uleb128 0x1
 5543 133b 52       		.byte	0x52
 5544 133c 02       		.uleb128 0x2
 5545 133d 09       		.byte	0x9
 5546 133e FF       		.byte	0xff
 5547 133f 09       		.uleb128 0x9
 5548 1340 01       		.uleb128 0x1
 5549 1341 53       		.byte	0x53
 5550 1342 01       		.uleb128 0x1
 5551 1343 30       		.byte	0x30
 5552 1344 09       		.uleb128 0x9
 5553 1345 02       		.uleb128 0x2
 5554 1346 7D       		.byte	0x7d
 5555 1347 00       		.sleb128 0
 5556 1348 02       		.uleb128 0x2
 5557 1349 74       		.byte	0x74
 5558 134a 00       		.sleb128 0
 5559 134b 09       		.uleb128 0x9
 5560 134c 02       		.uleb128 0x2
 5561 134d 7D       		.byte	0x7d
 5562 134e 04       		.sleb128 4
 5563 134f 02       		.uleb128 0x2
 5564 1350 75       		.byte	0x75
 5565 1351 00       		.sleb128 0
 5566 1352 00       		.byte	0
 5567 1353 08       		.uleb128 0x8
 5568 1354 8A060000 		.4byte	.LVL168
 5569 1358 45240000 		.4byte	0x2445
 5570 135c 6C130000 		.4byte	0x136c
 5571 1360 09       		.uleb128 0x9
 5572 1361 01       		.uleb128 0x1
 5573 1362 50       		.byte	0x50
 5574 1363 01       		.uleb128 0x1
 5575 1364 33       		.byte	0x33
 5576 1365 09       		.uleb128 0x9
ARM GAS  C:\Users\jerry\AppData\Local\Temp\cc40088P.s 			page 120


 5577 1366 01       		.uleb128 0x1
 5578 1367 51       		.byte	0x51
 5579 1368 02       		.uleb128 0x2
 5580 1369 74       		.byte	0x74
 5581 136a 00       		.sleb128 0
 5582 136b 00       		.byte	0
 5583 136c 08       		.uleb128 0x8
 5584 136d 92060000 		.4byte	.LVL169
 5585 1371 45240000 		.4byte	0x2445
 5586 1375 85130000 		.4byte	0x1385
 5587 1379 09       		.uleb128 0x9
 5588 137a 01       		.uleb128 0x1
 5589 137b 50       		.byte	0x50
 5590 137c 01       		.uleb128 0x1
 5591 137d 30       		.byte	0x30
 5592 137e 09       		.uleb128 0x9
 5593 137f 01       		.uleb128 0x1
 5594 1380 51       		.byte	0x51
 5595 1381 02       		.uleb128 0x2
 5596 1382 74       		.byte	0x74
 5597 1383 00       		.sleb128 0
 5598 1384 00       		.byte	0
 5599 1385 08       		.uleb128 0x8
 5600 1386 98060000 		.4byte	.LVL170
 5601 138a 03240000 		.4byte	0x2403
 5602 138e 98130000 		.4byte	0x1398
 5603 1392 09       		.uleb128 0x9
 5604 1393 01       		.uleb128 0x1
 5605 1394 50       		.byte	0x50
 5606 1395 01       		.uleb128 0x1
 5607 1396 38       		.byte	0x38
 5608 1397 00       		.byte	0
 5609 1398 08       		.uleb128 0x8
 5610 1399 9E060000 		.4byte	.LVL171
 5611 139d 3A240000 		.4byte	0x243a
 5612 13a1 AB130000 		.4byte	0x13ab
 5613 13a5 09       		.uleb128 0x9
 5614 13a6 01       		.uleb128 0x1
 5615 13a7 50       		.byte	0x50
 5616 13a8 01       		.uleb128 0x1
 5617 13a9 36       		.byte	0x36
 5618 13aa 00       		.byte	0
 5619 13ab 08       		.uleb128 0x8
 5620 13ac A4060000 		.4byte	.LVL172
 5621 13b0 5E230000 		.4byte	0x235e
 5622 13b4 BF130000 		.4byte	0x13bf
 5623 13b8 09       		.uleb128 0x9
 5624 13b9 01       		.uleb128 0x1
 5625 13ba 50       		.byte	0x50
 5626 13bb 02       		.uleb128 0x2
 5627 13bc 08       		.byte	0x8
 5628 13bd 32       		.byte	0x32
 5629 13be 00       		.byte	0
 5630 13bf 08       		.uleb128 0x8
 5631 13c0 BC060000 		.4byte	.LVL173
 5632 13c4 0E240000 		.4byte	0x240e
 5633 13c8 F2130000 		.4byte	0x13f2
ARM GAS  C:\Users\jerry\AppData\Local\Temp\cc40088P.s 			page 121


 5634 13cc 09       		.uleb128 0x9
 5635 13cd 01       		.uleb128 0x1
 5636 13ce 50       		.byte	0x50
 5637 13cf 02       		.uleb128 0x2
 5638 13d0 08       		.byte	0x8
 5639 13d1 96       		.byte	0x96
 5640 13d2 09       		.uleb128 0x9
 5641 13d3 01       		.uleb128 0x1
 5642 13d4 51       		.byte	0x51
 5643 13d5 02       		.uleb128 0x2
 5644 13d6 75       		.byte	0x75
 5645 13d7 00       		.sleb128 0
 5646 13d8 09       		.uleb128 0x9
 5647 13d9 01       		.uleb128 0x1
 5648 13da 52       		.byte	0x52
 5649 13db 02       		.uleb128 0x2
 5650 13dc 75       		.byte	0x75
 5651 13dd 00       		.sleb128 0
 5652 13de 09       		.uleb128 0x9
 5653 13df 01       		.uleb128 0x1
 5654 13e0 53       		.byte	0x53
 5655 13e1 01       		.uleb128 0x1
 5656 13e2 30       		.byte	0x30
 5657 13e3 09       		.uleb128 0x9
 5658 13e4 02       		.uleb128 0x2
 5659 13e5 7D       		.byte	0x7d
 5660 13e6 00       		.sleb128 0
 5661 13e7 02       		.uleb128 0x2
 5662 13e8 74       		.byte	0x74
 5663 13e9 00       		.sleb128 0
 5664 13ea 09       		.uleb128 0x9
 5665 13eb 02       		.uleb128 0x2
 5666 13ec 7D       		.byte	0x7d
 5667 13ed 04       		.sleb128 4
 5668 13ee 02       		.uleb128 0x2
 5669 13ef 75       		.byte	0x75
 5670 13f0 00       		.sleb128 0
 5671 13f1 00       		.byte	0
 5672 13f2 08       		.uleb128 0x8
 5673 13f3 C8060000 		.4byte	.LVL174
 5674 13f7 ED230000 		.4byte	0x23ed
 5675 13fb 0F140000 		.4byte	0x140f
 5676 13ff 09       		.uleb128 0x9
 5677 1400 01       		.uleb128 0x1
 5678 1401 50       		.byte	0x50
 5679 1402 02       		.uleb128 0x2
 5680 1403 74       		.byte	0x74
 5681 1404 00       		.sleb128 0
 5682 1405 09       		.uleb128 0x9
 5683 1406 01       		.uleb128 0x1
 5684 1407 51       		.byte	0x51
 5685 1408 05       		.uleb128 0x5
 5686 1409 03       		.byte	0x3
 5687 140a 68010000 		.4byte	.LC14
 5688 140e 00       		.byte	0
 5689 140f 08       		.uleb128 0x8
 5690 1410 CE060000 		.4byte	.LVL175
ARM GAS  C:\Users\jerry\AppData\Local\Temp\cc40088P.s 			page 122


 5691 1414 69230000 		.4byte	0x2369
 5692 1418 23140000 		.4byte	0x1423
 5693 141c 09       		.uleb128 0x9
 5694 141d 01       		.uleb128 0x1
 5695 141e 50       		.byte	0x50
 5696 141f 02       		.uleb128 0x2
 5697 1420 74       		.byte	0x74
 5698 1421 00       		.sleb128 0
 5699 1422 00       		.byte	0
 5700 1423 08       		.uleb128 0x8
 5701 1424 DA060000 		.4byte	.LVL176
 5702 1428 ED230000 		.4byte	0x23ed
 5703 142c 40140000 		.4byte	0x1440
 5704 1430 09       		.uleb128 0x9
 5705 1431 01       		.uleb128 0x1
 5706 1432 50       		.byte	0x50
 5707 1433 02       		.uleb128 0x2
 5708 1434 74       		.byte	0x74
 5709 1435 00       		.sleb128 0
 5710 1436 09       		.uleb128 0x9
 5711 1437 01       		.uleb128 0x1
 5712 1438 51       		.byte	0x51
 5713 1439 05       		.uleb128 0x5
 5714 143a 03       		.byte	0x3
 5715 143b 80010000 		.4byte	.LC15
 5716 143f 00       		.byte	0
 5717 1440 08       		.uleb128 0x8
 5718 1441 E0060000 		.4byte	.LVL177
 5719 1445 69230000 		.4byte	0x2369
 5720 1449 54140000 		.4byte	0x1454
 5721 144d 09       		.uleb128 0x9
 5722 144e 01       		.uleb128 0x1
 5723 144f 50       		.byte	0x50
 5724 1450 02       		.uleb128 0x2
 5725 1451 74       		.byte	0x74
 5726 1452 00       		.sleb128 0
 5727 1453 00       		.byte	0
 5728 1454 08       		.uleb128 0x8
 5729 1455 00070000 		.4byte	.LVL178
 5730 1459 0E240000 		.4byte	0x240e
 5731 145d 80140000 		.4byte	0x1480
 5732 1461 09       		.uleb128 0x9
 5733 1462 01       		.uleb128 0x1
 5734 1463 51       		.byte	0x51
 5735 1464 01       		.uleb128 0x1
 5736 1465 30       		.byte	0x30
 5737 1466 09       		.uleb128 0x9
 5738 1467 01       		.uleb128 0x1
 5739 1468 52       		.byte	0x52
 5740 1469 02       		.uleb128 0x2
 5741 146a 74       		.byte	0x74
 5742 146b 00       		.sleb128 0
 5743 146c 09       		.uleb128 0x9
 5744 146d 01       		.uleb128 0x1
 5745 146e 53       		.byte	0x53
 5746 146f 01       		.uleb128 0x1
 5747 1470 36       		.byte	0x36
ARM GAS  C:\Users\jerry\AppData\Local\Temp\cc40088P.s 			page 123


 5748 1471 09       		.uleb128 0x9
 5749 1472 02       		.uleb128 0x2
 5750 1473 7D       		.byte	0x7d
 5751 1474 00       		.sleb128 0
 5752 1475 02       		.uleb128 0x2
 5753 1476 75       		.byte	0x75
 5754 1477 00       		.sleb128 0
 5755 1478 09       		.uleb128 0x9
 5756 1479 02       		.uleb128 0x2
 5757 147a 7D       		.byte	0x7d
 5758 147b 04       		.sleb128 4
 5759 147c 02       		.uleb128 0x2
 5760 147d 74       		.byte	0x74
 5761 147e 00       		.sleb128 0
 5762 147f 00       		.byte	0
 5763 1480 08       		.uleb128 0x8
 5764 1481 08070000 		.4byte	.LVL179
 5765 1485 45240000 		.4byte	0x2445
 5766 1489 99140000 		.4byte	0x1499
 5767 148d 09       		.uleb128 0x9
 5768 148e 01       		.uleb128 0x1
 5769 148f 50       		.byte	0x50
 5770 1490 01       		.uleb128 0x1
 5771 1491 33       		.byte	0x33
 5772 1492 09       		.uleb128 0x9
 5773 1493 01       		.uleb128 0x1
 5774 1494 51       		.byte	0x51
 5775 1495 02       		.uleb128 0x2
 5776 1496 75       		.byte	0x75
 5777 1497 00       		.sleb128 0
 5778 1498 00       		.byte	0
 5779 1499 08       		.uleb128 0x8
 5780 149a 1A070000 		.4byte	.LVL180
 5781 149e 0E240000 		.4byte	0x240e
 5782 14a2 CB140000 		.4byte	0x14cb
 5783 14a6 09       		.uleb128 0x9
 5784 14a7 01       		.uleb128 0x1
 5785 14a8 50       		.byte	0x50
 5786 14a9 02       		.uleb128 0x2
 5787 14aa 08       		.byte	0x8
 5788 14ab F0       		.byte	0xf0
 5789 14ac 09       		.uleb128 0x9
 5790 14ad 01       		.uleb128 0x1
 5791 14ae 51       		.byte	0x51
 5792 14af 01       		.uleb128 0x1
 5793 14b0 30       		.byte	0x30
 5794 14b1 09       		.uleb128 0x9
 5795 14b2 01       		.uleb128 0x1
 5796 14b3 52       		.byte	0x52
 5797 14b4 02       		.uleb128 0x2
 5798 14b5 09       		.byte	0x9
 5799 14b6 FF       		.byte	0xff
 5800 14b7 09       		.uleb128 0x9
 5801 14b8 01       		.uleb128 0x1
 5802 14b9 53       		.byte	0x53
 5803 14ba 01       		.uleb128 0x1
 5804 14bb 30       		.byte	0x30
ARM GAS  C:\Users\jerry\AppData\Local\Temp\cc40088P.s 			page 124


 5805 14bc 09       		.uleb128 0x9
 5806 14bd 02       		.uleb128 0x2
 5807 14be 7D       		.byte	0x7d
 5808 14bf 00       		.sleb128 0
 5809 14c0 02       		.uleb128 0x2
 5810 14c1 75       		.byte	0x75
 5811 14c2 00       		.sleb128 0
 5812 14c3 09       		.uleb128 0x9
 5813 14c4 02       		.uleb128 0x2
 5814 14c5 7D       		.byte	0x7d
 5815 14c6 04       		.sleb128 4
 5816 14c7 02       		.uleb128 0x2
 5817 14c8 74       		.byte	0x74
 5818 14c9 00       		.sleb128 0
 5819 14ca 00       		.byte	0
 5820 14cb 08       		.uleb128 0x8
 5821 14cc 22070000 		.4byte	.LVL181
 5822 14d0 45240000 		.4byte	0x2445
 5823 14d4 E4140000 		.4byte	0x14e4
 5824 14d8 09       		.uleb128 0x9
 5825 14d9 01       		.uleb128 0x1
 5826 14da 50       		.byte	0x50
 5827 14db 01       		.uleb128 0x1
 5828 14dc 30       		.byte	0x30
 5829 14dd 09       		.uleb128 0x9
 5830 14de 01       		.uleb128 0x1
 5831 14df 51       		.byte	0x51
 5832 14e0 02       		.uleb128 0x2
 5833 14e1 75       		.byte	0x75
 5834 14e2 00       		.sleb128 0
 5835 14e3 00       		.byte	0
 5836 14e4 08       		.uleb128 0x8
 5837 14e5 2A070000 		.4byte	.LVL182
 5838 14e9 45240000 		.4byte	0x2445
 5839 14ed FE140000 		.4byte	0x14fe
 5840 14f1 09       		.uleb128 0x9
 5841 14f2 01       		.uleb128 0x1
 5842 14f3 50       		.byte	0x50
 5843 14f4 02       		.uleb128 0x2
 5844 14f5 74       		.byte	0x74
 5845 14f6 00       		.sleb128 0
 5846 14f7 09       		.uleb128 0x9
 5847 14f8 01       		.uleb128 0x1
 5848 14f9 51       		.byte	0x51
 5849 14fa 02       		.uleb128 0x2
 5850 14fb 75       		.byte	0x75
 5851 14fc 00       		.sleb128 0
 5852 14fd 00       		.byte	0
 5853 14fe 08       		.uleb128 0x8
 5854 14ff 3A070000 		.4byte	.LVL183
 5855 1503 0E240000 		.4byte	0x240e
 5856 1507 31150000 		.4byte	0x1531
 5857 150b 09       		.uleb128 0x9
 5858 150c 01       		.uleb128 0x1
 5859 150d 50       		.byte	0x50
 5860 150e 02       		.uleb128 0x2
 5861 150f 08       		.byte	0x8
ARM GAS  C:\Users\jerry\AppData\Local\Temp\cc40088P.s 			page 125


 5862 1510 96       		.byte	0x96
 5863 1511 09       		.uleb128 0x9
 5864 1512 01       		.uleb128 0x1
 5865 1513 51       		.byte	0x51
 5866 1514 02       		.uleb128 0x2
 5867 1515 74       		.byte	0x74
 5868 1516 00       		.sleb128 0
 5869 1517 09       		.uleb128 0x9
 5870 1518 01       		.uleb128 0x1
 5871 1519 52       		.byte	0x52
 5872 151a 02       		.uleb128 0x2
 5873 151b 74       		.byte	0x74
 5874 151c 00       		.sleb128 0
 5875 151d 09       		.uleb128 0x9
 5876 151e 01       		.uleb128 0x1
 5877 151f 53       		.byte	0x53
 5878 1520 01       		.uleb128 0x1
 5879 1521 30       		.byte	0x30
 5880 1522 09       		.uleb128 0x9
 5881 1523 02       		.uleb128 0x2
 5882 1524 7D       		.byte	0x7d
 5883 1525 00       		.sleb128 0
 5884 1526 02       		.uleb128 0x2
 5885 1527 75       		.byte	0x75
 5886 1528 00       		.sleb128 0
 5887 1529 09       		.uleb128 0x9
 5888 152a 02       		.uleb128 0x2
 5889 152b 7D       		.byte	0x7d
 5890 152c 04       		.sleb128 4
 5891 152d 02       		.uleb128 0x2
 5892 152e 74       		.byte	0x74
 5893 152f 00       		.sleb128 0
 5894 1530 00       		.byte	0
 5895 1531 08       		.uleb128 0x8
 5896 1532 58070000 		.4byte	.LVL184
 5897 1536 3A240000 		.4byte	0x243a
 5898 153a 44150000 		.4byte	0x1544
 5899 153e 09       		.uleb128 0x9
 5900 153f 01       		.uleb128 0x1
 5901 1540 50       		.byte	0x50
 5902 1541 01       		.uleb128 0x1
 5903 1542 33       		.byte	0x33
 5904 1543 00       		.byte	0
 5905 1544 08       		.uleb128 0x8
 5906 1545 5E070000 		.4byte	.LVL185
 5907 1549 5E230000 		.4byte	0x235e
 5908 154d 58150000 		.4byte	0x1558
 5909 1551 09       		.uleb128 0x9
 5910 1552 01       		.uleb128 0x1
 5911 1553 50       		.byte	0x50
 5912 1554 02       		.uleb128 0x2
 5913 1555 08       		.byte	0x8
 5914 1556 32       		.byte	0x32
 5915 1557 00       		.byte	0
 5916 1558 08       		.uleb128 0x8
 5917 1559 6C070000 		.4byte	.LVL186
 5918 155d 03240000 		.4byte	0x2403
ARM GAS  C:\Users\jerry\AppData\Local\Temp\cc40088P.s 			page 126


 5919 1561 6B150000 		.4byte	0x156b
 5920 1565 09       		.uleb128 0x9
 5921 1566 01       		.uleb128 0x1
 5922 1567 50       		.byte	0x50
 5923 1568 01       		.uleb128 0x1
 5924 1569 37       		.byte	0x37
 5925 156a 00       		.byte	0
 5926 156b 08       		.uleb128 0x8
 5927 156c 74070000 		.4byte	.LVL187
 5928 1570 45240000 		.4byte	0x2445
 5929 1574 84150000 		.4byte	0x1584
 5930 1578 09       		.uleb128 0x9
 5931 1579 01       		.uleb128 0x1
 5932 157a 50       		.byte	0x50
 5933 157b 01       		.uleb128 0x1
 5934 157c 33       		.byte	0x33
 5935 157d 09       		.uleb128 0x9
 5936 157e 01       		.uleb128 0x1
 5937 157f 51       		.byte	0x51
 5938 1580 02       		.uleb128 0x2
 5939 1581 08       		.byte	0x8
 5940 1582 C8       		.byte	0xc8
 5941 1583 00       		.byte	0
 5942 1584 08       		.uleb128 0x8
 5943 1585 8A070000 		.4byte	.LVL188
 5944 1589 0E240000 		.4byte	0x240e
 5945 158d B6150000 		.4byte	0x15b6
 5946 1591 09       		.uleb128 0x9
 5947 1592 01       		.uleb128 0x1
 5948 1593 50       		.byte	0x50
 5949 1594 02       		.uleb128 0x2
 5950 1595 08       		.byte	0x8
 5951 1596 F0       		.byte	0xf0
 5952 1597 09       		.uleb128 0x9
 5953 1598 01       		.uleb128 0x1
 5954 1599 51       		.byte	0x51
 5955 159a 01       		.uleb128 0x1
 5956 159b 30       		.byte	0x30
 5957 159c 09       		.uleb128 0x9
 5958 159d 01       		.uleb128 0x1
 5959 159e 52       		.byte	0x52
 5960 159f 02       		.uleb128 0x2
 5961 15a0 09       		.byte	0x9
 5962 15a1 FF       		.byte	0xff
 5963 15a2 09       		.uleb128 0x9
 5964 15a3 01       		.uleb128 0x1
 5965 15a4 53       		.byte	0x53
 5966 15a5 01       		.uleb128 0x1
 5967 15a6 30       		.byte	0x30
 5968 15a7 09       		.uleb128 0x9
 5969 15a8 02       		.uleb128 0x2
 5970 15a9 7D       		.byte	0x7d
 5971 15aa 00       		.sleb128 0
 5972 15ab 02       		.uleb128 0x2
 5973 15ac 74       		.byte	0x74
 5974 15ad 00       		.sleb128 0
 5975 15ae 09       		.uleb128 0x9
ARM GAS  C:\Users\jerry\AppData\Local\Temp\cc40088P.s 			page 127


 5976 15af 02       		.uleb128 0x2
 5977 15b0 7D       		.byte	0x7d
 5978 15b1 04       		.sleb128 4
 5979 15b2 02       		.uleb128 0x2
 5980 15b3 75       		.byte	0x75
 5981 15b4 00       		.sleb128 0
 5982 15b5 00       		.byte	0
 5983 15b6 08       		.uleb128 0x8
 5984 15b7 92070000 		.4byte	.LVL189
 5985 15bb 45240000 		.4byte	0x2445
 5986 15bf CF150000 		.4byte	0x15cf
 5987 15c3 09       		.uleb128 0x9
 5988 15c4 01       		.uleb128 0x1
 5989 15c5 50       		.byte	0x50
 5990 15c6 01       		.uleb128 0x1
 5991 15c7 30       		.byte	0x30
 5992 15c8 09       		.uleb128 0x9
 5993 15c9 01       		.uleb128 0x1
 5994 15ca 51       		.byte	0x51
 5995 15cb 02       		.uleb128 0x2
 5996 15cc 74       		.byte	0x74
 5997 15cd 00       		.sleb128 0
 5998 15ce 00       		.byte	0
 5999 15cf 08       		.uleb128 0x8
 6000 15d0 9A070000 		.4byte	.LVL190
 6001 15d4 45240000 		.4byte	0x2445
 6002 15d8 E9150000 		.4byte	0x15e9
 6003 15dc 09       		.uleb128 0x9
 6004 15dd 01       		.uleb128 0x1
 6005 15de 50       		.byte	0x50
 6006 15df 02       		.uleb128 0x2
 6007 15e0 75       		.byte	0x75
 6008 15e1 00       		.sleb128 0
 6009 15e2 09       		.uleb128 0x9
 6010 15e3 01       		.uleb128 0x1
 6011 15e4 51       		.byte	0x51
 6012 15e5 02       		.uleb128 0x2
 6013 15e6 74       		.byte	0x74
 6014 15e7 00       		.sleb128 0
 6015 15e8 00       		.byte	0
 6016 15e9 08       		.uleb128 0x8
 6017 15ea A0070000 		.4byte	.LVL191
 6018 15ee 03240000 		.4byte	0x2403
 6019 15f2 FC150000 		.4byte	0x15fc
 6020 15f6 09       		.uleb128 0x9
 6021 15f7 01       		.uleb128 0x1
 6022 15f8 50       		.byte	0x50
 6023 15f9 01       		.uleb128 0x1
 6024 15fa 38       		.byte	0x38
 6025 15fb 00       		.byte	0
 6026 15fc 08       		.uleb128 0x8
 6027 15fd B8070000 		.4byte	.LVL192
 6028 1601 0E240000 		.4byte	0x240e
 6029 1605 2F160000 		.4byte	0x162f
 6030 1609 09       		.uleb128 0x9
 6031 160a 01       		.uleb128 0x1
 6032 160b 50       		.byte	0x50
ARM GAS  C:\Users\jerry\AppData\Local\Temp\cc40088P.s 			page 128


 6033 160c 02       		.uleb128 0x2
 6034 160d 74       		.byte	0x74
 6035 160e 00       		.sleb128 0
 6036 160f 09       		.uleb128 0x9
 6037 1610 01       		.uleb128 0x1
 6038 1611 51       		.byte	0x51
 6039 1612 02       		.uleb128 0x2
 6040 1613 75       		.byte	0x75
 6041 1614 00       		.sleb128 0
 6042 1615 09       		.uleb128 0x9
 6043 1616 01       		.uleb128 0x1
 6044 1617 52       		.byte	0x52
 6045 1618 02       		.uleb128 0x2
 6046 1619 75       		.byte	0x75
 6047 161a 00       		.sleb128 0
 6048 161b 09       		.uleb128 0x9
 6049 161c 01       		.uleb128 0x1
 6050 161d 53       		.byte	0x53
 6051 161e 01       		.uleb128 0x1
 6052 161f 35       		.byte	0x35
 6053 1620 09       		.uleb128 0x9
 6054 1621 02       		.uleb128 0x2
 6055 1622 7D       		.byte	0x7d
 6056 1623 00       		.sleb128 0
 6057 1624 02       		.uleb128 0x2
 6058 1625 74       		.byte	0x74
 6059 1626 00       		.sleb128 0
 6060 1627 09       		.uleb128 0x9
 6061 1628 02       		.uleb128 0x2
 6062 1629 7D       		.byte	0x7d
 6063 162a 04       		.sleb128 4
 6064 162b 02       		.uleb128 0x2
 6065 162c 75       		.byte	0x75
 6066 162d 00       		.sleb128 0
 6067 162e 00       		.byte	0
 6068 162f 08       		.uleb128 0x8
 6069 1630 BE070000 		.4byte	.LVL193
 6070 1634 3A240000 		.4byte	0x243a
 6071 1638 42160000 		.4byte	0x1642
 6072 163c 09       		.uleb128 0x9
 6073 163d 01       		.uleb128 0x1
 6074 163e 50       		.byte	0x50
 6075 163f 01       		.uleb128 0x1
 6076 1640 36       		.byte	0x36
 6077 1641 00       		.byte	0
 6078 1642 08       		.uleb128 0x8
 6079 1643 C4070000 		.4byte	.LVL194
 6080 1647 5E230000 		.4byte	0x235e
 6081 164b 56160000 		.4byte	0x1656
 6082 164f 09       		.uleb128 0x9
 6083 1650 01       		.uleb128 0x1
 6084 1651 50       		.byte	0x50
 6085 1652 02       		.uleb128 0x2
 6086 1653 08       		.byte	0x8
 6087 1654 32       		.byte	0x32
 6088 1655 00       		.byte	0
 6089 1656 08       		.uleb128 0x8
ARM GAS  C:\Users\jerry\AppData\Local\Temp\cc40088P.s 			page 129


 6090 1657 E4070000 		.4byte	.LVL195
 6091 165b 0E240000 		.4byte	0x240e
 6092 165f 83160000 		.4byte	0x1683
 6093 1663 09       		.uleb128 0x9
 6094 1664 01       		.uleb128 0x1
 6095 1665 51       		.byte	0x51
 6096 1666 02       		.uleb128 0x2
 6097 1667 75       		.byte	0x75
 6098 1668 00       		.sleb128 0
 6099 1669 09       		.uleb128 0x9
 6100 166a 01       		.uleb128 0x1
 6101 166b 52       		.byte	0x52
 6102 166c 02       		.uleb128 0x2
 6103 166d 09       		.byte	0x9
 6104 166e FF       		.byte	0xff
 6105 166f 09       		.uleb128 0x9
 6106 1670 01       		.uleb128 0x1
 6107 1671 53       		.byte	0x53
 6108 1672 01       		.uleb128 0x1
 6109 1673 36       		.byte	0x36
 6110 1674 09       		.uleb128 0x9
 6111 1675 02       		.uleb128 0x2
 6112 1676 7D       		.byte	0x7d
 6113 1677 00       		.sleb128 0
 6114 1678 02       		.uleb128 0x2
 6115 1679 74       		.byte	0x74
 6116 167a 00       		.sleb128 0
 6117 167b 09       		.uleb128 0x9
 6118 167c 02       		.uleb128 0x2
 6119 167d 7D       		.byte	0x7d
 6120 167e 04       		.sleb128 4
 6121 167f 02       		.uleb128 0x2
 6122 1680 75       		.byte	0x75
 6123 1681 00       		.sleb128 0
 6124 1682 00       		.byte	0
 6125 1683 08       		.uleb128 0x8
 6126 1684 EC070000 		.4byte	.LVL196
 6127 1688 45240000 		.4byte	0x2445
 6128 168c 9C160000 		.4byte	0x169c
 6129 1690 09       		.uleb128 0x9
 6130 1691 01       		.uleb128 0x1
 6131 1692 50       		.byte	0x50
 6132 1693 01       		.uleb128 0x1
 6133 1694 30       		.byte	0x30
 6134 1695 09       		.uleb128 0x9
 6135 1696 01       		.uleb128 0x1
 6136 1697 51       		.byte	0x51
 6137 1698 02       		.uleb128 0x2
 6138 1699 08       		.byte	0x8
 6139 169a 46       		.byte	0x46
 6140 169b 00       		.byte	0
 6141 169c 08       		.uleb128 0x8
 6142 169d 08080000 		.4byte	.LVL197
 6143 16a1 7C240000 		.4byte	0x247c
 6144 16a5 C2160000 		.4byte	0x16c2
 6145 16a9 09       		.uleb128 0x9
 6146 16aa 01       		.uleb128 0x1
ARM GAS  C:\Users\jerry\AppData\Local\Temp\cc40088P.s 			page 130


 6147 16ab 51       		.byte	0x51
 6148 16ac 02       		.uleb128 0x2
 6149 16ad 74       		.byte	0x74
 6150 16ae 00       		.sleb128 0
 6151 16af 09       		.uleb128 0x9
 6152 16b0 01       		.uleb128 0x1
 6153 16b1 52       		.byte	0x52
 6154 16b2 01       		.uleb128 0x1
 6155 16b3 35       		.byte	0x35
 6156 16b4 09       		.uleb128 0x9
 6157 16b5 01       		.uleb128 0x1
 6158 16b6 53       		.byte	0x53
 6159 16b7 02       		.uleb128 0x2
 6160 16b8 08       		.byte	0x8
 6161 16b9 46       		.byte	0x46
 6162 16ba 09       		.uleb128 0x9
 6163 16bb 02       		.uleb128 0x2
 6164 16bc 7D       		.byte	0x7d
 6165 16bd 00       		.sleb128 0
 6166 16be 02       		.uleb128 0x2
 6167 16bf 74       		.byte	0x74
 6168 16c0 00       		.sleb128 0
 6169 16c1 00       		.byte	0
 6170 16c2 08       		.uleb128 0x8
 6171 16c3 0E080000 		.4byte	.LVL198
 6172 16c7 03240000 		.4byte	0x2403
 6173 16cb D5160000 		.4byte	0x16d5
 6174 16cf 09       		.uleb128 0x9
 6175 16d0 01       		.uleb128 0x1
 6176 16d1 50       		.byte	0x50
 6177 16d2 01       		.uleb128 0x1
 6178 16d3 37       		.byte	0x37
 6179 16d4 00       		.byte	0
 6180 16d5 08       		.uleb128 0x8
 6181 16d6 16080000 		.4byte	.LVL199
 6182 16da 45240000 		.4byte	0x2445
 6183 16de EF160000 		.4byte	0x16ef
 6184 16e2 09       		.uleb128 0x9
 6185 16e3 01       		.uleb128 0x1
 6186 16e4 50       		.byte	0x50
 6187 16e5 02       		.uleb128 0x2
 6188 16e6 74       		.byte	0x74
 6189 16e7 00       		.sleb128 0
 6190 16e8 09       		.uleb128 0x9
 6191 16e9 01       		.uleb128 0x1
 6192 16ea 51       		.byte	0x51
 6193 16eb 02       		.uleb128 0x2
 6194 16ec 08       		.byte	0x8
 6195 16ed 46       		.byte	0x46
 6196 16ee 00       		.byte	0
 6197 16ef 08       		.uleb128 0x8
 6198 16f0 32080000 		.4byte	.LVL200
 6199 16f4 0E240000 		.4byte	0x240e
 6200 16f8 1B170000 		.4byte	0x171b
 6201 16fc 09       		.uleb128 0x9
 6202 16fd 01       		.uleb128 0x1
 6203 16fe 51       		.byte	0x51
ARM GAS  C:\Users\jerry\AppData\Local\Temp\cc40088P.s 			page 131


 6204 16ff 01       		.uleb128 0x1
 6205 1700 30       		.byte	0x30
 6206 1701 09       		.uleb128 0x9
 6207 1702 01       		.uleb128 0x1
 6208 1703 52       		.byte	0x52
 6209 1704 02       		.uleb128 0x2
 6210 1705 74       		.byte	0x74
 6211 1706 00       		.sleb128 0
 6212 1707 09       		.uleb128 0x9
 6213 1708 01       		.uleb128 0x1
 6214 1709 53       		.byte	0x53
 6215 170a 01       		.uleb128 0x1
 6216 170b 36       		.byte	0x36
 6217 170c 09       		.uleb128 0x9
 6218 170d 02       		.uleb128 0x2
 6219 170e 7D       		.byte	0x7d
 6220 170f 00       		.sleb128 0
 6221 1710 02       		.uleb128 0x2
 6222 1711 75       		.byte	0x75
 6223 1712 00       		.sleb128 0
 6224 1713 09       		.uleb128 0x9
 6225 1714 02       		.uleb128 0x2
 6226 1715 7D       		.byte	0x7d
 6227 1716 04       		.sleb128 4
 6228 1717 02       		.uleb128 0x2
 6229 1718 74       		.byte	0x74
 6230 1719 00       		.sleb128 0
 6231 171a 00       		.byte	0
 6232 171b 08       		.uleb128 0x8
 6233 171c 3A080000 		.4byte	.LVL201
 6234 1720 45240000 		.4byte	0x2445
 6235 1724 35170000 		.4byte	0x1735
 6236 1728 09       		.uleb128 0x9
 6237 1729 01       		.uleb128 0x1
 6238 172a 50       		.byte	0x50
 6239 172b 02       		.uleb128 0x2
 6240 172c 74       		.byte	0x74
 6241 172d 00       		.sleb128 0
 6242 172e 09       		.uleb128 0x9
 6243 172f 01       		.uleb128 0x1
 6244 1730 51       		.byte	0x51
 6245 1731 02       		.uleb128 0x2
 6246 1732 75       		.byte	0x75
 6247 1733 00       		.sleb128 0
 6248 1734 00       		.byte	0
 6249 1735 08       		.uleb128 0x8
 6250 1736 4A080000 		.4byte	.LVL202
 6251 173a 0E240000 		.4byte	0x240e
 6252 173e 68170000 		.4byte	0x1768
 6253 1742 09       		.uleb128 0x9
 6254 1743 01       		.uleb128 0x1
 6255 1744 50       		.byte	0x50
 6256 1745 02       		.uleb128 0x2
 6257 1746 08       		.byte	0x8
 6258 1747 96       		.byte	0x96
 6259 1748 09       		.uleb128 0x9
 6260 1749 01       		.uleb128 0x1
ARM GAS  C:\Users\jerry\AppData\Local\Temp\cc40088P.s 			page 132


 6261 174a 51       		.byte	0x51
 6262 174b 02       		.uleb128 0x2
 6263 174c 74       		.byte	0x74
 6264 174d 00       		.sleb128 0
 6265 174e 09       		.uleb128 0x9
 6266 174f 01       		.uleb128 0x1
 6267 1750 52       		.byte	0x52
 6268 1751 02       		.uleb128 0x2
 6269 1752 74       		.byte	0x74
 6270 1753 00       		.sleb128 0
 6271 1754 09       		.uleb128 0x9
 6272 1755 01       		.uleb128 0x1
 6273 1756 53       		.byte	0x53
 6274 1757 01       		.uleb128 0x1
 6275 1758 35       		.byte	0x35
 6276 1759 09       		.uleb128 0x9
 6277 175a 02       		.uleb128 0x2
 6278 175b 7D       		.byte	0x7d
 6279 175c 00       		.sleb128 0
 6280 175d 02       		.uleb128 0x2
 6281 175e 75       		.byte	0x75
 6282 175f 00       		.sleb128 0
 6283 1760 09       		.uleb128 0x9
 6284 1761 02       		.uleb128 0x2
 6285 1762 7D       		.byte	0x7d
 6286 1763 04       		.sleb128 4
 6287 1764 02       		.uleb128 0x2
 6288 1765 74       		.byte	0x74
 6289 1766 00       		.sleb128 0
 6290 1767 00       		.byte	0
 6291 1768 08       		.uleb128 0x8
 6292 1769 AA080000 		.4byte	.LVL203
 6293 176d 69230000 		.4byte	0x2369
 6294 1771 7F170000 		.4byte	0x177f
 6295 1775 09       		.uleb128 0x9
 6296 1776 01       		.uleb128 0x1
 6297 1777 50       		.byte	0x50
 6298 1778 05       		.uleb128 0x5
 6299 1779 03       		.byte	0x3
 6300 177a AC010000 		.4byte	.LC17
 6301 177e 00       		.byte	0
 6302 177f 08       		.uleb128 0x8
 6303 1780 CE080000 		.4byte	.LVL204
 6304 1784 0E240000 		.4byte	0x240e
 6305 1788 AB170000 		.4byte	0x17ab
 6306 178c 09       		.uleb128 0x9
 6307 178d 01       		.uleb128 0x1
 6308 178e 51       		.byte	0x51
 6309 178f 01       		.uleb128 0x1
 6310 1790 30       		.byte	0x30
 6311 1791 09       		.uleb128 0x9
 6312 1792 01       		.uleb128 0x1
 6313 1793 52       		.byte	0x52
 6314 1794 02       		.uleb128 0x2
 6315 1795 74       		.byte	0x74
 6316 1796 00       		.sleb128 0
 6317 1797 09       		.uleb128 0x9
ARM GAS  C:\Users\jerry\AppData\Local\Temp\cc40088P.s 			page 133


 6318 1798 01       		.uleb128 0x1
 6319 1799 53       		.byte	0x53
 6320 179a 01       		.uleb128 0x1
 6321 179b 34       		.byte	0x34
 6322 179c 09       		.uleb128 0x9
 6323 179d 02       		.uleb128 0x2
 6324 179e 7D       		.byte	0x7d
 6325 179f 00       		.sleb128 0
 6326 17a0 02       		.uleb128 0x2
 6327 17a1 75       		.byte	0x75
 6328 17a2 00       		.sleb128 0
 6329 17a3 09       		.uleb128 0x9
 6330 17a4 02       		.uleb128 0x2
 6331 17a5 7D       		.byte	0x7d
 6332 17a6 04       		.sleb128 4
 6333 17a7 02       		.uleb128 0x2
 6334 17a8 74       		.byte	0x74
 6335 17a9 00       		.sleb128 0
 6336 17aa 00       		.byte	0
 6337 17ab 08       		.uleb128 0x8
 6338 17ac D4080000 		.4byte	.LVL205
 6339 17b0 03240000 		.4byte	0x2403
 6340 17b4 BE170000 		.4byte	0x17be
 6341 17b8 09       		.uleb128 0x9
 6342 17b9 01       		.uleb128 0x1
 6343 17ba 50       		.byte	0x50
 6344 17bb 01       		.uleb128 0x1
 6345 17bc 38       		.byte	0x38
 6346 17bd 00       		.byte	0
 6347 17be 08       		.uleb128 0x8
 6348 17bf DC080000 		.4byte	.LVL206
 6349 17c3 45240000 		.4byte	0x2445
 6350 17c7 D7170000 		.4byte	0x17d7
 6351 17cb 09       		.uleb128 0x9
 6352 17cc 01       		.uleb128 0x1
 6353 17cd 50       		.byte	0x50
 6354 17ce 01       		.uleb128 0x1
 6355 17cf 30       		.byte	0x30
 6356 17d0 09       		.uleb128 0x9
 6357 17d1 01       		.uleb128 0x1
 6358 17d2 51       		.byte	0x51
 6359 17d3 02       		.uleb128 0x2
 6360 17d4 75       		.byte	0x75
 6361 17d5 00       		.sleb128 0
 6362 17d6 00       		.byte	0
 6363 17d7 08       		.uleb128 0x8
 6364 17d8 E2080000 		.4byte	.LVL207
 6365 17dc 03240000 		.4byte	0x2403
 6366 17e0 EA170000 		.4byte	0x17ea
 6367 17e4 09       		.uleb128 0x9
 6368 17e5 01       		.uleb128 0x1
 6369 17e6 50       		.byte	0x50
 6370 17e7 01       		.uleb128 0x1
 6371 17e8 38       		.byte	0x38
 6372 17e9 00       		.byte	0
 6373 17ea 08       		.uleb128 0x8
 6374 17eb FC080000 		.4byte	.LVL208
ARM GAS  C:\Users\jerry\AppData\Local\Temp\cc40088P.s 			page 134


 6375 17ef 0E240000 		.4byte	0x240e
 6376 17f3 17180000 		.4byte	0x1817
 6377 17f7 09       		.uleb128 0x9
 6378 17f8 01       		.uleb128 0x1
 6379 17f9 51       		.byte	0x51
 6380 17fa 02       		.uleb128 0x2
 6381 17fb 74       		.byte	0x74
 6382 17fc 00       		.sleb128 0
 6383 17fd 09       		.uleb128 0x9
 6384 17fe 01       		.uleb128 0x1
 6385 17ff 52       		.byte	0x52
 6386 1800 02       		.uleb128 0x2
 6387 1801 74       		.byte	0x74
 6388 1802 00       		.sleb128 0
 6389 1803 09       		.uleb128 0x9
 6390 1804 01       		.uleb128 0x1
 6391 1805 53       		.byte	0x53
 6392 1806 01       		.uleb128 0x1
 6393 1807 35       		.byte	0x35
 6394 1808 09       		.uleb128 0x9
 6395 1809 02       		.uleb128 0x2
 6396 180a 7D       		.byte	0x7d
 6397 180b 00       		.sleb128 0
 6398 180c 02       		.uleb128 0x2
 6399 180d 75       		.byte	0x75
 6400 180e 00       		.sleb128 0
 6401 180f 09       		.uleb128 0x9
 6402 1810 02       		.uleb128 0x2
 6403 1811 7D       		.byte	0x7d
 6404 1812 04       		.sleb128 4
 6405 1813 02       		.uleb128 0x2
 6406 1814 74       		.byte	0x74
 6407 1815 00       		.sleb128 0
 6408 1816 00       		.byte	0
 6409 1817 08       		.uleb128 0x8
 6410 1818 02090000 		.4byte	.LVL209
 6411 181c 03240000 		.4byte	0x2403
 6412 1820 2A180000 		.4byte	0x182a
 6413 1824 09       		.uleb128 0x9
 6414 1825 01       		.uleb128 0x1
 6415 1826 50       		.byte	0x50
 6416 1827 01       		.uleb128 0x1
 6417 1828 37       		.byte	0x37
 6418 1829 00       		.byte	0
 6419 182a 08       		.uleb128 0x8
 6420 182b 0A090000 		.4byte	.LVL210
 6421 182f 45240000 		.4byte	0x2445
 6422 1833 44180000 		.4byte	0x1844
 6423 1837 09       		.uleb128 0x9
 6424 1838 01       		.uleb128 0x1
 6425 1839 50       		.byte	0x50
 6426 183a 02       		.uleb128 0x2
 6427 183b 74       		.byte	0x74
 6428 183c 00       		.sleb128 0
 6429 183d 09       		.uleb128 0x9
 6430 183e 01       		.uleb128 0x1
 6431 183f 51       		.byte	0x51
ARM GAS  C:\Users\jerry\AppData\Local\Temp\cc40088P.s 			page 135


 6432 1840 02       		.uleb128 0x2
 6433 1841 75       		.byte	0x75
 6434 1842 00       		.sleb128 0
 6435 1843 00       		.byte	0
 6436 1844 08       		.uleb128 0x8
 6437 1845 10090000 		.4byte	.LVL211
 6438 1849 03240000 		.4byte	0x2403
 6439 184d 57180000 		.4byte	0x1857
 6440 1851 09       		.uleb128 0x9
 6441 1852 01       		.uleb128 0x1
 6442 1853 50       		.byte	0x50
 6443 1854 01       		.uleb128 0x1
 6444 1855 38       		.byte	0x38
 6445 1856 00       		.byte	0
 6446 1857 08       		.uleb128 0x8
 6447 1858 20090000 		.4byte	.LVL212
 6448 185c 0E240000 		.4byte	0x240e
 6449 1860 8A180000 		.4byte	0x188a
 6450 1864 09       		.uleb128 0x9
 6451 1865 01       		.uleb128 0x1
 6452 1866 50       		.byte	0x50
 6453 1867 02       		.uleb128 0x2
 6454 1868 75       		.byte	0x75
 6455 1869 00       		.sleb128 0
 6456 186a 09       		.uleb128 0x9
 6457 186b 01       		.uleb128 0x1
 6458 186c 51       		.byte	0x51
 6459 186d 02       		.uleb128 0x2
 6460 186e 74       		.byte	0x74
 6461 186f 00       		.sleb128 0
 6462 1870 09       		.uleb128 0x9
 6463 1871 01       		.uleb128 0x1
 6464 1872 52       		.byte	0x52
 6465 1873 02       		.uleb128 0x2
 6466 1874 74       		.byte	0x74
 6467 1875 00       		.sleb128 0
 6468 1876 09       		.uleb128 0x9
 6469 1877 01       		.uleb128 0x1
 6470 1878 53       		.byte	0x53
 6471 1879 01       		.uleb128 0x1
 6472 187a 35       		.byte	0x35
 6473 187b 09       		.uleb128 0x9
 6474 187c 02       		.uleb128 0x2
 6475 187d 7D       		.byte	0x7d
 6476 187e 00       		.sleb128 0
 6477 187f 02       		.uleb128 0x2
 6478 1880 75       		.byte	0x75
 6479 1881 00       		.sleb128 0
 6480 1882 09       		.uleb128 0x9
 6481 1883 02       		.uleb128 0x2
 6482 1884 7D       		.byte	0x7d
 6483 1885 04       		.sleb128 4
 6484 1886 02       		.uleb128 0x2
 6485 1887 74       		.byte	0x74
 6486 1888 00       		.sleb128 0
 6487 1889 00       		.byte	0
 6488 188a 08       		.uleb128 0x8
ARM GAS  C:\Users\jerry\AppData\Local\Temp\cc40088P.s 			page 136


 6489 188b 28090000 		.4byte	.LVL213
 6490 188f 45240000 		.4byte	0x2445
 6491 1893 A3180000 		.4byte	0x18a3
 6492 1897 09       		.uleb128 0x9
 6493 1898 01       		.uleb128 0x1
 6494 1899 50       		.byte	0x50
 6495 189a 01       		.uleb128 0x1
 6496 189b 30       		.byte	0x30
 6497 189c 09       		.uleb128 0x9
 6498 189d 01       		.uleb128 0x1
 6499 189e 51       		.byte	0x51
 6500 189f 02       		.uleb128 0x2
 6501 18a0 08       		.byte	0x8
 6502 18a1 46       		.byte	0x46
 6503 18a2 00       		.byte	0
 6504 18a3 08       		.uleb128 0x8
 6505 18a4 3C090000 		.4byte	.LVL214
 6506 18a8 7C240000 		.4byte	0x247c
 6507 18ac C9180000 		.4byte	0x18c9
 6508 18b0 09       		.uleb128 0x9
 6509 18b1 01       		.uleb128 0x1
 6510 18b2 51       		.byte	0x51
 6511 18b3 02       		.uleb128 0x2
 6512 18b4 74       		.byte	0x74
 6513 18b5 00       		.sleb128 0
 6514 18b6 09       		.uleb128 0x9
 6515 18b7 01       		.uleb128 0x1
 6516 18b8 52       		.byte	0x52
 6517 18b9 01       		.uleb128 0x1
 6518 18ba 35       		.byte	0x35
 6519 18bb 09       		.uleb128 0x9
 6520 18bc 01       		.uleb128 0x1
 6521 18bd 53       		.byte	0x53
 6522 18be 02       		.uleb128 0x2
 6523 18bf 08       		.byte	0x8
 6524 18c0 46       		.byte	0x46
 6525 18c1 09       		.uleb128 0x9
 6526 18c2 02       		.uleb128 0x2
 6527 18c3 7D       		.byte	0x7d
 6528 18c4 00       		.sleb128 0
 6529 18c5 02       		.uleb128 0x2
 6530 18c6 74       		.byte	0x74
 6531 18c7 00       		.sleb128 0
 6532 18c8 00       		.byte	0
 6533 18c9 08       		.uleb128 0x8
 6534 18ca 42090000 		.4byte	.LVL215
 6535 18ce 03240000 		.4byte	0x2403
 6536 18d2 DC180000 		.4byte	0x18dc
 6537 18d6 09       		.uleb128 0x9
 6538 18d7 01       		.uleb128 0x1
 6539 18d8 50       		.byte	0x50
 6540 18d9 01       		.uleb128 0x1
 6541 18da 37       		.byte	0x37
 6542 18db 00       		.byte	0
 6543 18dc 08       		.uleb128 0x8
 6544 18dd 4A090000 		.4byte	.LVL216
 6545 18e1 45240000 		.4byte	0x2445
ARM GAS  C:\Users\jerry\AppData\Local\Temp\cc40088P.s 			page 137


 6546 18e5 F6180000 		.4byte	0x18f6
 6547 18e9 09       		.uleb128 0x9
 6548 18ea 01       		.uleb128 0x1
 6549 18eb 50       		.byte	0x50
 6550 18ec 02       		.uleb128 0x2
 6551 18ed 74       		.byte	0x74
 6552 18ee 00       		.sleb128 0
 6553 18ef 09       		.uleb128 0x9
 6554 18f0 01       		.uleb128 0x1
 6555 18f1 51       		.byte	0x51
 6556 18f2 02       		.uleb128 0x2
 6557 18f3 08       		.byte	0x8
 6558 18f4 46       		.byte	0x46
 6559 18f5 00       		.byte	0
 6560 18f6 08       		.uleb128 0x8
 6561 18f7 6A090000 		.4byte	.LVL217
 6562 18fb 0E240000 		.4byte	0x240e
 6563 18ff 22190000 		.4byte	0x1922
 6564 1903 09       		.uleb128 0x9
 6565 1904 01       		.uleb128 0x1
 6566 1905 51       		.byte	0x51
 6567 1906 01       		.uleb128 0x1
 6568 1907 30       		.byte	0x30
 6569 1908 09       		.uleb128 0x9
 6570 1909 01       		.uleb128 0x1
 6571 190a 52       		.byte	0x52
 6572 190b 02       		.uleb128 0x2
 6573 190c 09       		.byte	0x9
 6574 190d FF       		.byte	0xff
 6575 190e 09       		.uleb128 0x9
 6576 190f 01       		.uleb128 0x1
 6577 1910 53       		.byte	0x53
 6578 1911 01       		.uleb128 0x1
 6579 1912 30       		.byte	0x30
 6580 1913 09       		.uleb128 0x9
 6581 1914 02       		.uleb128 0x2
 6582 1915 7D       		.byte	0x7d
 6583 1916 00       		.sleb128 0
 6584 1917 02       		.uleb128 0x2
 6585 1918 75       		.byte	0x75
 6586 1919 00       		.sleb128 0
 6587 191a 09       		.uleb128 0x9
 6588 191b 02       		.uleb128 0x2
 6589 191c 7D       		.byte	0x7d
 6590 191d 04       		.sleb128 4
 6591 191e 02       		.uleb128 0x2
 6592 191f 74       		.byte	0x74
 6593 1920 00       		.sleb128 0
 6594 1921 00       		.byte	0
 6595 1922 08       		.uleb128 0x8
 6596 1923 70090000 		.4byte	.LVL218
 6597 1927 03240000 		.4byte	0x2403
 6598 192b 35190000 		.4byte	0x1935
 6599 192f 09       		.uleb128 0x9
 6600 1930 01       		.uleb128 0x1
 6601 1931 50       		.byte	0x50
 6602 1932 01       		.uleb128 0x1
ARM GAS  C:\Users\jerry\AppData\Local\Temp\cc40088P.s 			page 138


 6603 1933 37       		.byte	0x37
 6604 1934 00       		.byte	0
 6605 1935 08       		.uleb128 0x8
 6606 1936 78090000 		.4byte	.LVL219
 6607 193a 45240000 		.4byte	0x2445
 6608 193e 4E190000 		.4byte	0x194e
 6609 1942 09       		.uleb128 0x9
 6610 1943 01       		.uleb128 0x1
 6611 1944 50       		.byte	0x50
 6612 1945 01       		.uleb128 0x1
 6613 1946 30       		.byte	0x30
 6614 1947 09       		.uleb128 0x9
 6615 1948 01       		.uleb128 0x1
 6616 1949 51       		.byte	0x51
 6617 194a 02       		.uleb128 0x2
 6618 194b 75       		.byte	0x75
 6619 194c 00       		.sleb128 0
 6620 194d 00       		.byte	0
 6621 194e 08       		.uleb128 0x8
 6622 194f 92090000 		.4byte	.LVL220
 6623 1953 0E240000 		.4byte	0x240e
 6624 1957 7B190000 		.4byte	0x197b
 6625 195b 09       		.uleb128 0x9
 6626 195c 01       		.uleb128 0x1
 6627 195d 51       		.byte	0x51
 6628 195e 02       		.uleb128 0x2
 6629 195f 74       		.byte	0x74
 6630 1960 00       		.sleb128 0
 6631 1961 09       		.uleb128 0x9
 6632 1962 01       		.uleb128 0x1
 6633 1963 52       		.byte	0x52
 6634 1964 02       		.uleb128 0x2
 6635 1965 74       		.byte	0x74
 6636 1966 00       		.sleb128 0
 6637 1967 09       		.uleb128 0x9
 6638 1968 01       		.uleb128 0x1
 6639 1969 53       		.byte	0x53
 6640 196a 01       		.uleb128 0x1
 6641 196b 35       		.byte	0x35
 6642 196c 09       		.uleb128 0x9
 6643 196d 02       		.uleb128 0x2
 6644 196e 7D       		.byte	0x7d
 6645 196f 00       		.sleb128 0
 6646 1970 02       		.uleb128 0x2
 6647 1971 75       		.byte	0x75
 6648 1972 00       		.sleb128 0
 6649 1973 09       		.uleb128 0x9
 6650 1974 02       		.uleb128 0x2
 6651 1975 7D       		.byte	0x7d
 6652 1976 04       		.sleb128 4
 6653 1977 02       		.uleb128 0x2
 6654 1978 74       		.byte	0x74
 6655 1979 00       		.sleb128 0
 6656 197a 00       		.byte	0
 6657 197b 08       		.uleb128 0x8
 6658 197c 98090000 		.4byte	.LVL221
 6659 1980 03240000 		.4byte	0x2403
ARM GAS  C:\Users\jerry\AppData\Local\Temp\cc40088P.s 			page 139


 6660 1984 8E190000 		.4byte	0x198e
 6661 1988 09       		.uleb128 0x9
 6662 1989 01       		.uleb128 0x1
 6663 198a 50       		.byte	0x50
 6664 198b 01       		.uleb128 0x1
 6665 198c 37       		.byte	0x37
 6666 198d 00       		.byte	0
 6667 198e 08       		.uleb128 0x8
 6668 198f A0090000 		.4byte	.LVL222
 6669 1993 45240000 		.4byte	0x2445
 6670 1997 A7190000 		.4byte	0x19a7
 6671 199b 09       		.uleb128 0x9
 6672 199c 01       		.uleb128 0x1
 6673 199d 50       		.byte	0x50
 6674 199e 01       		.uleb128 0x1
 6675 199f 33       		.byte	0x33
 6676 19a0 09       		.uleb128 0x9
 6677 19a1 01       		.uleb128 0x1
 6678 19a2 51       		.byte	0x51
 6679 19a3 02       		.uleb128 0x2
 6680 19a4 75       		.byte	0x75
 6681 19a5 00       		.sleb128 0
 6682 19a6 00       		.byte	0
 6683 19a7 08       		.uleb128 0x8
 6684 19a8 A6090000 		.4byte	.LVL223
 6685 19ac 03240000 		.4byte	0x2403
 6686 19b0 BA190000 		.4byte	0x19ba
 6687 19b4 09       		.uleb128 0x9
 6688 19b5 01       		.uleb128 0x1
 6689 19b6 50       		.byte	0x50
 6690 19b7 01       		.uleb128 0x1
 6691 19b8 38       		.byte	0x38
 6692 19b9 00       		.byte	0
 6693 19ba 08       		.uleb128 0x8
 6694 19bb B6090000 		.4byte	.LVL224
 6695 19bf 0E240000 		.4byte	0x240e
 6696 19c3 ED190000 		.4byte	0x19ed
 6697 19c7 09       		.uleb128 0x9
 6698 19c8 01       		.uleb128 0x1
 6699 19c9 50       		.byte	0x50
 6700 19ca 02       		.uleb128 0x2
 6701 19cb 75       		.byte	0x75
 6702 19cc 00       		.sleb128 0
 6703 19cd 09       		.uleb128 0x9
 6704 19ce 01       		.uleb128 0x1
 6705 19cf 51       		.byte	0x51
 6706 19d0 02       		.uleb128 0x2
 6707 19d1 74       		.byte	0x74
 6708 19d2 00       		.sleb128 0
 6709 19d3 09       		.uleb128 0x9
 6710 19d4 01       		.uleb128 0x1
 6711 19d5 52       		.byte	0x52
 6712 19d6 02       		.uleb128 0x2
 6713 19d7 74       		.byte	0x74
 6714 19d8 00       		.sleb128 0
 6715 19d9 09       		.uleb128 0x9
 6716 19da 01       		.uleb128 0x1
ARM GAS  C:\Users\jerry\AppData\Local\Temp\cc40088P.s 			page 140


 6717 19db 53       		.byte	0x53
 6718 19dc 01       		.uleb128 0x1
 6719 19dd 35       		.byte	0x35
 6720 19de 09       		.uleb128 0x9
 6721 19df 02       		.uleb128 0x2
 6722 19e0 7D       		.byte	0x7d
 6723 19e1 00       		.sleb128 0
 6724 19e2 02       		.uleb128 0x2
 6725 19e3 75       		.byte	0x75
 6726 19e4 00       		.sleb128 0
 6727 19e5 09       		.uleb128 0x9
 6728 19e6 02       		.uleb128 0x2
 6729 19e7 7D       		.byte	0x7d
 6730 19e8 04       		.sleb128 4
 6731 19e9 02       		.uleb128 0x2
 6732 19ea 74       		.byte	0x74
 6733 19eb 00       		.sleb128 0
 6734 19ec 00       		.byte	0
 6735 19ed 08       		.uleb128 0x8
 6736 19ee BE090000 		.4byte	.LVL225
 6737 19f2 45240000 		.4byte	0x2445
 6738 19f6 061A0000 		.4byte	0x1a06
 6739 19fa 09       		.uleb128 0x9
 6740 19fb 01       		.uleb128 0x1
 6741 19fc 50       		.byte	0x50
 6742 19fd 01       		.uleb128 0x1
 6743 19fe 30       		.byte	0x30
 6744 19ff 09       		.uleb128 0x9
 6745 1a00 01       		.uleb128 0x1
 6746 1a01 51       		.byte	0x51
 6747 1a02 02       		.uleb128 0x2
 6748 1a03 08       		.byte	0x8
 6749 1a04 46       		.byte	0x46
 6750 1a05 00       		.byte	0
 6751 1a06 08       		.uleb128 0x8
 6752 1a07 D2090000 		.4byte	.LVL226
 6753 1a0b 7C240000 		.4byte	0x247c
 6754 1a0f 2C1A0000 		.4byte	0x1a2c
 6755 1a13 09       		.uleb128 0x9
 6756 1a14 01       		.uleb128 0x1
 6757 1a15 51       		.byte	0x51
 6758 1a16 02       		.uleb128 0x2
 6759 1a17 74       		.byte	0x74
 6760 1a18 00       		.sleb128 0
 6761 1a19 09       		.uleb128 0x9
 6762 1a1a 01       		.uleb128 0x1
 6763 1a1b 52       		.byte	0x52
 6764 1a1c 01       		.uleb128 0x1
 6765 1a1d 35       		.byte	0x35
 6766 1a1e 09       		.uleb128 0x9
 6767 1a1f 01       		.uleb128 0x1
 6768 1a20 53       		.byte	0x53
 6769 1a21 02       		.uleb128 0x2
 6770 1a22 08       		.byte	0x8
 6771 1a23 46       		.byte	0x46
 6772 1a24 09       		.uleb128 0x9
 6773 1a25 02       		.uleb128 0x2
ARM GAS  C:\Users\jerry\AppData\Local\Temp\cc40088P.s 			page 141


 6774 1a26 7D       		.byte	0x7d
 6775 1a27 00       		.sleb128 0
 6776 1a28 02       		.uleb128 0x2
 6777 1a29 74       		.byte	0x74
 6778 1a2a 00       		.sleb128 0
 6779 1a2b 00       		.byte	0
 6780 1a2c 08       		.uleb128 0x8
 6781 1a2d D8090000 		.4byte	.LVL227
 6782 1a31 03240000 		.4byte	0x2403
 6783 1a35 3F1A0000 		.4byte	0x1a3f
 6784 1a39 09       		.uleb128 0x9
 6785 1a3a 01       		.uleb128 0x1
 6786 1a3b 50       		.byte	0x50
 6787 1a3c 01       		.uleb128 0x1
 6788 1a3d 37       		.byte	0x37
 6789 1a3e 00       		.byte	0
 6790 1a3f 08       		.uleb128 0x8
 6791 1a40 E0090000 		.4byte	.LVL228
 6792 1a44 45240000 		.4byte	0x2445
 6793 1a48 581A0000 		.4byte	0x1a58
 6794 1a4c 09       		.uleb128 0x9
 6795 1a4d 01       		.uleb128 0x1
 6796 1a4e 50       		.byte	0x50
 6797 1a4f 01       		.uleb128 0x1
 6798 1a50 33       		.byte	0x33
 6799 1a51 09       		.uleb128 0x9
 6800 1a52 01       		.uleb128 0x1
 6801 1a53 51       		.byte	0x51
 6802 1a54 02       		.uleb128 0x2
 6803 1a55 08       		.byte	0x8
 6804 1a56 46       		.byte	0x46
 6805 1a57 00       		.byte	0
 6806 1a58 08       		.uleb128 0x8
 6807 1a59 320A0000 		.4byte	.LVL236
 6808 1a5d 69230000 		.4byte	0x2369
 6809 1a61 6F1A0000 		.4byte	0x1a6f
 6810 1a65 09       		.uleb128 0x9
 6811 1a66 01       		.uleb128 0x1
 6812 1a67 50       		.byte	0x50
 6813 1a68 05       		.uleb128 0x5
 6814 1a69 03       		.byte	0x3
 6815 1a6a C4010000 		.4byte	.LC18
 6816 1a6e 00       		.byte	0
 6817 1a6f 08       		.uleb128 0x8
 6818 1a70 400A0000 		.4byte	.LVL237
 6819 1a74 69230000 		.4byte	0x2369
 6820 1a78 861A0000 		.4byte	0x1a86
 6821 1a7c 09       		.uleb128 0x9
 6822 1a7d 01       		.uleb128 0x1
 6823 1a7e 50       		.byte	0x50
 6824 1a7f 05       		.uleb128 0x5
 6825 1a80 03       		.byte	0x3
 6826 1a81 E0010000 		.4byte	.LC19
 6827 1a85 00       		.byte	0
 6828 1a86 08       		.uleb128 0x8
 6829 1a87 460A0000 		.4byte	.LVL238
 6830 1a8b 03240000 		.4byte	0x2403
ARM GAS  C:\Users\jerry\AppData\Local\Temp\cc40088P.s 			page 142


 6831 1a8f 991A0000 		.4byte	0x1a99
 6832 1a93 09       		.uleb128 0x9
 6833 1a94 01       		.uleb128 0x1
 6834 1a95 50       		.byte	0x50
 6835 1a96 01       		.uleb128 0x1
 6836 1a97 38       		.byte	0x38
 6837 1a98 00       		.byte	0
 6838 1a99 08       		.uleb128 0x8
 6839 1a9a 5A0A0000 		.4byte	.LVL239
 6840 1a9e 0E240000 		.4byte	0x240e
 6841 1aa2 CB1A0000 		.4byte	0x1acb
 6842 1aa6 09       		.uleb128 0x9
 6843 1aa7 01       		.uleb128 0x1
 6844 1aa8 50       		.byte	0x50
 6845 1aa9 02       		.uleb128 0x2
 6846 1aaa 08       		.byte	0x8
 6847 1aab 32       		.byte	0x32
 6848 1aac 09       		.uleb128 0x9
 6849 1aad 01       		.uleb128 0x1
 6850 1aae 51       		.byte	0x51
 6851 1aaf 01       		.uleb128 0x1
 6852 1ab0 30       		.byte	0x30
 6853 1ab1 09       		.uleb128 0x9
 6854 1ab2 01       		.uleb128 0x1
 6855 1ab3 52       		.byte	0x52
 6856 1ab4 02       		.uleb128 0x2
 6857 1ab5 74       		.byte	0x74
 6858 1ab6 00       		.sleb128 0
 6859 1ab7 09       		.uleb128 0x9
 6860 1ab8 01       		.uleb128 0x1
 6861 1ab9 53       		.byte	0x53
 6862 1aba 01       		.uleb128 0x1
 6863 1abb 34       		.byte	0x34
 6864 1abc 09       		.uleb128 0x9
 6865 1abd 02       		.uleb128 0x2
 6866 1abe 7D       		.byte	0x7d
 6867 1abf 00       		.sleb128 0
 6868 1ac0 02       		.uleb128 0x2
 6869 1ac1 75       		.byte	0x75
 6870 1ac2 00       		.sleb128 0
 6871 1ac3 09       		.uleb128 0x9
 6872 1ac4 02       		.uleb128 0x2
 6873 1ac5 7D       		.byte	0x7d
 6874 1ac6 04       		.sleb128 4
 6875 1ac7 02       		.uleb128 0x2
 6876 1ac8 74       		.byte	0x74
 6877 1ac9 00       		.sleb128 0
 6878 1aca 00       		.byte	0
 6879 1acb 08       		.uleb128 0x8
 6880 1acc 620A0000 		.4byte	.LVL240
 6881 1ad0 45240000 		.4byte	0x2445
 6882 1ad4 E41A0000 		.4byte	0x1ae4
 6883 1ad8 09       		.uleb128 0x9
 6884 1ad9 01       		.uleb128 0x1
 6885 1ada 50       		.byte	0x50
 6886 1adb 01       		.uleb128 0x1
 6887 1adc 30       		.byte	0x30
ARM GAS  C:\Users\jerry\AppData\Local\Temp\cc40088P.s 			page 143


 6888 1add 09       		.uleb128 0x9
 6889 1ade 01       		.uleb128 0x1
 6890 1adf 51       		.byte	0x51
 6891 1ae0 02       		.uleb128 0x2
 6892 1ae1 75       		.byte	0x75
 6893 1ae2 00       		.sleb128 0
 6894 1ae3 00       		.byte	0
 6895 1ae4 08       		.uleb128 0x8
 6896 1ae5 680A0000 		.4byte	.LVL241
 6897 1ae9 03240000 		.4byte	0x2403
 6898 1aed F71A0000 		.4byte	0x1af7
 6899 1af1 09       		.uleb128 0x9
 6900 1af2 01       		.uleb128 0x1
 6901 1af3 50       		.byte	0x50
 6902 1af4 01       		.uleb128 0x1
 6903 1af5 37       		.byte	0x37
 6904 1af6 00       		.byte	0
 6905 1af7 08       		.uleb128 0x8
 6906 1af8 780A0000 		.4byte	.LVL242
 6907 1afc 0E240000 		.4byte	0x240e
 6908 1b00 291B0000 		.4byte	0x1b29
 6909 1b04 09       		.uleb128 0x9
 6910 1b05 01       		.uleb128 0x1
 6911 1b06 50       		.byte	0x50
 6912 1b07 02       		.uleb128 0x2
 6913 1b08 08       		.byte	0x8
 6914 1b09 64       		.byte	0x64
 6915 1b0a 09       		.uleb128 0x9
 6916 1b0b 01       		.uleb128 0x1
 6917 1b0c 51       		.byte	0x51
 6918 1b0d 01       		.uleb128 0x1
 6919 1b0e 30       		.byte	0x30
 6920 1b0f 09       		.uleb128 0x9
 6921 1b10 01       		.uleb128 0x1
 6922 1b11 52       		.byte	0x52
 6923 1b12 02       		.uleb128 0x2
 6924 1b13 74       		.byte	0x74
 6925 1b14 00       		.sleb128 0
 6926 1b15 09       		.uleb128 0x9
 6927 1b16 01       		.uleb128 0x1
 6928 1b17 53       		.byte	0x53
 6929 1b18 01       		.uleb128 0x1
 6930 1b19 34       		.byte	0x34
 6931 1b1a 09       		.uleb128 0x9
 6932 1b1b 02       		.uleb128 0x2
 6933 1b1c 7D       		.byte	0x7d
 6934 1b1d 00       		.sleb128 0
 6935 1b1e 02       		.uleb128 0x2
 6936 1b1f 75       		.byte	0x75
 6937 1b20 00       		.sleb128 0
 6938 1b21 09       		.uleb128 0x9
 6939 1b22 02       		.uleb128 0x2
 6940 1b23 7D       		.byte	0x7d
 6941 1b24 04       		.sleb128 4
 6942 1b25 02       		.uleb128 0x2
 6943 1b26 74       		.byte	0x74
 6944 1b27 00       		.sleb128 0
ARM GAS  C:\Users\jerry\AppData\Local\Temp\cc40088P.s 			page 144


 6945 1b28 00       		.byte	0
 6946 1b29 08       		.uleb128 0x8
 6947 1b2a 7E0A0000 		.4byte	.LVL243
 6948 1b2e 03240000 		.4byte	0x2403
 6949 1b32 3C1B0000 		.4byte	0x1b3c
 6950 1b36 09       		.uleb128 0x9
 6951 1b37 01       		.uleb128 0x1
 6952 1b38 50       		.byte	0x50
 6953 1b39 01       		.uleb128 0x1
 6954 1b3a 38       		.byte	0x38
 6955 1b3b 00       		.byte	0
 6956 1b3c 08       		.uleb128 0x8
 6957 1b3d 860A0000 		.4byte	.LVL244
 6958 1b41 45240000 		.4byte	0x2445
 6959 1b45 561B0000 		.4byte	0x1b56
 6960 1b49 09       		.uleb128 0x9
 6961 1b4a 01       		.uleb128 0x1
 6962 1b4b 50       		.byte	0x50
 6963 1b4c 02       		.uleb128 0x2
 6964 1b4d 74       		.byte	0x74
 6965 1b4e 00       		.sleb128 0
 6966 1b4f 09       		.uleb128 0x9
 6967 1b50 01       		.uleb128 0x1
 6968 1b51 51       		.byte	0x51
 6969 1b52 02       		.uleb128 0x2
 6970 1b53 75       		.byte	0x75
 6971 1b54 00       		.sleb128 0
 6972 1b55 00       		.byte	0
 6973 1b56 08       		.uleb128 0x8
 6974 1b57 8C0A0000 		.4byte	.LVL245
 6975 1b5b 03240000 		.4byte	0x2403
 6976 1b5f 691B0000 		.4byte	0x1b69
 6977 1b63 09       		.uleb128 0x9
 6978 1b64 01       		.uleb128 0x1
 6979 1b65 50       		.byte	0x50
 6980 1b66 01       		.uleb128 0x1
 6981 1b67 37       		.byte	0x37
 6982 1b68 00       		.byte	0
 6983 1b69 08       		.uleb128 0x8
 6984 1b6a 9C0A0000 		.4byte	.LVL246
 6985 1b6e 0E240000 		.4byte	0x240e
 6986 1b72 9C1B0000 		.4byte	0x1b9c
 6987 1b76 09       		.uleb128 0x9
 6988 1b77 01       		.uleb128 0x1
 6989 1b78 50       		.byte	0x50
 6990 1b79 02       		.uleb128 0x2
 6991 1b7a 75       		.byte	0x75
 6992 1b7b 00       		.sleb128 0
 6993 1b7c 09       		.uleb128 0x9
 6994 1b7d 01       		.uleb128 0x1
 6995 1b7e 51       		.byte	0x51
 6996 1b7f 02       		.uleb128 0x2
 6997 1b80 74       		.byte	0x74
 6998 1b81 00       		.sleb128 0
 6999 1b82 09       		.uleb128 0x9
 7000 1b83 01       		.uleb128 0x1
 7001 1b84 52       		.byte	0x52
ARM GAS  C:\Users\jerry\AppData\Local\Temp\cc40088P.s 			page 145


 7002 1b85 02       		.uleb128 0x2
 7003 1b86 74       		.byte	0x74
 7004 1b87 00       		.sleb128 0
 7005 1b88 09       		.uleb128 0x9
 7006 1b89 01       		.uleb128 0x1
 7007 1b8a 53       		.byte	0x53
 7008 1b8b 01       		.uleb128 0x1
 7009 1b8c 35       		.byte	0x35
 7010 1b8d 09       		.uleb128 0x9
 7011 1b8e 02       		.uleb128 0x2
 7012 1b8f 7D       		.byte	0x7d
 7013 1b90 00       		.sleb128 0
 7014 1b91 02       		.uleb128 0x2
 7015 1b92 75       		.byte	0x75
 7016 1b93 00       		.sleb128 0
 7017 1b94 09       		.uleb128 0x9
 7018 1b95 02       		.uleb128 0x2
 7019 1b96 7D       		.byte	0x7d
 7020 1b97 04       		.sleb128 4
 7021 1b98 02       		.uleb128 0x2
 7022 1b99 74       		.byte	0x74
 7023 1b9a 00       		.sleb128 0
 7024 1b9b 00       		.byte	0
 7025 1b9c 08       		.uleb128 0x8
 7026 1b9d A20A0000 		.4byte	.LVL247
 7027 1ba1 03240000 		.4byte	0x2403
 7028 1ba5 AF1B0000 		.4byte	0x1baf
 7029 1ba9 09       		.uleb128 0x9
 7030 1baa 01       		.uleb128 0x1
 7031 1bab 50       		.byte	0x50
 7032 1bac 01       		.uleb128 0x1
 7033 1bad 37       		.byte	0x37
 7034 1bae 00       		.byte	0
 7035 1baf 08       		.uleb128 0x8
 7036 1bb0 AE0A0000 		.4byte	.LVL248
 7037 1bb4 69230000 		.4byte	0x2369
 7038 1bb8 C61B0000 		.4byte	0x1bc6
 7039 1bbc 09       		.uleb128 0x9
 7040 1bbd 01       		.uleb128 0x1
 7041 1bbe 50       		.byte	0x50
 7042 1bbf 05       		.uleb128 0x5
 7043 1bc0 03       		.byte	0x3
 7044 1bc1 FC010000 		.4byte	.LC20
 7045 1bc5 00       		.byte	0
 7046 1bc6 08       		.uleb128 0x8
 7047 1bc7 C20A0000 		.4byte	.LVL249
 7048 1bcb 0E240000 		.4byte	0x240e
 7049 1bcf F71B0000 		.4byte	0x1bf7
 7050 1bd3 09       		.uleb128 0x9
 7051 1bd4 01       		.uleb128 0x1
 7052 1bd5 50       		.byte	0x50
 7053 1bd6 01       		.uleb128 0x1
 7054 1bd7 4E       		.byte	0x4e
 7055 1bd8 09       		.uleb128 0x9
 7056 1bd9 01       		.uleb128 0x1
 7057 1bda 51       		.byte	0x51
 7058 1bdb 01       		.uleb128 0x1
ARM GAS  C:\Users\jerry\AppData\Local\Temp\cc40088P.s 			page 146


 7059 1bdc 30       		.byte	0x30
 7060 1bdd 09       		.uleb128 0x9
 7061 1bde 01       		.uleb128 0x1
 7062 1bdf 52       		.byte	0x52
 7063 1be0 02       		.uleb128 0x2
 7064 1be1 74       		.byte	0x74
 7065 1be2 00       		.sleb128 0
 7066 1be3 09       		.uleb128 0x9
 7067 1be4 01       		.uleb128 0x1
 7068 1be5 53       		.byte	0x53
 7069 1be6 01       		.uleb128 0x1
 7070 1be7 34       		.byte	0x34
 7071 1be8 09       		.uleb128 0x9
 7072 1be9 02       		.uleb128 0x2
 7073 1bea 7D       		.byte	0x7d
 7074 1beb 00       		.sleb128 0
 7075 1bec 02       		.uleb128 0x2
 7076 1bed 75       		.byte	0x75
 7077 1bee 00       		.sleb128 0
 7078 1bef 09       		.uleb128 0x9
 7079 1bf0 02       		.uleb128 0x2
 7080 1bf1 7D       		.byte	0x7d
 7081 1bf2 04       		.sleb128 4
 7082 1bf3 02       		.uleb128 0x2
 7083 1bf4 74       		.byte	0x74
 7084 1bf5 00       		.sleb128 0
 7085 1bf6 00       		.byte	0
 7086 1bf7 08       		.uleb128 0x8
 7087 1bf8 C80A0000 		.4byte	.LVL250
 7088 1bfc 03240000 		.4byte	0x2403
 7089 1c00 0A1C0000 		.4byte	0x1c0a
 7090 1c04 09       		.uleb128 0x9
 7091 1c05 01       		.uleb128 0x1
 7092 1c06 50       		.byte	0x50
 7093 1c07 01       		.uleb128 0x1
 7094 1c08 38       		.byte	0x38
 7095 1c09 00       		.byte	0
 7096 1c0a 08       		.uleb128 0x8
 7097 1c0b D00A0000 		.4byte	.LVL251
 7098 1c0f 45240000 		.4byte	0x2445
 7099 1c13 231C0000 		.4byte	0x1c23
 7100 1c17 09       		.uleb128 0x9
 7101 1c18 01       		.uleb128 0x1
 7102 1c19 50       		.byte	0x50
 7103 1c1a 01       		.uleb128 0x1
 7104 1c1b 30       		.byte	0x30
 7105 1c1c 09       		.uleb128 0x9
 7106 1c1d 01       		.uleb128 0x1
 7107 1c1e 51       		.byte	0x51
 7108 1c1f 02       		.uleb128 0x2
 7109 1c20 75       		.byte	0x75
 7110 1c21 00       		.sleb128 0
 7111 1c22 00       		.byte	0
 7112 1c23 08       		.uleb128 0x8
 7113 1c24 D60A0000 		.4byte	.LVL252
 7114 1c28 03240000 		.4byte	0x2403
 7115 1c2c 361C0000 		.4byte	0x1c36
ARM GAS  C:\Users\jerry\AppData\Local\Temp\cc40088P.s 			page 147


 7116 1c30 09       		.uleb128 0x9
 7117 1c31 01       		.uleb128 0x1
 7118 1c32 50       		.byte	0x50
 7119 1c33 01       		.uleb128 0x1
 7120 1c34 37       		.byte	0x37
 7121 1c35 00       		.byte	0
 7122 1c36 08       		.uleb128 0x8
 7123 1c37 E80A0000 		.4byte	.LVL253
 7124 1c3b 0E240000 		.4byte	0x240e
 7125 1c3f 681C0000 		.4byte	0x1c68
 7126 1c43 09       		.uleb128 0x9
 7127 1c44 01       		.uleb128 0x1
 7128 1c45 50       		.byte	0x50
 7129 1c46 02       		.uleb128 0x2
 7130 1c47 08       		.byte	0x8
 7131 1c48 F0       		.byte	0xf0
 7132 1c49 09       		.uleb128 0x9
 7133 1c4a 01       		.uleb128 0x1
 7134 1c4b 51       		.byte	0x51
 7135 1c4c 01       		.uleb128 0x1
 7136 1c4d 30       		.byte	0x30
 7137 1c4e 09       		.uleb128 0x9
 7138 1c4f 01       		.uleb128 0x1
 7139 1c50 52       		.byte	0x52
 7140 1c51 02       		.uleb128 0x2
 7141 1c52 09       		.byte	0x9
 7142 1c53 FF       		.byte	0xff
 7143 1c54 09       		.uleb128 0x9
 7144 1c55 01       		.uleb128 0x1
 7145 1c56 53       		.byte	0x53
 7146 1c57 01       		.uleb128 0x1
 7147 1c58 30       		.byte	0x30
 7148 1c59 09       		.uleb128 0x9
 7149 1c5a 02       		.uleb128 0x2
 7150 1c5b 7D       		.byte	0x7d
 7151 1c5c 00       		.sleb128 0
 7152 1c5d 02       		.uleb128 0x2
 7153 1c5e 75       		.byte	0x75
 7154 1c5f 00       		.sleb128 0
 7155 1c60 09       		.uleb128 0x9
 7156 1c61 02       		.uleb128 0x2
 7157 1c62 7D       		.byte	0x7d
 7158 1c63 04       		.sleb128 4
 7159 1c64 02       		.uleb128 0x2
 7160 1c65 74       		.byte	0x74
 7161 1c66 00       		.sleb128 0
 7162 1c67 00       		.byte	0
 7163 1c68 08       		.uleb128 0x8
 7164 1c69 EE0A0000 		.4byte	.LVL254
 7165 1c6d 03240000 		.4byte	0x2403
 7166 1c71 7B1C0000 		.4byte	0x1c7b
 7167 1c75 09       		.uleb128 0x9
 7168 1c76 01       		.uleb128 0x1
 7169 1c77 50       		.byte	0x50
 7170 1c78 01       		.uleb128 0x1
 7171 1c79 37       		.byte	0x37
 7172 1c7a 00       		.byte	0
ARM GAS  C:\Users\jerry\AppData\Local\Temp\cc40088P.s 			page 148


 7173 1c7b 08       		.uleb128 0x8
 7174 1c7c F60A0000 		.4byte	.LVL255
 7175 1c80 45240000 		.4byte	0x2445
 7176 1c84 951C0000 		.4byte	0x1c95
 7177 1c88 09       		.uleb128 0x9
 7178 1c89 01       		.uleb128 0x1
 7179 1c8a 50       		.byte	0x50
 7180 1c8b 02       		.uleb128 0x2
 7181 1c8c 74       		.byte	0x74
 7182 1c8d 00       		.sleb128 0
 7183 1c8e 09       		.uleb128 0x9
 7184 1c8f 01       		.uleb128 0x1
 7185 1c90 51       		.byte	0x51
 7186 1c91 02       		.uleb128 0x2
 7187 1c92 75       		.byte	0x75
 7188 1c93 00       		.sleb128 0
 7189 1c94 00       		.byte	0
 7190 1c95 08       		.uleb128 0x8
 7191 1c96 FC0A0000 		.4byte	.LVL256
 7192 1c9a 03240000 		.4byte	0x2403
 7193 1c9e A81C0000 		.4byte	0x1ca8
 7194 1ca2 09       		.uleb128 0x9
 7195 1ca3 01       		.uleb128 0x1
 7196 1ca4 50       		.byte	0x50
 7197 1ca5 01       		.uleb128 0x1
 7198 1ca6 38       		.byte	0x38
 7199 1ca7 00       		.byte	0
 7200 1ca8 08       		.uleb128 0x8
 7201 1ca9 040B0000 		.4byte	.LVL257
 7202 1cad 45240000 		.4byte	0x2445
 7203 1cb1 C11C0000 		.4byte	0x1cc1
 7204 1cb5 09       		.uleb128 0x9
 7205 1cb6 01       		.uleb128 0x1
 7206 1cb7 50       		.byte	0x50
 7207 1cb8 01       		.uleb128 0x1
 7208 1cb9 32       		.byte	0x32
 7209 1cba 09       		.uleb128 0x9
 7210 1cbb 01       		.uleb128 0x1
 7211 1cbc 51       		.byte	0x51
 7212 1cbd 02       		.uleb128 0x2
 7213 1cbe 75       		.byte	0x75
 7214 1cbf 00       		.sleb128 0
 7215 1cc0 00       		.byte	0
 7216 1cc1 08       		.uleb128 0x8
 7217 1cc2 0A0B0000 		.4byte	.LVL258
 7218 1cc6 03240000 		.4byte	0x2403
 7219 1cca D41C0000 		.4byte	0x1cd4
 7220 1cce 09       		.uleb128 0x9
 7221 1ccf 01       		.uleb128 0x1
 7222 1cd0 50       		.byte	0x50
 7223 1cd1 01       		.uleb128 0x1
 7224 1cd2 36       		.byte	0x36
 7225 1cd3 00       		.byte	0
 7226 1cd4 08       		.uleb128 0x8
 7227 1cd5 1A0B0000 		.4byte	.LVL259
 7228 1cd9 0E240000 		.4byte	0x240e
 7229 1cdd 071D0000 		.4byte	0x1d07
ARM GAS  C:\Users\jerry\AppData\Local\Temp\cc40088P.s 			page 149


 7230 1ce1 09       		.uleb128 0x9
 7231 1ce2 01       		.uleb128 0x1
 7232 1ce3 50       		.byte	0x50
 7233 1ce4 02       		.uleb128 0x2
 7234 1ce5 08       		.byte	0x8
 7235 1ce6 F0       		.byte	0xf0
 7236 1ce7 09       		.uleb128 0x9
 7237 1ce8 01       		.uleb128 0x1
 7238 1ce9 51       		.byte	0x51
 7239 1cea 02       		.uleb128 0x2
 7240 1ceb 74       		.byte	0x74
 7241 1cec 00       		.sleb128 0
 7242 1ced 09       		.uleb128 0x9
 7243 1cee 01       		.uleb128 0x1
 7244 1cef 52       		.byte	0x52
 7245 1cf0 02       		.uleb128 0x2
 7246 1cf1 74       		.byte	0x74
 7247 1cf2 00       		.sleb128 0
 7248 1cf3 09       		.uleb128 0x9
 7249 1cf4 01       		.uleb128 0x1
 7250 1cf5 53       		.byte	0x53
 7251 1cf6 01       		.uleb128 0x1
 7252 1cf7 30       		.byte	0x30
 7253 1cf8 09       		.uleb128 0x9
 7254 1cf9 02       		.uleb128 0x2
 7255 1cfa 7D       		.byte	0x7d
 7256 1cfb 00       		.sleb128 0
 7257 1cfc 02       		.uleb128 0x2
 7258 1cfd 75       		.byte	0x75
 7259 1cfe 00       		.sleb128 0
 7260 1cff 09       		.uleb128 0x9
 7261 1d00 02       		.uleb128 0x2
 7262 1d01 7D       		.byte	0x7d
 7263 1d02 04       		.sleb128 4
 7264 1d03 02       		.uleb128 0x2
 7265 1d04 74       		.byte	0x74
 7266 1d05 00       		.sleb128 0
 7267 1d06 00       		.byte	0
 7268 1d07 08       		.uleb128 0x8
 7269 1d08 220B0000 		.4byte	.LVL260
 7270 1d0c 45240000 		.4byte	0x2445
 7271 1d10 211D0000 		.4byte	0x1d21
 7272 1d14 09       		.uleb128 0x9
 7273 1d15 01       		.uleb128 0x1
 7274 1d16 50       		.byte	0x50
 7275 1d17 02       		.uleb128 0x2
 7276 1d18 74       		.byte	0x74
 7277 1d19 00       		.sleb128 0
 7278 1d1a 09       		.uleb128 0x9
 7279 1d1b 01       		.uleb128 0x1
 7280 1d1c 51       		.byte	0x51
 7281 1d1d 02       		.uleb128 0x2
 7282 1d1e 75       		.byte	0x75
 7283 1d1f 00       		.sleb128 0
 7284 1d20 00       		.byte	0
 7285 1d21 08       		.uleb128 0x8
 7286 1d22 280B0000 		.4byte	.LVL261
ARM GAS  C:\Users\jerry\AppData\Local\Temp\cc40088P.s 			page 150


 7287 1d26 03240000 		.4byte	0x2403
 7288 1d2a 341D0000 		.4byte	0x1d34
 7289 1d2e 09       		.uleb128 0x9
 7290 1d2f 01       		.uleb128 0x1
 7291 1d30 50       		.byte	0x50
 7292 1d31 01       		.uleb128 0x1
 7293 1d32 38       		.byte	0x38
 7294 1d33 00       		.byte	0
 7295 1d34 08       		.uleb128 0x8
 7296 1d35 380B0000 		.4byte	.LVL262
 7297 1d39 0E240000 		.4byte	0x240e
 7298 1d3d 671D0000 		.4byte	0x1d67
 7299 1d41 09       		.uleb128 0x9
 7300 1d42 01       		.uleb128 0x1
 7301 1d43 50       		.byte	0x50
 7302 1d44 02       		.uleb128 0x2
 7303 1d45 08       		.byte	0x8
 7304 1d46 96       		.byte	0x96
 7305 1d47 09       		.uleb128 0x9
 7306 1d48 01       		.uleb128 0x1
 7307 1d49 51       		.byte	0x51
 7308 1d4a 02       		.uleb128 0x2
 7309 1d4b 74       		.byte	0x74
 7310 1d4c 00       		.sleb128 0
 7311 1d4d 09       		.uleb128 0x9
 7312 1d4e 01       		.uleb128 0x1
 7313 1d4f 52       		.byte	0x52
 7314 1d50 02       		.uleb128 0x2
 7315 1d51 74       		.byte	0x74
 7316 1d52 00       		.sleb128 0
 7317 1d53 09       		.uleb128 0x9
 7318 1d54 01       		.uleb128 0x1
 7319 1d55 53       		.byte	0x53
 7320 1d56 01       		.uleb128 0x1
 7321 1d57 35       		.byte	0x35
 7322 1d58 09       		.uleb128 0x9
 7323 1d59 02       		.uleb128 0x2
 7324 1d5a 7D       		.byte	0x7d
 7325 1d5b 00       		.sleb128 0
 7326 1d5c 02       		.uleb128 0x2
 7327 1d5d 75       		.byte	0x75
 7328 1d5e 00       		.sleb128 0
 7329 1d5f 09       		.uleb128 0x9
 7330 1d60 02       		.uleb128 0x2
 7331 1d61 7D       		.byte	0x7d
 7332 1d62 04       		.sleb128 4
 7333 1d63 02       		.uleb128 0x2
 7334 1d64 74       		.byte	0x74
 7335 1d65 00       		.sleb128 0
 7336 1d66 00       		.byte	0
 7337 1d67 08       		.uleb128 0x8
 7338 1d68 440B0000 		.4byte	.LVL263
 7339 1d6c 69230000 		.4byte	0x2369
 7340 1d70 7E1D0000 		.4byte	0x1d7e
 7341 1d74 09       		.uleb128 0x9
 7342 1d75 01       		.uleb128 0x1
 7343 1d76 50       		.byte	0x50
ARM GAS  C:\Users\jerry\AppData\Local\Temp\cc40088P.s 			page 151


 7344 1d77 05       		.uleb128 0x5
 7345 1d78 03       		.byte	0x3
 7346 1d79 18020000 		.4byte	.LC21
 7347 1d7d 00       		.byte	0
 7348 1d7e 08       		.uleb128 0x8
 7349 1d7f 560B0000 		.4byte	.LVL264
 7350 1d83 45240000 		.4byte	0x2445
 7351 1d87 971D0000 		.4byte	0x1d97
 7352 1d8b 09       		.uleb128 0x9
 7353 1d8c 01       		.uleb128 0x1
 7354 1d8d 50       		.byte	0x50
 7355 1d8e 01       		.uleb128 0x1
 7356 1d8f 30       		.byte	0x30
 7357 1d90 09       		.uleb128 0x9
 7358 1d91 01       		.uleb128 0x1
 7359 1d92 51       		.byte	0x51
 7360 1d93 02       		.uleb128 0x2
 7361 1d94 08       		.byte	0x8
 7362 1d95 C8       		.byte	0xc8
 7363 1d96 00       		.byte	0
 7364 1d97 08       		.uleb128 0x8
 7365 1d98 6C0B0000 		.4byte	.LVL265
 7366 1d9c 0E240000 		.4byte	0x240e
 7367 1da0 CA1D0000 		.4byte	0x1dca
 7368 1da4 09       		.uleb128 0x9
 7369 1da5 01       		.uleb128 0x1
 7370 1da6 50       		.byte	0x50
 7371 1da7 03       		.uleb128 0x3
 7372 1da8 0A       		.byte	0xa
 7373 1da9 F401     		.2byte	0x1f4
 7374 1dab 09       		.uleb128 0x9
 7375 1dac 01       		.uleb128 0x1
 7376 1dad 51       		.byte	0x51
 7377 1dae 01       		.uleb128 0x1
 7378 1daf 30       		.byte	0x30
 7379 1db0 09       		.uleb128 0x9
 7380 1db1 01       		.uleb128 0x1
 7381 1db2 52       		.byte	0x52
 7382 1db3 02       		.uleb128 0x2
 7383 1db4 74       		.byte	0x74
 7384 1db5 00       		.sleb128 0
 7385 1db6 09       		.uleb128 0x9
 7386 1db7 01       		.uleb128 0x1
 7387 1db8 53       		.byte	0x53
 7388 1db9 01       		.uleb128 0x1
 7389 1dba 36       		.byte	0x36
 7390 1dbb 09       		.uleb128 0x9
 7391 1dbc 02       		.uleb128 0x2
 7392 1dbd 7D       		.byte	0x7d
 7393 1dbe 00       		.sleb128 0
 7394 1dbf 02       		.uleb128 0x2
 7395 1dc0 75       		.byte	0x75
 7396 1dc1 00       		.sleb128 0
 7397 1dc2 09       		.uleb128 0x9
 7398 1dc3 02       		.uleb128 0x2
 7399 1dc4 7D       		.byte	0x7d
 7400 1dc5 04       		.sleb128 4
ARM GAS  C:\Users\jerry\AppData\Local\Temp\cc40088P.s 			page 152


 7401 1dc6 02       		.uleb128 0x2
 7402 1dc7 74       		.byte	0x74
 7403 1dc8 00       		.sleb128 0
 7404 1dc9 00       		.byte	0
 7405 1dca 08       		.uleb128 0x8
 7406 1dcb 740B0000 		.4byte	.LVL266
 7407 1dcf 45240000 		.4byte	0x2445
 7408 1dd3 E31D0000 		.4byte	0x1de3
 7409 1dd7 09       		.uleb128 0x9
 7410 1dd8 01       		.uleb128 0x1
 7411 1dd9 50       		.byte	0x50
 7412 1dda 01       		.uleb128 0x1
 7413 1ddb 33       		.byte	0x33
 7414 1ddc 09       		.uleb128 0x9
 7415 1ddd 01       		.uleb128 0x1
 7416 1dde 51       		.byte	0x51
 7417 1ddf 02       		.uleb128 0x2
 7418 1de0 75       		.byte	0x75
 7419 1de1 00       		.sleb128 0
 7420 1de2 00       		.byte	0
 7421 1de3 08       		.uleb128 0x8
 7422 1de4 7C0B0000 		.4byte	.LVL267
 7423 1de8 45240000 		.4byte	0x2445
 7424 1dec FC1D0000 		.4byte	0x1dfc
 7425 1df0 09       		.uleb128 0x9
 7426 1df1 01       		.uleb128 0x1
 7427 1df2 50       		.byte	0x50
 7428 1df3 01       		.uleb128 0x1
 7429 1df4 32       		.byte	0x32
 7430 1df5 09       		.uleb128 0x9
 7431 1df6 01       		.uleb128 0x1
 7432 1df7 51       		.byte	0x51
 7433 1df8 02       		.uleb128 0x2
 7434 1df9 75       		.byte	0x75
 7435 1dfa 00       		.sleb128 0
 7436 1dfb 00       		.byte	0
 7437 1dfc 08       		.uleb128 0x8
 7438 1dfd 8C0B0000 		.4byte	.LVL268
 7439 1e01 0E240000 		.4byte	0x240e
 7440 1e05 2F1E0000 		.4byte	0x1e2f
 7441 1e09 09       		.uleb128 0x9
 7442 1e0a 01       		.uleb128 0x1
 7443 1e0b 50       		.byte	0x50
 7444 1e0c 02       		.uleb128 0x2
 7445 1e0d 08       		.byte	0x8
 7446 1e0e F0       		.byte	0xf0
 7447 1e0f 09       		.uleb128 0x9
 7448 1e10 01       		.uleb128 0x1
 7449 1e11 51       		.byte	0x51
 7450 1e12 02       		.uleb128 0x2
 7451 1e13 74       		.byte	0x74
 7452 1e14 00       		.sleb128 0
 7453 1e15 09       		.uleb128 0x9
 7454 1e16 01       		.uleb128 0x1
 7455 1e17 52       		.byte	0x52
 7456 1e18 02       		.uleb128 0x2
 7457 1e19 74       		.byte	0x74
ARM GAS  C:\Users\jerry\AppData\Local\Temp\cc40088P.s 			page 153


 7458 1e1a 00       		.sleb128 0
 7459 1e1b 09       		.uleb128 0x9
 7460 1e1c 01       		.uleb128 0x1
 7461 1e1d 53       		.byte	0x53
 7462 1e1e 01       		.uleb128 0x1
 7463 1e1f 30       		.byte	0x30
 7464 1e20 09       		.uleb128 0x9
 7465 1e21 02       		.uleb128 0x2
 7466 1e22 7D       		.byte	0x7d
 7467 1e23 00       		.sleb128 0
 7468 1e24 02       		.uleb128 0x2
 7469 1e25 75       		.byte	0x75
 7470 1e26 00       		.sleb128 0
 7471 1e27 09       		.uleb128 0x9
 7472 1e28 02       		.uleb128 0x2
 7473 1e29 7D       		.byte	0x7d
 7474 1e2a 04       		.sleb128 4
 7475 1e2b 02       		.uleb128 0x2
 7476 1e2c 74       		.byte	0x74
 7477 1e2d 00       		.sleb128 0
 7478 1e2e 00       		.byte	0
 7479 1e2f 08       		.uleb128 0x8
 7480 1e30 920B0000 		.4byte	.LVL269
 7481 1e34 03240000 		.4byte	0x2403
 7482 1e38 421E0000 		.4byte	0x1e42
 7483 1e3c 09       		.uleb128 0x9
 7484 1e3d 01       		.uleb128 0x1
 7485 1e3e 50       		.byte	0x50
 7486 1e3f 01       		.uleb128 0x1
 7487 1e40 37       		.byte	0x37
 7488 1e41 00       		.byte	0
 7489 1e42 08       		.uleb128 0x8
 7490 1e43 9A0B0000 		.4byte	.LVL270
 7491 1e47 45240000 		.4byte	0x2445
 7492 1e4b 5C1E0000 		.4byte	0x1e5c
 7493 1e4f 09       		.uleb128 0x9
 7494 1e50 01       		.uleb128 0x1
 7495 1e51 50       		.byte	0x50
 7496 1e52 02       		.uleb128 0x2
 7497 1e53 74       		.byte	0x74
 7498 1e54 00       		.sleb128 0
 7499 1e55 09       		.uleb128 0x9
 7500 1e56 01       		.uleb128 0x1
 7501 1e57 51       		.byte	0x51
 7502 1e58 02       		.uleb128 0x2
 7503 1e59 75       		.byte	0x75
 7504 1e5a 00       		.sleb128 0
 7505 1e5b 00       		.byte	0
 7506 1e5c 08       		.uleb128 0x8
 7507 1e5d AA0B0000 		.4byte	.LVL271
 7508 1e61 0E240000 		.4byte	0x240e
 7509 1e65 8F1E0000 		.4byte	0x1e8f
 7510 1e69 09       		.uleb128 0x9
 7511 1e6a 01       		.uleb128 0x1
 7512 1e6b 50       		.byte	0x50
 7513 1e6c 02       		.uleb128 0x2
 7514 1e6d 08       		.byte	0x8
ARM GAS  C:\Users\jerry\AppData\Local\Temp\cc40088P.s 			page 154


 7515 1e6e 96       		.byte	0x96
 7516 1e6f 09       		.uleb128 0x9
 7517 1e70 01       		.uleb128 0x1
 7518 1e71 51       		.byte	0x51
 7519 1e72 02       		.uleb128 0x2
 7520 1e73 74       		.byte	0x74
 7521 1e74 00       		.sleb128 0
 7522 1e75 09       		.uleb128 0x9
 7523 1e76 01       		.uleb128 0x1
 7524 1e77 52       		.byte	0x52
 7525 1e78 02       		.uleb128 0x2
 7526 1e79 74       		.byte	0x74
 7527 1e7a 00       		.sleb128 0
 7528 1e7b 09       		.uleb128 0x9
 7529 1e7c 01       		.uleb128 0x1
 7530 1e7d 53       		.byte	0x53
 7531 1e7e 01       		.uleb128 0x1
 7532 1e7f 30       		.byte	0x30
 7533 1e80 09       		.uleb128 0x9
 7534 1e81 02       		.uleb128 0x2
 7535 1e82 7D       		.byte	0x7d
 7536 1e83 00       		.sleb128 0
 7537 1e84 02       		.uleb128 0x2
 7538 1e85 75       		.byte	0x75
 7539 1e86 00       		.sleb128 0
 7540 1e87 09       		.uleb128 0x9
 7541 1e88 02       		.uleb128 0x2
 7542 1e89 7D       		.byte	0x7d
 7543 1e8a 04       		.sleb128 4
 7544 1e8b 02       		.uleb128 0x2
 7545 1e8c 74       		.byte	0x74
 7546 1e8d 00       		.sleb128 0
 7547 1e8e 00       		.byte	0
 7548 1e8f 08       		.uleb128 0x8
 7549 1e90 D00B0000 		.4byte	.LVL272
 7550 1e94 45240000 		.4byte	0x2445
 7551 1e98 A81E0000 		.4byte	0x1ea8
 7552 1e9c 09       		.uleb128 0x9
 7553 1e9d 01       		.uleb128 0x1
 7554 1e9e 50       		.byte	0x50
 7555 1e9f 01       		.uleb128 0x1
 7556 1ea0 30       		.byte	0x30
 7557 1ea1 09       		.uleb128 0x9
 7558 1ea2 01       		.uleb128 0x1
 7559 1ea3 51       		.byte	0x51
 7560 1ea4 02       		.uleb128 0x2
 7561 1ea5 08       		.byte	0x8
 7562 1ea6 C8       		.byte	0xc8
 7563 1ea7 00       		.byte	0
 7564 1ea8 08       		.uleb128 0x8
 7565 1ea9 E60B0000 		.4byte	.LVL273
 7566 1ead 0E240000 		.4byte	0x240e
 7567 1eb1 DB1E0000 		.4byte	0x1edb
 7568 1eb5 09       		.uleb128 0x9
 7569 1eb6 01       		.uleb128 0x1
 7570 1eb7 50       		.byte	0x50
 7571 1eb8 03       		.uleb128 0x3
ARM GAS  C:\Users\jerry\AppData\Local\Temp\cc40088P.s 			page 155


 7572 1eb9 0A       		.byte	0xa
 7573 1eba F401     		.2byte	0x1f4
 7574 1ebc 09       		.uleb128 0x9
 7575 1ebd 01       		.uleb128 0x1
 7576 1ebe 51       		.byte	0x51
 7577 1ebf 01       		.uleb128 0x1
 7578 1ec0 30       		.byte	0x30
 7579 1ec1 09       		.uleb128 0x9
 7580 1ec2 01       		.uleb128 0x1
 7581 1ec3 52       		.byte	0x52
 7582 1ec4 02       		.uleb128 0x2
 7583 1ec5 74       		.byte	0x74
 7584 1ec6 00       		.sleb128 0
 7585 1ec7 09       		.uleb128 0x9
 7586 1ec8 01       		.uleb128 0x1
 7587 1ec9 53       		.byte	0x53
 7588 1eca 01       		.uleb128 0x1
 7589 1ecb 36       		.byte	0x36
 7590 1ecc 09       		.uleb128 0x9
 7591 1ecd 02       		.uleb128 0x2
 7592 1ece 7D       		.byte	0x7d
 7593 1ecf 00       		.sleb128 0
 7594 1ed0 02       		.uleb128 0x2
 7595 1ed1 75       		.byte	0x75
 7596 1ed2 00       		.sleb128 0
 7597 1ed3 09       		.uleb128 0x9
 7598 1ed4 02       		.uleb128 0x2
 7599 1ed5 7D       		.byte	0x7d
 7600 1ed6 04       		.sleb128 4
 7601 1ed7 02       		.uleb128 0x2
 7602 1ed8 74       		.byte	0x74
 7603 1ed9 00       		.sleb128 0
 7604 1eda 00       		.byte	0
 7605 1edb 08       		.uleb128 0x8
 7606 1edc EE0B0000 		.4byte	.LVL274
 7607 1ee0 45240000 		.4byte	0x2445
 7608 1ee4 F51E0000 		.4byte	0x1ef5
 7609 1ee8 09       		.uleb128 0x9
 7610 1ee9 01       		.uleb128 0x1
 7611 1eea 50       		.byte	0x50
 7612 1eeb 02       		.uleb128 0x2
 7613 1eec 74       		.byte	0x74
 7614 1eed 00       		.sleb128 0
 7615 1eee 09       		.uleb128 0x9
 7616 1eef 01       		.uleb128 0x1
 7617 1ef0 51       		.byte	0x51
 7618 1ef1 02       		.uleb128 0x2
 7619 1ef2 75       		.byte	0x75
 7620 1ef3 00       		.sleb128 0
 7621 1ef4 00       		.byte	0
 7622 1ef5 08       		.uleb128 0x8
 7623 1ef6 F60B0000 		.4byte	.LVL275
 7624 1efa 45240000 		.4byte	0x2445
 7625 1efe 0E1F0000 		.4byte	0x1f0e
 7626 1f02 09       		.uleb128 0x9
 7627 1f03 01       		.uleb128 0x1
 7628 1f04 50       		.byte	0x50
ARM GAS  C:\Users\jerry\AppData\Local\Temp\cc40088P.s 			page 156


 7629 1f05 01       		.uleb128 0x1
 7630 1f06 32       		.byte	0x32
 7631 1f07 09       		.uleb128 0x9
 7632 1f08 01       		.uleb128 0x1
 7633 1f09 51       		.byte	0x51
 7634 1f0a 02       		.uleb128 0x2
 7635 1f0b 75       		.byte	0x75
 7636 1f0c 00       		.sleb128 0
 7637 1f0d 00       		.byte	0
 7638 1f0e 08       		.uleb128 0x8
 7639 1f0f 060C0000 		.4byte	.LVL276
 7640 1f13 0E240000 		.4byte	0x240e
 7641 1f17 411F0000 		.4byte	0x1f41
 7642 1f1b 09       		.uleb128 0x9
 7643 1f1c 01       		.uleb128 0x1
 7644 1f1d 50       		.byte	0x50
 7645 1f1e 02       		.uleb128 0x2
 7646 1f1f 08       		.byte	0x8
 7647 1f20 F0       		.byte	0xf0
 7648 1f21 09       		.uleb128 0x9
 7649 1f22 01       		.uleb128 0x1
 7650 1f23 51       		.byte	0x51
 7651 1f24 02       		.uleb128 0x2
 7652 1f25 74       		.byte	0x74
 7653 1f26 00       		.sleb128 0
 7654 1f27 09       		.uleb128 0x9
 7655 1f28 01       		.uleb128 0x1
 7656 1f29 52       		.byte	0x52
 7657 1f2a 02       		.uleb128 0x2
 7658 1f2b 74       		.byte	0x74
 7659 1f2c 00       		.sleb128 0
 7660 1f2d 09       		.uleb128 0x9
 7661 1f2e 01       		.uleb128 0x1
 7662 1f2f 53       		.byte	0x53
 7663 1f30 01       		.uleb128 0x1
 7664 1f31 30       		.byte	0x30
 7665 1f32 09       		.uleb128 0x9
 7666 1f33 02       		.uleb128 0x2
 7667 1f34 7D       		.byte	0x7d
 7668 1f35 00       		.sleb128 0
 7669 1f36 02       		.uleb128 0x2
 7670 1f37 75       		.byte	0x75
 7671 1f38 00       		.sleb128 0
 7672 1f39 09       		.uleb128 0x9
 7673 1f3a 02       		.uleb128 0x2
 7674 1f3b 7D       		.byte	0x7d
 7675 1f3c 04       		.sleb128 4
 7676 1f3d 02       		.uleb128 0x2
 7677 1f3e 74       		.byte	0x74
 7678 1f3f 00       		.sleb128 0
 7679 1f40 00       		.byte	0
 7680 1f41 08       		.uleb128 0x8
 7681 1f42 0C0C0000 		.4byte	.LVL277
 7682 1f46 03240000 		.4byte	0x2403
 7683 1f4a 541F0000 		.4byte	0x1f54
 7684 1f4e 09       		.uleb128 0x9
 7685 1f4f 01       		.uleb128 0x1
ARM GAS  C:\Users\jerry\AppData\Local\Temp\cc40088P.s 			page 157


 7686 1f50 50       		.byte	0x50
 7687 1f51 01       		.uleb128 0x1
 7688 1f52 37       		.byte	0x37
 7689 1f53 00       		.byte	0
 7690 1f54 08       		.uleb128 0x8
 7691 1f55 140C0000 		.4byte	.LVL278
 7692 1f59 45240000 		.4byte	0x2445
 7693 1f5d 6E1F0000 		.4byte	0x1f6e
 7694 1f61 09       		.uleb128 0x9
 7695 1f62 01       		.uleb128 0x1
 7696 1f63 50       		.byte	0x50
 7697 1f64 02       		.uleb128 0x2
 7698 1f65 74       		.byte	0x74
 7699 1f66 00       		.sleb128 0
 7700 1f67 09       		.uleb128 0x9
 7701 1f68 01       		.uleb128 0x1
 7702 1f69 51       		.byte	0x51
 7703 1f6a 02       		.uleb128 0x2
 7704 1f6b 75       		.byte	0x75
 7705 1f6c 00       		.sleb128 0
 7706 1f6d 00       		.byte	0
 7707 1f6e 08       		.uleb128 0x8
 7708 1f6f 240C0000 		.4byte	.LVL279
 7709 1f73 0E240000 		.4byte	0x240e
 7710 1f77 A11F0000 		.4byte	0x1fa1
 7711 1f7b 09       		.uleb128 0x9
 7712 1f7c 01       		.uleb128 0x1
 7713 1f7d 50       		.byte	0x50
 7714 1f7e 02       		.uleb128 0x2
 7715 1f7f 08       		.byte	0x8
 7716 1f80 96       		.byte	0x96
 7717 1f81 09       		.uleb128 0x9
 7718 1f82 01       		.uleb128 0x1
 7719 1f83 51       		.byte	0x51
 7720 1f84 02       		.uleb128 0x2
 7721 1f85 74       		.byte	0x74
 7722 1f86 00       		.sleb128 0
 7723 1f87 09       		.uleb128 0x9
 7724 1f88 01       		.uleb128 0x1
 7725 1f89 52       		.byte	0x52
 7726 1f8a 02       		.uleb128 0x2
 7727 1f8b 74       		.byte	0x74
 7728 1f8c 00       		.sleb128 0
 7729 1f8d 09       		.uleb128 0x9
 7730 1f8e 01       		.uleb128 0x1
 7731 1f8f 53       		.byte	0x53
 7732 1f90 01       		.uleb128 0x1
 7733 1f91 30       		.byte	0x30
 7734 1f92 09       		.uleb128 0x9
 7735 1f93 02       		.uleb128 0x2
 7736 1f94 7D       		.byte	0x7d
 7737 1f95 00       		.sleb128 0
 7738 1f96 02       		.uleb128 0x2
 7739 1f97 75       		.byte	0x75
 7740 1f98 00       		.sleb128 0
 7741 1f99 09       		.uleb128 0x9
 7742 1f9a 02       		.uleb128 0x2
ARM GAS  C:\Users\jerry\AppData\Local\Temp\cc40088P.s 			page 158


 7743 1f9b 7D       		.byte	0x7d
 7744 1f9c 04       		.sleb128 4
 7745 1f9d 02       		.uleb128 0x2
 7746 1f9e 74       		.byte	0x74
 7747 1f9f 00       		.sleb128 0
 7748 1fa0 00       		.byte	0
 7749 1fa1 08       		.uleb128 0x8
 7750 1fa2 D60D0000 		.4byte	.LVL313
 7751 1fa6 0E240000 		.4byte	0x240e
 7752 1faa D41F0000 		.4byte	0x1fd4
 7753 1fae 09       		.uleb128 0x9
 7754 1faf 01       		.uleb128 0x1
 7755 1fb0 50       		.byte	0x50
 7756 1fb1 02       		.uleb128 0x2
 7757 1fb2 08       		.byte	0x8
 7758 1fb3 FA       		.byte	0xfa
 7759 1fb4 09       		.uleb128 0x9
 7760 1fb5 01       		.uleb128 0x1
 7761 1fb6 51       		.byte	0x51
 7762 1fb7 02       		.uleb128 0x2
 7763 1fb8 74       		.byte	0x74
 7764 1fb9 00       		.sleb128 0
 7765 1fba 09       		.uleb128 0x9
 7766 1fbb 01       		.uleb128 0x1
 7767 1fbc 52       		.byte	0x52
 7768 1fbd 02       		.uleb128 0x2
 7769 1fbe 09       		.byte	0x9
 7770 1fbf FF       		.byte	0xff
 7771 1fc0 09       		.uleb128 0x9
 7772 1fc1 01       		.uleb128 0x1
 7773 1fc2 53       		.byte	0x53
 7774 1fc3 01       		.uleb128 0x1
 7775 1fc4 35       		.byte	0x35
 7776 1fc5 09       		.uleb128 0x9
 7777 1fc6 02       		.uleb128 0x2
 7778 1fc7 7D       		.byte	0x7d
 7779 1fc8 00       		.sleb128 0
 7780 1fc9 02       		.uleb128 0x2
 7781 1fca 76       		.byte	0x76
 7782 1fcb 00       		.sleb128 0
 7783 1fcc 09       		.uleb128 0x9
 7784 1fcd 02       		.uleb128 0x2
 7785 1fce 7D       		.byte	0x7d
 7786 1fcf 04       		.sleb128 4
 7787 1fd0 02       		.uleb128 0x2
 7788 1fd1 74       		.byte	0x74
 7789 1fd2 00       		.sleb128 0
 7790 1fd3 00       		.byte	0
 7791 1fd4 08       		.uleb128 0x8
 7792 1fd5 DE0D0000 		.4byte	.LVL314
 7793 1fd9 45240000 		.4byte	0x2445
 7794 1fdd ED1F0000 		.4byte	0x1fed
 7795 1fe1 09       		.uleb128 0x9
 7796 1fe2 01       		.uleb128 0x1
 7797 1fe3 50       		.byte	0x50
 7798 1fe4 01       		.uleb128 0x1
 7799 1fe5 33       		.byte	0x33
ARM GAS  C:\Users\jerry\AppData\Local\Temp\cc40088P.s 			page 159


 7800 1fe6 09       		.uleb128 0x9
 7801 1fe7 01       		.uleb128 0x1
 7802 1fe8 51       		.byte	0x51
 7803 1fe9 02       		.uleb128 0x2
 7804 1fea 76       		.byte	0x76
 7805 1feb 00       		.sleb128 0
 7806 1fec 00       		.byte	0
 7807 1fed 08       		.uleb128 0x8
 7808 1fee E40D0000 		.4byte	.LVL315
 7809 1ff2 03240000 		.4byte	0x2403
 7810 1ff6 00200000 		.4byte	0x2000
 7811 1ffa 09       		.uleb128 0x9
 7812 1ffb 01       		.uleb128 0x1
 7813 1ffc 50       		.byte	0x50
 7814 1ffd 01       		.uleb128 0x1
 7815 1ffe 37       		.byte	0x37
 7816 1fff 00       		.byte	0
 7817 2000 08       		.uleb128 0x8
 7818 2001 F60D0000 		.4byte	.LVL316
 7819 2005 7C240000 		.4byte	0x247c
 7820 2009 2D200000 		.4byte	0x202d
 7821 200d 09       		.uleb128 0x9
 7822 200e 01       		.uleb128 0x1
 7823 200f 50       		.byte	0x50
 7824 2010 03       		.uleb128 0x3
 7825 2011 0A       		.byte	0xa
 7826 2012 3A02     		.2byte	0x23a
 7827 2014 09       		.uleb128 0x9
 7828 2015 01       		.uleb128 0x1
 7829 2016 51       		.byte	0x51
 7830 2017 02       		.uleb128 0x2
 7831 2018 75       		.byte	0x75
 7832 2019 00       		.sleb128 0
 7833 201a 09       		.uleb128 0x9
 7834 201b 01       		.uleb128 0x1
 7835 201c 52       		.byte	0x52
 7836 201d 01       		.uleb128 0x1
 7837 201e 35       		.byte	0x35
 7838 201f 09       		.uleb128 0x9
 7839 2020 01       		.uleb128 0x1
 7840 2021 53       		.byte	0x53
 7841 2022 02       		.uleb128 0x2
 7842 2023 08       		.byte	0x8
 7843 2024 46       		.byte	0x46
 7844 2025 09       		.uleb128 0x9
 7845 2026 02       		.uleb128 0x2
 7846 2027 7D       		.byte	0x7d
 7847 2028 00       		.sleb128 0
 7848 2029 02       		.uleb128 0x2
 7849 202a 75       		.byte	0x75
 7850 202b 00       		.sleb128 0
 7851 202c 00       		.byte	0
 7852 202d 08       		.uleb128 0x8
 7853 202e FC0D0000 		.4byte	.LVL317
 7854 2032 03240000 		.4byte	0x2403
 7855 2036 40200000 		.4byte	0x2040
 7856 203a 09       		.uleb128 0x9
ARM GAS  C:\Users\jerry\AppData\Local\Temp\cc40088P.s 			page 160


 7857 203b 01       		.uleb128 0x1
 7858 203c 50       		.byte	0x50
 7859 203d 01       		.uleb128 0x1
 7860 203e 37       		.byte	0x37
 7861 203f 00       		.byte	0
 7862 2040 08       		.uleb128 0x8
 7863 2041 040E0000 		.4byte	.LVL318
 7864 2045 45240000 		.4byte	0x2445
 7865 2049 5A200000 		.4byte	0x205a
 7866 204d 09       		.uleb128 0x9
 7867 204e 01       		.uleb128 0x1
 7868 204f 50       		.byte	0x50
 7869 2050 02       		.uleb128 0x2
 7870 2051 74       		.byte	0x74
 7871 2052 00       		.sleb128 0
 7872 2053 09       		.uleb128 0x9
 7873 2054 01       		.uleb128 0x1
 7874 2055 51       		.byte	0x51
 7875 2056 02       		.uleb128 0x2
 7876 2057 76       		.byte	0x76
 7877 2058 00       		.sleb128 0
 7878 2059 00       		.byte	0
 7879 205a 08       		.uleb128 0x8
 7880 205b 160E0000 		.4byte	.LVL319
 7881 205f 0E240000 		.4byte	0x240e
 7882 2063 8C200000 		.4byte	0x208c
 7883 2067 09       		.uleb128 0x9
 7884 2068 01       		.uleb128 0x1
 7885 2069 50       		.byte	0x50
 7886 206a 01       		.uleb128 0x1
 7887 206b 4E       		.byte	0x4e
 7888 206c 09       		.uleb128 0x9
 7889 206d 01       		.uleb128 0x1
 7890 206e 51       		.byte	0x51
 7891 206f 02       		.uleb128 0x2
 7892 2070 74       		.byte	0x74
 7893 2071 00       		.sleb128 0
 7894 2072 09       		.uleb128 0x9
 7895 2073 01       		.uleb128 0x1
 7896 2074 52       		.byte	0x52
 7897 2075 02       		.uleb128 0x2
 7898 2076 75       		.byte	0x75
 7899 2077 00       		.sleb128 0
 7900 2078 09       		.uleb128 0x9
 7901 2079 01       		.uleb128 0x1
 7902 207a 53       		.byte	0x53
 7903 207b 01       		.uleb128 0x1
 7904 207c 34       		.byte	0x34
 7905 207d 09       		.uleb128 0x9
 7906 207e 02       		.uleb128 0x2
 7907 207f 7D       		.byte	0x7d
 7908 2080 00       		.sleb128 0
 7909 2081 02       		.uleb128 0x2
 7910 2082 08       		.byte	0x8
 7911 2083 46       		.byte	0x46
 7912 2084 09       		.uleb128 0x9
 7913 2085 02       		.uleb128 0x2
ARM GAS  C:\Users\jerry\AppData\Local\Temp\cc40088P.s 			page 161


 7914 2086 7D       		.byte	0x7d
 7915 2087 04       		.sleb128 4
 7916 2088 02       		.uleb128 0x2
 7917 2089 75       		.byte	0x75
 7918 208a 00       		.sleb128 0
 7919 208b 00       		.byte	0
 7920 208c 0A       		.uleb128 0xa
 7921 208d 1E0E0000 		.4byte	.LVL320
 7922 2091 50240000 		.4byte	0x2450
 7923 2095 09       		.uleb128 0x9
 7924 2096 01       		.uleb128 0x1
 7925 2097 50       		.byte	0x50
 7926 2098 02       		.uleb128 0x2
 7927 2099 74       		.byte	0x74
 7928 209a 00       		.sleb128 0
 7929 209b 09       		.uleb128 0x9
 7930 209c 01       		.uleb128 0x1
 7931 209d 51       		.byte	0x51
 7932 209e 01       		.uleb128 0x1
 7933 209f 32       		.byte	0x32
 7934 20a0 00       		.byte	0
 7935 20a1 00       		.byte	0
 7936 20a2 11       		.uleb128 0x11
 7937 20a3 6B070000 		.4byte	.LASF23
 7938 20a7 04       		.byte	0x4
 7939 20a8 1207     		.2byte	0x712
 7940 20aa AE200000 		.4byte	0x20ae
 7941 20ae 12       		.uleb128 0x12
 7942 20af 7D000000 		.4byte	0x7d
 7943 20b3 13       		.uleb128 0x13
 7944 20b4 FE020000 		.4byte	.LASF24
 7945 20b8 05       		.byte	0x5
 7946 20b9 22       		.byte	0x22
 7947 20ba 6F000000 		.4byte	0x6f
 7948 20be 05       		.uleb128 0x5
 7949 20bf 03       		.byte	0x3
 7950 20c0 00000000 		.4byte	internal_orientation
 7951 20c4 14       		.uleb128 0x14
 7952 20c5 6F000000 		.4byte	0x6f
 7953 20c9 D4200000 		.4byte	0x20d4
 7954 20cd 15       		.uleb128 0x15
 7955 20ce 9D000000 		.4byte	0x9d
 7956 20d2 04       		.byte	0x4
 7957 20d3 00       		.byte	0
 7958 20d4 13       		.uleb128 0x13
 7959 20d5 02040000 		.4byte	.LASF25
 7960 20d9 01       		.byte	0x1
 7961 20da 29       		.byte	0x29
 7962 20db C4200000 		.4byte	0x20c4
 7963 20df 05       		.uleb128 0x5
 7964 20e0 03       		.byte	0x3
 7965 20e1 00000000 		.4byte	puck_rack_scans
 7966 20e5 13       		.uleb128 0x13
 7967 20e6 1C050000 		.4byte	.LASF26
 7968 20ea 01       		.byte	0x1
 7969 20eb 2B       		.byte	0x2b
 7970 20ec C4200000 		.4byte	0x20c4
ARM GAS  C:\Users\jerry\AppData\Local\Temp\cc40088P.s 			page 162


 7971 20f0 05       		.uleb128 0x5
 7972 20f1 03       		.byte	0x3
 7973 20f2 00000000 		.4byte	puck_rack_west_offsets
 7974 20f6 14       		.uleb128 0x14
 7975 20f7 25000000 		.4byte	0x25
 7976 20fb 06210000 		.4byte	0x2106
 7977 20ff 15       		.uleb128 0x15
 7978 2100 9D000000 		.4byte	0x9d
 7979 2104 03       		.byte	0x3
 7980 2105 00       		.byte	0
 7981 2106 13       		.uleb128 0x13
 7982 2107 97040000 		.4byte	.LASF27
 7983 210b 01       		.byte	0x1
 7984 210c 25       		.byte	0x25
 7985 210d F6200000 		.4byte	0x20f6
 7986 2111 05       		.uleb128 0x5
 7987 2112 03       		.byte	0x3
 7988 2113 00000000 		.4byte	block_edge_location
 7989 2117 13       		.uleb128 0x13
 7990 2118 26080000 		.4byte	.LASF28
 7991 211c 06       		.byte	0x6
 7992 211d 23       		.byte	0x23
 7993 211e 6F000000 		.4byte	0x6f
 7994 2122 05       		.uleb128 0x5
 7995 2123 03       		.byte	0x3
 7996 2124 00000000 		.4byte	initialisation
 7997 2128 14       		.uleb128 0x14
 7998 2129 8F000000 		.4byte	0x8f
 7999 212d 38210000 		.4byte	0x2138
 8000 2131 15       		.uleb128 0x15
 8001 2132 9D000000 		.4byte	0x9d
 8002 2136 1F       		.byte	0x1f
 8003 2137 00       		.byte	0
 8004 2138 13       		.uleb128 0x13
 8005 2139 27070000 		.4byte	.LASF29
 8006 213d 01       		.byte	0x1
 8007 213e 21       		.byte	0x21
 8008 213f 28210000 		.4byte	0x2128
 8009 2143 05       		.uleb128 0x5
 8010 2144 03       		.byte	0x3
 8011 2145 00000000 		.4byte	output
 8012 2149 14       		.uleb128 0x14
 8013 214a 6F000000 		.4byte	0x6f
 8014 214e 59210000 		.4byte	0x2159
 8015 2152 15       		.uleb128 0x15
 8016 2153 9D000000 		.4byte	0x9d
 8017 2157 06       		.byte	0x6
 8018 2158 00       		.byte	0
 8019 2159 16       		.uleb128 0x16
 8020 215a AA060000 		.4byte	.LASF30
 8021 215e 07       		.byte	0x7
 8022 215f CC       		.byte	0xcc
 8023 2160 49210000 		.4byte	0x2149
 8024 2164 13       		.uleb128 0x13
 8025 2165 B7000000 		.4byte	.LASF31
 8026 2169 05       		.byte	0x5
 8027 216a 2B       		.byte	0x2b
ARM GAS  C:\Users\jerry\AppData\Local\Temp\cc40088P.s 			page 163


 8028 216b 6F000000 		.4byte	0x6f
 8029 216f 05       		.uleb128 0x5
 8030 2170 03       		.byte	0x3
 8031 2171 00000000 		.4byte	global_encoder
 8032 2175 13       		.uleb128 0x13
 8033 2176 86010000 		.4byte	.LASF32
 8034 217a 05       		.byte	0x5
 8035 217b 2C       		.byte	0x2c
 8036 217c 6F000000 		.4byte	0x6f
 8037 2180 05       		.uleb128 0x5
 8038 2181 03       		.byte	0x3
 8039 2182 00000000 		.4byte	global_distance
 8040 2186 13       		.uleb128 0x13
 8041 2187 D9060000 		.4byte	.LASF33
 8042 218b 07       		.byte	0x7
 8043 218c D2       		.byte	0xd2
 8044 218d 6F000000 		.4byte	0x6f
 8045 2191 05       		.uleb128 0x5
 8046 2192 03       		.byte	0x3
 8047 2193 00000000 		.4byte	preferential_route
 8048 2197 13       		.uleb128 0x13
 8049 2198 36000000 		.4byte	.LASF34
 8050 219c 07       		.byte	0x7
 8051 219d D3       		.byte	0xd3
 8052 219e 6F000000 		.4byte	0x6f
 8053 21a2 05       		.uleb128 0x5
 8054 21a3 03       		.byte	0x3
 8055 21a4 00000000 		.4byte	initial_tolerance
 8056 21a8 13       		.uleb128 0x13
 8057 21a9 AB050000 		.4byte	.LASF35
 8058 21ad 07       		.byte	0x7
 8059 21ae D4       		.byte	0xd4
 8060 21af 6F000000 		.4byte	0x6f
 8061 21b3 05       		.uleb128 0x5
 8062 21b4 03       		.byte	0x3
 8063 21b5 00000000 		.4byte	set_path
 8064 21b9 13       		.uleb128 0x13
 8065 21ba 76020000 		.4byte	.LASF36
 8066 21be 07       		.byte	0x7
 8067 21bf D6       		.byte	0xd6
 8068 21c0 6F000000 		.4byte	0x6f
 8069 21c4 05       		.uleb128 0x5
 8070 21c5 03       		.byte	0x3
 8071 21c6 00000000 		.4byte	puck_grid_initial
 8072 21ca 13       		.uleb128 0x13
 8073 21cb DE030000 		.4byte	.LASF37
 8074 21cf 01       		.byte	0x1
 8075 21d0 4D       		.byte	0x4d
 8076 21d1 6F000000 		.4byte	0x6f
 8077 21d5 05       		.uleb128 0x5
 8078 21d6 03       		.byte	0x3
 8079 21d7 00000000 		.4byte	colour_flag
 8080 21db 13       		.uleb128 0x13
 8081 21dc B8030000 		.4byte	.LASF38
 8082 21e0 01       		.byte	0x1
 8083 21e1 24       		.byte	0x24
 8084 21e2 6F000000 		.4byte	0x6f
ARM GAS  C:\Users\jerry\AppData\Local\Temp\cc40088P.s 			page 164


 8085 21e6 05       		.uleb128 0x5
 8086 21e7 03       		.byte	0x3
 8087 21e8 00000000 		.4byte	state
 8088 21ec 13       		.uleb128 0x13
 8089 21ed B7010000 		.4byte	.LASF39
 8090 21f1 01       		.byte	0x1
 8091 21f2 53       		.byte	0x53
 8092 21f3 6F000000 		.4byte	0x6f
 8093 21f7 05       		.uleb128 0x5
 8094 21f8 03       		.byte	0x3
 8095 21f9 00000000 		.4byte	moving
 8096 21fd 13       		.uleb128 0x13
 8097 21fe A7010000 		.4byte	.LASF40
 8098 2202 06       		.byte	0x6
 8099 2203 25       		.byte	0x25
 8100 2204 6F000000 		.4byte	0x6f
 8101 2208 05       		.uleb128 0x5
 8102 2209 03       		.byte	0x3
 8103 220a 00000000 		.4byte	ultrasonic_flag
 8104 220e 14       		.uleb128 0x14
 8105 220f 6F000000 		.4byte	0x6f
 8106 2213 1E220000 		.4byte	0x221e
 8107 2217 15       		.uleb128 0x15
 8108 2218 9D000000 		.4byte	0x9d
 8109 221c 02       		.byte	0x2
 8110 221d 00       		.byte	0
 8111 221e 13       		.uleb128 0x13
 8112 221f 63040000 		.4byte	.LASF41
 8113 2223 01       		.byte	0x1
 8114 2224 2A       		.byte	0x2a
 8115 2225 0E220000 		.4byte	0x220e
 8116 2229 05       		.uleb128 0x5
 8117 222a 03       		.byte	0x3
 8118 222b 00000000 		.4byte	puck_construction_plan
 8119 222f 13       		.uleb128 0x13
 8120 2230 6D080000 		.4byte	.LASF42
 8121 2234 01       		.byte	0x1
 8122 2235 57       		.byte	0x57
 8123 2236 6F000000 		.4byte	0x6f
 8124 223a 05       		.uleb128 0x5
 8125 223b 03       		.byte	0x3
 8126 223c 00000000 		.4byte	current_stage
 8127 2240 13       		.uleb128 0x13
 8128 2241 92050000 		.4byte	.LASF43
 8129 2245 01       		.byte	0x1
 8130 2246 4E       		.byte	0x4e
 8131 2247 6F000000 		.4byte	0x6f
 8132 224b 05       		.uleb128 0x5
 8133 224c 03       		.byte	0x3
 8134 224d 00000000 		.4byte	colour_sensing_algorithm
 8135 2251 13       		.uleb128 0x13
 8136 2252 52030000 		.4byte	.LASF44
 8137 2256 01       		.byte	0x1
 8138 2257 41       		.byte	0x41
 8139 2258 6F000000 		.4byte	0x6f
 8140 225c 05       		.uleb128 0x5
 8141 225d 03       		.byte	0x3
ARM GAS  C:\Users\jerry\AppData\Local\Temp\cc40088P.s 			page 165


 8142 225e 00000000 		.4byte	safety_override
 8143 2262 14       		.uleb128 0x14
 8144 2263 6F000000 		.4byte	0x6f
 8145 2267 72220000 		.4byte	0x2272
 8146 226b 15       		.uleb128 0x15
 8147 226c 9D000000 		.4byte	0x9d
 8148 2270 03       		.byte	0x3
 8149 2271 00       		.byte	0
 8150 2272 13       		.uleb128 0x13
 8151 2273 27020000 		.4byte	.LASF45
 8152 2277 01       		.byte	0x1
 8153 2278 36       		.byte	0x36
 8154 2279 62220000 		.4byte	0x2262
 8155 227d 05       		.uleb128 0x5
 8156 227e 03       		.byte	0x3
 8157 227f 00000000 		.4byte	block_location
 8158 2283 13       		.uleb128 0x13
 8159 2284 38040000 		.4byte	.LASF46
 8160 2288 01       		.byte	0x1
 8161 2289 3B       		.byte	0x3b
 8162 228a 62220000 		.4byte	0x2262
 8163 228e 05       		.uleb128 0x5
 8164 228f 03       		.byte	0x3
 8165 2290 00000000 		.4byte	puck_location
 8166 2294 13       		.uleb128 0x13
 8167 2295 0E080000 		.4byte	.LASF47
 8168 2299 01       		.byte	0x1
 8169 229a 28       		.byte	0x28
 8170 229b 6F000000 		.4byte	0x6f
 8171 229f 05       		.uleb128 0x5
 8172 22a0 03       		.byte	0x3
 8173 22a1 00000000 		.4byte	current_puck_stack_size
 8174 22a5 14       		.uleb128 0x14
 8175 22a6 6F000000 		.4byte	0x6f
 8176 22aa B5220000 		.4byte	0x22b5
 8177 22ae 15       		.uleb128 0x15
 8178 22af 9D000000 		.4byte	0x9d
 8179 22b3 01       		.byte	0x1
 8180 22b4 00       		.byte	0
 8181 22b5 13       		.uleb128 0x13
 8182 22b6 6F010000 		.4byte	.LASF48
 8183 22ba 01       		.byte	0x1
 8184 22bb 31       		.byte	0x31
 8185 22bc A5220000 		.4byte	0x22a5
 8186 22c0 05       		.uleb128 0x5
 8187 22c1 03       		.byte	0x3
 8188 22c2 00000000 		.4byte	puck_temp_pile
 8189 22c6 13       		.uleb128 0x13
 8190 22c7 6A060000 		.4byte	.LASF49
 8191 22cb 01       		.byte	0x1
 8192 22cc 35       		.byte	0x35
 8193 22cd 6F000000 		.4byte	0x6f
 8194 22d1 05       		.uleb128 0x5
 8195 22d2 03       		.byte	0x3
 8196 22d3 00000000 		.4byte	begin_navigation
 8197 22d7 13       		.uleb128 0x13
 8198 22d8 D0000000 		.4byte	.LASF50
ARM GAS  C:\Users\jerry\AppData\Local\Temp\cc40088P.s 			page 166


 8199 22dc 01       		.byte	0x1
 8200 22dd 45       		.byte	0x45
 8201 22de 3A000000 		.4byte	0x3a
 8202 22e2 05       		.uleb128 0x5
 8203 22e3 03       		.byte	0x3
 8204 22e4 00000000 		.4byte	block_east_clearance
 8205 22e8 13       		.uleb128 0x13
 8206 22e9 DA050000 		.4byte	.LASF51
 8207 22ed 01       		.byte	0x1
 8208 22ee 46       		.byte	0x46
 8209 22ef 3A000000 		.4byte	0x3a
 8210 22f3 05       		.uleb128 0x5
 8211 22f4 03       		.byte	0x3
 8212 22f5 00000000 		.4byte	block_west_clearance
 8213 22f9 13       		.uleb128 0x13
 8214 22fa 5B010000 		.4byte	.LASF52
 8215 22fe 01       		.byte	0x1
 8216 22ff 47       		.byte	0x47
 8217 2300 3A000000 		.4byte	0x3a
 8218 2304 05       		.uleb128 0x5
 8219 2305 03       		.byte	0x3
 8220 2306 00000000 		.4byte	puck_east_clearance
 8221 230a 13       		.uleb128 0x13
 8222 230b 68000000 		.4byte	.LASF53
 8223 230f 01       		.byte	0x1
 8224 2310 48       		.byte	0x48
 8225 2311 3A000000 		.4byte	0x3a
 8226 2315 05       		.uleb128 0x5
 8227 2316 03       		.byte	0x3
 8228 2317 00000000 		.4byte	puck_west_clearance
 8229 231b 13       		.uleb128 0x13
 8230 231c E1040000 		.4byte	.LASF54
 8231 2320 01       		.byte	0x1
 8232 2321 4C       		.byte	0x4c
 8233 2322 6F000000 		.4byte	0x6f
 8234 2326 05       		.uleb128 0x5
 8235 2327 03       		.byte	0x3
 8236 2328 00000000 		.4byte	idac_value
 8237 232c 13       		.uleb128 0x13
 8238 232d 7F050000 		.4byte	.LASF55
 8239 2331 01       		.byte	0x1
 8240 2332 55       		.byte	0x55
 8241 2333 3D230000 		.4byte	0x233d
 8242 2337 05       		.uleb128 0x5
 8243 2338 03       		.byte	0x3
 8244 2339 00000000 		.4byte	PLAN_SCAN_VERTICAL
 8245 233d 17       		.uleb128 0x17
 8246 233e 6F000000 		.4byte	0x6f
 8247 2342 13       		.uleb128 0x13
 8248 2343 35070000 		.4byte	.LASF56
 8249 2347 01       		.byte	0x1
 8250 2348 5B       		.byte	0x5b
 8251 2349 6F000000 		.4byte	0x6f
 8252 234d 05       		.uleb128 0x5
 8253 234e 03       		.byte	0x3
 8254 234f 00000000 		.4byte	distance_returned_global
 8255 2353 18       		.uleb128 0x18
ARM GAS  C:\Users\jerry\AppData\Local\Temp\cc40088P.s 			page 167


 8256 2354 5B020000 		.4byte	.LASF57
 8257 2358 5B020000 		.4byte	.LASF57
 8258 235c 06       		.byte	0x6
 8259 235d 17       		.byte	0x17
 8260 235e 18       		.uleb128 0x18
 8261 235f 06080000 		.4byte	.LASF58
 8262 2363 06080000 		.4byte	.LASF58
 8263 2367 08       		.byte	0x8
 8264 2368 76       		.byte	0x76
 8265 2369 18       		.uleb128 0x18
 8266 236a 99060000 		.4byte	.LASF59
 8267 236e 99060000 		.4byte	.LASF59
 8268 2372 09       		.byte	0x9
 8269 2373 8B       		.byte	0x8b
 8270 2374 18       		.uleb128 0x18
 8271 2375 0D010000 		.4byte	.LASF60
 8272 2379 0D010000 		.4byte	.LASF60
 8273 237d 0A       		.byte	0xa
 8274 237e 5E       		.byte	0x5e
 8275 237f 18       		.uleb128 0x18
 8276 2380 EA030000 		.4byte	.LASF61
 8277 2384 EA030000 		.4byte	.LASF61
 8278 2388 0B       		.byte	0xb
 8279 2389 DC       		.byte	0xdc
 8280 238a 18       		.uleb128 0x18
 8281 238b D2020000 		.4byte	.LASF62
 8282 238f D2020000 		.4byte	.LASF62
 8283 2393 0C       		.byte	0xc
 8284 2394 DC       		.byte	0xdc
 8285 2395 18       		.uleb128 0x18
 8286 2396 03020000 		.4byte	.LASF63
 8287 239a 03020000 		.4byte	.LASF63
 8288 239e 0D       		.byte	0xd
 8289 239f 0E       		.byte	0xe
 8290 23a0 18       		.uleb128 0x18
 8291 23a1 4E070000 		.4byte	.LASF64
 8292 23a5 4E070000 		.4byte	.LASF64
 8293 23a9 0E       		.byte	0xe
 8294 23aa 2F       		.byte	0x2f
 8295 23ab 18       		.uleb128 0x18
 8296 23ac 54080000 		.4byte	.LASF65
 8297 23b0 54080000 		.4byte	.LASF65
 8298 23b4 0B       		.byte	0xb
 8299 23b5 DD       		.byte	0xdd
 8300 23b6 18       		.uleb128 0x18
 8301 23b7 35080000 		.4byte	.LASF66
 8302 23bb 35080000 		.4byte	.LASF66
 8303 23bf 0B       		.byte	0xb
 8304 23c0 C3       		.byte	0xc3
 8305 23c1 18       		.uleb128 0x18
 8306 23c2 AF020000 		.4byte	.LASF67
 8307 23c6 AF020000 		.4byte	.LASF67
 8308 23ca 0C       		.byte	0xc
 8309 23cb DD       		.byte	0xdd
 8310 23cc 18       		.uleb128 0x18
 8311 23cd 48000000 		.4byte	.LASF68
 8312 23d1 48000000 		.4byte	.LASF68
ARM GAS  C:\Users\jerry\AppData\Local\Temp\cc40088P.s 			page 168


 8313 23d5 0C       		.byte	0xc
 8314 23d6 C3       		.byte	0xc3
 8315 23d7 18       		.uleb128 0x18
 8316 23d8 7C000000 		.4byte	.LASF69
 8317 23dc 7C000000 		.4byte	.LASF69
 8318 23e0 0F       		.byte	0xf
 8319 23e1 1D       		.byte	0x1d
 8320 23e2 18       		.uleb128 0x18
 8321 23e3 49030000 		.4byte	.LASF70
 8322 23e7 49030000 		.4byte	.LASF70
 8323 23eb 0F       		.byte	0xf
 8324 23ec 1C       		.byte	0x1c
 8325 23ed 18       		.uleb128 0x18
 8326 23ee 5B040000 		.4byte	.LASF71
 8327 23f2 5B040000 		.4byte	.LASF71
 8328 23f6 10       		.byte	0x10
 8329 23f7 E7       		.byte	0xe7
 8330 23f8 18       		.uleb128 0x18
 8331 23f9 24000000 		.4byte	.LASF72
 8332 23fd 24000000 		.4byte	.LASF72
 8333 2401 11       		.byte	0x11
 8334 2402 0E       		.byte	0xe
 8335 2403 18       		.uleb128 0x18
 8336 2404 A8000000 		.4byte	.LASF73
 8337 2408 A8000000 		.4byte	.LASF73
 8338 240c 05       		.byte	0x5
 8339 240d 13       		.byte	0x13
 8340 240e 18       		.uleb128 0x18
 8341 240f 14070000 		.4byte	.LASF74
 8342 2413 14070000 		.4byte	.LASF74
 8343 2417 05       		.byte	0x5
 8344 2418 12       		.byte	0x12
 8345 2419 18       		.uleb128 0x18
 8346 241a 90000000 		.4byte	.LASF75
 8347 241e 90000000 		.4byte	.LASF75
 8348 2422 0F       		.byte	0xf
 8349 2423 19       		.byte	0x19
 8350 2424 18       		.uleb128 0x18
 8351 2425 7E030000 		.4byte	.LASF76
 8352 2429 7E030000 		.4byte	.LASF76
 8353 242d 12       		.byte	0x12
 8354 242e 2F       		.byte	0x2f
 8355 242f 18       		.uleb128 0x18
 8356 2430 46040000 		.4byte	.LASF77
 8357 2434 46040000 		.4byte	.LASF77
 8358 2438 0D       		.byte	0xd
 8359 2439 0F       		.byte	0xf
 8360 243a 18       		.uleb128 0x18
 8361 243b 5E050000 		.4byte	.LASF78
 8362 243f 5E050000 		.4byte	.LASF78
 8363 2443 06       		.byte	0x6
 8364 2444 16       		.byte	0x16
 8365 2445 18       		.uleb128 0x18
 8366 2446 BE030000 		.4byte	.LASF79
 8367 244a BE030000 		.4byte	.LASF79
 8368 244e 05       		.byte	0x5
 8369 244f 18       		.byte	0x18
ARM GAS  C:\Users\jerry\AppData\Local\Temp\cc40088P.s 			page 169


 8370 2450 18       		.uleb128 0x18
 8371 2451 8E020000 		.4byte	.LASF80
 8372 2455 8E020000 		.4byte	.LASF80
 8373 2459 13       		.byte	0x13
 8374 245a 0F       		.byte	0xf
 8375 245b 18       		.uleb128 0x18
 8376 245c 12040000 		.4byte	.LASF81
 8377 2460 12040000 		.4byte	.LASF81
 8378 2464 05       		.byte	0x5
 8379 2465 10       		.byte	0x10
 8380 2466 18       		.uleb128 0x18
 8381 2467 C9020000 		.4byte	.LASF82
 8382 246b C9020000 		.4byte	.LASF82
 8383 246f 13       		.byte	0x13
 8384 2470 11       		.byte	0x11
 8385 2471 18       		.uleb128 0x18
 8386 2472 6F030000 		.4byte	.LASF83
 8387 2476 6F030000 		.4byte	.LASF83
 8388 247a 05       		.byte	0x5
 8389 247b 16       		.byte	0x16
 8390 247c 18       		.uleb128 0x18
 8391 247d C2050000 		.4byte	.LASF84
 8392 2481 C2050000 		.4byte	.LASF84
 8393 2485 05       		.byte	0x5
 8394 2486 29       		.byte	0x29
 8395 2487 18       		.uleb128 0x18
 8396 2488 00000000 		.4byte	.LASF85
 8397 248c 00000000 		.4byte	.LASF85
 8398 2490 13       		.byte	0x13
 8399 2491 10       		.byte	0x10
 8400 2492 18       		.uleb128 0x18
 8401 2493 52050000 		.4byte	.LASF86
 8402 2497 52050000 		.4byte	.LASF86
 8403 249b 14       		.byte	0x14
 8404 249c 3D       		.byte	0x3d
 8405 249d 18       		.uleb128 0x18
 8406 249e 62030000 		.4byte	.LASF87
 8407 24a2 62030000 		.4byte	.LASF87
 8408 24a6 09       		.byte	0x9
 8409 24a7 54       		.byte	0x54
 8410 24a8 18       		.uleb128 0x18
 8411 24a9 EB020000 		.4byte	.LASF88
 8412 24ad EB020000 		.4byte	.LASF88
 8413 24b1 15       		.byte	0x15
 8414 24b2 3A       		.byte	0x3a
 8415 24b3 18       		.uleb128 0x18
 8416 24b4 FE040000 		.4byte	.LASF89
 8417 24b8 FE040000 		.4byte	.LASF89
 8418 24bc 16       		.byte	0x16
 8419 24bd 3C       		.byte	0x3c
 8420 24be 18       		.uleb128 0x18
 8421 24bf 7A040000 		.4byte	.LASF90
 8422 24c3 7A040000 		.4byte	.LASF90
 8423 24c7 16       		.byte	0x16
 8424 24c8 40       		.byte	0x40
 8425 24c9 18       		.uleb128 0x18
 8426 24ca EF050000 		.4byte	.LASF91
ARM GAS  C:\Users\jerry\AppData\Local\Temp\cc40088P.s 			page 170


 8427 24ce EF050000 		.4byte	.LASF91
 8428 24d2 16       		.byte	0x16
 8429 24d3 41       		.byte	0x41
 8430 24d4 18       		.uleb128 0x18
 8431 24d5 C2040000 		.4byte	.LASF92
 8432 24d9 C2040000 		.4byte	.LASF92
 8433 24dd 17       		.byte	0x17
 8434 24de 2F       		.byte	0x2f
 8435 24df 18       		.uleb128 0x18
 8436 24e0 EE010000 		.4byte	.LASF93
 8437 24e4 EE010000 		.4byte	.LASF93
 8438 24e8 18       		.byte	0x18
 8439 24e9 92       		.byte	0x92
 8440 24ea 18       		.uleb128 0x18
 8441 24eb 9C030000 		.4byte	.LASF94
 8442 24ef 9C030000 		.4byte	.LASF94
 8443 24f3 18       		.byte	0x18
 8444 24f4 C3       		.byte	0xc3
 8445 24f5 18       		.uleb128 0x18
 8446 24f6 BE010000 		.4byte	.LASF95
 8447 24fa BE010000 		.4byte	.LASF95
 8448 24fe 18       		.byte	0x18
 8449 24ff DC       		.byte	0xdc
 8450 2500 18       		.uleb128 0x18
 8451 2501 36020000 		.4byte	.LASF96
 8452 2505 36020000 		.4byte	.LASF96
 8453 2509 19       		.byte	0x19
 8454 250a 92       		.byte	0x92
 8455 250b 18       		.uleb128 0x18
 8456 250c 33050000 		.4byte	.LASF97
 8457 2510 33050000 		.4byte	.LASF97
 8458 2514 19       		.byte	0x19
 8459 2515 C3       		.byte	0xc3
 8460 2516 18       		.uleb128 0x18
 8461 2517 0F020000 		.4byte	.LASF98
 8462 251b 0F020000 		.4byte	.LASF98
 8463 251f 19       		.byte	0x19
 8464 2520 DC       		.byte	0xdc
 8465 2521 18       		.uleb128 0x18
 8466 2522 20040000 		.4byte	.LASF99
 8467 2526 20040000 		.4byte	.LASF99
 8468 252a 0B       		.byte	0xb
 8469 252b 92       		.byte	0x92
 8470 252c 18       		.uleb128 0x18
 8471 252d 13030000 		.4byte	.LASF100
 8472 2531 13030000 		.4byte	.LASF100
 8473 2535 0C       		.byte	0xc
 8474 2536 92       		.byte	0x92
 8475 2537 18       		.uleb128 0x18
 8476 2538 36010000 		.4byte	.LASF101
 8477 253c 36010000 		.4byte	.LASF101
 8478 2540 1A       		.byte	0x1a
 8479 2541 48       		.byte	0x48
 8480 2542 18       		.uleb128 0x18
 8481 2543 F3000000 		.4byte	.LASF102
 8482 2547 F3000000 		.4byte	.LASF102
 8483 254b 1B       		.byte	0x1b
ARM GAS  C:\Users\jerry\AppData\Local\Temp\cc40088P.s 			page 171


 8484 254c 48       		.byte	0x48
 8485 254d 18       		.uleb128 0x18
 8486 254e B4050000 		.4byte	.LASF103
 8487 2552 B4050000 		.4byte	.LASF103
 8488 2556 1C       		.byte	0x1c
 8489 2557 5A       		.byte	0x5a
 8490 2558 18       		.uleb128 0x18
 8491 2559 D3010000 		.4byte	.LASF104
 8492 255d D3010000 		.4byte	.LASF104
 8493 2561 1C       		.byte	0x1c
 8494 2562 5E       		.byte	0x5e
 8495 2563 18       		.uleb128 0x18
 8496 2564 E5000000 		.4byte	.LASF105
 8497 2568 E5000000 		.4byte	.LASF105
 8498 256c 1D       		.byte	0x1d
 8499 256d 18       		.byte	0x18
 8500 256e 18       		.uleb128 0x18
 8501 256f 7B060000 		.4byte	.LASF106
 8502 2573 7B060000 		.4byte	.LASF106
 8503 2577 1E       		.byte	0x1e
 8504 2578 18       		.byte	0x18
 8505 2579 18       		.uleb128 0x18
 8506 257a 96010000 		.4byte	.LASF107
 8507 257e 96010000 		.4byte	.LASF107
 8508 2582 1F       		.byte	0x1f
 8509 2583 18       		.byte	0x18
 8510 2584 18       		.uleb128 0x18
 8511 2585 00070000 		.4byte	.LASF108
 8512 2589 00070000 		.4byte	.LASF108
 8513 258d 06       		.byte	0x6
 8514 258e 18       		.byte	0x18
 8515 258f 18       		.uleb128 0x18
 8516 2590 08000000 		.4byte	.LASF109
 8517 2594 08000000 		.4byte	.LASF109
 8518 2598 0A       		.byte	0xa
 8519 2599 5A       		.byte	0x5a
 8520 259a 00       		.byte	0
 8521              		.section	.debug_abbrev,"",%progbits
 8522              	.Ldebug_abbrev0:
 8523 0000 01       		.uleb128 0x1
 8524 0001 11       		.uleb128 0x11
 8525 0002 01       		.byte	0x1
 8526 0003 25       		.uleb128 0x25
 8527 0004 0E       		.uleb128 0xe
 8528 0005 13       		.uleb128 0x13
 8529 0006 0B       		.uleb128 0xb
 8530 0007 03       		.uleb128 0x3
 8531 0008 0E       		.uleb128 0xe
 8532 0009 1B       		.uleb128 0x1b
 8533 000a 0E       		.uleb128 0xe
 8534 000b 55       		.uleb128 0x55
 8535 000c 17       		.uleb128 0x17
 8536 000d 11       		.uleb128 0x11
 8537 000e 01       		.uleb128 0x1
 8538 000f 10       		.uleb128 0x10
 8539 0010 17       		.uleb128 0x17
 8540 0011 00       		.byte	0
ARM GAS  C:\Users\jerry\AppData\Local\Temp\cc40088P.s 			page 172


 8541 0012 00       		.byte	0
 8542 0013 02       		.uleb128 0x2
 8543 0014 24       		.uleb128 0x24
 8544 0015 00       		.byte	0
 8545 0016 0B       		.uleb128 0xb
 8546 0017 0B       		.uleb128 0xb
 8547 0018 3E       		.uleb128 0x3e
 8548 0019 0B       		.uleb128 0xb
 8549 001a 03       		.uleb128 0x3
 8550 001b 0E       		.uleb128 0xe
 8551 001c 00       		.byte	0
 8552 001d 00       		.byte	0
 8553 001e 03       		.uleb128 0x3
 8554 001f 16       		.uleb128 0x16
 8555 0020 00       		.byte	0
 8556 0021 03       		.uleb128 0x3
 8557 0022 0E       		.uleb128 0xe
 8558 0023 3A       		.uleb128 0x3a
 8559 0024 0B       		.uleb128 0xb
 8560 0025 3B       		.uleb128 0x3b
 8561 0026 0B       		.uleb128 0xb
 8562 0027 49       		.uleb128 0x49
 8563 0028 13       		.uleb128 0x13
 8564 0029 00       		.byte	0
 8565 002a 00       		.byte	0
 8566 002b 04       		.uleb128 0x4
 8567 002c 24       		.uleb128 0x24
 8568 002d 00       		.byte	0
 8569 002e 0B       		.uleb128 0xb
 8570 002f 0B       		.uleb128 0xb
 8571 0030 3E       		.uleb128 0x3e
 8572 0031 0B       		.uleb128 0xb
 8573 0032 03       		.uleb128 0x3
 8574 0033 08       		.uleb128 0x8
 8575 0034 00       		.byte	0
 8576 0035 00       		.byte	0
 8577 0036 05       		.uleb128 0x5
 8578 0037 2E       		.uleb128 0x2e
 8579 0038 01       		.byte	0x1
 8580 0039 3F       		.uleb128 0x3f
 8581 003a 19       		.uleb128 0x19
 8582 003b 03       		.uleb128 0x3
 8583 003c 08       		.uleb128 0x8
 8584 003d 3A       		.uleb128 0x3a
 8585 003e 0B       		.uleb128 0xb
 8586 003f 3B       		.uleb128 0x3b
 8587 0040 0B       		.uleb128 0xb
 8588 0041 27       		.uleb128 0x27
 8589 0042 19       		.uleb128 0x19
 8590 0043 11       		.uleb128 0x11
 8591 0044 01       		.uleb128 0x1
 8592 0045 12       		.uleb128 0x12
 8593 0046 06       		.uleb128 0x6
 8594 0047 40       		.uleb128 0x40
 8595 0048 18       		.uleb128 0x18
 8596 0049 9742     		.uleb128 0x2117
 8597 004b 19       		.uleb128 0x19
ARM GAS  C:\Users\jerry\AppData\Local\Temp\cc40088P.s 			page 173


 8598 004c 01       		.uleb128 0x1
 8599 004d 13       		.uleb128 0x13
 8600 004e 00       		.byte	0
 8601 004f 00       		.byte	0
 8602 0050 06       		.uleb128 0x6
 8603 0051 898201   		.uleb128 0x4109
 8604 0054 00       		.byte	0
 8605 0055 11       		.uleb128 0x11
 8606 0056 01       		.uleb128 0x1
 8607 0057 31       		.uleb128 0x31
 8608 0058 13       		.uleb128 0x13
 8609 0059 00       		.byte	0
 8610 005a 00       		.byte	0
 8611 005b 07       		.uleb128 0x7
 8612 005c 2E       		.uleb128 0x2e
 8613 005d 01       		.byte	0x1
 8614 005e 3F       		.uleb128 0x3f
 8615 005f 19       		.uleb128 0x19
 8616 0060 03       		.uleb128 0x3
 8617 0061 0E       		.uleb128 0xe
 8618 0062 3A       		.uleb128 0x3a
 8619 0063 0B       		.uleb128 0xb
 8620 0064 3B       		.uleb128 0x3b
 8621 0065 0B       		.uleb128 0xb
 8622 0066 27       		.uleb128 0x27
 8623 0067 19       		.uleb128 0x19
 8624 0068 11       		.uleb128 0x11
 8625 0069 01       		.uleb128 0x1
 8626 006a 12       		.uleb128 0x12
 8627 006b 06       		.uleb128 0x6
 8628 006c 40       		.uleb128 0x40
 8629 006d 18       		.uleb128 0x18
 8630 006e 9742     		.uleb128 0x2117
 8631 0070 19       		.uleb128 0x19
 8632 0071 01       		.uleb128 0x1
 8633 0072 13       		.uleb128 0x13
 8634 0073 00       		.byte	0
 8635 0074 00       		.byte	0
 8636 0075 08       		.uleb128 0x8
 8637 0076 898201   		.uleb128 0x4109
 8638 0079 01       		.byte	0x1
 8639 007a 11       		.uleb128 0x11
 8640 007b 01       		.uleb128 0x1
 8641 007c 31       		.uleb128 0x31
 8642 007d 13       		.uleb128 0x13
 8643 007e 01       		.uleb128 0x1
 8644 007f 13       		.uleb128 0x13
 8645 0080 00       		.byte	0
 8646 0081 00       		.byte	0
 8647 0082 09       		.uleb128 0x9
 8648 0083 8A8201   		.uleb128 0x410a
 8649 0086 00       		.byte	0
 8650 0087 02       		.uleb128 0x2
 8651 0088 18       		.uleb128 0x18
 8652 0089 9142     		.uleb128 0x2111
 8653 008b 18       		.uleb128 0x18
 8654 008c 00       		.byte	0
ARM GAS  C:\Users\jerry\AppData\Local\Temp\cc40088P.s 			page 174


 8655 008d 00       		.byte	0
 8656 008e 0A       		.uleb128 0xa
 8657 008f 898201   		.uleb128 0x4109
 8658 0092 01       		.byte	0x1
 8659 0093 11       		.uleb128 0x11
 8660 0094 01       		.uleb128 0x1
 8661 0095 31       		.uleb128 0x31
 8662 0096 13       		.uleb128 0x13
 8663 0097 00       		.byte	0
 8664 0098 00       		.byte	0
 8665 0099 0B       		.uleb128 0xb
 8666 009a 2E       		.uleb128 0x2e
 8667 009b 01       		.byte	0x1
 8668 009c 3F       		.uleb128 0x3f
 8669 009d 19       		.uleb128 0x19
 8670 009e 03       		.uleb128 0x3
 8671 009f 0E       		.uleb128 0xe
 8672 00a0 3A       		.uleb128 0x3a
 8673 00a1 0B       		.uleb128 0xb
 8674 00a2 3B       		.uleb128 0x3b
 8675 00a3 0B       		.uleb128 0xb
 8676 00a4 27       		.uleb128 0x27
 8677 00a5 19       		.uleb128 0x19
 8678 00a6 49       		.uleb128 0x49
 8679 00a7 13       		.uleb128 0x13
 8680 00a8 8701     		.uleb128 0x87
 8681 00aa 19       		.uleb128 0x19
 8682 00ab 11       		.uleb128 0x11
 8683 00ac 01       		.uleb128 0x1
 8684 00ad 12       		.uleb128 0x12
 8685 00ae 06       		.uleb128 0x6
 8686 00af 40       		.uleb128 0x40
 8687 00b0 18       		.uleb128 0x18
 8688 00b1 9742     		.uleb128 0x2117
 8689 00b3 19       		.uleb128 0x19
 8690 00b4 01       		.uleb128 0x1
 8691 00b5 13       		.uleb128 0x13
 8692 00b6 00       		.byte	0
 8693 00b7 00       		.byte	0
 8694 00b8 0C       		.uleb128 0xc
 8695 00b9 0B       		.uleb128 0xb
 8696 00ba 01       		.byte	0x1
 8697 00bb 11       		.uleb128 0x11
 8698 00bc 01       		.uleb128 0x1
 8699 00bd 12       		.uleb128 0x12
 8700 00be 06       		.uleb128 0x6
 8701 00bf 01       		.uleb128 0x1
 8702 00c0 13       		.uleb128 0x13
 8703 00c1 00       		.byte	0
 8704 00c2 00       		.byte	0
 8705 00c3 0D       		.uleb128 0xd
 8706 00c4 34       		.uleb128 0x34
 8707 00c5 00       		.byte	0
 8708 00c6 03       		.uleb128 0x3
 8709 00c7 0E       		.uleb128 0xe
 8710 00c8 3A       		.uleb128 0x3a
 8711 00c9 0B       		.uleb128 0xb
ARM GAS  C:\Users\jerry\AppData\Local\Temp\cc40088P.s 			page 175


 8712 00ca 3B       		.uleb128 0x3b
 8713 00cb 05       		.uleb128 0x5
 8714 00cc 49       		.uleb128 0x49
 8715 00cd 13       		.uleb128 0x13
 8716 00ce 02       		.uleb128 0x2
 8717 00cf 17       		.uleb128 0x17
 8718 00d0 00       		.byte	0
 8719 00d1 00       		.byte	0
 8720 00d2 0E       		.uleb128 0xe
 8721 00d3 34       		.uleb128 0x34
 8722 00d4 00       		.byte	0
 8723 00d5 03       		.uleb128 0x3
 8724 00d6 08       		.uleb128 0x8
 8725 00d7 3A       		.uleb128 0x3a
 8726 00d8 0B       		.uleb128 0xb
 8727 00d9 3B       		.uleb128 0x3b
 8728 00da 05       		.uleb128 0x5
 8729 00db 49       		.uleb128 0x49
 8730 00dc 13       		.uleb128 0x13
 8731 00dd 02       		.uleb128 0x2
 8732 00de 17       		.uleb128 0x17
 8733 00df 00       		.byte	0
 8734 00e0 00       		.byte	0
 8735 00e1 0F       		.uleb128 0xf
 8736 00e2 0B       		.uleb128 0xb
 8737 00e3 01       		.byte	0x1
 8738 00e4 55       		.uleb128 0x55
 8739 00e5 17       		.uleb128 0x17
 8740 00e6 01       		.uleb128 0x1
 8741 00e7 13       		.uleb128 0x13
 8742 00e8 00       		.byte	0
 8743 00e9 00       		.byte	0
 8744 00ea 10       		.uleb128 0x10
 8745 00eb 34       		.uleb128 0x34
 8746 00ec 00       		.byte	0
 8747 00ed 03       		.uleb128 0x3
 8748 00ee 0E       		.uleb128 0xe
 8749 00ef 3A       		.uleb128 0x3a
 8750 00f0 0B       		.uleb128 0xb
 8751 00f1 3B       		.uleb128 0x3b
 8752 00f2 05       		.uleb128 0x5
 8753 00f3 49       		.uleb128 0x49
 8754 00f4 13       		.uleb128 0x13
 8755 00f5 00       		.byte	0
 8756 00f6 00       		.byte	0
 8757 00f7 11       		.uleb128 0x11
 8758 00f8 34       		.uleb128 0x34
 8759 00f9 00       		.byte	0
 8760 00fa 03       		.uleb128 0x3
 8761 00fb 0E       		.uleb128 0xe
 8762 00fc 3A       		.uleb128 0x3a
 8763 00fd 0B       		.uleb128 0xb
 8764 00fe 3B       		.uleb128 0x3b
 8765 00ff 05       		.uleb128 0x5
 8766 0100 49       		.uleb128 0x49
 8767 0101 13       		.uleb128 0x13
 8768 0102 3F       		.uleb128 0x3f
ARM GAS  C:\Users\jerry\AppData\Local\Temp\cc40088P.s 			page 176


 8769 0103 19       		.uleb128 0x19
 8770 0104 3C       		.uleb128 0x3c
 8771 0105 19       		.uleb128 0x19
 8772 0106 00       		.byte	0
 8773 0107 00       		.byte	0
 8774 0108 12       		.uleb128 0x12
 8775 0109 35       		.uleb128 0x35
 8776 010a 00       		.byte	0
 8777 010b 49       		.uleb128 0x49
 8778 010c 13       		.uleb128 0x13
 8779 010d 00       		.byte	0
 8780 010e 00       		.byte	0
 8781 010f 13       		.uleb128 0x13
 8782 0110 34       		.uleb128 0x34
 8783 0111 00       		.byte	0
 8784 0112 03       		.uleb128 0x3
 8785 0113 0E       		.uleb128 0xe
 8786 0114 3A       		.uleb128 0x3a
 8787 0115 0B       		.uleb128 0xb
 8788 0116 3B       		.uleb128 0x3b
 8789 0117 0B       		.uleb128 0xb
 8790 0118 49       		.uleb128 0x49
 8791 0119 13       		.uleb128 0x13
 8792 011a 3F       		.uleb128 0x3f
 8793 011b 19       		.uleb128 0x19
 8794 011c 02       		.uleb128 0x2
 8795 011d 18       		.uleb128 0x18
 8796 011e 00       		.byte	0
 8797 011f 00       		.byte	0
 8798 0120 14       		.uleb128 0x14
 8799 0121 01       		.uleb128 0x1
 8800 0122 01       		.byte	0x1
 8801 0123 49       		.uleb128 0x49
 8802 0124 13       		.uleb128 0x13
 8803 0125 01       		.uleb128 0x1
 8804 0126 13       		.uleb128 0x13
 8805 0127 00       		.byte	0
 8806 0128 00       		.byte	0
 8807 0129 15       		.uleb128 0x15
 8808 012a 21       		.uleb128 0x21
 8809 012b 00       		.byte	0
 8810 012c 49       		.uleb128 0x49
 8811 012d 13       		.uleb128 0x13
 8812 012e 2F       		.uleb128 0x2f
 8813 012f 0B       		.uleb128 0xb
 8814 0130 00       		.byte	0
 8815 0131 00       		.byte	0
 8816 0132 16       		.uleb128 0x16
 8817 0133 34       		.uleb128 0x34
 8818 0134 00       		.byte	0
 8819 0135 03       		.uleb128 0x3
 8820 0136 0E       		.uleb128 0xe
 8821 0137 3A       		.uleb128 0x3a
 8822 0138 0B       		.uleb128 0xb
 8823 0139 3B       		.uleb128 0x3b
 8824 013a 0B       		.uleb128 0xb
 8825 013b 49       		.uleb128 0x49
ARM GAS  C:\Users\jerry\AppData\Local\Temp\cc40088P.s 			page 177


 8826 013c 13       		.uleb128 0x13
 8827 013d 3F       		.uleb128 0x3f
 8828 013e 19       		.uleb128 0x19
 8829 013f 3C       		.uleb128 0x3c
 8830 0140 19       		.uleb128 0x19
 8831 0141 00       		.byte	0
 8832 0142 00       		.byte	0
 8833 0143 17       		.uleb128 0x17
 8834 0144 26       		.uleb128 0x26
 8835 0145 00       		.byte	0
 8836 0146 49       		.uleb128 0x49
 8837 0147 13       		.uleb128 0x13
 8838 0148 00       		.byte	0
 8839 0149 00       		.byte	0
 8840 014a 18       		.uleb128 0x18
 8841 014b 2E       		.uleb128 0x2e
 8842 014c 00       		.byte	0
 8843 014d 3F       		.uleb128 0x3f
 8844 014e 19       		.uleb128 0x19
 8845 014f 3C       		.uleb128 0x3c
 8846 0150 19       		.uleb128 0x19
 8847 0151 6E       		.uleb128 0x6e
 8848 0152 0E       		.uleb128 0xe
 8849 0153 03       		.uleb128 0x3
 8850 0154 0E       		.uleb128 0xe
 8851 0155 3A       		.uleb128 0x3a
 8852 0156 0B       		.uleb128 0xb
 8853 0157 3B       		.uleb128 0x3b
 8854 0158 0B       		.uleb128 0xb
 8855 0159 00       		.byte	0
 8856 015a 00       		.byte	0
 8857 015b 00       		.byte	0
 8858              		.section	.debug_loc,"",%progbits
 8859              	.Ldebug_loc0:
 8860              	.LLST0:
 8861 0000 DE010000 		.4byte	.LVL82
 8862 0004 E4010000 		.4byte	.LVL83
 8863 0008 0200     		.2byte	0x2
 8864 000a 30       		.byte	0x30
 8865 000b 9F       		.byte	0x9f
 8866 000c E4010000 		.4byte	.LVL83
 8867 0010 04020000 		.4byte	.LVL86
 8868 0014 0100     		.2byte	0x1
 8869 0016 52       		.byte	0x52
 8870 0017 00000000 		.4byte	0
 8871 001b 00000000 		.4byte	0
 8872              	.LLST1:
 8873 001f 78010000 		.4byte	.LVL68
 8874 0023 7C010000 		.4byte	.LVL69
 8875 0027 0200     		.2byte	0x2
 8876 0029 30       		.byte	0x30
 8877 002a 9F       		.byte	0x9f
 8878 002b 7C010000 		.4byte	.LVL69
 8879 002f B2010000 		.4byte	.LVL76
 8880 0033 0100     		.2byte	0x1
 8881 0035 54       		.byte	0x54
 8882 0036 00000000 		.4byte	0
ARM GAS  C:\Users\jerry\AppData\Local\Temp\cc40088P.s 			page 178


 8883 003a 00000000 		.4byte	0
 8884              	.LLST2:
 8885 003e B0010000 		.4byte	.LVL75
 8886 0042 B4010000 		.4byte	.LVL77
 8887 0046 0200     		.2byte	0x2
 8888 0048 30       		.byte	0x30
 8889 0049 9F       		.byte	0x9f
 8890 004a B4010000 		.4byte	.LVL77
 8891 004e 08020000 		.4byte	.LVL88
 8892 0052 0100     		.2byte	0x1
 8893 0054 54       		.byte	0x54
 8894 0055 00000000 		.4byte	0
 8895 0059 00000000 		.4byte	0
 8896              	.LLST3:
 8897 005d DE010000 		.4byte	.LVL82
 8898 0061 E4010000 		.4byte	.LVL83
 8899 0065 0200     		.2byte	0x2
 8900 0067 30       		.byte	0x30
 8901 0068 9F       		.byte	0x9f
 8902 0069 E4010000 		.4byte	.LVL83
 8903 006d 06020000 		.4byte	.LVL87
 8904 0071 0100     		.2byte	0x1
 8905 0073 53       		.byte	0x53
 8906 0074 00000000 		.4byte	0
 8907 0078 00000000 		.4byte	0
 8908              	.LLST4:
 8909 007c 98020000 		.4byte	.LVL97
 8910 0080 20040000 		.4byte	.LVL129
 8911 0084 0100     		.2byte	0x1
 8912 0086 56       		.byte	0x56
 8913 0087 00000000 		.4byte	0
 8914 008b 00000000 		.4byte	0
 8915              	.LLST5:
 8916 008f EE090000 		.4byte	.LVL229
 8917 0093 220A0000 		.4byte	.LVL235
 8918 0097 0200     		.2byte	0x2
 8919 0099 31       		.byte	0x31
 8920 009a 9F       		.byte	0x9f
 8921 009b 00000000 		.4byte	0
 8922 009f 00000000 		.4byte	0
 8923              	.LLST6:
 8924 00a3 480C0000 		.4byte	.LVL282
 8925 00a7 5C0C0000 		.4byte	.LVL283
 8926 00ab 0100     		.2byte	0x1
 8927 00ad 52       		.byte	0x52
 8928 00ae 5C0C0000 		.4byte	.LVL283
 8929 00b2 630C0000 		.4byte	.LVL284-1
 8930 00b6 0500     		.2byte	0x5
 8931 00b8 03       		.byte	0x3
 8932 00b9 00000000 		.4byte	current_stage
 8933 00bd 00000000 		.4byte	0
 8934 00c1 00000000 		.4byte	0
 8935              		.section	.debug_aranges,"",%progbits
 8936 0000 34000000 		.4byte	0x34
 8937 0004 0200     		.2byte	0x2
 8938 0006 00000000 		.4byte	.Ldebug_info0
 8939 000a 04       		.byte	0x4
ARM GAS  C:\Users\jerry\AppData\Local\Temp\cc40088P.s 			page 179


 8940 000b 00       		.byte	0
 8941 000c 0000     		.2byte	0
 8942 000e 0000     		.2byte	0
 8943 0010 00000000 		.4byte	.LFB64
 8944 0014 08000000 		.4byte	.LFE64-.LFB64
 8945 0018 00000000 		.4byte	.LFB65
 8946 001c 24000000 		.4byte	.LFE65-.LFB65
 8947 0020 00000000 		.4byte	.LFB66
 8948 0024 4C000000 		.4byte	.LFE66-.LFB66
 8949 0028 00000000 		.4byte	.LFB67
 8950 002c 2C0E0000 		.4byte	.LFE67-.LFB67
 8951 0030 00000000 		.4byte	0
 8952 0034 00000000 		.4byte	0
 8953              		.section	.debug_ranges,"",%progbits
 8954              	.Ldebug_ranges0:
 8955 0000 DE010000 		.4byte	.LBB5
 8956 0004 E0010000 		.4byte	.LBE5
 8957 0008 E2010000 		.4byte	.LBB6
 8958 000c 02020000 		.4byte	.LBE6
 8959 0010 00000000 		.4byte	0
 8960 0014 00000000 		.4byte	0
 8961 0018 00000000 		.4byte	.LFB64
 8962 001c 08000000 		.4byte	.LFE64
 8963 0020 00000000 		.4byte	.LFB65
 8964 0024 24000000 		.4byte	.LFE65
 8965 0028 00000000 		.4byte	.LFB66
 8966 002c 4C000000 		.4byte	.LFE66
 8967 0030 00000000 		.4byte	.LFB67
 8968 0034 2C0E0000 		.4byte	.LFE67
 8969 0038 00000000 		.4byte	0
 8970 003c 00000000 		.4byte	0
 8971              		.section	.debug_line,"",%progbits
 8972              	.Ldebug_line0:
 8973 0000 C8050000 		.section	.debug_str,"MS",%progbits,1
 8973      02006103 
 8973      00000201 
 8973      FB0E0D00 
 8973      01010101 
 8974              	.LASF85:
 8975 0000 61726D4F 		.ascii	"armOpen\000"
 8975      70656E00 
 8976              	.LASF109:
 8977 0008 54696D65 		.ascii	"Timer_straight_adjust_Start\000"
 8977      725F7374 
 8977      72616967 
 8977      68745F61 
 8977      646A7573 
 8978              	.LASF72:
 8979 0024 756C7469 		.ascii	"ultimateDebugging\000"
 8979      6D617465 
 8979      44656275 
 8979      6767696E 
 8979      6700
 8980              	.LASF34:
 8981 0036 696E6974 		.ascii	"initial_tolerance\000"
 8981      69616C5F 
 8981      746F6C65 
ARM GAS  C:\Users\jerry\AppData\Local\Temp\cc40088P.s 			page 180


 8981      72616E63 
 8981      6500
 8982              	.LASF68:
 8983 0048 4D6F746F 		.ascii	"Motor_Right_Driver_WriteCompare\000"
 8983      725F5269 
 8983      6768745F 
 8983      44726976 
 8983      65725F57 
 8984              	.LASF53:
 8985 0068 7075636B 		.ascii	"puck_west_clearance\000"
 8985      5F776573 
 8985      745F636C 
 8985      65617261 
 8985      6E636500 
 8986              	.LASF69:
 8987 007c 636F6C6F 		.ascii	"colourSensingOutput\000"
 8987      75725365 
 8987      6E73696E 
 8987      674F7574 
 8987      70757400 
 8988              	.LASF75:
 8989 0090 636F6C6F 		.ascii	"colourSensingInitialise\000"
 8989      75725365 
 8989      6E73696E 
 8989      67496E69 
 8989      7469616C 
 8990              	.LASF73:
 8991 00a8 73747261 		.ascii	"straightAdjust\000"
 8991      69676874 
 8991      41646A75 
 8991      737400
 8992              	.LASF31:
 8993 00b7 676C6F62 		.ascii	"global_encoder\000"
 8993      616C5F65 
 8993      6E636F64 
 8993      657200
 8994              	.LASF3:
 8995 00c6 73686F72 		.ascii	"short int\000"
 8995      7420696E 
 8995      7400
 8996              	.LASF50:
 8997 00d0 626C6F63 		.ascii	"block_east_clearance\000"
 8997      6B5F6561 
 8997      73745F63 
 8997      6C656172 
 8997      616E6365 
 8998              	.LASF105:
 8999 00e5 536F6E69 		.ascii	"Sonic_StartEx\000"
 8999      635F5374 
 8999      61727445 
 8999      7800
 9000              	.LASF102:
 9001 00f3 4D6F746F 		.ascii	"Motor_Right_Decoder_Start\000"
 9001      725F5269 
 9001      6768745F 
 9001      4465636F 
 9001      6465725F 
ARM GAS  C:\Users\jerry\AppData\Local\Temp\cc40088P.s 			page 181


 9002              	.LASF60:
 9003 010d 54696D65 		.ascii	"Timer_straight_adjust_ReadStatusRegister\000"
 9003      725F7374 
 9003      72616967 
 9003      68745F61 
 9003      646A7573 
 9004              	.LASF101:
 9005 0136 4D6F746F 		.ascii	"Motor_Left_Decoder_Start\000"
 9005      725F4C65 
 9005      66745F44 
 9005      65636F64 
 9005      65725F53 
 9006              	.LASF14:
 9007 014f 6C6F6E67 		.ascii	"long double\000"
 9007      20646F75 
 9007      626C6500 
 9008              	.LASF52:
 9009 015b 7075636B 		.ascii	"puck_east_clearance\000"
 9009      5F656173 
 9009      745F636C 
 9009      65617261 
 9009      6E636500 
 9010              	.LASF48:
 9011 016f 7075636B 		.ascii	"puck_temp_pile\000"
 9011      5F74656D 
 9011      705F7069 
 9011      6C6500
 9012              	.LASF16:
 9013 017e 53746172 		.ascii	"StartIH\000"
 9013      74494800 
 9014              	.LASF32:
 9015 0186 676C6F62 		.ascii	"global_distance\000"
 9015      616C5F64 
 9015      69737461 
 9015      6E636500 
 9016              	.LASF107:
 9017 0196 53747261 		.ascii	"Straight_StartEx\000"
 9017      69676874 
 9017      5F537461 
 9017      72744578 
 9017      00
 9018              	.LASF40:
 9019 01a7 756C7472 		.ascii	"ultrasonic_flag\000"
 9019      61736F6E 
 9019      69635F66 
 9019      6C616700 
 9020              	.LASF39:
 9021 01b7 6D6F7669 		.ascii	"moving\000"
 9021      6E6700
 9022              	.LASF95:
 9023 01be 5261636B 		.ascii	"Rack_Servo_PWM_Sleep\000"
 9023      5F536572 
 9023      766F5F50 
 9023      574D5F53 
 9023      6C656570 
 9024              	.LASF104:
 9025 01d3 54696D65 		.ascii	"Timer_1_ReadStatusRegister\000"
ARM GAS  C:\Users\jerry\AppData\Local\Temp\cc40088P.s 			page 182


 9025      725F315F 
 9025      52656164 
 9025      53746174 
 9025      75735265 
 9026              	.LASF93:
 9027 01ee 5261636B 		.ascii	"Rack_Servo_PWM_Start\000"
 9027      5F536572 
 9027      766F5F50 
 9027      574D5F53 
 9027      74617274 
 9028              	.LASF63:
 9029 0203 6D6F7665 		.ascii	"moveDynamic\000"
 9029      44796E61 
 9029      6D696300 
 9030              	.LASF98:
 9031 020f 47726970 		.ascii	"Gripper_Servo_PWM_Sleep\000"
 9031      7065725F 
 9031      53657276 
 9031      6F5F5057 
 9031      4D5F536C 
 9032              	.LASF45:
 9033 0227 626C6F63 		.ascii	"block_location\000"
 9033      6B5F6C6F 
 9033      63617469 
 9033      6F6E00
 9034              	.LASF96:
 9035 0236 47726970 		.ascii	"Gripper_Servo_PWM_Start\000"
 9035      7065725F 
 9035      53657276 
 9035      6F5F5057 
 9035      4D5F5374 
 9036              	.LASF21:
 9037 024e 7075636B 		.ascii	"puck_correct\000"
 9037      5F636F72 
 9037      72656374 
 9037      00
 9038              	.LASF57:
 9039 025b 756C7472 		.ascii	"ultrasonicInterruptHandler\000"
 9039      61736F6E 
 9039      6963496E 
 9039      74657272 
 9039      75707448 
 9040              	.LASF36:
 9041 0276 7075636B 		.ascii	"puck_grid_initial\000"
 9041      5F677269 
 9041      645F696E 
 9041      69746961 
 9041      6C00
 9042              	.LASF0:
 9043 0288 666C6F61 		.ascii	"float\000"
 9043      7400
 9044              	.LASF80:
 9045 028e 6368616E 		.ascii	"changeHeightToPuck\000"
 9045      67654865 
 9045      69676874 
 9045      546F5075 
 9045      636B00
ARM GAS  C:\Users\jerry\AppData\Local\Temp\cc40088P.s 			page 183


 9046              	.LASF7:
 9047 02a1 6C6F6E67 		.ascii	"long long int\000"
 9047      206C6F6E 
 9047      6720696E 
 9047      7400
 9048              	.LASF67:
 9049 02af 4D6F746F 		.ascii	"Motor_Right_Driver_Wakeup\000"
 9049      725F5269 
 9049      6768745F 
 9049      44726976 
 9049      65725F57 
 9050              	.LASF82:
 9051 02c9 61726D43 		.ascii	"armClose\000"
 9051      6C6F7365 
 9051      00
 9052              	.LASF62:
 9053 02d2 4D6F746F 		.ascii	"Motor_Right_Driver_Sleep\000"
 9053      725F5269 
 9053      6768745F 
 9053      44726976 
 9053      65725F53 
 9054              	.LASF88:
 9055 02eb 4144435F 		.ascii	"ADC_Start\000"
 9055      53746172 
 9055      7400
 9056              	.LASF5:
 9057 02f5 6C6F6E67 		.ascii	"long int\000"
 9057      20696E74 
 9057      00
 9058              	.LASF24:
 9059 02fe 696E7465 		.ascii	"internal_orientation\000"
 9059      726E616C 
 9059      5F6F7269 
 9059      656E7461 
 9059      74696F6E 
 9060              	.LASF100:
 9061 0313 4D6F746F 		.ascii	"Motor_Right_Driver_Start\000"
 9061      725F5269 
 9061      6768745F 
 9061      44726976 
 9061      65725F53 
 9062              	.LASF18:
 9063 032c 7075636B 		.ascii	"puck_construction_plan_index\000"
 9063      5F636F6E 
 9063      73747275 
 9063      6374696F 
 9063      6E5F706C 
 9064              	.LASF70:
 9065 0349 626C696E 		.ascii	"blinkLED\000"
 9065      6B4C4544 
 9065      00
 9066              	.LASF44:
 9067 0352 73616665 		.ascii	"safety_override\000"
 9067      74795F6F 
 9067      76657272 
 9067      69646500 
 9068              	.LASF87:
ARM GAS  C:\Users\jerry\AppData\Local\Temp\cc40088P.s 			page 184


 9069 0362 55415254 		.ascii	"UART_1_Start\000"
 9069      5F315F53 
 9069      74617274 
 9069      00
 9070              	.LASF83:
 9071 036f 7472616E 		.ascii	"translateUntil\000"
 9071      736C6174 
 9071      65556E74 
 9071      696C00
 9072              	.LASF76:
 9073 037e 636F6E74 		.ascii	"control_photodiode_Write\000"
 9073      726F6C5F 
 9073      70686F74 
 9073      6F64696F 
 9073      64655F57 
 9074              	.LASF17:
 9075 0397 53414948 		.ascii	"SAIH\000"
 9075      00
 9076              	.LASF94:
 9077 039c 5261636B 		.ascii	"Rack_Servo_PWM_WriteCompare\000"
 9077      5F536572 
 9077      766F5F50 
 9077      574D5F57 
 9077      72697465 
 9078              	.LASF38:
 9079 03b8 73746174 		.ascii	"state\000"
 9079      6500
 9080              	.LASF79:
 9081 03be 6368616E 		.ascii	"changeOrientation\000"
 9081      67654F72 
 9081      69656E74 
 9081      6174696F 
 9081      6E00
 9082              	.LASF2:
 9083 03d0 756E7369 		.ascii	"unsigned char\000"
 9083      676E6564 
 9083      20636861 
 9083      7200
 9084              	.LASF37:
 9085 03de 636F6C6F 		.ascii	"colour_flag\000"
 9085      75725F66 
 9085      6C616700 
 9086              	.LASF61:
 9087 03ea 4D6F746F 		.ascii	"Motor_Left_Driver_Sleep\000"
 9087      725F4C65 
 9087      66745F44 
 9087      72697665 
 9087      725F536C 
 9088              	.LASF25:
 9089 0402 7075636B 		.ascii	"puck_rack_scans\000"
 9089      5F726163 
 9089      6B5F7363 
 9089      616E7300 
 9090              	.LASF81:
 9091 0412 6D6F7665 		.ascii	"moveUntilPuck\000"
 9091      556E7469 
 9091      6C507563 
ARM GAS  C:\Users\jerry\AppData\Local\Temp\cc40088P.s 			page 185


 9091      6B00
 9092              	.LASF99:
 9093 0420 4D6F746F 		.ascii	"Motor_Left_Driver_Start\000"
 9093      725F4C65 
 9093      66745F44 
 9093      72697665 
 9093      725F5374 
 9094              	.LASF46:
 9095 0438 7075636B 		.ascii	"puck_location\000"
 9095      5F6C6F63 
 9095      6174696F 
 9095      6E00
 9096              	.LASF77:
 9097 0446 7472616E 		.ascii	"translateMoveDynamic\000"
 9097      736C6174 
 9097      654D6F76 
 9097      6544796E 
 9097      616D6963 
 9098              	.LASF71:
 9099 045b 73707269 		.ascii	"sprintf\000"
 9099      6E746600 
 9100              	.LASF41:
 9101 0463 7075636B 		.ascii	"puck_construction_plan\000"
 9101      5F636F6E 
 9101      73747275 
 9101      6374696F 
 9101      6E5F706C 
 9102              	.LASF90:
 9103 047a 49444143 		.ascii	"IDAC8_1_SetRange\000"
 9103      385F315F 
 9103      53657452 
 9103      616E6765 
 9103      00
 9104              	.LASF1:
 9105 048b 7369676E 		.ascii	"signed char\000"
 9105      65642063 
 9105      68617200 
 9106              	.LASF27:
 9107 0497 626C6F63 		.ascii	"block_edge_location\000"
 9107      6B5F6564 
 9107      67655F6C 
 9107      6F636174 
 9107      696F6E00 
 9108              	.LASF8:
 9109 04ab 6C6F6E67 		.ascii	"long long unsigned int\000"
 9109      206C6F6E 
 9109      6720756E 
 9109      7369676E 
 9109      65642069 
 9110              	.LASF92:
 9111 04c2 636F6E74 		.ascii	"control_led_Write\000"
 9111      726F6C5F 
 9111      6C65645F 
 9111      57726974 
 9111      6500
 9112              	.LASF9:
 9113 04d4 756E7369 		.ascii	"unsigned int\000"
ARM GAS  C:\Users\jerry\AppData\Local\Temp\cc40088P.s 			page 186


 9113      676E6564 
 9113      20696E74 
 9113      00
 9114              	.LASF54:
 9115 04e1 69646163 		.ascii	"idac_value\000"
 9115      5F76616C 
 9115      756500
 9116              	.LASF6:
 9117 04ec 6C6F6E67 		.ascii	"long unsigned int\000"
 9117      20756E73 
 9117      69676E65 
 9117      6420696E 
 9117      7400
 9118              	.LASF89:
 9119 04fe 49444143 		.ascii	"IDAC8_1_Start\000"
 9119      385F315F 
 9119      53746172 
 9119      7400
 9120              	.LASF20:
 9121 050c 626C6F63 		.ascii	"block_threshold\000"
 9121      6B5F7468 
 9121      72657368 
 9121      6F6C6400 
 9122              	.LASF26:
 9123 051c 7075636B 		.ascii	"puck_rack_west_offsets\000"
 9123      5F726163 
 9123      6B5F7765 
 9123      73745F6F 
 9123      66667365 
 9124              	.LASF97:
 9125 0533 47726970 		.ascii	"Gripper_Servo_PWM_WriteCompare\000"
 9125      7065725F 
 9125      53657276 
 9125      6F5F5057 
 9125      4D5F5772 
 9126              	.LASF86:
 9127 0552 5449415F 		.ascii	"TIA_1_Start\000"
 9127      315F5374 
 9127      61727400 
 9128              	.LASF78:
 9129 055e 64697374 		.ascii	"distanceSensor\000"
 9129      616E6365 
 9129      53656E73 
 9129      6F7200
 9130              	.LASF13:
 9131 056d 63686172 		.ascii	"char\000"
 9131      00
 9132              	.LASF113:
 9133 0572 6D61696E 		.ascii	"main\000"
 9133      00
 9134              	.LASF11:
 9135 0577 696E7433 		.ascii	"int32_t\000"
 9135      325F7400 
 9136              	.LASF55:
 9137 057f 504C414E 		.ascii	"PLAN_SCAN_VERTICAL\000"
 9137      5F534341 
 9137      4E5F5645 
ARM GAS  C:\Users\jerry\AppData\Local\Temp\cc40088P.s 			page 187


 9137      52544943 
 9137      414C00
 9138              	.LASF43:
 9139 0592 636F6C6F 		.ascii	"colour_sensing_algorithm\000"
 9139      75725F73 
 9139      656E7369 
 9139      6E675F61 
 9139      6C676F72 
 9140              	.LASF35:
 9141 05ab 7365745F 		.ascii	"set_path\000"
 9141      70617468 
 9141      00
 9142              	.LASF103:
 9143 05b4 54696D65 		.ascii	"Timer_1_Start\000"
 9143      725F315F 
 9143      53746172 
 9143      7400
 9144              	.LASF84:
 9145 05c2 6D6F7665 		.ascii	"moveForwardThenBackward\000"
 9145      466F7277 
 9145      61726454 
 9145      68656E42 
 9145      61636B77 
 9146              	.LASF51:
 9147 05da 626C6F63 		.ascii	"block_west_clearance\000"
 9147      6B5F7765 
 9147      73745F63 
 9147      6C656172 
 9147      616E6365 
 9148              	.LASF91:
 9149 05ef 49444143 		.ascii	"IDAC8_1_SetValue\000"
 9149      385F315F 
 9149      53657456 
 9149      616C7565 
 9149      00
 9150              	.LASF112:
 9151 0600 433A5C55 		.ascii	"C:\\Users\\jerry\\OneDrive\\Desktop\\3091FinalWeek2"
 9151      73657273 
 9151      5C6A6572 
 9151      72795C4F 
 9151      6E654472 
 9152 062e 5C454345 		.ascii	"\\ECE3091_Group17\\Group17RobotReal\\Group17Robot.c"
 9152      33303931 
 9152      5F47726F 
 9152      75703137 
 9152      5C47726F 
 9153 065e 7964736E 		.ascii	"ydsn\000"
 9153      00
 9154              	.LASF111:
 9155 0663 6D61696E 		.ascii	"main.c\000"
 9155      2E6300
 9156              	.LASF49:
 9157 066a 62656769 		.ascii	"begin_navigation\000"
 9157      6E5F6E61 
 9157      76696761 
 9157      74696F6E 
 9157      00
ARM GAS  C:\Users\jerry\AppData\Local\Temp\cc40088P.s 			page 188


 9158              	.LASF106:
 9159 067b 53746172 		.ascii	"Start_StartEx\000"
 9159      745F5374 
 9159      61727445 
 9159      7800
 9160              	.LASF19:
 9161 0689 7075636B 		.ascii	"puck_rack_index\000"
 9161      5F726163 
 9161      6B5F696E 
 9161      64657800 
 9162              	.LASF59:
 9163 0699 55415254 		.ascii	"UART_1_PutString\000"
 9163      5F315F50 
 9163      75745374 
 9163      72696E67 
 9163      00
 9164              	.LASF30:
 9165 06aa 73656E73 		.ascii	"sensor_distances\000"
 9165      6F725F64 
 9165      69737461 
 9165      6E636573 
 9165      00
 9166              	.LASF4:
 9167 06bb 73686F72 		.ascii	"short unsigned int\000"
 9167      7420756E 
 9167      7369676E 
 9167      65642069 
 9167      6E7400
 9168              	.LASF22:
 9169 06ce 68656C64 		.ascii	"heldColour\000"
 9169      436F6C6F 
 9169      757200
 9170              	.LASF33:
 9171 06d9 70726566 		.ascii	"preferential_route\000"
 9171      6572656E 
 9171      7469616C 
 9171      5F726F75 
 9171      746500
 9172              	.LASF114:
 9173 06ec 7075636B 		.ascii	"puck_scan\000"
 9173      5F736361 
 9173      6E00
 9174              	.LASF10:
 9175 06f6 5F5F696E 		.ascii	"__int32_t\000"
 9175      7433325F 
 9175      7400
 9176              	.LASF108:
 9177 0700 73616665 		.ascii	"safetyDistanceCheck\000"
 9177      74794469 
 9177      7374616E 
 9177      63654368 
 9177      65636B00 
 9178              	.LASF74:
 9179 0714 6D6F7665 		.ascii	"moveUntil\000"
 9179      556E7469 
 9179      6C00
 9180              	.LASF15:
ARM GAS  C:\Users\jerry\AppData\Local\Temp\cc40088P.s 			page 189


 9181 071e 73697A65 		.ascii	"sizetype\000"
 9181      74797065 
 9181      00
 9182              	.LASF29:
 9183 0727 6F757470 		.ascii	"output\000"
 9183      757400
 9184              	.LASF12:
 9185 072e 646F7562 		.ascii	"double\000"
 9185      6C6500
 9186              	.LASF56:
 9187 0735 64697374 		.ascii	"distance_returned_global\000"
 9187      616E6365 
 9187      5F726574 
 9187      75726E65 
 9187      645F676C 
 9188              	.LASF64:
 9189 074e 436F6E74 		.ascii	"Control_Reset_Straight_Write\000"
 9189      726F6C5F 
 9189      52657365 
 9189      745F5374 
 9189      72616967 
 9190              	.LASF23:
 9191 076b 49544D5F 		.ascii	"ITM_RxBuffer\000"
 9191      52784275 
 9191      66666572 
 9191      00
 9192              	.LASF110:
 9193 0778 474E5520 		.ascii	"GNU C11 5.4.1 20160609 (release) [ARM/embedded-5-br"
 9193      43313120 
 9193      352E342E 
 9193      31203230 
 9193      31363036 
 9194 07ab 616E6368 		.ascii	"anch revision 237715] -mcpu=cortex-m3 -mthumb -g -O"
 9194      20726576 
 9194      6973696F 
 9194      6E203233 
 9194      37373135 
 9195 07de 67202D66 		.ascii	"g -ffunction-sections -ffat-lto-objects\000"
 9195      66756E63 
 9195      74696F6E 
 9195      2D736563 
 9195      74696F6E 
 9196              	.LASF58:
 9197 0806 43794465 		.ascii	"CyDelay\000"
 9197      6C617900 
 9198              	.LASF47:
 9199 080e 63757272 		.ascii	"current_puck_stack_size\000"
 9199      656E745F 
 9199      7075636B 
 9199      5F737461 
 9199      636B5F73 
 9200              	.LASF28:
 9201 0826 696E6974 		.ascii	"initialisation\000"
 9201      69616C69 
 9201      73617469 
 9201      6F6E00
 9202              	.LASF66:
ARM GAS  C:\Users\jerry\AppData\Local\Temp\cc40088P.s 			page 190


 9203 0835 4D6F746F 		.ascii	"Motor_Left_Driver_WriteCompare\000"
 9203      725F4C65 
 9203      66745F44 
 9203      72697665 
 9203      725F5772 
 9204              	.LASF65:
 9205 0854 4D6F746F 		.ascii	"Motor_Left_Driver_Wakeup\000"
 9205      725F4C65 
 9205      66745F44 
 9205      72697665 
 9205      725F5761 
 9206              	.LASF42:
 9207 086d 63757272 		.ascii	"current_stage\000"
 9207      656E745F 
 9207      73746167 
 9207      6500
 9208              		.ident	"GCC: (GNU Tools for ARM Embedded Processors) 5.4.1 20160609 (release) [ARM/embedded-5-bran
