ARM GAS  C:\Users\Blayke\AppData\Local\Temp\ccFauHWb.s 			page 1


   1              		.syntax unified
   2              		.cpu cortex-m3
   3              		.fpu softvfp
   4              		.eabi_attribute 20, 1
   5              		.eabi_attribute 21, 1
   6              		.eabi_attribute 23, 3
   7              		.eabi_attribute 24, 1
   8              		.eabi_attribute 25, 1
   9              		.eabi_attribute 26, 1
  10              		.eabi_attribute 30, 1
  11              		.eabi_attribute 34, 1
  12              		.eabi_attribute 18, 4
  13              		.thumb
  14              		.syntax unified
  15              		.file	"main.c"
  16              		.text
  17              	.Ltext0:
  18              		.cfi_sections	.debug_frame
  19              		.section	.text.TIH,"ax",%progbits
  20              		.align	2
  21              		.global	TIH
  22              		.thumb
  23              		.thumb_func
  24              		.type	TIH, %function
  25              	TIH:
  26              	.LFB64:
  27              		.file 1 "main.c"
   1:main.c        ****  
   2:main.c        **** /* ========================================
   3:main.c        ****  *
   4:main.c        ****  * Copyright Group 17, 2019
   5:main.c        ****  * All Rights Reserved
   6:main.c        ****  * UNPUBLISHED, LICENSED SOFTWARE.
   7:main.c        ****  *
   8:main.c        ****  * CONFIDENTIAL AND PROPRIETARY INFORMATION
   9:main.c        ****  * WHICH IS THE PROPERTY OF Blayke, Misha, Nidhin.
  10:main.c        ****  *
  11:main.c        ****  * ========================================
  12:main.c        **** */
  13:main.c        **** 
  14:main.c        **** // * PSOC LIBRARY * //
  15:main.c        **** #include "project.h"
  16:main.c        **** 
  17:main.c        **** // * C LIBRARIES * // 
  18:main.c        **** #include <stdlib.h>
  19:main.c        **** #include <stdio.h>
  20:main.c        **** #include <math.h>
  21:main.c        **** 
  22:main.c        **** // * OUR LIBRARIES * //
  23:main.c        **** #include "main.h"
  24:main.c        **** #include "colour.h"
  25:main.c        **** #include "ultrasonic.h" 
  26:main.c        **** #include "servo.h"
  27:main.c        **** #include "motor.h"
  28:main.c        **** #include "customMath.h"
  29:main.c        **** #include "navigation.h"
  30:main.c        **** #include "debugging.h"
ARM GAS  C:\Users\Blayke\AppData\Local\Temp\ccFauHWb.s 			page 2


  31:main.c        **** 
  32:main.c        **** 
  33:main.c        **** extern char output[32];   
  34:main.c        **** 
  35:main.c        **** // * STATE VARIABLES * //
  36:main.c        **** int state = STATE_PRE_RUN;
  37:main.c        **** float block_edge_location[4] = {0,0,0,0}; // N E S W edge positions respectively
  38:main.c        **** 
  39:main.c        **** // * PUCK CONSTRUCTION VARIABLES * //
  40:main.c        **** int current_puck_stack_size = 0; // How many pucks are currently on the construction plate
  41:main.c        **** int puck_rack_scans[5] = {BLANK,BLANK,BLANK,BLANK,BLANK}; // 5 slots in puck rack.
  42:main.c        **** int puck_construction_plan[3] = {BLANK,BLANK,BLANK};
  43:main.c        **** int puck_rack_west_offsets[5] = {PUCK_RACK_0_WEST_DISTANCE,
  44:main.c        ****                                 PUCK_RACK_1_WEST_DISTANCE,
  45:main.c        ****                                 PUCK_RACK_2_WEST_DISTANCE,
  46:main.c        ****                                 PUCK_RACK_3_WEST_DISTANCE,
  47:main.c        ****                                 PUCK_RACK_4_WEST_DISTANCE };
  48:main.c        **** 
  49:main.c        **** int puck_temp_pile[2] = {BLANK,BLANK}; // Index 0 refers to east home base edge, 1 refers to west h
  50:main.c        **** 
  51:main.c        **** // * NAVIGATION AND POSITION VARIABLES * //
  52:main.c        **** 
  53:main.c        **** int begin_navigation = 0; // Allow us to break out of the intial phase when powered up
  54:main.c        **** int block_location[4] = {0,0,0,0};      // The block location values
  55:main.c        ****                                         //#define NORTH 0
  56:main.c        ****                                         //#define EAST 1
  57:main.c        ****                                         //#define SOUTH 2
  58:main.c        ****                                         //#define WEST 3
  59:main.c        **** int puck_location[4] = {0,0,0,0};       // The block location values
  60:main.c        ****                                         //#define NORTH 0
  61:main.c        ****                                         //#define EAST 1
  62:main.c        ****                                         //#define SOUTH 2
  63:main.c        ****                                         //#define WEST 3
  64:main.c        **** 
  65:main.c        **** int safety_override = FALSE;            
  66:main.c        **** 
  67:main.c        **** // These block clearance variables are only true if we have enough room either side of the block to
  68:main.c        **** // And only true for the puck clearance variables if there is enough room to be able to turn at the
  69:main.c        **** short int block_east_clearance = 0;
  70:main.c        **** short int block_west_clearance = 0;
  71:main.c        **** short int puck_east_clearance = 0;
  72:main.c        **** short int puck_west_clearance = 0;
  73:main.c        **** 
  74:main.c        **** // * COLOUR VARIABLES * //
  75:main.c        **** 
  76:main.c        **** int idac_value = 0;  
  77:main.c        **** int colour_flag = 1;                    // sets which photodiode to use 
  78:main.c        **** int colour_sensing_algorithm = 0;      // Determines which colour sensing algorithm to use:
  79:main.c        ****                                                 // 0: Wall algorithm
  80:main.c        ****                                             // 1: Claw algorithm
  81:main.c        ****                                                 // 2: old algorithm
  82:main.c        **** 
  83:main.c        **** int moving = 0; // Temp to stop while loop from repeated runs of scanning plan code
  84:main.c        **** 
  85:main.c        **** const int PLAN_SCAN_VERTICAL = 10; // Set to ultrasonic distance at the home base 
  86:main.c        **** 
  87:main.c        **** int current_stage = 1;      // There are 3 stages, we start at 1
ARM GAS  C:\Users\Blayke\AppData\Local\Temp\ccFauHWb.s 			page 3


  88:main.c        **** 
  89:main.c        **** 
  90:main.c        **** // GLOBAL VARIABLE
  91:main.c        **** int distance_returned_global;
  92:main.c        **** 
  93:main.c        **** 
  94:main.c        **** // * INTERRUPT HANDLING * // 
  95:main.c        **** CY_ISR(TIH)                             // Ultrasonic ISR Definition
  96:main.c        **** {
  28              		.loc 1 96 0
  29              		.cfi_startproc
  30              		@ args = 0, pretend = 0, frame = 0
  31              		@ frame_needed = 0, uses_anonymous_args = 0
  32 0000 08B5     		push	{r3, lr}
  33              		.cfi_def_cfa_offset 8
  34              		.cfi_offset 3, -8
  35              		.cfi_offset 14, -4
  97:main.c        ****     ultrasonicInterruptHandler();
  36              		.loc 1 97 0
  37 0002 FFF7FEFF 		bl	ultrasonicInterruptHandler
  38              	.LVL0:
  39 0006 08BD     		pop	{r3, pc}
  40              		.cfi_endproc
  41              	.LFE64:
  42              		.size	TIH, .-TIH
  43              		.section	.text.StartIH,"ax",%progbits
  44              		.align	2
  45              		.global	StartIH
  46              		.thumb
  47              		.thumb_func
  48              		.type	StartIH, %function
  49              	StartIH:
  50              	.LFB65:
  98:main.c        **** }
  99:main.c        **** 
 100:main.c        **** CY_ISR(StartIH)                             // Ultrasonic ISR Definition
 101:main.c        **** {
  51              		.loc 1 101 0
  52              		.cfi_startproc
  53              		@ args = 0, pretend = 0, frame = 0
  54              		@ frame_needed = 0, uses_anonymous_args = 0
  55 0000 08B5     		push	{r3, lr}
  56              		.cfi_def_cfa_offset 8
  57              		.cfi_offset 3, -8
  58              		.cfi_offset 14, -4
 102:main.c        ****     CyDelay(100);
  59              		.loc 1 102 0
  60 0002 6420     		movs	r0, #100
  61 0004 FFF7FEFF 		bl	CyDelay
  62              	.LVL1:
 103:main.c        ****     if (begin_navigation){
  63              		.loc 1 103 0
  64 0008 044B     		ldr	r3, .L6
  65 000a 1B68     		ldr	r3, [r3]
  66 000c 2BB1     		cbz	r3, .L3
 104:main.c        ****         UART_1_PutString("Beginning Navigation \n");
  67              		.loc 1 104 0
ARM GAS  C:\Users\Blayke\AppData\Local\Temp\ccFauHWb.s 			page 4


  68 000e 0448     		ldr	r0, .L6+4
  69 0010 FFF7FEFF 		bl	UART_1_PutString
  70              	.LVL2:
 105:main.c        ****         //state = STATE_SCAN_PLAN; // Put to this for competition
 106:main.c        ****         state = STATE_LOCATE_BLOCK_AND_PUCKS;
  71              		.loc 1 106 0
  72 0014 0222     		movs	r2, #2
  73 0016 014B     		ldr	r3, .L6
  74 0018 5A60     		str	r2, [r3, #4]
  75              	.L3:
  76 001a 08BD     		pop	{r3, pc}
  77              	.L7:
  78              		.align	2
  79              	.L6:
  80 001c 00000000 		.word	.LANCHOR0
  81 0020 00000000 		.word	.LC0
  82              		.cfi_endproc
  83              	.LFE65:
  84              		.size	StartIH, .-StartIH
  85              		.global	__aeabi_i2d
  86              		.global	__aeabi_dmul
  87              		.global	__aeabi_d2iz
  88              		.section	.text.main,"ax",%progbits
  89              		.align	2
  90              		.global	main
  91              		.thumb
  92              		.thumb_func
  93              		.type	main, %function
  94              	main:
  95              	.LFB66:
 107:main.c        ****     }
 108:main.c        **** }
 109:main.c        ****  
 110:main.c        **** 
 111:main.c        **** int main(void)
 112:main.c        **** {
  96              		.loc 1 112 0
  97              		.cfi_startproc
  98              		@ args = 0, pretend = 0, frame = 0
  99              		@ frame_needed = 0, uses_anonymous_args = 0
 100 0000 2DE9F047 		push	{r4, r5, r6, r7, r8, r9, r10, lr}
 101              		.cfi_def_cfa_offset 32
 102              		.cfi_offset 4, -32
 103              		.cfi_offset 5, -28
 104              		.cfi_offset 6, -24
 105              		.cfi_offset 7, -20
 106              		.cfi_offset 8, -16
 107              		.cfi_offset 9, -12
 108              		.cfi_offset 10, -8
 109              		.cfi_offset 14, -4
 110 0004 82B0     		sub	sp, sp, #8
 111              		.cfi_def_cfa_offset 40
 113:main.c        ****     CyGlobalIntEnable; /* Enable global interrupts. */
 112              		.loc 1 113 0
 113              		.syntax unified
 114              	@ 113 "main.c" 1
 115 0006 62B6     		CPSIE   i
ARM GAS  C:\Users\Blayke\AppData\Local\Temp\ccFauHWb.s 			page 5


 116              	@ 0 "" 2
 114:main.c        **** 
 115:main.c        ****     
 116:main.c        ****     TIA_1_Start();
 117              		.loc 1 116 0
 118              		.thumb
 119              		.syntax unified
 120 0008 FFF7FEFF 		bl	TIA_1_Start
 121              	.LVL3:
 117:main.c        ****     UART_1_Start();
 122              		.loc 1 117 0
 123 000c FFF7FEFF 		bl	UART_1_Start
 124              	.LVL4:
 118:main.c        ****     UART_1_PutString("UART commencing... \n");
 125              		.loc 1 118 0
 126 0010 B848     		ldr	r0, .L51
 127 0012 FFF7FEFF 		bl	UART_1_PutString
 128              	.LVL5:
 119:main.c        ****     ADC_Start();
 129              		.loc 1 119 0
 130 0016 FFF7FEFF 		bl	ADC_Start
 131              	.LVL6:
 120:main.c        ****     IDAC8_1_Start();
 132              		.loc 1 120 0
 133 001a FFF7FEFF 		bl	IDAC8_1_Start
 134              	.LVL7:
 121:main.c        ****     
 122:main.c        ****     // DEBUGGING:
 123:main.c        ****         // Moved to debugging.c file, set it there
 124:main.c        ****     
 125:main.c        ****     
 126:main.c        ****     // IDAC initialisation: 
 127:main.c        ****     IDAC8_1_SetRange(IDAC8_1_RANGE_32uA);       // Sets the range between 0 and 32uA
 135              		.loc 1 127 0
 136 001e 0020     		movs	r0, #0
 137 0020 FFF7FEFF 		bl	IDAC8_1_SetRange
 138              	.LVL8:
 128:main.c        ****     IDAC8_1_SetValue(idac_value);               // set a value between 0 and 255
 139              		.loc 1 128 0
 140 0024 B44C     		ldr	r4, .L51+4
 141 0026 207A     		ldrb	r0, [r4, #8]	@ zero_extendqisi2
 142 0028 FFF7FEFF 		bl	IDAC8_1_SetValue
 143              	.LVL9:
 129:main.c        ****     
 130:main.c        ****     // Colour Sensing Initialisation & Debugging:
 131:main.c        ****     colour_sensing_algorithm = 0;
 144              		.loc 1 131 0
 145 002c 0025     		movs	r5, #0
 146 002e E560     		str	r5, [r4, #12]
 132:main.c        ****     control_photodiode_Write(colour_sensing_algorithm);            // controls which photodiode is 
 147              		.loc 1 132 0
 148 0030 2846     		mov	r0, r5
 149 0032 FFF7FEFF 		bl	control_photodiode_Write
 150              	.LVL10:
 133:main.c        ****                                                 // 0: wall
 134:main.c        ****                                                 // 1: claw
 135:main.c        ****     control_led_Write(1);   CyDelay(500);  // Ensures all the RGBs are working
ARM GAS  C:\Users\Blayke\AppData\Local\Temp\ccFauHWb.s 			page 6


 151              		.loc 1 135 0
 152 0036 0120     		movs	r0, #1
 153 0038 FFF7FEFF 		bl	control_led_Write
 154              	.LVL11:
 155 003c 4FF4FA70 		mov	r0, #500
 156 0040 FFF7FEFF 		bl	CyDelay
 157              	.LVL12:
 136:main.c        ****     control_led_Write(2);   CyDelay(500);
 158              		.loc 1 136 0
 159 0044 0220     		movs	r0, #2
 160 0046 FFF7FEFF 		bl	control_led_Write
 161              	.LVL13:
 162 004a 4FF4FA70 		mov	r0, #500
 163 004e FFF7FEFF 		bl	CyDelay
 164              	.LVL14:
 137:main.c        ****     control_led_Write(3);   CyDelay(500);
 165              		.loc 1 137 0
 166 0052 0320     		movs	r0, #3
 167 0054 FFF7FEFF 		bl	control_led_Write
 168              	.LVL15:
 169 0058 4FF4FA70 		mov	r0, #500
 170 005c FFF7FEFF 		bl	CyDelay
 171              	.LVL16:
 138:main.c        ****     control_led_Write(0);   CyDelay(500);
 172              		.loc 1 138 0
 173 0060 2846     		mov	r0, r5
 174 0062 FFF7FEFF 		bl	control_led_Write
 175              	.LVL17:
 176 0066 4FF4FA70 		mov	r0, #500
 177 006a FFF7FEFF 		bl	CyDelay
 178              	.LVL18:
 139:main.c        ****     colourSensingInitialise();                  // Initialises the colour sensor
 179              		.loc 1 139 0
 180 006e FFF7FEFF 		bl	colourSensingInitialise
 181              	.LVL19:
 140:main.c        ****     
 141:main.c        **** 
 142:main.c        ****     //Servos for the arm instatination
 143:main.c        ****     Rack_Servo_PWM_Start();
 182              		.loc 1 143 0
 183 0072 FFF7FEFF 		bl	Rack_Servo_PWM_Start
 184              	.LVL20:
 144:main.c        ****     Rack_Servo_PWM_WriteCompare(1000);          // BRINGs rack to highest position, so not to mess 
 185              		.loc 1 144 0
 186 0076 4FF47A70 		mov	r0, #1000
 187 007a FFF7FEFF 		bl	Rack_Servo_PWM_WriteCompare
 188              	.LVL21:
 145:main.c        ****     CyDelay(500);
 189              		.loc 1 145 0
 190 007e 4FF4FA70 		mov	r0, #500
 191 0082 FFF7FEFF 		bl	CyDelay
 192              	.LVL22:
 146:main.c        ****     Rack_Servo_PWM_Sleep();
 193              		.loc 1 146 0
 194 0086 FFF7FEFF 		bl	Rack_Servo_PWM_Sleep
 195              	.LVL23:
 147:main.c        ****     
ARM GAS  C:\Users\Blayke\AppData\Local\Temp\ccFauHWb.s 			page 7


 148:main.c        ****     Gripper_Servo_PWM_Start();
 196              		.loc 1 148 0
 197 008a FFF7FEFF 		bl	Gripper_Servo_PWM_Start
 198              	.LVL24:
 149:main.c        ****     Gripper_Servo_PWM_WriteCompare(1120);       //This is the open gripper position
 199              		.loc 1 149 0
 200 008e 4FF48C60 		mov	r0, #1120
 201 0092 FFF7FEFF 		bl	Gripper_Servo_PWM_WriteCompare
 202              	.LVL25:
 150:main.c        ****     CyDelay(500);
 203              		.loc 1 150 0
 204 0096 4FF4FA70 		mov	r0, #500
 205 009a FFF7FEFF 		bl	CyDelay
 206              	.LVL26:
 151:main.c        ****     Gripper_Servo_PWM_Sleep();
 207              		.loc 1 151 0
 208 009e FFF7FEFF 		bl	Gripper_Servo_PWM_Sleep
 209              	.LVL27:
 152:main.c        ****     
 153:main.c        ****     // Motors Initialisation:
 154:main.c        ****     Motor_Left_Driver_Start();
 210              		.loc 1 154 0
 211 00a2 FFF7FEFF 		bl	Motor_Left_Driver_Start
 212              	.LVL28:
 155:main.c        ****     Motor_Right_Driver_Start();
 213              		.loc 1 155 0
 214 00a6 FFF7FEFF 		bl	Motor_Right_Driver_Start
 215              	.LVL29:
 156:main.c        ****     Motor_Left_Driver_WriteCompare(0);          // sets the motors to 0 so it will be smooth next t
 216              		.loc 1 156 0
 217 00aa 2846     		mov	r0, r5
 218 00ac FFF7FEFF 		bl	Motor_Left_Driver_WriteCompare
 219              	.LVL30:
 157:main.c        ****     Motor_Right_Driver_WriteCompare(0);
 220              		.loc 1 157 0
 221 00b0 2846     		mov	r0, r5
 222 00b2 FFF7FEFF 		bl	Motor_Right_Driver_WriteCompare
 223              	.LVL31:
 158:main.c        ****     Motor_Left_Driver_Sleep();                  // Puts motor to sleep
 224              		.loc 1 158 0
 225 00b6 FFF7FEFF 		bl	Motor_Left_Driver_Sleep
 226              	.LVL32:
 159:main.c        ****     Motor_Right_Driver_Sleep();                 // Puts motor to sleep
 227              		.loc 1 159 0
 228 00ba FFF7FEFF 		bl	Motor_Right_Driver_Sleep
 229              	.LVL33:
 160:main.c        ****     
 161:main.c        ****     Motor_Left_Decoder_Start();
 230              		.loc 1 161 0
 231 00be FFF7FEFF 		bl	Motor_Left_Decoder_Start
 232              	.LVL34:
 162:main.c        ****     Motor_Right_Decoder_Start();
 233              		.loc 1 162 0
 234 00c2 FFF7FEFF 		bl	Motor_Right_Decoder_Start
 235              	.LVL35:
 163:main.c        ****     
 164:main.c        ****     internal_orientation = WEST;                // robot initial starts in the East direction
ARM GAS  C:\Users\Blayke\AppData\Local\Temp\ccFauHWb.s 			page 8


 236              		.loc 1 164 0
 237 00c6 0326     		movs	r6, #3
 238 00c8 8C4B     		ldr	r3, .L51+8
 239 00ca 1E60     		str	r6, [r3]
 165:main.c        ****     
 166:main.c        ****     // Timer and ISR instantiation
 167:main.c        ****     Timer_1_Start();                
 240              		.loc 1 167 0
 241 00cc FFF7FEFF 		bl	Timer_1_Start
 242              	.LVL36:
 168:main.c        ****     Timer_1_ReadStatusRegister();
 243              		.loc 1 168 0
 244 00d0 FFF7FEFF 		bl	Timer_1_ReadStatusRegister
 245              	.LVL37:
 169:main.c        ****     Sonic_StartEx(TIH);
 246              		.loc 1 169 0
 247 00d4 8A48     		ldr	r0, .L51+12
 248 00d6 FFF7FEFF 		bl	Sonic_StartEx
 249              	.LVL38:
 170:main.c        ****     Start_StartEx(StartIH);
 250              		.loc 1 170 0
 251 00da 8A48     		ldr	r0, .L51+16
 252 00dc FFF7FEFF 		bl	Start_StartEx
 253              	.LVL39:
 171:main.c        ****     begin_navigation = 1; // Set to true after it has run ISR at least once
 254              		.loc 1 171 0
 255 00e0 0127     		movs	r7, #1
 256 00e2 2760     		str	r7, [r4]
 172:main.c        ****     
 173:main.c        ****     // Ultrasonic Initialisation & Calibration:
 174:main.c        ****     // The ultrasonics take several test measurements to ensure they are working
 175:main.c        ****         
 176:main.c        ****     UART_1_PutString("Ultrasonic Calibration tests: \n");
 257              		.loc 1 176 0
 258 00e4 8848     		ldr	r0, .L51+20
 259 00e6 FFF7FEFF 		bl	UART_1_PutString
 260              	.LVL40:
 177:main.c        ****     safetyDistanceCheck();
 261              		.loc 1 177 0
 262 00ea FFF7FEFF 		bl	safetyDistanceCheck
 263              	.LVL41:
 178:main.c        ****     safetyDistanceCheck();
 264              		.loc 1 178 0
 265 00ee FFF7FEFF 		bl	safetyDistanceCheck
 266              	.LVL42:
 179:main.c        ****     safetyDistanceCheck();
 267              		.loc 1 179 0
 268 00f2 FFF7FEFF 		bl	safetyDistanceCheck
 269              	.LVL43:
 180:main.c        ****     
 181:main.c        ****     // Straight adjust timer: 
 182:main.c        ****     Timer_straight_adjust_Start();                
 270              		.loc 1 182 0
 271 00f6 FFF7FEFF 		bl	Timer_straight_adjust_Start
 272              	.LVL44:
 183:main.c        ****     Timer_straight_adjust_ReadStatusRegister();
 273              		.loc 1 183 0
ARM GAS  C:\Users\Blayke\AppData\Local\Temp\ccFauHWb.s 			page 9


 274 00fa FFF7FEFF 		bl	Timer_straight_adjust_ReadStatusRegister
 275              	.LVL45:
 184:main.c        ****     Control_Reset_Straight_Write(0);
 276              		.loc 1 184 0
 277 00fe 2846     		mov	r0, r5
 278 0100 FFF7FEFF 		bl	Control_Reset_Straight_Write
 279              	.LVL46:
 185:main.c        ****     
 186:main.c        ****     // FORCING STATE:
 187:main.c        ****     // Manual state set for testing
 188:main.c        ****     state = STATE_PRE_RUN;
 280              		.loc 1 188 0
 281 0104 6560     		str	r5, [r4, #4]
 189:main.c        ****     puck_construction_plan[0] = RED;
 282              		.loc 1 189 0
 283 0106 2761     		str	r7, [r4, #16]
 190:main.c        ****     puck_construction_plan[1] = GREEN;
 284              		.loc 1 190 0
 285 0108 0223     		movs	r3, #2
 286 010a 6361     		str	r3, [r4, #20]
 191:main.c        ****     puck_construction_plan[2] = BLUE;
 287              		.loc 1 191 0
 288 010c A661     		str	r6, [r4, #24]
 289              	.LVL47:
 290              	.L47:
 192:main.c        ****     int block_and_puck_edge_midpoint = 0;
 193:main.c        ****     
 194:main.c        **** 
 195:main.c        ****     // Main Loop for States
 196:main.c        ****     
 197:main.c        ****     //while(1){}
 198:main.c        ****     
 199:main.c        ****     for(;;)
 200:main.c        ****     {
 201:main.c        **** 
 202:main.c        ****         if (state == STATE_PRE_RUN){
 203:main.c        ****         
 204:main.c        ****         }
 205:main.c        **** 
 206:main.c        ****         while(0){
 207:main.c        ****             distanceSensor(SIDE_LEFT);
 208:main.c        ****             CyDelay(60);
 209:main.c        ****             sprintf(output, "%d \t", sensor_distances[SIDE_LEFT]);
 210:main.c        ****             UART_1_PutString(output);
 211:main.c        ****         }
 212:main.c        ****         
 213:main.c        **** //
 214:main.c        **** // *** 1. STATE SCAN PLAN: *** // 
 215:main.c        **** //
 216:main.c        ****         
 217:main.c        ****       
 218:main.c        ****         if (state == STATE_SCAN_PLAN) {              // colour sensing, while switch has not been p
 291              		.loc 1 218 0
 292 010e 7A4B     		ldr	r3, .L51+4
 293 0110 5B68     		ldr	r3, [r3, #4]
 294 0112 012B     		cmp	r3, #1
 295 0114 4FD1     		bne	.L9
ARM GAS  C:\Users\Blayke\AppData\Local\Temp\ccFauHWb.s 			page 10


 296              	.LBB2:
 219:main.c        **** 
 220:main.c        ****             // Debugging: 
 221:main.c        ****         
 222:main.c        ****             ultimateDebugging();        // If any of the debugging flags are activated, this will b
 297              		.loc 1 222 0
 298 0116 FFF7FEFF 		bl	ultimateDebugging
 299              	.LVL48:
 223:main.c        ****                 
 224:main.c        ****             
 225:main.c        ****             while(0){
 226:main.c        ****                 moveUntil(400, FORWARD, LESS_THAN, FRONT_LEFT, SPEED, TRUE);
 227:main.c        ****                 moveDynamic(-450, SPEED, TRUE);
 228:main.c        ****                 CyDelay(500);   
 229:main.c        ****                 colourSensingInitialise();      // Initialises wall colour sensor against the black
 230:main.c        ****                 CyDelay(500);
 231:main.c        ****                 moveDynamic(170, SPEED, TRUE);
 232:main.c        ****                 CyDelay(500);
 233:main.c        ****                 
 234:main.c        ****                 
 235:main.c        ****                 
 236:main.c        ****                 for (int i = 0; i < 5; i++) {                       // scan each of the pucks 
 237:main.c        ****                     puck_rack_scans[i] = colourSensingOutput();
 238:main.c        ****                     CyDelay(500);
 239:main.c        ****                     moveDynamic(61, SPEED, TRUE);
 240:main.c        ****                     CyDelay(500);
 241:main.c        ****                 }
 242:main.c        ****             
 243:main.c        ****             }
 244:main.c        **** 
 245:main.c        **** 
 246:main.c        ****             
 247:main.c        ****             straightAdjust(FRONT_SENSORS);
 300              		.loc 1 247 0
 301 011a 0720     		movs	r0, #7
 302 011c FFF7FEFF 		bl	straightAdjust
 303              	.LVL49:
 248:main.c        ****             moveUntil(-100, BACKWARD, LESS_THAN, BACK_RIGHT, SPEED, TRUE);
 304              		.loc 1 248 0
 305 0120 0123     		movs	r3, #1
 306 0122 0193     		str	r3, [sp, #4]
 307 0124 C823     		movs	r3, #200
 308 0126 0093     		str	r3, [sp]
 309 0128 0523     		movs	r3, #5
 310 012a 0422     		movs	r2, #4
 311 012c 0021     		movs	r1, #0
 312 012e 6FF06300 		mvn	r0, #99
 313 0132 FFF7FEFF 		bl	moveUntil
 314              	.LVL50:
 249:main.c        ****             colourSensingInitialise();      // Initialises wall colour sensor against the black wal
 315              		.loc 1 249 0
 316 0136 FFF7FEFF 		bl	colourSensingInitialise
 317              	.LVL51:
 318              	.LBB3:
 250:main.c        ****                         
 251:main.c        ****             
 252:main.c        ****             
ARM GAS  C:\Users\Blayke\AppData\Local\Temp\ccFauHWb.s 			page 11


 253:main.c        ****             for (int i = 0; i < 5; i++) { 
 319              		.loc 1 253 0
 320 013a 0024     		movs	r4, #0
 321 013c 0AE0     		b	.L10
 322              	.LVL52:
 323              	.L11:
 254:main.c        ****                 // scan each of the pucks 
 255:main.c        ****                 //moveUntil(puck_rack_west_offsets[i]);
 256:main.c        ****                 puck_rack_scans[i] = colourSensingOutput();
 324              		.loc 1 256 0 discriminator 3
 325 013e FFF7FEFF 		bl	colourSensingOutput
 326              	.LVL53:
 327 0142 6D4B     		ldr	r3, .L51+4
 328 0144 03EB8403 		add	r3, r3, r4, lsl #2
 329 0148 D861     		str	r0, [r3, #28]
 257:main.c        ****                 CyDelay(500);
 330              		.loc 1 257 0 discriminator 3
 331 014a 4FF4FA70 		mov	r0, #500
 332 014e FFF7FEFF 		bl	CyDelay
 333              	.LVL54:
 253:main.c        ****                 // scan each of the pucks 
 334              		.loc 1 253 0 discriminator 3
 335 0152 0134     		adds	r4, r4, #1
 336              	.LVL55:
 337              	.L10:
 253:main.c        ****                 // scan each of the pucks 
 338              		.loc 1 253 0 is_stmt 0 discriminator 1
 339 0154 042C     		cmp	r4, #4
 340 0156 F2DD     		ble	.L11
 341              	.LBE3:
 258:main.c        **** 
 259:main.c        ****             //straightAdjust();
 260:main.c        ****             }
 261:main.c        ****             
 262:main.c        ****             UART_1_PutString("Found Colours: \n");
 342              		.loc 1 262 0 is_stmt 1
 343 0158 6C48     		ldr	r0, .L51+24
 344 015a FFF7FEFF 		bl	UART_1_PutString
 345              	.LVL56:
 346              	.LBB4:
 263:main.c        ****             for (int i = 0; i < 5; i++) 
 347              		.loc 1 263 0
 348 015e 0024     		movs	r4, #0
 349              	.LVL57:
 350 0160 0CE0     		b	.L12
 351              	.LVL58:
 352              	.L13:
 264:main.c        ****             {
 265:main.c        ****                 sprintf(output, "%i \n", puck_rack_scans[i]);    // updates UART showing values of 
 353              		.loc 1 265 0 discriminator 3
 354 0162 654B     		ldr	r3, .L51+4
 355 0164 03EB8403 		add	r3, r3, r4, lsl #2
 356 0168 694D     		ldr	r5, .L51+28
 357 016a DA69     		ldr	r2, [r3, #28]
 358 016c 6949     		ldr	r1, .L51+32
 359 016e 2846     		mov	r0, r5
 360 0170 FFF7FEFF 		bl	sprintf
ARM GAS  C:\Users\Blayke\AppData\Local\Temp\ccFauHWb.s 			page 12


 361              	.LVL59:
 266:main.c        ****                 UART_1_PutString(output);
 362              		.loc 1 266 0 discriminator 3
 363 0174 2846     		mov	r0, r5
 364 0176 FFF7FEFF 		bl	UART_1_PutString
 365              	.LVL60:
 263:main.c        ****             for (int i = 0; i < 5; i++) 
 366              		.loc 1 263 0 discriminator 3
 367 017a 0134     		adds	r4, r4, #1
 368              	.LVL61:
 369              	.L12:
 263:main.c        ****             for (int i = 0; i < 5; i++) 
 370              		.loc 1 263 0 is_stmt 0 discriminator 1
 371 017c 042C     		cmp	r4, #4
 372 017e F0DD     		ble	.L13
 373              	.LBE4:
 267:main.c        ****             }
 268:main.c        ****             
 269:main.c        ****             
 270:main.c        ****             control_photodiode_Write(CLAW_SENSING);    // changes to claw photodiode
 374              		.loc 1 270 0 is_stmt 1
 375 0180 0120     		movs	r0, #1
 376 0182 FFF7FEFF 		bl	control_photodiode_Write
 377              	.LVL62:
 271:main.c        ****             colour_sensing_algorithm = CLAW_1_ALGORITHM;   // changes it to claw algorithm
 378              		.loc 1 271 0
 379 0186 0122     		movs	r2, #1
 380 0188 5B4B     		ldr	r3, .L51+4
 381 018a DA60     		str	r2, [r3, #12]
 382              	.LVL63:
 383              	.LBB5:
 272:main.c        ****                                  
 273:main.c        ****             // THEN WE FILTER THE NO PUCK VALUES:
 274:main.c        ****             int puck_construction_plan_index = 0; // Will be used to iterate through the 3 puck col
 275:main.c        ****             
 276:main.c        ****             // Iterate over all 5 rack slots and place the 3 colours into puck_construction_plan.
 277:main.c        ****             for (int puck_rack_index = 0; puck_rack_index < 5; puck_rack_index++){
 384              		.loc 1 277 0
 385 018c 0023     		movs	r3, #0
 386              	.LBE5:
 274:main.c        ****             
 387              		.loc 1 274 0
 388 018e 1A46     		mov	r2, r3
 389              	.LBB6:
 390              		.loc 1 277 0
 391 0190 0CE0     		b	.L14
 392              	.LVL64:
 393              	.L16:
 278:main.c        ****                 if (puck_rack_scans[puck_rack_index] != BLANK && puck_construction_plan_index != 3)
 394              		.loc 1 278 0
 395 0192 5949     		ldr	r1, .L51+4
 396 0194 01EB8301 		add	r1, r1, r3, lsl #2
 397 0198 C869     		ldr	r0, [r1, #28]
 398 019a 30B1     		cbz	r0, .L15
 399              		.loc 1 278 0 is_stmt 0 discriminator 1
 400 019c 032A     		cmp	r2, #3
 401 019e 04D0     		beq	.L15
ARM GAS  C:\Users\Blayke\AppData\Local\Temp\ccFauHWb.s 			page 13


 279:main.c        ****                     puck_construction_plan[puck_construction_plan_index] = puck_rack_scans[puck_rac
 402              		.loc 1 279 0 is_stmt 1
 403 01a0 5549     		ldr	r1, .L51+4
 404 01a2 01EB8201 		add	r1, r1, r2, lsl #2
 405 01a6 0861     		str	r0, [r1, #16]
 280:main.c        ****                     puck_construction_plan_index++;
 406              		.loc 1 280 0
 407 01a8 0132     		adds	r2, r2, #1
 408              	.LVL65:
 409              	.L15:
 277:main.c        ****                 if (puck_rack_scans[puck_rack_index] != BLANK && puck_construction_plan_index != 3)
 410              		.loc 1 277 0 discriminator 2
 411 01aa 0133     		adds	r3, r3, #1
 412              	.LVL66:
 413              	.L14:
 277:main.c        ****                 if (puck_rack_scans[puck_rack_index] != BLANK && puck_construction_plan_index != 3)
 414              		.loc 1 277 0 is_stmt 0 discriminator 1
 415 01ac 042B     		cmp	r3, #4
 416 01ae F0DD     		ble	.L16
 417              	.LBE6:
 281:main.c        ****                 }
 282:main.c        ****             }
 283:main.c        ****                     
 284:main.c        ****             // MOVE into the next state: 
 285:main.c        ****             state = STATE_LOCATE_BLOCK_AND_PUCKS;
 418              		.loc 1 285 0 is_stmt 1
 419 01b0 0222     		movs	r2, #2
 420              	.LVL67:
 421 01b2 514B     		ldr	r3, .L51+4
 422              	.LVL68:
 423 01b4 5A60     		str	r2, [r3, #4]
 424              	.LVL69:
 425              	.L9:
 426              	.LBE2:
 286:main.c        **** 
 287:main.c        ****         }
 288:main.c        **** 
 289:main.c        **** //
 290:main.c        **** // *** 2. STATE LOCATE BLOCKS AND PUCKS: *** // 
 291:main.c        **** //
 292:main.c        ****         
 293:main.c        ****     	if (state == STATE_LOCATE_BLOCK_AND_PUCKS){
 427              		.loc 1 293 0
 428 01b6 504B     		ldr	r3, .L51+4
 429 01b8 5B68     		ldr	r3, [r3, #4]
 430 01ba 022B     		cmp	r3, #2
 431 01bc 40F00A82 		bne	.L17
 432              	.LBB7:
 294:main.c        ****             
 295:main.c        ****             ultimateDebugging();   
 433              		.loc 1 295 0
 434 01c0 FFF7FEFF 		bl	ultimateDebugging
 435              	.LVL70:
 296:main.c        **** 
 297:main.c        ****             // move away from home base:
 298:main.c        ****             
 299:main.c        ****             translateMoveDynamic(25, -35, 100, FALSE);
ARM GAS  C:\Users\Blayke\AppData\Local\Temp\ccFauHWb.s 			page 14


 436              		.loc 1 299 0
 437 01c4 0023     		movs	r3, #0
 438 01c6 6422     		movs	r2, #100
 439 01c8 6FF02201 		mvn	r1, #34
 440 01cc 1920     		movs	r0, #25
 441 01ce FFF7FEFF 		bl	translateMoveDynamic
 442              	.LVL71:
 300:main.c        ****             straightAdjust(FRONT_SENSORS);
 443              		.loc 1 300 0
 444 01d2 0720     		movs	r0, #7
 445 01d4 FFF7FEFF 		bl	straightAdjust
 446              	.LVL72:
 301:main.c        ****     
 302:main.c        ****             // Move until construction zone            
 303:main.c        ****             moveUntil(130, FORWARD, LESS_THAN, FRONT_LEFT, SPEED, TRUE);  // Move to west wall
 447              		.loc 1 303 0
 448 01d8 0121     		movs	r1, #1
 449 01da 0191     		str	r1, [sp, #4]
 450 01dc C823     		movs	r3, #200
 451 01de 0093     		str	r3, [sp]
 452 01e0 0023     		movs	r3, #0
 453 01e2 0422     		movs	r2, #4
 454 01e4 8220     		movs	r0, #130
 455 01e6 FFF7FEFF 		bl	moveUntil
 456              	.LVL73:
 304:main.c        ****             straightAdjust(FRONT_SENSORS);                                      // straighten again
 457              		.loc 1 304 0
 458 01ea 0720     		movs	r0, #7
 459 01ec FFF7FEFF 		bl	straightAdjust
 460              	.LVL74:
 305:main.c        ****             
 306:main.c        ****             // SCAN FOR BLOCKS:
 307:main.c        ****             
 308:main.c        ****             distanceSensor(SIDE_LEFT);  // takes how far we are away from home base wall
 461              		.loc 1 308 0
 462 01f0 0220     		movs	r0, #2
 463 01f2 FFF7FEFF 		bl	distanceSensor
 464              	.LVL75:
 309:main.c        ****             while (sensor_distances[SIDE_LEFT] > (BLOCK_ZONE_SOUTH - WIDTH_SENSOR_TO_SENSOR)) {
 465              		.loc 1 309 0
 466 01f6 02E0     		b	.L18
 467              	.L19:
 310:main.c        ****                 // stays in while loop until side left value taken is appropriate
 311:main.c        ****                 // E.g. the side left value should be less than BLOCK_ZONE_SOUTH - WIDTH_SENSOR_TO_
 312:main.c        ****                 // So, it should be less than 500mm - 220mm = 280mm
 313:main.c        ****                 distanceSensor(SIDE_LEFT);
 468              		.loc 1 313 0
 469 01f8 0220     		movs	r0, #2
 470 01fa FFF7FEFF 		bl	distanceSensor
 471              	.LVL76:
 472              	.L18:
 309:main.c        ****             while (sensor_distances[SIDE_LEFT] > (BLOCK_ZONE_SOUTH - WIDTH_SENSOR_TO_SENSOR)) {
 473              		.loc 1 309 0
 474 01fe 464B     		ldr	r3, .L51+36
 475 0200 9D68     		ldr	r5, [r3, #8]
 476 0202 B5F58C7F 		cmp	r5, #280
 477 0206 F7DC     		bgt	.L19
ARM GAS  C:\Users\Blayke\AppData\Local\Temp\ccFauHWb.s 			page 15


 314:main.c        ****                } 
 315:main.c        ****             
 316:main.c        ****             
 317:main.c        ****             int block_check = BLOCK_ZONE_NORTH - sensor_distances[SIDE_LEFT] - WIDTH_SENSOR_TO_SENS
 478              		.loc 1 317 0
 479 0208 C5F50375 		rsb	r5, r5, #524
 480 020c 0135     		adds	r5, r5, #1
 481              	.LVL77:
 318:main.c        ****                 // TAKES our distance from north wall, 
 319:main.c        ****                 // takes distance from arena, takes away 
 320:main.c        ****                 // minus 50 is a tolerance
 321:main.c        ****                 // This equals 700MM - leftside - 220mm + 45 = 525mm maximum, but we'll be away fro
 322:main.c        ****             
 323:main.c        ****             sprintf(output, "distance from robot to block: %d \t", block_check);
 482              		.loc 1 323 0
 483 020e 404C     		ldr	r4, .L51+28
 484 0210 2A46     		mov	r2, r5
 485 0212 4249     		ldr	r1, .L51+40
 486 0214 2046     		mov	r0, r4
 487 0216 FFF7FEFF 		bl	sprintf
 488              	.LVL78:
 324:main.c        ****             UART_1_PutString(output);
 489              		.loc 1 324 0
 490 021a 2046     		mov	r0, r4
 491 021c FFF7FEFF 		bl	UART_1_PutString
 492              	.LVL79:
 325:main.c        ****             
 326:main.c        ****             //block_check = 350;  // This is a default length that isn't dynamic, the block check
 327:main.c        ****             
 328:main.c        ****             
 329:main.c        ****             // Stopping at the West side of the block: 
 330:main.c        ****             moveUntil(block_check, BACKWARD, LESS_THAN, SIDE_RIGHT, SPEED, TRUE);   
 493              		.loc 1 330 0
 494 0220 0123     		movs	r3, #1
 495 0222 0193     		str	r3, [sp, #4]
 496 0224 C823     		movs	r3, #200
 497 0226 0093     		str	r3, [sp]
 498 0228 0323     		movs	r3, #3
 499 022a 0422     		movs	r2, #4
 500 022c 0021     		movs	r1, #0
 501 022e 2846     		mov	r0, r5
 502 0230 FFF7FEFF 		bl	moveUntil
 503              	.LVL80:
 331:main.c        ****                                 // this will move backwards until it hits the block or the wall
 332:main.c        ****             blinkLED(GREEN,1000);      // To show it ended at the correct spot
 504              		.loc 1 332 0
 505 0234 4FF47A71 		mov	r1, #1000
 506 0238 0220     		movs	r0, #2
 507 023a FFF7FEFF 		bl	blinkLED
 508              	.LVL81:
 333:main.c        ****             
 334:main.c        ****             
 335:main.c        ****             // Update the west clearance of the block: 
 336:main.c        ****             
 337:main.c        ****             //toleranceCheck();       // This checks if the values being polled are appropriate 
 338:main.c        ****             
 339:main.c        ****             straightAdjust(FRONT_SENSORS);
ARM GAS  C:\Users\Blayke\AppData\Local\Temp\ccFauHWb.s 			page 16


 509              		.loc 1 339 0
 510 023e 0720     		movs	r0, #7
 511 0240 FFF7FEFF 		bl	straightAdjust
 512              	.LVL82:
 340:main.c        ****             distanceSensor(FRONT_LEFT); // Use front_right instead? 
 513              		.loc 1 340 0
 514 0244 0020     		movs	r0, #0
 515 0246 FFF7FEFF 		bl	distanceSensor
 516              	.LVL83:
 341:main.c        ****             CyDelay(DELAY);
 517              		.loc 1 341 0
 518 024a 3C20     		movs	r0, #60
 519 024c FFF7FEFF 		bl	CyDelay
 520              	.LVL84:
 342:main.c        ****             
 343:main.c        ****             block_location[WEST] = sensor_distances[FRONT_LEFT] + DISTANCE_FRONT_SENSOR_TO_SIDE_SEN
 521              		.loc 1 343 0
 522 0250 314C     		ldr	r4, .L51+36
 523 0252 2368     		ldr	r3, [r4]
 524 0254 9633     		adds	r3, r3, #150
 525 0256 284E     		ldr	r6, .L51+4
 526 0258 F363     		str	r3, [r6, #60]
 344:main.c        ****             
 345:main.c        ****  
 346:main.c        ****             //straightAdjust();                   // Ensure we are straight to take measurements
 347:main.c        ****                                                   // may need to readjust this 
 348:main.c        ****             
 349:main.c        ****             
 350:main.c        ****             // Move back a bit to find the left side and right side values (adds a bit of tolerance
 351:main.c        ****             //moveDynamic(-(BLOCK_WIDTH/2), SPEED, TRUE);   
 352:main.c        ****             // Double check if the above is required
 353:main.c        ****             
 354:main.c        ****             //straightAdjust();                   // Ensure we are straight to take measurements
 355:main.c        ****                                                 // may need to readjust this 
 356:main.c        ****             
 357:main.c        ****             
 358:main.c        ****             // Updating the South Clearances of the object: 
 359:main.c        ****             
 360:main.c        ****             distanceSensor(SIDE_RIGHT); 
 527              		.loc 1 360 0
 528 025a 0320     		movs	r0, #3
 529 025c FFF7FEFF 		bl	distanceSensor
 530              	.LVL85:
 361:main.c        ****             CyDelay(60); 
 531              		.loc 1 361 0
 532 0260 3C20     		movs	r0, #60
 533 0262 FFF7FEFF 		bl	CyDelay
 534              	.LVL86:
 362:main.c        ****             distanceSensor(SIDE_LEFT); 
 535              		.loc 1 362 0
 536 0266 0220     		movs	r0, #2
 537 0268 FFF7FEFF 		bl	distanceSensor
 538              	.LVL87:
 363:main.c        ****             CyDelay(60); 
 539              		.loc 1 363 0
 540 026c 3C20     		movs	r0, #60
 541 026e FFF7FEFF 		bl	CyDelay
ARM GAS  C:\Users\Blayke\AppData\Local\Temp\ccFauHWb.s 			page 17


 542              	.LVL88:
 364:main.c        ****             
 365:main.c        ****             block_location[SOUTH] = sensor_distances[SIDE_LEFT] + WIDTH_SENSOR_TO_SENSOR + sensor_d
 543              		.loc 1 365 0
 544 0272 A368     		ldr	r3, [r4, #8]
 545 0274 03F1DC02 		add	r2, r3, #220
 546 0278 E368     		ldr	r3, [r4, #12]
 547 027a 1344     		add	r3, r3, r2
 548 027c B363     		str	r3, [r6, #56]
 366:main.c        ****             
 367:main.c        ****             // Check that the value makes sense: 
 368:main.c        ****             if (block_location[SOUTH] > block_check) {
 549              		.loc 1 368 0
 550 027e 9D42     		cmp	r5, r3
 551 0280 17DA     		bge	.L20
 369:main.c        ****                 moveDynamic(-(BLOCK_WIDTH/2),SPEED,TRUE);
 552              		.loc 1 369 0
 553 0282 0122     		movs	r2, #1
 554 0284 C821     		movs	r1, #200
 555 0286 6FF02C00 		mvn	r0, #44
 556 028a FFF7FEFF 		bl	moveDynamic
 557              	.LVL89:
 370:main.c        ****                 
 371:main.c        ****                 distanceSensor(SIDE_RIGHT); 
 558              		.loc 1 371 0
 559 028e 0320     		movs	r0, #3
 560 0290 FFF7FEFF 		bl	distanceSensor
 561              	.LVL90:
 372:main.c        ****                 CyDelay(60); 
 562              		.loc 1 372 0
 563 0294 3C20     		movs	r0, #60
 564 0296 FFF7FEFF 		bl	CyDelay
 565              	.LVL91:
 373:main.c        ****                 distanceSensor(SIDE_LEFT); 
 566              		.loc 1 373 0
 567 029a 0220     		movs	r0, #2
 568 029c FFF7FEFF 		bl	distanceSensor
 569              	.LVL92:
 374:main.c        ****                 CyDelay(60); 
 570              		.loc 1 374 0
 571 02a0 3C20     		movs	r0, #60
 572 02a2 FFF7FEFF 		bl	CyDelay
 573              	.LVL93:
 375:main.c        ****             
 376:main.c        ****             block_location[SOUTH] = sensor_distances[SIDE_LEFT] + WIDTH_SENSOR_TO_SENSOR + sensor_d
 574              		.loc 1 376 0
 575 02a6 A368     		ldr	r3, [r4, #8]
 576 02a8 03F1DC02 		add	r2, r3, #220
 577 02ac E368     		ldr	r3, [r4, #12]
 578 02ae 1344     		add	r3, r3, r2
 579 02b0 B363     		str	r3, [r6, #56]
 580              	.L20:
 377:main.c        ****             }
 378:main.c        ****             
 379:main.c        ****             // Stopping at the East side of the block: 
 380:main.c        ****             moveUntil(block_check, BACKWARD, GREATER_THAN, SIDE_RIGHT, SPEED, TRUE);  
 581              		.loc 1 380 0
ARM GAS  C:\Users\Blayke\AppData\Local\Temp\ccFauHWb.s 			page 18


 582 02b2 0123     		movs	r3, #1
 583 02b4 0193     		str	r3, [sp, #4]
 584 02b6 C823     		movs	r3, #200
 585 02b8 0093     		str	r3, [sp]
 586 02ba 0323     		movs	r3, #3
 587 02bc 0522     		movs	r2, #5
 588 02be 0021     		movs	r1, #0
 589 02c0 2846     		mov	r0, r5
 590 02c2 FFF7FEFF 		bl	moveUntil
 591              	.LVL94:
 381:main.c        ****                                 // this will move backwards until no longer hitting the block, or t
 382:main.c        ****             blinkLED(GREEN,1000);      // To show it ended at the correct spot
 592              		.loc 1 382 0
 593 02c6 4FF47A71 		mov	r1, #1000
 594 02ca 0220     		movs	r0, #2
 595 02cc FFF7FEFF 		bl	blinkLED
 596              	.LVL95:
 383:main.c        ****             
 384:main.c        ****             // Updating the East Clearance:
 385:main.c        ****             block_location[EAST] = sensor_distances[BACK_RIGHT] + DISTANCE_BACK_SENSOR_TO_SIDE_SENS
 597              		.loc 1 385 0
 598 02d0 114B     		ldr	r3, .L51+36
 599 02d2 5B69     		ldr	r3, [r3, #20]
 600 02d4 6433     		adds	r3, r3, #100
 601 02d6 084A     		ldr	r2, .L51+4
 602 02d8 5363     		str	r3, [r2, #52]
 386:main.c        ****                                                         // double check the distance back sensor to
 387:main.c        ****                 
 388:main.c        ****             // Updating the North Clearance: 
 389:main.c        ****             if (ARENA_WIDTH - block_location[EAST] - block_location[EAST] > BLOCK_WIDTH) {
 603              		.loc 1 389 0
 604 02da C3F59662 		rsb	r2, r3, #1200
 605 02de D31A     		subs	r3, r2, r3
 606 02e0 5A2B     		cmp	r3, #90
 607 02e2 1DDD     		ble	.L21
 390:main.c        ****                 // block is " -- " this orientation
 391:main.c        ****                 block_location[NORTH] = ARENA_WIDTH - block_location[SOUTH] - BLOCK_WIDTH;         
 608              		.loc 1 391 0
 609 02e4 044A     		ldr	r2, .L51+4
 610 02e6 936B     		ldr	r3, [r2, #56]
 611 02e8 C3F58A63 		rsb	r3, r3, #1104
 612 02ec 0633     		adds	r3, r3, #6
 613 02ee 1363     		str	r3, [r2, #48]
 614 02f0 1CE0     		b	.L22
 615              	.L52:
 616 02f2 00BF     		.align	2
 617              	.L51:
 618 02f4 18000000 		.word	.LC1
 619 02f8 00000000 		.word	.LANCHOR0
 620 02fc 00000000 		.word	internal_orientation
 621 0300 00000000 		.word	TIH
 622 0304 00000000 		.word	StartIH
 623 0308 30000000 		.word	.LC2
 624 030c 50000000 		.word	.LC3
 625 0310 00000000 		.word	output
 626 0314 64000000 		.word	.LC4
 627 0318 00000000 		.word	sensor_distances
ARM GAS  C:\Users\Blayke\AppData\Local\Temp\ccFauHWb.s 			page 19


 628 031c 6C000000 		.word	.LC5
 629              	.L21:
 392:main.c        ****             }
 393:main.c        ****             else {
 394:main.c        ****                 // block is " | " this orientation
 395:main.c        ****                 block_location[NORTH] = ARENA_WIDTH - block_location[SOUTH] - BLOCK_LENGTH;
 630              		.loc 1 395 0
 631 0320 CD4A     		ldr	r2, .L53+8
 632 0322 936B     		ldr	r3, [r2, #56]
 633 0324 C3F56D73 		rsb	r3, r3, #948
 634 0328 0233     		adds	r3, r3, #2
 635 032a 1363     		str	r3, [r2, #48]
 636              	.L22:
 396:main.c        ****             }
 397:main.c        ****             
 398:main.c        **** 
 399:main.c        ****             /*
 400:main.c        ****             // If either of the following cases are true, we can just put in default values, 
 401:main.c        ****                 // as it will be easy to circumvent the block
 402:main.c        ****                 // This orientation will be unlikely 
 403:main.c        ****             
 404:main.c        ****             if (sensor_distances[BACK] < SAFETY_MARGIN + 50) {
 405:main.c        ****                 // block is " | " this orientation, and close to the side wall
 406:main.c        ****                 
 407:main.c        ****                 // Fill out all the details: 
 408:main.c        ****                 block_location[NORTH] = ARENA_WIDTH - sensor_distances[SIDE_LEFT] - sensor_distance
 409:main.c        ****                 block_location[EAST] = 0;
 410:main.c        ****                 block_location[SOUTH] = sensor_distances[SIDE_LEFT] + WIDTH_SENSOR_TO_SENSOR + sens
 411:main.c        ****                 block_location[WEST] = ARENA_WIDTH - BLOCK_WIDTH; 
 412:main.c        ****                 
 413:main.c        ****             }
 414:main.c        ****             if (sensor_distances[BACK] < BLOCK_LENGTH + 50) {
 415:main.c        ****                 // block is " -- " this orientation, and close to the side wall 
 416:main.c        ****                 
 417:main.c        ****                 // Fill out all the details: 
 418:main.c        ****                 block_location[NORTH] = ARENA_WIDTH - sensor_distances[SIDE_LEFT] - sensor_distance
 419:main.c        ****                 block_location[EAST] = 0;
 420:main.c        ****                 block_location[SOUTH] = sensor_distances[SIDE_LEFT] + WIDTH_SENSOR_TO_SENSOR + sens
 421:main.c        ****                 block_location[WEST] = ARENA_WIDTH - BLOCK_LENGTH; 
 422:main.c        ****             }
 423:main.c        ****             
 424:main.c        **** 
 425:main.c        ****             // Block location values:
 426:main.c        ****             block_location[SOUTH] = sensor_distances[SIDE_LEFT] + WIDTH_SENSOR_TO_SENSOR + sensor_d
 427:main.c        ****             block_location[WEST] = sensor_distances[FRONT_LEFT] + DISTANCE_FRONT_SENSOR_TO_SIDE_SEN
 428:main.c        ****             CyDelay(1000);         
 429:main.c        ****             
 430:main.c        ****             */
 431:main.c        ****             
 432:main.c        ****             
 433:main.c        ****             //PRINTING BLOCK LOCATIONS: 
 434:main.c        ****             sprintf(output, "north: %d, \n", block_location[NORTH]);       
 637              		.loc 1 434 0
 638 032c CA4F     		ldr	r7, .L53+8
 639 032e CB4C     		ldr	r4, .L53+12
 640 0330 3A6B     		ldr	r2, [r7, #48]
 641 0332 CB49     		ldr	r1, .L53+16
ARM GAS  C:\Users\Blayke\AppData\Local\Temp\ccFauHWb.s 			page 20


 642 0334 2046     		mov	r0, r4
 643 0336 FFF7FEFF 		bl	sprintf
 644              	.LVL96:
 435:main.c        ****             UART_1_PutString(output);
 645              		.loc 1 435 0
 646 033a 2046     		mov	r0, r4
 647 033c FFF7FEFF 		bl	UART_1_PutString
 648              	.LVL97:
 436:main.c        ****             sprintf(output, "east: %d, \n", block_location[EAST]);       
 649              		.loc 1 436 0
 650 0340 7A6B     		ldr	r2, [r7, #52]
 651 0342 C849     		ldr	r1, .L53+20
 652 0344 2046     		mov	r0, r4
 653 0346 FFF7FEFF 		bl	sprintf
 654              	.LVL98:
 437:main.c        ****             UART_1_PutString(output);
 655              		.loc 1 437 0
 656 034a 2046     		mov	r0, r4
 657 034c FFF7FEFF 		bl	UART_1_PutString
 658              	.LVL99:
 438:main.c        ****             sprintf(output, "south: %d, \n", block_location[SOUTH]);       
 659              		.loc 1 438 0
 660 0350 BA6B     		ldr	r2, [r7, #56]
 661 0352 C549     		ldr	r1, .L53+24
 662 0354 2046     		mov	r0, r4
 663 0356 FFF7FEFF 		bl	sprintf
 664              	.LVL100:
 439:main.c        ****             UART_1_PutString(output);
 665              		.loc 1 439 0
 666 035a 2046     		mov	r0, r4
 667 035c FFF7FEFF 		bl	UART_1_PutString
 668              	.LVL101:
 440:main.c        ****             sprintf(output, "west: %d, \n", block_location[WEST]);       
 669              		.loc 1 440 0
 670 0360 FA6B     		ldr	r2, [r7, #60]
 671 0362 C249     		ldr	r1, .L53+28
 672 0364 2046     		mov	r0, r4
 673 0366 FFF7FEFF 		bl	sprintf
 674              	.LVL102:
 441:main.c        ****             UART_1_PutString(output);
 675              		.loc 1 441 0
 676 036a 2046     		mov	r0, r4
 677 036c FFF7FEFF 		bl	UART_1_PutString
 678              	.LVL103:
 442:main.c        ****             
 443:main.c        ****             
 444:main.c        ****             // Start moving forward to find the location of the PUCKS:           
 445:main.c        ****             changeOrientation(EAST, SPEED);                             // No matter where we are t
 679              		.loc 1 445 0
 680 0370 C821     		movs	r1, #200
 681 0372 0120     		movs	r0, #1
 682 0374 FFF7FEFF 		bl	changeOrientation
 683              	.LVL104:
 446:main.c        ****             moveUntil(150, FORWARD, LESS_THAN, FRONT_LEFT, SPEED, TRUE);
 684              		.loc 1 446 0
 685 0378 4FF00109 		mov	r9, #1
 686 037c CDF80490 		str	r9, [sp, #4]
ARM GAS  C:\Users\Blayke\AppData\Local\Temp\ccFauHWb.s 			page 21


 687 0380 4FF0C80A 		mov	r10, #200
 688 0384 CDF800A0 		str	r10, [sp]
 689 0388 0023     		movs	r3, #0
 690 038a 0422     		movs	r2, #4
 691 038c 4946     		mov	r1, r9
 692 038e 9620     		movs	r0, #150
 693 0390 FFF7FEFF 		bl	moveUntil
 694              	.LVL105:
 447:main.c        ****                     // above code could be inefficient if puck is closer to west side of arena 
 448:main.c        ****             straightAdjust(FRONT_SENSORS);
 695              		.loc 1 448 0
 696 0394 0720     		movs	r0, #7
 697 0396 FFF7FEFF 		bl	straightAdjust
 698              	.LVL106:
 449:main.c        ****             
 450:main.c        ****             distanceSensor(SIDE_RIGHT);
 699              		.loc 1 450 0
 700 039a 0320     		movs	r0, #3
 701 039c FFF7FEFF 		bl	distanceSensor
 702              	.LVL107:
 451:main.c        ****             CyDelay(50);
 703              		.loc 1 451 0
 704 03a0 3220     		movs	r0, #50
 705 03a2 FFF7FEFF 		bl	CyDelay
 706              	.LVL108:
 452:main.c        ****             
 453:main.c        ****             sprintf(output, "%d \t", sensor_distances[SIDE_RIGHT]);
 707              		.loc 1 453 0
 708 03a6 DFF8D082 		ldr	r8, .L53+40
 709 03aa D8F80C20 		ldr	r2, [r8, #12]
 710 03ae B049     		ldr	r1, .L53+32
 711 03b0 2046     		mov	r0, r4
 712 03b2 FFF7FEFF 		bl	sprintf
 713              	.LVL109:
 454:main.c        ****             UART_1_PutString(output);
 714              		.loc 1 454 0
 715 03b6 2046     		mov	r0, r4
 716 03b8 FFF7FEFF 		bl	UART_1_PutString
 717              	.LVL110:
 455:main.c        ****             
 456:main.c        ****             int puck_check = ARENA_LENGTH - PUCK_GRID_FROM_NORTH - sensor_distances[SIDE_RIGHT] - W
 718              		.loc 1 456 0
 719 03bc D8F80C60 		ldr	r6, [r8, #12]
 720 03c0 C6F54976 		rsb	r6, r6, #804
 721 03c4 4E44     		add	r6, r6, r9
 722              	.LVL111:
 457:main.c        ****             //puck_check = 700;
 458:main.c        ****             
 459:main.c        ****             sprintf(output, "puck check: %d, \n", puck_check);       
 723              		.loc 1 459 0
 724 03c6 3246     		mov	r2, r6
 725 03c8 AA49     		ldr	r1, .L53+36
 726 03ca 2046     		mov	r0, r4
 727 03cc FFF7FEFF 		bl	sprintf
 728              	.LVL112:
 460:main.c        ****             UART_1_PutString(output);
 729              		.loc 1 460 0
ARM GAS  C:\Users\Blayke\AppData\Local\Temp\ccFauHWb.s 			page 22


 730 03d0 2046     		mov	r0, r4
 731 03d2 FFF7FEFF 		bl	UART_1_PutString
 732              	.LVL113:
 461:main.c        ****                         
 462:main.c        ****             // Check front and back sensors:
 463:main.c        ****             moveUntil(puck_check, BACKWARD, LESS_THAN, SIDE_LEFT, SPEED, TRUE);   // this will move
 733              		.loc 1 463 0
 734 03d6 CDF80490 		str	r9, [sp, #4]
 735 03da CDF800A0 		str	r10, [sp]
 736 03de 0223     		movs	r3, #2
 737 03e0 0422     		movs	r2, #4
 738 03e2 0021     		movs	r1, #0
 739 03e4 3046     		mov	r0, r6
 740 03e6 FFF7FEFF 		bl	moveUntil
 741              	.LVL114:
 464:main.c        ****             
 465:main.c        ****             
 466:main.c        ****             distanceSensor(FRONT_LEFT);
 742              		.loc 1 466 0
 743 03ea 0020     		movs	r0, #0
 744 03ec FFF7FEFF 		bl	distanceSensor
 745              	.LVL115:
 467:main.c        ****             CyDelay(DELAY);
 746              		.loc 1 467 0
 747 03f0 3C20     		movs	r0, #60
 748 03f2 FFF7FEFF 		bl	CyDelay
 749              	.LVL116:
 468:main.c        ****             distanceSensor(BACK_RIGHT);
 750              		.loc 1 468 0
 751 03f6 0520     		movs	r0, #5
 752 03f8 FFF7FEFF 		bl	distanceSensor
 753              	.LVL117:
 469:main.c        ****             CyDelay(DELAY);
 754              		.loc 1 469 0
 755 03fc 3C20     		movs	r0, #60
 756 03fe FFF7FEFF 		bl	CyDelay
 757              	.LVL118:
 470:main.c        ****             
 471:main.c        ****             
 472:main.c        ****             
 473:main.c        ****             // checking if accidentally detected block:
 474:main.c        ****             // if the distance we are at is less than the block, we can say we didnt detect the blo
 475:main.c        ****                 // or the distance measured hittin the puck is greater than the puck threshold 
 476:main.c        ****             if (sensor_distances[FRONT_LEFT] + DISTANCE_FRONT_SENSOR_TO_SIDE_SENSOR < block_locatio
 758              		.loc 1 476 0
 759 0402 D8F80080 		ldr	r8, [r8]
 760 0406 08F19604 		add	r4, r8, #150
 761 040a 7B6B     		ldr	r3, [r7, #52]
 762 040c 9C42     		cmp	r4, r3
 763 040e 03DB     		blt	.L23
 477:main.c        ****                     || sensor_distances[SIDE_LEFT] > block_check)
 764              		.loc 1 477 0
 765 0410 994B     		ldr	r3, .L53+40
 766 0412 9B68     		ldr	r3, [r3, #8]
 767 0414 9D42     		cmp	r5, r3
 768 0416 1BDA     		bge	.L24
 769              	.L23:
ARM GAS  C:\Users\Blayke\AppData\Local\Temp\ccFauHWb.s 			page 23


 770              	.LBB8:
 478:main.c        ****             {
 479:main.c        ****                 
 480:main.c        ****                 int offset = sensor_distances[SIDE_LEFT]*sin(18*M_PI/180);
 771              		.loc 1 480 0
 772 0418 974B     		ldr	r3, .L53+40
 773 041a 9868     		ldr	r0, [r3, #8]
 774 041c FFF7FEFF 		bl	__aeabi_i2d
 775              	.LVL119:
 776 0420 8BA3     		adr	r3, .L53
 777 0422 D3E90023 		ldrd	r2, [r3]
 778 0426 FFF7FEFF 		bl	__aeabi_dmul
 779              	.LVL120:
 780 042a FFF7FEFF 		bl	__aeabi_d2iz
 781              	.LVL121:
 481:main.c        ****                 if (sensor_distances[FRONT_LEFT] < 200) { offset = 0; }      // set the offset to 0
 782              		.loc 1 481 0
 783 042e B8F1C70F 		cmp	r8, #199
 784 0432 00DC     		bgt	.L25
 785 0434 0020     		movs	r0, #0
 786              	.LVL122:
 787              	.L25:
 482:main.c        ****                 // puck detected
 483:main.c        ****                 // puck detectedDISTANCE_FRONT_SENSOR_TO_SIDE_SENSOR
 484:main.c        ****                 puck_location[EAST] = sensor_distances[FRONT_LEFT] + DISTANCE_FRONT_SENSOR_TO_SIDE_
 788              		.loc 1 484 0
 789 0436 0319     		adds	r3, r0, r4
 790 0438 874A     		ldr	r2, .L53+8
 791 043a 5364     		str	r3, [r2, #68]
 485:main.c        ****                 puck_location[WEST] = ARENA_WIDTH - puck_location[EAST] - PUCK_GRID_WIDTH;
 792              		.loc 1 485 0
 793 043c C3F56873 		rsb	r3, r3, #928
 794 0440 0233     		adds	r3, r3, #2
 795 0442 D364     		str	r3, [r2, #76]
 486:main.c        ****                 
 487:main.c        ****                 blinkLED(GREEN,1000);   // puck location was succesfully found
 796              		.loc 1 487 0
 797 0444 4FF47A71 		mov	r1, #1000
 798 0448 0220     		movs	r0, #2
 799              	.LVL123:
 800 044a FFF7FEFF 		bl	blinkLED
 801              	.LVL124:
 802              	.LBE8:
 478:main.c        ****                 
 803              		.loc 1 478 0
 804 044e 53E0     		b	.L26
 805              	.L24:
 806              	.LBB9:
 488:main.c        ****             }
 489:main.c        ****             else {
 490:main.c        ****                 // block detected & rescans from opposite side:
 491:main.c        ****                 
 492:main.c        ****                 blinkLED(RED,1000); // indicates we hit the block instead 
 807              		.loc 1 492 0
 808 0450 4FF47A71 		mov	r1, #1000
 809 0454 0120     		movs	r0, #1
 810 0456 FFF7FEFF 		bl	blinkLED
ARM GAS  C:\Users\Blayke\AppData\Local\Temp\ccFauHWb.s 			page 24


 811              	.LVL125:
 493:main.c        ****                 
 494:main.c        ****                 moveUntil(200, BACKWARD, LESS_THAN, BACK_RIGHT, SPEED, TRUE);   // This should take
 812              		.loc 1 494 0
 813 045a 0125     		movs	r5, #1
 814              	.LVL126:
 815 045c 0195     		str	r5, [sp, #4]
 816 045e C824     		movs	r4, #200
 817 0460 0094     		str	r4, [sp]
 818 0462 0523     		movs	r3, #5
 819 0464 0422     		movs	r2, #4
 820 0466 0021     		movs	r1, #0
 821 0468 2046     		mov	r0, r4
 822 046a FFF7FEFF 		bl	moveUntil
 823              	.LVL127:
 495:main.c        ****                 changeOrientation(WEST, SPEED);
 824              		.loc 1 495 0
 825 046e 2146     		mov	r1, r4
 826 0470 0320     		movs	r0, #3
 827 0472 FFF7FEFF 		bl	changeOrientation
 828              	.LVL128:
 496:main.c        ****                 moveUntil(130, FORWARD, LESS_THAN, FRONT_LEFT, SPEED, TRUE);
 829              		.loc 1 496 0
 830 0476 0195     		str	r5, [sp, #4]
 831 0478 0094     		str	r4, [sp]
 832 047a 0023     		movs	r3, #0
 833 047c 0422     		movs	r2, #4
 834 047e 2946     		mov	r1, r5
 835 0480 8220     		movs	r0, #130
 836 0482 FFF7FEFF 		bl	moveUntil
 837              	.LVL129:
 497:main.c        ****                 straightAdjust(FRONT_SENSORS);   // adjusts against the wall
 838              		.loc 1 497 0
 839 0486 0720     		movs	r0, #7
 840 0488 FFF7FEFF 		bl	straightAdjust
 841              	.LVL130:
 498:main.c        ****                 moveUntil(puck_check, BACKWARD, LESS_THAN, SIDE_RIGHT, SPEED, TRUE);   // this will
 842              		.loc 1 498 0
 843 048c 0195     		str	r5, [sp, #4]
 844 048e 0094     		str	r4, [sp]
 845 0490 0323     		movs	r3, #3
 846 0492 0422     		movs	r2, #4
 847 0494 0021     		movs	r1, #0
 848 0496 3046     		mov	r0, r6
 849 0498 FFF7FEFF 		bl	moveUntil
 850              	.LVL131:
 499:main.c        ****                 blinkLED(GREEN,1000);   // Find the edge of the puck zone 
 851              		.loc 1 499 0
 852 049c 4FF47A71 		mov	r1, #1000
 853 04a0 0220     		movs	r0, #2
 854 04a2 FFF7FEFF 		bl	blinkLED
 855              	.LVL132:
 500:main.c        ****                                 
 501:main.c        ****                 distanceSensor(FRONT_LEFT);
 856              		.loc 1 501 0
 857 04a6 0020     		movs	r0, #0
 858 04a8 FFF7FEFF 		bl	distanceSensor
ARM GAS  C:\Users\Blayke\AppData\Local\Temp\ccFauHWb.s 			page 25


 859              	.LVL133:
 502:main.c        ****                 CyDelay(DELAY);
 860              		.loc 1 502 0
 861 04ac 3C20     		movs	r0, #60
 862 04ae FFF7FEFF 		bl	CyDelay
 863              	.LVL134:
 503:main.c        ****                 distanceSensor(BACK_RIGHT);
 864              		.loc 1 503 0
 865 04b2 0520     		movs	r0, #5
 866 04b4 FFF7FEFF 		bl	distanceSensor
 867              	.LVL135:
 504:main.c        ****                 CyDelay(DELAY);
 868              		.loc 1 504 0
 869 04b8 3C20     		movs	r0, #60
 870 04ba FFF7FEFF 		bl	CyDelay
 871              	.LVL136:
 505:main.c        ****                 
 506:main.c        ****                 int offset = sensor_distances[SIDE_RIGHT]*sin(18*M_PI/180);
 872              		.loc 1 506 0
 873 04be 6E4C     		ldr	r4, .L53+40
 874 04c0 E068     		ldr	r0, [r4, #12]
 875 04c2 FFF7FEFF 		bl	__aeabi_i2d
 876              	.LVL137:
 877 04c6 62A3     		adr	r3, .L53
 878 04c8 D3E90023 		ldrd	r2, [r3]
 879 04cc FFF7FEFF 		bl	__aeabi_dmul
 880              	.LVL138:
 881 04d0 FFF7FEFF 		bl	__aeabi_d2iz
 882              	.LVL139:
 507:main.c        ****                 
 508:main.c        ****                 puck_location[WEST] = sensor_distances[FRONT_LEFT] + DISTANCE_FRONT_SENSOR_TO_SIDE_
 883              		.loc 1 508 0
 884 04d4 2368     		ldr	r3, [r4]
 885 04d6 9633     		adds	r3, r3, #150
 886 04d8 1844     		add	r0, r0, r3
 887              	.LVL140:
 888 04da 5F4A     		ldr	r2, .L53+8
 889 04dc D064     		str	r0, [r2, #76]
 509:main.c        ****                 puck_location[EAST] = ARENA_WIDTH - puck_location[WEST] - PUCK_GRID_WIDTH;
 890              		.loc 1 509 0
 891 04de C0F56873 		rsb	r3, r0, #928
 892 04e2 0233     		adds	r3, r3, #2
 893 04e4 5364     		str	r3, [r2, #68]
 510:main.c        ****                 
 511:main.c        ****                 if (sensor_distances[BACK_RIGHT] < 100 ) {
 894              		.loc 1 511 0
 895 04e6 6369     		ldr	r3, [r4, #20]
 896 04e8 632B     		cmp	r3, #99
 897 04ea 05DC     		bgt	.L26
 512:main.c        ****                     // we stop without detecting any pucks
 513:main.c        ****                     // Assume that pucks are in NorthEast corner
 514:main.c        ****                     puck_location[EAST] = 100; 
 898              		.loc 1 514 0
 899 04ec 1346     		mov	r3, r2
 900 04ee 6422     		movs	r2, #100
 901 04f0 5A64     		str	r2, [r3, #68]
 515:main.c        ****                     puck_location[WEST] = 1200 - PUCK_GRID_WIDTH - 100;
ARM GAS  C:\Users\Blayke\AppData\Local\Temp\ccFauHWb.s 			page 26


 902              		.loc 1 515 0
 903 04f2 40F23E32 		movw	r2, #830
 904 04f6 DA64     		str	r2, [r3, #76]
 905              	.L26:
 906              	.LBE9:
 516:main.c        ****                     
 517:main.c        ****                     
 518:main.c        ****                     // This might not work when the block is in another place and the pucks are rig
 519:main.c        ****                     // behind it and it doesnt trigger properly 
 520:main.c        ****                 }
 521:main.c        ****                 
 522:main.c        ****             }
 523:main.c        ****             
 524:main.c        ****             
 525:main.c        ****             sprintf(output, "east puck: %d, \n", puck_location[EAST]);       
 907              		.loc 1 525 0
 908 04f8 574D     		ldr	r5, .L53+8
 909 04fa 584C     		ldr	r4, .L53+12
 910 04fc 6A6C     		ldr	r2, [r5, #68]
 911 04fe 5F49     		ldr	r1, .L53+44
 912 0500 2046     		mov	r0, r4
 913 0502 FFF7FEFF 		bl	sprintf
 914              	.LVL141:
 526:main.c        ****             UART_1_PutString(output);
 915              		.loc 1 526 0
 916 0506 2046     		mov	r0, r4
 917 0508 FFF7FEFF 		bl	UART_1_PutString
 918              	.LVL142:
 527:main.c        ****             sprintf(output, "west puck: %d, \n", puck_location[WEST]);       
 919              		.loc 1 527 0
 920 050c EA6C     		ldr	r2, [r5, #76]
 921 050e 5C49     		ldr	r1, .L53+48
 922 0510 2046     		mov	r0, r4
 923 0512 FFF7FEFF 		bl	sprintf
 924              	.LVL143:
 528:main.c        ****             UART_1_PutString(output);
 925              		.loc 1 528 0
 926 0516 2046     		mov	r0, r4
 927 0518 FFF7FEFF 		bl	UART_1_PutString
 928              	.LVL144:
 529:main.c        ****             sprintf(output, "east block: %d, \n", block_location[EAST]);       
 929              		.loc 1 529 0
 930 051c 6A6B     		ldr	r2, [r5, #52]
 931 051e 5949     		ldr	r1, .L53+52
 932 0520 2046     		mov	r0, r4
 933 0522 FFF7FEFF 		bl	sprintf
 934              	.LVL145:
 530:main.c        ****             UART_1_PutString(output);
 935              		.loc 1 530 0
 936 0526 2046     		mov	r0, r4
 937 0528 FFF7FEFF 		bl	UART_1_PutString
 938              	.LVL146:
 531:main.c        ****             sprintf(output, "west block: %d, \n", block_location[WEST]);       
 939              		.loc 1 531 0
 940 052c EA6B     		ldr	r2, [r5, #60]
 941 052e 5649     		ldr	r1, .L53+56
 942 0530 2046     		mov	r0, r4
ARM GAS  C:\Users\Blayke\AppData\Local\Temp\ccFauHWb.s 			page 27


 943 0532 FFF7FEFF 		bl	sprintf
 944              	.LVL147:
 532:main.c        ****             UART_1_PutString(output);
 945              		.loc 1 532 0
 946 0536 2046     		mov	r0, r4
 947 0538 FFF7FEFF 		bl	UART_1_PutString
 948              	.LVL148:
 533:main.c        ****             
 534:main.c        ****             
 535:main.c        ****             // Finding the different block & puck clearances: 
 536:main.c        ****             
 537:main.c        ****                     // there should be a threshold that allows the robot to travel through a cleara
 538:main.c        ****                     // E.g. robot width + 100mm
 539:main.c        ****             
 540:main.c        ****                     // the robot will travel to the chosen (block_clearance/2) and travel down ther
 541:main.c        ****                     // so it is in the middle of the block clearance and the wall 
 542:main.c        ****             
 543:main.c        ****                     // check if between the edge of the block and the puck zone gives enough cleara
 544:main.c        ****                     
 545:main.c        ****             
 546:main.c        ****             if (block_location[EAST] > WIDTH_WHEEL_TO_WHEEL + BLOCK_TOLERANCE) {
 949              		.loc 1 546 0
 950 053c 6B6B     		ldr	r3, [r5, #52]
 951 053e B3F5847F 		cmp	r3, #264
 952 0542 02DD     		ble	.L27
 547:main.c        ****                 // the east clearance of block check
 548:main.c        ****               block_east_clearance = 1;  
 953              		.loc 1 548 0
 954 0544 0122     		movs	r2, #1
 955 0546 A5F85020 		strh	r2, [r5, #80]	@ movhi
 956              	.L27:
 549:main.c        ****             }
 550:main.c        ****             if (block_location[WEST] > WIDTH_WHEEL_TO_WHEEL + BLOCK_TOLERANCE) {
 957              		.loc 1 550 0
 958 054a 434B     		ldr	r3, .L53+8
 959 054c DB6B     		ldr	r3, [r3, #60]
 960 054e B3F5847F 		cmp	r3, #264
 961 0552 03DD     		ble	.L28
 551:main.c        ****                 // the east clearance of block check
 552:main.c        ****               block_west_clearance = 1;  
 962              		.loc 1 552 0
 963 0554 0122     		movs	r2, #1
 964 0556 404B     		ldr	r3, .L53+8
 965 0558 A3F85220 		strh	r2, [r3, #82]	@ movhi
 966              	.L28:
 553:main.c        ****             }
 554:main.c        ****             if (puck_location[EAST] > WIDTH_WHEEL_TO_WHEEL + BLOCK_TOLERANCE) {
 967              		.loc 1 554 0
 968 055c 3E4B     		ldr	r3, .L53+8
 969 055e 5B6C     		ldr	r3, [r3, #68]
 970 0560 B3F5847F 		cmp	r3, #264
 971 0564 03DD     		ble	.L29
 555:main.c        ****                 // the east clearance of block check
 556:main.c        ****               puck_east_clearance = 1;  
 972              		.loc 1 556 0
 973 0566 0122     		movs	r2, #1
 974 0568 3B4B     		ldr	r3, .L53+8
ARM GAS  C:\Users\Blayke\AppData\Local\Temp\ccFauHWb.s 			page 28


 975 056a A3F85420 		strh	r2, [r3, #84]	@ movhi
 976              	.L29:
 557:main.c        ****             }
 558:main.c        ****             if (puck_location[WEST] > WIDTH_WHEEL_TO_WHEEL + BLOCK_TOLERANCE) {
 977              		.loc 1 558 0
 978 056e 3A4B     		ldr	r3, .L53+8
 979 0570 DB6C     		ldr	r3, [r3, #76]
 980 0572 B3F5847F 		cmp	r3, #264
 981 0576 03DD     		ble	.L30
 559:main.c        ****                 // the east clearance of block check
 560:main.c        ****               puck_west_clearance = 1;  
 982              		.loc 1 560 0
 983 0578 0122     		movs	r2, #1
 984 057a 374B     		ldr	r3, .L53+8
 985 057c A3F85620 		strh	r2, [r3, #86]	@ movhi
 986              	.L30:
 561:main.c        ****             }
 562:main.c        ****             
 563:main.c        ****             
 564:main.c        ****             //changeOrientation(WEST,SPEED);
 565:main.c        ****             //moveDynamic(-600, SPEED, TRUE);
 566:main.c        ****             //moveUntil((puck_location[EAST]/2),FORWARD, LESS_THAN, FRONT_LEFT, SPEED, TRUE);
 567:main.c        ****             //straightAdjust();
 568:main.c        ****             //changeOrientation(WEST,SPEED);
 569:main.c        ****             //moveUntil((PUCK_GRID_FROM_NORTH/2), FORWARD, LESS_THAN, FRONT_LEFT, SPEED,TRUE);
 570:main.c        ****             //straightAdjust();
 571:main.c        ****             //changeOrientation(EAST, SPEED);
 572:main.c        ****             ///oveDynamic(1200, SPEED, TRUE);
 573:main.c        ****             
 574:main.c        ****             moveUntil(200, BACKWARD, GREATER_THAN, FRONT_LEFT, SPEED, TRUE);
 987              		.loc 1 574 0
 988 0580 0125     		movs	r5, #1
 989 0582 0195     		str	r5, [sp, #4]
 990 0584 C824     		movs	r4, #200
 991 0586 0094     		str	r4, [sp]
 992 0588 0023     		movs	r3, #0
 993 058a 0522     		movs	r2, #5
 994 058c 1946     		mov	r1, r3
 995 058e 2046     		mov	r0, r4
 996 0590 FFF7FEFF 		bl	moveUntil
 997              	.LVL149:
 575:main.c        ****             changeOrientation(SOUTH,SPEED);
 998              		.loc 1 575 0
 999 0594 2146     		mov	r1, r4
 1000 0596 0220     		movs	r0, #2
 1001 0598 FFF7FEFF 		bl	changeOrientation
 1002              	.LVL150:
 576:main.c        ****             changeOrientation(EAST, SPEED);
 1003              		.loc 1 576 0
 1004 059c 2146     		mov	r1, r4
 1005 059e 2846     		mov	r0, r5
 1006 05a0 FFF7FEFF 		bl	changeOrientation
 1007              	.LVL151:
 577:main.c        ****             straightAdjust(FRONT_SENSORS);
 1008              		.loc 1 577 0
 1009 05a4 0720     		movs	r0, #7
 1010 05a6 FFF7FEFF 		bl	straightAdjust
ARM GAS  C:\Users\Blayke\AppData\Local\Temp\ccFauHWb.s 			page 29


 1011              	.LVL152:
 578:main.c        ****             moveUntil(CLEARANCE_RADIUS_CENTER_TO_FRONT + SAFETY_MARGIN/2, FORWARD, LESS_THAN, FRONT
 1012              		.loc 1 578 0
 1013 05aa 0195     		str	r5, [sp, #4]
 1014 05ac 0094     		str	r4, [sp]
 1015 05ae 0023     		movs	r3, #0
 1016 05b0 0422     		movs	r2, #4
 1017 05b2 2946     		mov	r1, r5
 1018 05b4 AC20     		movs	r0, #172
 1019 05b6 FFF7FEFF 		bl	moveUntil
 1020              	.LVL153:
 579:main.c        ****             translateUntil(CLEARANCE_RADIUS_CENTER_TO_BACK - SAFETY_MARGIN, LEFT, GREATER_THAN, SID
 1021              		.loc 1 579 0
 1022 05ba 0094     		str	r4, [sp]
 1023 05bc 0323     		movs	r3, #3
 1024 05be 0522     		movs	r2, #5
 1025 05c0 0221     		movs	r1, #2
 1026 05c2 9B20     		movs	r0, #155
 1027 05c4 FFF7FEFF 		bl	translateUntil
 1028              	.LVL154:
 580:main.c        ****             straightAdjust(FRONT_SENSORS);
 1029              		.loc 1 580 0
 1030 05c8 0720     		movs	r0, #7
 1031 05ca FFF7FEFF 		bl	straightAdjust
 1032              	.LVL155:
 581:main.c        ****             
 582:main.c        ****             // PUCK has now been found, enter the IF statements to locate and pick up pucks 
 583:main.c        ****             state = STATE_GO_TO_PUCKS;
 1033              		.loc 1 583 0
 1034 05ce 0322     		movs	r2, #3
 1035 05d0 214B     		ldr	r3, .L53+8
 1036 05d2 5A60     		str	r2, [r3, #4]
 1037              	.LVL156:
 1038              	.L17:
 1039              	.LBE7:
 584:main.c        **** 	    }     
 585:main.c        **** 
 586:main.c        **** //
 587:main.c        **** // *** 3. STATE GO TO PUCKS: *** // 
 588:main.c        **** //
 589:main.c        **** 
 590:main.c        ****         // Ensure that we are @ east wall facing east at a minimum verticaldistance so we can turn 
 591:main.c        ****         
 592:main.c        ****         if (state == STATE_GO_TO_PUCKS){
 1040              		.loc 1 592 0
 1041 05d4 204B     		ldr	r3, .L53+8
 1042 05d6 5B68     		ldr	r3, [r3, #4]
 1043 05d8 032B     		cmp	r3, #3
 1044 05da 40F0FD80 		bne	.L31
 593:main.c        ****             
 594:main.c        **** 
 595:main.c        ****             // The different route finding Algorithms for the different combinations: 
 596:main.c        ****             
 597:main.c        ****             if (block_east_clearance && puck_east_clearance){
 1045              		.loc 1 597 0
 1046 05de 1E4B     		ldr	r3, .L53+8
 1047 05e0 B3F95020 		ldrsh	r2, [r3, #80]
ARM GAS  C:\Users\Blayke\AppData\Local\Temp\ccFauHWb.s 			page 30


 1048 05e4 002A     		cmp	r2, #0
 1049 05e6 51D0     		beq	.L32
 1050              		.loc 1 597 0 is_stmt 0 discriminator 1
 1051 05e8 B3F95430 		ldrsh	r3, [r3, #84]
 1052 05ec 002B     		cmp	r3, #0
 1053 05ee 4DD0     		beq	.L32
 598:main.c        ****                 
 599:main.c        ****                 moveUntil(WALL_CLEARANCE_FRONT, BACKWARD, GREATER_THAN, FRONT_LEFT, SPEED, TRUE);
 1054              		.loc 1 599 0 is_stmt 1
 1055 05f0 0124     		movs	r4, #1
 1056 05f2 0194     		str	r4, [sp, #4]
 1057 05f4 C825     		movs	r5, #200
 1058 05f6 0095     		str	r5, [sp]
 1059 05f8 0023     		movs	r3, #0
 1060 05fa 0522     		movs	r2, #5
 1061 05fc 1946     		mov	r1, r3
 1062 05fe AF20     		movs	r0, #175
 1063 0600 FFF7FEFF 		bl	moveUntil
 1064              	.LVL157:
 600:main.c        ****                 straightAdjust(FRONT_SENSORS);
 1065              		.loc 1 600 0
 1066 0604 0720     		movs	r0, #7
 1067 0606 FFF7FEFF 		bl	straightAdjust
 1068              	.LVL158:
 601:main.c        ****                 changeOrientation(NORTH, SPEED);
 1069              		.loc 1 601 0
 1070 060a 2946     		mov	r1, r5
 1071 060c 0020     		movs	r0, #0
 1072 060e FFF7FEFF 		bl	changeOrientation
 1073              	.LVL159:
 602:main.c        ****                 //straightAdjust();
 603:main.c        ****                 moveUntil(PUCK_GRID_FROM_NORTH - DISTANCE_FRONT_SENSOR_FROM_CENTER - PUCK_GRID_DIST
 1074              		.loc 1 603 0
 1075 0612 114B     		ldr	r3, .L53+8
 1076 0614 986D     		ldr	r0, [r3, #88]
 1077 0616 6FF03603 		mvn	r3, #54
 1078 061a 03FB00F0 		mul	r0, r3, r0
 1079 061e 0194     		str	r4, [sp, #4]
 1080 0620 0095     		str	r5, [sp]
 1081 0622 0023     		movs	r3, #0
 1082 0624 0422     		movs	r2, #4
 1083 0626 2146     		mov	r1, r4
 1084 0628 E130     		adds	r0, r0, #225
 1085 062a FFF7FEFF 		bl	moveUntil
 1086              	.LVL160:
 604:main.c        ****                 straightAdjust(FRONT_SENSORS);
 1087              		.loc 1 604 0
 1088 062e 0720     		movs	r0, #7
 1089 0630 FFF7FEFF 		bl	straightAdjust
 1090              	.LVL161:
 605:main.c        ****                 changeOrientation(WEST, SPEED);
 1091              		.loc 1 605 0
 1092 0634 2946     		mov	r1, r5
 1093 0636 0320     		movs	r0, #3
 1094 0638 FFF7FEFF 		bl	changeOrientation
 1095              	.LVL162:
 606:main.c        **** 
ARM GAS  C:\Users\Blayke\AppData\Local\Temp\ccFauHWb.s 			page 31


 607:main.c        ****                 moveUntil(DISTANCE_MIDDLE_STOPPED_FROM_PUCK, FORWARD, LESS_THAN, FRONT_MIDDLE, SPEE
 1096              		.loc 1 607 0
 1097 063c 0194     		str	r4, [sp, #4]
 1098 063e 0095     		str	r5, [sp]
 1099 0640 0623     		movs	r3, #6
 1100 0642 0422     		movs	r2, #4
 1101 0644 2146     		mov	r1, r4
 1102 0646 9620     		movs	r0, #150
 1103 0648 FFF7FEFF 		bl	moveUntil
 1104              	.LVL163:
 1105 064c C1E0     		b	.L33
 1106              	.L54:
 1107 064e 00BF     		.align	3
 1108              	.L53:
 1109 0650 4FE92F37 		.word	925886799
 1110 0654 EFC6D33F 		.word	1070843631
 1111 0658 00000000 		.word	.LANCHOR0
 1112 065c 00000000 		.word	output
 1113 0660 90000000 		.word	.LC6
 1114 0664 A0000000 		.word	.LC7
 1115 0668 AC000000 		.word	.LC8
 1116 066c BC000000 		.word	.LC9
 1117 0670 C8000000 		.word	.LC10
 1118 0674 D0000000 		.word	.LC11
 1119 0678 00000000 		.word	sensor_distances
 1120 067c E4000000 		.word	.LC12
 1121 0680 F8000000 		.word	.LC13
 1122 0684 0C010000 		.word	.LC14
 1123 0688 20010000 		.word	.LC15
 1124              	.L32:
 608:main.c        ****                 
 609:main.c        ****             }
 610:main.c        ****             
 611:main.c        ****             else if (block_west_clearance && puck_west_clearance){
 1125              		.loc 1 611 0
 1126 068c AF4B     		ldr	r3, .L55
 1127 068e B3F95230 		ldrsh	r3, [r3, #82]
 1128 0692 ABB3     		cbz	r3, .L34
 1129              		.loc 1 611 0 is_stmt 0 discriminator 1
 1130 0694 AD49     		ldr	r1, .L55
 1131 0696 B1F95610 		ldrsh	r1, [r1, #86]
 1132 069a 89B3     		cbz	r1, .L34
 612:main.c        ****             
 613:main.c        ****                 //moveUntil(CLEARANCE_RADIUS_CENTER_TO_FRONT, BACKWARD, GREATER_THAN, FRONT_LEFT, S
 614:main.c        ****                 moveUntil(CLEARANCE_RADIUS_CENTER_TO_BACK - DISTANCE_BACK_SENSOR_FROM_CENTER, BACKW
 1133              		.loc 1 614 0 is_stmt 1
 1134 069c 0124     		movs	r4, #1
 1135 069e 0194     		str	r4, [sp, #4]
 1136 06a0 C825     		movs	r5, #200
 1137 06a2 0095     		str	r5, [sp]
 1138 06a4 0523     		movs	r3, #5
 1139 06a6 0422     		movs	r2, #4
 1140 06a8 0021     		movs	r1, #0
 1141 06aa 0A20     		movs	r0, #10
 1142 06ac FFF7FEFF 		bl	moveUntil
 1143              	.LVL164:
 615:main.c        ****                 straightAdjust(FRONT_SENSORS); //? Remove if it fucks things up
ARM GAS  C:\Users\Blayke\AppData\Local\Temp\ccFauHWb.s 			page 32


 1144              		.loc 1 615 0
 1145 06b0 0720     		movs	r0, #7
 1146 06b2 FFF7FEFF 		bl	straightAdjust
 1147              	.LVL165:
 616:main.c        ****                 changeOrientation(NORTH, SPEED);
 1148              		.loc 1 616 0
 1149 06b6 2946     		mov	r1, r5
 1150 06b8 0020     		movs	r0, #0
 1151 06ba FFF7FEFF 		bl	changeOrientation
 1152              	.LVL166:
 617:main.c        ****                 straightAdjust(FRONT_SENSORS); //? Remove if it fucks things up
 1153              		.loc 1 617 0
 1154 06be 0720     		movs	r0, #7
 1155 06c0 FFF7FEFF 		bl	straightAdjust
 1156              	.LVL167:
 618:main.c        ****                 moveUntil(PUCK_GRID_FROM_NORTH - DISTANCE_FRONT_SENSOR_FROM_CENTER - PUCK_GRID_DIST
 1157              		.loc 1 618 0
 1158 06c4 A14B     		ldr	r3, .L55
 1159 06c6 986D     		ldr	r0, [r3, #88]
 1160 06c8 6FF03603 		mvn	r3, #54
 1161 06cc 03FB00F0 		mul	r0, r3, r0
 1162 06d0 0194     		str	r4, [sp, #4]
 1163 06d2 0095     		str	r5, [sp]
 1164 06d4 0023     		movs	r3, #0
 1165 06d6 0422     		movs	r2, #4
 1166 06d8 2146     		mov	r1, r4
 1167 06da E130     		adds	r0, r0, #225
 1168 06dc FFF7FEFF 		bl	moveUntil
 1169              	.LVL168:
 619:main.c        ****                 //translateMoveDynamic(CLEARANCE_RADIUS_CENTER_TO_BACK, 10, SPEED, FALSE); // Chang
 620:main.c        ****                 straightAdjust(FRONT_SENSORS);
 1170              		.loc 1 620 0
 1171 06e0 0720     		movs	r0, #7
 1172 06e2 FFF7FEFF 		bl	straightAdjust
 1173              	.LVL169:
 621:main.c        ****                 changeOrientation(EAST, SPEED);
 1174              		.loc 1 621 0
 1175 06e6 2946     		mov	r1, r5
 1176 06e8 2046     		mov	r0, r4
 1177 06ea FFF7FEFF 		bl	changeOrientation
 1178              	.LVL170:
 622:main.c        **** 
 623:main.c        ****                 moveUntil(DISTANCE_MIDDLE_STOPPED_FROM_PUCK, FORWARD, LESS_THAN, FRONT_MIDDLE, SPEE
 1179              		.loc 1 623 0
 1180 06ee 0194     		str	r4, [sp, #4]
 1181 06f0 0095     		str	r5, [sp]
 1182 06f2 0623     		movs	r3, #6
 1183 06f4 0422     		movs	r2, #4
 1184 06f6 2146     		mov	r1, r4
 1185 06f8 9620     		movs	r0, #150
 1186 06fa FFF7FEFF 		bl	moveUntil
 1187              	.LVL171:
 1188 06fe 68E0     		b	.L33
 1189              	.L34:
 624:main.c        ****             }
 625:main.c        ****             
 626:main.c        ****             
ARM GAS  C:\Users\Blayke\AppData\Local\Temp\ccFauHWb.s 			page 33


 627:main.c        ****             else if (block_east_clearance && puck_west_clearance){
 1190              		.loc 1 627 0
 1191 0700 9AB3     		cbz	r2, .L35
 1192              		.loc 1 627 0 is_stmt 0 discriminator 1
 1193 0702 924A     		ldr	r2, .L55
 1194 0704 B2F95620 		ldrsh	r2, [r2, #86]
 1195 0708 7AB3     		cbz	r2, .L35
 628:main.c        **** 
 629:main.c        ****                 //moveUntil(block_and_puck_edge_midpoint - DISTANCE_BACK_SENSOR_FROM_CENTER, BACKWA
 630:main.c        ****                 moveUntil(block_location[EAST] - DISTANCE_FRONT_SENSOR_FROM_CENTER - WIDTH_WHEEL_TO
 1196              		.loc 1 630 0 is_stmt 1
 1197 070a 904E     		ldr	r6, .L55
 1198 070c 706B     		ldr	r0, [r6, #52]
 1199 070e 0124     		movs	r4, #1
 1200 0710 0194     		str	r4, [sp, #4]
 1201 0712 C825     		movs	r5, #200
 1202 0714 0095     		str	r5, [sp]
 1203 0716 0023     		movs	r3, #0
 1204 0718 0522     		movs	r2, #5
 1205 071a 1946     		mov	r1, r3
 1206 071c A738     		subs	r0, r0, #167
 1207 071e FFF7FEFF 		bl	moveUntil
 1208              	.LVL172:
 631:main.c        ****                 straightAdjust(FRONT_SENSORS);
 1209              		.loc 1 631 0
 1210 0722 0720     		movs	r0, #7
 1211 0724 FFF7FEFF 		bl	straightAdjust
 1212              	.LVL173:
 632:main.c        ****                 changeOrientation(NORTH, SPEED);
 1213              		.loc 1 632 0
 1214 0728 2946     		mov	r1, r5
 1215 072a 0020     		movs	r0, #0
 1216 072c FFF7FEFF 		bl	changeOrientation
 1217              	.LVL174:
 633:main.c        ****                 //straightAdjust();
 634:main.c        ****                 moveUntil(PUCK_GRID_FROM_NORTH - DISTANCE_FRONT_SENSOR_FROM_CENTER - PUCK_GRID_DIST
 1218              		.loc 1 634 0
 1219 0730 B06D     		ldr	r0, [r6, #88]
 1220 0732 6FF03603 		mvn	r3, #54
 1221 0736 03FB00F0 		mul	r0, r3, r0
 1222 073a 0194     		str	r4, [sp, #4]
 1223 073c 0095     		str	r5, [sp]
 1224 073e 0023     		movs	r3, #0
 1225 0740 0422     		movs	r2, #4
 1226 0742 2146     		mov	r1, r4
 1227 0744 E130     		adds	r0, r0, #225
 1228 0746 FFF7FEFF 		bl	moveUntil
 1229              	.LVL175:
 635:main.c        ****                 straightAdjust(FRONT_SENSORS);
 1230              		.loc 1 635 0
 1231 074a 0720     		movs	r0, #7
 1232 074c FFF7FEFF 		bl	straightAdjust
 1233              	.LVL176:
 636:main.c        ****                 changeOrientation(EAST, SPEED);
 1234              		.loc 1 636 0
 1235 0750 2946     		mov	r1, r5
 1236 0752 2046     		mov	r0, r4
ARM GAS  C:\Users\Blayke\AppData\Local\Temp\ccFauHWb.s 			page 34


 1237 0754 FFF7FEFF 		bl	changeOrientation
 1238              	.LVL177:
 637:main.c        ****                 
 638:main.c        ****                 moveUntil(DISTANCE_MIDDLE_STOPPED_FROM_PUCK, FORWARD, LESS_THAN, FRONT_MIDDLE, SPEE
 1239              		.loc 1 638 0
 1240 0758 0194     		str	r4, [sp, #4]
 1241 075a 0095     		str	r5, [sp]
 1242 075c 0623     		movs	r3, #6
 1243 075e 0422     		movs	r2, #4
 1244 0760 2146     		mov	r1, r4
 1245 0762 9620     		movs	r0, #150
 1246 0764 FFF7FEFF 		bl	moveUntil
 1247              	.LVL178:
 1248 0768 33E0     		b	.L33
 1249              	.L35:
 639:main.c        ****             }
 640:main.c        ****             
 641:main.c        ****             else if (block_west_clearance && puck_east_clearance){
 1250              		.loc 1 641 0
 1251 076a 93B3     		cbz	r3, .L33
 1252              		.loc 1 641 0 is_stmt 0 discriminator 1
 1253 076c 774B     		ldr	r3, .L55
 1254 076e B3F95430 		ldrsh	r3, [r3, #84]
 1255 0772 73B3     		cbz	r3, .L33
 642:main.c        ****                 
 643:main.c        ****                 moveUntil(block_location[WEST] - DISTANCE_FRONT_SENSOR_FROM_CENTER + WIDTH_WHEEL_TO
 1256              		.loc 1 643 0 is_stmt 1
 1257 0774 754E     		ldr	r6, .L55
 1258 0776 F06B     		ldr	r0, [r6, #60]
 1259 0778 0124     		movs	r4, #1
 1260 077a 0194     		str	r4, [sp, #4]
 1261 077c C825     		movs	r5, #200
 1262 077e 0095     		str	r5, [sp]
 1263 0780 0023     		movs	r3, #0
 1264 0782 0522     		movs	r2, #5
 1265 0784 1946     		mov	r1, r3
 1266 0786 4330     		adds	r0, r0, #67
 1267 0788 FFF7FEFF 		bl	moveUntil
 1268              	.LVL179:
 644:main.c        ****                 straightAdjust(FRONT_SENSORS);
 1269              		.loc 1 644 0
 1270 078c 0720     		movs	r0, #7
 1271 078e FFF7FEFF 		bl	straightAdjust
 1272              	.LVL180:
 645:main.c        ****                 changeOrientation(NORTH, SPEED);
 1273              		.loc 1 645 0
 1274 0792 2946     		mov	r1, r5
 1275 0794 0020     		movs	r0, #0
 1276 0796 FFF7FEFF 		bl	changeOrientation
 1277              	.LVL181:
 646:main.c        ****                 moveUntil(PUCK_GRID_FROM_NORTH - DISTANCE_FRONT_SENSOR_FROM_CENTER - PUCK_GRID_DIST
 1278              		.loc 1 646 0
 1279 079a B06D     		ldr	r0, [r6, #88]
 1280 079c 6FF03603 		mvn	r3, #54
 1281 07a0 03FB00F0 		mul	r0, r3, r0
 1282 07a4 0194     		str	r4, [sp, #4]
 1283 07a6 0095     		str	r5, [sp]
ARM GAS  C:\Users\Blayke\AppData\Local\Temp\ccFauHWb.s 			page 35


 1284 07a8 0023     		movs	r3, #0
 1285 07aa 0422     		movs	r2, #4
 1286 07ac 2146     		mov	r1, r4
 1287 07ae E130     		adds	r0, r0, #225
 1288 07b0 FFF7FEFF 		bl	moveUntil
 1289              	.LVL182:
 647:main.c        ****                 straightAdjust(FRONT_SENSORS);
 1290              		.loc 1 647 0
 1291 07b4 0720     		movs	r0, #7
 1292 07b6 FFF7FEFF 		bl	straightAdjust
 1293              	.LVL183:
 648:main.c        ****                 changeOrientation(WEST, SPEED);
 1294              		.loc 1 648 0
 1295 07ba 2946     		mov	r1, r5
 1296 07bc 0320     		movs	r0, #3
 1297 07be FFF7FEFF 		bl	changeOrientation
 1298              	.LVL184:
 649:main.c        ****                 
 650:main.c        ****                 moveUntil(DISTANCE_MIDDLE_STOPPED_FROM_PUCK, FORWARD, LESS_THAN, FRONT_MIDDLE, SPEE
 1299              		.loc 1 650 0
 1300 07c2 0194     		str	r4, [sp, #4]
 1301 07c4 0095     		str	r5, [sp]
 1302 07c6 0623     		movs	r3, #6
 1303 07c8 0422     		movs	r2, #4
 1304 07ca 2146     		mov	r1, r4
 1305 07cc 9620     		movs	r0, #150
 1306 07ce FFF7FEFF 		bl	moveUntil
 1307              	.LVL185:
 1308              	.L33:
 651:main.c        ****             }
 652:main.c        ****             
 653:main.c        ****             state = STATE_FIND_REQUIRED_PUCK;
 1309              		.loc 1 653 0
 1310 07d2 0422     		movs	r2, #4
 1311 07d4 5D4B     		ldr	r3, .L55
 1312 07d6 5A60     		str	r2, [r3, #4]
 1313              	.L31:
 654:main.c        **** 
 655:main.c        ****         }
 656:main.c        ****  
 657:main.c        **** //        
 658:main.c        **** // *** 4. STATE FIND REQUIRED PUCK: *** // 
 659:main.c        **** //
 660:main.c        ****         
 661:main.c        ****         
 662:main.c        ****         if (state == STATE_FIND_REQUIRED_PUCK){
 1314              		.loc 1 662 0
 1315 07d8 5C4B     		ldr	r3, .L55
 1316 07da 5B68     		ldr	r3, [r3, #4]
 1317 07dc 042B     		cmp	r3, #4
 1318 07de 19D1     		bne	.L36
 1319              	.LVL186:
 1320              	.LBB10:
 663:main.c        ****         
 664:main.c        ****         int puck_correct = FALSE;   // A flag to determine if the correct puck has been picked up
 665:main.c        ****         int puck_scan;
 666:main.c        ****         
ARM GAS  C:\Users\Blayke\AppData\Local\Temp\ccFauHWb.s 			page 36


 667:main.c        ****     
 668:main.c        ****         //Temp delete after teesting!!!!!!!!!!!!!!!!!!!!!
 669:main.c        ****         puck_correct = TRUE;
 670:main.c        ****         
 671:main.c        ****             
 672:main.c        ****         // Scanning puck:
 673:main.c        ****             
 674:main.c        ****         safety_override = TRUE;     // DEACTIVATES the safety override so pucks don't interfere  
 1321              		.loc 1 674 0
 1322 07e0 5A4C     		ldr	r4, .L55
 1323 07e2 0125     		movs	r5, #1
 1324 07e4 E565     		str	r5, [r4, #92]
 675:main.c        **** 
 676:main.c        ****         while (puck_correct == FALSE) 
 677:main.c        ****         {
 678:main.c        ****             moveDynamic(50, SPEED_LOW, TRUE);  // robot moves forward towards puck
 679:main.c        ****                                     // could replace this with the distance gathered from the ultra
 680:main.c        ****             changeHeightToPuck(ABOVE_1_PUCK, NEITHER);  // arm lowers onto robot
 681:main.c        ****             puck_scan = colourSensingOutput();  // colour sensor takes a scan
 682:main.c        ****             changeHeightToPuck(ABOVE_3_PUCK, NEITHER);  // arm returns to high position
 683:main.c        ****             moveDynamic(-50, SPEED, TRUE);   // robot moves backwards
 684:main.c        ****             if (puck_scan == puck_construction_plan[current_stage-1]) {puck_correct = TRUE;}       
 685:main.c        ****             else 
 686:main.c        ****             {
 687:main.c        ****                 /*
 688:main.c        ****                 // Bring us to the next puck along: 
 689:main.c        ****                 moveSwivel(45, SPEED, TRUE);
 690:main.c        ****                 moveDynamic(-30,SPEED, TRUE);
 691:main.c        ****                 moveSwivel(-30, SPEED, TRUE);
 692:main.c        ****                 */
 693:main.c        ****             }
 694:main.c        ****         }
 695:main.c        **** 
 696:main.c        ****         changeHeightToPuck(GROUND, NEITHER);      // arm lowers to ground
 1325              		.loc 1 696 0
 1326 07e6 0221     		movs	r1, #2
 1327 07e8 0020     		movs	r0, #0
 1328 07ea FFF7FEFF 		bl	changeHeightToPuck
 1329              	.LVL187:
 697:main.c        ****         //armClose();
 698:main.c        ****         //changeHeightToPuck(1);
 699:main.c        ****         moveUntilPuck(CLAW_GROUND_ALGORITHM);
 1330              		.loc 1 699 0
 1331 07ee 0520     		movs	r0, #5
 1332 07f0 FFF7FEFF 		bl	moveUntilPuck
 1333              	.LVL188:
 700:main.c        ****         //moveDynamic(60);       // robot moves forward
 701:main.c        ****         armClose();                 // claw closes on puck
 1334              		.loc 1 701 0
 1335 07f4 FFF7FEFF 		bl	armClose
 1336              	.LVL189:
 702:main.c        ****         changeHeightToPuck(ABOVE_3_PUCK, CLOSE);      // arm lifts up to highest position
 1337              		.loc 1 702 0
 1338 07f8 2946     		mov	r1, r5
 1339 07fa 0320     		movs	r0, #3
 1340 07fc FFF7FEFF 		bl	changeHeightToPuck
 1341              	.LVL190:
ARM GAS  C:\Users\Blayke\AppData\Local\Temp\ccFauHWb.s 			page 37


 703:main.c        ****         moveDynamic(-60, SPEED, TRUE);       // robot moves back away from puck area 
 1342              		.loc 1 703 0
 1343 0800 2A46     		mov	r2, r5
 1344 0802 C821     		movs	r1, #200
 1345 0804 6FF03B00 		mvn	r0, #59
 1346 0808 FFF7FEFF 		bl	moveDynamic
 1347              	.LVL191:
 704:main.c        ****         
 705:main.c        ****         
 706:main.c        ****         safety_override = FALSE;        // reactivate safety override
 1348              		.loc 1 706 0
 1349 080c 0023     		movs	r3, #0
 1350 080e E365     		str	r3, [r4, #92]
 707:main.c        ****     
 708:main.c        ****         state = STATE_RETURN_TO_SOUTH;
 1351              		.loc 1 708 0
 1352 0810 0523     		movs	r3, #5
 1353 0812 6360     		str	r3, [r4, #4]
 1354              	.LVL192:
 1355              	.L36:
 1356              	.LBE10:
 709:main.c        ****    
 710:main.c        ****         }
 711:main.c        ****  
 712:main.c        ****         
 713:main.c        **** //
 714:main.c        **** // *** 5. STATE RETURN TO SOUTH: *** // 
 715:main.c        **** //      
 716:main.c        ****         
 717:main.c        ****         // Assume that we are currently in the north side of the arena facing the pucks.
 718:main.c        ****         // This state will return us to the south side of the block and face east at the east wall.
 719:main.c        ****         if (state == STATE_RETURN_TO_SOUTH){
 1357              		.loc 1 719 0
 1358 0814 4D4B     		ldr	r3, .L55
 1359 0816 5B68     		ldr	r3, [r3, #4]
 1360 0818 052B     		cmp	r3, #5
 1361 081a 40F0CA80 		bne	.L37
 720:main.c        ****             if (block_east_clearance && puck_east_clearance){
 1362              		.loc 1 720 0
 1363 081e 4B4B     		ldr	r3, .L55
 1364 0820 B3F95020 		ldrsh	r2, [r3, #80]
 1365 0824 72B3     		cbz	r2, .L38
 1366              		.loc 1 720 0 is_stmt 0 discriminator 1
 1367 0826 B3F95430 		ldrsh	r3, [r3, #84]
 1368 082a 5BB3     		cbz	r3, .L38
 721:main.c        ****                 
 722:main.c        ****                 moveUntil(CLEARANCE_RADIUS_CENTER_TO_BACK - 190, BACKWARD, LESS_THAN, BACK_RIGHT, S
 1369              		.loc 1 722 0 is_stmt 1
 1370 082c 0124     		movs	r4, #1
 1371 082e 0194     		str	r4, [sp, #4]
 1372 0830 C825     		movs	r5, #200
 1373 0832 0095     		str	r5, [sp]
 1374 0834 0523     		movs	r3, #5
 1375 0836 0422     		movs	r2, #4
 1376 0838 0021     		movs	r1, #0
 1377 083a 3220     		movs	r0, #50
 1378 083c FFF7FEFF 		bl	moveUntil
ARM GAS  C:\Users\Blayke\AppData\Local\Temp\ccFauHWb.s 			page 38


 1379              	.LVL193:
 723:main.c        ****                 // straightAdjust() using back sensor?
 724:main.c        ****                 changeOrientation(NORTH,SPEED);
 1380              		.loc 1 724 0
 1381 0840 2946     		mov	r1, r5
 1382 0842 0020     		movs	r0, #0
 1383 0844 FFF7FEFF 		bl	changeOrientation
 1384              	.LVL194:
 725:main.c        ****                 straightAdjust(FRONT_SENSORS);
 1385              		.loc 1 725 0
 1386 0848 0720     		movs	r0, #7
 1387 084a FFF7FEFF 		bl	straightAdjust
 1388              	.LVL195:
 726:main.c        ****                 moveUntil(CLEARANCE_RADIUS_CENTER_TO_BACK - 140, BACKWARD, LESS_THAN, BACK_RIGHT, S
 1389              		.loc 1 726 0
 1390 084e 0194     		str	r4, [sp, #4]
 1391 0850 0095     		str	r5, [sp]
 1392 0852 0523     		movs	r3, #5
 1393 0854 0422     		movs	r2, #4
 1394 0856 0021     		movs	r1, #0
 1395 0858 6420     		movs	r0, #100
 1396 085a FFF7FEFF 		bl	moveUntil
 1397              	.LVL196:
 727:main.c        ****                 //straightAdjust();
 728:main.c        ****                 changeOrientation(EAST,SPEED);
 1398              		.loc 1 728 0
 1399 085e 2946     		mov	r1, r5
 1400 0860 2046     		mov	r0, r4
 1401 0862 FFF7FEFF 		bl	changeOrientation
 1402              	.LVL197:
 729:main.c        ****                 straightAdjust(FRONT_SENSORS);
 1403              		.loc 1 729 0
 1404 0866 0720     		movs	r0, #7
 1405 0868 FFF7FEFF 		bl	straightAdjust
 1406              	.LVL198:
 730:main.c        ****                 moveUntil(WALL_CLEARANCE_FRONT, FORWARD, LESS_THAN, FRONT_LEFT, SPEED, TRUE);
 1407              		.loc 1 730 0
 1408 086c 0194     		str	r4, [sp, #4]
 1409 086e 0095     		str	r5, [sp]
 1410 0870 0023     		movs	r3, #0
 1411 0872 0422     		movs	r2, #4
 1412 0874 2146     		mov	r1, r4
 1413 0876 AF20     		movs	r0, #175
 1414 0878 FFF7FEFF 		bl	moveUntil
 1415              	.LVL199:
 731:main.c        ****                 straightAdjust(FRONT_SENSORS);
 1416              		.loc 1 731 0
 1417 087c 0720     		movs	r0, #7
 1418 087e FFF7FEFF 		bl	straightAdjust
 1419              	.LVL200:
 1420 0882 93E0     		b	.L39
 1421              	.L38:
 732:main.c        ****                 
 733:main.c        ****             }
 734:main.c        ****             
 735:main.c        ****             else if (block_west_clearance && puck_west_clearance){
 1422              		.loc 1 735 0
ARM GAS  C:\Users\Blayke\AppData\Local\Temp\ccFauHWb.s 			page 39


 1423 0884 314B     		ldr	r3, .L55
 1424 0886 B3F95230 		ldrsh	r3, [r3, #82]
 1425 088a 7BB3     		cbz	r3, .L40
 1426              		.loc 1 735 0 is_stmt 0 discriminator 1
 1427 088c 2F49     		ldr	r1, .L55
 1428 088e B1F95610 		ldrsh	r1, [r1, #86]
 1429 0892 59B3     		cbz	r1, .L40
 736:main.c        ****             
 737:main.c        ****                 moveUntil(CLEARANCE_RADIUS_CENTER_TO_BACK - DISTANCE_BACK_SENSOR_FROM_CENTER, BACKW
 1430              		.loc 1 737 0 is_stmt 1
 1431 0894 0124     		movs	r4, #1
 1432 0896 0194     		str	r4, [sp, #4]
 1433 0898 C825     		movs	r5, #200
 1434 089a 0095     		str	r5, [sp]
 1435 089c 0523     		movs	r3, #5
 1436 089e 0422     		movs	r2, #4
 1437 08a0 0021     		movs	r1, #0
 1438 08a2 0A20     		movs	r0, #10
 1439 08a4 FFF7FEFF 		bl	moveUntil
 1440              	.LVL201:
 738:main.c        ****                 // straightAdjust() using back sensor?
 739:main.c        ****                 changeOrientation(NORTH,SPEED);
 1441              		.loc 1 739 0
 1442 08a8 2946     		mov	r1, r5
 1443 08aa 0020     		movs	r0, #0
 1444 08ac FFF7FEFF 		bl	changeOrientation
 1445              	.LVL202:
 740:main.c        ****                 straightAdjust(FRONT_SENSORS);
 1446              		.loc 1 740 0
 1447 08b0 0720     		movs	r0, #7
 1448 08b2 FFF7FEFF 		bl	straightAdjust
 1449              	.LVL203:
 741:main.c        ****                 moveUntil(CLEARANCE_RADIUS_CENTER_TO_BACK - 140, BACKWARD, LESS_THAN, BACK_RIGHT, S
 1450              		.loc 1 741 0
 1451 08b6 0194     		str	r4, [sp, #4]
 1452 08b8 0095     		str	r5, [sp]
 1453 08ba 0523     		movs	r3, #5
 1454 08bc 0422     		movs	r2, #4
 1455 08be 0021     		movs	r1, #0
 1456 08c0 6420     		movs	r0, #100
 1457 08c2 FFF7FEFF 		bl	moveUntil
 1458              	.LVL204:
 742:main.c        ****                 //straightAdjust();
 743:main.c        ****                 changeOrientation(EAST,SPEED);
 1459              		.loc 1 743 0
 1460 08c6 2946     		mov	r1, r5
 1461 08c8 2046     		mov	r0, r4
 1462 08ca FFF7FEFF 		bl	changeOrientation
 1463              	.LVL205:
 744:main.c        ****                 straightAdjust(FRONT_SENSORS);
 1464              		.loc 1 744 0
 1465 08ce 0720     		movs	r0, #7
 1466 08d0 FFF7FEFF 		bl	straightAdjust
 1467              	.LVL206:
 745:main.c        ****                 moveUntil(WALL_CLEARANCE_FRONT, FORWARD, LESS_THAN, FRONT_LEFT, SPEED, TRUE);
 1468              		.loc 1 745 0
 1469 08d4 0194     		str	r4, [sp, #4]
ARM GAS  C:\Users\Blayke\AppData\Local\Temp\ccFauHWb.s 			page 40


 1470 08d6 0095     		str	r5, [sp]
 1471 08d8 0023     		movs	r3, #0
 1472 08da 0422     		movs	r2, #4
 1473 08dc 2146     		mov	r1, r4
 1474 08de AF20     		movs	r0, #175
 1475 08e0 FFF7FEFF 		bl	moveUntil
 1476              	.LVL207:
 746:main.c        ****                 straightAdjust(FRONT_SENSORS);
 1477              		.loc 1 746 0
 1478 08e4 0720     		movs	r0, #7
 1479 08e6 FFF7FEFF 		bl	straightAdjust
 1480              	.LVL208:
 1481 08ea 5FE0     		b	.L39
 1482              	.L40:
 747:main.c        ****               
 748:main.c        ****             }
 749:main.c        ****             
 750:main.c        ****             
 751:main.c        ****             else if (block_east_clearance && puck_west_clearance){
 1483              		.loc 1 751 0
 1484 08ec 82B3     		cbz	r2, .L41
 1485              		.loc 1 751 0 is_stmt 0 discriminator 1
 1486 08ee 174A     		ldr	r2, .L55
 1487 08f0 B2F95620 		ldrsh	r2, [r2, #86]
 1488 08f4 62B3     		cbz	r2, .L41
 752:main.c        **** 
 753:main.c        ****                 moveUntil(ARENA_WIDTH - (block_location[EAST] - DISTANCE_FRONT_SENSOR_FROM_CENTER -
 1489              		.loc 1 753 0 is_stmt 1
 1490 08f6 154B     		ldr	r3, .L55
 1491 08f8 586B     		ldr	r0, [r3, #52]
 1492 08fa 0124     		movs	r4, #1
 1493 08fc 0194     		str	r4, [sp, #4]
 1494 08fe C825     		movs	r5, #200
 1495 0900 0095     		str	r5, [sp]
 1496 0902 0523     		movs	r3, #5
 1497 0904 0422     		movs	r2, #4
 1498 0906 0021     		movs	r1, #0
 1499 0908 C0F5AA60 		rsb	r0, r0, #1360
 1500 090c 0730     		adds	r0, r0, #7
 1501 090e FFF7FEFF 		bl	moveUntil
 1502              	.LVL209:
 754:main.c        ****                 //straightAdjust();
 755:main.c        ****                 changeOrientation(NORTH, SPEED);
 1503              		.loc 1 755 0
 1504 0912 2946     		mov	r1, r5
 1505 0914 0020     		movs	r0, #0
 1506 0916 FFF7FEFF 		bl	changeOrientation
 1507              	.LVL210:
 756:main.c        ****                 straightAdjust(FRONT_SENSORS);
 1508              		.loc 1 756 0
 1509 091a 0720     		movs	r0, #7
 1510 091c FFF7FEFF 		bl	straightAdjust
 1511              	.LVL211:
 757:main.c        ****                 moveUntil(CLEARANCE_RADIUS_CENTER_TO_BACK - 140, BACKWARD, LESS_THAN, BACK_RIGHT, S
 1512              		.loc 1 757 0
 1513 0920 0194     		str	r4, [sp, #4]
 1514 0922 0095     		str	r5, [sp]
ARM GAS  C:\Users\Blayke\AppData\Local\Temp\ccFauHWb.s 			page 41


 1515 0924 0523     		movs	r3, #5
 1516 0926 0422     		movs	r2, #4
 1517 0928 0021     		movs	r1, #0
 1518 092a 6420     		movs	r0, #100
 1519 092c FFF7FEFF 		bl	moveUntil
 1520              	.LVL212:
 758:main.c        ****                 //displaceLeft(); Repeatedly call this if below function not implemented
 759:main.c        ****                 //displaceLeftUntil(CLEARANCE_RADIUS_CENTER_TO_BACK,RIGHT);
 760:main.c        ****                 changeOrientation(EAST, SPEED);
 1521              		.loc 1 760 0
 1522 0930 2946     		mov	r1, r5
 1523 0932 2046     		mov	r0, r4
 1524 0934 FFF7FEFF 		bl	changeOrientation
 1525              	.LVL213:
 761:main.c        ****                 //displaceLeft();
 762:main.c        ****                 //displaceLeftUntil(DISTANCE_PUCKS_FROM_NORTH + WIDTH_SENSOR_TO_CENTER ,RIGHT);
 763:main.c        ****                 moveUntil(WALL_CLEARANCE_FRONT, FORWARD, LESS_THAN, FRONT_LEFT, SPEED, TRUE);
 1526              		.loc 1 763 0
 1527 0938 0194     		str	r4, [sp, #4]
 1528 093a 0095     		str	r5, [sp]
 1529 093c 0023     		movs	r3, #0
 1530 093e 0422     		movs	r2, #4
 1531 0940 2146     		mov	r1, r4
 1532 0942 AF20     		movs	r0, #175
 1533 0944 FFF7FEFF 		bl	moveUntil
 1534              	.LVL214:
 1535 0948 30E0     		b	.L39
 1536              	.L56:
 1537 094a 00BF     		.align	2
 1538              	.L55:
 1539 094c 00000000 		.word	.LANCHOR0
 1540              	.L41:
 764:main.c        ****                 
 765:main.c        ****             }
 766:main.c        ****             
 767:main.c        ****             else if (block_west_clearance && puck_east_clearance){
 1541              		.loc 1 767 0
 1542 0950 63B3     		cbz	r3, .L39
 1543              		.loc 1 767 0 is_stmt 0 discriminator 1
 1544 0952 804B     		ldr	r3, .L57
 1545 0954 B3F95430 		ldrsh	r3, [r3, #84]
 1546 0958 43B3     		cbz	r3, .L39
 768:main.c        ****                 
 769:main.c        ****                 moveUntil(ARENA_WIDTH - (block_location[WEST] - DISTANCE_FRONT_SENSOR_FROM_CENTER +
 1547              		.loc 1 769 0 is_stmt 1
 1548 095a 7E4B     		ldr	r3, .L57
 1549 095c D86B     		ldr	r0, [r3, #60]
 1550 095e 0124     		movs	r4, #1
 1551 0960 0194     		str	r4, [sp, #4]
 1552 0962 C825     		movs	r5, #200
 1553 0964 0095     		str	r5, [sp]
 1554 0966 0023     		movs	r3, #0
 1555 0968 0522     		movs	r2, #5
 1556 096a 1946     		mov	r1, r3
 1557 096c C0F58D60 		rsb	r0, r0, #1128
 1558 0970 1044     		add	r0, r0, r2
 1559 0972 FFF7FEFF 		bl	moveUntil
ARM GAS  C:\Users\Blayke\AppData\Local\Temp\ccFauHWb.s 			page 42


 1560              	.LVL215:
 770:main.c        ****                 changeOrientation(NORTH, SPEED);
 1561              		.loc 1 770 0
 1562 0976 2946     		mov	r1, r5
 1563 0978 0020     		movs	r0, #0
 1564 097a FFF7FEFF 		bl	changeOrientation
 1565              	.LVL216:
 771:main.c        ****                 straightAdjust(FRONT_SENSORS);
 1566              		.loc 1 771 0
 1567 097e 0720     		movs	r0, #7
 1568 0980 FFF7FEFF 		bl	straightAdjust
 1569              	.LVL217:
 772:main.c        ****                 moveUntil(CLEARANCE_RADIUS_CENTER_TO_BACK - 140, BACKWARD, LESS_THAN, BACK_RIGHT, S
 1570              		.loc 1 772 0
 1571 0984 0194     		str	r4, [sp, #4]
 1572 0986 0095     		str	r5, [sp]
 1573 0988 0523     		movs	r3, #5
 1574 098a 0422     		movs	r2, #4
 1575 098c 0021     		movs	r1, #0
 1576 098e 6420     		movs	r0, #100
 1577 0990 FFF7FEFF 		bl	moveUntil
 1578              	.LVL218:
 773:main.c        ****                 //displaceLeft(); Repeatedly call this if below function not implemented
 774:main.c        ****                 //displaceLeftUntil(CLEARANCE_RADIUS_CENTER_TO_BACK,RIGHT);
 775:main.c        ****                 changeOrientation(EAST, SPEED);
 1579              		.loc 1 775 0
 1580 0994 2946     		mov	r1, r5
 1581 0996 2046     		mov	r0, r4
 1582 0998 FFF7FEFF 		bl	changeOrientation
 1583              	.LVL219:
 776:main.c        ****                 //displaceLeft();
 777:main.c        ****                 //displaceLeftUntil(DISTANCE_PUCKS_FROM_NORTH + WIDTH_SENSOR_TO_CENTER ,RIGHT);
 778:main.c        ****                 moveUntil(WALL_CLEARANCE_FRONT, FORWARD, LESS_THAN, FRONT_LEFT, SPEED, TRUE);
 1584              		.loc 1 778 0
 1585 099c 0194     		str	r4, [sp, #4]
 1586 099e 0095     		str	r5, [sp]
 1587 09a0 0023     		movs	r3, #0
 1588 09a2 0422     		movs	r2, #4
 1589 09a4 2146     		mov	r1, r4
 1590 09a6 AF20     		movs	r0, #175
 1591 09a8 FFF7FEFF 		bl	moveUntil
 1592              	.LVL220:
 1593              	.L39:
 779:main.c        ****                 
 780:main.c        ****             }   
 781:main.c        ****             
 782:main.c        ****             state = STATE_DEPOSIT_PUCK;
 1594              		.loc 1 782 0
 1595 09ac 0622     		movs	r2, #6
 1596 09ae 694B     		ldr	r3, .L57
 1597 09b0 5A60     		str	r2, [r3, #4]
 1598              	.L37:
 783:main.c        ****         }
 784:main.c        ****         
 785:main.c        **** //        
 786:main.c        **** // *** 6. STATE DEPOSIT PUCK: *** // 
 787:main.c        **** //
ARM GAS  C:\Users\Blayke\AppData\Local\Temp\ccFauHWb.s 			page 43


 788:main.c        ****         
 789:main.c        ****         // We choose where we put the puck. Depending if its needed now, later or never.
 790:main.c        ****         if (state == STATE_DEPOSIT_PUCK){
 1599              		.loc 1 790 0
 1600 09b2 684B     		ldr	r3, .L57
 1601 09b4 5B68     		ldr	r3, [r3, #4]
 1602 09b6 062B     		cmp	r3, #6
 1603 09b8 40F09A80 		bne	.L42
 1604              	.LBB11:
 791:main.c        ****                 
 792:main.c        ****             
 793:main.c        ****             // Temp grab puck
 794:main.c        ****             control_photodiode_Write(CLAW_SENSING);    // changes to claw photodiode
 1605              		.loc 1 794 0
 1606 09bc 0120     		movs	r0, #1
 1607 09be FFF7FEFF 		bl	control_photodiode_Write
 1608              	.LVL221:
 795:main.c        ****             colour_sensing_algorithm = CLAW_GROUND_ALGORITHM;   // changes it to claw algorithm
 1609              		.loc 1 795 0
 1610 09c2 644C     		ldr	r4, .L57
 1611 09c4 0523     		movs	r3, #5
 1612 09c6 E360     		str	r3, [r4, #12]
 796:main.c        ****             
 797:main.c        ****             /*
 798:main.c        ****             armOpen();
 799:main.c        ****             colourSensingInitialise();
 800:main.c        ****             CyDelay(2000);
 801:main.c        ****             armClose();
 802:main.c        ****             */
 803:main.c        ****             
 804:main.c        ****             
 805:main.c        ****             
 806:main.c        ****             int heldColour = colourSensingOutput();
 1613              		.loc 1 806 0
 1614 09c8 FFF7FEFF 		bl	colourSensingOutput
 1615              	.LVL222:
 807:main.c        ****             //blinkLED(heldColour,500);
 808:main.c        ****             
 809:main.c        ****             
 810:main.c        ****             // TO DELETE
 811:main.c        ****             heldColour = current_stage; // temp checking it can stack with a fixed rgb order for si
 1616              		.loc 1 811 0
 1617 09cc 624B     		ldr	r3, .L57+4
 1618 09ce 1A68     		ldr	r2, [r3]
 1619              	.LVL223:
 812:main.c        ****             //armOpen();
 813:main.c        ****             //CyDelay(1000);
 814:main.c        ****             //armClose();
 815:main.c        ****             
 816:main.c        ****             
 817:main.c        ****             if (heldColour == puck_construction_plan[current_puck_stack_size] ) { // The currently 
 1620              		.loc 1 817 0
 1621 09d0 A36D     		ldr	r3, [r4, #88]
 1622 09d2 04EB8304 		add	r4, r4, r3, lsl #2
 1623 09d6 2369     		ldr	r3, [r4, #16]
 1624 09d8 9A42     		cmp	r2, r3
 1625 09da 1DD1     		bne	.L43
ARM GAS  C:\Users\Blayke\AppData\Local\Temp\ccFauHWb.s 			page 44


 818:main.c        ****                 moveUntil(HOME_MIDPOINT - DISTANCE_FRONT_SENSOR_FROM_CENTER, BACKWARD, GREATER_THAN
 1626              		.loc 1 818 0
 1627 09dc 0125     		movs	r5, #1
 1628 09de 0195     		str	r5, [sp, #4]
 1629 09e0 C824     		movs	r4, #200
 1630 09e2 0094     		str	r4, [sp]
 1631 09e4 0023     		movs	r3, #0
 1632 09e6 0522     		movs	r2, #5
 1633              	.LVL224:
 1634 09e8 1946     		mov	r1, r3
 1635 09ea 40F22620 		movw	r0, #550
 1636 09ee FFF7FEFF 		bl	moveUntil
 1637              	.LVL225:
 819:main.c        ****                 changeOrientation(NORTH,SPEED);
 1638              		.loc 1 819 0
 1639 09f2 2146     		mov	r1, r4
 1640 09f4 0020     		movs	r0, #0
 1641 09f6 FFF7FEFF 		bl	changeOrientation
 1642              	.LVL226:
 820:main.c        ****                 changeOrientation(WEST,SPEED);
 1643              		.loc 1 820 0
 1644 09fa 2146     		mov	r1, r4
 1645 09fc 0320     		movs	r0, #3
 1646 09fe FFF7FEFF 		bl	changeOrientation
 1647              	.LVL227:
 821:main.c        ****                 moveUntil(CONSTRUCTION_MIDPOINT - DISTANCE_FRONT_SENSOR_FROM_CENTER - 30, FORWARD, 
 1648              		.loc 1 821 0
 1649 0a02 0195     		str	r5, [sp, #4]
 1650 0a04 0094     		str	r4, [sp]
 1651 0a06 0023     		movs	r3, #0
 1652 0a08 0422     		movs	r2, #4
 1653 0a0a 2946     		mov	r1, r5
 1654 0a0c AA20     		movs	r0, #170
 1655 0a0e FFF7FEFF 		bl	moveUntil
 1656              	.LVL228:
 822:main.c        ****                 straightAdjust(FRONT_SENSORS);
 1657              		.loc 1 822 0
 1658 0a12 0720     		movs	r0, #7
 1659 0a14 FFF7FEFF 		bl	straightAdjust
 1660              	.LVL229:
 1661              	.L43:
 823:main.c        ****                 
 824:main.c        ****                 //changeOrientation(SOUTH, SPEED);
 825:main.c        ****                 //moveUntil(CONSTRUCTION_MIDPOINT - DISTANCE_FRONT_SENSOR_FROM_CENTER, FORWARD, LES
 826:main.c        ****                 
 827:main.c        ****                 
 828:main.c        ****                 
 829:main.c        ****             }
 830:main.c        ****             /*
 831:main.c        ****             else if ( heldColour == puck_construction_plan[1] || heldColour == puck_construction_pl
 832:main.c        ****                 moveUntil(ARENA_WIDTH - FIRST_TEMP_DROPOFF + DISTANCE_FRONT_SENSOR_FROM_CENTER, BAC
 833:main.c        ****                 straightAdjust();
 834:main.c        ****             }
 835:main.c        ****             
 836:main.c        ****             else {
 837:main.c        ****                 moveUntil(ARENA_WIDTH-FIRST_DISCARD_ZONE + DISTANCE_FRONT_SENSOR_FROM_CENTER, BACKW
 838:main.c        ****             } // Discard the puck so drop it in rubbish pile
ARM GAS  C:\Users\Blayke\AppData\Local\Temp\ccFauHWb.s 			page 45


 839:main.c        ****             
 840:main.c        ****             */
 841:main.c        **** 
 842:main.c        ****             changeOrientation(SOUTH,SPEED);    
 1662              		.loc 1 842 0
 1663 0a18 C821     		movs	r1, #200
 1664 0a1a 0220     		movs	r0, #2
 1665 0a1c FFF7FEFF 		bl	changeOrientation
 1666              	.LVL230:
 843:main.c        ****             changeHeightToPuck(ABOVE_3_PUCK, CLOSE); // Lift claw above stack to avoid hitting the 
 1667              		.loc 1 843 0
 1668 0a20 0121     		movs	r1, #1
 1669 0a22 0320     		movs	r0, #3
 1670 0a24 FFF7FEFF 		bl	changeHeightToPuck
 1671              	.LVL231:
 844:main.c        ****             
 845:main.c        ****             if (current_puck_stack_size == 0){
 1672              		.loc 1 845 0
 1673 0a28 4A4B     		ldr	r3, .L57
 1674 0a2a 9B6D     		ldr	r3, [r3, #88]
 1675 0a2c 63B9     		cbnz	r3, .L44
 846:main.c        ****                 straightAdjust(FRONT_SENSORS);
 1676              		.loc 1 846 0
 1677 0a2e 0720     		movs	r0, #7
 1678 0a30 FFF7FEFF 		bl	straightAdjust
 1679              	.LVL232:
 847:main.c        ****                 moveUntil(CONSTRUCTION_DISTANCE_FROM_WALL, FORWARD, LESS_THAN, FRONT_LEFT, SPEED,TR
 1680              		.loc 1 847 0
 1681 0a34 0121     		movs	r1, #1
 1682 0a36 0191     		str	r1, [sp, #4]
 1683 0a38 C823     		movs	r3, #200
 1684 0a3a 0093     		str	r3, [sp]
 1685 0a3c 0023     		movs	r3, #0
 1686 0a3e 0422     		movs	r2, #4
 1687 0a40 8220     		movs	r0, #130
 1688 0a42 FFF7FEFF 		bl	moveUntil
 1689              	.LVL233:
 1690 0a46 09E0     		b	.L45
 1691              	.L44:
 848:main.c        ****                
 849:main.c        ****             }
 850:main.c        ****             else {
 851:main.c        ****                 moveUntil(DISTANCE_BEFORE_STACK_MIDDLE_SENSOR, FORWARD, LESS_THAN, FRONT_MIDDLE, SP
 1692              		.loc 1 851 0
 1693 0a48 0023     		movs	r3, #0
 1694 0a4a 0193     		str	r3, [sp, #4]
 1695 0a4c 4623     		movs	r3, #70
 1696 0a4e 0093     		str	r3, [sp]
 1697 0a50 0623     		movs	r3, #6
 1698 0a52 0422     		movs	r2, #4
 1699 0a54 0121     		movs	r1, #1
 1700 0a56 5F20     		movs	r0, #95
 1701 0a58 FFF7FEFF 		bl	moveUntil
 1702              	.LVL234:
 1703              	.L45:
 852:main.c        ****                 //moveDynamic(140, SPEED, FALSE);            
 853:main.c        ****             }
ARM GAS  C:\Users\Blayke\AppData\Local\Temp\ccFauHWb.s 			page 46


 854:main.c        ****             
 855:main.c        ****             //moveDynamic(CONSTRUCTION_DISTANCE_CLEAR_FROM_STACK - CONSTRUCTION_DISTANCE_FROM_WALL,
 856:main.c        ****             
 857:main.c        ****             changeHeightToPuck(current_puck_stack_size, CLOSE);
 1704              		.loc 1 857 0
 1705 0a5c 0121     		movs	r1, #1
 1706 0a5e 3D4B     		ldr	r3, .L57
 1707 0a60 986D     		ldr	r0, [r3, #88]
 1708 0a62 FFF7FEFF 		bl	changeHeightToPuck
 1709              	.LVL235:
 858:main.c        ****             armOpen();
 1710              		.loc 1 858 0
 1711 0a66 FFF7FEFF 		bl	armOpen
 1712              	.LVL236:
 859:main.c        ****             changeHeightToPuck(ABOVE_3_PUCK, OPEN); // Move higher than stack to avoid hitting it.
 1713              		.loc 1 859 0
 1714 0a6a 0021     		movs	r1, #0
 1715 0a6c 0320     		movs	r0, #3
 1716 0a6e FFF7FEFF 		bl	changeHeightToPuck
 1717              	.LVL237:
 860:main.c        ****             
 861:main.c        **** 
 862:main.c        ****             if (current_stage >= 3){state = STATE_PARK_HOME;}        // Returns to home 
 1718              		.loc 1 862 0
 1719 0a72 394B     		ldr	r3, .L57+4
 1720 0a74 1B68     		ldr	r3, [r3]
 1721 0a76 022B     		cmp	r3, #2
 1722 0a78 03DD     		ble	.L46
 1723              		.loc 1 862 0 is_stmt 0 discriminator 1
 1724 0a7a 0722     		movs	r2, #7
 1725 0a7c 354B     		ldr	r3, .L57
 1726 0a7e 5A60     		str	r2, [r3, #4]
 1727 0a80 36E0     		b	.L42
 1728              	.L46:
 863:main.c        ****             else {current_stage++; current_puck_stack_size++;
 1729              		.loc 1 863 0 is_stmt 1
 1730 0a82 0133     		adds	r3, r3, #1
 1731 0a84 344A     		ldr	r2, .L57+4
 1732 0a86 1360     		str	r3, [r2]
 1733 0a88 324E     		ldr	r6, .L57
 1734 0a8a B36D     		ldr	r3, [r6, #88]
 1735 0a8c 0133     		adds	r3, r3, #1
 1736 0a8e B365     		str	r3, [r6, #88]
 864:main.c        ****             // Need to go back to the east wall facing east.
 865:main.c        ****                 //moveUntil(CONSTRUCTION_DISTANCE_CLEAR_FROM_STACK, BACKWARD, GREATER_THAN, FRONT_L
 866:main.c        ****                 moveDynamic(-130,SPEED,TRUE);
 1737              		.loc 1 866 0
 1738 0a90 0122     		movs	r2, #1
 1739 0a92 C821     		movs	r1, #200
 1740 0a94 6FF08100 		mvn	r0, #129
 1741 0a98 FFF7FEFF 		bl	moveDynamic
 1742              	.LVL238:
 867:main.c        ****                 changeOrientation(WEST,SPEED);
 1743              		.loc 1 867 0
 1744 0a9c C821     		movs	r1, #200
 1745 0a9e 0320     		movs	r0, #3
 1746 0aa0 FFF7FEFF 		bl	changeOrientation
ARM GAS  C:\Users\Blayke\AppData\Local\Temp\ccFauHWb.s 			page 47


 1747              	.LVL239:
 868:main.c        ****                 straightAdjust(FRONT_SENSORS);
 1748              		.loc 1 868 0
 1749 0aa4 0720     		movs	r0, #7
 1750 0aa6 FFF7FEFF 		bl	straightAdjust
 1751              	.LVL240:
 869:main.c        ****                 moveUntil(HOME_MIDPOINT - DISTANCE_FRONT_SENSOR_FROM_CENTER, BACKWARD, GREATER_THAN
 1752              		.loc 1 869 0
 1753 0aaa 0124     		movs	r4, #1
 1754 0aac 0194     		str	r4, [sp, #4]
 1755 0aae C825     		movs	r5, #200
 1756 0ab0 0095     		str	r5, [sp]
 1757 0ab2 0023     		movs	r3, #0
 1758 0ab4 0522     		movs	r2, #5
 1759 0ab6 1946     		mov	r1, r3
 1760 0ab8 40F22620 		movw	r0, #550
 1761 0abc FFF7FEFF 		bl	moveUntil
 1762              	.LVL241:
 870:main.c        ****                 straightAdjust(FRONT_SENSORS);
 1763              		.loc 1 870 0
 1764 0ac0 0720     		movs	r0, #7
 1765 0ac2 FFF7FEFF 		bl	straightAdjust
 1766              	.LVL242:
 871:main.c        ****                 changeOrientation(NORTH,SPEED);
 1767              		.loc 1 871 0
 1768 0ac6 2946     		mov	r1, r5
 1769 0ac8 0020     		movs	r0, #0
 1770 0aca FFF7FEFF 		bl	changeOrientation
 1771              	.LVL243:
 872:main.c        ****                 changeOrientation(EAST,SPEED);
 1772              		.loc 1 872 0
 1773 0ace 2946     		mov	r1, r5
 1774 0ad0 2046     		mov	r0, r4
 1775 0ad2 FFF7FEFF 		bl	changeOrientation
 1776              	.LVL244:
 873:main.c        ****                 moveUntil(DISTANCE_FRONT_SENSOR_FROM_CENTER + SAFETY_MARGIN + 50, FORWARD, LESS_THA
 1777              		.loc 1 873 0
 1778 0ad6 0194     		str	r4, [sp, #4]
 1779 0ad8 0095     		str	r5, [sp]
 1780 0ada 0023     		movs	r3, #0
 1781 0adc 0422     		movs	r2, #4
 1782 0ade 2146     		mov	r1, r4
 1783 0ae0 B920     		movs	r0, #185
 1784 0ae2 FFF7FEFF 		bl	moveUntil
 1785              	.LVL245:
 874:main.c        ****                 straightAdjust(FRONT_SENSORS);
 1786              		.loc 1 874 0
 1787 0ae6 0720     		movs	r0, #7
 1788 0ae8 FFF7FEFF 		bl	straightAdjust
 1789              	.LVL246:
 875:main.c        ****                 
 876:main.c        ****                 
 877:main.c        ****                 //Usually we will check if the next colour we need is in home base already
 878:main.c        ****                 //
 879:main.c        ****                 // If in east edge of home base
 880:main.c        ****                 if ( puck_construction_plan[current_puck_stack_size] == puck_temp_pile[0]){
 881:main.c        ****                     
ARM GAS  C:\Users\Blayke\AppData\Local\Temp\ccFauHWb.s 			page 48


 882:main.c        ****                 }
 883:main.c        ****                 //If in west edge of home base
 884:main.c        ****                 else if(puck_construction_plan[current_puck_stack_size] == puck_temp_pile[1]){
 885:main.c        ****                          
 886:main.c        ****                 }
 887:main.c        ****                 
 888:main.c        ****                 state = STATE_GO_TO_PUCKS; // Go grab the next puck from the pile since it isn't in
 1790              		.loc 1 888 0
 1791 0aec 0323     		movs	r3, #3
 1792 0aee 7360     		str	r3, [r6, #4]
 1793              	.L42:
 1794              	.LBE11:
 889:main.c        ****             }
 890:main.c        ****             
 891:main.c        ****             
 892:main.c        **** 
 893:main.c        ****         }
 894:main.c        ****  
 895:main.c        **** //        
 896:main.c        **** // *** 7. STATE PARK HOME: *** // 
 897:main.c        **** //        
 898:main.c        ****         
 899:main.c        ****         if (state == STATE_PARK_HOME){
 1795              		.loc 1 899 0
 1796 0af0 184B     		ldr	r3, .L57
 1797 0af2 5B68     		ldr	r3, [r3, #4]
 1798 0af4 072B     		cmp	r3, #7
 1799 0af6 7FF40AAB 		bne	.L47
 900:main.c        ****             
 901:main.c        ****             // When we enter this state we can assume that we have just deposited the final puck on
 902:main.c        ****             // Thus we are facing the stack.
 903:main.c        ****             
 904:main.c        ****             
 905:main.c        ****             moveUntil(CONSTRUCTION_DISTANCE_CLEAR_FROM_STACK, BACKWARD, GREATER_THAN, FRONT_LEFT, S
 1800              		.loc 1 905 0
 1801 0afa 0024     		movs	r4, #0
 1802 0afc 0194     		str	r4, [sp, #4]
 1803 0afe C825     		movs	r5, #200
 1804 0b00 0095     		str	r5, [sp]
 1805 0b02 2346     		mov	r3, r4
 1806 0b04 0522     		movs	r2, #5
 1807 0b06 2146     		mov	r1, r4
 1808 0b08 D220     		movs	r0, #210
 1809 0b0a FFF7FEFF 		bl	moveUntil
 1810              	.LVL247:
 906:main.c        ****             changeOrientation(WEST,SPEED);
 1811              		.loc 1 906 0
 1812 0b0e 2946     		mov	r1, r5
 1813 0b10 0320     		movs	r0, #3
 1814 0b12 FFF7FEFF 		bl	changeOrientation
 1815              	.LVL248:
 907:main.c        ****             straightAdjust(FRONT_SENSORS);
 1816              		.loc 1 907 0
 1817 0b16 0720     		movs	r0, #7
 1818 0b18 FFF7FEFF 		bl	straightAdjust
 1819              	.LVL249:
 908:main.c        ****             moveUntil(HOME_MIDPOINT - DISTANCE_FRONT_SENSOR_FROM_CENTER - 45 , BACKWARD, GREATER_TH
ARM GAS  C:\Users\Blayke\AppData\Local\Temp\ccFauHWb.s 			page 49


 1820              		.loc 1 908 0
 1821 0b1c 0126     		movs	r6, #1
 1822 0b1e 0196     		str	r6, [sp, #4]
 1823 0b20 0095     		str	r5, [sp]
 1824 0b22 3346     		mov	r3, r6
 1825 0b24 0522     		movs	r2, #5
 1826 0b26 2146     		mov	r1, r4
 1827 0b28 40F2F910 		movw	r0, #505
 1828 0b2c FFF7FEFF 		bl	moveUntil
 1829              	.LVL250:
 909:main.c        ****             changeOrientation(NORTH,SPEED);
 1830              		.loc 1 909 0
 1831 0b30 2946     		mov	r1, r5
 1832 0b32 2046     		mov	r0, r4
 1833 0b34 FFF7FEFF 		bl	changeOrientation
 1834              	.LVL251:
 910:main.c        ****             moveUntil(HOME_PARKING_DISTANCE , BACKWARD, LESS_THAN, BACK_RIGHT, SPEED, TRUE);
 1835              		.loc 1 910 0
 1836 0b38 0196     		str	r6, [sp, #4]
 1837 0b3a 0095     		str	r5, [sp]
 1838 0b3c 0523     		movs	r3, #5
 1839 0b3e 0422     		movs	r2, #4
 1840 0b40 2146     		mov	r1, r4
 1841 0b42 2820     		movs	r0, #40
 1842 0b44 FFF7FEFF 		bl	moveUntil
 1843              	.LVL252:
 911:main.c        **** 
 912:main.c        ****             // END Congratulations:
 913:main.c        ****             changeHeightToPuck(GROUND, NEITHER);
 1844              		.loc 1 913 0
 1845 0b48 0221     		movs	r1, #2
 1846 0b4a 2046     		mov	r0, r4
 1847 0b4c FFF7FEFF 		bl	changeHeightToPuck
 1848              	.LVL253:
 1849              	.L48:
 1850 0b50 FEE7     		b	.L48
 1851              	.L58:
 1852 0b52 00BF     		.align	2
 1853              	.L57:
 1854 0b54 00000000 		.word	.LANCHOR0
 1855 0b58 00000000 		.word	.LANCHOR1
 1856              		.cfi_endproc
 1857              	.LFE66:
 1858              		.size	main, .-main
 1859              		.comm	distance_returned_global,4,4
 1860              		.global	current_stage
 1861              		.global	PLAN_SCAN_VERTICAL
 1862              		.global	moving
 1863              		.global	colour_sensing_algorithm
 1864              		.global	colour_flag
 1865              		.global	idac_value
 1866              		.global	puck_west_clearance
 1867              		.global	puck_east_clearance
 1868              		.global	block_west_clearance
 1869              		.global	block_east_clearance
 1870              		.global	safety_override
 1871              		.global	puck_location
ARM GAS  C:\Users\Blayke\AppData\Local\Temp\ccFauHWb.s 			page 50


 1872              		.global	block_location
 1873              		.global	begin_navigation
 1874              		.global	puck_temp_pile
 1875              		.global	puck_construction_plan
 1876              		.global	current_puck_stack_size
 1877              		.global	state
 1878              		.comm	ultrasonic_flag,4,4
 1879              		.comm	initialisation,4,4
 1880              		.comm	output,32,4
 1881              		.global	block_edge_location
 1882              		.global	puck_rack_west_offsets
 1883              		.global	puck_rack_scans
 1884              		.comm	internal_orientation,4,4
 1885              		.section	.rodata
 1886              		.align	2
 1887              		.type	PLAN_SCAN_VERTICAL, %object
 1888              		.size	PLAN_SCAN_VERTICAL, 4
 1889              	PLAN_SCAN_VERTICAL:
 1890 0000 0A000000 		.word	10
 1891              		.data
 1892              		.align	2
 1893              		.set	.LANCHOR1,. + 0
 1894              		.type	current_stage, %object
 1895              		.size	current_stage, 4
 1896              	current_stage:
 1897 0000 01000000 		.word	1
 1898              		.type	colour_flag, %object
 1899              		.size	colour_flag, 4
 1900              	colour_flag:
 1901 0004 01000000 		.word	1
 1902              		.type	puck_rack_west_offsets, %object
 1903              		.size	puck_rack_west_offsets, 20
 1904              	puck_rack_west_offsets:
 1905 0008 D0020000 		.word	720
 1906 000c 94020000 		.word	660
 1907 0010 58020000 		.word	600
 1908 0014 1C020000 		.word	540
 1909 0018 E0010000 		.word	480
 1910              		.section	.rodata.str1.4,"aMS",%progbits,1
 1911              		.align	2
 1912              	.LC0:
 1913 0000 42656769 		.ascii	"Beginning Navigation \012\000"
 1913      6E6E696E 
 1913      67204E61 
 1913      76696761 
 1913      74696F6E 
 1914 0017 00       		.space	1
 1915              	.LC1:
 1916 0018 55415254 		.ascii	"UART commencing... \012\000"
 1916      20636F6D 
 1916      6D656E63 
 1916      696E672E 
 1916      2E2E200A 
 1917 002d 000000   		.space	3
 1918              	.LC2:
 1919 0030 556C7472 		.ascii	"Ultrasonic Calibration tests: \012\000"
 1919      61736F6E 
ARM GAS  C:\Users\Blayke\AppData\Local\Temp\ccFauHWb.s 			page 51


 1919      69632043 
 1919      616C6962 
 1919      72617469 
 1920              	.LC3:
 1921 0050 466F756E 		.ascii	"Found Colours: \012\000"
 1921      6420436F 
 1921      6C6F7572 
 1921      733A200A 
 1921      00
 1922 0061 000000   		.space	3
 1923              	.LC4:
 1924 0064 2569200A 		.ascii	"%i \012\000"
 1924      00
 1925 0069 000000   		.space	3
 1926              	.LC5:
 1927 006c 64697374 		.ascii	"distance from robot to block: %d \011\000"
 1927      616E6365 
 1927      2066726F 
 1927      6D20726F 
 1927      626F7420 
 1928 008f 00       		.space	1
 1929              	.LC6:
 1930 0090 6E6F7274 		.ascii	"north: %d, \012\000"
 1930      683A2025 
 1930      642C200A 
 1930      00
 1931 009d 000000   		.space	3
 1932              	.LC7:
 1933 00a0 65617374 		.ascii	"east: %d, \012\000"
 1933      3A202564 
 1933      2C200A00 
 1934              	.LC8:
 1935 00ac 736F7574 		.ascii	"south: %d, \012\000"
 1935      683A2025 
 1935      642C200A 
 1935      00
 1936 00b9 000000   		.space	3
 1937              	.LC9:
 1938 00bc 77657374 		.ascii	"west: %d, \012\000"
 1938      3A202564 
 1938      2C200A00 
 1939              	.LC10:
 1940 00c8 25642009 		.ascii	"%d \011\000"
 1940      00
 1941 00cd 000000   		.space	3
 1942              	.LC11:
 1943 00d0 7075636B 		.ascii	"puck check: %d, \012\000"
 1943      20636865 
 1943      636B3A20 
 1943      25642C20 
 1943      0A00
 1944 00e2 0000     		.space	2
 1945              	.LC12:
 1946 00e4 65617374 		.ascii	"east puck: %d, \012\000"
 1946      20707563 
 1946      6B3A2025 
 1946      642C200A 
ARM GAS  C:\Users\Blayke\AppData\Local\Temp\ccFauHWb.s 			page 52


 1946      00
 1947 00f5 000000   		.space	3
 1948              	.LC13:
 1949 00f8 77657374 		.ascii	"west puck: %d, \012\000"
 1949      20707563 
 1949      6B3A2025 
 1949      642C200A 
 1949      00
 1950 0109 000000   		.space	3
 1951              	.LC14:
 1952 010c 65617374 		.ascii	"east block: %d, \012\000"
 1952      20626C6F 
 1952      636B3A20 
 1952      25642C20 
 1952      0A00
 1953 011e 0000     		.space	2
 1954              	.LC15:
 1955 0120 77657374 		.ascii	"west block: %d, \012\000"
 1955      20626C6F 
 1955      636B3A20 
 1955      25642C20 
 1955      0A00
 1956              		.bss
 1957              		.align	2
 1958              		.set	.LANCHOR0,. + 0
 1959              		.type	begin_navigation, %object
 1960              		.size	begin_navigation, 4
 1961              	begin_navigation:
 1962 0000 00000000 		.space	4
 1963              		.type	state, %object
 1964              		.size	state, 4
 1965              	state:
 1966 0004 00000000 		.space	4
 1967              		.type	idac_value, %object
 1968              		.size	idac_value, 4
 1969              	idac_value:
 1970 0008 00000000 		.space	4
 1971              		.type	colour_sensing_algorithm, %object
 1972              		.size	colour_sensing_algorithm, 4
 1973              	colour_sensing_algorithm:
 1974 000c 00000000 		.space	4
 1975              		.type	puck_construction_plan, %object
 1976              		.size	puck_construction_plan, 12
 1977              	puck_construction_plan:
 1978 0010 00000000 		.space	12
 1978      00000000 
 1978      00000000 
 1979              		.type	puck_rack_scans, %object
 1980              		.size	puck_rack_scans, 20
 1981              	puck_rack_scans:
 1982 001c 00000000 		.space	20
 1982      00000000 
 1982      00000000 
 1982      00000000 
 1982      00000000 
 1983              		.type	block_location, %object
 1984              		.size	block_location, 16
ARM GAS  C:\Users\Blayke\AppData\Local\Temp\ccFauHWb.s 			page 53


 1985              	block_location:
 1986 0030 00000000 		.space	16
 1986      00000000 
 1986      00000000 
 1986      00000000 
 1987              		.type	puck_location, %object
 1988              		.size	puck_location, 16
 1989              	puck_location:
 1990 0040 00000000 		.space	16
 1990      00000000 
 1990      00000000 
 1990      00000000 
 1991              		.type	block_east_clearance, %object
 1992              		.size	block_east_clearance, 2
 1993              	block_east_clearance:
 1994 0050 0000     		.space	2
 1995              		.type	block_west_clearance, %object
 1996              		.size	block_west_clearance, 2
 1997              	block_west_clearance:
 1998 0052 0000     		.space	2
 1999              		.type	puck_east_clearance, %object
 2000              		.size	puck_east_clearance, 2
 2001              	puck_east_clearance:
 2002 0054 0000     		.space	2
 2003              		.type	puck_west_clearance, %object
 2004              		.size	puck_west_clearance, 2
 2005              	puck_west_clearance:
 2006 0056 0000     		.space	2
 2007              		.type	current_puck_stack_size, %object
 2008              		.size	current_puck_stack_size, 4
 2009              	current_puck_stack_size:
 2010 0058 00000000 		.space	4
 2011              		.type	safety_override, %object
 2012              		.size	safety_override, 4
 2013              	safety_override:
 2014 005c 00000000 		.space	4
 2015              		.type	moving, %object
 2016              		.size	moving, 4
 2017              	moving:
 2018 0060 00000000 		.space	4
 2019              		.type	puck_temp_pile, %object
 2020              		.size	puck_temp_pile, 8
 2021              	puck_temp_pile:
 2022 0064 00000000 		.space	8
 2022      00000000 
 2023              		.type	block_edge_location, %object
 2024              		.size	block_edge_location, 16
 2025              	block_edge_location:
 2026 006c 00000000 		.space	16
 2026      00000000 
 2026      00000000 
 2026      00000000 
 2027              		.text
 2028              	.Letext0:
 2029              		.file 2 "d:\\program files (x86)\\cyprus\\psoc creator\\4.2\\psoc creator\\import\\gnu\\arm\\5.4.1
 2030              		.file 3 "d:\\program files (x86)\\cyprus\\psoc creator\\4.2\\psoc creator\\import\\gnu\\arm\\5.4.1
 2031              		.file 4 "Generated_Source\\PSoC5/core_cm3.h"
ARM GAS  C:\Users\Blayke\AppData\Local\Temp\ccFauHWb.s 			page 54


 2032              		.file 5 "navigation.h"
 2033              		.file 6 "ultrasonic.h"
 2034              		.file 7 "main.h"
 2035              		.file 8 "Generated_Source\\PSoC5/CyLib.h"
 2036              		.file 9 "Generated_Source\\PSoC5/UART_1.h"
 2037              		.file 10 "colour.h"
 2038              		.file 11 "d:\\program files (x86)\\cyprus\\psoc creator\\4.2\\psoc creator\\import\\gnu\\arm\\5.4.
 2039              		.file 12 "debugging.h"
 2040              		.file 13 "Generated_Source\\PSoC5/control_photodiode.h"
 2041              		.file 14 "motor.h"
 2042              		.file 15 "servo.h"
 2043              		.file 16 "Generated_Source\\PSoC5/TIA_1.h"
 2044              		.file 17 "Generated_Source\\PSoC5/ADC.h"
 2045              		.file 18 "Generated_Source\\PSoC5/IDAC8_1.h"
 2046              		.file 19 "Generated_Source\\PSoC5/control_led.h"
 2047              		.file 20 "Generated_Source\\PSoC5/Rack_Servo_PWM.h"
 2048              		.file 21 "Generated_Source\\PSoC5/Gripper_Servo_PWM.h"
 2049              		.file 22 "Generated_Source\\PSoC5/Motor_Left_Driver.h"
 2050              		.file 23 "Generated_Source\\PSoC5/Motor_Right_Driver.h"
 2051              		.file 24 "Generated_Source\\PSoC5/Motor_Left_Decoder.h"
 2052              		.file 25 "Generated_Source\\PSoC5/Motor_Right_Decoder.h"
 2053              		.file 26 "Generated_Source\\PSoC5/Timer_1.h"
 2054              		.file 27 "Generated_Source\\PSoC5/Sonic.h"
 2055              		.file 28 "Generated_Source\\PSoC5/Start.h"
 2056              		.file 29 "Generated_Source\\PSoC5/Timer_straight_adjust.h"
 2057              		.file 30 "Generated_Source\\PSoC5/Control_Reset_Straight.h"
 2058              		.section	.debug_info,"",%progbits
 2059              	.Ldebug_info0:
 2060 0000 CD1C0000 		.4byte	0x1ccd
 2061 0004 0400     		.2byte	0x4
 2062 0006 00000000 		.4byte	.Ldebug_abbrev0
 2063 000a 04       		.byte	0x4
 2064 000b 01       		.uleb128 0x1
 2065 000c 0C070000 		.4byte	.LASF102
 2066 0010 0C       		.byte	0xc
 2067 0011 0A060000 		.4byte	.LASF103
 2068 0015 15050000 		.4byte	.LASF104
 2069 0019 18000000 		.4byte	.Ldebug_ranges0+0x18
 2070 001d 00000000 		.4byte	0
 2071 0021 00000000 		.4byte	.Ldebug_line0
 2072 0025 02       		.uleb128 0x2
 2073 0026 01       		.byte	0x1
 2074 0027 06       		.byte	0x6
 2075 0028 47040000 		.4byte	.LASF0
 2076 002c 02       		.uleb128 0x2
 2077 002d 01       		.byte	0x1
 2078 002e 08       		.byte	0x8
 2079 002f 8C030000 		.4byte	.LASF1
 2080 0033 02       		.uleb128 0x2
 2081 0034 02       		.byte	0x2
 2082 0035 05       		.byte	0x5
 2083 0036 A5000000 		.4byte	.LASF2
 2084 003a 02       		.uleb128 0x2
 2085 003b 02       		.byte	0x2
 2086 003c 07       		.byte	0x7
 2087 003d D1050000 		.4byte	.LASF3
 2088 0041 03       		.uleb128 0x3
ARM GAS  C:\Users\Blayke\AppData\Local\Temp\ccFauHWb.s 			page 55


 2089 0042 91060000 		.4byte	.LASF9
 2090 0046 02       		.byte	0x2
 2091 0047 3F       		.byte	0x3f
 2092 0048 4C000000 		.4byte	0x4c
 2093 004c 02       		.uleb128 0x2
 2094 004d 04       		.byte	0x4
 2095 004e 05       		.byte	0x5
 2096 004f 9F020000 		.4byte	.LASF4
 2097 0053 02       		.uleb128 0x2
 2098 0054 04       		.byte	0x4
 2099 0055 07       		.byte	0x7
 2100 0056 A8040000 		.4byte	.LASF5
 2101 005a 02       		.uleb128 0x2
 2102 005b 08       		.byte	0x8
 2103 005c 05       		.byte	0x5
 2104 005d 51020000 		.4byte	.LASF6
 2105 0061 02       		.uleb128 0x2
 2106 0062 08       		.byte	0x8
 2107 0063 07       		.byte	0x7
 2108 0064 67040000 		.4byte	.LASF7
 2109 0068 04       		.uleb128 0x4
 2110 0069 04       		.byte	0x4
 2111 006a 05       		.byte	0x5
 2112 006b 696E7400 		.ascii	"int\000"
 2113 006f 02       		.uleb128 0x2
 2114 0070 04       		.byte	0x4
 2115 0071 07       		.byte	0x7
 2116 0072 90040000 		.4byte	.LASF8
 2117 0076 03       		.uleb128 0x3
 2118 0077 7F050000 		.4byte	.LASF10
 2119 007b 03       		.byte	0x3
 2120 007c 2C       		.byte	0x2c
 2121 007d 41000000 		.4byte	0x41
 2122 0081 02       		.uleb128 0x2
 2123 0082 04       		.byte	0x4
 2124 0083 04       		.byte	0x4
 2125 0084 38020000 		.4byte	.LASF11
 2126 0088 02       		.uleb128 0x2
 2127 0089 08       		.byte	0x8
 2128 008a 04       		.byte	0x4
 2129 008b 30060000 		.4byte	.LASF12
 2130 008f 02       		.uleb128 0x2
 2131 0090 01       		.byte	0x1
 2132 0091 08       		.byte	0x8
 2133 0092 10050000 		.4byte	.LASF13
 2134 0096 02       		.uleb128 0x2
 2135 0097 08       		.byte	0x8
 2136 0098 04       		.byte	0x4
 2137 0099 2E010000 		.4byte	.LASF14
 2138 009d 02       		.uleb128 0x2
 2139 009e 04       		.byte	0x4
 2140 009f 07       		.byte	0x7
 2141 00a0 B9060000 		.4byte	.LASF15
 2142 00a4 05       		.uleb128 0x5
 2143 00a5 54494800 		.ascii	"TIH\000"
 2144 00a9 01       		.byte	0x1
 2145 00aa 5F       		.byte	0x5f
ARM GAS  C:\Users\Blayke\AppData\Local\Temp\ccFauHWb.s 			page 56


 2146 00ab 00000000 		.4byte	.LFB64
 2147 00af 08000000 		.4byte	.LFE64-.LFB64
 2148 00b3 01       		.uleb128 0x1
 2149 00b4 9C       		.byte	0x9c
 2150 00b5 C3000000 		.4byte	0xc3
 2151 00b9 06       		.uleb128 0x6
 2152 00ba 06000000 		.4byte	.LVL0
 2153 00be B51A0000 		.4byte	0x1ab5
 2154 00c2 00       		.byte	0
 2155 00c3 07       		.uleb128 0x7
 2156 00c4 5D010000 		.4byte	.LASF16
 2157 00c8 01       		.byte	0x1
 2158 00c9 64       		.byte	0x64
 2159 00ca 00000000 		.4byte	.LFB65
 2160 00ce 24000000 		.4byte	.LFE65-.LFB65
 2161 00d2 01       		.uleb128 0x1
 2162 00d3 9C       		.byte	0x9c
 2163 00d4 00010000 		.4byte	0x100
 2164 00d8 08       		.uleb128 0x8
 2165 00d9 08000000 		.4byte	.LVL1
 2166 00dd C01A0000 		.4byte	0x1ac0
 2167 00e1 EC000000 		.4byte	0xec
 2168 00e5 09       		.uleb128 0x9
 2169 00e6 01       		.uleb128 0x1
 2170 00e7 50       		.byte	0x50
 2171 00e8 02       		.uleb128 0x2
 2172 00e9 08       		.byte	0x8
 2173 00ea 64       		.byte	0x64
 2174 00eb 00       		.byte	0
 2175 00ec 0A       		.uleb128 0xa
 2176 00ed 14000000 		.4byte	.LVL2
 2177 00f1 CB1A0000 		.4byte	0x1acb
 2178 00f5 09       		.uleb128 0x9
 2179 00f6 01       		.uleb128 0x1
 2180 00f7 50       		.byte	0x50
 2181 00f8 05       		.uleb128 0x5
 2182 00f9 03       		.byte	0x3
 2183 00fa 00000000 		.4byte	.LC0
 2184 00fe 00       		.byte	0
 2185 00ff 00       		.byte	0
 2186 0100 0B       		.uleb128 0xb
 2187 0101 7A050000 		.4byte	.LASF105
 2188 0105 01       		.byte	0x1
 2189 0106 6F       		.byte	0x6f
 2190 0107 68000000 		.4byte	0x68
 2191 010b 00000000 		.4byte	.LFB66
 2192 010f 5C0B0000 		.4byte	.LFE66-.LFB66
 2193 0113 01       		.uleb128 0x1
 2194 0114 9C       		.byte	0x9c
 2195 0115 6A180000 		.4byte	0x186a
 2196 0119 0C       		.uleb128 0xc
 2197 011a 5F020000 		.4byte	.LASF17
 2198 011e 01       		.byte	0x1
 2199 011f C0       		.byte	0xc0
 2200 0120 68000000 		.4byte	0x68
 2201 0124 00       		.byte	0
 2202 0125 0D       		.uleb128 0xd
ARM GAS  C:\Users\Blayke\AppData\Local\Temp\ccFauHWb.s 			page 57


 2203 0126 16010000 		.4byte	.LBB2
 2204 012a A0000000 		.4byte	.LBE2-.LBB2
 2205 012e 56020000 		.4byte	0x256
 2206 0132 0E       		.uleb128 0xe
 2207 0133 DD020000 		.4byte	.LASF18
 2208 0137 01       		.byte	0x1
 2209 0138 1201     		.2byte	0x112
 2210 013a 68000000 		.4byte	0x68
 2211 013e 00000000 		.4byte	.LLST0
 2212 0142 0D       		.uleb128 0xd
 2213 0143 3A010000 		.4byte	.LBB3
 2214 0147 1E000000 		.4byte	.LBE3-.LBB3
 2215 014b 77010000 		.4byte	0x177
 2216 014f 0F       		.uleb128 0xf
 2217 0150 6900     		.ascii	"i\000"
 2218 0152 01       		.byte	0x1
 2219 0153 FD       		.byte	0xfd
 2220 0154 68000000 		.4byte	0x68
 2221 0158 1F000000 		.4byte	.LLST1
 2222 015c 06       		.uleb128 0x6
 2223 015d 42010000 		.4byte	.LVL53
 2224 0161 D61A0000 		.4byte	0x1ad6
 2225 0165 0A       		.uleb128 0xa
 2226 0166 52010000 		.4byte	.LVL54
 2227 016a C01A0000 		.4byte	0x1ac0
 2228 016e 09       		.uleb128 0x9
 2229 016f 01       		.uleb128 0x1
 2230 0170 50       		.byte	0x50
 2231 0171 03       		.uleb128 0x3
 2232 0172 0A       		.byte	0xa
 2233 0173 F401     		.2byte	0x1f4
 2234 0175 00       		.byte	0
 2235 0176 00       		.byte	0
 2236 0177 0D       		.uleb128 0xd
 2237 0178 5E010000 		.4byte	.LBB4
 2238 017c 22000000 		.4byte	.LBE4-.LBB4
 2239 0180 C0010000 		.4byte	0x1c0
 2240 0184 10       		.uleb128 0x10
 2241 0185 6900     		.ascii	"i\000"
 2242 0187 01       		.byte	0x1
 2243 0188 0701     		.2byte	0x107
 2244 018a 68000000 		.4byte	0x68
 2245 018e 3E000000 		.4byte	.LLST2
 2246 0192 08       		.uleb128 0x8
 2247 0193 74010000 		.4byte	.LVL59
 2248 0197 E11A0000 		.4byte	0x1ae1
 2249 019b AF010000 		.4byte	0x1af
 2250 019f 09       		.uleb128 0x9
 2251 01a0 01       		.uleb128 0x1
 2252 01a1 50       		.byte	0x50
 2253 01a2 02       		.uleb128 0x2
 2254 01a3 75       		.byte	0x75
 2255 01a4 00       		.sleb128 0
 2256 01a5 09       		.uleb128 0x9
 2257 01a6 01       		.uleb128 0x1
 2258 01a7 51       		.byte	0x51
 2259 01a8 05       		.uleb128 0x5
ARM GAS  C:\Users\Blayke\AppData\Local\Temp\ccFauHWb.s 			page 58


 2260 01a9 03       		.byte	0x3
 2261 01aa 64000000 		.4byte	.LC4
 2262 01ae 00       		.byte	0
 2263 01af 0A       		.uleb128 0xa
 2264 01b0 7A010000 		.4byte	.LVL60
 2265 01b4 CB1A0000 		.4byte	0x1acb
 2266 01b8 09       		.uleb128 0x9
 2267 01b9 01       		.uleb128 0x1
 2268 01ba 50       		.byte	0x50
 2269 01bb 02       		.uleb128 0x2
 2270 01bc 75       		.byte	0x75
 2271 01bd 00       		.sleb128 0
 2272 01be 00       		.byte	0
 2273 01bf 00       		.byte	0
 2274 01c0 11       		.uleb128 0x11
 2275 01c1 00000000 		.4byte	.Ldebug_ranges0+0
 2276 01c5 DA010000 		.4byte	0x1da
 2277 01c9 0E       		.uleb128 0xe
 2278 01ca 48030000 		.4byte	.LASF19
 2279 01ce 01       		.byte	0x1
 2280 01cf 1501     		.2byte	0x115
 2281 01d1 68000000 		.4byte	0x68
 2282 01d5 5D000000 		.4byte	.LLST3
 2283 01d9 00       		.byte	0
 2284 01da 06       		.uleb128 0x6
 2285 01db 1A010000 		.4byte	.LVL48
 2286 01df EC1A0000 		.4byte	0x1aec
 2287 01e3 08       		.uleb128 0x8
 2288 01e4 20010000 		.4byte	.LVL49
 2289 01e8 F71A0000 		.4byte	0x1af7
 2290 01ec F6010000 		.4byte	0x1f6
 2291 01f0 09       		.uleb128 0x9
 2292 01f1 01       		.uleb128 0x1
 2293 01f2 50       		.byte	0x50
 2294 01f3 01       		.uleb128 0x1
 2295 01f4 37       		.byte	0x37
 2296 01f5 00       		.byte	0
 2297 01f6 08       		.uleb128 0x8
 2298 01f7 36010000 		.4byte	.LVL50
 2299 01fb 021B0000 		.4byte	0x1b02
 2300 01ff 26020000 		.4byte	0x226
 2301 0203 09       		.uleb128 0x9
 2302 0204 01       		.uleb128 0x1
 2303 0205 50       		.byte	0x50
 2304 0206 02       		.uleb128 0x2
 2305 0207 09       		.byte	0x9
 2306 0208 9C       		.byte	0x9c
 2307 0209 09       		.uleb128 0x9
 2308 020a 01       		.uleb128 0x1
 2309 020b 51       		.byte	0x51
 2310 020c 01       		.uleb128 0x1
 2311 020d 30       		.byte	0x30
 2312 020e 09       		.uleb128 0x9
 2313 020f 01       		.uleb128 0x1
 2314 0210 52       		.byte	0x52
 2315 0211 01       		.uleb128 0x1
 2316 0212 34       		.byte	0x34
ARM GAS  C:\Users\Blayke\AppData\Local\Temp\ccFauHWb.s 			page 59


 2317 0213 09       		.uleb128 0x9
 2318 0214 01       		.uleb128 0x1
 2319 0215 53       		.byte	0x53
 2320 0216 01       		.uleb128 0x1
 2321 0217 35       		.byte	0x35
 2322 0218 09       		.uleb128 0x9
 2323 0219 02       		.uleb128 0x2
 2324 021a 7D       		.byte	0x7d
 2325 021b 00       		.sleb128 0
 2326 021c 02       		.uleb128 0x2
 2327 021d 08       		.byte	0x8
 2328 021e C8       		.byte	0xc8
 2329 021f 09       		.uleb128 0x9
 2330 0220 02       		.uleb128 0x2
 2331 0221 7D       		.byte	0x7d
 2332 0222 04       		.sleb128 4
 2333 0223 01       		.uleb128 0x1
 2334 0224 31       		.byte	0x31
 2335 0225 00       		.byte	0
 2336 0226 06       		.uleb128 0x6
 2337 0227 3A010000 		.4byte	.LVL51
 2338 022b 0D1B0000 		.4byte	0x1b0d
 2339 022f 08       		.uleb128 0x8
 2340 0230 5E010000 		.4byte	.LVL56
 2341 0234 CB1A0000 		.4byte	0x1acb
 2342 0238 46020000 		.4byte	0x246
 2343 023c 09       		.uleb128 0x9
 2344 023d 01       		.uleb128 0x1
 2345 023e 50       		.byte	0x50
 2346 023f 05       		.uleb128 0x5
 2347 0240 03       		.byte	0x3
 2348 0241 50000000 		.4byte	.LC3
 2349 0245 00       		.byte	0
 2350 0246 0A       		.uleb128 0xa
 2351 0247 86010000 		.4byte	.LVL62
 2352 024b 181B0000 		.4byte	0x1b18
 2353 024f 09       		.uleb128 0x9
 2354 0250 01       		.uleb128 0x1
 2355 0251 50       		.byte	0x50
 2356 0252 01       		.uleb128 0x1
 2357 0253 31       		.byte	0x31
 2358 0254 00       		.byte	0
 2359 0255 00       		.byte	0
 2360 0256 0D       		.uleb128 0xd
 2361 0257 C0010000 		.4byte	.LBB7
 2362 025b 14040000 		.4byte	.LBE7-.LBB7
 2363 025f 540A0000 		.4byte	0xa54
 2364 0263 0E       		.uleb128 0xe
 2365 0264 64060000 		.4byte	.LASF20
 2366 0268 01       		.byte	0x1
 2367 0269 3D01     		.2byte	0x13d
 2368 026b 68000000 		.4byte	0x68
 2369 026f 7C000000 		.4byte	.LLST4
 2370 0273 0E       		.uleb128 0xe
 2371 0274 65010000 		.4byte	.LASF21
 2372 0278 01       		.byte	0x1
 2373 0279 C801     		.2byte	0x1c8
ARM GAS  C:\Users\Blayke\AppData\Local\Temp\ccFauHWb.s 			page 60


 2374 027b 68000000 		.4byte	0x68
 2375 027f 8F000000 		.4byte	.LLST5
 2376 0283 0D       		.uleb128 0xd
 2377 0284 18040000 		.4byte	.LBB8
 2378 0288 36000000 		.4byte	.LBE8-.LBB8
 2379 028c B7020000 		.4byte	0x2b7
 2380 0290 0E       		.uleb128 0xe
 2381 0291 D6020000 		.4byte	.LASF22
 2382 0295 01       		.byte	0x1
 2383 0296 E001     		.2byte	0x1e0
 2384 0298 68000000 		.4byte	0x68
 2385 029c A2000000 		.4byte	.LLST6
 2386 02a0 0A       		.uleb128 0xa
 2387 02a1 4E040000 		.4byte	.LVL124
 2388 02a5 231B0000 		.4byte	0x1b23
 2389 02a9 09       		.uleb128 0x9
 2390 02aa 01       		.uleb128 0x1
 2391 02ab 50       		.byte	0x50
 2392 02ac 01       		.uleb128 0x1
 2393 02ad 32       		.byte	0x32
 2394 02ae 09       		.uleb128 0x9
 2395 02af 01       		.uleb128 0x1
 2396 02b0 51       		.byte	0x51
 2397 02b1 03       		.uleb128 0x3
 2398 02b2 0A       		.byte	0xa
 2399 02b3 E803     		.2byte	0x3e8
 2400 02b5 00       		.byte	0
 2401 02b6 00       		.byte	0
 2402 02b7 0D       		.uleb128 0xd
 2403 02b8 50040000 		.4byte	.LBB9
 2404 02bc A8000000 		.4byte	.LBE9-.LBB9
 2405 02c0 14040000 		.4byte	0x414
 2406 02c4 0E       		.uleb128 0xe
 2407 02c5 D6020000 		.4byte	.LASF22
 2408 02c9 01       		.byte	0x1
 2409 02ca FA01     		.2byte	0x1fa
 2410 02cc 68000000 		.4byte	0x68
 2411 02d0 B5000000 		.4byte	.LLST7
 2412 02d4 08       		.uleb128 0x8
 2413 02d5 5A040000 		.4byte	.LVL125
 2414 02d9 231B0000 		.4byte	0x1b23
 2415 02dd EF020000 		.4byte	0x2ef
 2416 02e1 09       		.uleb128 0x9
 2417 02e2 01       		.uleb128 0x1
 2418 02e3 50       		.byte	0x50
 2419 02e4 02       		.uleb128 0x2
 2420 02e5 79       		.byte	0x79
 2421 02e6 00       		.sleb128 0
 2422 02e7 09       		.uleb128 0x9
 2423 02e8 01       		.uleb128 0x1
 2424 02e9 51       		.byte	0x51
 2425 02ea 03       		.uleb128 0x3
 2426 02eb 0A       		.byte	0xa
 2427 02ec E803     		.2byte	0x3e8
 2428 02ee 00       		.byte	0
 2429 02ef 08       		.uleb128 0x8
 2430 02f0 6E040000 		.4byte	.LVL127
ARM GAS  C:\Users\Blayke\AppData\Local\Temp\ccFauHWb.s 			page 61


 2431 02f4 021B0000 		.4byte	0x1b02
 2432 02f8 20030000 		.4byte	0x320
 2433 02fc 09       		.uleb128 0x9
 2434 02fd 01       		.uleb128 0x1
 2435 02fe 50       		.byte	0x50
 2436 02ff 02       		.uleb128 0x2
 2437 0300 7A       		.byte	0x7a
 2438 0301 00       		.sleb128 0
 2439 0302 09       		.uleb128 0x9
 2440 0303 01       		.uleb128 0x1
 2441 0304 51       		.byte	0x51
 2442 0305 01       		.uleb128 0x1
 2443 0306 30       		.byte	0x30
 2444 0307 09       		.uleb128 0x9
 2445 0308 01       		.uleb128 0x1
 2446 0309 52       		.byte	0x52
 2447 030a 01       		.uleb128 0x1
 2448 030b 34       		.byte	0x34
 2449 030c 09       		.uleb128 0x9
 2450 030d 01       		.uleb128 0x1
 2451 030e 53       		.byte	0x53
 2452 030f 01       		.uleb128 0x1
 2453 0310 35       		.byte	0x35
 2454 0311 09       		.uleb128 0x9
 2455 0312 02       		.uleb128 0x2
 2456 0313 7D       		.byte	0x7d
 2457 0314 00       		.sleb128 0
 2458 0315 02       		.uleb128 0x2
 2459 0316 7A       		.byte	0x7a
 2460 0317 00       		.sleb128 0
 2461 0318 09       		.uleb128 0x9
 2462 0319 02       		.uleb128 0x2
 2463 031a 7D       		.byte	0x7d
 2464 031b 04       		.sleb128 4
 2465 031c 02       		.uleb128 0x2
 2466 031d 79       		.byte	0x79
 2467 031e 00       		.sleb128 0
 2468 031f 00       		.byte	0
 2469 0320 08       		.uleb128 0x8
 2470 0321 76040000 		.4byte	.LVL128
 2471 0325 2E1B0000 		.4byte	0x1b2e
 2472 0329 39030000 		.4byte	0x339
 2473 032d 09       		.uleb128 0x9
 2474 032e 01       		.uleb128 0x1
 2475 032f 50       		.byte	0x50
 2476 0330 01       		.uleb128 0x1
 2477 0331 33       		.byte	0x33
 2478 0332 09       		.uleb128 0x9
 2479 0333 01       		.uleb128 0x1
 2480 0334 51       		.byte	0x51
 2481 0335 02       		.uleb128 0x2
 2482 0336 7A       		.byte	0x7a
 2483 0337 00       		.sleb128 0
 2484 0338 00       		.byte	0
 2485 0339 08       		.uleb128 0x8
 2486 033a 86040000 		.4byte	.LVL129
 2487 033e 021B0000 		.4byte	0x1b02
ARM GAS  C:\Users\Blayke\AppData\Local\Temp\ccFauHWb.s 			page 62


 2488 0342 6B030000 		.4byte	0x36b
 2489 0346 09       		.uleb128 0x9
 2490 0347 01       		.uleb128 0x1
 2491 0348 50       		.byte	0x50
 2492 0349 02       		.uleb128 0x2
 2493 034a 08       		.byte	0x8
 2494 034b 82       		.byte	0x82
 2495 034c 09       		.uleb128 0x9
 2496 034d 01       		.uleb128 0x1
 2497 034e 51       		.byte	0x51
 2498 034f 02       		.uleb128 0x2
 2499 0350 79       		.byte	0x79
 2500 0351 00       		.sleb128 0
 2501 0352 09       		.uleb128 0x9
 2502 0353 01       		.uleb128 0x1
 2503 0354 52       		.byte	0x52
 2504 0355 01       		.uleb128 0x1
 2505 0356 34       		.byte	0x34
 2506 0357 09       		.uleb128 0x9
 2507 0358 01       		.uleb128 0x1
 2508 0359 53       		.byte	0x53
 2509 035a 01       		.uleb128 0x1
 2510 035b 30       		.byte	0x30
 2511 035c 09       		.uleb128 0x9
 2512 035d 02       		.uleb128 0x2
 2513 035e 7D       		.byte	0x7d
 2514 035f 00       		.sleb128 0
 2515 0360 02       		.uleb128 0x2
 2516 0361 7A       		.byte	0x7a
 2517 0362 00       		.sleb128 0
 2518 0363 09       		.uleb128 0x9
 2519 0364 02       		.uleb128 0x2
 2520 0365 7D       		.byte	0x7d
 2521 0366 04       		.sleb128 4
 2522 0367 02       		.uleb128 0x2
 2523 0368 79       		.byte	0x79
 2524 0369 00       		.sleb128 0
 2525 036a 00       		.byte	0
 2526 036b 08       		.uleb128 0x8
 2527 036c 8C040000 		.4byte	.LVL130
 2528 0370 F71A0000 		.4byte	0x1af7
 2529 0374 7E030000 		.4byte	0x37e
 2530 0378 09       		.uleb128 0x9
 2531 0379 01       		.uleb128 0x1
 2532 037a 50       		.byte	0x50
 2533 037b 01       		.uleb128 0x1
 2534 037c 37       		.byte	0x37
 2535 037d 00       		.byte	0
 2536 037e 08       		.uleb128 0x8
 2537 037f 9C040000 		.4byte	.LVL131
 2538 0383 021B0000 		.4byte	0x1b02
 2539 0387 AF030000 		.4byte	0x3af
 2540 038b 09       		.uleb128 0x9
 2541 038c 01       		.uleb128 0x1
 2542 038d 50       		.byte	0x50
 2543 038e 02       		.uleb128 0x2
 2544 038f 76       		.byte	0x76
ARM GAS  C:\Users\Blayke\AppData\Local\Temp\ccFauHWb.s 			page 63


 2545 0390 00       		.sleb128 0
 2546 0391 09       		.uleb128 0x9
 2547 0392 01       		.uleb128 0x1
 2548 0393 51       		.byte	0x51
 2549 0394 01       		.uleb128 0x1
 2550 0395 30       		.byte	0x30
 2551 0396 09       		.uleb128 0x9
 2552 0397 01       		.uleb128 0x1
 2553 0398 52       		.byte	0x52
 2554 0399 01       		.uleb128 0x1
 2555 039a 34       		.byte	0x34
 2556 039b 09       		.uleb128 0x9
 2557 039c 01       		.uleb128 0x1
 2558 039d 53       		.byte	0x53
 2559 039e 01       		.uleb128 0x1
 2560 039f 33       		.byte	0x33
 2561 03a0 09       		.uleb128 0x9
 2562 03a1 02       		.uleb128 0x2
 2563 03a2 7D       		.byte	0x7d
 2564 03a3 00       		.sleb128 0
 2565 03a4 02       		.uleb128 0x2
 2566 03a5 7A       		.byte	0x7a
 2567 03a6 00       		.sleb128 0
 2568 03a7 09       		.uleb128 0x9
 2569 03a8 02       		.uleb128 0x2
 2570 03a9 7D       		.byte	0x7d
 2571 03aa 04       		.sleb128 4
 2572 03ab 02       		.uleb128 0x2
 2573 03ac 79       		.byte	0x79
 2574 03ad 00       		.sleb128 0
 2575 03ae 00       		.byte	0
 2576 03af 08       		.uleb128 0x8
 2577 03b0 A6040000 		.4byte	.LVL132
 2578 03b4 231B0000 		.4byte	0x1b23
 2579 03b8 C9030000 		.4byte	0x3c9
 2580 03bc 09       		.uleb128 0x9
 2581 03bd 01       		.uleb128 0x1
 2582 03be 50       		.byte	0x50
 2583 03bf 01       		.uleb128 0x1
 2584 03c0 32       		.byte	0x32
 2585 03c1 09       		.uleb128 0x9
 2586 03c2 01       		.uleb128 0x1
 2587 03c3 51       		.byte	0x51
 2588 03c4 03       		.uleb128 0x3
 2589 03c5 0A       		.byte	0xa
 2590 03c6 E803     		.2byte	0x3e8
 2591 03c8 00       		.byte	0
 2592 03c9 08       		.uleb128 0x8
 2593 03ca AC040000 		.4byte	.LVL133
 2594 03ce 391B0000 		.4byte	0x1b39
 2595 03d2 DC030000 		.4byte	0x3dc
 2596 03d6 09       		.uleb128 0x9
 2597 03d7 01       		.uleb128 0x1
 2598 03d8 50       		.byte	0x50
 2599 03d9 01       		.uleb128 0x1
 2600 03da 30       		.byte	0x30
 2601 03db 00       		.byte	0
ARM GAS  C:\Users\Blayke\AppData\Local\Temp\ccFauHWb.s 			page 64


 2602 03dc 08       		.uleb128 0x8
 2603 03dd B2040000 		.4byte	.LVL134
 2604 03e1 C01A0000 		.4byte	0x1ac0
 2605 03e5 F0030000 		.4byte	0x3f0
 2606 03e9 09       		.uleb128 0x9
 2607 03ea 01       		.uleb128 0x1
 2608 03eb 50       		.byte	0x50
 2609 03ec 02       		.uleb128 0x2
 2610 03ed 08       		.byte	0x8
 2611 03ee 3C       		.byte	0x3c
 2612 03ef 00       		.byte	0
 2613 03f0 08       		.uleb128 0x8
 2614 03f1 B8040000 		.4byte	.LVL135
 2615 03f5 391B0000 		.4byte	0x1b39
 2616 03f9 03040000 		.4byte	0x403
 2617 03fd 09       		.uleb128 0x9
 2618 03fe 01       		.uleb128 0x1
 2619 03ff 50       		.byte	0x50
 2620 0400 01       		.uleb128 0x1
 2621 0401 35       		.byte	0x35
 2622 0402 00       		.byte	0
 2623 0403 0A       		.uleb128 0xa
 2624 0404 BE040000 		.4byte	.LVL136
 2625 0408 C01A0000 		.4byte	0x1ac0
 2626 040c 09       		.uleb128 0x9
 2627 040d 01       		.uleb128 0x1
 2628 040e 50       		.byte	0x50
 2629 040f 02       		.uleb128 0x2
 2630 0410 08       		.byte	0x8
 2631 0411 3C       		.byte	0x3c
 2632 0412 00       		.byte	0
 2633 0413 00       		.byte	0
 2634 0414 06       		.uleb128 0x6
 2635 0415 C4010000 		.4byte	.LVL70
 2636 0419 EC1A0000 		.4byte	0x1aec
 2637 041d 08       		.uleb128 0x8
 2638 041e D2010000 		.4byte	.LVL71
 2639 0422 441B0000 		.4byte	0x1b44
 2640 0426 41040000 		.4byte	0x441
 2641 042a 09       		.uleb128 0x9
 2642 042b 01       		.uleb128 0x1
 2643 042c 50       		.byte	0x50
 2644 042d 01       		.uleb128 0x1
 2645 042e 49       		.byte	0x49
 2646 042f 09       		.uleb128 0x9
 2647 0430 01       		.uleb128 0x1
 2648 0431 51       		.byte	0x51
 2649 0432 02       		.uleb128 0x2
 2650 0433 09       		.byte	0x9
 2651 0434 DD       		.byte	0xdd
 2652 0435 09       		.uleb128 0x9
 2653 0436 01       		.uleb128 0x1
 2654 0437 52       		.byte	0x52
 2655 0438 02       		.uleb128 0x2
 2656 0439 08       		.byte	0x8
 2657 043a 64       		.byte	0x64
 2658 043b 09       		.uleb128 0x9
ARM GAS  C:\Users\Blayke\AppData\Local\Temp\ccFauHWb.s 			page 65


 2659 043c 01       		.uleb128 0x1
 2660 043d 53       		.byte	0x53
 2661 043e 01       		.uleb128 0x1
 2662 043f 30       		.byte	0x30
 2663 0440 00       		.byte	0
 2664 0441 08       		.uleb128 0x8
 2665 0442 D8010000 		.4byte	.LVL72
 2666 0446 F71A0000 		.4byte	0x1af7
 2667 044a 54040000 		.4byte	0x454
 2668 044e 09       		.uleb128 0x9
 2669 044f 01       		.uleb128 0x1
 2670 0450 50       		.byte	0x50
 2671 0451 01       		.uleb128 0x1
 2672 0452 37       		.byte	0x37
 2673 0453 00       		.byte	0
 2674 0454 08       		.uleb128 0x8
 2675 0455 EA010000 		.4byte	.LVL73
 2676 0459 021B0000 		.4byte	0x1b02
 2677 045d 84040000 		.4byte	0x484
 2678 0461 09       		.uleb128 0x9
 2679 0462 01       		.uleb128 0x1
 2680 0463 50       		.byte	0x50
 2681 0464 02       		.uleb128 0x2
 2682 0465 08       		.byte	0x8
 2683 0466 82       		.byte	0x82
 2684 0467 09       		.uleb128 0x9
 2685 0468 01       		.uleb128 0x1
 2686 0469 51       		.byte	0x51
 2687 046a 01       		.uleb128 0x1
 2688 046b 31       		.byte	0x31
 2689 046c 09       		.uleb128 0x9
 2690 046d 01       		.uleb128 0x1
 2691 046e 52       		.byte	0x52
 2692 046f 01       		.uleb128 0x1
 2693 0470 34       		.byte	0x34
 2694 0471 09       		.uleb128 0x9
 2695 0472 01       		.uleb128 0x1
 2696 0473 53       		.byte	0x53
 2697 0474 01       		.uleb128 0x1
 2698 0475 30       		.byte	0x30
 2699 0476 09       		.uleb128 0x9
 2700 0477 02       		.uleb128 0x2
 2701 0478 7D       		.byte	0x7d
 2702 0479 00       		.sleb128 0
 2703 047a 02       		.uleb128 0x2
 2704 047b 08       		.byte	0x8
 2705 047c C8       		.byte	0xc8
 2706 047d 09       		.uleb128 0x9
 2707 047e 02       		.uleb128 0x2
 2708 047f 7D       		.byte	0x7d
 2709 0480 04       		.sleb128 4
 2710 0481 01       		.uleb128 0x1
 2711 0482 31       		.byte	0x31
 2712 0483 00       		.byte	0
 2713 0484 08       		.uleb128 0x8
 2714 0485 F0010000 		.4byte	.LVL74
 2715 0489 F71A0000 		.4byte	0x1af7
ARM GAS  C:\Users\Blayke\AppData\Local\Temp\ccFauHWb.s 			page 66


 2716 048d 97040000 		.4byte	0x497
 2717 0491 09       		.uleb128 0x9
 2718 0492 01       		.uleb128 0x1
 2719 0493 50       		.byte	0x50
 2720 0494 01       		.uleb128 0x1
 2721 0495 37       		.byte	0x37
 2722 0496 00       		.byte	0
 2723 0497 08       		.uleb128 0x8
 2724 0498 F6010000 		.4byte	.LVL75
 2725 049c 391B0000 		.4byte	0x1b39
 2726 04a0 AA040000 		.4byte	0x4aa
 2727 04a4 09       		.uleb128 0x9
 2728 04a5 01       		.uleb128 0x1
 2729 04a6 50       		.byte	0x50
 2730 04a7 01       		.uleb128 0x1
 2731 04a8 32       		.byte	0x32
 2732 04a9 00       		.byte	0
 2733 04aa 08       		.uleb128 0x8
 2734 04ab FE010000 		.4byte	.LVL76
 2735 04af 391B0000 		.4byte	0x1b39
 2736 04b3 BD040000 		.4byte	0x4bd
 2737 04b7 09       		.uleb128 0x9
 2738 04b8 01       		.uleb128 0x1
 2739 04b9 50       		.byte	0x50
 2740 04ba 01       		.uleb128 0x1
 2741 04bb 32       		.byte	0x32
 2742 04bc 00       		.byte	0
 2743 04bd 08       		.uleb128 0x8
 2744 04be 1A020000 		.4byte	.LVL78
 2745 04c2 E11A0000 		.4byte	0x1ae1
 2746 04c6 E0040000 		.4byte	0x4e0
 2747 04ca 09       		.uleb128 0x9
 2748 04cb 01       		.uleb128 0x1
 2749 04cc 50       		.byte	0x50
 2750 04cd 02       		.uleb128 0x2
 2751 04ce 74       		.byte	0x74
 2752 04cf 00       		.sleb128 0
 2753 04d0 09       		.uleb128 0x9
 2754 04d1 01       		.uleb128 0x1
 2755 04d2 51       		.byte	0x51
 2756 04d3 05       		.uleb128 0x5
 2757 04d4 03       		.byte	0x3
 2758 04d5 6C000000 		.4byte	.LC5
 2759 04d9 09       		.uleb128 0x9
 2760 04da 01       		.uleb128 0x1
 2761 04db 52       		.byte	0x52
 2762 04dc 02       		.uleb128 0x2
 2763 04dd 75       		.byte	0x75
 2764 04de 00       		.sleb128 0
 2765 04df 00       		.byte	0
 2766 04e0 08       		.uleb128 0x8
 2767 04e1 20020000 		.4byte	.LVL79
 2768 04e5 CB1A0000 		.4byte	0x1acb
 2769 04e9 F4040000 		.4byte	0x4f4
 2770 04ed 09       		.uleb128 0x9
 2771 04ee 01       		.uleb128 0x1
 2772 04ef 50       		.byte	0x50
ARM GAS  C:\Users\Blayke\AppData\Local\Temp\ccFauHWb.s 			page 67


 2773 04f0 02       		.uleb128 0x2
 2774 04f1 74       		.byte	0x74
 2775 04f2 00       		.sleb128 0
 2776 04f3 00       		.byte	0
 2777 04f4 08       		.uleb128 0x8
 2778 04f5 34020000 		.4byte	.LVL80
 2779 04f9 021B0000 		.4byte	0x1b02
 2780 04fd 24050000 		.4byte	0x524
 2781 0501 09       		.uleb128 0x9
 2782 0502 01       		.uleb128 0x1
 2783 0503 50       		.byte	0x50
 2784 0504 02       		.uleb128 0x2
 2785 0505 75       		.byte	0x75
 2786 0506 00       		.sleb128 0
 2787 0507 09       		.uleb128 0x9
 2788 0508 01       		.uleb128 0x1
 2789 0509 51       		.byte	0x51
 2790 050a 01       		.uleb128 0x1
 2791 050b 30       		.byte	0x30
 2792 050c 09       		.uleb128 0x9
 2793 050d 01       		.uleb128 0x1
 2794 050e 52       		.byte	0x52
 2795 050f 01       		.uleb128 0x1
 2796 0510 34       		.byte	0x34
 2797 0511 09       		.uleb128 0x9
 2798 0512 01       		.uleb128 0x1
 2799 0513 53       		.byte	0x53
 2800 0514 01       		.uleb128 0x1
 2801 0515 33       		.byte	0x33
 2802 0516 09       		.uleb128 0x9
 2803 0517 02       		.uleb128 0x2
 2804 0518 7D       		.byte	0x7d
 2805 0519 00       		.sleb128 0
 2806 051a 02       		.uleb128 0x2
 2807 051b 08       		.byte	0x8
 2808 051c C8       		.byte	0xc8
 2809 051d 09       		.uleb128 0x9
 2810 051e 02       		.uleb128 0x2
 2811 051f 7D       		.byte	0x7d
 2812 0520 04       		.sleb128 4
 2813 0521 01       		.uleb128 0x1
 2814 0522 31       		.byte	0x31
 2815 0523 00       		.byte	0
 2816 0524 08       		.uleb128 0x8
 2817 0525 3E020000 		.4byte	.LVL81
 2818 0529 231B0000 		.4byte	0x1b23
 2819 052d 3E050000 		.4byte	0x53e
 2820 0531 09       		.uleb128 0x9
 2821 0532 01       		.uleb128 0x1
 2822 0533 50       		.byte	0x50
 2823 0534 01       		.uleb128 0x1
 2824 0535 32       		.byte	0x32
 2825 0536 09       		.uleb128 0x9
 2826 0537 01       		.uleb128 0x1
 2827 0538 51       		.byte	0x51
 2828 0539 03       		.uleb128 0x3
 2829 053a 0A       		.byte	0xa
ARM GAS  C:\Users\Blayke\AppData\Local\Temp\ccFauHWb.s 			page 68


 2830 053b E803     		.2byte	0x3e8
 2831 053d 00       		.byte	0
 2832 053e 08       		.uleb128 0x8
 2833 053f 44020000 		.4byte	.LVL82
 2834 0543 F71A0000 		.4byte	0x1af7
 2835 0547 51050000 		.4byte	0x551
 2836 054b 09       		.uleb128 0x9
 2837 054c 01       		.uleb128 0x1
 2838 054d 50       		.byte	0x50
 2839 054e 01       		.uleb128 0x1
 2840 054f 37       		.byte	0x37
 2841 0550 00       		.byte	0
 2842 0551 08       		.uleb128 0x8
 2843 0552 4A020000 		.4byte	.LVL83
 2844 0556 391B0000 		.4byte	0x1b39
 2845 055a 64050000 		.4byte	0x564
 2846 055e 09       		.uleb128 0x9
 2847 055f 01       		.uleb128 0x1
 2848 0560 50       		.byte	0x50
 2849 0561 01       		.uleb128 0x1
 2850 0562 30       		.byte	0x30
 2851 0563 00       		.byte	0
 2852 0564 08       		.uleb128 0x8
 2853 0565 50020000 		.4byte	.LVL84
 2854 0569 C01A0000 		.4byte	0x1ac0
 2855 056d 78050000 		.4byte	0x578
 2856 0571 09       		.uleb128 0x9
 2857 0572 01       		.uleb128 0x1
 2858 0573 50       		.byte	0x50
 2859 0574 02       		.uleb128 0x2
 2860 0575 08       		.byte	0x8
 2861 0576 3C       		.byte	0x3c
 2862 0577 00       		.byte	0
 2863 0578 08       		.uleb128 0x8
 2864 0579 60020000 		.4byte	.LVL85
 2865 057d 391B0000 		.4byte	0x1b39
 2866 0581 8B050000 		.4byte	0x58b
 2867 0585 09       		.uleb128 0x9
 2868 0586 01       		.uleb128 0x1
 2869 0587 50       		.byte	0x50
 2870 0588 01       		.uleb128 0x1
 2871 0589 33       		.byte	0x33
 2872 058a 00       		.byte	0
 2873 058b 08       		.uleb128 0x8
 2874 058c 66020000 		.4byte	.LVL86
 2875 0590 C01A0000 		.4byte	0x1ac0
 2876 0594 9F050000 		.4byte	0x59f
 2877 0598 09       		.uleb128 0x9
 2878 0599 01       		.uleb128 0x1
 2879 059a 50       		.byte	0x50
 2880 059b 02       		.uleb128 0x2
 2881 059c 08       		.byte	0x8
 2882 059d 3C       		.byte	0x3c
 2883 059e 00       		.byte	0
 2884 059f 08       		.uleb128 0x8
 2885 05a0 6C020000 		.4byte	.LVL87
 2886 05a4 391B0000 		.4byte	0x1b39
ARM GAS  C:\Users\Blayke\AppData\Local\Temp\ccFauHWb.s 			page 69


 2887 05a8 B2050000 		.4byte	0x5b2
 2888 05ac 09       		.uleb128 0x9
 2889 05ad 01       		.uleb128 0x1
 2890 05ae 50       		.byte	0x50
 2891 05af 01       		.uleb128 0x1
 2892 05b0 32       		.byte	0x32
 2893 05b1 00       		.byte	0
 2894 05b2 08       		.uleb128 0x8
 2895 05b3 72020000 		.4byte	.LVL88
 2896 05b7 C01A0000 		.4byte	0x1ac0
 2897 05bb C6050000 		.4byte	0x5c6
 2898 05bf 09       		.uleb128 0x9
 2899 05c0 01       		.uleb128 0x1
 2900 05c1 50       		.byte	0x50
 2901 05c2 02       		.uleb128 0x2
 2902 05c3 08       		.byte	0x8
 2903 05c4 3C       		.byte	0x3c
 2904 05c5 00       		.byte	0
 2905 05c6 08       		.uleb128 0x8
 2906 05c7 8E020000 		.4byte	.LVL89
 2907 05cb 4F1B0000 		.4byte	0x1b4f
 2908 05cf E5050000 		.4byte	0x5e5
 2909 05d3 09       		.uleb128 0x9
 2910 05d4 01       		.uleb128 0x1
 2911 05d5 50       		.byte	0x50
 2912 05d6 02       		.uleb128 0x2
 2913 05d7 09       		.byte	0x9
 2914 05d8 D3       		.byte	0xd3
 2915 05d9 09       		.uleb128 0x9
 2916 05da 01       		.uleb128 0x1
 2917 05db 51       		.byte	0x51
 2918 05dc 02       		.uleb128 0x2
 2919 05dd 08       		.byte	0x8
 2920 05de C8       		.byte	0xc8
 2921 05df 09       		.uleb128 0x9
 2922 05e0 01       		.uleb128 0x1
 2923 05e1 52       		.byte	0x52
 2924 05e2 01       		.uleb128 0x1
 2925 05e3 31       		.byte	0x31
 2926 05e4 00       		.byte	0
 2927 05e5 08       		.uleb128 0x8
 2928 05e6 94020000 		.4byte	.LVL90
 2929 05ea 391B0000 		.4byte	0x1b39
 2930 05ee F8050000 		.4byte	0x5f8
 2931 05f2 09       		.uleb128 0x9
 2932 05f3 01       		.uleb128 0x1
 2933 05f4 50       		.byte	0x50
 2934 05f5 01       		.uleb128 0x1
 2935 05f6 33       		.byte	0x33
 2936 05f7 00       		.byte	0
 2937 05f8 08       		.uleb128 0x8
 2938 05f9 9A020000 		.4byte	.LVL91
 2939 05fd C01A0000 		.4byte	0x1ac0
 2940 0601 0C060000 		.4byte	0x60c
 2941 0605 09       		.uleb128 0x9
 2942 0606 01       		.uleb128 0x1
 2943 0607 50       		.byte	0x50
ARM GAS  C:\Users\Blayke\AppData\Local\Temp\ccFauHWb.s 			page 70


 2944 0608 02       		.uleb128 0x2
 2945 0609 08       		.byte	0x8
 2946 060a 3C       		.byte	0x3c
 2947 060b 00       		.byte	0
 2948 060c 08       		.uleb128 0x8
 2949 060d A0020000 		.4byte	.LVL92
 2950 0611 391B0000 		.4byte	0x1b39
 2951 0615 1F060000 		.4byte	0x61f
 2952 0619 09       		.uleb128 0x9
 2953 061a 01       		.uleb128 0x1
 2954 061b 50       		.byte	0x50
 2955 061c 01       		.uleb128 0x1
 2956 061d 32       		.byte	0x32
 2957 061e 00       		.byte	0
 2958 061f 08       		.uleb128 0x8
 2959 0620 A6020000 		.4byte	.LVL93
 2960 0624 C01A0000 		.4byte	0x1ac0
 2961 0628 33060000 		.4byte	0x633
 2962 062c 09       		.uleb128 0x9
 2963 062d 01       		.uleb128 0x1
 2964 062e 50       		.byte	0x50
 2965 062f 02       		.uleb128 0x2
 2966 0630 08       		.byte	0x8
 2967 0631 3C       		.byte	0x3c
 2968 0632 00       		.byte	0
 2969 0633 08       		.uleb128 0x8
 2970 0634 C6020000 		.4byte	.LVL94
 2971 0638 021B0000 		.4byte	0x1b02
 2972 063c 63060000 		.4byte	0x663
 2973 0640 09       		.uleb128 0x9
 2974 0641 01       		.uleb128 0x1
 2975 0642 50       		.byte	0x50
 2976 0643 02       		.uleb128 0x2
 2977 0644 75       		.byte	0x75
 2978 0645 00       		.sleb128 0
 2979 0646 09       		.uleb128 0x9
 2980 0647 01       		.uleb128 0x1
 2981 0648 51       		.byte	0x51
 2982 0649 01       		.uleb128 0x1
 2983 064a 30       		.byte	0x30
 2984 064b 09       		.uleb128 0x9
 2985 064c 01       		.uleb128 0x1
 2986 064d 52       		.byte	0x52
 2987 064e 01       		.uleb128 0x1
 2988 064f 35       		.byte	0x35
 2989 0650 09       		.uleb128 0x9
 2990 0651 01       		.uleb128 0x1
 2991 0652 53       		.byte	0x53
 2992 0653 01       		.uleb128 0x1
 2993 0654 33       		.byte	0x33
 2994 0655 09       		.uleb128 0x9
 2995 0656 02       		.uleb128 0x2
 2996 0657 7D       		.byte	0x7d
 2997 0658 00       		.sleb128 0
 2998 0659 02       		.uleb128 0x2
 2999 065a 08       		.byte	0x8
 3000 065b C8       		.byte	0xc8
ARM GAS  C:\Users\Blayke\AppData\Local\Temp\ccFauHWb.s 			page 71


 3001 065c 09       		.uleb128 0x9
 3002 065d 02       		.uleb128 0x2
 3003 065e 7D       		.byte	0x7d
 3004 065f 04       		.sleb128 4
 3005 0660 01       		.uleb128 0x1
 3006 0661 31       		.byte	0x31
 3007 0662 00       		.byte	0
 3008 0663 08       		.uleb128 0x8
 3009 0664 D0020000 		.4byte	.LVL95
 3010 0668 231B0000 		.4byte	0x1b23
 3011 066c 7D060000 		.4byte	0x67d
 3012 0670 09       		.uleb128 0x9
 3013 0671 01       		.uleb128 0x1
 3014 0672 50       		.byte	0x50
 3015 0673 01       		.uleb128 0x1
 3016 0674 32       		.byte	0x32
 3017 0675 09       		.uleb128 0x9
 3018 0676 01       		.uleb128 0x1
 3019 0677 51       		.byte	0x51
 3020 0678 03       		.uleb128 0x3
 3021 0679 0A       		.byte	0xa
 3022 067a E803     		.2byte	0x3e8
 3023 067c 00       		.byte	0
 3024 067d 08       		.uleb128 0x8
 3025 067e 3A030000 		.4byte	.LVL96
 3026 0682 E11A0000 		.4byte	0x1ae1
 3027 0686 9A060000 		.4byte	0x69a
 3028 068a 09       		.uleb128 0x9
 3029 068b 01       		.uleb128 0x1
 3030 068c 50       		.byte	0x50
 3031 068d 02       		.uleb128 0x2
 3032 068e 74       		.byte	0x74
 3033 068f 00       		.sleb128 0
 3034 0690 09       		.uleb128 0x9
 3035 0691 01       		.uleb128 0x1
 3036 0692 51       		.byte	0x51
 3037 0693 05       		.uleb128 0x5
 3038 0694 03       		.byte	0x3
 3039 0695 90000000 		.4byte	.LC6
 3040 0699 00       		.byte	0
 3041 069a 08       		.uleb128 0x8
 3042 069b 40030000 		.4byte	.LVL97
 3043 069f CB1A0000 		.4byte	0x1acb
 3044 06a3 AE060000 		.4byte	0x6ae
 3045 06a7 09       		.uleb128 0x9
 3046 06a8 01       		.uleb128 0x1
 3047 06a9 50       		.byte	0x50
 3048 06aa 02       		.uleb128 0x2
 3049 06ab 74       		.byte	0x74
 3050 06ac 00       		.sleb128 0
 3051 06ad 00       		.byte	0
 3052 06ae 08       		.uleb128 0x8
 3053 06af 4A030000 		.4byte	.LVL98
 3054 06b3 E11A0000 		.4byte	0x1ae1
 3055 06b7 CB060000 		.4byte	0x6cb
 3056 06bb 09       		.uleb128 0x9
 3057 06bc 01       		.uleb128 0x1
ARM GAS  C:\Users\Blayke\AppData\Local\Temp\ccFauHWb.s 			page 72


 3058 06bd 50       		.byte	0x50
 3059 06be 02       		.uleb128 0x2
 3060 06bf 74       		.byte	0x74
 3061 06c0 00       		.sleb128 0
 3062 06c1 09       		.uleb128 0x9
 3063 06c2 01       		.uleb128 0x1
 3064 06c3 51       		.byte	0x51
 3065 06c4 05       		.uleb128 0x5
 3066 06c5 03       		.byte	0x3
 3067 06c6 A0000000 		.4byte	.LC7
 3068 06ca 00       		.byte	0
 3069 06cb 08       		.uleb128 0x8
 3070 06cc 50030000 		.4byte	.LVL99
 3071 06d0 CB1A0000 		.4byte	0x1acb
 3072 06d4 DF060000 		.4byte	0x6df
 3073 06d8 09       		.uleb128 0x9
 3074 06d9 01       		.uleb128 0x1
 3075 06da 50       		.byte	0x50
 3076 06db 02       		.uleb128 0x2
 3077 06dc 74       		.byte	0x74
 3078 06dd 00       		.sleb128 0
 3079 06de 00       		.byte	0
 3080 06df 08       		.uleb128 0x8
 3081 06e0 5A030000 		.4byte	.LVL100
 3082 06e4 E11A0000 		.4byte	0x1ae1
 3083 06e8 FC060000 		.4byte	0x6fc
 3084 06ec 09       		.uleb128 0x9
 3085 06ed 01       		.uleb128 0x1
 3086 06ee 50       		.byte	0x50
 3087 06ef 02       		.uleb128 0x2
 3088 06f0 74       		.byte	0x74
 3089 06f1 00       		.sleb128 0
 3090 06f2 09       		.uleb128 0x9
 3091 06f3 01       		.uleb128 0x1
 3092 06f4 51       		.byte	0x51
 3093 06f5 05       		.uleb128 0x5
 3094 06f6 03       		.byte	0x3
 3095 06f7 AC000000 		.4byte	.LC8
 3096 06fb 00       		.byte	0
 3097 06fc 08       		.uleb128 0x8
 3098 06fd 60030000 		.4byte	.LVL101
 3099 0701 CB1A0000 		.4byte	0x1acb
 3100 0705 10070000 		.4byte	0x710
 3101 0709 09       		.uleb128 0x9
 3102 070a 01       		.uleb128 0x1
 3103 070b 50       		.byte	0x50
 3104 070c 02       		.uleb128 0x2
 3105 070d 74       		.byte	0x74
 3106 070e 00       		.sleb128 0
 3107 070f 00       		.byte	0
 3108 0710 08       		.uleb128 0x8
 3109 0711 6A030000 		.4byte	.LVL102
 3110 0715 E11A0000 		.4byte	0x1ae1
 3111 0719 2D070000 		.4byte	0x72d
 3112 071d 09       		.uleb128 0x9
 3113 071e 01       		.uleb128 0x1
 3114 071f 50       		.byte	0x50
ARM GAS  C:\Users\Blayke\AppData\Local\Temp\ccFauHWb.s 			page 73


 3115 0720 02       		.uleb128 0x2
 3116 0721 74       		.byte	0x74
 3117 0722 00       		.sleb128 0
 3118 0723 09       		.uleb128 0x9
 3119 0724 01       		.uleb128 0x1
 3120 0725 51       		.byte	0x51
 3121 0726 05       		.uleb128 0x5
 3122 0727 03       		.byte	0x3
 3123 0728 BC000000 		.4byte	.LC9
 3124 072c 00       		.byte	0
 3125 072d 08       		.uleb128 0x8
 3126 072e 70030000 		.4byte	.LVL103
 3127 0732 CB1A0000 		.4byte	0x1acb
 3128 0736 41070000 		.4byte	0x741
 3129 073a 09       		.uleb128 0x9
 3130 073b 01       		.uleb128 0x1
 3131 073c 50       		.byte	0x50
 3132 073d 02       		.uleb128 0x2
 3133 073e 74       		.byte	0x74
 3134 073f 00       		.sleb128 0
 3135 0740 00       		.byte	0
 3136 0741 08       		.uleb128 0x8
 3137 0742 78030000 		.4byte	.LVL104
 3138 0746 2E1B0000 		.4byte	0x1b2e
 3139 074a 5A070000 		.4byte	0x75a
 3140 074e 09       		.uleb128 0x9
 3141 074f 01       		.uleb128 0x1
 3142 0750 50       		.byte	0x50
 3143 0751 01       		.uleb128 0x1
 3144 0752 31       		.byte	0x31
 3145 0753 09       		.uleb128 0x9
 3146 0754 01       		.uleb128 0x1
 3147 0755 51       		.byte	0x51
 3148 0756 02       		.uleb128 0x2
 3149 0757 08       		.byte	0x8
 3150 0758 C8       		.byte	0xc8
 3151 0759 00       		.byte	0
 3152 075a 08       		.uleb128 0x8
 3153 075b 94030000 		.4byte	.LVL105
 3154 075f 021B0000 		.4byte	0x1b02
 3155 0763 8C070000 		.4byte	0x78c
 3156 0767 09       		.uleb128 0x9
 3157 0768 01       		.uleb128 0x1
 3158 0769 50       		.byte	0x50
 3159 076a 02       		.uleb128 0x2
 3160 076b 08       		.byte	0x8
 3161 076c 96       		.byte	0x96
 3162 076d 09       		.uleb128 0x9
 3163 076e 01       		.uleb128 0x1
 3164 076f 51       		.byte	0x51
 3165 0770 02       		.uleb128 0x2
 3166 0771 79       		.byte	0x79
 3167 0772 00       		.sleb128 0
 3168 0773 09       		.uleb128 0x9
 3169 0774 01       		.uleb128 0x1
 3170 0775 52       		.byte	0x52
 3171 0776 01       		.uleb128 0x1
ARM GAS  C:\Users\Blayke\AppData\Local\Temp\ccFauHWb.s 			page 74


 3172 0777 34       		.byte	0x34
 3173 0778 09       		.uleb128 0x9
 3174 0779 01       		.uleb128 0x1
 3175 077a 53       		.byte	0x53
 3176 077b 01       		.uleb128 0x1
 3177 077c 30       		.byte	0x30
 3178 077d 09       		.uleb128 0x9
 3179 077e 02       		.uleb128 0x2
 3180 077f 7D       		.byte	0x7d
 3181 0780 00       		.sleb128 0
 3182 0781 02       		.uleb128 0x2
 3183 0782 7A       		.byte	0x7a
 3184 0783 00       		.sleb128 0
 3185 0784 09       		.uleb128 0x9
 3186 0785 02       		.uleb128 0x2
 3187 0786 7D       		.byte	0x7d
 3188 0787 04       		.sleb128 4
 3189 0788 02       		.uleb128 0x2
 3190 0789 79       		.byte	0x79
 3191 078a 00       		.sleb128 0
 3192 078b 00       		.byte	0
 3193 078c 08       		.uleb128 0x8
 3194 078d 9A030000 		.4byte	.LVL106
 3195 0791 F71A0000 		.4byte	0x1af7
 3196 0795 9F070000 		.4byte	0x79f
 3197 0799 09       		.uleb128 0x9
 3198 079a 01       		.uleb128 0x1
 3199 079b 50       		.byte	0x50
 3200 079c 01       		.uleb128 0x1
 3201 079d 37       		.byte	0x37
 3202 079e 00       		.byte	0
 3203 079f 08       		.uleb128 0x8
 3204 07a0 A0030000 		.4byte	.LVL107
 3205 07a4 391B0000 		.4byte	0x1b39
 3206 07a8 B2070000 		.4byte	0x7b2
 3207 07ac 09       		.uleb128 0x9
 3208 07ad 01       		.uleb128 0x1
 3209 07ae 50       		.byte	0x50
 3210 07af 01       		.uleb128 0x1
 3211 07b0 33       		.byte	0x33
 3212 07b1 00       		.byte	0
 3213 07b2 08       		.uleb128 0x8
 3214 07b3 A6030000 		.4byte	.LVL108
 3215 07b7 C01A0000 		.4byte	0x1ac0
 3216 07bb C6070000 		.4byte	0x7c6
 3217 07bf 09       		.uleb128 0x9
 3218 07c0 01       		.uleb128 0x1
 3219 07c1 50       		.byte	0x50
 3220 07c2 02       		.uleb128 0x2
 3221 07c3 08       		.byte	0x8
 3222 07c4 32       		.byte	0x32
 3223 07c5 00       		.byte	0
 3224 07c6 08       		.uleb128 0x8
 3225 07c7 B6030000 		.4byte	.LVL109
 3226 07cb E11A0000 		.4byte	0x1ae1
 3227 07cf E3070000 		.4byte	0x7e3
 3228 07d3 09       		.uleb128 0x9
ARM GAS  C:\Users\Blayke\AppData\Local\Temp\ccFauHWb.s 			page 75


 3229 07d4 01       		.uleb128 0x1
 3230 07d5 50       		.byte	0x50
 3231 07d6 02       		.uleb128 0x2
 3232 07d7 74       		.byte	0x74
 3233 07d8 00       		.sleb128 0
 3234 07d9 09       		.uleb128 0x9
 3235 07da 01       		.uleb128 0x1
 3236 07db 51       		.byte	0x51
 3237 07dc 05       		.uleb128 0x5
 3238 07dd 03       		.byte	0x3
 3239 07de C8000000 		.4byte	.LC10
 3240 07e2 00       		.byte	0
 3241 07e3 08       		.uleb128 0x8
 3242 07e4 BC030000 		.4byte	.LVL110
 3243 07e8 CB1A0000 		.4byte	0x1acb
 3244 07ec F7070000 		.4byte	0x7f7
 3245 07f0 09       		.uleb128 0x9
 3246 07f1 01       		.uleb128 0x1
 3247 07f2 50       		.byte	0x50
 3248 07f3 02       		.uleb128 0x2
 3249 07f4 74       		.byte	0x74
 3250 07f5 00       		.sleb128 0
 3251 07f6 00       		.byte	0
 3252 07f7 08       		.uleb128 0x8
 3253 07f8 D0030000 		.4byte	.LVL112
 3254 07fc E11A0000 		.4byte	0x1ae1
 3255 0800 1A080000 		.4byte	0x81a
 3256 0804 09       		.uleb128 0x9
 3257 0805 01       		.uleb128 0x1
 3258 0806 50       		.byte	0x50
 3259 0807 02       		.uleb128 0x2
 3260 0808 74       		.byte	0x74
 3261 0809 00       		.sleb128 0
 3262 080a 09       		.uleb128 0x9
 3263 080b 01       		.uleb128 0x1
 3264 080c 51       		.byte	0x51
 3265 080d 05       		.uleb128 0x5
 3266 080e 03       		.byte	0x3
 3267 080f D0000000 		.4byte	.LC11
 3268 0813 09       		.uleb128 0x9
 3269 0814 01       		.uleb128 0x1
 3270 0815 52       		.byte	0x52
 3271 0816 02       		.uleb128 0x2
 3272 0817 76       		.byte	0x76
 3273 0818 00       		.sleb128 0
 3274 0819 00       		.byte	0
 3275 081a 08       		.uleb128 0x8
 3276 081b D6030000 		.4byte	.LVL113
 3277 081f CB1A0000 		.4byte	0x1acb
 3278 0823 2E080000 		.4byte	0x82e
 3279 0827 09       		.uleb128 0x9
 3280 0828 01       		.uleb128 0x1
 3281 0829 50       		.byte	0x50
 3282 082a 02       		.uleb128 0x2
 3283 082b 74       		.byte	0x74
 3284 082c 00       		.sleb128 0
 3285 082d 00       		.byte	0
ARM GAS  C:\Users\Blayke\AppData\Local\Temp\ccFauHWb.s 			page 76


 3286 082e 08       		.uleb128 0x8
 3287 082f EA030000 		.4byte	.LVL114
 3288 0833 021B0000 		.4byte	0x1b02
 3289 0837 5F080000 		.4byte	0x85f
 3290 083b 09       		.uleb128 0x9
 3291 083c 01       		.uleb128 0x1
 3292 083d 50       		.byte	0x50
 3293 083e 02       		.uleb128 0x2
 3294 083f 76       		.byte	0x76
 3295 0840 00       		.sleb128 0
 3296 0841 09       		.uleb128 0x9
 3297 0842 01       		.uleb128 0x1
 3298 0843 51       		.byte	0x51
 3299 0844 01       		.uleb128 0x1
 3300 0845 30       		.byte	0x30
 3301 0846 09       		.uleb128 0x9
 3302 0847 01       		.uleb128 0x1
 3303 0848 52       		.byte	0x52
 3304 0849 01       		.uleb128 0x1
 3305 084a 34       		.byte	0x34
 3306 084b 09       		.uleb128 0x9
 3307 084c 01       		.uleb128 0x1
 3308 084d 53       		.byte	0x53
 3309 084e 01       		.uleb128 0x1
 3310 084f 32       		.byte	0x32
 3311 0850 09       		.uleb128 0x9
 3312 0851 02       		.uleb128 0x2
 3313 0852 7D       		.byte	0x7d
 3314 0853 00       		.sleb128 0
 3315 0854 02       		.uleb128 0x2
 3316 0855 7A       		.byte	0x7a
 3317 0856 00       		.sleb128 0
 3318 0857 09       		.uleb128 0x9
 3319 0858 02       		.uleb128 0x2
 3320 0859 7D       		.byte	0x7d
 3321 085a 04       		.sleb128 4
 3322 085b 02       		.uleb128 0x2
 3323 085c 79       		.byte	0x79
 3324 085d 00       		.sleb128 0
 3325 085e 00       		.byte	0
 3326 085f 08       		.uleb128 0x8
 3327 0860 F0030000 		.4byte	.LVL115
 3328 0864 391B0000 		.4byte	0x1b39
 3329 0868 72080000 		.4byte	0x872
 3330 086c 09       		.uleb128 0x9
 3331 086d 01       		.uleb128 0x1
 3332 086e 50       		.byte	0x50
 3333 086f 01       		.uleb128 0x1
 3334 0870 30       		.byte	0x30
 3335 0871 00       		.byte	0
 3336 0872 08       		.uleb128 0x8
 3337 0873 F6030000 		.4byte	.LVL116
 3338 0877 C01A0000 		.4byte	0x1ac0
 3339 087b 86080000 		.4byte	0x886
 3340 087f 09       		.uleb128 0x9
 3341 0880 01       		.uleb128 0x1
 3342 0881 50       		.byte	0x50
ARM GAS  C:\Users\Blayke\AppData\Local\Temp\ccFauHWb.s 			page 77


 3343 0882 02       		.uleb128 0x2
 3344 0883 08       		.byte	0x8
 3345 0884 3C       		.byte	0x3c
 3346 0885 00       		.byte	0
 3347 0886 08       		.uleb128 0x8
 3348 0887 FC030000 		.4byte	.LVL117
 3349 088b 391B0000 		.4byte	0x1b39
 3350 088f 99080000 		.4byte	0x899
 3351 0893 09       		.uleb128 0x9
 3352 0894 01       		.uleb128 0x1
 3353 0895 50       		.byte	0x50
 3354 0896 01       		.uleb128 0x1
 3355 0897 35       		.byte	0x35
 3356 0898 00       		.byte	0
 3357 0899 08       		.uleb128 0x8
 3358 089a 02040000 		.4byte	.LVL118
 3359 089e C01A0000 		.4byte	0x1ac0
 3360 08a2 AD080000 		.4byte	0x8ad
 3361 08a6 09       		.uleb128 0x9
 3362 08a7 01       		.uleb128 0x1
 3363 08a8 50       		.byte	0x50
 3364 08a9 02       		.uleb128 0x2
 3365 08aa 08       		.byte	0x8
 3366 08ab 3C       		.byte	0x3c
 3367 08ac 00       		.byte	0
 3368 08ad 08       		.uleb128 0x8
 3369 08ae 06050000 		.4byte	.LVL141
 3370 08b2 E11A0000 		.4byte	0x1ae1
 3371 08b6 CA080000 		.4byte	0x8ca
 3372 08ba 09       		.uleb128 0x9
 3373 08bb 01       		.uleb128 0x1
 3374 08bc 50       		.byte	0x50
 3375 08bd 02       		.uleb128 0x2
 3376 08be 74       		.byte	0x74
 3377 08bf 00       		.sleb128 0
 3378 08c0 09       		.uleb128 0x9
 3379 08c1 01       		.uleb128 0x1
 3380 08c2 51       		.byte	0x51
 3381 08c3 05       		.uleb128 0x5
 3382 08c4 03       		.byte	0x3
 3383 08c5 E4000000 		.4byte	.LC12
 3384 08c9 00       		.byte	0
 3385 08ca 08       		.uleb128 0x8
 3386 08cb 0C050000 		.4byte	.LVL142
 3387 08cf CB1A0000 		.4byte	0x1acb
 3388 08d3 DE080000 		.4byte	0x8de
 3389 08d7 09       		.uleb128 0x9
 3390 08d8 01       		.uleb128 0x1
 3391 08d9 50       		.byte	0x50
 3392 08da 02       		.uleb128 0x2
 3393 08db 74       		.byte	0x74
 3394 08dc 00       		.sleb128 0
 3395 08dd 00       		.byte	0
 3396 08de 08       		.uleb128 0x8
 3397 08df 16050000 		.4byte	.LVL143
 3398 08e3 E11A0000 		.4byte	0x1ae1
 3399 08e7 FB080000 		.4byte	0x8fb
ARM GAS  C:\Users\Blayke\AppData\Local\Temp\ccFauHWb.s 			page 78


 3400 08eb 09       		.uleb128 0x9
 3401 08ec 01       		.uleb128 0x1
 3402 08ed 50       		.byte	0x50
 3403 08ee 02       		.uleb128 0x2
 3404 08ef 74       		.byte	0x74
 3405 08f0 00       		.sleb128 0
 3406 08f1 09       		.uleb128 0x9
 3407 08f2 01       		.uleb128 0x1
 3408 08f3 51       		.byte	0x51
 3409 08f4 05       		.uleb128 0x5
 3410 08f5 03       		.byte	0x3
 3411 08f6 F8000000 		.4byte	.LC13
 3412 08fa 00       		.byte	0
 3413 08fb 08       		.uleb128 0x8
 3414 08fc 1C050000 		.4byte	.LVL144
 3415 0900 CB1A0000 		.4byte	0x1acb
 3416 0904 0F090000 		.4byte	0x90f
 3417 0908 09       		.uleb128 0x9
 3418 0909 01       		.uleb128 0x1
 3419 090a 50       		.byte	0x50
 3420 090b 02       		.uleb128 0x2
 3421 090c 74       		.byte	0x74
 3422 090d 00       		.sleb128 0
 3423 090e 00       		.byte	0
 3424 090f 08       		.uleb128 0x8
 3425 0910 26050000 		.4byte	.LVL145
 3426 0914 E11A0000 		.4byte	0x1ae1
 3427 0918 2C090000 		.4byte	0x92c
 3428 091c 09       		.uleb128 0x9
 3429 091d 01       		.uleb128 0x1
 3430 091e 50       		.byte	0x50
 3431 091f 02       		.uleb128 0x2
 3432 0920 74       		.byte	0x74
 3433 0921 00       		.sleb128 0
 3434 0922 09       		.uleb128 0x9
 3435 0923 01       		.uleb128 0x1
 3436 0924 51       		.byte	0x51
 3437 0925 05       		.uleb128 0x5
 3438 0926 03       		.byte	0x3
 3439 0927 0C010000 		.4byte	.LC14
 3440 092b 00       		.byte	0
 3441 092c 08       		.uleb128 0x8
 3442 092d 2C050000 		.4byte	.LVL146
 3443 0931 CB1A0000 		.4byte	0x1acb
 3444 0935 40090000 		.4byte	0x940
 3445 0939 09       		.uleb128 0x9
 3446 093a 01       		.uleb128 0x1
 3447 093b 50       		.byte	0x50
 3448 093c 02       		.uleb128 0x2
 3449 093d 74       		.byte	0x74
 3450 093e 00       		.sleb128 0
 3451 093f 00       		.byte	0
 3452 0940 08       		.uleb128 0x8
 3453 0941 36050000 		.4byte	.LVL147
 3454 0945 E11A0000 		.4byte	0x1ae1
 3455 0949 5D090000 		.4byte	0x95d
 3456 094d 09       		.uleb128 0x9
ARM GAS  C:\Users\Blayke\AppData\Local\Temp\ccFauHWb.s 			page 79


 3457 094e 01       		.uleb128 0x1
 3458 094f 50       		.byte	0x50
 3459 0950 02       		.uleb128 0x2
 3460 0951 74       		.byte	0x74
 3461 0952 00       		.sleb128 0
 3462 0953 09       		.uleb128 0x9
 3463 0954 01       		.uleb128 0x1
 3464 0955 51       		.byte	0x51
 3465 0956 05       		.uleb128 0x5
 3466 0957 03       		.byte	0x3
 3467 0958 20010000 		.4byte	.LC15
 3468 095c 00       		.byte	0
 3469 095d 08       		.uleb128 0x8
 3470 095e 3C050000 		.4byte	.LVL148
 3471 0962 CB1A0000 		.4byte	0x1acb
 3472 0966 71090000 		.4byte	0x971
 3473 096a 09       		.uleb128 0x9
 3474 096b 01       		.uleb128 0x1
 3475 096c 50       		.byte	0x50
 3476 096d 02       		.uleb128 0x2
 3477 096e 74       		.byte	0x74
 3478 096f 00       		.sleb128 0
 3479 0970 00       		.byte	0
 3480 0971 08       		.uleb128 0x8
 3481 0972 94050000 		.4byte	.LVL149
 3482 0976 021B0000 		.4byte	0x1b02
 3483 097a A2090000 		.4byte	0x9a2
 3484 097e 09       		.uleb128 0x9
 3485 097f 01       		.uleb128 0x1
 3486 0980 50       		.byte	0x50
 3487 0981 02       		.uleb128 0x2
 3488 0982 7A       		.byte	0x7a
 3489 0983 00       		.sleb128 0
 3490 0984 09       		.uleb128 0x9
 3491 0985 01       		.uleb128 0x1
 3492 0986 51       		.byte	0x51
 3493 0987 01       		.uleb128 0x1
 3494 0988 30       		.byte	0x30
 3495 0989 09       		.uleb128 0x9
 3496 098a 01       		.uleb128 0x1
 3497 098b 52       		.byte	0x52
 3498 098c 01       		.uleb128 0x1
 3499 098d 35       		.byte	0x35
 3500 098e 09       		.uleb128 0x9
 3501 098f 01       		.uleb128 0x1
 3502 0990 53       		.byte	0x53
 3503 0991 01       		.uleb128 0x1
 3504 0992 30       		.byte	0x30
 3505 0993 09       		.uleb128 0x9
 3506 0994 02       		.uleb128 0x2
 3507 0995 7D       		.byte	0x7d
 3508 0996 00       		.sleb128 0
 3509 0997 02       		.uleb128 0x2
 3510 0998 7A       		.byte	0x7a
 3511 0999 00       		.sleb128 0
 3512 099a 09       		.uleb128 0x9
 3513 099b 02       		.uleb128 0x2
ARM GAS  C:\Users\Blayke\AppData\Local\Temp\ccFauHWb.s 			page 80


 3514 099c 7D       		.byte	0x7d
 3515 099d 04       		.sleb128 4
 3516 099e 02       		.uleb128 0x2
 3517 099f 75       		.byte	0x75
 3518 09a0 00       		.sleb128 0
 3519 09a1 00       		.byte	0
 3520 09a2 08       		.uleb128 0x8
 3521 09a3 9C050000 		.4byte	.LVL150
 3522 09a7 2E1B0000 		.4byte	0x1b2e
 3523 09ab BB090000 		.4byte	0x9bb
 3524 09af 09       		.uleb128 0x9
 3525 09b0 01       		.uleb128 0x1
 3526 09b1 50       		.byte	0x50
 3527 09b2 01       		.uleb128 0x1
 3528 09b3 32       		.byte	0x32
 3529 09b4 09       		.uleb128 0x9
 3530 09b5 01       		.uleb128 0x1
 3531 09b6 51       		.byte	0x51
 3532 09b7 02       		.uleb128 0x2
 3533 09b8 7A       		.byte	0x7a
 3534 09b9 00       		.sleb128 0
 3535 09ba 00       		.byte	0
 3536 09bb 08       		.uleb128 0x8
 3537 09bc A4050000 		.4byte	.LVL151
 3538 09c0 2E1B0000 		.4byte	0x1b2e
 3539 09c4 D5090000 		.4byte	0x9d5
 3540 09c8 09       		.uleb128 0x9
 3541 09c9 01       		.uleb128 0x1
 3542 09ca 50       		.byte	0x50
 3543 09cb 02       		.uleb128 0x2
 3544 09cc 75       		.byte	0x75
 3545 09cd 00       		.sleb128 0
 3546 09ce 09       		.uleb128 0x9
 3547 09cf 01       		.uleb128 0x1
 3548 09d0 51       		.byte	0x51
 3549 09d1 02       		.uleb128 0x2
 3550 09d2 7A       		.byte	0x7a
 3551 09d3 00       		.sleb128 0
 3552 09d4 00       		.byte	0
 3553 09d5 08       		.uleb128 0x8
 3554 09d6 AA050000 		.4byte	.LVL152
 3555 09da F71A0000 		.4byte	0x1af7
 3556 09de E8090000 		.4byte	0x9e8
 3557 09e2 09       		.uleb128 0x9
 3558 09e3 01       		.uleb128 0x1
 3559 09e4 50       		.byte	0x50
 3560 09e5 01       		.uleb128 0x1
 3561 09e6 37       		.byte	0x37
 3562 09e7 00       		.byte	0
 3563 09e8 08       		.uleb128 0x8
 3564 09e9 BA050000 		.4byte	.LVL153
 3565 09ed 021B0000 		.4byte	0x1b02
 3566 09f1 1A0A0000 		.4byte	0xa1a
 3567 09f5 09       		.uleb128 0x9
 3568 09f6 01       		.uleb128 0x1
 3569 09f7 50       		.byte	0x50
 3570 09f8 02       		.uleb128 0x2
ARM GAS  C:\Users\Blayke\AppData\Local\Temp\ccFauHWb.s 			page 81


 3571 09f9 08       		.byte	0x8
 3572 09fa AC       		.byte	0xac
 3573 09fb 09       		.uleb128 0x9
 3574 09fc 01       		.uleb128 0x1
 3575 09fd 51       		.byte	0x51
 3576 09fe 02       		.uleb128 0x2
 3577 09ff 75       		.byte	0x75
 3578 0a00 00       		.sleb128 0
 3579 0a01 09       		.uleb128 0x9
 3580 0a02 01       		.uleb128 0x1
 3581 0a03 52       		.byte	0x52
 3582 0a04 01       		.uleb128 0x1
 3583 0a05 34       		.byte	0x34
 3584 0a06 09       		.uleb128 0x9
 3585 0a07 01       		.uleb128 0x1
 3586 0a08 53       		.byte	0x53
 3587 0a09 01       		.uleb128 0x1
 3588 0a0a 30       		.byte	0x30
 3589 0a0b 09       		.uleb128 0x9
 3590 0a0c 02       		.uleb128 0x2
 3591 0a0d 7D       		.byte	0x7d
 3592 0a0e 00       		.sleb128 0
 3593 0a0f 02       		.uleb128 0x2
 3594 0a10 7A       		.byte	0x7a
 3595 0a11 00       		.sleb128 0
 3596 0a12 09       		.uleb128 0x9
 3597 0a13 02       		.uleb128 0x2
 3598 0a14 7D       		.byte	0x7d
 3599 0a15 04       		.sleb128 4
 3600 0a16 02       		.uleb128 0x2
 3601 0a17 75       		.byte	0x75
 3602 0a18 00       		.sleb128 0
 3603 0a19 00       		.byte	0
 3604 0a1a 08       		.uleb128 0x8
 3605 0a1b C8050000 		.4byte	.LVL154
 3606 0a1f 5A1B0000 		.4byte	0x1b5a
 3607 0a23 440A0000 		.4byte	0xa44
 3608 0a27 09       		.uleb128 0x9
 3609 0a28 01       		.uleb128 0x1
 3610 0a29 50       		.byte	0x50
 3611 0a2a 02       		.uleb128 0x2
 3612 0a2b 08       		.byte	0x8
 3613 0a2c 9B       		.byte	0x9b
 3614 0a2d 09       		.uleb128 0x9
 3615 0a2e 01       		.uleb128 0x1
 3616 0a2f 51       		.byte	0x51
 3617 0a30 01       		.uleb128 0x1
 3618 0a31 32       		.byte	0x32
 3619 0a32 09       		.uleb128 0x9
 3620 0a33 01       		.uleb128 0x1
 3621 0a34 52       		.byte	0x52
 3622 0a35 01       		.uleb128 0x1
 3623 0a36 35       		.byte	0x35
 3624 0a37 09       		.uleb128 0x9
 3625 0a38 01       		.uleb128 0x1
 3626 0a39 53       		.byte	0x53
 3627 0a3a 01       		.uleb128 0x1
ARM GAS  C:\Users\Blayke\AppData\Local\Temp\ccFauHWb.s 			page 82


 3628 0a3b 33       		.byte	0x33
 3629 0a3c 09       		.uleb128 0x9
 3630 0a3d 02       		.uleb128 0x2
 3631 0a3e 7D       		.byte	0x7d
 3632 0a3f 00       		.sleb128 0
 3633 0a40 02       		.uleb128 0x2
 3634 0a41 7A       		.byte	0x7a
 3635 0a42 00       		.sleb128 0
 3636 0a43 00       		.byte	0
 3637 0a44 0A       		.uleb128 0xa
 3638 0a45 CE050000 		.4byte	.LVL155
 3639 0a49 F71A0000 		.4byte	0x1af7
 3640 0a4d 09       		.uleb128 0x9
 3641 0a4e 01       		.uleb128 0x1
 3642 0a4f 50       		.byte	0x50
 3643 0a50 01       		.uleb128 0x1
 3644 0a51 37       		.byte	0x37
 3645 0a52 00       		.byte	0
 3646 0a53 00       		.byte	0
 3647 0a54 0D       		.uleb128 0xd
 3648 0a55 E0070000 		.4byte	.LBB10
 3649 0a59 34000000 		.4byte	.LBE10-.LBB10
 3650 0a5d E70A0000 		.4byte	0xae7
 3651 0a61 0E       		.uleb128 0xe
 3652 0a62 10020000 		.4byte	.LASF23
 3653 0a66 01       		.byte	0x1
 3654 0a67 9802     		.2byte	0x298
 3655 0a69 68000000 		.4byte	0x68
 3656 0a6d C8000000 		.4byte	.LLST8
 3657 0a71 12       		.uleb128 0x12
 3658 0a72 87060000 		.4byte	.LASF106
 3659 0a76 01       		.byte	0x1
 3660 0a77 9902     		.2byte	0x299
 3661 0a79 68000000 		.4byte	0x68
 3662 0a7d 08       		.uleb128 0x8
 3663 0a7e EE070000 		.4byte	.LVL187
 3664 0a82 651B0000 		.4byte	0x1b65
 3665 0a86 950A0000 		.4byte	0xa95
 3666 0a8a 09       		.uleb128 0x9
 3667 0a8b 01       		.uleb128 0x1
 3668 0a8c 50       		.byte	0x50
 3669 0a8d 01       		.uleb128 0x1
 3670 0a8e 30       		.byte	0x30
 3671 0a8f 09       		.uleb128 0x9
 3672 0a90 01       		.uleb128 0x1
 3673 0a91 51       		.byte	0x51
 3674 0a92 01       		.uleb128 0x1
 3675 0a93 32       		.byte	0x32
 3676 0a94 00       		.byte	0
 3677 0a95 08       		.uleb128 0x8
 3678 0a96 F4070000 		.4byte	.LVL188
 3679 0a9a 701B0000 		.4byte	0x1b70
 3680 0a9e A80A0000 		.4byte	0xaa8
 3681 0aa2 09       		.uleb128 0x9
 3682 0aa3 01       		.uleb128 0x1
 3683 0aa4 50       		.byte	0x50
 3684 0aa5 01       		.uleb128 0x1
ARM GAS  C:\Users\Blayke\AppData\Local\Temp\ccFauHWb.s 			page 83


 3685 0aa6 35       		.byte	0x35
 3686 0aa7 00       		.byte	0
 3687 0aa8 06       		.uleb128 0x6
 3688 0aa9 F8070000 		.4byte	.LVL189
 3689 0aad 7B1B0000 		.4byte	0x1b7b
 3690 0ab1 08       		.uleb128 0x8
 3691 0ab2 00080000 		.4byte	.LVL190
 3692 0ab6 651B0000 		.4byte	0x1b65
 3693 0aba CA0A0000 		.4byte	0xaca
 3694 0abe 09       		.uleb128 0x9
 3695 0abf 01       		.uleb128 0x1
 3696 0ac0 50       		.byte	0x50
 3697 0ac1 01       		.uleb128 0x1
 3698 0ac2 33       		.byte	0x33
 3699 0ac3 09       		.uleb128 0x9
 3700 0ac4 01       		.uleb128 0x1
 3701 0ac5 51       		.byte	0x51
 3702 0ac6 02       		.uleb128 0x2
 3703 0ac7 75       		.byte	0x75
 3704 0ac8 00       		.sleb128 0
 3705 0ac9 00       		.byte	0
 3706 0aca 0A       		.uleb128 0xa
 3707 0acb 0C080000 		.4byte	.LVL191
 3708 0acf 4F1B0000 		.4byte	0x1b4f
 3709 0ad3 09       		.uleb128 0x9
 3710 0ad4 01       		.uleb128 0x1
 3711 0ad5 50       		.byte	0x50
 3712 0ad6 02       		.uleb128 0x2
 3713 0ad7 09       		.byte	0x9
 3714 0ad8 C4       		.byte	0xc4
 3715 0ad9 09       		.uleb128 0x9
 3716 0ada 01       		.uleb128 0x1
 3717 0adb 51       		.byte	0x51
 3718 0adc 02       		.uleb128 0x2
 3719 0add 08       		.byte	0x8
 3720 0ade C8       		.byte	0xc8
 3721 0adf 09       		.uleb128 0x9
 3722 0ae0 01       		.uleb128 0x1
 3723 0ae1 52       		.byte	0x52
 3724 0ae2 02       		.uleb128 0x2
 3725 0ae3 75       		.byte	0x75
 3726 0ae4 00       		.sleb128 0
 3727 0ae5 00       		.byte	0
 3728 0ae6 00       		.byte	0
 3729 0ae7 0D       		.uleb128 0xd
 3730 0ae8 BC090000 		.4byte	.LBB11
 3731 0aec 34010000 		.4byte	.LBE11-.LBB11
 3732 0af0 A70D0000 		.4byte	0xda7
 3733 0af4 0E       		.uleb128 0xe
 3734 0af5 59060000 		.4byte	.LASF24
 3735 0af9 01       		.byte	0x1
 3736 0afa 2603     		.2byte	0x326
 3737 0afc 68000000 		.4byte	0x68
 3738 0b00 DC000000 		.4byte	.LLST9
 3739 0b04 08       		.uleb128 0x8
 3740 0b05 C2090000 		.4byte	.LVL221
 3741 0b09 181B0000 		.4byte	0x1b18
ARM GAS  C:\Users\Blayke\AppData\Local\Temp\ccFauHWb.s 			page 84


 3742 0b0d 170B0000 		.4byte	0xb17
 3743 0b11 09       		.uleb128 0x9
 3744 0b12 01       		.uleb128 0x1
 3745 0b13 50       		.byte	0x50
 3746 0b14 01       		.uleb128 0x1
 3747 0b15 31       		.byte	0x31
 3748 0b16 00       		.byte	0
 3749 0b17 06       		.uleb128 0x6
 3750 0b18 CC090000 		.4byte	.LVL222
 3751 0b1c D61A0000 		.4byte	0x1ad6
 3752 0b20 08       		.uleb128 0x8
 3753 0b21 F2090000 		.4byte	.LVL225
 3754 0b25 021B0000 		.4byte	0x1b02
 3755 0b29 520B0000 		.4byte	0xb52
 3756 0b2d 09       		.uleb128 0x9
 3757 0b2e 01       		.uleb128 0x1
 3758 0b2f 50       		.byte	0x50
 3759 0b30 03       		.uleb128 0x3
 3760 0b31 0A       		.byte	0xa
 3761 0b32 2602     		.2byte	0x226
 3762 0b34 09       		.uleb128 0x9
 3763 0b35 01       		.uleb128 0x1
 3764 0b36 51       		.byte	0x51
 3765 0b37 01       		.uleb128 0x1
 3766 0b38 30       		.byte	0x30
 3767 0b39 09       		.uleb128 0x9
 3768 0b3a 01       		.uleb128 0x1
 3769 0b3b 52       		.byte	0x52
 3770 0b3c 01       		.uleb128 0x1
 3771 0b3d 35       		.byte	0x35
 3772 0b3e 09       		.uleb128 0x9
 3773 0b3f 01       		.uleb128 0x1
 3774 0b40 53       		.byte	0x53
 3775 0b41 01       		.uleb128 0x1
 3776 0b42 30       		.byte	0x30
 3777 0b43 09       		.uleb128 0x9
 3778 0b44 02       		.uleb128 0x2
 3779 0b45 7D       		.byte	0x7d
 3780 0b46 00       		.sleb128 0
 3781 0b47 02       		.uleb128 0x2
 3782 0b48 74       		.byte	0x74
 3783 0b49 00       		.sleb128 0
 3784 0b4a 09       		.uleb128 0x9
 3785 0b4b 02       		.uleb128 0x2
 3786 0b4c 7D       		.byte	0x7d
 3787 0b4d 04       		.sleb128 4
 3788 0b4e 02       		.uleb128 0x2
 3789 0b4f 75       		.byte	0x75
 3790 0b50 00       		.sleb128 0
 3791 0b51 00       		.byte	0
 3792 0b52 08       		.uleb128 0x8
 3793 0b53 FA090000 		.4byte	.LVL226
 3794 0b57 2E1B0000 		.4byte	0x1b2e
 3795 0b5b 6B0B0000 		.4byte	0xb6b
 3796 0b5f 09       		.uleb128 0x9
 3797 0b60 01       		.uleb128 0x1
 3798 0b61 50       		.byte	0x50
ARM GAS  C:\Users\Blayke\AppData\Local\Temp\ccFauHWb.s 			page 85


 3799 0b62 01       		.uleb128 0x1
 3800 0b63 30       		.byte	0x30
 3801 0b64 09       		.uleb128 0x9
 3802 0b65 01       		.uleb128 0x1
 3803 0b66 51       		.byte	0x51
 3804 0b67 02       		.uleb128 0x2
 3805 0b68 74       		.byte	0x74
 3806 0b69 00       		.sleb128 0
 3807 0b6a 00       		.byte	0
 3808 0b6b 08       		.uleb128 0x8
 3809 0b6c 020A0000 		.4byte	.LVL227
 3810 0b70 2E1B0000 		.4byte	0x1b2e
 3811 0b74 840B0000 		.4byte	0xb84
 3812 0b78 09       		.uleb128 0x9
 3813 0b79 01       		.uleb128 0x1
 3814 0b7a 50       		.byte	0x50
 3815 0b7b 01       		.uleb128 0x1
 3816 0b7c 33       		.byte	0x33
 3817 0b7d 09       		.uleb128 0x9
 3818 0b7e 01       		.uleb128 0x1
 3819 0b7f 51       		.byte	0x51
 3820 0b80 02       		.uleb128 0x2
 3821 0b81 74       		.byte	0x74
 3822 0b82 00       		.sleb128 0
 3823 0b83 00       		.byte	0
 3824 0b84 08       		.uleb128 0x8
 3825 0b85 120A0000 		.4byte	.LVL228
 3826 0b89 021B0000 		.4byte	0x1b02
 3827 0b8d B60B0000 		.4byte	0xbb6
 3828 0b91 09       		.uleb128 0x9
 3829 0b92 01       		.uleb128 0x1
 3830 0b93 50       		.byte	0x50
 3831 0b94 02       		.uleb128 0x2
 3832 0b95 08       		.byte	0x8
 3833 0b96 AA       		.byte	0xaa
 3834 0b97 09       		.uleb128 0x9
 3835 0b98 01       		.uleb128 0x1
 3836 0b99 51       		.byte	0x51
 3837 0b9a 02       		.uleb128 0x2
 3838 0b9b 75       		.byte	0x75
 3839 0b9c 00       		.sleb128 0
 3840 0b9d 09       		.uleb128 0x9
 3841 0b9e 01       		.uleb128 0x1
 3842 0b9f 52       		.byte	0x52
 3843 0ba0 01       		.uleb128 0x1
 3844 0ba1 34       		.byte	0x34
 3845 0ba2 09       		.uleb128 0x9
 3846 0ba3 01       		.uleb128 0x1
 3847 0ba4 53       		.byte	0x53
 3848 0ba5 01       		.uleb128 0x1
 3849 0ba6 30       		.byte	0x30
 3850 0ba7 09       		.uleb128 0x9
 3851 0ba8 02       		.uleb128 0x2
 3852 0ba9 7D       		.byte	0x7d
 3853 0baa 00       		.sleb128 0
 3854 0bab 02       		.uleb128 0x2
 3855 0bac 74       		.byte	0x74
ARM GAS  C:\Users\Blayke\AppData\Local\Temp\ccFauHWb.s 			page 86


 3856 0bad 00       		.sleb128 0
 3857 0bae 09       		.uleb128 0x9
 3858 0baf 02       		.uleb128 0x2
 3859 0bb0 7D       		.byte	0x7d
 3860 0bb1 04       		.sleb128 4
 3861 0bb2 02       		.uleb128 0x2
 3862 0bb3 75       		.byte	0x75
 3863 0bb4 00       		.sleb128 0
 3864 0bb5 00       		.byte	0
 3865 0bb6 08       		.uleb128 0x8
 3866 0bb7 180A0000 		.4byte	.LVL229
 3867 0bbb F71A0000 		.4byte	0x1af7
 3868 0bbf C90B0000 		.4byte	0xbc9
 3869 0bc3 09       		.uleb128 0x9
 3870 0bc4 01       		.uleb128 0x1
 3871 0bc5 50       		.byte	0x50
 3872 0bc6 01       		.uleb128 0x1
 3873 0bc7 37       		.byte	0x37
 3874 0bc8 00       		.byte	0
 3875 0bc9 08       		.uleb128 0x8
 3876 0bca 200A0000 		.4byte	.LVL230
 3877 0bce 2E1B0000 		.4byte	0x1b2e
 3878 0bd2 E20B0000 		.4byte	0xbe2
 3879 0bd6 09       		.uleb128 0x9
 3880 0bd7 01       		.uleb128 0x1
 3881 0bd8 50       		.byte	0x50
 3882 0bd9 01       		.uleb128 0x1
 3883 0bda 32       		.byte	0x32
 3884 0bdb 09       		.uleb128 0x9
 3885 0bdc 01       		.uleb128 0x1
 3886 0bdd 51       		.byte	0x51
 3887 0bde 02       		.uleb128 0x2
 3888 0bdf 08       		.byte	0x8
 3889 0be0 C8       		.byte	0xc8
 3890 0be1 00       		.byte	0
 3891 0be2 08       		.uleb128 0x8
 3892 0be3 280A0000 		.4byte	.LVL231
 3893 0be7 651B0000 		.4byte	0x1b65
 3894 0beb FA0B0000 		.4byte	0xbfa
 3895 0bef 09       		.uleb128 0x9
 3896 0bf0 01       		.uleb128 0x1
 3897 0bf1 50       		.byte	0x50
 3898 0bf2 01       		.uleb128 0x1
 3899 0bf3 33       		.byte	0x33
 3900 0bf4 09       		.uleb128 0x9
 3901 0bf5 01       		.uleb128 0x1
 3902 0bf6 51       		.byte	0x51
 3903 0bf7 01       		.uleb128 0x1
 3904 0bf8 31       		.byte	0x31
 3905 0bf9 00       		.byte	0
 3906 0bfa 08       		.uleb128 0x8
 3907 0bfb 340A0000 		.4byte	.LVL232
 3908 0bff F71A0000 		.4byte	0x1af7
 3909 0c03 0D0C0000 		.4byte	0xc0d
 3910 0c07 09       		.uleb128 0x9
 3911 0c08 01       		.uleb128 0x1
 3912 0c09 50       		.byte	0x50
ARM GAS  C:\Users\Blayke\AppData\Local\Temp\ccFauHWb.s 			page 87


 3913 0c0a 01       		.uleb128 0x1
 3914 0c0b 37       		.byte	0x37
 3915 0c0c 00       		.byte	0
 3916 0c0d 08       		.uleb128 0x8
 3917 0c0e 460A0000 		.4byte	.LVL233
 3918 0c12 021B0000 		.4byte	0x1b02
 3919 0c16 3D0C0000 		.4byte	0xc3d
 3920 0c1a 09       		.uleb128 0x9
 3921 0c1b 01       		.uleb128 0x1
 3922 0c1c 50       		.byte	0x50
 3923 0c1d 02       		.uleb128 0x2
 3924 0c1e 08       		.byte	0x8
 3925 0c1f 82       		.byte	0x82
 3926 0c20 09       		.uleb128 0x9
 3927 0c21 01       		.uleb128 0x1
 3928 0c22 51       		.byte	0x51
 3929 0c23 01       		.uleb128 0x1
 3930 0c24 31       		.byte	0x31
 3931 0c25 09       		.uleb128 0x9
 3932 0c26 01       		.uleb128 0x1
 3933 0c27 52       		.byte	0x52
 3934 0c28 01       		.uleb128 0x1
 3935 0c29 34       		.byte	0x34
 3936 0c2a 09       		.uleb128 0x9
 3937 0c2b 01       		.uleb128 0x1
 3938 0c2c 53       		.byte	0x53
 3939 0c2d 01       		.uleb128 0x1
 3940 0c2e 30       		.byte	0x30
 3941 0c2f 09       		.uleb128 0x9
 3942 0c30 02       		.uleb128 0x2
 3943 0c31 7D       		.byte	0x7d
 3944 0c32 00       		.sleb128 0
 3945 0c33 02       		.uleb128 0x2
 3946 0c34 08       		.byte	0x8
 3947 0c35 C8       		.byte	0xc8
 3948 0c36 09       		.uleb128 0x9
 3949 0c37 02       		.uleb128 0x2
 3950 0c38 7D       		.byte	0x7d
 3951 0c39 04       		.sleb128 4
 3952 0c3a 01       		.uleb128 0x1
 3953 0c3b 31       		.byte	0x31
 3954 0c3c 00       		.byte	0
 3955 0c3d 08       		.uleb128 0x8
 3956 0c3e 5C0A0000 		.4byte	.LVL234
 3957 0c42 021B0000 		.4byte	0x1b02
 3958 0c46 6D0C0000 		.4byte	0xc6d
 3959 0c4a 09       		.uleb128 0x9
 3960 0c4b 01       		.uleb128 0x1
 3961 0c4c 50       		.byte	0x50
 3962 0c4d 02       		.uleb128 0x2
 3963 0c4e 08       		.byte	0x8
 3964 0c4f 5F       		.byte	0x5f
 3965 0c50 09       		.uleb128 0x9
 3966 0c51 01       		.uleb128 0x1
 3967 0c52 51       		.byte	0x51
 3968 0c53 01       		.uleb128 0x1
 3969 0c54 31       		.byte	0x31
ARM GAS  C:\Users\Blayke\AppData\Local\Temp\ccFauHWb.s 			page 88


 3970 0c55 09       		.uleb128 0x9
 3971 0c56 01       		.uleb128 0x1
 3972 0c57 52       		.byte	0x52
 3973 0c58 01       		.uleb128 0x1
 3974 0c59 34       		.byte	0x34
 3975 0c5a 09       		.uleb128 0x9
 3976 0c5b 01       		.uleb128 0x1
 3977 0c5c 53       		.byte	0x53
 3978 0c5d 01       		.uleb128 0x1
 3979 0c5e 36       		.byte	0x36
 3980 0c5f 09       		.uleb128 0x9
 3981 0c60 02       		.uleb128 0x2
 3982 0c61 7D       		.byte	0x7d
 3983 0c62 00       		.sleb128 0
 3984 0c63 02       		.uleb128 0x2
 3985 0c64 08       		.byte	0x8
 3986 0c65 46       		.byte	0x46
 3987 0c66 09       		.uleb128 0x9
 3988 0c67 02       		.uleb128 0x2
 3989 0c68 7D       		.byte	0x7d
 3990 0c69 04       		.sleb128 4
 3991 0c6a 01       		.uleb128 0x1
 3992 0c6b 30       		.byte	0x30
 3993 0c6c 00       		.byte	0
 3994 0c6d 08       		.uleb128 0x8
 3995 0c6e 660A0000 		.4byte	.LVL235
 3996 0c72 651B0000 		.4byte	0x1b65
 3997 0c76 800C0000 		.4byte	0xc80
 3998 0c7a 09       		.uleb128 0x9
 3999 0c7b 01       		.uleb128 0x1
 4000 0c7c 51       		.byte	0x51
 4001 0c7d 01       		.uleb128 0x1
 4002 0c7e 31       		.byte	0x31
 4003 0c7f 00       		.byte	0
 4004 0c80 06       		.uleb128 0x6
 4005 0c81 6A0A0000 		.4byte	.LVL236
 4006 0c85 861B0000 		.4byte	0x1b86
 4007 0c89 08       		.uleb128 0x8
 4008 0c8a 720A0000 		.4byte	.LVL237
 4009 0c8e 651B0000 		.4byte	0x1b65
 4010 0c92 A10C0000 		.4byte	0xca1
 4011 0c96 09       		.uleb128 0x9
 4012 0c97 01       		.uleb128 0x1
 4013 0c98 50       		.byte	0x50
 4014 0c99 01       		.uleb128 0x1
 4015 0c9a 33       		.byte	0x33
 4016 0c9b 09       		.uleb128 0x9
 4017 0c9c 01       		.uleb128 0x1
 4018 0c9d 51       		.byte	0x51
 4019 0c9e 01       		.uleb128 0x1
 4020 0c9f 30       		.byte	0x30
 4021 0ca0 00       		.byte	0
 4022 0ca1 08       		.uleb128 0x8
 4023 0ca2 9C0A0000 		.4byte	.LVL238
 4024 0ca6 4F1B0000 		.4byte	0x1b4f
 4025 0caa C10C0000 		.4byte	0xcc1
 4026 0cae 09       		.uleb128 0x9
ARM GAS  C:\Users\Blayke\AppData\Local\Temp\ccFauHWb.s 			page 89


 4027 0caf 01       		.uleb128 0x1
 4028 0cb0 50       		.byte	0x50
 4029 0cb1 03       		.uleb128 0x3
 4030 0cb2 0B       		.byte	0xb
 4031 0cb3 7EFF     		.2byte	0xff7e
 4032 0cb5 09       		.uleb128 0x9
 4033 0cb6 01       		.uleb128 0x1
 4034 0cb7 51       		.byte	0x51
 4035 0cb8 02       		.uleb128 0x2
 4036 0cb9 08       		.byte	0x8
 4037 0cba C8       		.byte	0xc8
 4038 0cbb 09       		.uleb128 0x9
 4039 0cbc 01       		.uleb128 0x1
 4040 0cbd 52       		.byte	0x52
 4041 0cbe 01       		.uleb128 0x1
 4042 0cbf 31       		.byte	0x31
 4043 0cc0 00       		.byte	0
 4044 0cc1 08       		.uleb128 0x8
 4045 0cc2 A40A0000 		.4byte	.LVL239
 4046 0cc6 2E1B0000 		.4byte	0x1b2e
 4047 0cca DA0C0000 		.4byte	0xcda
 4048 0cce 09       		.uleb128 0x9
 4049 0ccf 01       		.uleb128 0x1
 4050 0cd0 50       		.byte	0x50
 4051 0cd1 01       		.uleb128 0x1
 4052 0cd2 33       		.byte	0x33
 4053 0cd3 09       		.uleb128 0x9
 4054 0cd4 01       		.uleb128 0x1
 4055 0cd5 51       		.byte	0x51
 4056 0cd6 02       		.uleb128 0x2
 4057 0cd7 08       		.byte	0x8
 4058 0cd8 C8       		.byte	0xc8
 4059 0cd9 00       		.byte	0
 4060 0cda 08       		.uleb128 0x8
 4061 0cdb AA0A0000 		.4byte	.LVL240
 4062 0cdf F71A0000 		.4byte	0x1af7
 4063 0ce3 ED0C0000 		.4byte	0xced
 4064 0ce7 09       		.uleb128 0x9
 4065 0ce8 01       		.uleb128 0x1
 4066 0ce9 50       		.byte	0x50
 4067 0cea 01       		.uleb128 0x1
 4068 0ceb 37       		.byte	0x37
 4069 0cec 00       		.byte	0
 4070 0ced 08       		.uleb128 0x8
 4071 0cee C00A0000 		.4byte	.LVL241
 4072 0cf2 021B0000 		.4byte	0x1b02
 4073 0cf6 1F0D0000 		.4byte	0xd1f
 4074 0cfa 09       		.uleb128 0x9
 4075 0cfb 01       		.uleb128 0x1
 4076 0cfc 50       		.byte	0x50
 4077 0cfd 03       		.uleb128 0x3
 4078 0cfe 0A       		.byte	0xa
 4079 0cff 2602     		.2byte	0x226
 4080 0d01 09       		.uleb128 0x9
 4081 0d02 01       		.uleb128 0x1
 4082 0d03 51       		.byte	0x51
 4083 0d04 01       		.uleb128 0x1
ARM GAS  C:\Users\Blayke\AppData\Local\Temp\ccFauHWb.s 			page 90


 4084 0d05 30       		.byte	0x30
 4085 0d06 09       		.uleb128 0x9
 4086 0d07 01       		.uleb128 0x1
 4087 0d08 52       		.byte	0x52
 4088 0d09 01       		.uleb128 0x1
 4089 0d0a 35       		.byte	0x35
 4090 0d0b 09       		.uleb128 0x9
 4091 0d0c 01       		.uleb128 0x1
 4092 0d0d 53       		.byte	0x53
 4093 0d0e 01       		.uleb128 0x1
 4094 0d0f 30       		.byte	0x30
 4095 0d10 09       		.uleb128 0x9
 4096 0d11 02       		.uleb128 0x2
 4097 0d12 7D       		.byte	0x7d
 4098 0d13 00       		.sleb128 0
 4099 0d14 02       		.uleb128 0x2
 4100 0d15 75       		.byte	0x75
 4101 0d16 00       		.sleb128 0
 4102 0d17 09       		.uleb128 0x9
 4103 0d18 02       		.uleb128 0x2
 4104 0d19 7D       		.byte	0x7d
 4105 0d1a 04       		.sleb128 4
 4106 0d1b 02       		.uleb128 0x2
 4107 0d1c 74       		.byte	0x74
 4108 0d1d 00       		.sleb128 0
 4109 0d1e 00       		.byte	0
 4110 0d1f 08       		.uleb128 0x8
 4111 0d20 C60A0000 		.4byte	.LVL242
 4112 0d24 F71A0000 		.4byte	0x1af7
 4113 0d28 320D0000 		.4byte	0xd32
 4114 0d2c 09       		.uleb128 0x9
 4115 0d2d 01       		.uleb128 0x1
 4116 0d2e 50       		.byte	0x50
 4117 0d2f 01       		.uleb128 0x1
 4118 0d30 37       		.byte	0x37
 4119 0d31 00       		.byte	0
 4120 0d32 08       		.uleb128 0x8
 4121 0d33 CE0A0000 		.4byte	.LVL243
 4122 0d37 2E1B0000 		.4byte	0x1b2e
 4123 0d3b 4B0D0000 		.4byte	0xd4b
 4124 0d3f 09       		.uleb128 0x9
 4125 0d40 01       		.uleb128 0x1
 4126 0d41 50       		.byte	0x50
 4127 0d42 01       		.uleb128 0x1
 4128 0d43 30       		.byte	0x30
 4129 0d44 09       		.uleb128 0x9
 4130 0d45 01       		.uleb128 0x1
 4131 0d46 51       		.byte	0x51
 4132 0d47 02       		.uleb128 0x2
 4133 0d48 75       		.byte	0x75
 4134 0d49 00       		.sleb128 0
 4135 0d4a 00       		.byte	0
 4136 0d4b 08       		.uleb128 0x8
 4137 0d4c D60A0000 		.4byte	.LVL244
 4138 0d50 2E1B0000 		.4byte	0x1b2e
 4139 0d54 650D0000 		.4byte	0xd65
 4140 0d58 09       		.uleb128 0x9
ARM GAS  C:\Users\Blayke\AppData\Local\Temp\ccFauHWb.s 			page 91


 4141 0d59 01       		.uleb128 0x1
 4142 0d5a 50       		.byte	0x50
 4143 0d5b 02       		.uleb128 0x2
 4144 0d5c 74       		.byte	0x74
 4145 0d5d 00       		.sleb128 0
 4146 0d5e 09       		.uleb128 0x9
 4147 0d5f 01       		.uleb128 0x1
 4148 0d60 51       		.byte	0x51
 4149 0d61 02       		.uleb128 0x2
 4150 0d62 75       		.byte	0x75
 4151 0d63 00       		.sleb128 0
 4152 0d64 00       		.byte	0
 4153 0d65 08       		.uleb128 0x8
 4154 0d66 E60A0000 		.4byte	.LVL245
 4155 0d6a 021B0000 		.4byte	0x1b02
 4156 0d6e 970D0000 		.4byte	0xd97
 4157 0d72 09       		.uleb128 0x9
 4158 0d73 01       		.uleb128 0x1
 4159 0d74 50       		.byte	0x50
 4160 0d75 02       		.uleb128 0x2
 4161 0d76 08       		.byte	0x8
 4162 0d77 B9       		.byte	0xb9
 4163 0d78 09       		.uleb128 0x9
 4164 0d79 01       		.uleb128 0x1
 4165 0d7a 51       		.byte	0x51
 4166 0d7b 02       		.uleb128 0x2
 4167 0d7c 74       		.byte	0x74
 4168 0d7d 00       		.sleb128 0
 4169 0d7e 09       		.uleb128 0x9
 4170 0d7f 01       		.uleb128 0x1
 4171 0d80 52       		.byte	0x52
 4172 0d81 01       		.uleb128 0x1
 4173 0d82 34       		.byte	0x34
 4174 0d83 09       		.uleb128 0x9
 4175 0d84 01       		.uleb128 0x1
 4176 0d85 53       		.byte	0x53
 4177 0d86 01       		.uleb128 0x1
 4178 0d87 30       		.byte	0x30
 4179 0d88 09       		.uleb128 0x9
 4180 0d89 02       		.uleb128 0x2
 4181 0d8a 7D       		.byte	0x7d
 4182 0d8b 00       		.sleb128 0
 4183 0d8c 02       		.uleb128 0x2
 4184 0d8d 75       		.byte	0x75
 4185 0d8e 00       		.sleb128 0
 4186 0d8f 09       		.uleb128 0x9
 4187 0d90 02       		.uleb128 0x2
 4188 0d91 7D       		.byte	0x7d
 4189 0d92 04       		.sleb128 4
 4190 0d93 02       		.uleb128 0x2
 4191 0d94 74       		.byte	0x74
 4192 0d95 00       		.sleb128 0
 4193 0d96 00       		.byte	0
 4194 0d97 0A       		.uleb128 0xa
 4195 0d98 EC0A0000 		.4byte	.LVL246
 4196 0d9c F71A0000 		.4byte	0x1af7
 4197 0da0 09       		.uleb128 0x9
ARM GAS  C:\Users\Blayke\AppData\Local\Temp\ccFauHWb.s 			page 92


 4198 0da1 01       		.uleb128 0x1
 4199 0da2 50       		.byte	0x50
 4200 0da3 01       		.uleb128 0x1
 4201 0da4 37       		.byte	0x37
 4202 0da5 00       		.byte	0
 4203 0da6 00       		.byte	0
 4204 0da7 06       		.uleb128 0x6
 4205 0da8 0C000000 		.4byte	.LVL3
 4206 0dac 911B0000 		.4byte	0x1b91
 4207 0db0 06       		.uleb128 0x6
 4208 0db1 10000000 		.4byte	.LVL4
 4209 0db5 9C1B0000 		.4byte	0x1b9c
 4210 0db9 08       		.uleb128 0x8
 4211 0dba 16000000 		.4byte	.LVL5
 4212 0dbe CB1A0000 		.4byte	0x1acb
 4213 0dc2 D00D0000 		.4byte	0xdd0
 4214 0dc6 09       		.uleb128 0x9
 4215 0dc7 01       		.uleb128 0x1
 4216 0dc8 50       		.byte	0x50
 4217 0dc9 05       		.uleb128 0x5
 4218 0dca 03       		.byte	0x3
 4219 0dcb 18000000 		.4byte	.LC1
 4220 0dcf 00       		.byte	0
 4221 0dd0 06       		.uleb128 0x6
 4222 0dd1 1A000000 		.4byte	.LVL6
 4223 0dd5 A71B0000 		.4byte	0x1ba7
 4224 0dd9 06       		.uleb128 0x6
 4225 0dda 1E000000 		.4byte	.LVL7
 4226 0dde B21B0000 		.4byte	0x1bb2
 4227 0de2 08       		.uleb128 0x8
 4228 0de3 24000000 		.4byte	.LVL8
 4229 0de7 BD1B0000 		.4byte	0x1bbd
 4230 0deb F50D0000 		.4byte	0xdf5
 4231 0def 09       		.uleb128 0x9
 4232 0df0 01       		.uleb128 0x1
 4233 0df1 50       		.byte	0x50
 4234 0df2 01       		.uleb128 0x1
 4235 0df3 30       		.byte	0x30
 4236 0df4 00       		.byte	0
 4237 0df5 06       		.uleb128 0x6
 4238 0df6 2C000000 		.4byte	.LVL9
 4239 0dfa C81B0000 		.4byte	0x1bc8
 4240 0dfe 08       		.uleb128 0x8
 4241 0dff 36000000 		.4byte	.LVL10
 4242 0e03 181B0000 		.4byte	0x1b18
 4243 0e07 120E0000 		.4byte	0xe12
 4244 0e0b 09       		.uleb128 0x9
 4245 0e0c 01       		.uleb128 0x1
 4246 0e0d 50       		.byte	0x50
 4247 0e0e 02       		.uleb128 0x2
 4248 0e0f 75       		.byte	0x75
 4249 0e10 00       		.sleb128 0
 4250 0e11 00       		.byte	0
 4251 0e12 08       		.uleb128 0x8
 4252 0e13 3C000000 		.4byte	.LVL11
 4253 0e17 D31B0000 		.4byte	0x1bd3
 4254 0e1b 250E0000 		.4byte	0xe25
ARM GAS  C:\Users\Blayke\AppData\Local\Temp\ccFauHWb.s 			page 93


 4255 0e1f 09       		.uleb128 0x9
 4256 0e20 01       		.uleb128 0x1
 4257 0e21 50       		.byte	0x50
 4258 0e22 01       		.uleb128 0x1
 4259 0e23 31       		.byte	0x31
 4260 0e24 00       		.byte	0
 4261 0e25 08       		.uleb128 0x8
 4262 0e26 44000000 		.4byte	.LVL12
 4263 0e2a C01A0000 		.4byte	0x1ac0
 4264 0e2e 3A0E0000 		.4byte	0xe3a
 4265 0e32 09       		.uleb128 0x9
 4266 0e33 01       		.uleb128 0x1
 4267 0e34 50       		.byte	0x50
 4268 0e35 03       		.uleb128 0x3
 4269 0e36 0A       		.byte	0xa
 4270 0e37 F401     		.2byte	0x1f4
 4271 0e39 00       		.byte	0
 4272 0e3a 08       		.uleb128 0x8
 4273 0e3b 4A000000 		.4byte	.LVL13
 4274 0e3f D31B0000 		.4byte	0x1bd3
 4275 0e43 4D0E0000 		.4byte	0xe4d
 4276 0e47 09       		.uleb128 0x9
 4277 0e48 01       		.uleb128 0x1
 4278 0e49 50       		.byte	0x50
 4279 0e4a 01       		.uleb128 0x1
 4280 0e4b 32       		.byte	0x32
 4281 0e4c 00       		.byte	0
 4282 0e4d 08       		.uleb128 0x8
 4283 0e4e 52000000 		.4byte	.LVL14
 4284 0e52 C01A0000 		.4byte	0x1ac0
 4285 0e56 620E0000 		.4byte	0xe62
 4286 0e5a 09       		.uleb128 0x9
 4287 0e5b 01       		.uleb128 0x1
 4288 0e5c 50       		.byte	0x50
 4289 0e5d 03       		.uleb128 0x3
 4290 0e5e 0A       		.byte	0xa
 4291 0e5f F401     		.2byte	0x1f4
 4292 0e61 00       		.byte	0
 4293 0e62 08       		.uleb128 0x8
 4294 0e63 58000000 		.4byte	.LVL15
 4295 0e67 D31B0000 		.4byte	0x1bd3
 4296 0e6b 750E0000 		.4byte	0xe75
 4297 0e6f 09       		.uleb128 0x9
 4298 0e70 01       		.uleb128 0x1
 4299 0e71 50       		.byte	0x50
 4300 0e72 01       		.uleb128 0x1
 4301 0e73 33       		.byte	0x33
 4302 0e74 00       		.byte	0
 4303 0e75 08       		.uleb128 0x8
 4304 0e76 60000000 		.4byte	.LVL16
 4305 0e7a C01A0000 		.4byte	0x1ac0
 4306 0e7e 8A0E0000 		.4byte	0xe8a
 4307 0e82 09       		.uleb128 0x9
 4308 0e83 01       		.uleb128 0x1
 4309 0e84 50       		.byte	0x50
 4310 0e85 03       		.uleb128 0x3
 4311 0e86 0A       		.byte	0xa
ARM GAS  C:\Users\Blayke\AppData\Local\Temp\ccFauHWb.s 			page 94


 4312 0e87 F401     		.2byte	0x1f4
 4313 0e89 00       		.byte	0
 4314 0e8a 08       		.uleb128 0x8
 4315 0e8b 66000000 		.4byte	.LVL17
 4316 0e8f D31B0000 		.4byte	0x1bd3
 4317 0e93 9E0E0000 		.4byte	0xe9e
 4318 0e97 09       		.uleb128 0x9
 4319 0e98 01       		.uleb128 0x1
 4320 0e99 50       		.byte	0x50
 4321 0e9a 02       		.uleb128 0x2
 4322 0e9b 75       		.byte	0x75
 4323 0e9c 00       		.sleb128 0
 4324 0e9d 00       		.byte	0
 4325 0e9e 08       		.uleb128 0x8
 4326 0e9f 6E000000 		.4byte	.LVL18
 4327 0ea3 C01A0000 		.4byte	0x1ac0
 4328 0ea7 B30E0000 		.4byte	0xeb3
 4329 0eab 09       		.uleb128 0x9
 4330 0eac 01       		.uleb128 0x1
 4331 0ead 50       		.byte	0x50
 4332 0eae 03       		.uleb128 0x3
 4333 0eaf 0A       		.byte	0xa
 4334 0eb0 F401     		.2byte	0x1f4
 4335 0eb2 00       		.byte	0
 4336 0eb3 06       		.uleb128 0x6
 4337 0eb4 72000000 		.4byte	.LVL19
 4338 0eb8 0D1B0000 		.4byte	0x1b0d
 4339 0ebc 06       		.uleb128 0x6
 4340 0ebd 76000000 		.4byte	.LVL20
 4341 0ec1 DE1B0000 		.4byte	0x1bde
 4342 0ec5 08       		.uleb128 0x8
 4343 0ec6 7E000000 		.4byte	.LVL21
 4344 0eca E91B0000 		.4byte	0x1be9
 4345 0ece DA0E0000 		.4byte	0xeda
 4346 0ed2 09       		.uleb128 0x9
 4347 0ed3 01       		.uleb128 0x1
 4348 0ed4 50       		.byte	0x50
 4349 0ed5 03       		.uleb128 0x3
 4350 0ed6 0A       		.byte	0xa
 4351 0ed7 E803     		.2byte	0x3e8
 4352 0ed9 00       		.byte	0
 4353 0eda 08       		.uleb128 0x8
 4354 0edb 86000000 		.4byte	.LVL22
 4355 0edf C01A0000 		.4byte	0x1ac0
 4356 0ee3 EF0E0000 		.4byte	0xeef
 4357 0ee7 09       		.uleb128 0x9
 4358 0ee8 01       		.uleb128 0x1
 4359 0ee9 50       		.byte	0x50
 4360 0eea 03       		.uleb128 0x3
 4361 0eeb 0A       		.byte	0xa
 4362 0eec F401     		.2byte	0x1f4
 4363 0eee 00       		.byte	0
 4364 0eef 06       		.uleb128 0x6
 4365 0ef0 8A000000 		.4byte	.LVL23
 4366 0ef4 F41B0000 		.4byte	0x1bf4
 4367 0ef8 06       		.uleb128 0x6
 4368 0ef9 8E000000 		.4byte	.LVL24
ARM GAS  C:\Users\Blayke\AppData\Local\Temp\ccFauHWb.s 			page 95


 4369 0efd FF1B0000 		.4byte	0x1bff
 4370 0f01 08       		.uleb128 0x8
 4371 0f02 96000000 		.4byte	.LVL25
 4372 0f06 0A1C0000 		.4byte	0x1c0a
 4373 0f0a 160F0000 		.4byte	0xf16
 4374 0f0e 09       		.uleb128 0x9
 4375 0f0f 01       		.uleb128 0x1
 4376 0f10 50       		.byte	0x50
 4377 0f11 03       		.uleb128 0x3
 4378 0f12 0A       		.byte	0xa
 4379 0f13 6004     		.2byte	0x460
 4380 0f15 00       		.byte	0
 4381 0f16 08       		.uleb128 0x8
 4382 0f17 9E000000 		.4byte	.LVL26
 4383 0f1b C01A0000 		.4byte	0x1ac0
 4384 0f1f 2B0F0000 		.4byte	0xf2b
 4385 0f23 09       		.uleb128 0x9
 4386 0f24 01       		.uleb128 0x1
 4387 0f25 50       		.byte	0x50
 4388 0f26 03       		.uleb128 0x3
 4389 0f27 0A       		.byte	0xa
 4390 0f28 F401     		.2byte	0x1f4
 4391 0f2a 00       		.byte	0
 4392 0f2b 06       		.uleb128 0x6
 4393 0f2c A2000000 		.4byte	.LVL27
 4394 0f30 151C0000 		.4byte	0x1c15
 4395 0f34 06       		.uleb128 0x6
 4396 0f35 A6000000 		.4byte	.LVL28
 4397 0f39 201C0000 		.4byte	0x1c20
 4398 0f3d 06       		.uleb128 0x6
 4399 0f3e AA000000 		.4byte	.LVL29
 4400 0f42 2B1C0000 		.4byte	0x1c2b
 4401 0f46 08       		.uleb128 0x8
 4402 0f47 B0000000 		.4byte	.LVL30
 4403 0f4b 361C0000 		.4byte	0x1c36
 4404 0f4f 5A0F0000 		.4byte	0xf5a
 4405 0f53 09       		.uleb128 0x9
 4406 0f54 01       		.uleb128 0x1
 4407 0f55 50       		.byte	0x50
 4408 0f56 02       		.uleb128 0x2
 4409 0f57 75       		.byte	0x75
 4410 0f58 00       		.sleb128 0
 4411 0f59 00       		.byte	0
 4412 0f5a 08       		.uleb128 0x8
 4413 0f5b B6000000 		.4byte	.LVL31
 4414 0f5f 411C0000 		.4byte	0x1c41
 4415 0f63 6E0F0000 		.4byte	0xf6e
 4416 0f67 09       		.uleb128 0x9
 4417 0f68 01       		.uleb128 0x1
 4418 0f69 50       		.byte	0x50
 4419 0f6a 02       		.uleb128 0x2
 4420 0f6b 75       		.byte	0x75
 4421 0f6c 00       		.sleb128 0
 4422 0f6d 00       		.byte	0
 4423 0f6e 06       		.uleb128 0x6
 4424 0f6f BA000000 		.4byte	.LVL32
 4425 0f73 4C1C0000 		.4byte	0x1c4c
ARM GAS  C:\Users\Blayke\AppData\Local\Temp\ccFauHWb.s 			page 96


 4426 0f77 06       		.uleb128 0x6
 4427 0f78 BE000000 		.4byte	.LVL33
 4428 0f7c 571C0000 		.4byte	0x1c57
 4429 0f80 06       		.uleb128 0x6
 4430 0f81 C2000000 		.4byte	.LVL34
 4431 0f85 621C0000 		.4byte	0x1c62
 4432 0f89 06       		.uleb128 0x6
 4433 0f8a C6000000 		.4byte	.LVL35
 4434 0f8e 6D1C0000 		.4byte	0x1c6d
 4435 0f92 06       		.uleb128 0x6
 4436 0f93 D0000000 		.4byte	.LVL36
 4437 0f97 781C0000 		.4byte	0x1c78
 4438 0f9b 06       		.uleb128 0x6
 4439 0f9c D4000000 		.4byte	.LVL37
 4440 0fa0 831C0000 		.4byte	0x1c83
 4441 0fa4 08       		.uleb128 0x8
 4442 0fa5 DA000000 		.4byte	.LVL38
 4443 0fa9 8E1C0000 		.4byte	0x1c8e
 4444 0fad BB0F0000 		.4byte	0xfbb
 4445 0fb1 09       		.uleb128 0x9
 4446 0fb2 01       		.uleb128 0x1
 4447 0fb3 50       		.byte	0x50
 4448 0fb4 05       		.uleb128 0x5
 4449 0fb5 03       		.byte	0x3
 4450 0fb6 00000000 		.4byte	TIH
 4451 0fba 00       		.byte	0
 4452 0fbb 08       		.uleb128 0x8
 4453 0fbc E0000000 		.4byte	.LVL39
 4454 0fc0 991C0000 		.4byte	0x1c99
 4455 0fc4 D20F0000 		.4byte	0xfd2
 4456 0fc8 09       		.uleb128 0x9
 4457 0fc9 01       		.uleb128 0x1
 4458 0fca 50       		.byte	0x50
 4459 0fcb 05       		.uleb128 0x5
 4460 0fcc 03       		.byte	0x3
 4461 0fcd 00000000 		.4byte	StartIH
 4462 0fd1 00       		.byte	0
 4463 0fd2 08       		.uleb128 0x8
 4464 0fd3 EA000000 		.4byte	.LVL40
 4465 0fd7 CB1A0000 		.4byte	0x1acb
 4466 0fdb E90F0000 		.4byte	0xfe9
 4467 0fdf 09       		.uleb128 0x9
 4468 0fe0 01       		.uleb128 0x1
 4469 0fe1 50       		.byte	0x50
 4470 0fe2 05       		.uleb128 0x5
 4471 0fe3 03       		.byte	0x3
 4472 0fe4 30000000 		.4byte	.LC2
 4473 0fe8 00       		.byte	0
 4474 0fe9 06       		.uleb128 0x6
 4475 0fea EE000000 		.4byte	.LVL41
 4476 0fee A41C0000 		.4byte	0x1ca4
 4477 0ff2 06       		.uleb128 0x6
 4478 0ff3 F2000000 		.4byte	.LVL42
 4479 0ff7 A41C0000 		.4byte	0x1ca4
 4480 0ffb 06       		.uleb128 0x6
 4481 0ffc F6000000 		.4byte	.LVL43
 4482 1000 A41C0000 		.4byte	0x1ca4
ARM GAS  C:\Users\Blayke\AppData\Local\Temp\ccFauHWb.s 			page 97


 4483 1004 06       		.uleb128 0x6
 4484 1005 FA000000 		.4byte	.LVL44
 4485 1009 AF1C0000 		.4byte	0x1caf
 4486 100d 06       		.uleb128 0x6
 4487 100e FE000000 		.4byte	.LVL45
 4488 1012 BA1C0000 		.4byte	0x1cba
 4489 1016 08       		.uleb128 0x8
 4490 1017 04010000 		.4byte	.LVL46
 4491 101b C51C0000 		.4byte	0x1cc5
 4492 101f 2A100000 		.4byte	0x102a
 4493 1023 09       		.uleb128 0x9
 4494 1024 01       		.uleb128 0x1
 4495 1025 50       		.byte	0x50
 4496 1026 02       		.uleb128 0x2
 4497 1027 75       		.byte	0x75
 4498 1028 00       		.sleb128 0
 4499 1029 00       		.byte	0
 4500 102a 08       		.uleb128 0x8
 4501 102b 04060000 		.4byte	.LVL157
 4502 102f 021B0000 		.4byte	0x1b02
 4503 1033 5B100000 		.4byte	0x105b
 4504 1037 09       		.uleb128 0x9
 4505 1038 01       		.uleb128 0x1
 4506 1039 50       		.byte	0x50
 4507 103a 02       		.uleb128 0x2
 4508 103b 08       		.byte	0x8
 4509 103c AF       		.byte	0xaf
 4510 103d 09       		.uleb128 0x9
 4511 103e 01       		.uleb128 0x1
 4512 103f 51       		.byte	0x51
 4513 1040 01       		.uleb128 0x1
 4514 1041 30       		.byte	0x30
 4515 1042 09       		.uleb128 0x9
 4516 1043 01       		.uleb128 0x1
 4517 1044 52       		.byte	0x52
 4518 1045 01       		.uleb128 0x1
 4519 1046 35       		.byte	0x35
 4520 1047 09       		.uleb128 0x9
 4521 1048 01       		.uleb128 0x1
 4522 1049 53       		.byte	0x53
 4523 104a 01       		.uleb128 0x1
 4524 104b 30       		.byte	0x30
 4525 104c 09       		.uleb128 0x9
 4526 104d 02       		.uleb128 0x2
 4527 104e 7D       		.byte	0x7d
 4528 104f 00       		.sleb128 0
 4529 1050 02       		.uleb128 0x2
 4530 1051 75       		.byte	0x75
 4531 1052 00       		.sleb128 0
 4532 1053 09       		.uleb128 0x9
 4533 1054 02       		.uleb128 0x2
 4534 1055 7D       		.byte	0x7d
 4535 1056 04       		.sleb128 4
 4536 1057 02       		.uleb128 0x2
 4537 1058 74       		.byte	0x74
 4538 1059 00       		.sleb128 0
 4539 105a 00       		.byte	0
ARM GAS  C:\Users\Blayke\AppData\Local\Temp\ccFauHWb.s 			page 98


 4540 105b 08       		.uleb128 0x8
 4541 105c 0A060000 		.4byte	.LVL158
 4542 1060 F71A0000 		.4byte	0x1af7
 4543 1064 6E100000 		.4byte	0x106e
 4544 1068 09       		.uleb128 0x9
 4545 1069 01       		.uleb128 0x1
 4546 106a 50       		.byte	0x50
 4547 106b 01       		.uleb128 0x1
 4548 106c 37       		.byte	0x37
 4549 106d 00       		.byte	0
 4550 106e 08       		.uleb128 0x8
 4551 106f 12060000 		.4byte	.LVL159
 4552 1073 2E1B0000 		.4byte	0x1b2e
 4553 1077 87100000 		.4byte	0x1087
 4554 107b 09       		.uleb128 0x9
 4555 107c 01       		.uleb128 0x1
 4556 107d 50       		.byte	0x50
 4557 107e 01       		.uleb128 0x1
 4558 107f 30       		.byte	0x30
 4559 1080 09       		.uleb128 0x9
 4560 1081 01       		.uleb128 0x1
 4561 1082 51       		.byte	0x51
 4562 1083 02       		.uleb128 0x2
 4563 1084 75       		.byte	0x75
 4564 1085 00       		.sleb128 0
 4565 1086 00       		.byte	0
 4566 1087 08       		.uleb128 0x8
 4567 1088 2E060000 		.4byte	.LVL160
 4568 108c 021B0000 		.4byte	0x1b02
 4569 1090 B3100000 		.4byte	0x10b3
 4570 1094 09       		.uleb128 0x9
 4571 1095 01       		.uleb128 0x1
 4572 1096 51       		.byte	0x51
 4573 1097 02       		.uleb128 0x2
 4574 1098 74       		.byte	0x74
 4575 1099 00       		.sleb128 0
 4576 109a 09       		.uleb128 0x9
 4577 109b 01       		.uleb128 0x1
 4578 109c 52       		.byte	0x52
 4579 109d 01       		.uleb128 0x1
 4580 109e 34       		.byte	0x34
 4581 109f 09       		.uleb128 0x9
 4582 10a0 01       		.uleb128 0x1
 4583 10a1 53       		.byte	0x53
 4584 10a2 01       		.uleb128 0x1
 4585 10a3 30       		.byte	0x30
 4586 10a4 09       		.uleb128 0x9
 4587 10a5 02       		.uleb128 0x2
 4588 10a6 7D       		.byte	0x7d
 4589 10a7 00       		.sleb128 0
 4590 10a8 02       		.uleb128 0x2
 4591 10a9 75       		.byte	0x75
 4592 10aa 00       		.sleb128 0
 4593 10ab 09       		.uleb128 0x9
 4594 10ac 02       		.uleb128 0x2
 4595 10ad 7D       		.byte	0x7d
 4596 10ae 04       		.sleb128 4
ARM GAS  C:\Users\Blayke\AppData\Local\Temp\ccFauHWb.s 			page 99


 4597 10af 02       		.uleb128 0x2
 4598 10b0 74       		.byte	0x74
 4599 10b1 00       		.sleb128 0
 4600 10b2 00       		.byte	0
 4601 10b3 08       		.uleb128 0x8
 4602 10b4 34060000 		.4byte	.LVL161
 4603 10b8 F71A0000 		.4byte	0x1af7
 4604 10bc C6100000 		.4byte	0x10c6
 4605 10c0 09       		.uleb128 0x9
 4606 10c1 01       		.uleb128 0x1
 4607 10c2 50       		.byte	0x50
 4608 10c3 01       		.uleb128 0x1
 4609 10c4 37       		.byte	0x37
 4610 10c5 00       		.byte	0
 4611 10c6 08       		.uleb128 0x8
 4612 10c7 3C060000 		.4byte	.LVL162
 4613 10cb 2E1B0000 		.4byte	0x1b2e
 4614 10cf DF100000 		.4byte	0x10df
 4615 10d3 09       		.uleb128 0x9
 4616 10d4 01       		.uleb128 0x1
 4617 10d5 50       		.byte	0x50
 4618 10d6 01       		.uleb128 0x1
 4619 10d7 33       		.byte	0x33
 4620 10d8 09       		.uleb128 0x9
 4621 10d9 01       		.uleb128 0x1
 4622 10da 51       		.byte	0x51
 4623 10db 02       		.uleb128 0x2
 4624 10dc 75       		.byte	0x75
 4625 10dd 00       		.sleb128 0
 4626 10de 00       		.byte	0
 4627 10df 08       		.uleb128 0x8
 4628 10e0 4C060000 		.4byte	.LVL163
 4629 10e4 021B0000 		.4byte	0x1b02
 4630 10e8 11110000 		.4byte	0x1111
 4631 10ec 09       		.uleb128 0x9
 4632 10ed 01       		.uleb128 0x1
 4633 10ee 50       		.byte	0x50
 4634 10ef 02       		.uleb128 0x2
 4635 10f0 08       		.byte	0x8
 4636 10f1 96       		.byte	0x96
 4637 10f2 09       		.uleb128 0x9
 4638 10f3 01       		.uleb128 0x1
 4639 10f4 51       		.byte	0x51
 4640 10f5 02       		.uleb128 0x2
 4641 10f6 74       		.byte	0x74
 4642 10f7 00       		.sleb128 0
 4643 10f8 09       		.uleb128 0x9
 4644 10f9 01       		.uleb128 0x1
 4645 10fa 52       		.byte	0x52
 4646 10fb 01       		.uleb128 0x1
 4647 10fc 34       		.byte	0x34
 4648 10fd 09       		.uleb128 0x9
 4649 10fe 01       		.uleb128 0x1
 4650 10ff 53       		.byte	0x53
 4651 1100 01       		.uleb128 0x1
 4652 1101 36       		.byte	0x36
 4653 1102 09       		.uleb128 0x9
ARM GAS  C:\Users\Blayke\AppData\Local\Temp\ccFauHWb.s 			page 100


 4654 1103 02       		.uleb128 0x2
 4655 1104 7D       		.byte	0x7d
 4656 1105 00       		.sleb128 0
 4657 1106 02       		.uleb128 0x2
 4658 1107 75       		.byte	0x75
 4659 1108 00       		.sleb128 0
 4660 1109 09       		.uleb128 0x9
 4661 110a 02       		.uleb128 0x2
 4662 110b 7D       		.byte	0x7d
 4663 110c 04       		.sleb128 4
 4664 110d 02       		.uleb128 0x2
 4665 110e 74       		.byte	0x74
 4666 110f 00       		.sleb128 0
 4667 1110 00       		.byte	0
 4668 1111 08       		.uleb128 0x8
 4669 1112 B0060000 		.4byte	.LVL164
 4670 1116 021B0000 		.4byte	0x1b02
 4671 111a 41110000 		.4byte	0x1141
 4672 111e 09       		.uleb128 0x9
 4673 111f 01       		.uleb128 0x1
 4674 1120 50       		.byte	0x50
 4675 1121 01       		.uleb128 0x1
 4676 1122 3A       		.byte	0x3a
 4677 1123 09       		.uleb128 0x9
 4678 1124 01       		.uleb128 0x1
 4679 1125 51       		.byte	0x51
 4680 1126 01       		.uleb128 0x1
 4681 1127 30       		.byte	0x30
 4682 1128 09       		.uleb128 0x9
 4683 1129 01       		.uleb128 0x1
 4684 112a 52       		.byte	0x52
 4685 112b 01       		.uleb128 0x1
 4686 112c 34       		.byte	0x34
 4687 112d 09       		.uleb128 0x9
 4688 112e 01       		.uleb128 0x1
 4689 112f 53       		.byte	0x53
 4690 1130 01       		.uleb128 0x1
 4691 1131 35       		.byte	0x35
 4692 1132 09       		.uleb128 0x9
 4693 1133 02       		.uleb128 0x2
 4694 1134 7D       		.byte	0x7d
 4695 1135 00       		.sleb128 0
 4696 1136 02       		.uleb128 0x2
 4697 1137 75       		.byte	0x75
 4698 1138 00       		.sleb128 0
 4699 1139 09       		.uleb128 0x9
 4700 113a 02       		.uleb128 0x2
 4701 113b 7D       		.byte	0x7d
 4702 113c 04       		.sleb128 4
 4703 113d 02       		.uleb128 0x2
 4704 113e 74       		.byte	0x74
 4705 113f 00       		.sleb128 0
 4706 1140 00       		.byte	0
 4707 1141 08       		.uleb128 0x8
 4708 1142 B6060000 		.4byte	.LVL165
 4709 1146 F71A0000 		.4byte	0x1af7
 4710 114a 54110000 		.4byte	0x1154
ARM GAS  C:\Users\Blayke\AppData\Local\Temp\ccFauHWb.s 			page 101


 4711 114e 09       		.uleb128 0x9
 4712 114f 01       		.uleb128 0x1
 4713 1150 50       		.byte	0x50
 4714 1151 01       		.uleb128 0x1
 4715 1152 37       		.byte	0x37
 4716 1153 00       		.byte	0
 4717 1154 08       		.uleb128 0x8
 4718 1155 BE060000 		.4byte	.LVL166
 4719 1159 2E1B0000 		.4byte	0x1b2e
 4720 115d 6D110000 		.4byte	0x116d
 4721 1161 09       		.uleb128 0x9
 4722 1162 01       		.uleb128 0x1
 4723 1163 50       		.byte	0x50
 4724 1164 01       		.uleb128 0x1
 4725 1165 30       		.byte	0x30
 4726 1166 09       		.uleb128 0x9
 4727 1167 01       		.uleb128 0x1
 4728 1168 51       		.byte	0x51
 4729 1169 02       		.uleb128 0x2
 4730 116a 75       		.byte	0x75
 4731 116b 00       		.sleb128 0
 4732 116c 00       		.byte	0
 4733 116d 08       		.uleb128 0x8
 4734 116e C4060000 		.4byte	.LVL167
 4735 1172 F71A0000 		.4byte	0x1af7
 4736 1176 80110000 		.4byte	0x1180
 4737 117a 09       		.uleb128 0x9
 4738 117b 01       		.uleb128 0x1
 4739 117c 50       		.byte	0x50
 4740 117d 01       		.uleb128 0x1
 4741 117e 37       		.byte	0x37
 4742 117f 00       		.byte	0
 4743 1180 08       		.uleb128 0x8
 4744 1181 E0060000 		.4byte	.LVL168
 4745 1185 021B0000 		.4byte	0x1b02
 4746 1189 AC110000 		.4byte	0x11ac
 4747 118d 09       		.uleb128 0x9
 4748 118e 01       		.uleb128 0x1
 4749 118f 51       		.byte	0x51
 4750 1190 02       		.uleb128 0x2
 4751 1191 74       		.byte	0x74
 4752 1192 00       		.sleb128 0
 4753 1193 09       		.uleb128 0x9
 4754 1194 01       		.uleb128 0x1
 4755 1195 52       		.byte	0x52
 4756 1196 01       		.uleb128 0x1
 4757 1197 34       		.byte	0x34
 4758 1198 09       		.uleb128 0x9
 4759 1199 01       		.uleb128 0x1
 4760 119a 53       		.byte	0x53
 4761 119b 01       		.uleb128 0x1
 4762 119c 30       		.byte	0x30
 4763 119d 09       		.uleb128 0x9
 4764 119e 02       		.uleb128 0x2
 4765 119f 7D       		.byte	0x7d
 4766 11a0 00       		.sleb128 0
 4767 11a1 02       		.uleb128 0x2
ARM GAS  C:\Users\Blayke\AppData\Local\Temp\ccFauHWb.s 			page 102


 4768 11a2 75       		.byte	0x75
 4769 11a3 00       		.sleb128 0
 4770 11a4 09       		.uleb128 0x9
 4771 11a5 02       		.uleb128 0x2
 4772 11a6 7D       		.byte	0x7d
 4773 11a7 04       		.sleb128 4
 4774 11a8 02       		.uleb128 0x2
 4775 11a9 74       		.byte	0x74
 4776 11aa 00       		.sleb128 0
 4777 11ab 00       		.byte	0
 4778 11ac 08       		.uleb128 0x8
 4779 11ad E6060000 		.4byte	.LVL169
 4780 11b1 F71A0000 		.4byte	0x1af7
 4781 11b5 BF110000 		.4byte	0x11bf
 4782 11b9 09       		.uleb128 0x9
 4783 11ba 01       		.uleb128 0x1
 4784 11bb 50       		.byte	0x50
 4785 11bc 01       		.uleb128 0x1
 4786 11bd 37       		.byte	0x37
 4787 11be 00       		.byte	0
 4788 11bf 08       		.uleb128 0x8
 4789 11c0 EE060000 		.4byte	.LVL170
 4790 11c4 2E1B0000 		.4byte	0x1b2e
 4791 11c8 D9110000 		.4byte	0x11d9
 4792 11cc 09       		.uleb128 0x9
 4793 11cd 01       		.uleb128 0x1
 4794 11ce 50       		.byte	0x50
 4795 11cf 02       		.uleb128 0x2
 4796 11d0 74       		.byte	0x74
 4797 11d1 00       		.sleb128 0
 4798 11d2 09       		.uleb128 0x9
 4799 11d3 01       		.uleb128 0x1
 4800 11d4 51       		.byte	0x51
 4801 11d5 02       		.uleb128 0x2
 4802 11d6 75       		.byte	0x75
 4803 11d7 00       		.sleb128 0
 4804 11d8 00       		.byte	0
 4805 11d9 08       		.uleb128 0x8
 4806 11da FE060000 		.4byte	.LVL171
 4807 11de 021B0000 		.4byte	0x1b02
 4808 11e2 0B120000 		.4byte	0x120b
 4809 11e6 09       		.uleb128 0x9
 4810 11e7 01       		.uleb128 0x1
 4811 11e8 50       		.byte	0x50
 4812 11e9 02       		.uleb128 0x2
 4813 11ea 08       		.byte	0x8
 4814 11eb 96       		.byte	0x96
 4815 11ec 09       		.uleb128 0x9
 4816 11ed 01       		.uleb128 0x1
 4817 11ee 51       		.byte	0x51
 4818 11ef 02       		.uleb128 0x2
 4819 11f0 74       		.byte	0x74
 4820 11f1 00       		.sleb128 0
 4821 11f2 09       		.uleb128 0x9
 4822 11f3 01       		.uleb128 0x1
 4823 11f4 52       		.byte	0x52
 4824 11f5 01       		.uleb128 0x1
ARM GAS  C:\Users\Blayke\AppData\Local\Temp\ccFauHWb.s 			page 103


 4825 11f6 34       		.byte	0x34
 4826 11f7 09       		.uleb128 0x9
 4827 11f8 01       		.uleb128 0x1
 4828 11f9 53       		.byte	0x53
 4829 11fa 01       		.uleb128 0x1
 4830 11fb 36       		.byte	0x36
 4831 11fc 09       		.uleb128 0x9
 4832 11fd 02       		.uleb128 0x2
 4833 11fe 7D       		.byte	0x7d
 4834 11ff 00       		.sleb128 0
 4835 1200 02       		.uleb128 0x2
 4836 1201 75       		.byte	0x75
 4837 1202 00       		.sleb128 0
 4838 1203 09       		.uleb128 0x9
 4839 1204 02       		.uleb128 0x2
 4840 1205 7D       		.byte	0x7d
 4841 1206 04       		.sleb128 4
 4842 1207 02       		.uleb128 0x2
 4843 1208 74       		.byte	0x74
 4844 1209 00       		.sleb128 0
 4845 120a 00       		.byte	0
 4846 120b 08       		.uleb128 0x8
 4847 120c 22070000 		.4byte	.LVL172
 4848 1210 021B0000 		.4byte	0x1b02
 4849 1214 36120000 		.4byte	0x1236
 4850 1218 09       		.uleb128 0x9
 4851 1219 01       		.uleb128 0x1
 4852 121a 51       		.byte	0x51
 4853 121b 01       		.uleb128 0x1
 4854 121c 30       		.byte	0x30
 4855 121d 09       		.uleb128 0x9
 4856 121e 01       		.uleb128 0x1
 4857 121f 52       		.byte	0x52
 4858 1220 01       		.uleb128 0x1
 4859 1221 35       		.byte	0x35
 4860 1222 09       		.uleb128 0x9
 4861 1223 01       		.uleb128 0x1
 4862 1224 53       		.byte	0x53
 4863 1225 01       		.uleb128 0x1
 4864 1226 30       		.byte	0x30
 4865 1227 09       		.uleb128 0x9
 4866 1228 02       		.uleb128 0x2
 4867 1229 7D       		.byte	0x7d
 4868 122a 00       		.sleb128 0
 4869 122b 02       		.uleb128 0x2
 4870 122c 75       		.byte	0x75
 4871 122d 00       		.sleb128 0
 4872 122e 09       		.uleb128 0x9
 4873 122f 02       		.uleb128 0x2
 4874 1230 7D       		.byte	0x7d
 4875 1231 04       		.sleb128 4
 4876 1232 02       		.uleb128 0x2
 4877 1233 74       		.byte	0x74
 4878 1234 00       		.sleb128 0
 4879 1235 00       		.byte	0
 4880 1236 08       		.uleb128 0x8
 4881 1237 28070000 		.4byte	.LVL173
ARM GAS  C:\Users\Blayke\AppData\Local\Temp\ccFauHWb.s 			page 104


 4882 123b F71A0000 		.4byte	0x1af7
 4883 123f 49120000 		.4byte	0x1249
 4884 1243 09       		.uleb128 0x9
 4885 1244 01       		.uleb128 0x1
 4886 1245 50       		.byte	0x50
 4887 1246 01       		.uleb128 0x1
 4888 1247 37       		.byte	0x37
 4889 1248 00       		.byte	0
 4890 1249 08       		.uleb128 0x8
 4891 124a 30070000 		.4byte	.LVL174
 4892 124e 2E1B0000 		.4byte	0x1b2e
 4893 1252 62120000 		.4byte	0x1262
 4894 1256 09       		.uleb128 0x9
 4895 1257 01       		.uleb128 0x1
 4896 1258 50       		.byte	0x50
 4897 1259 01       		.uleb128 0x1
 4898 125a 30       		.byte	0x30
 4899 125b 09       		.uleb128 0x9
 4900 125c 01       		.uleb128 0x1
 4901 125d 51       		.byte	0x51
 4902 125e 02       		.uleb128 0x2
 4903 125f 75       		.byte	0x75
 4904 1260 00       		.sleb128 0
 4905 1261 00       		.byte	0
 4906 1262 08       		.uleb128 0x8
 4907 1263 4A070000 		.4byte	.LVL175
 4908 1267 021B0000 		.4byte	0x1b02
 4909 126b 8E120000 		.4byte	0x128e
 4910 126f 09       		.uleb128 0x9
 4911 1270 01       		.uleb128 0x1
 4912 1271 51       		.byte	0x51
 4913 1272 02       		.uleb128 0x2
 4914 1273 74       		.byte	0x74
 4915 1274 00       		.sleb128 0
 4916 1275 09       		.uleb128 0x9
 4917 1276 01       		.uleb128 0x1
 4918 1277 52       		.byte	0x52
 4919 1278 01       		.uleb128 0x1
 4920 1279 34       		.byte	0x34
 4921 127a 09       		.uleb128 0x9
 4922 127b 01       		.uleb128 0x1
 4923 127c 53       		.byte	0x53
 4924 127d 01       		.uleb128 0x1
 4925 127e 30       		.byte	0x30
 4926 127f 09       		.uleb128 0x9
 4927 1280 02       		.uleb128 0x2
 4928 1281 7D       		.byte	0x7d
 4929 1282 00       		.sleb128 0
 4930 1283 02       		.uleb128 0x2
 4931 1284 75       		.byte	0x75
 4932 1285 00       		.sleb128 0
 4933 1286 09       		.uleb128 0x9
 4934 1287 02       		.uleb128 0x2
 4935 1288 7D       		.byte	0x7d
 4936 1289 04       		.sleb128 4
 4937 128a 02       		.uleb128 0x2
 4938 128b 74       		.byte	0x74
ARM GAS  C:\Users\Blayke\AppData\Local\Temp\ccFauHWb.s 			page 105


 4939 128c 00       		.sleb128 0
 4940 128d 00       		.byte	0
 4941 128e 08       		.uleb128 0x8
 4942 128f 50070000 		.4byte	.LVL176
 4943 1293 F71A0000 		.4byte	0x1af7
 4944 1297 A1120000 		.4byte	0x12a1
 4945 129b 09       		.uleb128 0x9
 4946 129c 01       		.uleb128 0x1
 4947 129d 50       		.byte	0x50
 4948 129e 01       		.uleb128 0x1
 4949 129f 37       		.byte	0x37
 4950 12a0 00       		.byte	0
 4951 12a1 08       		.uleb128 0x8
 4952 12a2 58070000 		.4byte	.LVL177
 4953 12a6 2E1B0000 		.4byte	0x1b2e
 4954 12aa BB120000 		.4byte	0x12bb
 4955 12ae 09       		.uleb128 0x9
 4956 12af 01       		.uleb128 0x1
 4957 12b0 50       		.byte	0x50
 4958 12b1 02       		.uleb128 0x2
 4959 12b2 74       		.byte	0x74
 4960 12b3 00       		.sleb128 0
 4961 12b4 09       		.uleb128 0x9
 4962 12b5 01       		.uleb128 0x1
 4963 12b6 51       		.byte	0x51
 4964 12b7 02       		.uleb128 0x2
 4965 12b8 75       		.byte	0x75
 4966 12b9 00       		.sleb128 0
 4967 12ba 00       		.byte	0
 4968 12bb 08       		.uleb128 0x8
 4969 12bc 68070000 		.4byte	.LVL178
 4970 12c0 021B0000 		.4byte	0x1b02
 4971 12c4 ED120000 		.4byte	0x12ed
 4972 12c8 09       		.uleb128 0x9
 4973 12c9 01       		.uleb128 0x1
 4974 12ca 50       		.byte	0x50
 4975 12cb 02       		.uleb128 0x2
 4976 12cc 08       		.byte	0x8
 4977 12cd 96       		.byte	0x96
 4978 12ce 09       		.uleb128 0x9
 4979 12cf 01       		.uleb128 0x1
 4980 12d0 51       		.byte	0x51
 4981 12d1 02       		.uleb128 0x2
 4982 12d2 74       		.byte	0x74
 4983 12d3 00       		.sleb128 0
 4984 12d4 09       		.uleb128 0x9
 4985 12d5 01       		.uleb128 0x1
 4986 12d6 52       		.byte	0x52
 4987 12d7 01       		.uleb128 0x1
 4988 12d8 34       		.byte	0x34
 4989 12d9 09       		.uleb128 0x9
 4990 12da 01       		.uleb128 0x1
 4991 12db 53       		.byte	0x53
 4992 12dc 01       		.uleb128 0x1
 4993 12dd 36       		.byte	0x36
 4994 12de 09       		.uleb128 0x9
 4995 12df 02       		.uleb128 0x2
ARM GAS  C:\Users\Blayke\AppData\Local\Temp\ccFauHWb.s 			page 106


 4996 12e0 7D       		.byte	0x7d
 4997 12e1 00       		.sleb128 0
 4998 12e2 02       		.uleb128 0x2
 4999 12e3 75       		.byte	0x75
 5000 12e4 00       		.sleb128 0
 5001 12e5 09       		.uleb128 0x9
 5002 12e6 02       		.uleb128 0x2
 5003 12e7 7D       		.byte	0x7d
 5004 12e8 04       		.sleb128 4
 5005 12e9 02       		.uleb128 0x2
 5006 12ea 74       		.byte	0x74
 5007 12eb 00       		.sleb128 0
 5008 12ec 00       		.byte	0
 5009 12ed 08       		.uleb128 0x8
 5010 12ee 8C070000 		.4byte	.LVL179
 5011 12f2 021B0000 		.4byte	0x1b02
 5012 12f6 18130000 		.4byte	0x1318
 5013 12fa 09       		.uleb128 0x9
 5014 12fb 01       		.uleb128 0x1
 5015 12fc 51       		.byte	0x51
 5016 12fd 01       		.uleb128 0x1
 5017 12fe 30       		.byte	0x30
 5018 12ff 09       		.uleb128 0x9
 5019 1300 01       		.uleb128 0x1
 5020 1301 52       		.byte	0x52
 5021 1302 01       		.uleb128 0x1
 5022 1303 35       		.byte	0x35
 5023 1304 09       		.uleb128 0x9
 5024 1305 01       		.uleb128 0x1
 5025 1306 53       		.byte	0x53
 5026 1307 01       		.uleb128 0x1
 5027 1308 30       		.byte	0x30
 5028 1309 09       		.uleb128 0x9
 5029 130a 02       		.uleb128 0x2
 5030 130b 7D       		.byte	0x7d
 5031 130c 00       		.sleb128 0
 5032 130d 02       		.uleb128 0x2
 5033 130e 75       		.byte	0x75
 5034 130f 00       		.sleb128 0
 5035 1310 09       		.uleb128 0x9
 5036 1311 02       		.uleb128 0x2
 5037 1312 7D       		.byte	0x7d
 5038 1313 04       		.sleb128 4
 5039 1314 02       		.uleb128 0x2
 5040 1315 74       		.byte	0x74
 5041 1316 00       		.sleb128 0
 5042 1317 00       		.byte	0
 5043 1318 08       		.uleb128 0x8
 5044 1319 92070000 		.4byte	.LVL180
 5045 131d F71A0000 		.4byte	0x1af7
 5046 1321 2B130000 		.4byte	0x132b
 5047 1325 09       		.uleb128 0x9
 5048 1326 01       		.uleb128 0x1
 5049 1327 50       		.byte	0x50
 5050 1328 01       		.uleb128 0x1
 5051 1329 37       		.byte	0x37
 5052 132a 00       		.byte	0
ARM GAS  C:\Users\Blayke\AppData\Local\Temp\ccFauHWb.s 			page 107


 5053 132b 08       		.uleb128 0x8
 5054 132c 9A070000 		.4byte	.LVL181
 5055 1330 2E1B0000 		.4byte	0x1b2e
 5056 1334 44130000 		.4byte	0x1344
 5057 1338 09       		.uleb128 0x9
 5058 1339 01       		.uleb128 0x1
 5059 133a 50       		.byte	0x50
 5060 133b 01       		.uleb128 0x1
 5061 133c 30       		.byte	0x30
 5062 133d 09       		.uleb128 0x9
 5063 133e 01       		.uleb128 0x1
 5064 133f 51       		.byte	0x51
 5065 1340 02       		.uleb128 0x2
 5066 1341 75       		.byte	0x75
 5067 1342 00       		.sleb128 0
 5068 1343 00       		.byte	0
 5069 1344 08       		.uleb128 0x8
 5070 1345 B4070000 		.4byte	.LVL182
 5071 1349 021B0000 		.4byte	0x1b02
 5072 134d 70130000 		.4byte	0x1370
 5073 1351 09       		.uleb128 0x9
 5074 1352 01       		.uleb128 0x1
 5075 1353 51       		.byte	0x51
 5076 1354 02       		.uleb128 0x2
 5077 1355 74       		.byte	0x74
 5078 1356 00       		.sleb128 0
 5079 1357 09       		.uleb128 0x9
 5080 1358 01       		.uleb128 0x1
 5081 1359 52       		.byte	0x52
 5082 135a 01       		.uleb128 0x1
 5083 135b 34       		.byte	0x34
 5084 135c 09       		.uleb128 0x9
 5085 135d 01       		.uleb128 0x1
 5086 135e 53       		.byte	0x53
 5087 135f 01       		.uleb128 0x1
 5088 1360 30       		.byte	0x30
 5089 1361 09       		.uleb128 0x9
 5090 1362 02       		.uleb128 0x2
 5091 1363 7D       		.byte	0x7d
 5092 1364 00       		.sleb128 0
 5093 1365 02       		.uleb128 0x2
 5094 1366 75       		.byte	0x75
 5095 1367 00       		.sleb128 0
 5096 1368 09       		.uleb128 0x9
 5097 1369 02       		.uleb128 0x2
 5098 136a 7D       		.byte	0x7d
 5099 136b 04       		.sleb128 4
 5100 136c 02       		.uleb128 0x2
 5101 136d 74       		.byte	0x74
 5102 136e 00       		.sleb128 0
 5103 136f 00       		.byte	0
 5104 1370 08       		.uleb128 0x8
 5105 1371 BA070000 		.4byte	.LVL183
 5106 1375 F71A0000 		.4byte	0x1af7
 5107 1379 83130000 		.4byte	0x1383
 5108 137d 09       		.uleb128 0x9
 5109 137e 01       		.uleb128 0x1
ARM GAS  C:\Users\Blayke\AppData\Local\Temp\ccFauHWb.s 			page 108


 5110 137f 50       		.byte	0x50
 5111 1380 01       		.uleb128 0x1
 5112 1381 37       		.byte	0x37
 5113 1382 00       		.byte	0
 5114 1383 08       		.uleb128 0x8
 5115 1384 C2070000 		.4byte	.LVL184
 5116 1388 2E1B0000 		.4byte	0x1b2e
 5117 138c 9C130000 		.4byte	0x139c
 5118 1390 09       		.uleb128 0x9
 5119 1391 01       		.uleb128 0x1
 5120 1392 50       		.byte	0x50
 5121 1393 01       		.uleb128 0x1
 5122 1394 33       		.byte	0x33
 5123 1395 09       		.uleb128 0x9
 5124 1396 01       		.uleb128 0x1
 5125 1397 51       		.byte	0x51
 5126 1398 02       		.uleb128 0x2
 5127 1399 75       		.byte	0x75
 5128 139a 00       		.sleb128 0
 5129 139b 00       		.byte	0
 5130 139c 08       		.uleb128 0x8
 5131 139d D2070000 		.4byte	.LVL185
 5132 13a1 021B0000 		.4byte	0x1b02
 5133 13a5 CE130000 		.4byte	0x13ce
 5134 13a9 09       		.uleb128 0x9
 5135 13aa 01       		.uleb128 0x1
 5136 13ab 50       		.byte	0x50
 5137 13ac 02       		.uleb128 0x2
 5138 13ad 08       		.byte	0x8
 5139 13ae 96       		.byte	0x96
 5140 13af 09       		.uleb128 0x9
 5141 13b0 01       		.uleb128 0x1
 5142 13b1 51       		.byte	0x51
 5143 13b2 02       		.uleb128 0x2
 5144 13b3 74       		.byte	0x74
 5145 13b4 00       		.sleb128 0
 5146 13b5 09       		.uleb128 0x9
 5147 13b6 01       		.uleb128 0x1
 5148 13b7 52       		.byte	0x52
 5149 13b8 01       		.uleb128 0x1
 5150 13b9 34       		.byte	0x34
 5151 13ba 09       		.uleb128 0x9
 5152 13bb 01       		.uleb128 0x1
 5153 13bc 53       		.byte	0x53
 5154 13bd 01       		.uleb128 0x1
 5155 13be 36       		.byte	0x36
 5156 13bf 09       		.uleb128 0x9
 5157 13c0 02       		.uleb128 0x2
 5158 13c1 7D       		.byte	0x7d
 5159 13c2 00       		.sleb128 0
 5160 13c3 02       		.uleb128 0x2
 5161 13c4 75       		.byte	0x75
 5162 13c5 00       		.sleb128 0
 5163 13c6 09       		.uleb128 0x9
 5164 13c7 02       		.uleb128 0x2
 5165 13c8 7D       		.byte	0x7d
 5166 13c9 04       		.sleb128 4
ARM GAS  C:\Users\Blayke\AppData\Local\Temp\ccFauHWb.s 			page 109


 5167 13ca 02       		.uleb128 0x2
 5168 13cb 74       		.byte	0x74
 5169 13cc 00       		.sleb128 0
 5170 13cd 00       		.byte	0
 5171 13ce 08       		.uleb128 0x8
 5172 13cf 40080000 		.4byte	.LVL193
 5173 13d3 021B0000 		.4byte	0x1b02
 5174 13d7 FF130000 		.4byte	0x13ff
 5175 13db 09       		.uleb128 0x9
 5176 13dc 01       		.uleb128 0x1
 5177 13dd 50       		.byte	0x50
 5178 13de 02       		.uleb128 0x2
 5179 13df 08       		.byte	0x8
 5180 13e0 32       		.byte	0x32
 5181 13e1 09       		.uleb128 0x9
 5182 13e2 01       		.uleb128 0x1
 5183 13e3 51       		.byte	0x51
 5184 13e4 01       		.uleb128 0x1
 5185 13e5 30       		.byte	0x30
 5186 13e6 09       		.uleb128 0x9
 5187 13e7 01       		.uleb128 0x1
 5188 13e8 52       		.byte	0x52
 5189 13e9 01       		.uleb128 0x1
 5190 13ea 34       		.byte	0x34
 5191 13eb 09       		.uleb128 0x9
 5192 13ec 01       		.uleb128 0x1
 5193 13ed 53       		.byte	0x53
 5194 13ee 01       		.uleb128 0x1
 5195 13ef 35       		.byte	0x35
 5196 13f0 09       		.uleb128 0x9
 5197 13f1 02       		.uleb128 0x2
 5198 13f2 7D       		.byte	0x7d
 5199 13f3 00       		.sleb128 0
 5200 13f4 02       		.uleb128 0x2
 5201 13f5 75       		.byte	0x75
 5202 13f6 00       		.sleb128 0
 5203 13f7 09       		.uleb128 0x9
 5204 13f8 02       		.uleb128 0x2
 5205 13f9 7D       		.byte	0x7d
 5206 13fa 04       		.sleb128 4
 5207 13fb 02       		.uleb128 0x2
 5208 13fc 74       		.byte	0x74
 5209 13fd 00       		.sleb128 0
 5210 13fe 00       		.byte	0
 5211 13ff 08       		.uleb128 0x8
 5212 1400 48080000 		.4byte	.LVL194
 5213 1404 2E1B0000 		.4byte	0x1b2e
 5214 1408 18140000 		.4byte	0x1418
 5215 140c 09       		.uleb128 0x9
 5216 140d 01       		.uleb128 0x1
 5217 140e 50       		.byte	0x50
 5218 140f 01       		.uleb128 0x1
 5219 1410 30       		.byte	0x30
 5220 1411 09       		.uleb128 0x9
 5221 1412 01       		.uleb128 0x1
 5222 1413 51       		.byte	0x51
 5223 1414 02       		.uleb128 0x2
ARM GAS  C:\Users\Blayke\AppData\Local\Temp\ccFauHWb.s 			page 110


 5224 1415 75       		.byte	0x75
 5225 1416 00       		.sleb128 0
 5226 1417 00       		.byte	0
 5227 1418 08       		.uleb128 0x8
 5228 1419 4E080000 		.4byte	.LVL195
 5229 141d F71A0000 		.4byte	0x1af7
 5230 1421 2B140000 		.4byte	0x142b
 5231 1425 09       		.uleb128 0x9
 5232 1426 01       		.uleb128 0x1
 5233 1427 50       		.byte	0x50
 5234 1428 01       		.uleb128 0x1
 5235 1429 37       		.byte	0x37
 5236 142a 00       		.byte	0
 5237 142b 08       		.uleb128 0x8
 5238 142c 5E080000 		.4byte	.LVL196
 5239 1430 021B0000 		.4byte	0x1b02
 5240 1434 5C140000 		.4byte	0x145c
 5241 1438 09       		.uleb128 0x9
 5242 1439 01       		.uleb128 0x1
 5243 143a 50       		.byte	0x50
 5244 143b 02       		.uleb128 0x2
 5245 143c 08       		.byte	0x8
 5246 143d 64       		.byte	0x64
 5247 143e 09       		.uleb128 0x9
 5248 143f 01       		.uleb128 0x1
 5249 1440 51       		.byte	0x51
 5250 1441 01       		.uleb128 0x1
 5251 1442 30       		.byte	0x30
 5252 1443 09       		.uleb128 0x9
 5253 1444 01       		.uleb128 0x1
 5254 1445 52       		.byte	0x52
 5255 1446 01       		.uleb128 0x1
 5256 1447 34       		.byte	0x34
 5257 1448 09       		.uleb128 0x9
 5258 1449 01       		.uleb128 0x1
 5259 144a 53       		.byte	0x53
 5260 144b 01       		.uleb128 0x1
 5261 144c 35       		.byte	0x35
 5262 144d 09       		.uleb128 0x9
 5263 144e 02       		.uleb128 0x2
 5264 144f 7D       		.byte	0x7d
 5265 1450 00       		.sleb128 0
 5266 1451 02       		.uleb128 0x2
 5267 1452 75       		.byte	0x75
 5268 1453 00       		.sleb128 0
 5269 1454 09       		.uleb128 0x9
 5270 1455 02       		.uleb128 0x2
 5271 1456 7D       		.byte	0x7d
 5272 1457 04       		.sleb128 4
 5273 1458 02       		.uleb128 0x2
 5274 1459 74       		.byte	0x74
 5275 145a 00       		.sleb128 0
 5276 145b 00       		.byte	0
 5277 145c 08       		.uleb128 0x8
 5278 145d 66080000 		.4byte	.LVL197
 5279 1461 2E1B0000 		.4byte	0x1b2e
 5280 1465 76140000 		.4byte	0x1476
ARM GAS  C:\Users\Blayke\AppData\Local\Temp\ccFauHWb.s 			page 111


 5281 1469 09       		.uleb128 0x9
 5282 146a 01       		.uleb128 0x1
 5283 146b 50       		.byte	0x50
 5284 146c 02       		.uleb128 0x2
 5285 146d 74       		.byte	0x74
 5286 146e 00       		.sleb128 0
 5287 146f 09       		.uleb128 0x9
 5288 1470 01       		.uleb128 0x1
 5289 1471 51       		.byte	0x51
 5290 1472 02       		.uleb128 0x2
 5291 1473 75       		.byte	0x75
 5292 1474 00       		.sleb128 0
 5293 1475 00       		.byte	0
 5294 1476 08       		.uleb128 0x8
 5295 1477 6C080000 		.4byte	.LVL198
 5296 147b F71A0000 		.4byte	0x1af7
 5297 147f 89140000 		.4byte	0x1489
 5298 1483 09       		.uleb128 0x9
 5299 1484 01       		.uleb128 0x1
 5300 1485 50       		.byte	0x50
 5301 1486 01       		.uleb128 0x1
 5302 1487 37       		.byte	0x37
 5303 1488 00       		.byte	0
 5304 1489 08       		.uleb128 0x8
 5305 148a 7C080000 		.4byte	.LVL199
 5306 148e 021B0000 		.4byte	0x1b02
 5307 1492 BB140000 		.4byte	0x14bb
 5308 1496 09       		.uleb128 0x9
 5309 1497 01       		.uleb128 0x1
 5310 1498 50       		.byte	0x50
 5311 1499 02       		.uleb128 0x2
 5312 149a 08       		.byte	0x8
 5313 149b AF       		.byte	0xaf
 5314 149c 09       		.uleb128 0x9
 5315 149d 01       		.uleb128 0x1
 5316 149e 51       		.byte	0x51
 5317 149f 02       		.uleb128 0x2
 5318 14a0 74       		.byte	0x74
 5319 14a1 00       		.sleb128 0
 5320 14a2 09       		.uleb128 0x9
 5321 14a3 01       		.uleb128 0x1
 5322 14a4 52       		.byte	0x52
 5323 14a5 01       		.uleb128 0x1
 5324 14a6 34       		.byte	0x34
 5325 14a7 09       		.uleb128 0x9
 5326 14a8 01       		.uleb128 0x1
 5327 14a9 53       		.byte	0x53
 5328 14aa 01       		.uleb128 0x1
 5329 14ab 30       		.byte	0x30
 5330 14ac 09       		.uleb128 0x9
 5331 14ad 02       		.uleb128 0x2
 5332 14ae 7D       		.byte	0x7d
 5333 14af 00       		.sleb128 0
 5334 14b0 02       		.uleb128 0x2
 5335 14b1 75       		.byte	0x75
 5336 14b2 00       		.sleb128 0
 5337 14b3 09       		.uleb128 0x9
ARM GAS  C:\Users\Blayke\AppData\Local\Temp\ccFauHWb.s 			page 112


 5338 14b4 02       		.uleb128 0x2
 5339 14b5 7D       		.byte	0x7d
 5340 14b6 04       		.sleb128 4
 5341 14b7 02       		.uleb128 0x2
 5342 14b8 74       		.byte	0x74
 5343 14b9 00       		.sleb128 0
 5344 14ba 00       		.byte	0
 5345 14bb 08       		.uleb128 0x8
 5346 14bc 82080000 		.4byte	.LVL200
 5347 14c0 F71A0000 		.4byte	0x1af7
 5348 14c4 CE140000 		.4byte	0x14ce
 5349 14c8 09       		.uleb128 0x9
 5350 14c9 01       		.uleb128 0x1
 5351 14ca 50       		.byte	0x50
 5352 14cb 01       		.uleb128 0x1
 5353 14cc 37       		.byte	0x37
 5354 14cd 00       		.byte	0
 5355 14ce 08       		.uleb128 0x8
 5356 14cf A8080000 		.4byte	.LVL201
 5357 14d3 021B0000 		.4byte	0x1b02
 5358 14d7 FE140000 		.4byte	0x14fe
 5359 14db 09       		.uleb128 0x9
 5360 14dc 01       		.uleb128 0x1
 5361 14dd 50       		.byte	0x50
 5362 14de 01       		.uleb128 0x1
 5363 14df 3A       		.byte	0x3a
 5364 14e0 09       		.uleb128 0x9
 5365 14e1 01       		.uleb128 0x1
 5366 14e2 51       		.byte	0x51
 5367 14e3 01       		.uleb128 0x1
 5368 14e4 30       		.byte	0x30
 5369 14e5 09       		.uleb128 0x9
 5370 14e6 01       		.uleb128 0x1
 5371 14e7 52       		.byte	0x52
 5372 14e8 01       		.uleb128 0x1
 5373 14e9 34       		.byte	0x34
 5374 14ea 09       		.uleb128 0x9
 5375 14eb 01       		.uleb128 0x1
 5376 14ec 53       		.byte	0x53
 5377 14ed 01       		.uleb128 0x1
 5378 14ee 35       		.byte	0x35
 5379 14ef 09       		.uleb128 0x9
 5380 14f0 02       		.uleb128 0x2
 5381 14f1 7D       		.byte	0x7d
 5382 14f2 00       		.sleb128 0
 5383 14f3 02       		.uleb128 0x2
 5384 14f4 75       		.byte	0x75
 5385 14f5 00       		.sleb128 0
 5386 14f6 09       		.uleb128 0x9
 5387 14f7 02       		.uleb128 0x2
 5388 14f8 7D       		.byte	0x7d
 5389 14f9 04       		.sleb128 4
 5390 14fa 02       		.uleb128 0x2
 5391 14fb 74       		.byte	0x74
 5392 14fc 00       		.sleb128 0
 5393 14fd 00       		.byte	0
 5394 14fe 08       		.uleb128 0x8
ARM GAS  C:\Users\Blayke\AppData\Local\Temp\ccFauHWb.s 			page 113


 5395 14ff B0080000 		.4byte	.LVL202
 5396 1503 2E1B0000 		.4byte	0x1b2e
 5397 1507 17150000 		.4byte	0x1517
 5398 150b 09       		.uleb128 0x9
 5399 150c 01       		.uleb128 0x1
 5400 150d 50       		.byte	0x50
 5401 150e 01       		.uleb128 0x1
 5402 150f 30       		.byte	0x30
 5403 1510 09       		.uleb128 0x9
 5404 1511 01       		.uleb128 0x1
 5405 1512 51       		.byte	0x51
 5406 1513 02       		.uleb128 0x2
 5407 1514 75       		.byte	0x75
 5408 1515 00       		.sleb128 0
 5409 1516 00       		.byte	0
 5410 1517 08       		.uleb128 0x8
 5411 1518 B6080000 		.4byte	.LVL203
 5412 151c F71A0000 		.4byte	0x1af7
 5413 1520 2A150000 		.4byte	0x152a
 5414 1524 09       		.uleb128 0x9
 5415 1525 01       		.uleb128 0x1
 5416 1526 50       		.byte	0x50
 5417 1527 01       		.uleb128 0x1
 5418 1528 37       		.byte	0x37
 5419 1529 00       		.byte	0
 5420 152a 08       		.uleb128 0x8
 5421 152b C6080000 		.4byte	.LVL204
 5422 152f 021B0000 		.4byte	0x1b02
 5423 1533 5B150000 		.4byte	0x155b
 5424 1537 09       		.uleb128 0x9
 5425 1538 01       		.uleb128 0x1
 5426 1539 50       		.byte	0x50
 5427 153a 02       		.uleb128 0x2
 5428 153b 08       		.byte	0x8
 5429 153c 64       		.byte	0x64
 5430 153d 09       		.uleb128 0x9
 5431 153e 01       		.uleb128 0x1
 5432 153f 51       		.byte	0x51
 5433 1540 01       		.uleb128 0x1
 5434 1541 30       		.byte	0x30
 5435 1542 09       		.uleb128 0x9
 5436 1543 01       		.uleb128 0x1
 5437 1544 52       		.byte	0x52
 5438 1545 01       		.uleb128 0x1
 5439 1546 34       		.byte	0x34
 5440 1547 09       		.uleb128 0x9
 5441 1548 01       		.uleb128 0x1
 5442 1549 53       		.byte	0x53
 5443 154a 01       		.uleb128 0x1
 5444 154b 35       		.byte	0x35
 5445 154c 09       		.uleb128 0x9
 5446 154d 02       		.uleb128 0x2
 5447 154e 7D       		.byte	0x7d
 5448 154f 00       		.sleb128 0
 5449 1550 02       		.uleb128 0x2
 5450 1551 75       		.byte	0x75
 5451 1552 00       		.sleb128 0
ARM GAS  C:\Users\Blayke\AppData\Local\Temp\ccFauHWb.s 			page 114


 5452 1553 09       		.uleb128 0x9
 5453 1554 02       		.uleb128 0x2
 5454 1555 7D       		.byte	0x7d
 5455 1556 04       		.sleb128 4
 5456 1557 02       		.uleb128 0x2
 5457 1558 74       		.byte	0x74
 5458 1559 00       		.sleb128 0
 5459 155a 00       		.byte	0
 5460 155b 08       		.uleb128 0x8
 5461 155c CE080000 		.4byte	.LVL205
 5462 1560 2E1B0000 		.4byte	0x1b2e
 5463 1564 75150000 		.4byte	0x1575
 5464 1568 09       		.uleb128 0x9
 5465 1569 01       		.uleb128 0x1
 5466 156a 50       		.byte	0x50
 5467 156b 02       		.uleb128 0x2
 5468 156c 74       		.byte	0x74
 5469 156d 00       		.sleb128 0
 5470 156e 09       		.uleb128 0x9
 5471 156f 01       		.uleb128 0x1
 5472 1570 51       		.byte	0x51
 5473 1571 02       		.uleb128 0x2
 5474 1572 75       		.byte	0x75
 5475 1573 00       		.sleb128 0
 5476 1574 00       		.byte	0
 5477 1575 08       		.uleb128 0x8
 5478 1576 D4080000 		.4byte	.LVL206
 5479 157a F71A0000 		.4byte	0x1af7
 5480 157e 88150000 		.4byte	0x1588
 5481 1582 09       		.uleb128 0x9
 5482 1583 01       		.uleb128 0x1
 5483 1584 50       		.byte	0x50
 5484 1585 01       		.uleb128 0x1
 5485 1586 37       		.byte	0x37
 5486 1587 00       		.byte	0
 5487 1588 08       		.uleb128 0x8
 5488 1589 E4080000 		.4byte	.LVL207
 5489 158d 021B0000 		.4byte	0x1b02
 5490 1591 BA150000 		.4byte	0x15ba
 5491 1595 09       		.uleb128 0x9
 5492 1596 01       		.uleb128 0x1
 5493 1597 50       		.byte	0x50
 5494 1598 02       		.uleb128 0x2
 5495 1599 08       		.byte	0x8
 5496 159a AF       		.byte	0xaf
 5497 159b 09       		.uleb128 0x9
 5498 159c 01       		.uleb128 0x1
 5499 159d 51       		.byte	0x51
 5500 159e 02       		.uleb128 0x2
 5501 159f 74       		.byte	0x74
 5502 15a0 00       		.sleb128 0
 5503 15a1 09       		.uleb128 0x9
 5504 15a2 01       		.uleb128 0x1
 5505 15a3 52       		.byte	0x52
 5506 15a4 01       		.uleb128 0x1
 5507 15a5 34       		.byte	0x34
 5508 15a6 09       		.uleb128 0x9
ARM GAS  C:\Users\Blayke\AppData\Local\Temp\ccFauHWb.s 			page 115


 5509 15a7 01       		.uleb128 0x1
 5510 15a8 53       		.byte	0x53
 5511 15a9 01       		.uleb128 0x1
 5512 15aa 30       		.byte	0x30
 5513 15ab 09       		.uleb128 0x9
 5514 15ac 02       		.uleb128 0x2
 5515 15ad 7D       		.byte	0x7d
 5516 15ae 00       		.sleb128 0
 5517 15af 02       		.uleb128 0x2
 5518 15b0 75       		.byte	0x75
 5519 15b1 00       		.sleb128 0
 5520 15b2 09       		.uleb128 0x9
 5521 15b3 02       		.uleb128 0x2
 5522 15b4 7D       		.byte	0x7d
 5523 15b5 04       		.sleb128 4
 5524 15b6 02       		.uleb128 0x2
 5525 15b7 74       		.byte	0x74
 5526 15b8 00       		.sleb128 0
 5527 15b9 00       		.byte	0
 5528 15ba 08       		.uleb128 0x8
 5529 15bb EA080000 		.4byte	.LVL208
 5530 15bf F71A0000 		.4byte	0x1af7
 5531 15c3 CD150000 		.4byte	0x15cd
 5532 15c7 09       		.uleb128 0x9
 5533 15c8 01       		.uleb128 0x1
 5534 15c9 50       		.byte	0x50
 5535 15ca 01       		.uleb128 0x1
 5536 15cb 37       		.byte	0x37
 5537 15cc 00       		.byte	0
 5538 15cd 08       		.uleb128 0x8
 5539 15ce 12090000 		.4byte	.LVL209
 5540 15d2 021B0000 		.4byte	0x1b02
 5541 15d6 F8150000 		.4byte	0x15f8
 5542 15da 09       		.uleb128 0x9
 5543 15db 01       		.uleb128 0x1
 5544 15dc 51       		.byte	0x51
 5545 15dd 01       		.uleb128 0x1
 5546 15de 30       		.byte	0x30
 5547 15df 09       		.uleb128 0x9
 5548 15e0 01       		.uleb128 0x1
 5549 15e1 52       		.byte	0x52
 5550 15e2 01       		.uleb128 0x1
 5551 15e3 34       		.byte	0x34
 5552 15e4 09       		.uleb128 0x9
 5553 15e5 01       		.uleb128 0x1
 5554 15e6 53       		.byte	0x53
 5555 15e7 01       		.uleb128 0x1
 5556 15e8 35       		.byte	0x35
 5557 15e9 09       		.uleb128 0x9
 5558 15ea 02       		.uleb128 0x2
 5559 15eb 7D       		.byte	0x7d
 5560 15ec 00       		.sleb128 0
 5561 15ed 02       		.uleb128 0x2
 5562 15ee 75       		.byte	0x75
 5563 15ef 00       		.sleb128 0
 5564 15f0 09       		.uleb128 0x9
 5565 15f1 02       		.uleb128 0x2
ARM GAS  C:\Users\Blayke\AppData\Local\Temp\ccFauHWb.s 			page 116


 5566 15f2 7D       		.byte	0x7d
 5567 15f3 04       		.sleb128 4
 5568 15f4 02       		.uleb128 0x2
 5569 15f5 74       		.byte	0x74
 5570 15f6 00       		.sleb128 0
 5571 15f7 00       		.byte	0
 5572 15f8 08       		.uleb128 0x8
 5573 15f9 1A090000 		.4byte	.LVL210
 5574 15fd 2E1B0000 		.4byte	0x1b2e
 5575 1601 11160000 		.4byte	0x1611
 5576 1605 09       		.uleb128 0x9
 5577 1606 01       		.uleb128 0x1
 5578 1607 50       		.byte	0x50
 5579 1608 01       		.uleb128 0x1
 5580 1609 30       		.byte	0x30
 5581 160a 09       		.uleb128 0x9
 5582 160b 01       		.uleb128 0x1
 5583 160c 51       		.byte	0x51
 5584 160d 02       		.uleb128 0x2
 5585 160e 75       		.byte	0x75
 5586 160f 00       		.sleb128 0
 5587 1610 00       		.byte	0
 5588 1611 08       		.uleb128 0x8
 5589 1612 20090000 		.4byte	.LVL211
 5590 1616 F71A0000 		.4byte	0x1af7
 5591 161a 24160000 		.4byte	0x1624
 5592 161e 09       		.uleb128 0x9
 5593 161f 01       		.uleb128 0x1
 5594 1620 50       		.byte	0x50
 5595 1621 01       		.uleb128 0x1
 5596 1622 37       		.byte	0x37
 5597 1623 00       		.byte	0
 5598 1624 08       		.uleb128 0x8
 5599 1625 30090000 		.4byte	.LVL212
 5600 1629 021B0000 		.4byte	0x1b02
 5601 162d 55160000 		.4byte	0x1655
 5602 1631 09       		.uleb128 0x9
 5603 1632 01       		.uleb128 0x1
 5604 1633 50       		.byte	0x50
 5605 1634 02       		.uleb128 0x2
 5606 1635 08       		.byte	0x8
 5607 1636 64       		.byte	0x64
 5608 1637 09       		.uleb128 0x9
 5609 1638 01       		.uleb128 0x1
 5610 1639 51       		.byte	0x51
 5611 163a 01       		.uleb128 0x1
 5612 163b 30       		.byte	0x30
 5613 163c 09       		.uleb128 0x9
 5614 163d 01       		.uleb128 0x1
 5615 163e 52       		.byte	0x52
 5616 163f 01       		.uleb128 0x1
 5617 1640 34       		.byte	0x34
 5618 1641 09       		.uleb128 0x9
 5619 1642 01       		.uleb128 0x1
 5620 1643 53       		.byte	0x53
 5621 1644 01       		.uleb128 0x1
 5622 1645 35       		.byte	0x35
ARM GAS  C:\Users\Blayke\AppData\Local\Temp\ccFauHWb.s 			page 117


 5623 1646 09       		.uleb128 0x9
 5624 1647 02       		.uleb128 0x2
 5625 1648 7D       		.byte	0x7d
 5626 1649 00       		.sleb128 0
 5627 164a 02       		.uleb128 0x2
 5628 164b 75       		.byte	0x75
 5629 164c 00       		.sleb128 0
 5630 164d 09       		.uleb128 0x9
 5631 164e 02       		.uleb128 0x2
 5632 164f 7D       		.byte	0x7d
 5633 1650 04       		.sleb128 4
 5634 1651 02       		.uleb128 0x2
 5635 1652 74       		.byte	0x74
 5636 1653 00       		.sleb128 0
 5637 1654 00       		.byte	0
 5638 1655 08       		.uleb128 0x8
 5639 1656 38090000 		.4byte	.LVL213
 5640 165a 2E1B0000 		.4byte	0x1b2e
 5641 165e 6F160000 		.4byte	0x166f
 5642 1662 09       		.uleb128 0x9
 5643 1663 01       		.uleb128 0x1
 5644 1664 50       		.byte	0x50
 5645 1665 02       		.uleb128 0x2
 5646 1666 74       		.byte	0x74
 5647 1667 00       		.sleb128 0
 5648 1668 09       		.uleb128 0x9
 5649 1669 01       		.uleb128 0x1
 5650 166a 51       		.byte	0x51
 5651 166b 02       		.uleb128 0x2
 5652 166c 75       		.byte	0x75
 5653 166d 00       		.sleb128 0
 5654 166e 00       		.byte	0
 5655 166f 08       		.uleb128 0x8
 5656 1670 48090000 		.4byte	.LVL214
 5657 1674 021B0000 		.4byte	0x1b02
 5658 1678 A1160000 		.4byte	0x16a1
 5659 167c 09       		.uleb128 0x9
 5660 167d 01       		.uleb128 0x1
 5661 167e 50       		.byte	0x50
 5662 167f 02       		.uleb128 0x2
 5663 1680 08       		.byte	0x8
 5664 1681 AF       		.byte	0xaf
 5665 1682 09       		.uleb128 0x9
 5666 1683 01       		.uleb128 0x1
 5667 1684 51       		.byte	0x51
 5668 1685 02       		.uleb128 0x2
 5669 1686 74       		.byte	0x74
 5670 1687 00       		.sleb128 0
 5671 1688 09       		.uleb128 0x9
 5672 1689 01       		.uleb128 0x1
 5673 168a 52       		.byte	0x52
 5674 168b 01       		.uleb128 0x1
 5675 168c 34       		.byte	0x34
 5676 168d 09       		.uleb128 0x9
 5677 168e 01       		.uleb128 0x1
 5678 168f 53       		.byte	0x53
 5679 1690 01       		.uleb128 0x1
ARM GAS  C:\Users\Blayke\AppData\Local\Temp\ccFauHWb.s 			page 118


 5680 1691 30       		.byte	0x30
 5681 1692 09       		.uleb128 0x9
 5682 1693 02       		.uleb128 0x2
 5683 1694 7D       		.byte	0x7d
 5684 1695 00       		.sleb128 0
 5685 1696 02       		.uleb128 0x2
 5686 1697 75       		.byte	0x75
 5687 1698 00       		.sleb128 0
 5688 1699 09       		.uleb128 0x9
 5689 169a 02       		.uleb128 0x2
 5690 169b 7D       		.byte	0x7d
 5691 169c 04       		.sleb128 4
 5692 169d 02       		.uleb128 0x2
 5693 169e 74       		.byte	0x74
 5694 169f 00       		.sleb128 0
 5695 16a0 00       		.byte	0
 5696 16a1 08       		.uleb128 0x8
 5697 16a2 76090000 		.4byte	.LVL215
 5698 16a6 021B0000 		.4byte	0x1b02
 5699 16aa CC160000 		.4byte	0x16cc
 5700 16ae 09       		.uleb128 0x9
 5701 16af 01       		.uleb128 0x1
 5702 16b0 51       		.byte	0x51
 5703 16b1 01       		.uleb128 0x1
 5704 16b2 30       		.byte	0x30
 5705 16b3 09       		.uleb128 0x9
 5706 16b4 01       		.uleb128 0x1
 5707 16b5 52       		.byte	0x52
 5708 16b6 01       		.uleb128 0x1
 5709 16b7 35       		.byte	0x35
 5710 16b8 09       		.uleb128 0x9
 5711 16b9 01       		.uleb128 0x1
 5712 16ba 53       		.byte	0x53
 5713 16bb 01       		.uleb128 0x1
 5714 16bc 30       		.byte	0x30
 5715 16bd 09       		.uleb128 0x9
 5716 16be 02       		.uleb128 0x2
 5717 16bf 7D       		.byte	0x7d
 5718 16c0 00       		.sleb128 0
 5719 16c1 02       		.uleb128 0x2
 5720 16c2 75       		.byte	0x75
 5721 16c3 00       		.sleb128 0
 5722 16c4 09       		.uleb128 0x9
 5723 16c5 02       		.uleb128 0x2
 5724 16c6 7D       		.byte	0x7d
 5725 16c7 04       		.sleb128 4
 5726 16c8 02       		.uleb128 0x2
 5727 16c9 74       		.byte	0x74
 5728 16ca 00       		.sleb128 0
 5729 16cb 00       		.byte	0
 5730 16cc 08       		.uleb128 0x8
 5731 16cd 7E090000 		.4byte	.LVL216
 5732 16d1 2E1B0000 		.4byte	0x1b2e
 5733 16d5 E5160000 		.4byte	0x16e5
 5734 16d9 09       		.uleb128 0x9
 5735 16da 01       		.uleb128 0x1
 5736 16db 50       		.byte	0x50
ARM GAS  C:\Users\Blayke\AppData\Local\Temp\ccFauHWb.s 			page 119


 5737 16dc 01       		.uleb128 0x1
 5738 16dd 30       		.byte	0x30
 5739 16de 09       		.uleb128 0x9
 5740 16df 01       		.uleb128 0x1
 5741 16e0 51       		.byte	0x51
 5742 16e1 02       		.uleb128 0x2
 5743 16e2 75       		.byte	0x75
 5744 16e3 00       		.sleb128 0
 5745 16e4 00       		.byte	0
 5746 16e5 08       		.uleb128 0x8
 5747 16e6 84090000 		.4byte	.LVL217
 5748 16ea F71A0000 		.4byte	0x1af7
 5749 16ee F8160000 		.4byte	0x16f8
 5750 16f2 09       		.uleb128 0x9
 5751 16f3 01       		.uleb128 0x1
 5752 16f4 50       		.byte	0x50
 5753 16f5 01       		.uleb128 0x1
 5754 16f6 37       		.byte	0x37
 5755 16f7 00       		.byte	0
 5756 16f8 08       		.uleb128 0x8
 5757 16f9 94090000 		.4byte	.LVL218
 5758 16fd 021B0000 		.4byte	0x1b02
 5759 1701 29170000 		.4byte	0x1729
 5760 1705 09       		.uleb128 0x9
 5761 1706 01       		.uleb128 0x1
 5762 1707 50       		.byte	0x50
 5763 1708 02       		.uleb128 0x2
 5764 1709 08       		.byte	0x8
 5765 170a 64       		.byte	0x64
 5766 170b 09       		.uleb128 0x9
 5767 170c 01       		.uleb128 0x1
 5768 170d 51       		.byte	0x51
 5769 170e 01       		.uleb128 0x1
 5770 170f 30       		.byte	0x30
 5771 1710 09       		.uleb128 0x9
 5772 1711 01       		.uleb128 0x1
 5773 1712 52       		.byte	0x52
 5774 1713 01       		.uleb128 0x1
 5775 1714 34       		.byte	0x34
 5776 1715 09       		.uleb128 0x9
 5777 1716 01       		.uleb128 0x1
 5778 1717 53       		.byte	0x53
 5779 1718 01       		.uleb128 0x1
 5780 1719 35       		.byte	0x35
 5781 171a 09       		.uleb128 0x9
 5782 171b 02       		.uleb128 0x2
 5783 171c 7D       		.byte	0x7d
 5784 171d 00       		.sleb128 0
 5785 171e 02       		.uleb128 0x2
 5786 171f 75       		.byte	0x75
 5787 1720 00       		.sleb128 0
 5788 1721 09       		.uleb128 0x9
 5789 1722 02       		.uleb128 0x2
 5790 1723 7D       		.byte	0x7d
 5791 1724 04       		.sleb128 4
 5792 1725 02       		.uleb128 0x2
 5793 1726 74       		.byte	0x74
ARM GAS  C:\Users\Blayke\AppData\Local\Temp\ccFauHWb.s 			page 120


 5794 1727 00       		.sleb128 0
 5795 1728 00       		.byte	0
 5796 1729 08       		.uleb128 0x8
 5797 172a 9C090000 		.4byte	.LVL219
 5798 172e 2E1B0000 		.4byte	0x1b2e
 5799 1732 43170000 		.4byte	0x1743
 5800 1736 09       		.uleb128 0x9
 5801 1737 01       		.uleb128 0x1
 5802 1738 50       		.byte	0x50
 5803 1739 02       		.uleb128 0x2
 5804 173a 74       		.byte	0x74
 5805 173b 00       		.sleb128 0
 5806 173c 09       		.uleb128 0x9
 5807 173d 01       		.uleb128 0x1
 5808 173e 51       		.byte	0x51
 5809 173f 02       		.uleb128 0x2
 5810 1740 75       		.byte	0x75
 5811 1741 00       		.sleb128 0
 5812 1742 00       		.byte	0
 5813 1743 08       		.uleb128 0x8
 5814 1744 AC090000 		.4byte	.LVL220
 5815 1748 021B0000 		.4byte	0x1b02
 5816 174c 75170000 		.4byte	0x1775
 5817 1750 09       		.uleb128 0x9
 5818 1751 01       		.uleb128 0x1
 5819 1752 50       		.byte	0x50
 5820 1753 02       		.uleb128 0x2
 5821 1754 08       		.byte	0x8
 5822 1755 AF       		.byte	0xaf
 5823 1756 09       		.uleb128 0x9
 5824 1757 01       		.uleb128 0x1
 5825 1758 51       		.byte	0x51
 5826 1759 02       		.uleb128 0x2
 5827 175a 74       		.byte	0x74
 5828 175b 00       		.sleb128 0
 5829 175c 09       		.uleb128 0x9
 5830 175d 01       		.uleb128 0x1
 5831 175e 52       		.byte	0x52
 5832 175f 01       		.uleb128 0x1
 5833 1760 34       		.byte	0x34
 5834 1761 09       		.uleb128 0x9
 5835 1762 01       		.uleb128 0x1
 5836 1763 53       		.byte	0x53
 5837 1764 01       		.uleb128 0x1
 5838 1765 30       		.byte	0x30
 5839 1766 09       		.uleb128 0x9
 5840 1767 02       		.uleb128 0x2
 5841 1768 7D       		.byte	0x7d
 5842 1769 00       		.sleb128 0
 5843 176a 02       		.uleb128 0x2
 5844 176b 75       		.byte	0x75
 5845 176c 00       		.sleb128 0
 5846 176d 09       		.uleb128 0x9
 5847 176e 02       		.uleb128 0x2
 5848 176f 7D       		.byte	0x7d
 5849 1770 04       		.sleb128 4
 5850 1771 02       		.uleb128 0x2
ARM GAS  C:\Users\Blayke\AppData\Local\Temp\ccFauHWb.s 			page 121


 5851 1772 74       		.byte	0x74
 5852 1773 00       		.sleb128 0
 5853 1774 00       		.byte	0
 5854 1775 08       		.uleb128 0x8
 5855 1776 0E0B0000 		.4byte	.LVL247
 5856 177a 021B0000 		.4byte	0x1b02
 5857 177e A8170000 		.4byte	0x17a8
 5858 1782 09       		.uleb128 0x9
 5859 1783 01       		.uleb128 0x1
 5860 1784 50       		.byte	0x50
 5861 1785 02       		.uleb128 0x2
 5862 1786 08       		.byte	0x8
 5863 1787 D2       		.byte	0xd2
 5864 1788 09       		.uleb128 0x9
 5865 1789 01       		.uleb128 0x1
 5866 178a 51       		.byte	0x51
 5867 178b 02       		.uleb128 0x2
 5868 178c 74       		.byte	0x74
 5869 178d 00       		.sleb128 0
 5870 178e 09       		.uleb128 0x9
 5871 178f 01       		.uleb128 0x1
 5872 1790 52       		.byte	0x52
 5873 1791 01       		.uleb128 0x1
 5874 1792 35       		.byte	0x35
 5875 1793 09       		.uleb128 0x9
 5876 1794 01       		.uleb128 0x1
 5877 1795 53       		.byte	0x53
 5878 1796 02       		.uleb128 0x2
 5879 1797 74       		.byte	0x74
 5880 1798 00       		.sleb128 0
 5881 1799 09       		.uleb128 0x9
 5882 179a 02       		.uleb128 0x2
 5883 179b 7D       		.byte	0x7d
 5884 179c 00       		.sleb128 0
 5885 179d 02       		.uleb128 0x2
 5886 179e 75       		.byte	0x75
 5887 179f 00       		.sleb128 0
 5888 17a0 09       		.uleb128 0x9
 5889 17a1 02       		.uleb128 0x2
 5890 17a2 7D       		.byte	0x7d
 5891 17a3 04       		.sleb128 4
 5892 17a4 02       		.uleb128 0x2
 5893 17a5 74       		.byte	0x74
 5894 17a6 00       		.sleb128 0
 5895 17a7 00       		.byte	0
 5896 17a8 08       		.uleb128 0x8
 5897 17a9 160B0000 		.4byte	.LVL248
 5898 17ad 2E1B0000 		.4byte	0x1b2e
 5899 17b1 C1170000 		.4byte	0x17c1
 5900 17b5 09       		.uleb128 0x9
 5901 17b6 01       		.uleb128 0x1
 5902 17b7 50       		.byte	0x50
 5903 17b8 01       		.uleb128 0x1
 5904 17b9 33       		.byte	0x33
 5905 17ba 09       		.uleb128 0x9
 5906 17bb 01       		.uleb128 0x1
 5907 17bc 51       		.byte	0x51
ARM GAS  C:\Users\Blayke\AppData\Local\Temp\ccFauHWb.s 			page 122


 5908 17bd 02       		.uleb128 0x2
 5909 17be 75       		.byte	0x75
 5910 17bf 00       		.sleb128 0
 5911 17c0 00       		.byte	0
 5912 17c1 08       		.uleb128 0x8
 5913 17c2 1C0B0000 		.4byte	.LVL249
 5914 17c6 F71A0000 		.4byte	0x1af7
 5915 17ca D4170000 		.4byte	0x17d4
 5916 17ce 09       		.uleb128 0x9
 5917 17cf 01       		.uleb128 0x1
 5918 17d0 50       		.byte	0x50
 5919 17d1 01       		.uleb128 0x1
 5920 17d2 37       		.byte	0x37
 5921 17d3 00       		.byte	0
 5922 17d4 08       		.uleb128 0x8
 5923 17d5 300B0000 		.4byte	.LVL250
 5924 17d9 021B0000 		.4byte	0x1b02
 5925 17dd 08180000 		.4byte	0x1808
 5926 17e1 09       		.uleb128 0x9
 5927 17e2 01       		.uleb128 0x1
 5928 17e3 50       		.byte	0x50
 5929 17e4 03       		.uleb128 0x3
 5930 17e5 0A       		.byte	0xa
 5931 17e6 F901     		.2byte	0x1f9
 5932 17e8 09       		.uleb128 0x9
 5933 17e9 01       		.uleb128 0x1
 5934 17ea 51       		.byte	0x51
 5935 17eb 02       		.uleb128 0x2
 5936 17ec 74       		.byte	0x74
 5937 17ed 00       		.sleb128 0
 5938 17ee 09       		.uleb128 0x9
 5939 17ef 01       		.uleb128 0x1
 5940 17f0 52       		.byte	0x52
 5941 17f1 01       		.uleb128 0x1
 5942 17f2 35       		.byte	0x35
 5943 17f3 09       		.uleb128 0x9
 5944 17f4 01       		.uleb128 0x1
 5945 17f5 53       		.byte	0x53
 5946 17f6 02       		.uleb128 0x2
 5947 17f7 76       		.byte	0x76
 5948 17f8 00       		.sleb128 0
 5949 17f9 09       		.uleb128 0x9
 5950 17fa 02       		.uleb128 0x2
 5951 17fb 7D       		.byte	0x7d
 5952 17fc 00       		.sleb128 0
 5953 17fd 02       		.uleb128 0x2
 5954 17fe 75       		.byte	0x75
 5955 17ff 00       		.sleb128 0
 5956 1800 09       		.uleb128 0x9
 5957 1801 02       		.uleb128 0x2
 5958 1802 7D       		.byte	0x7d
 5959 1803 04       		.sleb128 4
 5960 1804 02       		.uleb128 0x2
 5961 1805 76       		.byte	0x76
 5962 1806 00       		.sleb128 0
 5963 1807 00       		.byte	0
 5964 1808 08       		.uleb128 0x8
ARM GAS  C:\Users\Blayke\AppData\Local\Temp\ccFauHWb.s 			page 123


 5965 1809 380B0000 		.4byte	.LVL251
 5966 180d 2E1B0000 		.4byte	0x1b2e
 5967 1811 22180000 		.4byte	0x1822
 5968 1815 09       		.uleb128 0x9
 5969 1816 01       		.uleb128 0x1
 5970 1817 50       		.byte	0x50
 5971 1818 02       		.uleb128 0x2
 5972 1819 74       		.byte	0x74
 5973 181a 00       		.sleb128 0
 5974 181b 09       		.uleb128 0x9
 5975 181c 01       		.uleb128 0x1
 5976 181d 51       		.byte	0x51
 5977 181e 02       		.uleb128 0x2
 5978 181f 75       		.byte	0x75
 5979 1820 00       		.sleb128 0
 5980 1821 00       		.byte	0
 5981 1822 08       		.uleb128 0x8
 5982 1823 480B0000 		.4byte	.LVL252
 5983 1827 021B0000 		.4byte	0x1b02
 5984 182b 54180000 		.4byte	0x1854
 5985 182f 09       		.uleb128 0x9
 5986 1830 01       		.uleb128 0x1
 5987 1831 50       		.byte	0x50
 5988 1832 02       		.uleb128 0x2
 5989 1833 08       		.byte	0x8
 5990 1834 28       		.byte	0x28
 5991 1835 09       		.uleb128 0x9
 5992 1836 01       		.uleb128 0x1
 5993 1837 51       		.byte	0x51
 5994 1838 02       		.uleb128 0x2
 5995 1839 74       		.byte	0x74
 5996 183a 00       		.sleb128 0
 5997 183b 09       		.uleb128 0x9
 5998 183c 01       		.uleb128 0x1
 5999 183d 52       		.byte	0x52
 6000 183e 01       		.uleb128 0x1
 6001 183f 34       		.byte	0x34
 6002 1840 09       		.uleb128 0x9
 6003 1841 01       		.uleb128 0x1
 6004 1842 53       		.byte	0x53
 6005 1843 01       		.uleb128 0x1
 6006 1844 35       		.byte	0x35
 6007 1845 09       		.uleb128 0x9
 6008 1846 02       		.uleb128 0x2
 6009 1847 7D       		.byte	0x7d
 6010 1848 00       		.sleb128 0
 6011 1849 02       		.uleb128 0x2
 6012 184a 75       		.byte	0x75
 6013 184b 00       		.sleb128 0
 6014 184c 09       		.uleb128 0x9
 6015 184d 02       		.uleb128 0x2
 6016 184e 7D       		.byte	0x7d
 6017 184f 04       		.sleb128 4
 6018 1850 02       		.uleb128 0x2
 6019 1851 76       		.byte	0x76
 6020 1852 00       		.sleb128 0
 6021 1853 00       		.byte	0
ARM GAS  C:\Users\Blayke\AppData\Local\Temp\ccFauHWb.s 			page 124


 6022 1854 0A       		.uleb128 0xa
 6023 1855 500B0000 		.4byte	.LVL253
 6024 1859 651B0000 		.4byte	0x1b65
 6025 185d 09       		.uleb128 0x9
 6026 185e 01       		.uleb128 0x1
 6027 185f 50       		.byte	0x50
 6028 1860 02       		.uleb128 0x2
 6029 1861 74       		.byte	0x74
 6030 1862 00       		.sleb128 0
 6031 1863 09       		.uleb128 0x9
 6032 1864 01       		.uleb128 0x1
 6033 1865 51       		.byte	0x51
 6034 1866 01       		.uleb128 0x1
 6035 1867 32       		.byte	0x32
 6036 1868 00       		.byte	0
 6037 1869 00       		.byte	0
 6038 186a 13       		.uleb128 0x13
 6039 186b FF060000 		.4byte	.LASF25
 6040 186f 04       		.byte	0x4
 6041 1870 1207     		.2byte	0x712
 6042 1872 76180000 		.4byte	0x1876
 6043 1876 14       		.uleb128 0x14
 6044 1877 76000000 		.4byte	0x76
 6045 187b 15       		.uleb128 0x15
 6046 187c A8020000 		.4byte	.LASF26
 6047 1880 05       		.byte	0x5
 6048 1881 22       		.byte	0x22
 6049 1882 68000000 		.4byte	0x68
 6050 1886 05       		.uleb128 0x5
 6051 1887 03       		.byte	0x3
 6052 1888 00000000 		.4byte	internal_orientation
 6053 188c 16       		.uleb128 0x16
 6054 188d 68000000 		.4byte	0x68
 6055 1891 9C180000 		.4byte	0x189c
 6056 1895 17       		.uleb128 0x17
 6057 1896 9D000000 		.4byte	0x9d
 6058 189a 04       		.byte	0x4
 6059 189b 00       		.byte	0
 6060 189c 15       		.uleb128 0x15
 6061 189d BE030000 		.4byte	.LASF27
 6062 18a1 01       		.byte	0x1
 6063 18a2 29       		.byte	0x29
 6064 18a3 8C180000 		.4byte	0x188c
 6065 18a7 05       		.uleb128 0x5
 6066 18a8 03       		.byte	0x3
 6067 18a9 00000000 		.4byte	puck_rack_scans
 6068 18ad 15       		.uleb128 0x15
 6069 18ae 70060000 		.4byte	.LASF28
 6070 18b2 01       		.byte	0x1
 6071 18b3 2B       		.byte	0x2b
 6072 18b4 8C180000 		.4byte	0x188c
 6073 18b8 05       		.uleb128 0x5
 6074 18b9 03       		.byte	0x3
 6075 18ba 00000000 		.4byte	puck_rack_west_offsets
 6076 18be 16       		.uleb128 0x16
 6077 18bf 81000000 		.4byte	0x81
 6078 18c3 CE180000 		.4byte	0x18ce
ARM GAS  C:\Users\Blayke\AppData\Local\Temp\ccFauHWb.s 			page 125


 6079 18c7 17       		.uleb128 0x17
 6080 18c8 9D000000 		.4byte	0x9d
 6081 18cc 03       		.byte	0x3
 6082 18cd 00       		.byte	0
 6083 18ce 15       		.uleb128 0x15
 6084 18cf 53040000 		.4byte	.LASF29
 6085 18d3 01       		.byte	0x1
 6086 18d4 25       		.byte	0x25
 6087 18d5 BE180000 		.4byte	0x18be
 6088 18d9 05       		.uleb128 0x5
 6089 18da 03       		.byte	0x3
 6090 18db 00000000 		.4byte	block_edge_location
 6091 18df 15       		.uleb128 0x15
 6092 18e0 D9070000 		.4byte	.LASF30
 6093 18e4 06       		.byte	0x6
 6094 18e5 23       		.byte	0x23
 6095 18e6 68000000 		.4byte	0x68
 6096 18ea 05       		.uleb128 0x5
 6097 18eb 03       		.byte	0x3
 6098 18ec 00000000 		.4byte	initialisation
 6099 18f0 16       		.uleb128 0x16
 6100 18f1 8F000000 		.4byte	0x8f
 6101 18f5 00190000 		.4byte	0x1900
 6102 18f9 17       		.uleb128 0x17
 6103 18fa 9D000000 		.4byte	0x9d
 6104 18fe 1F       		.byte	0x1f
 6105 18ff 00       		.byte	0
 6106 1900 15       		.uleb128 0x15
 6107 1901 C2060000 		.4byte	.LASF31
 6108 1905 01       		.byte	0x1
 6109 1906 21       		.byte	0x21
 6110 1907 F0180000 		.4byte	0x18f0
 6111 190b 05       		.uleb128 0x5
 6112 190c 03       		.byte	0x3
 6113 190d 00000000 		.4byte	output
 6114 1911 16       		.uleb128 0x16
 6115 1912 68000000 		.4byte	0x68
 6116 1916 21190000 		.4byte	0x1921
 6117 191a 17       		.uleb128 0x17
 6118 191b 9D000000 		.4byte	0x9d
 6119 191f 06       		.byte	0x6
 6120 1920 00       		.byte	0
 6121 1921 18       		.uleb128 0x18
 6122 1922 48060000 		.4byte	.LASF32
 6123 1926 07       		.byte	0x7
 6124 1927 C6       		.byte	0xc6
 6125 1928 11190000 		.4byte	0x1911
 6126 192c 15       		.uleb128 0x15
 6127 192d 9A030000 		.4byte	.LASF33
 6128 1931 01       		.byte	0x1
 6129 1932 4D       		.byte	0x4d
 6130 1933 68000000 		.4byte	0x68
 6131 1937 05       		.uleb128 0x5
 6132 1938 03       		.byte	0x3
 6133 1939 00000000 		.4byte	colour_flag
 6134 193d 15       		.uleb128 0x15
 6135 193e 74030000 		.4byte	.LASF34
ARM GAS  C:\Users\Blayke\AppData\Local\Temp\ccFauHWb.s 			page 126


 6136 1942 01       		.byte	0x1
 6137 1943 24       		.byte	0x24
 6138 1944 68000000 		.4byte	0x68
 6139 1948 05       		.uleb128 0x5
 6140 1949 03       		.byte	0x3
 6141 194a 00000000 		.4byte	state
 6142 194e 15       		.uleb128 0x15
 6143 194f BC050000 		.4byte	.LASF35
 6144 1953 01       		.byte	0x1
 6145 1954 53       		.byte	0x53
 6146 1955 68000000 		.4byte	0x68
 6147 1959 05       		.uleb128 0x5
 6148 195a 03       		.byte	0x3
 6149 195b 00000000 		.4byte	moving
 6150 195f 15       		.uleb128 0x15
 6151 1960 70010000 		.4byte	.LASF36
 6152 1964 06       		.byte	0x6
 6153 1965 25       		.byte	0x25
 6154 1966 68000000 		.4byte	0x68
 6155 196a 05       		.uleb128 0x5
 6156 196b 03       		.byte	0x3
 6157 196c 00000000 		.4byte	ultrasonic_flag
 6158 1970 16       		.uleb128 0x16
 6159 1971 68000000 		.4byte	0x68
 6160 1975 80190000 		.4byte	0x1980
 6161 1979 17       		.uleb128 0x17
 6162 197a 9D000000 		.4byte	0x9d
 6163 197e 02       		.byte	0x2
 6164 197f 00       		.byte	0
 6165 1980 15       		.uleb128 0x15
 6166 1981 1F040000 		.4byte	.LASF37
 6167 1985 01       		.byte	0x1
 6168 1986 2A       		.byte	0x2a
 6169 1987 70190000 		.4byte	0x1970
 6170 198b 05       		.uleb128 0x5
 6171 198c 03       		.byte	0x3
 6172 198d 00000000 		.4byte	puck_construction_plan
 6173 1991 15       		.uleb128 0x15
 6174 1992 C8040000 		.4byte	.LASF38
 6175 1996 01       		.byte	0x1
 6176 1997 57       		.byte	0x57
 6177 1998 68000000 		.4byte	0x68
 6178 199c 05       		.uleb128 0x5
 6179 199d 03       		.byte	0x3
 6180 199e 00000000 		.4byte	current_stage
 6181 19a2 15       		.uleb128 0x15
 6182 19a3 A3050000 		.4byte	.LASF39
 6183 19a7 01       		.byte	0x1
 6184 19a8 4E       		.byte	0x4e
 6185 19a9 68000000 		.4byte	0x68
 6186 19ad 05       		.uleb128 0x5
 6187 19ae 03       		.byte	0x3
 6188 19af 00000000 		.4byte	colour_sensing_algorithm
 6189 19b3 15       		.uleb128 0x15
 6190 19b4 03030000 		.4byte	.LASF40
 6191 19b8 01       		.byte	0x1
 6192 19b9 41       		.byte	0x41
ARM GAS  C:\Users\Blayke\AppData\Local\Temp\ccFauHWb.s 			page 127


 6193 19ba 68000000 		.4byte	0x68
 6194 19be 05       		.uleb128 0x5
 6195 19bf 03       		.byte	0x3
 6196 19c0 00000000 		.4byte	safety_override
 6197 19c4 15       		.uleb128 0x15
 6198 19c5 A2070000 		.4byte	.LASF41
 6199 19c9 01       		.byte	0x1
 6200 19ca 28       		.byte	0x28
 6201 19cb 68000000 		.4byte	0x68
 6202 19cf 05       		.uleb128 0x5
 6203 19d0 03       		.byte	0x3
 6204 19d1 00000000 		.4byte	current_puck_stack_size
 6205 19d5 16       		.uleb128 0x16
 6206 19d6 68000000 		.4byte	0x68
 6207 19da E5190000 		.4byte	0x19e5
 6208 19de 17       		.uleb128 0x17
 6209 19df 9D000000 		.4byte	0x9d
 6210 19e3 01       		.byte	0x1
 6211 19e4 00       		.byte	0
 6212 19e5 15       		.uleb128 0x15
 6213 19e6 4E010000 		.4byte	.LASF42
 6214 19ea 01       		.byte	0x1
 6215 19eb 31       		.byte	0x31
 6216 19ec D5190000 		.4byte	0x19d5
 6217 19f0 05       		.uleb128 0x5
 6218 19f1 03       		.byte	0x3
 6219 19f2 00000000 		.4byte	puck_temp_pile
 6220 19f6 15       		.uleb128 0x15
 6221 19f7 11060000 		.4byte	.LASF43
 6222 19fb 01       		.byte	0x1
 6223 19fc 35       		.byte	0x35
 6224 19fd 68000000 		.4byte	0x68
 6225 1a01 05       		.uleb128 0x5
 6226 1a02 03       		.byte	0x3
 6227 1a03 00000000 		.4byte	begin_navigation
 6228 1a07 16       		.uleb128 0x16
 6229 1a08 68000000 		.4byte	0x68
 6230 1a0c 171A0000 		.4byte	0x1a17
 6231 1a10 17       		.uleb128 0x17
 6232 1a11 9D000000 		.4byte	0x9d
 6233 1a15 03       		.byte	0x3
 6234 1a16 00       		.byte	0
 6235 1a17 15       		.uleb128 0x15
 6236 1a18 E9010000 		.4byte	.LASF44
 6237 1a1c 01       		.byte	0x1
 6238 1a1d 36       		.byte	0x36
 6239 1a1e 071A0000 		.4byte	0x1a07
 6240 1a22 05       		.uleb128 0x5
 6241 1a23 03       		.byte	0x3
 6242 1a24 00000000 		.4byte	block_location
 6243 1a28 15       		.uleb128 0x15
 6244 1a29 F4030000 		.4byte	.LASF45
 6245 1a2d 01       		.byte	0x1
 6246 1a2e 3B       		.byte	0x3b
 6247 1a2f 071A0000 		.4byte	0x1a07
 6248 1a33 05       		.uleb128 0x5
 6249 1a34 03       		.byte	0x3
ARM GAS  C:\Users\Blayke\AppData\Local\Temp\ccFauHWb.s 			page 128


 6250 1a35 00000000 		.4byte	puck_location
 6251 1a39 15       		.uleb128 0x15
 6252 1a3a AF000000 		.4byte	.LASF46
 6253 1a3e 01       		.byte	0x1
 6254 1a3f 45       		.byte	0x45
 6255 1a40 33000000 		.4byte	0x33
 6256 1a44 05       		.uleb128 0x5
 6257 1a45 03       		.byte	0x3
 6258 1a46 00000000 		.4byte	block_east_clearance
 6259 1a4a 15       		.uleb128 0x15
 6260 1a4b E4050000 		.4byte	.LASF47
 6261 1a4f 01       		.byte	0x1
 6262 1a50 46       		.byte	0x46
 6263 1a51 33000000 		.4byte	0x33
 6264 1a55 05       		.uleb128 0x5
 6265 1a56 03       		.byte	0x3
 6266 1a57 00000000 		.4byte	block_west_clearance
 6267 1a5b 15       		.uleb128 0x15
 6268 1a5c 3A010000 		.4byte	.LASF48
 6269 1a60 01       		.byte	0x1
 6270 1a61 47       		.byte	0x47
 6271 1a62 33000000 		.4byte	0x33
 6272 1a66 05       		.uleb128 0x5
 6273 1a67 03       		.byte	0x3
 6274 1a68 00000000 		.4byte	puck_east_clearance
 6275 1a6c 15       		.uleb128 0x15
 6276 1a6d 56000000 		.4byte	.LASF49
 6277 1a71 01       		.byte	0x1
 6278 1a72 48       		.byte	0x48
 6279 1a73 33000000 		.4byte	0x33
 6280 1a77 05       		.uleb128 0x5
 6281 1a78 03       		.byte	0x3
 6282 1a79 00000000 		.4byte	puck_west_clearance
 6283 1a7d 15       		.uleb128 0x15
 6284 1a7e 9D040000 		.4byte	.LASF50
 6285 1a82 01       		.byte	0x1
 6286 1a83 4C       		.byte	0x4c
 6287 1a84 68000000 		.4byte	0x68
 6288 1a88 05       		.uleb128 0x5
 6289 1a89 03       		.byte	0x3
 6290 1a8a 00000000 		.4byte	idac_value
 6291 1a8e 15       		.uleb128 0x15
 6292 1a8f 90050000 		.4byte	.LASF51
 6293 1a93 01       		.byte	0x1
 6294 1a94 55       		.byte	0x55
 6295 1a95 9F1A0000 		.4byte	0x1a9f
 6296 1a99 05       		.uleb128 0x5
 6297 1a9a 03       		.byte	0x3
 6298 1a9b 00000000 		.4byte	PLAN_SCAN_VERTICAL
 6299 1a9f 19       		.uleb128 0x19
 6300 1aa0 68000000 		.4byte	0x68
 6301 1aa4 15       		.uleb128 0x15
 6302 1aa5 C9060000 		.4byte	.LASF52
 6303 1aa9 01       		.byte	0x1
 6304 1aaa 5B       		.byte	0x5b
 6305 1aab 68000000 		.4byte	0x68
 6306 1aaf 05       		.uleb128 0x5
ARM GAS  C:\Users\Blayke\AppData\Local\Temp\ccFauHWb.s 			page 129


 6307 1ab0 03       		.byte	0x3
 6308 1ab1 00000000 		.4byte	distance_returned_global
 6309 1ab5 1A       		.uleb128 0x1a
 6310 1ab6 1D020000 		.4byte	.LASF53
 6311 1aba 1D020000 		.4byte	.LASF53
 6312 1abe 06       		.byte	0x6
 6313 1abf 17       		.byte	0x17
 6314 1ac0 1A       		.uleb128 0x1a
 6315 1ac1 9A070000 		.4byte	.LASF54
 6316 1ac5 9A070000 		.4byte	.LASF54
 6317 1ac9 08       		.byte	0x8
 6318 1aca 76       		.byte	0x76
 6319 1acb 1A       		.uleb128 0x1a
 6320 1acc 37060000 		.4byte	.LASF55
 6321 1ad0 37060000 		.4byte	.LASF55
 6322 1ad4 09       		.byte	0x9
 6323 1ad5 8B       		.byte	0x8b
 6324 1ad6 1A       		.uleb128 0x1a
 6325 1ad7 6A000000 		.4byte	.LASF56
 6326 1adb 6A000000 		.4byte	.LASF56
 6327 1adf 0A       		.byte	0xa
 6328 1ae0 1D       		.byte	0x1d
 6329 1ae1 1A       		.uleb128 0x1a
 6330 1ae2 17040000 		.4byte	.LASF57
 6331 1ae6 17040000 		.4byte	.LASF57
 6332 1aea 0B       		.byte	0xb
 6333 1aeb E7       		.byte	0xe7
 6334 1aec 1A       		.uleb128 0x1a
 6335 1aed 24000000 		.4byte	.LASF58
 6336 1af1 24000000 		.4byte	.LASF58
 6337 1af5 0C       		.byte	0xc
 6338 1af6 0E       		.byte	0xe
 6339 1af7 1A       		.uleb128 0x1a
 6340 1af8 96000000 		.4byte	.LASF59
 6341 1afc 96000000 		.4byte	.LASF59
 6342 1b00 05       		.byte	0x5
 6343 1b01 13       		.byte	0x13
 6344 1b02 1A       		.uleb128 0x1a
 6345 1b03 AF060000 		.4byte	.LASF60
 6346 1b07 AF060000 		.4byte	.LASF60
 6347 1b0b 05       		.byte	0x5
 6348 1b0c 12       		.byte	0x12
 6349 1b0d 1A       		.uleb128 0x1a
 6350 1b0e 7E000000 		.4byte	.LASF61
 6351 1b12 7E000000 		.4byte	.LASF61
 6352 1b16 0A       		.byte	0xa
 6353 1b17 19       		.byte	0x19
 6354 1b18 1A       		.uleb128 0x1a
 6355 1b19 2F030000 		.4byte	.LASF62
 6356 1b1d 2F030000 		.4byte	.LASF62
 6357 1b21 0D       		.byte	0xd
 6358 1b22 2F       		.byte	0x2f
 6359 1b23 1A       		.uleb128 0x1a
 6360 1b24 FA020000 		.4byte	.LASF63
 6361 1b28 FA020000 		.4byte	.LASF63
 6362 1b2c 0A       		.byte	0xa
 6363 1b2d 1C       		.byte	0x1c
ARM GAS  C:\Users\Blayke\AppData\Local\Temp\ccFauHWb.s 			page 130


 6364 1b2e 1A       		.uleb128 0x1a
 6365 1b2f 7A030000 		.4byte	.LASF64
 6366 1b33 7A030000 		.4byte	.LASF64
 6367 1b37 05       		.byte	0x5
 6368 1b38 18       		.byte	0x18
 6369 1b39 1A       		.uleb128 0x1a
 6370 1b3a 01050000 		.4byte	.LASF65
 6371 1b3e 01050000 		.4byte	.LASF65
 6372 1b42 06       		.byte	0x6
 6373 1b43 16       		.byte	0x16
 6374 1b44 1A       		.uleb128 0x1a
 6375 1b45 02040000 		.4byte	.LASF66
 6376 1b49 02040000 		.4byte	.LASF66
 6377 1b4d 0E       		.byte	0xe
 6378 1b4e 0F       		.byte	0xf
 6379 1b4f 1A       		.uleb128 0x1a
 6380 1b50 C5010000 		.4byte	.LASF67
 6381 1b54 C5010000 		.4byte	.LASF67
 6382 1b58 0E       		.byte	0xe
 6383 1b59 0E       		.byte	0xe
 6384 1b5a 1A       		.uleb128 0x1a
 6385 1b5b 20030000 		.4byte	.LASF68
 6386 1b5f 20030000 		.4byte	.LASF68
 6387 1b63 05       		.byte	0x5
 6388 1b64 16       		.byte	0x16
 6389 1b65 1A       		.uleb128 0x1a
 6390 1b66 3E020000 		.4byte	.LASF69
 6391 1b6a 3E020000 		.4byte	.LASF69
 6392 1b6e 0F       		.byte	0xf
 6393 1b6f 0F       		.byte	0xf
 6394 1b70 1A       		.uleb128 0x1a
 6395 1b71 CE030000 		.4byte	.LASF70
 6396 1b75 CE030000 		.4byte	.LASF70
 6397 1b79 05       		.byte	0x5
 6398 1b7a 10       		.byte	0x10
 6399 1b7b 1A       		.uleb128 0x1a
 6400 1b7c 87050000 		.4byte	.LASF71
 6401 1b80 87050000 		.4byte	.LASF71
 6402 1b84 0F       		.byte	0xf
 6403 1b85 11       		.byte	0x11
 6404 1b86 1A       		.uleb128 0x1a
 6405 1b87 00000000 		.4byte	.LASF72
 6406 1b8b 00000000 		.4byte	.LASF72
 6407 1b8f 0F       		.byte	0xf
 6408 1b90 10       		.byte	0x10
 6409 1b91 1A       		.uleb128 0x1a
 6410 1b92 F5040000 		.4byte	.LASF73
 6411 1b96 F5040000 		.4byte	.LASF73
 6412 1b9a 10       		.byte	0x10
 6413 1b9b 3D       		.byte	0x3d
 6414 1b9c 1A       		.uleb128 0x1a
 6415 1b9d 13030000 		.4byte	.LASF74
 6416 1ba1 13030000 		.4byte	.LASF74
 6417 1ba5 09       		.byte	0x9
 6418 1ba6 54       		.byte	0x54
 6419 1ba7 1A       		.uleb128 0x1a
 6420 1ba8 95020000 		.4byte	.LASF75
ARM GAS  C:\Users\Blayke\AppData\Local\Temp\ccFauHWb.s 			page 131


 6421 1bac 95020000 		.4byte	.LASF75
 6422 1bb0 11       		.byte	0x11
 6423 1bb1 3A       		.byte	0x3a
 6424 1bb2 1A       		.uleb128 0x1a
 6425 1bb3 BA040000 		.4byte	.LASF76
 6426 1bb7 BA040000 		.4byte	.LASF76
 6427 1bbb 12       		.byte	0x12
 6428 1bbc 3C       		.byte	0x3c
 6429 1bbd 1A       		.uleb128 0x1a
 6430 1bbe 36040000 		.4byte	.LASF77
 6431 1bc2 36040000 		.4byte	.LASF77
 6432 1bc6 12       		.byte	0x12
 6433 1bc7 40       		.byte	0x40
 6434 1bc8 1A       		.uleb128 0x1a
 6435 1bc9 F9050000 		.4byte	.LASF78
 6436 1bcd F9050000 		.4byte	.LASF78
 6437 1bd1 12       		.byte	0x12
 6438 1bd2 41       		.byte	0x41
 6439 1bd3 1A       		.uleb128 0x1a
 6440 1bd4 7E040000 		.4byte	.LASF79
 6441 1bd8 7E040000 		.4byte	.LASF79
 6442 1bdc 13       		.byte	0x13
 6443 1bdd 2F       		.byte	0x2f
 6444 1bde 1A       		.uleb128 0x1a
 6445 1bdf B0010000 		.4byte	.LASF80
 6446 1be3 B0010000 		.4byte	.LASF80
 6447 1be7 14       		.byte	0x14
 6448 1be8 92       		.byte	0x92
 6449 1be9 1A       		.uleb128 0x1a
 6450 1bea 58030000 		.4byte	.LASF81
 6451 1bee 58030000 		.4byte	.LASF81
 6452 1bf2 14       		.byte	0x14
 6453 1bf3 C3       		.byte	0xc3
 6454 1bf4 1A       		.uleb128 0x1a
 6455 1bf5 80010000 		.4byte	.LASF82
 6456 1bf9 80010000 		.4byte	.LASF82
 6457 1bfd 14       		.byte	0x14
 6458 1bfe DC       		.byte	0xdc
 6459 1bff 1A       		.uleb128 0x1a
 6460 1c00 F8010000 		.4byte	.LASF83
 6461 1c04 F8010000 		.4byte	.LASF83
 6462 1c08 15       		.byte	0x15
 6463 1c09 92       		.byte	0x92
 6464 1c0a 1A       		.uleb128 0x1a
 6465 1c0b D6040000 		.4byte	.LASF84
 6466 1c0f D6040000 		.4byte	.LASF84
 6467 1c13 15       		.byte	0x15
 6468 1c14 C3       		.byte	0xc3
 6469 1c15 1A       		.uleb128 0x1a
 6470 1c16 D1010000 		.4byte	.LASF85
 6471 1c1a D1010000 		.4byte	.LASF85
 6472 1c1e 15       		.byte	0x15
 6473 1c1f DC       		.byte	0xdc
 6474 1c20 1A       		.uleb128 0x1a
 6475 1c21 DC030000 		.4byte	.LASF86
 6476 1c25 DC030000 		.4byte	.LASF86
 6477 1c29 16       		.byte	0x16
ARM GAS  C:\Users\Blayke\AppData\Local\Temp\ccFauHWb.s 			page 132


 6478 1c2a 92       		.byte	0x92
 6479 1c2b 1A       		.uleb128 0x1a
 6480 1c2c BD020000 		.4byte	.LASF87
 6481 1c30 BD020000 		.4byte	.LASF87
 6482 1c34 17       		.byte	0x17
 6483 1c35 92       		.byte	0x92
 6484 1c36 1A       		.uleb128 0x1a
 6485 1c37 BA070000 		.4byte	.LASF88
 6486 1c3b BA070000 		.4byte	.LASF88
 6487 1c3f 16       		.byte	0x16
 6488 1c40 C3       		.byte	0xc3
 6489 1c41 1A       		.uleb128 0x1a
 6490 1c42 36000000 		.4byte	.LASF89
 6491 1c46 36000000 		.4byte	.LASF89
 6492 1c4a 17       		.byte	0x17
 6493 1c4b C3       		.byte	0xc3
 6494 1c4c 1A       		.uleb128 0x1a
 6495 1c4d A6030000 		.4byte	.LASF90
 6496 1c51 A6030000 		.4byte	.LASF90
 6497 1c55 16       		.byte	0x16
 6498 1c56 DC       		.byte	0xdc
 6499 1c57 1A       		.uleb128 0x1a
 6500 1c58 7C020000 		.4byte	.LASF91
 6501 1c5c 7C020000 		.4byte	.LASF91
 6502 1c60 17       		.byte	0x17
 6503 1c61 DC       		.byte	0xdc
 6504 1c62 1A       		.uleb128 0x1a
 6505 1c63 15010000 		.4byte	.LASF92
 6506 1c67 15010000 		.4byte	.LASF92
 6507 1c6b 18       		.byte	0x18
 6508 1c6c 48       		.byte	0x48
 6509 1c6d 1A       		.uleb128 0x1a
 6510 1c6e D2000000 		.4byte	.LASF93
 6511 1c72 D2000000 		.4byte	.LASF93
 6512 1c76 19       		.byte	0x19
 6513 1c77 48       		.byte	0x48
 6514 1c78 1A       		.uleb128 0x1a
 6515 1c79 C3050000 		.4byte	.LASF94
 6516 1c7d C3050000 		.4byte	.LASF94
 6517 1c81 1A       		.byte	0x1a
 6518 1c82 5A       		.byte	0x5a
 6519 1c83 1A       		.uleb128 0x1a
 6520 1c84 95010000 		.4byte	.LASF95
 6521 1c88 95010000 		.4byte	.LASF95
 6522 1c8c 1A       		.byte	0x1a
 6523 1c8d 5E       		.byte	0x5e
 6524 1c8e 1A       		.uleb128 0x1a
 6525 1c8f C4000000 		.4byte	.LASF96
 6526 1c93 C4000000 		.4byte	.LASF96
 6527 1c97 1B       		.byte	0x1b
 6528 1c98 18       		.byte	0x18
 6529 1c99 1A       		.uleb128 0x1a
 6530 1c9a 22060000 		.4byte	.LASF97
 6531 1c9e 22060000 		.4byte	.LASF97
 6532 1ca2 1C       		.byte	0x1c
 6533 1ca3 18       		.byte	0x18
 6534 1ca4 1A       		.uleb128 0x1a
ARM GAS  C:\Users\Blayke\AppData\Local\Temp\ccFauHWb.s 			page 133


 6535 1ca5 9B060000 		.4byte	.LASF98
 6536 1ca9 9B060000 		.4byte	.LASF98
 6537 1cad 06       		.byte	0x6
 6538 1cae 18       		.byte	0x18
 6539 1caf 1A       		.uleb128 0x1a
 6540 1cb0 08000000 		.4byte	.LASF99
 6541 1cb4 08000000 		.4byte	.LASF99
 6542 1cb8 1D       		.byte	0x1d
 6543 1cb9 5A       		.byte	0x5a
 6544 1cba 1A       		.uleb128 0x1a
 6545 1cbb EC000000 		.4byte	.LASF100
 6546 1cbf EC000000 		.4byte	.LASF100
 6547 1cc3 1D       		.byte	0x1d
 6548 1cc4 5E       		.byte	0x5e
 6549 1cc5 1A       		.uleb128 0x1a
 6550 1cc6 E2060000 		.4byte	.LASF101
 6551 1cca E2060000 		.4byte	.LASF101
 6552 1cce 1E       		.byte	0x1e
 6553 1ccf 2F       		.byte	0x2f
 6554 1cd0 00       		.byte	0
 6555              		.section	.debug_abbrev,"",%progbits
 6556              	.Ldebug_abbrev0:
 6557 0000 01       		.uleb128 0x1
 6558 0001 11       		.uleb128 0x11
 6559 0002 01       		.byte	0x1
 6560 0003 25       		.uleb128 0x25
 6561 0004 0E       		.uleb128 0xe
 6562 0005 13       		.uleb128 0x13
 6563 0006 0B       		.uleb128 0xb
 6564 0007 03       		.uleb128 0x3
 6565 0008 0E       		.uleb128 0xe
 6566 0009 1B       		.uleb128 0x1b
 6567 000a 0E       		.uleb128 0xe
 6568 000b 55       		.uleb128 0x55
 6569 000c 17       		.uleb128 0x17
 6570 000d 11       		.uleb128 0x11
 6571 000e 01       		.uleb128 0x1
 6572 000f 10       		.uleb128 0x10
 6573 0010 17       		.uleb128 0x17
 6574 0011 00       		.byte	0
 6575 0012 00       		.byte	0
 6576 0013 02       		.uleb128 0x2
 6577 0014 24       		.uleb128 0x24
 6578 0015 00       		.byte	0
 6579 0016 0B       		.uleb128 0xb
 6580 0017 0B       		.uleb128 0xb
 6581 0018 3E       		.uleb128 0x3e
 6582 0019 0B       		.uleb128 0xb
 6583 001a 03       		.uleb128 0x3
 6584 001b 0E       		.uleb128 0xe
 6585 001c 00       		.byte	0
 6586 001d 00       		.byte	0
 6587 001e 03       		.uleb128 0x3
 6588 001f 16       		.uleb128 0x16
 6589 0020 00       		.byte	0
 6590 0021 03       		.uleb128 0x3
 6591 0022 0E       		.uleb128 0xe
ARM GAS  C:\Users\Blayke\AppData\Local\Temp\ccFauHWb.s 			page 134


 6592 0023 3A       		.uleb128 0x3a
 6593 0024 0B       		.uleb128 0xb
 6594 0025 3B       		.uleb128 0x3b
 6595 0026 0B       		.uleb128 0xb
 6596 0027 49       		.uleb128 0x49
 6597 0028 13       		.uleb128 0x13
 6598 0029 00       		.byte	0
 6599 002a 00       		.byte	0
 6600 002b 04       		.uleb128 0x4
 6601 002c 24       		.uleb128 0x24
 6602 002d 00       		.byte	0
 6603 002e 0B       		.uleb128 0xb
 6604 002f 0B       		.uleb128 0xb
 6605 0030 3E       		.uleb128 0x3e
 6606 0031 0B       		.uleb128 0xb
 6607 0032 03       		.uleb128 0x3
 6608 0033 08       		.uleb128 0x8
 6609 0034 00       		.byte	0
 6610 0035 00       		.byte	0
 6611 0036 05       		.uleb128 0x5
 6612 0037 2E       		.uleb128 0x2e
 6613 0038 01       		.byte	0x1
 6614 0039 3F       		.uleb128 0x3f
 6615 003a 19       		.uleb128 0x19
 6616 003b 03       		.uleb128 0x3
 6617 003c 08       		.uleb128 0x8
 6618 003d 3A       		.uleb128 0x3a
 6619 003e 0B       		.uleb128 0xb
 6620 003f 3B       		.uleb128 0x3b
 6621 0040 0B       		.uleb128 0xb
 6622 0041 27       		.uleb128 0x27
 6623 0042 19       		.uleb128 0x19
 6624 0043 11       		.uleb128 0x11
 6625 0044 01       		.uleb128 0x1
 6626 0045 12       		.uleb128 0x12
 6627 0046 06       		.uleb128 0x6
 6628 0047 40       		.uleb128 0x40
 6629 0048 18       		.uleb128 0x18
 6630 0049 9742     		.uleb128 0x2117
 6631 004b 19       		.uleb128 0x19
 6632 004c 01       		.uleb128 0x1
 6633 004d 13       		.uleb128 0x13
 6634 004e 00       		.byte	0
 6635 004f 00       		.byte	0
 6636 0050 06       		.uleb128 0x6
 6637 0051 898201   		.uleb128 0x4109
 6638 0054 00       		.byte	0
 6639 0055 11       		.uleb128 0x11
 6640 0056 01       		.uleb128 0x1
 6641 0057 31       		.uleb128 0x31
 6642 0058 13       		.uleb128 0x13
 6643 0059 00       		.byte	0
 6644 005a 00       		.byte	0
 6645 005b 07       		.uleb128 0x7
 6646 005c 2E       		.uleb128 0x2e
 6647 005d 01       		.byte	0x1
 6648 005e 3F       		.uleb128 0x3f
ARM GAS  C:\Users\Blayke\AppData\Local\Temp\ccFauHWb.s 			page 135


 6649 005f 19       		.uleb128 0x19
 6650 0060 03       		.uleb128 0x3
 6651 0061 0E       		.uleb128 0xe
 6652 0062 3A       		.uleb128 0x3a
 6653 0063 0B       		.uleb128 0xb
 6654 0064 3B       		.uleb128 0x3b
 6655 0065 0B       		.uleb128 0xb
 6656 0066 27       		.uleb128 0x27
 6657 0067 19       		.uleb128 0x19
 6658 0068 11       		.uleb128 0x11
 6659 0069 01       		.uleb128 0x1
 6660 006a 12       		.uleb128 0x12
 6661 006b 06       		.uleb128 0x6
 6662 006c 40       		.uleb128 0x40
 6663 006d 18       		.uleb128 0x18
 6664 006e 9742     		.uleb128 0x2117
 6665 0070 19       		.uleb128 0x19
 6666 0071 01       		.uleb128 0x1
 6667 0072 13       		.uleb128 0x13
 6668 0073 00       		.byte	0
 6669 0074 00       		.byte	0
 6670 0075 08       		.uleb128 0x8
 6671 0076 898201   		.uleb128 0x4109
 6672 0079 01       		.byte	0x1
 6673 007a 11       		.uleb128 0x11
 6674 007b 01       		.uleb128 0x1
 6675 007c 31       		.uleb128 0x31
 6676 007d 13       		.uleb128 0x13
 6677 007e 01       		.uleb128 0x1
 6678 007f 13       		.uleb128 0x13
 6679 0080 00       		.byte	0
 6680 0081 00       		.byte	0
 6681 0082 09       		.uleb128 0x9
 6682 0083 8A8201   		.uleb128 0x410a
 6683 0086 00       		.byte	0
 6684 0087 02       		.uleb128 0x2
 6685 0088 18       		.uleb128 0x18
 6686 0089 9142     		.uleb128 0x2111
 6687 008b 18       		.uleb128 0x18
 6688 008c 00       		.byte	0
 6689 008d 00       		.byte	0
 6690 008e 0A       		.uleb128 0xa
 6691 008f 898201   		.uleb128 0x4109
 6692 0092 01       		.byte	0x1
 6693 0093 11       		.uleb128 0x11
 6694 0094 01       		.uleb128 0x1
 6695 0095 31       		.uleb128 0x31
 6696 0096 13       		.uleb128 0x13
 6697 0097 00       		.byte	0
 6698 0098 00       		.byte	0
 6699 0099 0B       		.uleb128 0xb
 6700 009a 2E       		.uleb128 0x2e
 6701 009b 01       		.byte	0x1
 6702 009c 3F       		.uleb128 0x3f
 6703 009d 19       		.uleb128 0x19
 6704 009e 03       		.uleb128 0x3
 6705 009f 0E       		.uleb128 0xe
ARM GAS  C:\Users\Blayke\AppData\Local\Temp\ccFauHWb.s 			page 136


 6706 00a0 3A       		.uleb128 0x3a
 6707 00a1 0B       		.uleb128 0xb
 6708 00a2 3B       		.uleb128 0x3b
 6709 00a3 0B       		.uleb128 0xb
 6710 00a4 27       		.uleb128 0x27
 6711 00a5 19       		.uleb128 0x19
 6712 00a6 49       		.uleb128 0x49
 6713 00a7 13       		.uleb128 0x13
 6714 00a8 8701     		.uleb128 0x87
 6715 00aa 19       		.uleb128 0x19
 6716 00ab 11       		.uleb128 0x11
 6717 00ac 01       		.uleb128 0x1
 6718 00ad 12       		.uleb128 0x12
 6719 00ae 06       		.uleb128 0x6
 6720 00af 40       		.uleb128 0x40
 6721 00b0 18       		.uleb128 0x18
 6722 00b1 9642     		.uleb128 0x2116
 6723 00b3 19       		.uleb128 0x19
 6724 00b4 01       		.uleb128 0x1
 6725 00b5 13       		.uleb128 0x13
 6726 00b6 00       		.byte	0
 6727 00b7 00       		.byte	0
 6728 00b8 0C       		.uleb128 0xc
 6729 00b9 34       		.uleb128 0x34
 6730 00ba 00       		.byte	0
 6731 00bb 03       		.uleb128 0x3
 6732 00bc 0E       		.uleb128 0xe
 6733 00bd 3A       		.uleb128 0x3a
 6734 00be 0B       		.uleb128 0xb
 6735 00bf 3B       		.uleb128 0x3b
 6736 00c0 0B       		.uleb128 0xb
 6737 00c1 49       		.uleb128 0x49
 6738 00c2 13       		.uleb128 0x13
 6739 00c3 1C       		.uleb128 0x1c
 6740 00c4 0B       		.uleb128 0xb
 6741 00c5 00       		.byte	0
 6742 00c6 00       		.byte	0
 6743 00c7 0D       		.uleb128 0xd
 6744 00c8 0B       		.uleb128 0xb
 6745 00c9 01       		.byte	0x1
 6746 00ca 11       		.uleb128 0x11
 6747 00cb 01       		.uleb128 0x1
 6748 00cc 12       		.uleb128 0x12
 6749 00cd 06       		.uleb128 0x6
 6750 00ce 01       		.uleb128 0x1
 6751 00cf 13       		.uleb128 0x13
 6752 00d0 00       		.byte	0
 6753 00d1 00       		.byte	0
 6754 00d2 0E       		.uleb128 0xe
 6755 00d3 34       		.uleb128 0x34
 6756 00d4 00       		.byte	0
 6757 00d5 03       		.uleb128 0x3
 6758 00d6 0E       		.uleb128 0xe
 6759 00d7 3A       		.uleb128 0x3a
 6760 00d8 0B       		.uleb128 0xb
 6761 00d9 3B       		.uleb128 0x3b
 6762 00da 05       		.uleb128 0x5
ARM GAS  C:\Users\Blayke\AppData\Local\Temp\ccFauHWb.s 			page 137


 6763 00db 49       		.uleb128 0x49
 6764 00dc 13       		.uleb128 0x13
 6765 00dd 02       		.uleb128 0x2
 6766 00de 17       		.uleb128 0x17
 6767 00df 00       		.byte	0
 6768 00e0 00       		.byte	0
 6769 00e1 0F       		.uleb128 0xf
 6770 00e2 34       		.uleb128 0x34
 6771 00e3 00       		.byte	0
 6772 00e4 03       		.uleb128 0x3
 6773 00e5 08       		.uleb128 0x8
 6774 00e6 3A       		.uleb128 0x3a
 6775 00e7 0B       		.uleb128 0xb
 6776 00e8 3B       		.uleb128 0x3b
 6777 00e9 0B       		.uleb128 0xb
 6778 00ea 49       		.uleb128 0x49
 6779 00eb 13       		.uleb128 0x13
 6780 00ec 02       		.uleb128 0x2
 6781 00ed 17       		.uleb128 0x17
 6782 00ee 00       		.byte	0
 6783 00ef 00       		.byte	0
 6784 00f0 10       		.uleb128 0x10
 6785 00f1 34       		.uleb128 0x34
 6786 00f2 00       		.byte	0
 6787 00f3 03       		.uleb128 0x3
 6788 00f4 08       		.uleb128 0x8
 6789 00f5 3A       		.uleb128 0x3a
 6790 00f6 0B       		.uleb128 0xb
 6791 00f7 3B       		.uleb128 0x3b
 6792 00f8 05       		.uleb128 0x5
 6793 00f9 49       		.uleb128 0x49
 6794 00fa 13       		.uleb128 0x13
 6795 00fb 02       		.uleb128 0x2
 6796 00fc 17       		.uleb128 0x17
 6797 00fd 00       		.byte	0
 6798 00fe 00       		.byte	0
 6799 00ff 11       		.uleb128 0x11
 6800 0100 0B       		.uleb128 0xb
 6801 0101 01       		.byte	0x1
 6802 0102 55       		.uleb128 0x55
 6803 0103 17       		.uleb128 0x17
 6804 0104 01       		.uleb128 0x1
 6805 0105 13       		.uleb128 0x13
 6806 0106 00       		.byte	0
 6807 0107 00       		.byte	0
 6808 0108 12       		.uleb128 0x12
 6809 0109 34       		.uleb128 0x34
 6810 010a 00       		.byte	0
 6811 010b 03       		.uleb128 0x3
 6812 010c 0E       		.uleb128 0xe
 6813 010d 3A       		.uleb128 0x3a
 6814 010e 0B       		.uleb128 0xb
 6815 010f 3B       		.uleb128 0x3b
 6816 0110 05       		.uleb128 0x5
 6817 0111 49       		.uleb128 0x49
 6818 0112 13       		.uleb128 0x13
 6819 0113 00       		.byte	0
ARM GAS  C:\Users\Blayke\AppData\Local\Temp\ccFauHWb.s 			page 138


 6820 0114 00       		.byte	0
 6821 0115 13       		.uleb128 0x13
 6822 0116 34       		.uleb128 0x34
 6823 0117 00       		.byte	0
 6824 0118 03       		.uleb128 0x3
 6825 0119 0E       		.uleb128 0xe
 6826 011a 3A       		.uleb128 0x3a
 6827 011b 0B       		.uleb128 0xb
 6828 011c 3B       		.uleb128 0x3b
 6829 011d 05       		.uleb128 0x5
 6830 011e 49       		.uleb128 0x49
 6831 011f 13       		.uleb128 0x13
 6832 0120 3F       		.uleb128 0x3f
 6833 0121 19       		.uleb128 0x19
 6834 0122 3C       		.uleb128 0x3c
 6835 0123 19       		.uleb128 0x19
 6836 0124 00       		.byte	0
 6837 0125 00       		.byte	0
 6838 0126 14       		.uleb128 0x14
 6839 0127 35       		.uleb128 0x35
 6840 0128 00       		.byte	0
 6841 0129 49       		.uleb128 0x49
 6842 012a 13       		.uleb128 0x13
 6843 012b 00       		.byte	0
 6844 012c 00       		.byte	0
 6845 012d 15       		.uleb128 0x15
 6846 012e 34       		.uleb128 0x34
 6847 012f 00       		.byte	0
 6848 0130 03       		.uleb128 0x3
 6849 0131 0E       		.uleb128 0xe
 6850 0132 3A       		.uleb128 0x3a
 6851 0133 0B       		.uleb128 0xb
 6852 0134 3B       		.uleb128 0x3b
 6853 0135 0B       		.uleb128 0xb
 6854 0136 49       		.uleb128 0x49
 6855 0137 13       		.uleb128 0x13
 6856 0138 3F       		.uleb128 0x3f
 6857 0139 19       		.uleb128 0x19
 6858 013a 02       		.uleb128 0x2
 6859 013b 18       		.uleb128 0x18
 6860 013c 00       		.byte	0
 6861 013d 00       		.byte	0
 6862 013e 16       		.uleb128 0x16
 6863 013f 01       		.uleb128 0x1
 6864 0140 01       		.byte	0x1
 6865 0141 49       		.uleb128 0x49
 6866 0142 13       		.uleb128 0x13
 6867 0143 01       		.uleb128 0x1
 6868 0144 13       		.uleb128 0x13
 6869 0145 00       		.byte	0
 6870 0146 00       		.byte	0
 6871 0147 17       		.uleb128 0x17
 6872 0148 21       		.uleb128 0x21
 6873 0149 00       		.byte	0
 6874 014a 49       		.uleb128 0x49
 6875 014b 13       		.uleb128 0x13
 6876 014c 2F       		.uleb128 0x2f
ARM GAS  C:\Users\Blayke\AppData\Local\Temp\ccFauHWb.s 			page 139


 6877 014d 0B       		.uleb128 0xb
 6878 014e 00       		.byte	0
 6879 014f 00       		.byte	0
 6880 0150 18       		.uleb128 0x18
 6881 0151 34       		.uleb128 0x34
 6882 0152 00       		.byte	0
 6883 0153 03       		.uleb128 0x3
 6884 0154 0E       		.uleb128 0xe
 6885 0155 3A       		.uleb128 0x3a
 6886 0156 0B       		.uleb128 0xb
 6887 0157 3B       		.uleb128 0x3b
 6888 0158 0B       		.uleb128 0xb
 6889 0159 49       		.uleb128 0x49
 6890 015a 13       		.uleb128 0x13
 6891 015b 3F       		.uleb128 0x3f
 6892 015c 19       		.uleb128 0x19
 6893 015d 3C       		.uleb128 0x3c
 6894 015e 19       		.uleb128 0x19
 6895 015f 00       		.byte	0
 6896 0160 00       		.byte	0
 6897 0161 19       		.uleb128 0x19
 6898 0162 26       		.uleb128 0x26
 6899 0163 00       		.byte	0
 6900 0164 49       		.uleb128 0x49
 6901 0165 13       		.uleb128 0x13
 6902 0166 00       		.byte	0
 6903 0167 00       		.byte	0
 6904 0168 1A       		.uleb128 0x1a
 6905 0169 2E       		.uleb128 0x2e
 6906 016a 00       		.byte	0
 6907 016b 3F       		.uleb128 0x3f
 6908 016c 19       		.uleb128 0x19
 6909 016d 3C       		.uleb128 0x3c
 6910 016e 19       		.uleb128 0x19
 6911 016f 6E       		.uleb128 0x6e
 6912 0170 0E       		.uleb128 0xe
 6913 0171 03       		.uleb128 0x3
 6914 0172 0E       		.uleb128 0xe
 6915 0173 3A       		.uleb128 0x3a
 6916 0174 0B       		.uleb128 0xb
 6917 0175 3B       		.uleb128 0x3b
 6918 0176 0B       		.uleb128 0xb
 6919 0177 00       		.byte	0
 6920 0178 00       		.byte	0
 6921 0179 00       		.byte	0
 6922              		.section	.debug_loc,"",%progbits
 6923              	.Ldebug_loc0:
 6924              	.LLST0:
 6925 0000 8C010000 		.4byte	.LVL63
 6926 0004 92010000 		.4byte	.LVL64
 6927 0008 0200     		.2byte	0x2
 6928 000a 30       		.byte	0x30
 6929 000b 9F       		.byte	0x9f
 6930 000c 92010000 		.4byte	.LVL64
 6931 0010 B2010000 		.4byte	.LVL67
 6932 0014 0100     		.2byte	0x1
 6933 0016 52       		.byte	0x52
ARM GAS  C:\Users\Blayke\AppData\Local\Temp\ccFauHWb.s 			page 140


 6934 0017 00000000 		.4byte	0
 6935 001b 00000000 		.4byte	0
 6936              	.LLST1:
 6937 001f 3A010000 		.4byte	.LVL51
 6938 0023 3E010000 		.4byte	.LVL52
 6939 0027 0200     		.2byte	0x2
 6940 0029 30       		.byte	0x30
 6941 002a 9F       		.byte	0x9f
 6942 002b 3E010000 		.4byte	.LVL52
 6943 002f 60010000 		.4byte	.LVL57
 6944 0033 0100     		.2byte	0x1
 6945 0035 54       		.byte	0x54
 6946 0036 00000000 		.4byte	0
 6947 003a 00000000 		.4byte	0
 6948              	.LLST2:
 6949 003e 5E010000 		.4byte	.LVL56
 6950 0042 62010000 		.4byte	.LVL58
 6951 0046 0200     		.2byte	0x2
 6952 0048 30       		.byte	0x30
 6953 0049 9F       		.byte	0x9f
 6954 004a 62010000 		.4byte	.LVL58
 6955 004e B6010000 		.4byte	.LVL69
 6956 0052 0100     		.2byte	0x1
 6957 0054 54       		.byte	0x54
 6958 0055 00000000 		.4byte	0
 6959 0059 00000000 		.4byte	0
 6960              	.LLST3:
 6961 005d 8C010000 		.4byte	.LVL63
 6962 0061 92010000 		.4byte	.LVL64
 6963 0065 0200     		.2byte	0x2
 6964 0067 30       		.byte	0x30
 6965 0068 9F       		.byte	0x9f
 6966 0069 92010000 		.4byte	.LVL64
 6967 006d B4010000 		.4byte	.LVL68
 6968 0071 0100     		.2byte	0x1
 6969 0073 53       		.byte	0x53
 6970 0074 00000000 		.4byte	0
 6971 0078 00000000 		.4byte	0
 6972              	.LLST4:
 6973 007c 0E020000 		.4byte	.LVL77
 6974 0080 5C040000 		.4byte	.LVL126
 6975 0084 0100     		.2byte	0x1
 6976 0086 55       		.byte	0x55
 6977 0087 00000000 		.4byte	0
 6978 008b 00000000 		.4byte	0
 6979              	.LLST5:
 6980 008f C6030000 		.4byte	.LVL111
 6981 0093 D4050000 		.4byte	.LVL156
 6982 0097 0100     		.2byte	0x1
 6983 0099 56       		.byte	0x56
 6984 009a 00000000 		.4byte	0
 6985 009e 00000000 		.4byte	0
 6986              	.LLST6:
 6987 00a2 2E040000 		.4byte	.LVL121
 6988 00a6 4A040000 		.4byte	.LVL123
 6989 00aa 0100     		.2byte	0x1
 6990 00ac 50       		.byte	0x50
ARM GAS  C:\Users\Blayke\AppData\Local\Temp\ccFauHWb.s 			page 141


 6991 00ad 00000000 		.4byte	0
 6992 00b1 00000000 		.4byte	0
 6993              	.LLST7:
 6994 00b5 D4040000 		.4byte	.LVL139
 6995 00b9 DA040000 		.4byte	.LVL140
 6996 00bd 0100     		.2byte	0x1
 6997 00bf 50       		.byte	0x50
 6998 00c0 00000000 		.4byte	0
 6999 00c4 00000000 		.4byte	0
 7000              	.LLST8:
 7001 00c8 E0070000 		.4byte	.LVL186
 7002 00cc 14080000 		.4byte	.LVL192
 7003 00d0 0200     		.2byte	0x2
 7004 00d2 31       		.byte	0x31
 7005 00d3 9F       		.byte	0x9f
 7006 00d4 00000000 		.4byte	0
 7007 00d8 00000000 		.4byte	0
 7008              	.LLST9:
 7009 00dc D0090000 		.4byte	.LVL223
 7010 00e0 E8090000 		.4byte	.LVL224
 7011 00e4 0100     		.2byte	0x1
 7012 00e6 52       		.byte	0x52
 7013 00e7 E8090000 		.4byte	.LVL224
 7014 00eb F1090000 		.4byte	.LVL225-1
 7015 00ef 0500     		.2byte	0x5
 7016 00f1 03       		.byte	0x3
 7017 00f2 00000000 		.4byte	current_stage
 7018 00f6 00000000 		.4byte	0
 7019 00fa 00000000 		.4byte	0
 7020              		.section	.debug_aranges,"",%progbits
 7021 0000 2C000000 		.4byte	0x2c
 7022 0004 0200     		.2byte	0x2
 7023 0006 00000000 		.4byte	.Ldebug_info0
 7024 000a 04       		.byte	0x4
 7025 000b 00       		.byte	0
 7026 000c 0000     		.2byte	0
 7027 000e 0000     		.2byte	0
 7028 0010 00000000 		.4byte	.LFB64
 7029 0014 08000000 		.4byte	.LFE64-.LFB64
 7030 0018 00000000 		.4byte	.LFB65
 7031 001c 24000000 		.4byte	.LFE65-.LFB65
 7032 0020 00000000 		.4byte	.LFB66
 7033 0024 5C0B0000 		.4byte	.LFE66-.LFB66
 7034 0028 00000000 		.4byte	0
 7035 002c 00000000 		.4byte	0
 7036              		.section	.debug_ranges,"",%progbits
 7037              	.Ldebug_ranges0:
 7038 0000 8C010000 		.4byte	.LBB5
 7039 0004 8E010000 		.4byte	.LBE5
 7040 0008 90010000 		.4byte	.LBB6
 7041 000c B0010000 		.4byte	.LBE6
 7042 0010 00000000 		.4byte	0
 7043 0014 00000000 		.4byte	0
 7044 0018 00000000 		.4byte	.LFB64
 7045 001c 08000000 		.4byte	.LFE64
 7046 0020 00000000 		.4byte	.LFB65
 7047 0024 24000000 		.4byte	.LFE65
ARM GAS  C:\Users\Blayke\AppData\Local\Temp\ccFauHWb.s 			page 142


 7048 0028 00000000 		.4byte	.LFB66
 7049 002c 5C0B0000 		.4byte	.LFE66
 7050 0030 00000000 		.4byte	0
 7051 0034 00000000 		.4byte	0
 7052              		.section	.debug_line,"",%progbits
 7053              	.Ldebug_line0:
 7054 0000 56050000 		.section	.debug_str,"MS",%progbits,1
 7054      02005003 
 7054      00000201 
 7054      FB0E0D00 
 7054      01010101 
 7055              	.LASF72:
 7056 0000 61726D4F 		.ascii	"armOpen\000"
 7056      70656E00 
 7057              	.LASF99:
 7058 0008 54696D65 		.ascii	"Timer_straight_adjust_Start\000"
 7058      725F7374 
 7058      72616967 
 7058      68745F61 
 7058      646A7573 
 7059              	.LASF58:
 7060 0024 756C7469 		.ascii	"ultimateDebugging\000"
 7060      6D617465 
 7060      44656275 
 7060      6767696E 
 7060      6700
 7061              	.LASF89:
 7062 0036 4D6F746F 		.ascii	"Motor_Right_Driver_WriteCompare\000"
 7062      725F5269 
 7062      6768745F 
 7062      44726976 
 7062      65725F57 
 7063              	.LASF49:
 7064 0056 7075636B 		.ascii	"puck_west_clearance\000"
 7064      5F776573 
 7064      745F636C 
 7064      65617261 
 7064      6E636500 
 7065              	.LASF56:
 7066 006a 636F6C6F 		.ascii	"colourSensingOutput\000"
 7066      75725365 
 7066      6E73696E 
 7066      674F7574 
 7066      70757400 
 7067              	.LASF61:
 7068 007e 636F6C6F 		.ascii	"colourSensingInitialise\000"
 7068      75725365 
 7068      6E73696E 
 7068      67496E69 
 7068      7469616C 
 7069              	.LASF59:
 7070 0096 73747261 		.ascii	"straightAdjust\000"
 7070      69676874 
 7070      41646A75 
 7070      737400
 7071              	.LASF2:
 7072 00a5 73686F72 		.ascii	"short int\000"
ARM GAS  C:\Users\Blayke\AppData\Local\Temp\ccFauHWb.s 			page 143


 7072      7420696E 
 7072      7400
 7073              	.LASF46:
 7074 00af 626C6F63 		.ascii	"block_east_clearance\000"
 7074      6B5F6561 
 7074      73745F63 
 7074      6C656172 
 7074      616E6365 
 7075              	.LASF96:
 7076 00c4 536F6E69 		.ascii	"Sonic_StartEx\000"
 7076      635F5374 
 7076      61727445 
 7076      7800
 7077              	.LASF93:
 7078 00d2 4D6F746F 		.ascii	"Motor_Right_Decoder_Start\000"
 7078      725F5269 
 7078      6768745F 
 7078      4465636F 
 7078      6465725F 
 7079              	.LASF100:
 7080 00ec 54696D65 		.ascii	"Timer_straight_adjust_ReadStatusRegister\000"
 7080      725F7374 
 7080      72616967 
 7080      68745F61 
 7080      646A7573 
 7081              	.LASF92:
 7082 0115 4D6F746F 		.ascii	"Motor_Left_Decoder_Start\000"
 7082      725F4C65 
 7082      66745F44 
 7082      65636F64 
 7082      65725F53 
 7083              	.LASF14:
 7084 012e 6C6F6E67 		.ascii	"long double\000"
 7084      20646F75 
 7084      626C6500 
 7085              	.LASF48:
 7086 013a 7075636B 		.ascii	"puck_east_clearance\000"
 7086      5F656173 
 7086      745F636C 
 7086      65617261 
 7086      6E636500 
 7087              	.LASF42:
 7088 014e 7075636B 		.ascii	"puck_temp_pile\000"
 7088      5F74656D 
 7088      705F7069 
 7088      6C6500
 7089              	.LASF16:
 7090 015d 53746172 		.ascii	"StartIH\000"
 7090      74494800 
 7091              	.LASF21:
 7092 0165 7075636B 		.ascii	"puck_check\000"
 7092      5F636865 
 7092      636B00
 7093              	.LASF36:
 7094 0170 756C7472 		.ascii	"ultrasonic_flag\000"
 7094      61736F6E 
 7094      69635F66 
ARM GAS  C:\Users\Blayke\AppData\Local\Temp\ccFauHWb.s 			page 144


 7094      6C616700 
 7095              	.LASF82:
 7096 0180 5261636B 		.ascii	"Rack_Servo_PWM_Sleep\000"
 7096      5F536572 
 7096      766F5F50 
 7096      574D5F53 
 7096      6C656570 
 7097              	.LASF95:
 7098 0195 54696D65 		.ascii	"Timer_1_ReadStatusRegister\000"
 7098      725F315F 
 7098      52656164 
 7098      53746174 
 7098      75735265 
 7099              	.LASF80:
 7100 01b0 5261636B 		.ascii	"Rack_Servo_PWM_Start\000"
 7100      5F536572 
 7100      766F5F50 
 7100      574D5F53 
 7100      74617274 
 7101              	.LASF67:
 7102 01c5 6D6F7665 		.ascii	"moveDynamic\000"
 7102      44796E61 
 7102      6D696300 
 7103              	.LASF85:
 7104 01d1 47726970 		.ascii	"Gripper_Servo_PWM_Sleep\000"
 7104      7065725F 
 7104      53657276 
 7104      6F5F5057 
 7104      4D5F536C 
 7105              	.LASF44:
 7106 01e9 626C6F63 		.ascii	"block_location\000"
 7106      6B5F6C6F 
 7106      63617469 
 7106      6F6E00
 7107              	.LASF83:
 7108 01f8 47726970 		.ascii	"Gripper_Servo_PWM_Start\000"
 7108      7065725F 
 7108      53657276 
 7108      6F5F5057 
 7108      4D5F5374 
 7109              	.LASF23:
 7110 0210 7075636B 		.ascii	"puck_correct\000"
 7110      5F636F72 
 7110      72656374 
 7110      00
 7111              	.LASF53:
 7112 021d 756C7472 		.ascii	"ultrasonicInterruptHandler\000"
 7112      61736F6E 
 7112      6963496E 
 7112      74657272 
 7112      75707448 
 7113              	.LASF11:
 7114 0238 666C6F61 		.ascii	"float\000"
 7114      7400
 7115              	.LASF69:
 7116 023e 6368616E 		.ascii	"changeHeightToPuck\000"
 7116      67654865 
ARM GAS  C:\Users\Blayke\AppData\Local\Temp\ccFauHWb.s 			page 145


 7116      69676874 
 7116      546F5075 
 7116      636B00
 7117              	.LASF6:
 7118 0251 6C6F6E67 		.ascii	"long long int\000"
 7118      206C6F6E 
 7118      6720696E 
 7118      7400
 7119              	.LASF17:
 7120 025f 626C6F63 		.ascii	"block_and_puck_edge_midpoint\000"
 7120      6B5F616E 
 7120      645F7075 
 7120      636B5F65 
 7120      6467655F 
 7121              	.LASF91:
 7122 027c 4D6F746F 		.ascii	"Motor_Right_Driver_Sleep\000"
 7122      725F5269 
 7122      6768745F 
 7122      44726976 
 7122      65725F53 
 7123              	.LASF75:
 7124 0295 4144435F 		.ascii	"ADC_Start\000"
 7124      53746172 
 7124      7400
 7125              	.LASF4:
 7126 029f 6C6F6E67 		.ascii	"long int\000"
 7126      20696E74 
 7126      00
 7127              	.LASF26:
 7128 02a8 696E7465 		.ascii	"internal_orientation\000"
 7128      726E616C 
 7128      5F6F7269 
 7128      656E7461 
 7128      74696F6E 
 7129              	.LASF87:
 7130 02bd 4D6F746F 		.ascii	"Motor_Right_Driver_Start\000"
 7130      725F5269 
 7130      6768745F 
 7130      44726976 
 7130      65725F53 
 7131              	.LASF22:
 7132 02d6 6F666673 		.ascii	"offset\000"
 7132      657400
 7133              	.LASF18:
 7134 02dd 7075636B 		.ascii	"puck_construction_plan_index\000"
 7134      5F636F6E 
 7134      73747275 
 7134      6374696F 
 7134      6E5F706C 
 7135              	.LASF63:
 7136 02fa 626C696E 		.ascii	"blinkLED\000"
 7136      6B4C4544 
 7136      00
 7137              	.LASF40:
 7138 0303 73616665 		.ascii	"safety_override\000"
 7138      74795F6F 
 7138      76657272 
ARM GAS  C:\Users\Blayke\AppData\Local\Temp\ccFauHWb.s 			page 146


 7138      69646500 
 7139              	.LASF74:
 7140 0313 55415254 		.ascii	"UART_1_Start\000"
 7140      5F315F53 
 7140      74617274 
 7140      00
 7141              	.LASF68:
 7142 0320 7472616E 		.ascii	"translateUntil\000"
 7142      736C6174 
 7142      65556E74 
 7142      696C00
 7143              	.LASF62:
 7144 032f 636F6E74 		.ascii	"control_photodiode_Write\000"
 7144      726F6C5F 
 7144      70686F74 
 7144      6F64696F 
 7144      64655F57 
 7145              	.LASF19:
 7146 0348 7075636B 		.ascii	"puck_rack_index\000"
 7146      5F726163 
 7146      6B5F696E 
 7146      64657800 
 7147              	.LASF81:
 7148 0358 5261636B 		.ascii	"Rack_Servo_PWM_WriteCompare\000"
 7148      5F536572 
 7148      766F5F50 
 7148      574D5F57 
 7148      72697465 
 7149              	.LASF34:
 7150 0374 73746174 		.ascii	"state\000"
 7150      6500
 7151              	.LASF64:
 7152 037a 6368616E 		.ascii	"changeOrientation\000"
 7152      67654F72 
 7152      69656E74 
 7152      6174696F 
 7152      6E00
 7153              	.LASF1:
 7154 038c 756E7369 		.ascii	"unsigned char\000"
 7154      676E6564 
 7154      20636861 
 7154      7200
 7155              	.LASF33:
 7156 039a 636F6C6F 		.ascii	"colour_flag\000"
 7156      75725F66 
 7156      6C616700 
 7157              	.LASF90:
 7158 03a6 4D6F746F 		.ascii	"Motor_Left_Driver_Sleep\000"
 7158      725F4C65 
 7158      66745F44 
 7158      72697665 
 7158      725F536C 
 7159              	.LASF27:
 7160 03be 7075636B 		.ascii	"puck_rack_scans\000"
 7160      5F726163 
 7160      6B5F7363 
 7160      616E7300 
ARM GAS  C:\Users\Blayke\AppData\Local\Temp\ccFauHWb.s 			page 147


 7161              	.LASF70:
 7162 03ce 6D6F7665 		.ascii	"moveUntilPuck\000"
 7162      556E7469 
 7162      6C507563 
 7162      6B00
 7163              	.LASF86:
 7164 03dc 4D6F746F 		.ascii	"Motor_Left_Driver_Start\000"
 7164      725F4C65 
 7164      66745F44 
 7164      72697665 
 7164      725F5374 
 7165              	.LASF45:
 7166 03f4 7075636B 		.ascii	"puck_location\000"
 7166      5F6C6F63 
 7166      6174696F 
 7166      6E00
 7167              	.LASF66:
 7168 0402 7472616E 		.ascii	"translateMoveDynamic\000"
 7168      736C6174 
 7168      654D6F76 
 7168      6544796E 
 7168      616D6963 
 7169              	.LASF57:
 7170 0417 73707269 		.ascii	"sprintf\000"
 7170      6E746600 
 7171              	.LASF37:
 7172 041f 7075636B 		.ascii	"puck_construction_plan\000"
 7172      5F636F6E 
 7172      73747275 
 7172      6374696F 
 7172      6E5F706C 
 7173              	.LASF77:
 7174 0436 49444143 		.ascii	"IDAC8_1_SetRange\000"
 7174      385F315F 
 7174      53657452 
 7174      616E6765 
 7174      00
 7175              	.LASF0:
 7176 0447 7369676E 		.ascii	"signed char\000"
 7176      65642063 
 7176      68617200 
 7177              	.LASF29:
 7178 0453 626C6F63 		.ascii	"block_edge_location\000"
 7178      6B5F6564 
 7178      67655F6C 
 7178      6F636174 
 7178      696F6E00 
 7179              	.LASF7:
 7180 0467 6C6F6E67 		.ascii	"long long unsigned int\000"
 7180      206C6F6E 
 7180      6720756E 
 7180      7369676E 
 7180      65642069 
 7181              	.LASF79:
 7182 047e 636F6E74 		.ascii	"control_led_Write\000"
 7182      726F6C5F 
 7182      6C65645F 
ARM GAS  C:\Users\Blayke\AppData\Local\Temp\ccFauHWb.s 			page 148


 7182      57726974 
 7182      6500
 7183              	.LASF8:
 7184 0490 756E7369 		.ascii	"unsigned int\000"
 7184      676E6564 
 7184      20696E74 
 7184      00
 7185              	.LASF50:
 7186 049d 69646163 		.ascii	"idac_value\000"
 7186      5F76616C 
 7186      756500
 7187              	.LASF5:
 7188 04a8 6C6F6E67 		.ascii	"long unsigned int\000"
 7188      20756E73 
 7188      69676E65 
 7188      6420696E 
 7188      7400
 7189              	.LASF76:
 7190 04ba 49444143 		.ascii	"IDAC8_1_Start\000"
 7190      385F315F 
 7190      53746172 
 7190      7400
 7191              	.LASF38:
 7192 04c8 63757272 		.ascii	"current_stage\000"
 7192      656E745F 
 7192      73746167 
 7192      6500
 7193              	.LASF84:
 7194 04d6 47726970 		.ascii	"Gripper_Servo_PWM_WriteCompare\000"
 7194      7065725F 
 7194      53657276 
 7194      6F5F5057 
 7194      4D5F5772 
 7195              	.LASF73:
 7196 04f5 5449415F 		.ascii	"TIA_1_Start\000"
 7196      315F5374 
 7196      61727400 
 7197              	.LASF65:
 7198 0501 64697374 		.ascii	"distanceSensor\000"
 7198      616E6365 
 7198      53656E73 
 7198      6F7200
 7199              	.LASF13:
 7200 0510 63686172 		.ascii	"char\000"
 7200      00
 7201              	.LASF104:
 7202 0515 453A5C44 		.ascii	"E:\\Documents\\Uni S12019 Notes\\ECE3091\\Temp Clon"
 7202      6F63756D 
 7202      656E7473 
 7202      5C556E69 
 7202      20533132 
 7203 0544 655C4543 		.ascii	"e\\ECE3091_Group17\\Group17RobotReal\\Group17Robot."
 7203      45333039 
 7203      315F4772 
 7203      6F757031 
 7203      375C4772 
 7204 0574 63796473 		.ascii	"cydsn\000"
ARM GAS  C:\Users\Blayke\AppData\Local\Temp\ccFauHWb.s 			page 149


 7204      6E00
 7205              	.LASF105:
 7206 057a 6D61696E 		.ascii	"main\000"
 7206      00
 7207              	.LASF10:
 7208 057f 696E7433 		.ascii	"int32_t\000"
 7208      325F7400 
 7209              	.LASF71:
 7210 0587 61726D43 		.ascii	"armClose\000"
 7210      6C6F7365 
 7210      00
 7211              	.LASF51:
 7212 0590 504C414E 		.ascii	"PLAN_SCAN_VERTICAL\000"
 7212      5F534341 
 7212      4E5F5645 
 7212      52544943 
 7212      414C00
 7213              	.LASF39:
 7214 05a3 636F6C6F 		.ascii	"colour_sensing_algorithm\000"
 7214      75725F73 
 7214      656E7369 
 7214      6E675F61 
 7214      6C676F72 
 7215              	.LASF35:
 7216 05bc 6D6F7669 		.ascii	"moving\000"
 7216      6E6700
 7217              	.LASF94:
 7218 05c3 54696D65 		.ascii	"Timer_1_Start\000"
 7218      725F315F 
 7218      53746172 
 7218      7400
 7219              	.LASF3:
 7220 05d1 73686F72 		.ascii	"short unsigned int\000"
 7220      7420756E 
 7220      7369676E 
 7220      65642069 
 7220      6E7400
 7221              	.LASF47:
 7222 05e4 626C6F63 		.ascii	"block_west_clearance\000"
 7222      6B5F7765 
 7222      73745F63 
 7222      6C656172 
 7222      616E6365 
 7223              	.LASF78:
 7224 05f9 49444143 		.ascii	"IDAC8_1_SetValue\000"
 7224      385F315F 
 7224      53657456 
 7224      616C7565 
 7224      00
 7225              	.LASF103:
 7226 060a 6D61696E 		.ascii	"main.c\000"
 7226      2E6300
 7227              	.LASF43:
 7228 0611 62656769 		.ascii	"begin_navigation\000"
 7228      6E5F6E61 
 7228      76696761 
 7228      74696F6E 
ARM GAS  C:\Users\Blayke\AppData\Local\Temp\ccFauHWb.s 			page 150


 7228      00
 7229              	.LASF97:
 7230 0622 53746172 		.ascii	"Start_StartEx\000"
 7230      745F5374 
 7230      61727445 
 7230      7800
 7231              	.LASF12:
 7232 0630 646F7562 		.ascii	"double\000"
 7232      6C6500
 7233              	.LASF55:
 7234 0637 55415254 		.ascii	"UART_1_PutString\000"
 7234      5F315F50 
 7234      75745374 
 7234      72696E67 
 7234      00
 7235              	.LASF32:
 7236 0648 73656E73 		.ascii	"sensor_distances\000"
 7236      6F725F64 
 7236      69737461 
 7236      6E636573 
 7236      00
 7237              	.LASF24:
 7238 0659 68656C64 		.ascii	"heldColour\000"
 7238      436F6C6F 
 7238      757200
 7239              	.LASF20:
 7240 0664 626C6F63 		.ascii	"block_check\000"
 7240      6B5F6368 
 7240      65636B00 
 7241              	.LASF28:
 7242 0670 7075636B 		.ascii	"puck_rack_west_offsets\000"
 7242      5F726163 
 7242      6B5F7765 
 7242      73745F6F 
 7242      66667365 
 7243              	.LASF106:
 7244 0687 7075636B 		.ascii	"puck_scan\000"
 7244      5F736361 
 7244      6E00
 7245              	.LASF9:
 7246 0691 5F5F696E 		.ascii	"__int32_t\000"
 7246      7433325F 
 7246      7400
 7247              	.LASF98:
 7248 069b 73616665 		.ascii	"safetyDistanceCheck\000"
 7248      74794469 
 7248      7374616E 
 7248      63654368 
 7248      65636B00 
 7249              	.LASF60:
 7250 06af 6D6F7665 		.ascii	"moveUntil\000"
 7250      556E7469 
 7250      6C00
 7251              	.LASF15:
 7252 06b9 73697A65 		.ascii	"sizetype\000"
 7252      74797065 
 7252      00
ARM GAS  C:\Users\Blayke\AppData\Local\Temp\ccFauHWb.s 			page 151


 7253              	.LASF31:
 7254 06c2 6F757470 		.ascii	"output\000"
 7254      757400
 7255              	.LASF52:
 7256 06c9 64697374 		.ascii	"distance_returned_global\000"
 7256      616E6365 
 7256      5F726574 
 7256      75726E65 
 7256      645F676C 
 7257              	.LASF101:
 7258 06e2 436F6E74 		.ascii	"Control_Reset_Straight_Write\000"
 7258      726F6C5F 
 7258      52657365 
 7258      745F5374 
 7258      72616967 
 7259              	.LASF25:
 7260 06ff 49544D5F 		.ascii	"ITM_RxBuffer\000"
 7260      52784275 
 7260      66666572 
 7260      00
 7261              	.LASF102:
 7262 070c 474E5520 		.ascii	"GNU C11 5.4.1 20160609 (release) [ARM/embedded-5-br"
 7262      43313120 
 7262      352E342E 
 7262      31203230 
 7262      31363036 
 7263 073f 616E6368 		.ascii	"anch revision 237715] -mcpu=cortex-m3 -mthumb -g -O"
 7263      20726576 
 7263      6973696F 
 7263      6E203233 
 7263      37373135 
 7264 0772 67202D66 		.ascii	"g -ffunction-sections -ffat-lto-objects\000"
 7264      66756E63 
 7264      74696F6E 
 7264      2D736563 
 7264      74696F6E 
 7265              	.LASF54:
 7266 079a 43794465 		.ascii	"CyDelay\000"
 7266      6C617900 
 7267              	.LASF41:
 7268 07a2 63757272 		.ascii	"current_puck_stack_size\000"
 7268      656E745F 
 7268      7075636B 
 7268      5F737461 
 7268      636B5F73 
 7269              	.LASF88:
 7270 07ba 4D6F746F 		.ascii	"Motor_Left_Driver_WriteCompare\000"
 7270      725F4C65 
 7270      66745F44 
 7270      72697665 
 7270      725F5772 
 7271              	.LASF30:
 7272 07d9 696E6974 		.ascii	"initialisation\000"
 7272      69616C69 
 7272      73617469 
 7272      6F6E00
 7273              		.ident	"GCC: (GNU Tools for ARM Embedded Processors) 5.4.1 20160609 (release) [ARM/embedded-5-bran
ARM GAS  C:\Users\Blayke\AppData\Local\Temp\ccFauHWb.s 			page 152


