ARM GAS  C:\Users\Misha\AppData\Local\Temp\ccvKgAJb.s 			page 1


   1              		.syntax unified
   2              		.cpu cortex-m3
   3              		.fpu softvfp
   4              		.eabi_attribute 20, 1
   5              		.eabi_attribute 21, 1
   6              		.eabi_attribute 23, 3
   7              		.eabi_attribute 24, 1
   8              		.eabi_attribute 25, 1
   9              		.eabi_attribute 26, 1
  10              		.eabi_attribute 30, 1
  11              		.eabi_attribute 34, 1
  12              		.eabi_attribute 18, 4
  13              		.thumb
  14              		.syntax unified
  15              		.file	"mishamotor.c"
  16              		.text
  17              	.Ltext0:
  18              		.cfi_sections	.debug_frame
  19              		.section	.text.mishaMoveForward,"ax",%progbits
  20              		.align	2
  21              		.global	mishaMoveForward
  22              		.thumb
  23              		.thumb_func
  24              		.type	mishaMoveForward, %function
  25              	mishaMoveForward:
  26              	.LFB64:
  27              		.file 1 "mishamotor.c"
   1:mishamotor.c  **** /* ========================================
   2:mishamotor.c  ****  *
   3:mishamotor.c  ****  * Copyright YOUR COMPANY, THE YEAR
   4:mishamotor.c  ****  * All Rights Reserved
   5:mishamotor.c  ****  * UNPUBLISHED, LICENSED SOFTWARE.
   6:mishamotor.c  ****  *
   7:mishamotor.c  ****  * CONFIDENTIAL AND PROPRIETARY INFORMATION
   8:mishamotor.c  ****  * WHICH IS THE PROPERTY OF your company.
   9:mishamotor.c  ****  *
  10:mishamotor.c  ****  * ========================================
  11:mishamotor.c  **** */
  12:mishamotor.c  **** 
  13:mishamotor.c  **** // * PSOC LIBRARY * //
  14:mishamotor.c  **** #include "project.h"
  15:mishamotor.c  **** 
  16:mishamotor.c  **** // * C LIBRARIES * // 
  17:mishamotor.c  **** #include <stdio.h>
  18:mishamotor.c  **** #include <math.h>
  19:mishamotor.c  **** 
  20:mishamotor.c  **** // * OUR LIBRARIES * //
  21:mishamotor.c  **** #include "main.h"
  22:mishamotor.c  **** #include "colour.h"
  23:mishamotor.c  **** #include "ultrasonic.h" 
  24:mishamotor.c  **** #include "dcmotor.h"
  25:mishamotor.c  **** #include "servo.h"
  26:mishamotor.c  **** #include "mishamotor.h"
  27:mishamotor.c  **** #include "customMath.h"
  28:mishamotor.c  **** 
  29:mishamotor.c  **** // Variables:
  30:mishamotor.c  **** 
ARM GAS  C:\Users\Misha\AppData\Local\Temp\ccvKgAJb.s 			page 2


  31:mishamotor.c  **** int SPEED = 130;                   // DO NOT PUT ABOVE 200
  32:mishamotor.c  **** #define DELAY 500
  33:mishamotor.c  **** 
  34:mishamotor.c  **** 
  35:mishamotor.c  **** void mishaMoveForward(){
  28              		.loc 1 35 0
  29              		.cfi_startproc
  30              		@ args = 0, pretend = 0, frame = 0
  31              		@ frame_needed = 0, uses_anonymous_args = 0
  32 0000 70B5     		push	{r4, r5, r6, lr}
  33              		.cfi_def_cfa_offset 16
  34              		.cfi_offset 4, -16
  35              		.cfi_offset 5, -12
  36              		.cfi_offset 6, -8
  37              		.cfi_offset 14, -4
  36:mishamotor.c  ****     int count_left;
  37:mishamotor.c  ****     int count_right;
  38:mishamotor.c  ****     
  39:mishamotor.c  ****     Motor_Left_Control_Write(0);
  38              		.loc 1 39 0
  39 0002 0020     		movs	r0, #0
  40 0004 FFF7FEFF 		bl	Motor_Left_Control_Write
  41              	.LVL0:
  40:mishamotor.c  ****     Motor_Right_Control_Write(0);
  42              		.loc 1 40 0
  43 0008 0020     		movs	r0, #0
  44 000a FFF7FEFF 		bl	Motor_Right_Control_Write
  45              	.LVL1:
  41:mishamotor.c  ****     
  42:mishamotor.c  ****     Motor_Left_Driver_Wakeup();
  46              		.loc 1 42 0
  47 000e FFF7FEFF 		bl	Motor_Left_Driver_Wakeup
  48              	.LVL2:
  43:mishamotor.c  ****     Motor_Left_Driver_WriteCompare(SPEED);
  49              		.loc 1 43 0
  50 0012 144C     		ldr	r4, .L3
  51 0014 2078     		ldrb	r0, [r4]	@ zero_extendqisi2
  52 0016 FFF7FEFF 		bl	Motor_Left_Driver_WriteCompare
  53              	.LVL3:
  44:mishamotor.c  ****     Motor_Right_Driver_Wakeup();
  54              		.loc 1 44 0
  55 001a FFF7FEFF 		bl	Motor_Right_Driver_Wakeup
  56              	.LVL4:
  45:mishamotor.c  ****     Motor_Right_Driver_WriteCompare(SPEED);
  57              		.loc 1 45 0
  58 001e 2078     		ldrb	r0, [r4]	@ zero_extendqisi2
  59 0020 FFF7FEFF 		bl	Motor_Right_Driver_WriteCompare
  60              	.LVL5:
  46:mishamotor.c  ****     CyDelay(DELAY);
  61              		.loc 1 46 0
  62 0024 4FF4FA70 		mov	r0, #500
  63 0028 FFF7FEFF 		bl	CyDelay
  64              	.LVL6:
  47:mishamotor.c  ****     
  48:mishamotor.c  ****     count_left = Motor_Left_Decoder_GetCounter();
  65              		.loc 1 48 0
  66 002c FFF7FEFF 		bl	Motor_Left_Decoder_GetCounter
ARM GAS  C:\Users\Misha\AppData\Local\Temp\ccvKgAJb.s 			page 3


  67              	.LVL7:
  68 0030 0646     		mov	r6, r0
  69              	.LVL8:
  49:mishamotor.c  ****     count_right = Motor_Right_Decoder_GetCounter();
  70              		.loc 1 49 0
  71 0032 FFF7FEFF 		bl	Motor_Right_Decoder_GetCounter
  72              	.LVL9:
  73 0036 0546     		mov	r5, r0
  74              	.LVL10:
  50:mishamotor.c  ****     
  51:mishamotor.c  ****     sprintf(output, "left motor: %d \n", count_left);       
  75              		.loc 1 51 0
  76 0038 0B4C     		ldr	r4, .L3+4
  77 003a 3246     		mov	r2, r6
  78 003c 0B49     		ldr	r1, .L3+8
  79 003e 2046     		mov	r0, r4
  80              	.LVL11:
  81 0040 FFF7FEFF 		bl	sprintf
  82              	.LVL12:
  52:mishamotor.c  ****     UART_1_PutString(output);
  83              		.loc 1 52 0
  84 0044 2046     		mov	r0, r4
  85 0046 FFF7FEFF 		bl	UART_1_PutString
  86              	.LVL13:
  53:mishamotor.c  ****     sprintf(output, "right motor: %d \n", count_right);      
  87              		.loc 1 53 0
  88 004a 2A46     		mov	r2, r5
  89 004c 0849     		ldr	r1, .L3+12
  90 004e 2046     		mov	r0, r4
  91 0050 FFF7FEFF 		bl	sprintf
  92              	.LVL14:
  54:mishamotor.c  ****     UART_1_PutString(output);
  93              		.loc 1 54 0
  94 0054 2046     		mov	r0, r4
  95 0056 FFF7FEFF 		bl	UART_1_PutString
  96              	.LVL15:
  55:mishamotor.c  ****     
  56:mishamotor.c  ****     Motor_Left_Driver_Sleep();
  97              		.loc 1 56 0
  98 005a FFF7FEFF 		bl	Motor_Left_Driver_Sleep
  99              	.LVL16:
  57:mishamotor.c  ****     Motor_Right_Driver_Sleep();
 100              		.loc 1 57 0
 101 005e FFF7FEFF 		bl	Motor_Right_Driver_Sleep
 102              	.LVL17:
 103 0062 70BD     		pop	{r4, r5, r6, pc}
 104              	.LVL18:
 105              	.L4:
 106              		.align	2
 107              	.L3:
 108 0064 00000000 		.word	.LANCHOR0
 109 0068 00000000 		.word	output
 110 006c 00000000 		.word	.LC0
 111 0070 14000000 		.word	.LC1
 112              		.cfi_endproc
 113              	.LFE64:
 114              		.size	mishaMoveForward, .-mishaMoveForward
ARM GAS  C:\Users\Misha\AppData\Local\Temp\ccvKgAJb.s 			page 4


 115              		.section	.text.mishaMoveBackward,"ax",%progbits
 116              		.align	2
 117              		.global	mishaMoveBackward
 118              		.thumb
 119              		.thumb_func
 120              		.type	mishaMoveBackward, %function
 121              	mishaMoveBackward:
 122              	.LFB65:
  58:mishamotor.c  **** }
  59:mishamotor.c  **** 
  60:mishamotor.c  **** void mishaMoveBackward(){
 123              		.loc 1 60 0
 124              		.cfi_startproc
 125              		@ args = 0, pretend = 0, frame = 0
 126              		@ frame_needed = 0, uses_anonymous_args = 0
 127              		@ link register save eliminated.
 128 0000 7047     		bx	lr
 129              		.cfi_endproc
 130              	.LFE65:
 131              		.size	mishaMoveBackward, .-mishaMoveBackward
 132              		.global	__aeabi_i2d
 133              		.global	__aeabi_dmul
 134              		.global	__aeabi_d2iz
 135 0002 00BF     		.section	.text.mishaMoveDynamic,"ax",%progbits
 136              		.align	2
 137              		.global	mishaMoveDynamic
 138              		.thumb
 139              		.thumb_func
 140              		.type	mishaMoveDynamic, %function
 141              	mishaMoveDynamic:
 142              	.LFB66:
  61:mishamotor.c  **** }
  62:mishamotor.c  **** 
  63:mishamotor.c  **** void mishaMoveDynamic(int distance){
 143              		.loc 1 63 0
 144              		.cfi_startproc
 145              		@ args = 0, pretend = 0, frame = 0
 146              		@ frame_needed = 0, uses_anonymous_args = 0
 147              	.LVL19:
 148              		.loc 1 63 0
 149 0000 70B5     		push	{r4, r5, r6, lr}
 150              		.cfi_def_cfa_offset 16
 151              		.cfi_offset 4, -16
 152              		.cfi_offset 5, -12
 153              		.cfi_offset 6, -8
 154              		.cfi_offset 14, -4
  64:mishamotor.c  ****     int count_left;
  65:mishamotor.c  ****     int count_right;
  66:mishamotor.c  ****     int compare;
  67:mishamotor.c  ****     int speed_left = SPEED;
 155              		.loc 1 67 0
 156 0002 2D4B     		ldr	r3, .L12+8
 157 0004 1C68     		ldr	r4, [r3]
 158              	.LVL20:
  68:mishamotor.c  ****     int speed_right = SPEED;
  69:mishamotor.c  ****     
  70:mishamotor.c  ****     // Is the distance negative or positive? 
ARM GAS  C:\Users\Misha\AppData\Local\Temp\ccvKgAJb.s 			page 5


  71:mishamotor.c  ****     if (distance > 0) { Motor_Left_Control_Write(0); Motor_Right_Control_Write(0); }
 159              		.loc 1 71 0
 160 0006 051E     		subs	r5, r0, #0
 161 0008 06DD     		ble	.L7
 162              		.loc 1 71 0 is_stmt 0 discriminator 1
 163 000a 0020     		movs	r0, #0
 164              	.LVL21:
 165 000c FFF7FEFF 		bl	Motor_Left_Control_Write
 166              	.LVL22:
 167 0010 0020     		movs	r0, #0
 168 0012 FFF7FEFF 		bl	Motor_Right_Control_Write
 169              	.LVL23:
 170 0016 05E0     		b	.L8
 171              	.LVL24:
 172              	.L7:
  72:mishamotor.c  ****     else {Motor_Left_Control_Write(1); Motor_Right_Control_Write(1);}
 173              		.loc 1 72 0 is_stmt 1
 174 0018 0120     		movs	r0, #1
 175              	.LVL25:
 176 001a FFF7FEFF 		bl	Motor_Left_Control_Write
 177              	.LVL26:
 178 001e 0120     		movs	r0, #1
 179 0020 FFF7FEFF 		bl	Motor_Right_Control_Write
 180              	.LVL27:
 181              	.L8:
  73:mishamotor.c  ****     
  74:mishamotor.c  ****     Motor_Left_Driver_Wakeup();
 182              		.loc 1 74 0
 183 0024 FFF7FEFF 		bl	Motor_Left_Driver_Wakeup
 184              	.LVL28:
  75:mishamotor.c  ****     Motor_Left_Driver_WriteCompare(speed_left);
 185              		.loc 1 75 0
 186 0028 E4B2     		uxtb	r4, r4
 187              	.LVL29:
 188 002a 2046     		mov	r0, r4
 189 002c FFF7FEFF 		bl	Motor_Left_Driver_WriteCompare
 190              	.LVL30:
  76:mishamotor.c  ****     Motor_Right_Driver_Wakeup();
 191              		.loc 1 76 0
 192 0030 FFF7FEFF 		bl	Motor_Right_Driver_Wakeup
 193              	.LVL31:
  77:mishamotor.c  ****     Motor_Right_Driver_WriteCompare(speed_right);
 194              		.loc 1 77 0
 195 0034 2046     		mov	r0, r4
 196 0036 FFF7FEFF 		bl	Motor_Right_Driver_WriteCompare
 197              	.LVL32:
  78:mishamotor.c  ****     
  79:mishamotor.c  ****     compare = round(distance*5.29);
 198              		.loc 1 79 0
 199 003a 2846     		mov	r0, r5
 200 003c FFF7FEFF 		bl	__aeabi_i2d
 201              	.LVL33:
 202 0040 1BA3     		adr	r3, .L12
 203 0042 D3E90023 		ldrd	r2, [r3]
 204 0046 FFF7FEFF 		bl	__aeabi_dmul
 205              	.LVL34:
 206 004a FFF7FEFF 		bl	round
ARM GAS  C:\Users\Misha\AppData\Local\Temp\ccvKgAJb.s 			page 6


 207              	.LVL35:
 208 004e FFF7FEFF 		bl	__aeabi_d2iz
 209              	.LVL36:
 210 0052 0646     		mov	r6, r0
 211              	.LVL37:
  80:mishamotor.c  ****     count_left = Motor_Left_Decoder_GetCounter();
 212              		.loc 1 80 0
 213 0054 FFF7FEFF 		bl	Motor_Left_Decoder_GetCounter
 214              	.LVL38:
 215 0058 0546     		mov	r5, r0
 216              	.LVL39:
  81:mishamotor.c  ****     count_right = Motor_Right_Decoder_GetCounter();
 217              		.loc 1 81 0
 218 005a FFF7FEFF 		bl	Motor_Right_Decoder_GetCounter
 219              	.LVL40:
 220 005e 0446     		mov	r4, r0
 221              	.LVL41:
  82:mishamotor.c  ****     
  83:mishamotor.c  ****     while (count_right != compare) {
 222              		.loc 1 83 0
 223 0060 05E0     		b	.L9
 224              	.LVL42:
 225              	.L10:
  84:mishamotor.c  ****         count_left = Motor_Left_Decoder_GetCounter();
 226              		.loc 1 84 0
 227 0062 FFF7FEFF 		bl	Motor_Left_Decoder_GetCounter
 228              	.LVL43:
 229 0066 0546     		mov	r5, r0
 230              	.LVL44:
  85:mishamotor.c  ****         count_right = Motor_Right_Decoder_GetCounter();
 231              		.loc 1 85 0
 232 0068 FFF7FEFF 		bl	Motor_Right_Decoder_GetCounter
 233              	.LVL45:
 234 006c 0446     		mov	r4, r0
 235              	.LVL46:
 236              	.L9:
  83:mishamotor.c  ****         count_left = Motor_Left_Decoder_GetCounter();
 237              		.loc 1 83 0
 238 006e B442     		cmp	r4, r6
 239 0070 F7D1     		bne	.L10
  86:mishamotor.c  ****         if (count_left > count_right) {
  87:mishamotor.c  ****         speed_left -= 2;
  88:mishamotor.c  ****         }
  89:mishamotor.c  ****         if (count_right > count_left) {
  90:mishamotor.c  ****         speed_right -=2; 
  91:mishamotor.c  ****         }
  92:mishamotor.c  ****     }
  93:mishamotor.c  ****     
  94:mishamotor.c  ****     sprintf(output, "left motor: %d \n", count_left);       
 240              		.loc 1 94 0
 241 0072 124E     		ldr	r6, .L12+12
 242              	.LVL47:
 243 0074 2A46     		mov	r2, r5
 244 0076 1249     		ldr	r1, .L12+16
 245 0078 3046     		mov	r0, r6
 246 007a FFF7FEFF 		bl	sprintf
 247              	.LVL48:
ARM GAS  C:\Users\Misha\AppData\Local\Temp\ccvKgAJb.s 			page 7


  95:mishamotor.c  ****     UART_1_PutString(output);
 248              		.loc 1 95 0
 249 007e 3046     		mov	r0, r6
 250 0080 FFF7FEFF 		bl	UART_1_PutString
 251              	.LVL49:
  96:mishamotor.c  ****     sprintf(output, "right motor: %d \n", count_right);      
 252              		.loc 1 96 0
 253 0084 2246     		mov	r2, r4
 254 0086 0F49     		ldr	r1, .L12+20
 255 0088 3046     		mov	r0, r6
 256 008a FFF7FEFF 		bl	sprintf
 257              	.LVL50:
  97:mishamotor.c  ****     UART_1_PutString(output);
 258              		.loc 1 97 0
 259 008e 3046     		mov	r0, r6
 260 0090 FFF7FEFF 		bl	UART_1_PutString
 261              	.LVL51:
  98:mishamotor.c  ****     
  99:mishamotor.c  ****     
 100:mishamotor.c  ****     Motor_Left_Decoder_SetCounter(0);                       // RESET the decoders to 0
 262              		.loc 1 100 0
 263 0094 0020     		movs	r0, #0
 264 0096 FFF7FEFF 		bl	Motor_Left_Decoder_SetCounter
 265              	.LVL52:
 101:mishamotor.c  ****     Motor_Right_Decoder_SetCounter(0);   
 266              		.loc 1 101 0
 267 009a 0020     		movs	r0, #0
 268 009c FFF7FEFF 		bl	Motor_Right_Decoder_SetCounter
 269              	.LVL53:
 102:mishamotor.c  ****     
 103:mishamotor.c  ****     Motor_Left_Driver_Sleep();
 270              		.loc 1 103 0
 271 00a0 FFF7FEFF 		bl	Motor_Left_Driver_Sleep
 272              	.LVL54:
 104:mishamotor.c  ****     Motor_Right_Driver_Sleep();
 273              		.loc 1 104 0
 274 00a4 FFF7FEFF 		bl	Motor_Right_Driver_Sleep
 275              	.LVL55:
 276 00a8 70BD     		pop	{r4, r5, r6, pc}
 277              	.LVL56:
 278              	.L13:
 279 00aa 00BFAFF3 		.align	3
 279      0080
 280              	.L12:
 281 00b0 295C8FC2 		.word	-1030792151
 282 00b4 F5281540 		.word	1075128565
 283 00b8 00000000 		.word	.LANCHOR0
 284 00bc 00000000 		.word	output
 285 00c0 00000000 		.word	.LC0
 286 00c4 14000000 		.word	.LC1
 287              		.cfi_endproc
 288              	.LFE66:
 289              		.size	mishaMoveDynamic, .-mishaMoveDynamic
 290              		.global	__aeabi_ddiv
 291              		.section	.text.mishaSwivel,"ax",%progbits
 292              		.align	2
 293              		.global	mishaSwivel
ARM GAS  C:\Users\Misha\AppData\Local\Temp\ccvKgAJb.s 			page 8


 294              		.thumb
 295              		.thumb_func
 296              		.type	mishaSwivel, %function
 297              	mishaSwivel:
 298              	.LFB67:
 105:mishamotor.c  ****    
 106:mishamotor.c  ****     
 107:mishamotor.c  **** }
 108:mishamotor.c  **** 
 109:mishamotor.c  **** void mishaSwivel(int degrees) {
 299              		.loc 1 109 0
 300              		.cfi_startproc
 301              		@ args = 0, pretend = 0, frame = 0
 302              		@ frame_needed = 0, uses_anonymous_args = 0
 303              	.LVL57:
 304 0000 70B5     		push	{r4, r5, r6, lr}
 305              		.cfi_def_cfa_offset 16
 306              		.cfi_offset 4, -16
 307              		.cfi_offset 5, -12
 308              		.cfi_offset 6, -8
 309              		.cfi_offset 14, -4
 110:mishamotor.c  ****     int count_left;
 111:mishamotor.c  ****     int count_right;
 112:mishamotor.c  ****     int compare;
 113:mishamotor.c  ****     int distance;
 114:mishamotor.c  ****     int speed_left = SPEED;
 310              		.loc 1 114 0
 311 0002 334B     		ldr	r3, .L20+16
 312 0004 1C68     		ldr	r4, [r3]
 313              	.LVL58:
 115:mishamotor.c  ****     int speed_right = SPEED;
 116:mishamotor.c  ****     
 117:mishamotor.c  ****     // Is the degrees negative or positive? 
 118:mishamotor.c  ****         // positive = right hand turn: left wheel goes forward, right wheel goes backward 
 119:mishamotor.c  ****         // negative = left hand turn: right wheel goes forward, left wheel goes backward 
 120:mishamotor.c  ****     if (degrees > 0) { Motor_Left_Control_Write(0); Motor_Right_Control_Write(1); }
 314              		.loc 1 120 0
 315 0006 051E     		subs	r5, r0, #0
 316 0008 06DD     		ble	.L15
 317              		.loc 1 120 0 is_stmt 0 discriminator 1
 318 000a 0020     		movs	r0, #0
 319              	.LVL59:
 320 000c FFF7FEFF 		bl	Motor_Left_Control_Write
 321              	.LVL60:
 322 0010 0120     		movs	r0, #1
 323 0012 FFF7FEFF 		bl	Motor_Right_Control_Write
 324              	.LVL61:
 325 0016 05E0     		b	.L16
 326              	.LVL62:
 327              	.L15:
 121:mishamotor.c  ****     else {Motor_Left_Control_Write(1); Motor_Right_Control_Write(0);}
 328              		.loc 1 121 0 is_stmt 1
 329 0018 0120     		movs	r0, #1
 330              	.LVL63:
 331 001a FFF7FEFF 		bl	Motor_Left_Control_Write
 332              	.LVL64:
 333 001e 0020     		movs	r0, #0
ARM GAS  C:\Users\Misha\AppData\Local\Temp\ccvKgAJb.s 			page 9


 334 0020 FFF7FEFF 		bl	Motor_Right_Control_Write
 335              	.LVL65:
 336              	.L16:
 122:mishamotor.c  ****     
 123:mishamotor.c  ****     Motor_Left_Driver_Wakeup();
 337              		.loc 1 123 0
 338 0024 FFF7FEFF 		bl	Motor_Left_Driver_Wakeup
 339              	.LVL66:
 124:mishamotor.c  ****     Motor_Left_Driver_WriteCompare(speed_left);
 340              		.loc 1 124 0
 341 0028 E4B2     		uxtb	r4, r4
 342              	.LVL67:
 343 002a 2046     		mov	r0, r4
 344 002c FFF7FEFF 		bl	Motor_Left_Driver_WriteCompare
 345              	.LVL68:
 125:mishamotor.c  ****     Motor_Right_Driver_Wakeup();
 346              		.loc 1 125 0
 347 0030 FFF7FEFF 		bl	Motor_Right_Driver_Wakeup
 348              	.LVL69:
 126:mishamotor.c  ****     Motor_Right_Driver_WriteCompare(speed_right);
 349              		.loc 1 126 0
 350 0034 2046     		mov	r0, r4
 351 0036 FFF7FEFF 		bl	Motor_Right_Driver_WriteCompare
 352              	.LVL70:
 127:mishamotor.c  ****     
 128:mishamotor.c  ****     distance = 107*degrees;
 129:mishamotor.c  ****     compare = round((distance*3.14*5.29)/180);
 353              		.loc 1 129 0
 354 003a 6B20     		movs	r0, #107
 355 003c 00FB05F0 		mul	r0, r0, r5
 356              	.LVL71:
 357 0040 FFF7FEFF 		bl	__aeabi_i2d
 358              	.LVL72:
 359 0044 1EA3     		adr	r3, .L20
 360 0046 D3E90023 		ldrd	r2, [r3]
 361 004a FFF7FEFF 		bl	__aeabi_dmul
 362              	.LVL73:
 363 004e 1EA3     		adr	r3, .L20+8
 364 0050 D3E90023 		ldrd	r2, [r3]
 365 0054 FFF7FEFF 		bl	__aeabi_dmul
 366              	.LVL74:
 367 0058 0022     		movs	r2, #0
 368 005a 1E4B     		ldr	r3, .L20+20
 369 005c FFF7FEFF 		bl	__aeabi_ddiv
 370              	.LVL75:
 371 0060 FFF7FEFF 		bl	round
 372              	.LVL76:
 373 0064 FFF7FEFF 		bl	__aeabi_d2iz
 374              	.LVL77:
 375 0068 0546     		mov	r5, r0
 376              	.LVL78:
 130:mishamotor.c  ****     count_left = Motor_Left_Decoder_GetCounter();
 377              		.loc 1 130 0
 378 006a FFF7FEFF 		bl	Motor_Left_Decoder_GetCounter
 379              	.LVL79:
 380 006e 0646     		mov	r6, r0
 381              	.LVL80:
ARM GAS  C:\Users\Misha\AppData\Local\Temp\ccvKgAJb.s 			page 10


 131:mishamotor.c  ****     count_right = Motor_Right_Decoder_GetCounter();
 382              		.loc 1 131 0
 383 0070 FFF7FEFF 		bl	Motor_Right_Decoder_GetCounter
 384              	.LVL81:
 385 0074 0446     		mov	r4, r0
 386              	.LVL82:
 132:mishamotor.c  ****     
 133:mishamotor.c  ****     while (count_right != -1*compare) {
 387              		.loc 1 133 0
 388 0076 02E0     		b	.L17
 389              	.LVL83:
 390              	.L18:
 134:mishamotor.c  ****         count_right = Motor_Right_Decoder_GetCounter();
 391              		.loc 1 134 0
 392 0078 FFF7FEFF 		bl	Motor_Right_Decoder_GetCounter
 393              	.LVL84:
 394 007c 0446     		mov	r4, r0
 395              	.LVL85:
 396              	.L17:
 133:mishamotor.c  ****         count_right = Motor_Right_Decoder_GetCounter();
 397              		.loc 1 133 0
 398 007e EC42     		cmn	r4, r5
 399 0080 FAD1     		bne	.L18
 135:mishamotor.c  ****         /*
 136:mishamotor.c  ****         count_left = Motor_Left_Decoder_GetCounter();
 137:mishamotor.c  ****         count_right = Motor_Right_Decoder_GetCounter();
 138:mishamotor.c  ****         if (count_left > count_right) {
 139:mishamotor.c  ****         speed_left--;
 140:mishamotor.c  ****         }
 141:mishamotor.c  ****         if (count_right > count_left) {
 142:mishamotor.c  ****         speed_right--; 
 143:mishamotor.c  ****         }
 144:mishamotor.c  ****         */
 145:mishamotor.c  ****     }
 146:mishamotor.c  ****     
 147:mishamotor.c  ****     sprintf(output, "left motor: %d \n", count_left);       
 400              		.loc 1 147 0
 401 0082 154D     		ldr	r5, .L20+24
 402              	.LVL86:
 403 0084 3246     		mov	r2, r6
 404 0086 1549     		ldr	r1, .L20+28
 405 0088 2846     		mov	r0, r5
 406 008a FFF7FEFF 		bl	sprintf
 407              	.LVL87:
 148:mishamotor.c  ****     UART_1_PutString(output);
 408              		.loc 1 148 0
 409 008e 2846     		mov	r0, r5
 410 0090 FFF7FEFF 		bl	UART_1_PutString
 411              	.LVL88:
 149:mishamotor.c  ****     sprintf(output, "right motor: %d \n", count_right);      
 412              		.loc 1 149 0
 413 0094 2246     		mov	r2, r4
 414 0096 1249     		ldr	r1, .L20+32
 415 0098 2846     		mov	r0, r5
 416 009a FFF7FEFF 		bl	sprintf
 417              	.LVL89:
 150:mishamotor.c  ****     UART_1_PutString(output);
ARM GAS  C:\Users\Misha\AppData\Local\Temp\ccvKgAJb.s 			page 11


 418              		.loc 1 150 0
 419 009e 2846     		mov	r0, r5
 420 00a0 FFF7FEFF 		bl	UART_1_PutString
 421              	.LVL90:
 151:mishamotor.c  ****     
 152:mishamotor.c  ****     Motor_Left_Decoder_SetCounter(0);                       // RESET the decoders to 0
 422              		.loc 1 152 0
 423 00a4 0020     		movs	r0, #0
 424 00a6 FFF7FEFF 		bl	Motor_Left_Decoder_SetCounter
 425              	.LVL91:
 153:mishamotor.c  ****     Motor_Right_Decoder_SetCounter(0);   
 426              		.loc 1 153 0
 427 00aa 0020     		movs	r0, #0
 428 00ac FFF7FEFF 		bl	Motor_Right_Decoder_SetCounter
 429              	.LVL92:
 154:mishamotor.c  ****     
 155:mishamotor.c  ****     Motor_Left_Driver_Sleep();
 430              		.loc 1 155 0
 431 00b0 FFF7FEFF 		bl	Motor_Left_Driver_Sleep
 432              	.LVL93:
 156:mishamotor.c  ****     Motor_Right_Driver_Sleep();
 433              		.loc 1 156 0
 434 00b4 FFF7FEFF 		bl	Motor_Right_Driver_Sleep
 435              	.LVL94:
 436 00b8 70BD     		pop	{r4, r5, r6, pc}
 437              	.LVL95:
 438              	.L21:
 439 00ba 00BFAFF3 		.align	3
 439      0080
 440              	.L20:
 441 00c0 1F85EB51 		.word	1374389535
 442 00c4 B81E0940 		.word	1074339512
 443 00c8 295C8FC2 		.word	-1030792151
 444 00cc F5281540 		.word	1075128565
 445 00d0 00000000 		.word	.LANCHOR0
 446 00d4 00806640 		.word	1080459264
 447 00d8 00000000 		.word	output
 448 00dc 00000000 		.word	.LC0
 449 00e0 14000000 		.word	.LC1
 450              		.cfi_endproc
 451              	.LFE67:
 452              		.size	mishaSwivel, .-mishaSwivel
 453              		.section	.text.mishaDriftAdjust,"ax",%progbits
 454              		.align	2
 455              		.global	mishaDriftAdjust
 456              		.thumb
 457              		.thumb_func
 458              		.type	mishaDriftAdjust, %function
 459              	mishaDriftAdjust:
 460              	.LFB68:
 157:mishamotor.c  ****    
 158:mishamotor.c  ****     
 159:mishamotor.c  ****     
 160:mishamotor.c  ****     
 161:mishamotor.c  **** }
 162:mishamotor.c  **** 
 163:mishamotor.c  **** 
ARM GAS  C:\Users\Misha\AppData\Local\Temp\ccvKgAJb.s 			page 12


 164:mishamotor.c  **** 
 165:mishamotor.c  **** 
 166:mishamotor.c  **** void mishaDriftAdjust(){
 461              		.loc 1 166 0
 462              		.cfi_startproc
 463              		@ args = 0, pretend = 0, frame = 0
 464              		@ frame_needed = 0, uses_anonymous_args = 0
 465 0000 08B5     		push	{r3, lr}
 466              		.cfi_def_cfa_offset 8
 467              		.cfi_offset 3, -8
 468              		.cfi_offset 14, -4
 167:mishamotor.c  ****     int count_left;
 168:mishamotor.c  ****     int count_right;
 169:mishamotor.c  ****     count_left = Motor_Left_Decoder_GetCounter();
 469              		.loc 1 169 0
 470 0002 FFF7FEFF 		bl	Motor_Left_Decoder_GetCounter
 471              	.LVL96:
 170:mishamotor.c  ****     count_right = Motor_Right_Decoder_GetCounter();
 472              		.loc 1 170 0
 473 0006 FFF7FEFF 		bl	Motor_Right_Decoder_GetCounter
 474              	.LVL97:
 475 000a 08BD     		pop	{r3, pc}
 476              		.cfi_endproc
 477              	.LFE68:
 478              		.size	mishaDriftAdjust, .-mishaDriftAdjust
 479              		.global	SPEED
 480              		.comm	motor2EncoderCounts,4,4
 481              		.comm	motor1EncoderCounts,4,4
 482              		.comm	M2_BD,4,4
 483              		.comm	M2_FD,4,4
 484              		.comm	M1_BD,4,4
 485              		.comm	M1_FD,4,4
 486              		.comm	motor2Enable,2,2
 487              		.comm	motor1Enable,2,2
 488              		.comm	initialisation,4,4
 489              		.comm	output,32,4
 490              		.comm	turningRightFlag,2,2
 491              		.comm	turningLeftFlag,2,2
 492              		.comm	drivingBackwardFlag,2,2
 493              		.comm	drivingForwardFlag,2,2
 494              		.comm	puckPileLocation,4,4
 495              		.comm	block_edge_location,16,4
 496              		.comm	sweeping,4,4
 497              		.comm	puckRackOffsetsFromWest,20,4
 498              		.comm	puckRackColours,20,4
 499              		.comm	currentPuckRackScanningIndex,4,4
 500              		.comm	driveStraightEnable,4,4
 501              		.data
 502              		.align	2
 503              		.set	.LANCHOR0,. + 0
 504              		.type	SPEED, %object
 505              		.size	SPEED, 4
 506              	SPEED:
 507 0000 82000000 		.word	130
 508              		.section	.rodata.str1.4,"aMS",%progbits,1
 509              		.align	2
 510              	.LC0:
ARM GAS  C:\Users\Misha\AppData\Local\Temp\ccvKgAJb.s 			page 13


 511 0000 6C656674 		.ascii	"left motor: %d \012\000"
 511      206D6F74 
 511      6F723A20 
 511      2564200A 
 511      00
 512 0011 000000   		.space	3
 513              	.LC1:
 514 0014 72696768 		.ascii	"right motor: %d \012\000"
 514      74206D6F 
 514      746F723A 
 514      20256420 
 514      0A00
 515              		.text
 516              	.Letext0:
 517              		.file 2 "c:\\program files (x86)\\cypress\\psoc creator\\4.2\\psoc creator\\import\\gnu\\arm\\5.4.
 518              		.file 3 "c:\\program files (x86)\\cypress\\psoc creator\\4.2\\psoc creator\\import\\gnu\\arm\\5.4.
 519              		.file 4 "Generated_Source\\PSoC5/core_cm3.h"
 520              		.file 5 "ultrasonic.h"
 521              		.file 6 "main.h"
 522              		.file 7 "dcmotor.h"
 523              		.file 8 "Generated_Source\\PSoC5/Motor_Left_Control.h"
 524              		.file 9 "Generated_Source\\PSoC5/Motor_Right_Control.h"
 525              		.file 10 "Generated_Source\\PSoC5/Motor_Left_Driver.h"
 526              		.file 11 "Generated_Source\\PSoC5/Motor_Right_Driver.h"
 527              		.file 12 "Generated_Source\\PSoC5/CyLib.h"
 528              		.file 13 "Generated_Source\\PSoC5/Motor_Left_Decoder.h"
 529              		.file 14 "Generated_Source\\PSoC5/Motor_Right_Decoder.h"
 530              		.file 15 "c:\\program files (x86)\\cypress\\psoc creator\\4.2\\psoc creator\\import\\gnu\\arm\\5.4
 531              		.file 16 "Generated_Source\\PSoC5/UART_1.h"
 532              		.file 17 "c:\\program files (x86)\\cypress\\psoc creator\\4.2\\psoc creator\\import\\gnu\\arm\\5.4