ARM GAS  C:\Users\bamcg3\AppData\Local\Temp\ccKbUQhh.s 			page 1


   1              		.syntax unified
   2              		.cpu cortex-m3
   3              		.fpu softvfp
   4              		.eabi_attribute 20, 1
   5              		.eabi_attribute 21, 1
   6              		.eabi_attribute 23, 3
   7              		.eabi_attribute 24, 1
   8              		.eabi_attribute 25, 1
   9              		.eabi_attribute 26, 1
  10              		.eabi_attribute 30, 1
  11              		.eabi_attribute 34, 1
  12              		.eabi_attribute 18, 4
  13              		.thumb
  14              		.syntax unified
  15              		.file	"navigation.c"
  16              		.text
  17              	.Ltext0:
  18              		.cfi_sections	.debug_frame
  19              		.section	.text.armMoving,"ax",%progbits
  20              		.align	2
  21              		.global	armMoving
  22              		.thumb
  23              		.thumb_func
  24              		.type	armMoving, %function
  25              	armMoving:
  26              	.LFB64:
  27              		.file 1 "navigation.c"
   1:navigation.c  **** 
   2:navigation.c  **** /* ========================================
   3:navigation.c  ****  *
   4:navigation.c  ****  * Copyright Group 17, 2019
   5:navigation.c  ****  * All Rights Reserved
   6:navigation.c  ****  * UNPUBLISHED, LICENSED SOFTWARE.
   7:navigation.c  ****  *
   8:navigation.c  ****  * CONFIDENTIAL AND PROPRIETARY INFORMATION
   9:navigation.c  ****  * WHICH IS THE PROPERTY OF Blayke, Misha, Nidhin.
  10:navigation.c  ****  *
  11:navigation.c  ****  * ========================================
  12:navigation.c  **** */
  13:navigation.c  **** 
  14:navigation.c  **** // * PSOC LIBRARY * //
  15:navigation.c  **** #include "project.h"
  16:navigation.c  **** 
  17:navigation.c  **** // * C LIBRARIES * // 
  18:navigation.c  **** #include <stdlib.h>
  19:navigation.c  **** #include <stdio.h>
  20:navigation.c  **** #include <math.h>
  21:navigation.c  **** 
  22:navigation.c  **** // * OUR LIBRARIES * //
  23:navigation.c  **** #include "main.h"
  24:navigation.c  **** #include "colour.h"
  25:navigation.c  **** #include "ultrasonic.h" 
  26:navigation.c  **** #include "servo.h"
  27:navigation.c  **** #include "motor.h"
  28:navigation.c  **** #include "customMath.h"
  29:navigation.c  **** #include "navigation.h"
  30:navigation.c  **** #include "debugging.h"
ARM GAS  C:\Users\bamcg3\AppData\Local\Temp\ccKbUQhh.s 			page 2


  31:navigation.c  **** 
  32:navigation.c  **** void armMoving(void){
  28              		.loc 1 32 0
  29              		.cfi_startproc
  30              		@ args = 0, pretend = 0, frame = 0
  31              		@ frame_needed = 0, uses_anonymous_args = 0
  32 0000 38B5     		push	{r3, r4, r5, lr}
  33              		.cfi_def_cfa_offset 16
  34              		.cfi_offset 3, -16
  35              		.cfi_offset 4, -12
  36              		.cfi_offset 5, -8
  37              		.cfi_offset 14, -4
  38              	.LVL0:
  33:navigation.c  ****     
  34:navigation.c  ****     int puck_correct = FALSE;   // A flag to determine if the correct puck has been picked up
  35:navigation.c  ****     int puck_scan;
  36:navigation.c  ****     
  37:navigation.c  ****     puckConstructionPlan[1] = RED;  // this was a test
  39              		.loc 1 37 0
  40 0002 0122     		movs	r2, #1
  41 0004 0E4B     		ldr	r3, .L7
  42 0006 5A60     		str	r2, [r3, #4]
  38:navigation.c  ****     
  39:navigation.c  ****     // States
  40:navigation.c  ****     // moving
  41:navigation.c  ****     changeHeightToPuck(3, NEITHER);  // Arm has to be lifted to highest position
  43              		.loc 1 41 0
  44 0008 0221     		movs	r1, #2
  45 000a 0320     		movs	r0, #3
  46 000c FFF7FEFF 		bl	changeHeightToPuck
  47              	.LVL1:
  34:navigation.c  ****     int puck_scan;
  48              		.loc 1 34 0
  49 0010 0025     		movs	r5, #0
  42:navigation.c  ****         // THIS WILL be ensured by always returning the claw to the highest position after completi
  43:navigation.c  ****         
  44:navigation.c  ****     // Scanning puck:
  45:navigation.c  ****     while (puck_correct == FALSE) 
  50              		.loc 1 45 0
  51 0012 12E0     		b	.L2
  52              	.LVL2:
  53              	.L4:
  46:navigation.c  ****     {
  47:navigation.c  ****                                 // robot moves forward towards puck
  48:navigation.c  ****         changeHeightToPuck(1, NEITHER);  // arm lowers onto robot
  54              		.loc 1 48 0
  55 0014 0221     		movs	r1, #2
  56 0016 0120     		movs	r0, #1
  57 0018 FFF7FEFF 		bl	changeHeightToPuck
  58              	.LVL3:
  49:navigation.c  ****         puck_scan = colourSensingOutput();  // colour sensor takes a scan
  59              		.loc 1 49 0
  60 001c FFF7FEFF 		bl	colourSensingOutput
  61              	.LVL4:
  62 0020 0446     		mov	r4, r0
  63              	.LVL5:
  50:navigation.c  ****         changeHeightToPuck(3, NEITHER);  // arm returns to high position
ARM GAS  C:\Users\bamcg3\AppData\Local\Temp\ccKbUQhh.s 			page 3


  64              		.loc 1 50 0
  65 0022 0221     		movs	r1, #2
  66 0024 0320     		movs	r0, #3
  67              	.LVL6:
  68 0026 FFF7FEFF 		bl	changeHeightToPuck
  69              	.LVL7:
  51:navigation.c  ****                                 // robot moves backwards
  52:navigation.c  ****         if (puck_scan == puckConstructionPlan[current_stage]) {puck_correct = TRUE;}
  70              		.loc 1 52 0
  71 002a 064B     		ldr	r3, .L7+4
  72 002c 1A68     		ldr	r2, [r3]
  73 002e 044B     		ldr	r3, .L7
  74 0030 53F82230 		ldr	r3, [r3, r2, lsl #2]
  75 0034 9C42     		cmp	r4, r3
  76 0036 00D1     		bne	.L2
  77 0038 0125     		movs	r5, #1
  78              	.LVL8:
  79              	.L2:
  45:navigation.c  ****     {
  80              		.loc 1 45 0
  81 003a 002D     		cmp	r5, #0
  82 003c EAD0     		beq	.L4
  53:navigation.c  ****                                 // if colour == true:
  54:navigation.c  ****                                     // enter picking up puck from 
  55:navigation.c  ****         else 
  56:navigation.c  ****         {
  57:navigation.c  ****                                 // if colour == false
  58:navigation.c  ****                                     // robot translates to side to see next puck, and performs scan
  59:navigation.c  ****         }
  60:navigation.c  ****     }
  61:navigation.c  ****     
  62:navigation.c  ****     /*
  63:navigation.c  ****     
  64:navigation.c  ****     // Picking Up puck from pile:
  65:navigation.c  ****     changeHeightToPuck(0);      // arm lowers to ground
  66:navigation.c  ****                                 // robot moves forward
  67:navigation.c  ****     armClose();                 // claw closes on puck
  68:navigation.c  ****     changeHeightToPuck(3);      // arm lifts up to highest position
  69:navigation.c  ****                                 // robot moves back away from puck area   
  70:navigation.c  ****       
  71:navigation.c  ****     
  72:navigation.c  ****     // Deposition puck in construction zone:
  73:navigation.c  ****                                 // arm will be in highest position from moving
  74:navigation.c  ****         changeHeightToPuck(current_stage-1);    // arm moves to position of stacking pucks         
  75:navigation.c  ****                                                 // stage 1st = ground/0
  76:navigation.c  ****                                                 // stage 2nd = 1
  77:navigation.c  ****                                                 // stage 3rd = 2
  78:navigation.c  ****         armOpen();              // gripper releases puck
  79:navigation.c  ****         changeHeightToPuck(3);  // arm moves back to highest position availabe
  80:navigation.c  ****                                 // robot moves away 
  81:navigation.c  ****     */
  82:navigation.c  ****     
  83:navigation.c  **** }
  83              		.loc 1 83 0
  84 003e 38BD     		pop	{r3, r4, r5, pc}
  85              	.LVL9:
  86              	.L8:
ARM GAS  C:\Users\bamcg3\AppData\Local\Temp\ccKbUQhh.s 			page 4


  87              		.align	2
  88              	.L7:
  89 0040 00000000 		.word	puckConstructionPlan
  90 0044 00000000 		.word	current_stage
  91              		.cfi_endproc
  92              	.LFE64:
  93              		.size	armMoving, .-armMoving
  94              		.section	.text.moveUntilPuck,"ax",%progbits
  95              		.align	2
  96              		.global	moveUntilPuck
  97              		.thumb
  98              		.thumb_func
  99              		.type	moveUntilPuck, %function
 100              	moveUntilPuck:
 101              	.LFB65:
  84:navigation.c  **** 
  85:navigation.c  **** void moveUntilPuck(int algorithm) {
 102              		.loc 1 85 0
 103              		.cfi_startproc
 104              		@ args = 0, pretend = 0, frame = 0
 105              		@ frame_needed = 0, uses_anonymous_args = 0
 106              	.LVL10:
 107 0000 38B5     		push	{r3, r4, r5, lr}
 108              		.cfi_def_cfa_offset 16
 109              		.cfi_offset 3, -16
 110              		.cfi_offset 4, -12
 111              		.cfi_offset 5, -8
 112              		.cfi_offset 14, -4
 113 0002 0446     		mov	r4, r0
 114              	.LVL11:
  86:navigation.c  ****       
  87:navigation.c  ****     int puck_detect = 0;
  88:navigation.c  ****     Motor_Left_Control_Write(0);        // move FORWARD
 115              		.loc 1 88 0
 116 0004 0020     		movs	r0, #0
 117              	.LVL12:
 118 0006 FFF7FEFF 		bl	Motor_Left_Control_Write
 119              	.LVL13:
  89:navigation.c  ****     Motor_Right_Control_Write(0);
 120              		.loc 1 89 0
 121 000a 0020     		movs	r0, #0
 122 000c FFF7FEFF 		bl	Motor_Right_Control_Write
 123              	.LVL14:
  90:navigation.c  ****     
  91:navigation.c  ****     Motor_Left_Driver_Wakeup();
 124              		.loc 1 91 0
 125 0010 FFF7FEFF 		bl	Motor_Left_Driver_Wakeup
 126              	.LVL15:
  92:navigation.c  ****     Motor_Left_Driver_WriteCompare(70);
 127              		.loc 1 92 0
 128 0014 4620     		movs	r0, #70
 129 0016 FFF7FEFF 		bl	Motor_Left_Driver_WriteCompare
 130              	.LVL16:
  93:navigation.c  ****     Motor_Right_Driver_Wakeup();
 131              		.loc 1 93 0
 132 001a FFF7FEFF 		bl	Motor_Right_Driver_Wakeup
 133              	.LVL17:
ARM GAS  C:\Users\bamcg3\AppData\Local\Temp\ccKbUQhh.s 			page 5


  94:navigation.c  ****     Motor_Right_Driver_WriteCompare(70);
 134              		.loc 1 94 0
 135 001e 4620     		movs	r0, #70
 136 0020 FFF7FEFF 		bl	Motor_Right_Driver_WriteCompare
 137              	.LVL18:
  95:navigation.c  ****     
  96:navigation.c  ****     armOpen();                                  // ensures the arm is open
 138              		.loc 1 96 0
 139 0024 FFF7FEFF 		bl	armOpen
 140              	.LVL19:
  97:navigation.c  ****     control_photodiode_Write(CLAW_SENSING);     //ENSURES that it is the claw that is sensing
 141              		.loc 1 97 0
 142 0028 0120     		movs	r0, #1
 143 002a FFF7FEFF 		bl	control_photodiode_Write
 144              	.LVL20:
  98:navigation.c  ****     colour_sensing_algorithm = algorithm;       
 145              		.loc 1 98 0
 146 002e 124B     		ldr	r3, .L13
 147 0030 1C60     		str	r4, [r3]
  87:navigation.c  ****     Motor_Left_Control_Write(0);        // move FORWARD
 148              		.loc 1 87 0
 149 0032 0024     		movs	r4, #0
 150              	.LVL21:
  99:navigation.c  ****     
 100:navigation.c  ****     while (puck_detect == 0) 
 151              		.loc 1 100 0
 152 0034 0EE0     		b	.L10
 153              	.LVL22:
 154              	.L11:
 101:navigation.c  ****     {
 102:navigation.c  ****         puck_detect = colourSensingOutput();
 155              		.loc 1 102 0
 156 0036 FFF7FEFF 		bl	colourSensingOutput
 157              	.LVL23:
 158 003a 0446     		mov	r4, r0
 159              	.LVL24:
 103:navigation.c  ****         CyDelay(10);
 160              		.loc 1 103 0
 161 003c 0A20     		movs	r0, #10
 162              	.LVL25:
 163 003e FFF7FEFF 		bl	CyDelay
 164              	.LVL26:
 104:navigation.c  ****         sprintf(output, "%i \t", puck_detect);       
 165              		.loc 1 104 0
 166 0042 0E4D     		ldr	r5, .L13+4
 167 0044 2246     		mov	r2, r4
 168 0046 0E49     		ldr	r1, .L13+8
 169 0048 2846     		mov	r0, r5
 170 004a FFF7FEFF 		bl	sprintf
 171              	.LVL27:
 105:navigation.c  ****         UART_1_PutString(output);
 172              		.loc 1 105 0
 173 004e 2846     		mov	r0, r5
 174 0050 FFF7FEFF 		bl	UART_1_PutString
 175              	.LVL28:
 176              	.L10:
 100:navigation.c  ****     {
ARM GAS  C:\Users\bamcg3\AppData\Local\Temp\ccKbUQhh.s 			page 6


 177              		.loc 1 100 0
 178 0054 002C     		cmp	r4, #0
 179 0056 EED0     		beq	.L11
 106:navigation.c  ****     }
 107:navigation.c  ****     
 108:navigation.c  ****     Motor_Left_Decoder_SetCounter(0);
 180              		.loc 1 108 0
 181 0058 0020     		movs	r0, #0
 182 005a FFF7FEFF 		bl	Motor_Left_Decoder_SetCounter
 183              	.LVL29:
 109:navigation.c  ****     Motor_Right_Decoder_SetCounter(0);
 184              		.loc 1 109 0
 185 005e 0020     		movs	r0, #0
 186 0060 FFF7FEFF 		bl	Motor_Right_Decoder_SetCounter
 187              	.LVL30:
 110:navigation.c  ****     
 111:navigation.c  ****     Motor_Left_Driver_Sleep();
 188              		.loc 1 111 0
 189 0064 FFF7FEFF 		bl	Motor_Left_Driver_Sleep
 190              	.LVL31:
 112:navigation.c  ****     Motor_Right_Driver_Sleep();
 191              		.loc 1 112 0
 192 0068 FFF7FEFF 		bl	Motor_Right_Driver_Sleep
 193              	.LVL32:
 113:navigation.c  ****     
 114:navigation.c  ****     moveDynamic(37, 100, TRUE);
 194              		.loc 1 114 0
 195 006c 0122     		movs	r2, #1
 196 006e 6421     		movs	r1, #100
 197 0070 2520     		movs	r0, #37
 198 0072 FFF7FEFF 		bl	moveDynamic
 199              	.LVL33:
 200 0076 38BD     		pop	{r3, r4, r5, pc}
 201              	.LVL34:
 202              	.L14:
 203              		.align	2
 204              	.L13:
 205 0078 00000000 		.word	colour_sensing_algorithm
 206 007c 00000000 		.word	output
 207 0080 00000000 		.word	.LC0
 208              		.cfi_endproc
 209              	.LFE65:
 210              		.size	moveUntilPuck, .-moveUntilPuck
 211              		.section	.text.changeOrientation,"ax",%progbits
 212              		.align	2
 213              		.global	changeOrientation
 214              		.thumb
 215              		.thumb_func
 216              		.type	changeOrientation, %function
 217              	changeOrientation:
 218              	.LFB67:
 115:navigation.c  **** }
 116:navigation.c  **** 
 117:navigation.c  **** 
 118:navigation.c  **** 
 119:navigation.c  **** void moveUntil(int distance_set, int direction, int less_or_great, int ultrasonic_sensor, int speed
 120:navigation.c  ****     
ARM GAS  C:\Users\bamcg3\AppData\Local\Temp\ccKbUQhh.s 			page 7


 121:navigation.c  ****     // distance_set is in millimeteres
 122:navigation.c  ****     // will check the front two ultrasonics 
 123:navigation.c  ****     // will move until distance specified in function 
 124:navigation.c  ****     
 125:navigation.c  ****     //safetyDistanceCheck(); // CALL this to recalibrate
 126:navigation.c  ****     
 127:navigation.c  ****     int count_left;                 // counts the encoder values
 128:navigation.c  ****     int count_right;
 129:navigation.c  ****     int speed_left = speed;         // the set speed of the motors
 130:navigation.c  ****     int speed_right = speed;
 131:navigation.c  ****     int compare;                    
 132:navigation.c  ****     int front_sensor_flag = FALSE;
 133:navigation.c  ****                                   // the ultrasonic sensor we will be using 
 134:navigation.c  ****     int distance_sensor;            // the measured distance of the sensor
 135:navigation.c  ****     
 136:navigation.c  ****     int old_count = -SAFETY_MARGIN*ENCODER_MULTIPLIER;  // used in the old failsafe to check how mu
 137:navigation.c  ****                                                         // will enter the failsafe check straight a
 138:navigation.c  ****     int emergency_exit = FALSE;
 139:navigation.c  ****     
 140:navigation.c  ****     // The distance is in millimetres 
 141:navigation.c  ****     if (direction == FORWARD) { 
 142:navigation.c  ****         Motor_Left_Control_Write(0); 
 143:navigation.c  ****         Motor_Right_Control_Write(0); 
 144:navigation.c  ****         //ultrasonic_sensor = FRONT_LEFT;       // use the back ultrasonic to test our distance
 145:navigation.c  ****                                         // THIS CHECKS THE FRONT LEFT SENSOR, for some reason?
 146:navigation.c  ****         compare = 32000;                // max compare value
 147:navigation.c  ****     }
 148:navigation.c  ****     if (direction == BACKWARD) {
 149:navigation.c  ****         Motor_Left_Control_Write(1); 
 150:navigation.c  ****         Motor_Right_Control_Write(1);
 151:navigation.c  ****         //ultrasonic_sensor = BACK; // We just use one ultrasonic front sensor
 152:navigation.c  ****         compare = -32000;               // min compare value
 153:navigation.c  ****     }
 154:navigation.c  ****     
 155:navigation.c  ****     if (ultrasonic_sensor == FRONT_SENSORS) {ultrasonic_sensor = FRONT_LEFT; front_sensor_flag = TR
 156:navigation.c  ****     
 157:navigation.c  ****     ultrasonic_distances_mm[ultrasonic_sensor] = ARENA_WIDTH + 100;             // So it will enter
 158:navigation.c  ****     while (ultrasonic_distances_mm[ultrasonic_sensor] > ARENA_WIDTH) {          // protects against
 159:navigation.c  ****         distanceSensor(ultrasonic_sensor);
 160:navigation.c  ****         CyDelay(50);
 161:navigation.c  ****         distance_sensor = ultrasonic_distances_mm[ultrasonic_sensor];   // checks the distance meas
 162:navigation.c  ****         sprintf(output, "%d \t", distance_sensor);       
 163:navigation.c  ****         UART_1_PutString(output);
 164:navigation.c  ****     }
 165:navigation.c  ****     
 166:navigation.c  ****     if (front_sensor_flag == TRUE) {ultrasonic_sensor = FRONT_SENSORS; front_sensor_flag = FALSE; }
 167:navigation.c  ****     
 168:navigation.c  ****     Motor_Left_Driver_Wakeup();
 169:navigation.c  ****     Motor_Left_Driver_WriteCompare(speed_left);
 170:navigation.c  ****     Motor_Right_Driver_Wakeup();
 171:navigation.c  ****     Motor_Right_Driver_WriteCompare(speed_right);
 172:navigation.c  ****         
 173:navigation.c  ****     
 174:navigation.c  ****     if (less_or_great == GREATER_THAN) {                                         // if distance_set
 175:navigation.c  ****         //UART_1_PutString("\n GREATER THAN LOOP: \n");
 176:navigation.c  ****         while (distance_sensor < abs(distance_set) && emergency_exit == FALSE) {               // T
 177:navigation.c  ****             
ARM GAS  C:\Users\bamcg3\AppData\Local\Temp\ccKbUQhh.s 			page 8


 178:navigation.c  ****             count_left = Motor_Left_Decoder_GetCounter();
 179:navigation.c  ****             count_right = Motor_Right_Decoder_GetCounter();
 180:navigation.c  ****             
 181:navigation.c  ****             // DRIFT CORRECTION:
 182:navigation.c  ****             if (abs(count_left) > abs(count_right)) {
 183:navigation.c  ****                 speed_left = speed - ADJUST;
 184:navigation.c  ****                 speed_right = speed + ADJUST;
 185:navigation.c  ****             }        
 186:navigation.c  ****             if (abs(count_right) > abs(count_left)) {
 187:navigation.c  ****                     speed_right = speed - ADJUST;              // If the speeds are equal, we decre
 188:navigation.c  ****                                                         // adjust tolerance 
 189:navigation.c  ****                     speed_left = speed + ADJUST;
 190:navigation.c  ****             }
 191:navigation.c  ****             // end of drift correction 
 192:navigation.c  ****             
 193:navigation.c  ****             Motor_Left_Driver_WriteCompare(speed_left);         // updates the driver speed
 194:navigation.c  ****             Motor_Right_Driver_WriteCompare(speed_right);
 195:navigation.c  ****             
 196:navigation.c  ****             // When you want to do both front sensors: 
 197:navigation.c  ****             if (ultrasonic_sensor == FRONT_SENSORS && front_sensor_flag == TRUE) {
 198:navigation.c  ****                 distanceSensor(FRONT_LEFT);
 199:navigation.c  ****                 CyDelay(50);
 200:navigation.c  ****                 distance_sensor = ultrasonic_distances_mm[ultrasonic_sensor];   // checks the dista
 201:navigation.c  ****                 front_sensor_flag = FALSE;
 202:navigation.c  ****             }
 203:navigation.c  ****             else if (ultrasonic_sensor == FRONT_SENSORS && front_sensor_flag == FALSE) {
 204:navigation.c  ****                 distanceSensor(FRONT_RIGHT);
 205:navigation.c  ****                 CyDelay(50);
 206:navigation.c  ****                 distance_sensor = ultrasonic_distances_mm[ultrasonic_sensor];   // checks the dista
 207:navigation.c  ****                 front_sensor_flag = TRUE;
 208:navigation.c  ****             }
 209:navigation.c  ****             else {
 210:navigation.c  ****                 distanceSensor(ultrasonic_sensor);
 211:navigation.c  ****                 CyDelay(50);
 212:navigation.c  ****                 distance_sensor = ultrasonic_distances_mm[ultrasonic_sensor];   // checks the dista
 213:navigation.c  ****                 sprintf(output, "%d \t", distance_sensor);       
 214:navigation.c  ****                 UART_1_PutString(output);
 215:navigation.c  ****             }
 216:navigation.c  ****                 
 217:navigation.c  ****             // FAILSAFE:
 218:navigation.c  ****             if (abs(count_left) > (old_count + SAFETY_MARGIN*ENCODER_MULTIPLIER - 100) && activate_
 219:navigation.c  ****                 emergency_exit = failsafe(direction);
 220:navigation.c  ****                 old_count = count_left;
 221:navigation.c  ****             }
 222:navigation.c  ****         } 
 223:navigation.c  ****     }
 224:navigation.c  ****     
 225:navigation.c  ****     if (less_or_great == LESS_THAN) {                                         // if distance_set is
 226:navigation.c  ****         //UART_1_PutString("\n LESS THAN LOOP: \n");
 227:navigation.c  ****         while (distance_sensor > abs(distance_set) && emergency_exit == FALSE){                    
 228:navigation.c  ****             
 229:navigation.c  ****             count_left = Motor_Left_Decoder_GetCounter();
 230:navigation.c  ****             count_right = Motor_Right_Decoder_GetCounter();
 231:navigation.c  ****             
 232:navigation.c  ****             // DRIFT CORRECTION:
 233:navigation.c  ****             if (abs(count_left) > abs(count_right)) {
 234:navigation.c  ****                 speed_left = speed - ADJUST;
ARM GAS  C:\Users\bamcg3\AppData\Local\Temp\ccKbUQhh.s 			page 9


 235:navigation.c  ****                 speed_right = speed + ADJUST;
 236:navigation.c  ****             }        
 237:navigation.c  ****             if (abs(count_right) > abs(count_left)) {
 238:navigation.c  ****                     speed_right = speed - ADJUST;              // If the speeds are equal, we decre
 239:navigation.c  ****                                                         // adjust tolerance 
 240:navigation.c  ****                     speed_left = speed + ADJUST;
 241:navigation.c  ****             }
 242:navigation.c  ****             // end of drift correction 
 243:navigation.c  ****             
 244:navigation.c  ****             Motor_Left_Driver_WriteCompare(speed_left);         // updates the driver speed
 245:navigation.c  ****             Motor_Right_Driver_WriteCompare(speed_right);
 246:navigation.c  ****             
 247:navigation.c  ****             distanceSensor(ultrasonic_sensor);
 248:navigation.c  ****             CyDelay(50);
 249:navigation.c  ****             distance_sensor = ultrasonic_distances_mm[ultrasonic_sensor];   // checks the distance 
 250:navigation.c  ****             sprintf(output, "%d \t", distance_sensor);       
 251:navigation.c  ****             UART_1_PutString(output);
 252:navigation.c  ****             
 253:navigation.c  ****             // FAILSAFE:
 254:navigation.c  ****             if (abs(count_left) > (old_count + SAFETY_MARGIN*ENCODER_MULTIPLIER - 100)){
 255:navigation.c  ****                 emergency_exit = failsafe(direction);
 256:navigation.c  ****                 old_count = count_left;
 257:navigation.c  ****             }
 258:navigation.c  **** 
 259:navigation.c  ****         } 
 260:navigation.c  ****     }
 261:navigation.c  ****     
 262:navigation.c  ****     
 263:navigation.c  ****     
 264:navigation.c  ****     //sprintf(output, "left motor: %d \n", count_left);       
 265:navigation.c  ****     //UART_1_PutString(output);
 266:navigation.c  ****     //sprintf(output, "right motor: %d \n", count_right);      
 267:navigation.c  ****     //UART_1_PutString(output);
 268:navigation.c  ****         
 269:navigation.c  ****     // final check of sensor:
 270:navigation.c  ****     distanceSensor(ultrasonic_sensor);
 271:navigation.c  ****     CyDelay(50);
 272:navigation.c  ****     distance_sensor = ultrasonic_distances_mm[ultrasonic_sensor];   // checks the distance measured
 273:navigation.c  ****     sprintf(output, "\n fin: %d \n", distance_sensor);    
 274:navigation.c  ****     UART_1_PutString(output);
 275:navigation.c  ****     
 276:navigation.c  ****     Motor_Left_Decoder_SetCounter(0);                       // RESET the decoders to 0
 277:navigation.c  ****     Motor_Right_Decoder_SetCounter(0);   
 278:navigation.c  ****     
 279:navigation.c  ****     Motor_Left_Driver_Sleep();              // Puts motors to sleep 
 280:navigation.c  ****     Motor_Right_Driver_Sleep();
 281:navigation.c  ****    
 282:navigation.c  ****     
 283:navigation.c  **** }
 284:navigation.c  **** 
 285:navigation.c  **** void changeOrientation(int orientation_change, int speed) {
 219              		.loc 1 285 0
 220              		.cfi_startproc
 221              		@ args = 0, pretend = 0, frame = 0
 222              		@ frame_needed = 0, uses_anonymous_args = 0
 223              	.LVL35:
 224 0000 10B5     		push	{r4, lr}
ARM GAS  C:\Users\bamcg3\AppData\Local\Temp\ccKbUQhh.s 			page 10


 225              		.cfi_def_cfa_offset 8
 226              		.cfi_offset 4, -8
 227              		.cfi_offset 14, -4
 228 0002 0446     		mov	r4, r0
 286:navigation.c  ****     //define NORTH 0
 287:navigation.c  ****     //define EAST 1
 288:navigation.c  ****     //define SOUTH 2
 289:navigation.c  ****     //define WEST 3
 290:navigation.c  ****     int degree_change;
 291:navigation.c  ****     
 292:navigation.c  ****     // Incorporate some failsafes so that it turns in a direction that won't hit anything:
 293:navigation.c  ****         // failsafes:
 294:navigation.c  ****     
 295:navigation.c  ****     int change = orientation_change - internal_orientation;
 229              		.loc 1 295 0
 230 0004 0B4B     		ldr	r3, .L19
 231 0006 1868     		ldr	r0, [r3]
 232              	.LVL36:
 233 0008 201A     		subs	r0, r4, r0
 234              	.LVL37:
 296:navigation.c  ****     degree_change = 90*change;                                  // converts the amount of degrees w
 235              		.loc 1 296 0
 236 000a 5A23     		movs	r3, #90
 237 000c 03FB00F0 		mul	r0, r3, r0
 238              	.LVL38:
 297:navigation.c  ****     
 298:navigation.c  ****     if (degree_change == 270 || degree_change == -270)
 239              		.loc 1 298 0
 240 0010 B0F5877F 		cmp	r0, #270
 241 0014 02D0     		beq	.L16
 242              		.loc 1 298 0 is_stmt 0 discriminator 1
 243 0016 10F5877F 		cmn	r0, #270
 244 001a 04D1     		bne	.L17
 245              	.L16:
 299:navigation.c  ****     {
 300:navigation.c  ****         degree_change = degree_change/3;
 246              		.loc 1 300 0 is_stmt 1
 247 001c 064B     		ldr	r3, .L19+4
 248 001e 83FB0023 		smull	r2, r3, r3, r0
 249              	.LVL39:
 301:navigation.c  ****         degree_change = -1*degree_change;
 250              		.loc 1 301 0
 251 0022 C3EBE070 		rsb	r0, r3, r0, asr #31
 252              	.LVL40:
 253              	.L17:
 302:navigation.c  ****     }
 303:navigation.c  ****     
 304:navigation.c  ****     moveSwivel(degree_change, speed, TRUE);
 254              		.loc 1 304 0
 255 0026 0122     		movs	r2, #1
 256 0028 FFF7FEFF 		bl	moveSwivel
 257              	.LVL41:
 305:navigation.c  ****     internal_orientation = orientation_change;  
 258              		.loc 1 305 0
 259 002c 014B     		ldr	r3, .L19
 260 002e 1C60     		str	r4, [r3]
 261 0030 10BD     		pop	{r4, pc}
ARM GAS  C:\Users\bamcg3\AppData\Local\Temp\ccKbUQhh.s 			page 11


 262              	.LVL42:
 263              	.L20:
 264 0032 00BF     		.align	2
 265              	.L19:
 266 0034 00000000 		.word	internal_orientation
 267 0038 56555555 		.word	1431655766
 268              		.cfi_endproc
 269              	.LFE67:
 270              		.size	changeOrientation, .-changeOrientation
 271              		.section	.text.translateUntil,"ax",%progbits
 272              		.align	2
 273              		.global	translateUntil
 274              		.thumb
 275              		.thumb_func
 276              		.type	translateUntil, %function
 277              	translateUntil:
 278              	.LFB68:
 306:navigation.c  **** }
 307:navigation.c  **** 
 308:navigation.c  **** void translateUntil(int distance_set, int direction, int less_or_great, int ultrasonic_sensor, int 
 279              		.loc 1 308 0
 280              		.cfi_startproc
 281              		@ args = 4, pretend = 0, frame = 0
 282              		@ frame_needed = 0, uses_anonymous_args = 0
 283              	.LVL43:
 284 0000 2DE9F843 		push	{r3, r4, r5, r6, r7, r8, r9, lr}
 285              		.cfi_def_cfa_offset 32
 286              		.cfi_offset 3, -32
 287              		.cfi_offset 4, -28
 288              		.cfi_offset 5, -24
 289              		.cfi_offset 6, -20
 290              		.cfi_offset 7, -16
 291              		.cfi_offset 8, -12
 292              		.cfi_offset 9, -8
 293              		.cfi_offset 14, -4
 294 0004 8046     		mov	r8, r0
 295 0006 0F46     		mov	r7, r1
 296 0008 9146     		mov	r9, r2
 297 000a 1C46     		mov	r4, r3
 298              	.LVL44:
 309:navigation.c  ****     // distance_set is in millimeteres
 310:navigation.c  ****     // will check the front two ultrasonics 
 311:navigation.c  ****     // will move until distance specified in function 
 312:navigation.c  ****     
 313:navigation.c  ****     // direction can be left or right
 314:navigation.c  ****     
 315:navigation.c  ****     int count_left;                 // counts the encoder values
 316:navigation.c  ****     int count_right;
 317:navigation.c  ****     int old_count = -SAFETY_MARGIN*ENCODER_MULTIPLIER;   // used in the old failsafe to check how m
 318:navigation.c  ****                                                         // will enter the failsafe straight away du
 319:navigation.c  ****     int speed_left = speed;         // the set speed of the motors
 320:navigation.c  ****     int speed_right = speed;
 321:navigation.c  ****     int compare;
 322:navigation.c  ****     //int emergency_exit = FALSE;     // BREAKS out of the code in an emergency 
 323:navigation.c  ****                                   // the ultrasonic sensor we will be using 
 324:navigation.c  ****     int distance_sensor;            // the measured distance of the sensor
 325:navigation.c  **** 
ARM GAS  C:\Users\bamcg3\AppData\Local\Temp\ccKbUQhh.s 			page 12


 326:navigation.c  ****     
 327:navigation.c  ****     ultrasonic_distances_mm[ultrasonic_sensor] = ARENA_WIDTH + 100;             // So it will enter
 299              		.loc 1 327 0
 300 000c 40F21452 		movw	r2, #1300
 301              	.LVL45:
 302 0010 484B     		ldr	r3, .L35
 303              	.LVL46:
 304 0012 43F82420 		str	r2, [r3, r4, lsl #2]
 328:navigation.c  ****     while (ultrasonic_distances_mm[ultrasonic_sensor] > ARENA_WIDTH) {          // protects against
 305              		.loc 1 328 0
 306 0016 11E0     		b	.L22
 307              	.LVL47:
 308              	.L23:
 329:navigation.c  ****         distanceSensor(ultrasonic_sensor);
 309              		.loc 1 329 0
 310 0018 2046     		mov	r0, r4
 311 001a FFF7FEFF 		bl	distanceSensor
 312              	.LVL48:
 330:navigation.c  ****         CyDelay(50);
 313              		.loc 1 330 0
 314 001e 3220     		movs	r0, #50
 315 0020 FFF7FEFF 		bl	CyDelay
 316              	.LVL49:
 331:navigation.c  ****         distance_sensor = ultrasonic_distances_mm[ultrasonic_sensor];   // checks the distance meas
 317              		.loc 1 331 0
 318 0024 434B     		ldr	r3, .L35
 319 0026 53F82450 		ldr	r5, [r3, r4, lsl #2]
 320              	.LVL50:
 332:navigation.c  ****         sprintf(output, "%d \t", distance_sensor);       
 321              		.loc 1 332 0
 322 002a 434E     		ldr	r6, .L35+4
 323 002c 2A46     		mov	r2, r5
 324 002e 4349     		ldr	r1, .L35+8
 325 0030 3046     		mov	r0, r6
 326 0032 FFF7FEFF 		bl	sprintf
 327              	.LVL51:
 333:navigation.c  ****         UART_1_PutString(output);
 328              		.loc 1 333 0
 329 0036 3046     		mov	r0, r6
 330 0038 FFF7FEFF 		bl	UART_1_PutString
 331              	.LVL52:
 332              	.L22:
 328:navigation.c  ****         distanceSensor(ultrasonic_sensor);
 333              		.loc 1 328 0
 334 003c 3D4B     		ldr	r3, .L35
 335 003e 53F82430 		ldr	r3, [r3, r4, lsl #2]
 336 0042 B3F5966F 		cmp	r3, #1200
 337 0046 E7DC     		bgt	.L23
 334:navigation.c  ****     }
 335:navigation.c  ****     
 336:navigation.c  ****     //Motor_Left_Driver_Wakeup();
 337:navigation.c  ****     //Motor_Left_Driver_WriteCompare(speed_left);
 338:navigation.c  ****     //Motor_Right_Driver_Wakeup();
 339:navigation.c  ****     //Motor_Right_Driver_WriteCompare(speed_right);
 340:navigation.c  ****         
 341:navigation.c  ****     if (less_or_great == LESS_THAN) {                                         // if distance_set is
 338              		.loc 1 341 0
ARM GAS  C:\Users\bamcg3\AppData\Local\Temp\ccKbUQhh.s 			page 13


 339 0048 B9F1040F 		cmp	r9, #4
 340 004c 31D1     		bne	.L25
 341 004e 2AE0     		b	.L24
 342              	.L28:
 342:navigation.c  ****         while (distance_sensor > abs(distance_set)) {                // This adjusts for drift 
 343:navigation.c  ****             
 344:navigation.c  ****             UART_1_PutString("entering greater than\n");
 343              		.loc 1 344 0
 344 0050 3B48     		ldr	r0, .L35+12
 345 0052 FFF7FEFF 		bl	UART_1_PutString
 346              	.LVL53:
 345:navigation.c  ****             
 346:navigation.c  ****             count_left = Motor_Left_Decoder_GetCounter();
 347              		.loc 1 346 0
 348 0056 FFF7FEFF 		bl	Motor_Left_Decoder_GetCounter
 349              	.LVL54:
 347:navigation.c  ****             count_right = Motor_Right_Decoder_GetCounter();
 350              		.loc 1 347 0
 351 005a FFF7FEFF 		bl	Motor_Right_Decoder_GetCounter
 352              	.LVL55:
 348:navigation.c  **** 
 349:navigation.c  ****             if (direction == LEFT) {
 353              		.loc 1 349 0
 354 005e 022F     		cmp	r7, #2
 355 0060 06D1     		bne	.L26
 350:navigation.c  ****                 translateMoveDynamic(-5, 7, speed, FALSE);      // This will translate to the left 
 356              		.loc 1 350 0
 357 0062 0023     		movs	r3, #0
 358 0064 089A     		ldr	r2, [sp, #32]
 359 0066 0721     		movs	r1, #7
 360 0068 6FF00400 		mvn	r0, #4
 361 006c FFF7FEFF 		bl	translateMoveDynamic
 362              	.LVL56:
 363              	.L26:
 351:navigation.c  ****             }
 352:navigation.c  ****             
 353:navigation.c  ****             if (direction == RIGHT) {
 364              		.loc 1 353 0
 365 0070 032F     		cmp	r7, #3
 366 0072 06D1     		bne	.L27
 354:navigation.c  ****                 translateMoveDynamic(5, -7, speed, FALSE);      // This will translate to the right
 367              		.loc 1 354 0
 368 0074 0023     		movs	r3, #0
 369 0076 089A     		ldr	r2, [sp, #32]
 370 0078 6FF00601 		mvn	r1, #6
 371 007c 0520     		movs	r0, #5
 372 007e FFF7FEFF 		bl	translateMoveDynamic
 373              	.LVL57:
 374              	.L27:
 355:navigation.c  ****             }
 356:navigation.c  ****                         
 357:navigation.c  ****             //Motor_Left_Driver_WriteCompare(speed_left);     // update the drivers
 358:navigation.c  ****             //Motor_Right_Driver_WriteCompare(speed_right);
 359:navigation.c  ****             
 360:navigation.c  ****             distanceSensor(ultrasonic_sensor);
 375              		.loc 1 360 0
 376 0082 2046     		mov	r0, r4
ARM GAS  C:\Users\bamcg3\AppData\Local\Temp\ccKbUQhh.s 			page 14


 377 0084 FFF7FEFF 		bl	distanceSensor
 378              	.LVL58:
 361:navigation.c  ****             CyDelay(50);
 379              		.loc 1 361 0
 380 0088 3220     		movs	r0, #50
 381 008a FFF7FEFF 		bl	CyDelay
 382              	.LVL59:
 362:navigation.c  ****             //distanceCheckOne(ultrasonic_sensor);                            // checks the distanc
 363:navigation.c  ****             distance_sensor = ultrasonic_distances_mm[ultrasonic_sensor];   // checks the distance 
 383              		.loc 1 363 0
 384 008e 294B     		ldr	r3, .L35
 385 0090 53F82450 		ldr	r5, [r3, r4, lsl #2]
 386              	.LVL60:
 364:navigation.c  ****             sprintf(output, "%d \t", distance_sensor);       
 387              		.loc 1 364 0
 388 0094 284E     		ldr	r6, .L35+4
 389 0096 2A46     		mov	r2, r5
 390 0098 2849     		ldr	r1, .L35+8
 391 009a 3046     		mov	r0, r6
 392 009c FFF7FEFF 		bl	sprintf
 393              	.LVL61:
 365:navigation.c  ****             UART_1_PutString(output);
 394              		.loc 1 365 0
 395 00a0 3046     		mov	r0, r6
 396 00a2 FFF7FEFF 		bl	UART_1_PutString
 397              	.LVL62:
 398              	.L24:
 342:navigation.c  ****             
 399              		.loc 1 342 0
 400 00a6 88EAE873 		eor	r3, r8, r8, asr #31
 401 00aa A3EBE873 		sub	r3, r3, r8, asr #31
 402 00ae 9D42     		cmp	r5, r3
 403 00b0 CEDC     		bgt	.L28
 404              	.L25:
 366:navigation.c  ****             
 367:navigation.c  ****            
 368:navigation.c  ****             
 369:navigation.c  ****         }
 370:navigation.c  ****     }
 371:navigation.c  ****     
 372:navigation.c  ****     if (less_or_great == GREATER_THAN){                                         // if distance_set 
 405              		.loc 1 372 0
 406 00b2 B9F1050F 		cmp	r9, #5
 407 00b6 31D1     		bne	.L30
 408 00b8 2AE0     		b	.L29
 409              	.L33:
 373:navigation.c  ****         while (distance_sensor < abs(distance_set)) {                // This adjusts for drift 
 374:navigation.c  ****             count_left = Motor_Left_Decoder_GetCounter();
 410              		.loc 1 374 0
 411 00ba FFF7FEFF 		bl	Motor_Left_Decoder_GetCounter
 412              	.LVL63:
 375:navigation.c  ****             count_right = Motor_Right_Decoder_GetCounter();
 413              		.loc 1 375 0
 414 00be FFF7FEFF 		bl	Motor_Right_Decoder_GetCounter
 415              	.LVL64:
 376:navigation.c  ****             
 377:navigation.c  ****             UART_1_PutString("entering less than\n");
ARM GAS  C:\Users\bamcg3\AppData\Local\Temp\ccKbUQhh.s 			page 15


 416              		.loc 1 377 0
 417 00c2 2048     		ldr	r0, .L35+16
 418 00c4 FFF7FEFF 		bl	UART_1_PutString
 419              	.LVL65:
 378:navigation.c  **** 
 379:navigation.c  ****             if (direction == LEFT) {
 420              		.loc 1 379 0
 421 00c8 022F     		cmp	r7, #2
 422 00ca 06D1     		bne	.L31
 380:navigation.c  ****                 translateMoveDynamic(-5, 7, speed, FALSE);      // This will translate to the left 
 423              		.loc 1 380 0
 424 00cc 0023     		movs	r3, #0
 425 00ce 089A     		ldr	r2, [sp, #32]
 426 00d0 0721     		movs	r1, #7
 427 00d2 6FF00400 		mvn	r0, #4
 428 00d6 FFF7FEFF 		bl	translateMoveDynamic
 429              	.LVL66:
 430              	.L31:
 381:navigation.c  ****             }
 382:navigation.c  ****             
 383:navigation.c  ****             if (direction == RIGHT) {
 431              		.loc 1 383 0
 432 00da 032F     		cmp	r7, #3
 433 00dc 06D1     		bne	.L32
 384:navigation.c  ****                 translateMoveDynamic(5, -7, speed, FALSE);      // This will translate to the right
 434              		.loc 1 384 0
 435 00de 0023     		movs	r3, #0
 436 00e0 089A     		ldr	r2, [sp, #32]
 437 00e2 6FF00601 		mvn	r1, #6
 438 00e6 0520     		movs	r0, #5
 439 00e8 FFF7FEFF 		bl	translateMoveDynamic
 440              	.LVL67:
 441              	.L32:
 385:navigation.c  ****             }
 386:navigation.c  ****             
 387:navigation.c  ****             //Motor_Left_Driver_WriteCompare(speed_left);         // update the drivers
 388:navigation.c  ****             //Motor_Right_Driver_WriteCompare(speed_right);
 389:navigation.c  ****             
 390:navigation.c  ****             distanceSensor(ultrasonic_sensor);
 442              		.loc 1 390 0
 443 00ec 2046     		mov	r0, r4
 444 00ee FFF7FEFF 		bl	distanceSensor
 445              	.LVL68:
 391:navigation.c  ****             CyDelay(50);
 446              		.loc 1 391 0
 447 00f2 3220     		movs	r0, #50
 448 00f4 FFF7FEFF 		bl	CyDelay
 449              	.LVL69:
 392:navigation.c  ****             
 393:navigation.c  ****             distance_sensor = ultrasonic_distances_mm[ultrasonic_sensor];   // checks the distance 
 450              		.loc 1 393 0
 451 00f8 0E4B     		ldr	r3, .L35
 452 00fa 53F82450 		ldr	r5, [r3, r4, lsl #2]
 453              	.LVL70:
 394:navigation.c  ****             sprintf(output, "%d \t", distance_sensor);       
 454              		.loc 1 394 0
 455 00fe 0E4E     		ldr	r6, .L35+4
ARM GAS  C:\Users\bamcg3\AppData\Local\Temp\ccKbUQhh.s 			page 16


 456 0100 2A46     		mov	r2, r5
 457 0102 0E49     		ldr	r1, .L35+8
 458 0104 3046     		mov	r0, r6
 459 0106 FFF7FEFF 		bl	sprintf
 460              	.LVL71:
 395:navigation.c  ****             UART_1_PutString(output);
 461              		.loc 1 395 0
 462 010a 3046     		mov	r0, r6
 463 010c FFF7FEFF 		bl	UART_1_PutString
 464              	.LVL72:
 465              	.L29:
 373:navigation.c  ****             count_left = Motor_Left_Decoder_GetCounter();
 466              		.loc 1 373 0
 467 0110 88EAE873 		eor	r3, r8, r8, asr #31
 468 0114 A3EBE873 		sub	r3, r3, r8, asr #31
 469 0118 9D42     		cmp	r5, r3
 470 011a CEDB     		blt	.L33
 471              	.L30:
 396:navigation.c  ****             
 397:navigation.c  ****         }
 398:navigation.c  ****     }
 399:navigation.c  ****     
 400:navigation.c  ****     //sprintf(output, "left motor: %d \n", count_left);       
 401:navigation.c  ****     //UART_1_PutString(output);
 402:navigation.c  ****     //sprintf(output, "right motor: %d \n", count_right);      
 403:navigation.c  ****     //UART_1_PutString(output);
 404:navigation.c  ****         
 405:navigation.c  ****     UART_1_PutString("exited loop");
 472              		.loc 1 405 0
 473 011c 0A48     		ldr	r0, .L35+20
 474 011e FFF7FEFF 		bl	UART_1_PutString
 475              	.LVL73:
 406:navigation.c  ****     
 407:navigation.c  ****     Motor_Left_Decoder_SetCounter(0);                       // RESET the decoders to 0
 476              		.loc 1 407 0
 477 0122 0020     		movs	r0, #0
 478 0124 FFF7FEFF 		bl	Motor_Left_Decoder_SetCounter
 479              	.LVL74:
 408:navigation.c  ****     Motor_Right_Decoder_SetCounter(0);   
 480              		.loc 1 408 0
 481 0128 0020     		movs	r0, #0
 482 012a FFF7FEFF 		bl	Motor_Right_Decoder_SetCounter
 483              	.LVL75:
 484 012e BDE8F883 		pop	{r3, r4, r5, r6, r7, r8, r9, pc}
 485              	.LVL76:
 486              	.L36:
 487 0132 00BF     		.align	2
 488              	.L35:
 489 0134 00000000 		.word	ultrasonic_distances_mm
 490 0138 00000000 		.word	output
 491 013c 08000000 		.word	.LC1
 492 0140 10000000 		.word	.LC2
 493 0144 28000000 		.word	.LC3
 494 0148 3C000000 		.word	.LC4
 495              		.cfi_endproc
 496              	.LFE68:
 497              		.size	translateUntil, .-translateUntil
ARM GAS  C:\Users\bamcg3\AppData\Local\Temp\ccKbUQhh.s 			page 17


 498              		.section	.text.failsafe,"ax",%progbits
 499              		.align	2
 500              		.global	failsafe
 501              		.thumb
 502              		.thumb_func
 503              		.type	failsafe, %function
 504              	failsafe:
 505              	.LFB69:
 409:navigation.c  ****     
 410:navigation.c  ****     //Motor_Left_Driver_Sleep();              // Puts motors to sleep 
 411:navigation.c  ****     //Motor_Right_Driver_Sleep();
 412:navigation.c  ****     
 413:navigation.c  **** }
 414:navigation.c  **** 
 415:navigation.c  **** int failsafe(int direction) {
 506              		.loc 1 415 0
 507              		.cfi_startproc
 508              		@ args = 0, pretend = 0, frame = 0
 509              		@ frame_needed = 0, uses_anonymous_args = 0
 510              	.LVL77:
 511 0000 10B5     		push	{r4, lr}
 512              		.cfi_def_cfa_offset 8
 513              		.cfi_offset 4, -8
 514              		.cfi_offset 14, -4
 416:navigation.c  ****     int check_distance;
 417:navigation.c  ****     
 418:navigation.c  ****     // SAFETY OVERRIDE:
 419:navigation.c  ****     if(safety_override == TRUE){
 515              		.loc 1 419 0
 516 0002 1F4B     		ldr	r3, .L45
 517 0004 1B68     		ldr	r3, [r3]
 518 0006 012B     		cmp	r3, #1
 519 0008 33D0     		beq	.L41
 420:navigation.c  ****         return FALSE;
 421:navigation.c  ****     }
 422:navigation.c  ****     
 423:navigation.c  ****     if (direction == BACKWARD) {
 520              		.loc 1 423 0
 521 000a A0B9     		cbnz	r0, .L39
 424:navigation.c  ****         distanceSensor(BACK);
 522              		.loc 1 424 0
 523 000c 0420     		movs	r0, #4
 524              	.LVL78:
 525 000e FFF7FEFF 		bl	distanceSensor
 526              	.LVL79:
 425:navigation.c  ****         CyDelay(50);
 527              		.loc 1 425 0
 528 0012 3220     		movs	r0, #50
 529 0014 FFF7FEFF 		bl	CyDelay
 530              	.LVL80:
 426:navigation.c  ****         
 427:navigation.c  ****         check_distance = ultrasonic_distances_mm[BACK];   // checks the distance measured by the ul
 531              		.loc 1 427 0
 532 0018 1A4B     		ldr	r3, .L45+4
 533 001a 1A69     		ldr	r2, [r3, #16]
 534              	.LVL81:
 428:navigation.c  ****         if (check_distance < SAFETY_MARGIN && check_distance > 0) { 
ARM GAS  C:\Users\bamcg3\AppData\Local\Temp\ccKbUQhh.s 			page 18


 535              		.loc 1 428 0
 536 001c 531E     		subs	r3, r2, #1
 537 001e 532B     		cmp	r3, #83
 538 0020 29D8     		bhi	.L42
 429:navigation.c  ****             sprintf(output, "SAFETY MARGIN ACTIVATED @ %d\n", check_distance);      
 539              		.loc 1 429 0
 540 0022 194C     		ldr	r4, .L45+8
 541 0024 1949     		ldr	r1, .L45+12
 542 0026 2046     		mov	r0, r4
 543 0028 FFF7FEFF 		bl	sprintf
 544              	.LVL82:
 430:navigation.c  ****             UART_1_PutString(output); 
 545              		.loc 1 430 0
 546 002c 2046     		mov	r0, r4
 547 002e FFF7FEFF 		bl	UART_1_PutString
 548              	.LVL83:
 431:navigation.c  ****             return TRUE; 
 549              		.loc 1 431 0
 550 0032 0120     		movs	r0, #1
 551 0034 10BD     		pop	{r4, pc}
 552              	.LVL84:
 553              	.L39:
 432:navigation.c  ****         }
 433:navigation.c  ****         else { return FALSE; }
 434:navigation.c  ****     }
 435:navigation.c  ****     if (direction == FORWARD) {
 554              		.loc 1 435 0
 555 0036 0128     		cmp	r0, #1
 556 0038 1AD1     		bne	.L40
 436:navigation.c  ****         distanceSensor(FRONT_LEFT);
 557              		.loc 1 436 0
 558 003a 0020     		movs	r0, #0
 559              	.LVL85:
 560 003c FFF7FEFF 		bl	distanceSensor
 561              	.LVL86:
 437:navigation.c  ****         CyDelay(50);
 562              		.loc 1 437 0
 563 0040 3220     		movs	r0, #50
 564 0042 FFF7FEFF 		bl	CyDelay
 565              	.LVL87:
 438:navigation.c  ****         distanceSensor(FRONT_RIGHT);      // May need to add this in of front left sensor isnt enou
 566              		.loc 1 438 0
 567 0046 0120     		movs	r0, #1
 568 0048 FFF7FEFF 		bl	distanceSensor
 569              	.LVL88:
 439:navigation.c  ****         CyDelay(50);
 570              		.loc 1 439 0
 571 004c 3220     		movs	r0, #50
 572 004e FFF7FEFF 		bl	CyDelay
 573              	.LVL89:
 440:navigation.c  ****         
 441:navigation.c  ****         check_distance = ultrasonic_distances_mm[FRONT_LEFT];   // checks the distance measured by 
 574              		.loc 1 441 0
 575 0052 0C4B     		ldr	r3, .L45+4
 576 0054 1A68     		ldr	r2, [r3]
 577              	.LVL90:
 442:navigation.c  ****         if (check_distance < SAFETY_MARGIN && check_distance > 0) { 
ARM GAS  C:\Users\bamcg3\AppData\Local\Temp\ccKbUQhh.s 			page 19


 578              		.loc 1 442 0
 579 0056 531E     		subs	r3, r2, #1
 580 0058 532B     		cmp	r3, #83
 581 005a 0ED8     		bhi	.L43
 443:navigation.c  ****             sprintf(output, "SAFETY MARGIN ACTIVATED @ %d\n", check_distance);      
 582              		.loc 1 443 0
 583 005c 0A4C     		ldr	r4, .L45+8
 584 005e 0B49     		ldr	r1, .L45+12
 585 0060 2046     		mov	r0, r4
 586 0062 FFF7FEFF 		bl	sprintf
 587              	.LVL91:
 444:navigation.c  ****             UART_1_PutString(output); 
 588              		.loc 1 444 0
 589 0066 2046     		mov	r0, r4
 590 0068 FFF7FEFF 		bl	UART_1_PutString
 591              	.LVL92:
 445:navigation.c  ****             return TRUE; 
 592              		.loc 1 445 0
 593 006c 0120     		movs	r0, #1
 594 006e 10BD     		pop	{r4, pc}
 595              	.LVL93:
 596              	.L40:
 597              	.LVL94:
 446:navigation.c  ****         }
 447:navigation.c  ****         else { return FALSE; }
 448:navigation.c  ****     }
 449:navigation.c  ****     // Considerations:
 450:navigation.c  ****         // we may not want this failsafe enabled in some cases
 451:navigation.c  ****     
 452:navigation.c  ****     
 453:navigation.c  **** }
 598              		.loc 1 453 0
 599 0070 10BD     		pop	{r4, pc}
 600              	.LVL95:
 601              	.L41:
 420:navigation.c  ****     }
 602              		.loc 1 420 0
 603 0072 0020     		movs	r0, #0
 604              	.LVL96:
 605 0074 10BD     		pop	{r4, pc}
 606              	.LVL97:
 607              	.L42:
 433:navigation.c  ****     }
 608              		.loc 1 433 0
 609 0076 0020     		movs	r0, #0
 610 0078 10BD     		pop	{r4, pc}
 611              	.L43:
 447:navigation.c  ****     }
 612              		.loc 1 447 0
 613 007a 0020     		movs	r0, #0
 614              		.loc 1 453 0
 615 007c 10BD     		pop	{r4, pc}
 616              	.L46:
 617 007e 00BF     		.align	2
 618              	.L45:
 619 0080 00000000 		.word	safety_override
 620 0084 00000000 		.word	ultrasonic_distances_mm
ARM GAS  C:\Users\bamcg3\AppData\Local\Temp\ccKbUQhh.s 			page 20


 621 0088 00000000 		.word	output
 622 008c 48000000 		.word	.LC5
 623              		.cfi_endproc
 624              	.LFE69:
 625              		.size	failsafe, .-failsafe
 626              		.global	__aeabi_i2d
 627              		.global	__aeabi_dadd
 628              		.global	__aeabi_dsub
 629              		.global	__aeabi_dcmpgt
 630              		.section	.text.moveUntil,"ax",%progbits
 631              		.align	2
 632              		.global	moveUntil
 633              		.thumb
 634              		.thumb_func
 635              		.type	moveUntil, %function
 636              	moveUntil:
 637              	.LFB66:
 119:navigation.c  ****     
 638              		.loc 1 119 0
 639              		.cfi_startproc
 640              		@ args = 8, pretend = 0, frame = 32
 641              		@ frame_needed = 0, uses_anonymous_args = 0
 642              	.LVL98:
 643 0000 2DE9F04F 		push	{r4, r5, r6, r7, r8, r9, r10, fp, lr}
 644              		.cfi_def_cfa_offset 36
 645              		.cfi_offset 4, -36
 646              		.cfi_offset 5, -32
 647              		.cfi_offset 6, -28
 648              		.cfi_offset 7, -24
 649              		.cfi_offset 8, -20
 650              		.cfi_offset 9, -16
 651              		.cfi_offset 10, -12
 652              		.cfi_offset 11, -8
 653              		.cfi_offset 14, -4
 654 0004 89B0     		sub	sp, sp, #36
 655              		.cfi_def_cfa_offset 72
 656 0006 0490     		str	r0, [sp, #16]
 657 0008 0591     		str	r1, [sp, #20]
 658 000a 0792     		str	r2, [sp, #28]
 659 000c 1C46     		mov	r4, r3
 660 000e 129E     		ldr	r6, [sp, #72]
 661              	.LVL99:
 141:navigation.c  ****         Motor_Left_Control_Write(0); 
 662              		.loc 1 141 0
 663 0010 0129     		cmp	r1, #1
 664 0012 05D1     		bne	.L48
 142:navigation.c  ****         Motor_Right_Control_Write(0); 
 665              		.loc 1 142 0
 666 0014 0020     		movs	r0, #0
 667              	.LVL100:
 668 0016 FFF7FEFF 		bl	Motor_Left_Control_Write
 669              	.LVL101:
 143:navigation.c  ****         //ultrasonic_sensor = FRONT_LEFT;       // use the back ultrasonic to test our distance
 670              		.loc 1 143 0
 671 001a 0020     		movs	r0, #0
 672 001c FFF7FEFF 		bl	Motor_Right_Control_Write
 673              	.LVL102:
ARM GAS  C:\Users\bamcg3\AppData\Local\Temp\ccKbUQhh.s 			page 21


 674              	.L48:
 148:navigation.c  ****         Motor_Left_Control_Write(1); 
 675              		.loc 1 148 0
 676 0020 059B     		ldr	r3, [sp, #20]
 677 0022 2BB9     		cbnz	r3, .L49
 149:navigation.c  ****         Motor_Right_Control_Write(1);
 678              		.loc 1 149 0
 679 0024 0120     		movs	r0, #1
 680 0026 FFF7FEFF 		bl	Motor_Left_Control_Write
 681              	.LVL103:
 150:navigation.c  ****         //ultrasonic_sensor = BACK; // We just use one ultrasonic front sensor
 682              		.loc 1 150 0
 683 002a 0120     		movs	r0, #1
 684 002c FFF7FEFF 		bl	Motor_Right_Control_Write
 685              	.LVL104:
 686              	.L49:
 155:navigation.c  ****     
 687              		.loc 1 155 0
 688 0030 072C     		cmp	r4, #7
 689 0032 02D0     		beq	.L71
 132:navigation.c  ****                                   // the ultrasonic sensor we will be using 
 690              		.loc 1 132 0
 691 0034 4FF0000B 		mov	fp, #0
 692 0038 02E0     		b	.L50
 693              	.L71:
 155:navigation.c  ****     
 694              		.loc 1 155 0
 695 003a 4FF0010B 		mov	fp, #1
 696 003e 0024     		movs	r4, #0
 697              	.LVL105:
 698              	.L50:
 157:navigation.c  ****     while (ultrasonic_distances_mm[ultrasonic_sensor] > ARENA_WIDTH) {          // protects against
 699              		.loc 1 157 0
 700 0040 40F21452 		movw	r2, #1300
 701 0044 9E4B     		ldr	r3, .L79+8
 702 0046 43F82420 		str	r2, [r3, r4, lsl #2]
 158:navigation.c  ****         distanceSensor(ultrasonic_sensor);
 703              		.loc 1 158 0
 704 004a 11E0     		b	.L51
 705              	.LVL106:
 706              	.L52:
 159:navigation.c  ****         CyDelay(50);
 707              		.loc 1 159 0
 708 004c 2046     		mov	r0, r4
 709 004e FFF7FEFF 		bl	distanceSensor
 710              	.LVL107:
 160:navigation.c  ****         distance_sensor = ultrasonic_distances_mm[ultrasonic_sensor];   // checks the distance meas
 711              		.loc 1 160 0
 712 0052 3220     		movs	r0, #50
 713 0054 FFF7FEFF 		bl	CyDelay
 714              	.LVL108:
 161:navigation.c  ****         sprintf(output, "%d \t", distance_sensor);       
 715              		.loc 1 161 0
 716 0058 994B     		ldr	r3, .L79+8
 717 005a 53F82450 		ldr	r5, [r3, r4, lsl #2]
 718              	.LVL109:
 162:navigation.c  ****         UART_1_PutString(output);
ARM GAS  C:\Users\bamcg3\AppData\Local\Temp\ccKbUQhh.s 			page 22


 719              		.loc 1 162 0
 720 005e 994F     		ldr	r7, .L79+12
 721 0060 2A46     		mov	r2, r5
 722 0062 9949     		ldr	r1, .L79+16
 723 0064 3846     		mov	r0, r7
 724 0066 FFF7FEFF 		bl	sprintf
 725              	.LVL110:
 163:navigation.c  ****     }
 726              		.loc 1 163 0
 727 006a 3846     		mov	r0, r7
 728 006c FFF7FEFF 		bl	UART_1_PutString
 729              	.LVL111:
 730              	.L51:
 158:navigation.c  ****         distanceSensor(ultrasonic_sensor);
 731              		.loc 1 158 0
 732 0070 934B     		ldr	r3, .L79+8
 733 0072 53F82430 		ldr	r3, [r3, r4, lsl #2]
 734 0076 B3F5966F 		cmp	r3, #1200
 735 007a E7DC     		bgt	.L52
 166:navigation.c  ****     
 736              		.loc 1 166 0
 737 007c BBF1000F 		cmp	fp, #0
 738 0080 02D0     		beq	.L53
 739 0082 4FF0000B 		mov	fp, #0
 740              	.LVL112:
 741 0086 0724     		movs	r4, #7
 742              	.LVL113:
 743              	.L53:
 168:navigation.c  ****     Motor_Left_Driver_WriteCompare(speed_left);
 744              		.loc 1 168 0
 745 0088 FFF7FEFF 		bl	Motor_Left_Driver_Wakeup
 746              	.LVL114:
 169:navigation.c  ****     Motor_Right_Driver_Wakeup();
 747              		.loc 1 169 0
 748 008c 5FFA86F8 		uxtb	r8, r6
 749 0090 4046     		mov	r0, r8
 750 0092 FFF7FEFF 		bl	Motor_Left_Driver_WriteCompare
 751              	.LVL115:
 170:navigation.c  ****     Motor_Right_Driver_WriteCompare(speed_right);
 752              		.loc 1 170 0
 753 0096 FFF7FEFF 		bl	Motor_Right_Driver_Wakeup
 754              	.LVL116:
 171:navigation.c  ****         
 755              		.loc 1 171 0
 756 009a 4046     		mov	r0, r8
 757 009c FFF7FEFF 		bl	Motor_Right_Driver_WriteCompare
 758              	.LVL117:
 174:navigation.c  ****         //UART_1_PutString("\n GREATER THAN LOOP: \n");
 759              		.loc 1 174 0
 760 00a0 079B     		ldr	r3, [sp, #28]
 761 00a2 052B     		cmp	r3, #5
 762 00a4 7DD0     		beq	.L73
 130:navigation.c  ****     int compare;                    
 763              		.loc 1 130 0
 764 00a6 B246     		mov	r10, r6
 129:navigation.c  ****     int speed_right = speed;
 765              		.loc 1 129 0
ARM GAS  C:\Users\bamcg3\AppData\Local\Temp\ccKbUQhh.s 			page 23


 766 00a8 B146     		mov	r9, r6
 138:navigation.c  ****     
 767              		.loc 1 138 0
 768 00aa 0027     		movs	r7, #0
 136:navigation.c  ****                                                         // will enter the failsafe check straight a
 769              		.loc 1 136 0
 770 00ac 6FF4E073 		mvn	r3, #448
 771 00b0 0193     		str	r3, [sp, #4]
 772 00b2 85E0     		b	.L55
 773              	.LVL118:
 774              	.L63:
 178:navigation.c  ****             count_right = Motor_Right_Decoder_GetCounter();
 775              		.loc 1 178 0
 776 00b4 FFF7FEFF 		bl	Motor_Left_Decoder_GetCounter
 777              	.LVL119:
 778 00b8 0546     		mov	r5, r0
 779              	.LVL120:
 780 00ba 0690     		str	r0, [sp, #24]
 781              	.LVL121:
 179:navigation.c  ****             
 782              		.loc 1 179 0
 783 00bc FFF7FEFF 		bl	Motor_Right_Decoder_GetCounter
 784              	.LVL122:
 182:navigation.c  ****                 speed_left = speed - ADJUST;
 785              		.loc 1 182 0
 786 00c0 2B46     		mov	r3, r5
 787 00c2 002D     		cmp	r5, #0
 788 00c4 B8BF     		it	lt
 789 00c6 6B42     		rsblt	r3, r5, #0
 790 00c8 9846     		mov	r8, r3
 791 00ca 0028     		cmp	r0, #0
 792 00cc B8BF     		it	lt
 793 00ce 4042     		rsblt	r0, r0, #0
 794              	.LVL123:
 795 00d0 8342     		cmp	r3, r0
 796 00d2 03DD     		ble	.L56
 183:navigation.c  ****                 speed_right = speed + ADJUST;
 797              		.loc 1 183 0
 798 00d4 A6F10409 		sub	r9, r6, #4
 799              	.LVL124:
 184:navigation.c  ****             }        
 800              		.loc 1 184 0
 801 00d8 06F1040A 		add	r10, r6, #4
 802              	.LVL125:
 803              	.L56:
 186:navigation.c  ****                     speed_right = speed - ADJUST;              // If the speeds are equal, we decre
 804              		.loc 1 186 0
 805 00dc 8045     		cmp	r8, r0
 806 00de 03DA     		bge	.L57
 187:navigation.c  ****                                                         // adjust tolerance 
 807              		.loc 1 187 0
 808 00e0 A6F1040A 		sub	r10, r6, #4
 809              	.LVL126:
 189:navigation.c  ****             }
 810              		.loc 1 189 0
 811 00e4 06F10409 		add	r9, r6, #4
 812              	.LVL127:
ARM GAS  C:\Users\bamcg3\AppData\Local\Temp\ccKbUQhh.s 			page 24


 813              	.L57:
 193:navigation.c  ****             Motor_Right_Driver_WriteCompare(speed_right);
 814              		.loc 1 193 0
 815 00e8 5FFA89F0 		uxtb	r0, r9
 816 00ec FFF7FEFF 		bl	Motor_Left_Driver_WriteCompare
 817              	.LVL128:
 194:navigation.c  ****             
 818              		.loc 1 194 0
 819 00f0 5FFA8AF0 		uxtb	r0, r10
 820 00f4 FFF7FEFF 		bl	Motor_Right_Driver_WriteCompare
 821              	.LVL129:
 197:navigation.c  ****                 distanceSensor(FRONT_LEFT);
 822              		.loc 1 197 0
 823 00f8 072C     		cmp	r4, #7
 824 00fa 0ED1     		bne	.L58
 197:navigation.c  ****                 distanceSensor(FRONT_LEFT);
 825              		.loc 1 197 0 is_stmt 0 discriminator 1
 826 00fc BBF1000F 		cmp	fp, #0
 827 0100 0BD0     		beq	.L58
 198:navigation.c  ****                 CyDelay(50);
 828              		.loc 1 198 0 is_stmt 1
 829 0102 0020     		movs	r0, #0
 830 0104 FFF7FEFF 		bl	distanceSensor
 831              	.LVL130:
 199:navigation.c  ****                 distance_sensor = ultrasonic_distances_mm[ultrasonic_sensor];   // checks the dista
 832              		.loc 1 199 0
 833 0108 3220     		movs	r0, #50
 834 010a FFF7FEFF 		bl	CyDelay
 835              	.LVL131:
 200:navigation.c  ****                 front_sensor_flag = FALSE;
 836              		.loc 1 200 0
 837 010e 6C4B     		ldr	r3, .L79+8
 838 0110 53F82450 		ldr	r5, [r3, r4, lsl #2]
 839              	.LVL132:
 201:navigation.c  ****             }
 840              		.loc 1 201 0
 841 0114 4FF0000B 		mov	fp, #0
 842 0118 21E0     		b	.L59
 843              	.LVL133:
 844              	.L58:
 203:navigation.c  ****                 distanceSensor(FRONT_RIGHT);
 845              		.loc 1 203 0
 846 011a 072C     		cmp	r4, #7
 847 011c 0ED1     		bne	.L60
 203:navigation.c  ****                 distanceSensor(FRONT_RIGHT);
 848              		.loc 1 203 0 is_stmt 0 discriminator 1
 849 011e BBF1000F 		cmp	fp, #0
 850 0122 0BD1     		bne	.L60
 204:navigation.c  ****                 CyDelay(50);
 851              		.loc 1 204 0 is_stmt 1
 852 0124 0120     		movs	r0, #1
 853 0126 FFF7FEFF 		bl	distanceSensor
 854              	.LVL134:
 205:navigation.c  ****                 distance_sensor = ultrasonic_distances_mm[ultrasonic_sensor];   // checks the dista
 855              		.loc 1 205 0
 856 012a 3220     		movs	r0, #50
 857 012c FFF7FEFF 		bl	CyDelay
ARM GAS  C:\Users\bamcg3\AppData\Local\Temp\ccKbUQhh.s 			page 25


 858              	.LVL135:
 206:navigation.c  ****                 front_sensor_flag = TRUE;
 859              		.loc 1 206 0
 860 0130 634B     		ldr	r3, .L79+8
 861 0132 53F82450 		ldr	r5, [r3, r4, lsl #2]
 862              	.LVL136:
 207:navigation.c  ****             }
 863              		.loc 1 207 0
 864 0136 4FF0010B 		mov	fp, #1
 865 013a 10E0     		b	.L59
 866              	.LVL137:
 867              	.L60:
 210:navigation.c  ****                 CyDelay(50);
 868              		.loc 1 210 0
 869 013c 2046     		mov	r0, r4
 870 013e FFF7FEFF 		bl	distanceSensor
 871              	.LVL138:
 211:navigation.c  ****                 distance_sensor = ultrasonic_distances_mm[ultrasonic_sensor];   // checks the dista
 872              		.loc 1 211 0
 873 0142 3220     		movs	r0, #50
 874 0144 FFF7FEFF 		bl	CyDelay
 875              	.LVL139:
 212:navigation.c  ****                 sprintf(output, "%d \t", distance_sensor);       
 876              		.loc 1 212 0
 877 0148 5D4B     		ldr	r3, .L79+8
 878 014a 53F82450 		ldr	r5, [r3, r4, lsl #2]
 879              	.LVL140:
 213:navigation.c  ****                 UART_1_PutString(output);
 880              		.loc 1 213 0
 881 014e 2A46     		mov	r2, r5
 882 0150 5D49     		ldr	r1, .L79+16
 883 0152 5C48     		ldr	r0, .L79+12
 884 0154 FFF7FEFF 		bl	sprintf
 885              	.LVL141:
 214:navigation.c  ****             }
 886              		.loc 1 214 0
 887 0158 5A48     		ldr	r0, .L79+12
 888 015a FFF7FEFF 		bl	UART_1_PutString
 889              	.LVL142:
 890              	.L59:
 218:navigation.c  ****                 emergency_exit = failsafe(direction);
 891              		.loc 1 218 0
 892 015e 4046     		mov	r0, r8
 893 0160 FFF7FEFF 		bl	__aeabi_i2d
 894              	.LVL143:
 895 0164 CDE90201 		strd	r0, [sp, #8]
 896 0168 0198     		ldr	r0, [sp, #4]
 897 016a FFF7FEFF 		bl	__aeabi_i2d
 898              	.LVL144:
 899 016e 52A3     		adr	r3, .L79
 900 0170 D3E90023 		ldrd	r2, [r3]
 901 0174 FFF7FEFF 		bl	__aeabi_dadd
 902              	.LVL145:
 903 0178 0022     		movs	r2, #0
 904 017a 544B     		ldr	r3, .L79+20
 905 017c FFF7FEFF 		bl	__aeabi_dsub
 906              	.LVL146:
ARM GAS  C:\Users\bamcg3\AppData\Local\Temp\ccKbUQhh.s 			page 26


 907 0180 0246     		mov	r2, r0
 908 0182 0B46     		mov	r3, r1
 909 0184 DDE90201 		ldrd	r0, [sp, #8]
 910 0188 FFF7FEFF 		bl	__aeabi_dcmpgt
 911              	.LVL147:
 912 018c 78B1     		cbz	r0, .L54
 218:navigation.c  ****                 emergency_exit = failsafe(direction);
 913              		.loc 1 218 0 is_stmt 0 discriminator 1
 914 018e 139B     		ldr	r3, [sp, #76]
 915 0190 012B     		cmp	r3, #1
 916 0192 0CD1     		bne	.L54
 219:navigation.c  ****                 old_count = count_left;
 917              		.loc 1 219 0 is_stmt 1
 918 0194 0598     		ldr	r0, [sp, #20]
 919 0196 FFF7FEFF 		bl	failsafe
 920              	.LVL148:
 921 019a 0746     		mov	r7, r0
 922              	.LVL149:
 220:navigation.c  ****             }
 923              		.loc 1 220 0
 924 019c 069B     		ldr	r3, [sp, #24]
 925 019e 0193     		str	r3, [sp, #4]
 926 01a0 05E0     		b	.L54
 927              	.LVL150:
 928              	.L73:
 929 01a2 B246     		mov	r10, r6
 930 01a4 B146     		mov	r9, r6
 931 01a6 0027     		movs	r7, #0
 932 01a8 6FF4E073 		mvn	r3, #448
 933 01ac 0193     		str	r3, [sp, #4]
 934              	.LVL151:
 935              	.L54:
 176:navigation.c  ****             
 936              		.loc 1 176 0
 937 01ae 049B     		ldr	r3, [sp, #16]
 938 01b0 002B     		cmp	r3, #0
 939 01b2 B8BF     		it	lt
 940 01b4 5B42     		rsblt	r3, r3, #0
 941 01b6 9D42     		cmp	r5, r3
 942 01b8 02DA     		bge	.L55
 176:navigation.c  ****             
 943              		.loc 1 176 0 is_stmt 0 discriminator 1
 944 01ba 002F     		cmp	r7, #0
 945 01bc 3FF47AAF 		beq	.L63
 946              	.LVL152:
 947              	.L55:
 225:navigation.c  ****         //UART_1_PutString("\n LESS THAN LOOP: \n");
 948              		.loc 1 225 0 is_stmt 1
 949 01c0 079B     		ldr	r3, [sp, #28]
 950 01c2 042B     		cmp	r3, #4
 951 01c4 57D1     		bne	.L65
 952 01c6 4EE0     		b	.L64
 953              	.LVL153:
 954              	.L70:
 229:navigation.c  ****             count_right = Motor_Right_Decoder_GetCounter();
 955              		.loc 1 229 0
 956 01c8 FFF7FEFF 		bl	Motor_Left_Decoder_GetCounter
ARM GAS  C:\Users\bamcg3\AppData\Local\Temp\ccKbUQhh.s 			page 27


 957              	.LVL154:
 958 01cc 8346     		mov	fp, r0
 959              	.LVL155:
 230:navigation.c  ****             
 960              		.loc 1 230 0
 961 01ce FFF7FEFF 		bl	Motor_Right_Decoder_GetCounter
 962              	.LVL156:
 233:navigation.c  ****                 speed_left = speed - ADJUST;
 963              		.loc 1 233 0
 964 01d2 8BEAEB78 		eor	r8, fp, fp, asr #31
 965 01d6 A8EBEB78 		sub	r8, r8, fp, asr #31
 966 01da 0028     		cmp	r0, #0
 967 01dc B8BF     		it	lt
 968 01de 4042     		rsblt	r0, r0, #0
 969              	.LVL157:
 970 01e0 8045     		cmp	r8, r0
 971 01e2 03DD     		ble	.L66
 234:navigation.c  ****                 speed_right = speed + ADJUST;
 972              		.loc 1 234 0
 973 01e4 A6F10409 		sub	r9, r6, #4
 974              	.LVL158:
 235:navigation.c  ****             }        
 975              		.loc 1 235 0
 976 01e8 06F1040A 		add	r10, r6, #4
 977              	.LVL159:
 978              	.L66:
 237:navigation.c  ****                     speed_right = speed - ADJUST;              // If the speeds are equal, we decre
 979              		.loc 1 237 0
 980 01ec 8045     		cmp	r8, r0
 981 01ee 03DA     		bge	.L67
 238:navigation.c  ****                                                         // adjust tolerance 
 982              		.loc 1 238 0
 983 01f0 A6F1040A 		sub	r10, r6, #4
 984              	.LVL160:
 240:navigation.c  ****             }
 985              		.loc 1 240 0
 986 01f4 06F10409 		add	r9, r6, #4
 987              	.LVL161:
 988              	.L67:
 244:navigation.c  ****             Motor_Right_Driver_WriteCompare(speed_right);
 989              		.loc 1 244 0
 990 01f8 5FFA89F0 		uxtb	r0, r9
 991 01fc FFF7FEFF 		bl	Motor_Left_Driver_WriteCompare
 992              	.LVL162:
 245:navigation.c  ****             
 993              		.loc 1 245 0
 994 0200 5FFA8AF0 		uxtb	r0, r10
 995 0204 FFF7FEFF 		bl	Motor_Right_Driver_WriteCompare
 996              	.LVL163:
 247:navigation.c  ****             CyDelay(50);
 997              		.loc 1 247 0
 998 0208 2046     		mov	r0, r4
 999 020a FFF7FEFF 		bl	distanceSensor
 1000              	.LVL164:
 248:navigation.c  ****             distance_sensor = ultrasonic_distances_mm[ultrasonic_sensor];   // checks the distance 
 1001              		.loc 1 248 0
 1002 020e 3220     		movs	r0, #50
ARM GAS  C:\Users\bamcg3\AppData\Local\Temp\ccKbUQhh.s 			page 28


 1003 0210 FFF7FEFF 		bl	CyDelay
 1004              	.LVL165:
 249:navigation.c  ****             sprintf(output, "%d \t", distance_sensor);       
 1005              		.loc 1 249 0
 1006 0214 2A4B     		ldr	r3, .L79+8
 1007 0216 53F82450 		ldr	r5, [r3, r4, lsl #2]
 1008              	.LVL166:
 250:navigation.c  ****             UART_1_PutString(output);
 1009              		.loc 1 250 0
 1010 021a 2A46     		mov	r2, r5
 1011 021c 2A49     		ldr	r1, .L79+16
 1012 021e 2948     		ldr	r0, .L79+12
 1013 0220 FFF7FEFF 		bl	sprintf
 1014              	.LVL167:
 251:navigation.c  ****             
 1015              		.loc 1 251 0
 1016 0224 2748     		ldr	r0, .L79+12
 1017 0226 FFF7FEFF 		bl	UART_1_PutString
 1018              	.LVL168:
 254:navigation.c  ****                 emergency_exit = failsafe(direction);
 1019              		.loc 1 254 0
 1020 022a 4046     		mov	r0, r8
 1021 022c FFF7FEFF 		bl	__aeabi_i2d
 1022              	.LVL169:
 1023 0230 CDE90201 		strd	r0, [sp, #8]
 1024 0234 0198     		ldr	r0, [sp, #4]
 1025 0236 FFF7FEFF 		bl	__aeabi_i2d
 1026              	.LVL170:
 1027 023a 1FA3     		adr	r3, .L79
 1028 023c D3E90023 		ldrd	r2, [r3]
 1029 0240 FFF7FEFF 		bl	__aeabi_dadd
 1030              	.LVL171:
 1031 0244 0022     		movs	r2, #0
 1032 0246 214B     		ldr	r3, .L79+20
 1033 0248 FFF7FEFF 		bl	__aeabi_dsub
 1034              	.LVL172:
 1035 024c 0246     		mov	r2, r0
 1036 024e 0B46     		mov	r3, r1
 1037 0250 DDE90201 		ldrd	r0, [sp, #8]
 1038 0254 FFF7FEFF 		bl	__aeabi_dcmpgt
 1039              	.LVL173:
 1040 0258 28B1     		cbz	r0, .L64
 255:navigation.c  ****                 old_count = count_left;
 1041              		.loc 1 255 0
 1042 025a 0598     		ldr	r0, [sp, #20]
 1043 025c FFF7FEFF 		bl	failsafe
 1044              	.LVL174:
 1045 0260 0746     		mov	r7, r0
 1046              	.LVL175:
 256:navigation.c  ****             }
 1047              		.loc 1 256 0
 1048 0262 CDF804B0 		str	fp, [sp, #4]
 1049              	.LVL176:
 1050              	.L64:
 227:navigation.c  ****             
 1051              		.loc 1 227 0
 1052 0266 049B     		ldr	r3, [sp, #16]
ARM GAS  C:\Users\bamcg3\AppData\Local\Temp\ccKbUQhh.s 			page 29


 1053 0268 002B     		cmp	r3, #0
 1054 026a B8BF     		it	lt
 1055 026c 5B42     		rsblt	r3, r3, #0
 1056 026e 9D42     		cmp	r5, r3
 1057 0270 01DD     		ble	.L65
 227:navigation.c  ****             
 1058              		.loc 1 227 0 is_stmt 0 discriminator 1
 1059 0272 002F     		cmp	r7, #0
 1060 0274 A8D0     		beq	.L70
 1061              	.L65:
 270:navigation.c  ****     CyDelay(50);
 1062              		.loc 1 270 0 is_stmt 1
 1063 0276 2046     		mov	r0, r4
 1064 0278 FFF7FEFF 		bl	distanceSensor
 1065              	.LVL177:
 271:navigation.c  ****     distance_sensor = ultrasonic_distances_mm[ultrasonic_sensor];   // checks the distance measured
 1066              		.loc 1 271 0
 1067 027c 3220     		movs	r0, #50
 1068 027e FFF7FEFF 		bl	CyDelay
 1069              	.LVL178:
 273:navigation.c  ****     UART_1_PutString(output);
 1070              		.loc 1 273 0
 1071 0282 104D     		ldr	r5, .L79+12
 1072 0284 0E4B     		ldr	r3, .L79+8
 1073 0286 53F82420 		ldr	r2, [r3, r4, lsl #2]
 1074 028a 1149     		ldr	r1, .L79+24
 1075 028c 2846     		mov	r0, r5
 1076 028e FFF7FEFF 		bl	sprintf
 1077              	.LVL179:
 274:navigation.c  ****     
 1078              		.loc 1 274 0
 1079 0292 2846     		mov	r0, r5
 1080 0294 FFF7FEFF 		bl	UART_1_PutString
 1081              	.LVL180:
 276:navigation.c  ****     Motor_Right_Decoder_SetCounter(0);   
 1082              		.loc 1 276 0
 1083 0298 0020     		movs	r0, #0
 1084 029a FFF7FEFF 		bl	Motor_Left_Decoder_SetCounter
 1085              	.LVL181:
 277:navigation.c  ****     
 1086              		.loc 1 277 0
 1087 029e 0020     		movs	r0, #0
 1088 02a0 FFF7FEFF 		bl	Motor_Right_Decoder_SetCounter
 1089              	.LVL182:
 279:navigation.c  ****     Motor_Right_Driver_Sleep();
 1090              		.loc 1 279 0
 1091 02a4 FFF7FEFF 		bl	Motor_Left_Driver_Sleep
 1092              	.LVL183:
 280:navigation.c  ****    
 1093              		.loc 1 280 0
 1094 02a8 FFF7FEFF 		bl	Motor_Right_Driver_Sleep
 1095              	.LVL184:
 283:navigation.c  **** 
 1096              		.loc 1 283 0
 1097 02ac 09B0     		add	sp, sp, #36
 1098              		.cfi_def_cfa_offset 36
 1099              		@ sp needed
ARM GAS  C:\Users\bamcg3\AppData\Local\Temp\ccKbUQhh.s 			page 30


 1100 02ae BDE8F08F 		pop	{r4, r5, r6, r7, r8, r9, r10, fp, pc}
 1101              	.LVL185:
 1102              	.L80:
 1103 02b2 00BFAFF3 		.align	3
 1103      0080
 1104              	.L79:
 1105 02b8 66666666 		.word	1717986918
 1106 02bc 661A7C40 		.word	1081875046
 1107 02c0 00000000 		.word	ultrasonic_distances_mm
 1108 02c4 00000000 		.word	output
 1109 02c8 08000000 		.word	.LC1
 1110 02cc 00005940 		.word	1079574528
 1111 02d0 68000000 		.word	.LC6
 1112              		.cfi_endproc
 1113              	.LFE66:
 1114              		.size	moveUntil, .-moveUntil
 1115              		.section	.text.straightAdjust,"ax",%progbits
 1116              		.align	2
 1117              		.global	straightAdjust
 1118              		.thumb
 1119              		.thumb_func
 1120              		.type	straightAdjust, %function
 1121              	straightAdjust:
 1122              	.LFB70:
 454:navigation.c  **** 
 455:navigation.c  **** 
 456:navigation.c  **** 
 457:navigation.c  **** void straightAdjust(void) {
 1123              		.loc 1 457 0
 1124              		.cfi_startproc
 1125              		@ args = 0, pretend = 0, frame = 0
 1126              		@ frame_needed = 0, uses_anonymous_args = 0
 1127 0000 70B5     		push	{r4, r5, r6, lr}
 1128              		.cfi_def_cfa_offset 16
 1129              		.cfi_offset 4, -16
 1130              		.cfi_offset 5, -12
 1131              		.cfi_offset 6, -8
 1132              		.cfi_offset 14, -4
 1133              	.LVL186:
 458:navigation.c  ****        
 459:navigation.c  ****     int front_left;
 460:navigation.c  ****     int front_right;
 461:navigation.c  ****     int difference = 300;
 1134              		.loc 1 461 0
 1135 0002 4FF49674 		mov	r4, #300
 462:navigation.c  ****     int tolerance = 1;
 463:navigation.c  ****     int max_difference = 800;
 464:navigation.c  ****     int ultra_delay = 50;
 465:navigation.c  ****        
 466:navigation.c  ****     while (abs(difference) > max_difference) {              // ensures the initial readings are acc
 1136              		.loc 1 466 0
 1137 0006 29E0     		b	.L82
 1138              	.LVL187:
 1139              	.L83:
 467:navigation.c  ****         distanceSensor(FRONT_LEFT);
 1140              		.loc 1 467 0
 1141 0008 0020     		movs	r0, #0
ARM GAS  C:\Users\bamcg3\AppData\Local\Temp\ccKbUQhh.s 			page 31


 1142 000a FFF7FEFF 		bl	distanceSensor
 1143              	.LVL188:
 468:navigation.c  ****         CyDelay(50);                        // 50ms might not be enough ???
 1144              		.loc 1 468 0
 1145 000e 3220     		movs	r0, #50
 1146 0010 FFF7FEFF 		bl	CyDelay
 1147              	.LVL189:
 469:navigation.c  ****         sprintf(output, "%d \t", ultrasonic_distances_mm[FRONT_LEFT]);
 1148              		.loc 1 469 0
 1149 0014 544E     		ldr	r6, .L93
 1150 0016 554C     		ldr	r4, .L93+4
 1151              	.LVL190:
 1152 0018 554D     		ldr	r5, .L93+8
 1153 001a 3268     		ldr	r2, [r6]
 1154 001c 2146     		mov	r1, r4
 1155 001e 2846     		mov	r0, r5
 1156 0020 FFF7FEFF 		bl	sprintf
 1157              	.LVL191:
 470:navigation.c  ****         UART_1_PutString(output);
 1158              		.loc 1 470 0
 1159 0024 2846     		mov	r0, r5
 1160 0026 FFF7FEFF 		bl	UART_1_PutString
 1161              	.LVL192:
 471:navigation.c  ****         
 472:navigation.c  ****         distanceSensor(FRONT_RIGHT);
 1162              		.loc 1 472 0
 1163 002a 0120     		movs	r0, #1
 1164 002c FFF7FEFF 		bl	distanceSensor
 1165              	.LVL193:
 473:navigation.c  ****         CyDelay(50);
 1166              		.loc 1 473 0
 1167 0030 3220     		movs	r0, #50
 1168 0032 FFF7FEFF 		bl	CyDelay
 1169              	.LVL194:
 474:navigation.c  ****         sprintf(output, "%d \t", ultrasonic_distances_mm[FRONT_RIGHT]);
 1170              		.loc 1 474 0
 1171 0036 7268     		ldr	r2, [r6, #4]
 1172 0038 2146     		mov	r1, r4
 1173 003a 2846     		mov	r0, r5
 1174 003c FFF7FEFF 		bl	sprintf
 1175              	.LVL195:
 475:navigation.c  ****         UART_1_PutString(output);
 1176              		.loc 1 475 0
 1177 0040 2846     		mov	r0, r5
 1178 0042 FFF7FEFF 		bl	UART_1_PutString
 1179              	.LVL196:
 476:navigation.c  ****         
 477:navigation.c  ****         difference = ultrasonic_distances_mm[FRONT_LEFT] - ultrasonic_distances_mm[FRONT_RIGHT];
 1180              		.loc 1 477 0
 1181 0046 3468     		ldr	r4, [r6]
 1182 0048 7368     		ldr	r3, [r6, #4]
 1183 004a E41A     		subs	r4, r4, r3
 1184              	.LVL197:
 478:navigation.c  ****         sprintf(output, "difference = %d, \n", difference);       
 1185              		.loc 1 478 0
 1186 004c 2246     		mov	r2, r4
 1187 004e 4949     		ldr	r1, .L93+12
ARM GAS  C:\Users\bamcg3\AppData\Local\Temp\ccKbUQhh.s 			page 32


 1188 0050 2846     		mov	r0, r5
 1189 0052 FFF7FEFF 		bl	sprintf
 1190              	.LVL198:
 479:navigation.c  ****         UART_1_PutString(output);
 1191              		.loc 1 479 0
 1192 0056 2846     		mov	r0, r5
 1193 0058 FFF7FEFF 		bl	UART_1_PutString
 1194              	.LVL199:
 1195              	.L82:
 466:navigation.c  ****         distanceSensor(FRONT_LEFT);
 1196              		.loc 1 466 0
 1197 005c 84EAE473 		eor	r3, r4, r4, asr #31
 1198 0060 A3EBE473 		sub	r3, r3, r4, asr #31
 1199 0064 B3F5487F 		cmp	r3, #800
 1200 0068 CEDC     		bgt	.L83
 1201              	.LVL200:
 480:navigation.c  ****     }
 481:navigation.c  ****         
 482:navigation.c  ****     int speed_left = 25;        // slow speed
 483:navigation.c  ****     int speed_right = 25;
 484:navigation.c  ****     
 485:navigation.c  ****     
 486:navigation.c  ****     Motor_Left_Driver_Wakeup();
 1202              		.loc 1 486 0
 1203 006a FFF7FEFF 		bl	Motor_Left_Driver_Wakeup
 1204              	.LVL201:
 487:navigation.c  ****     Motor_Left_Driver_WriteCompare(speed_left);
 1205              		.loc 1 487 0
 1206 006e 1920     		movs	r0, #25
 1207 0070 FFF7FEFF 		bl	Motor_Left_Driver_WriteCompare
 1208              	.LVL202:
 488:navigation.c  ****     Motor_Right_Driver_Wakeup();
 1209              		.loc 1 488 0
 1210 0074 FFF7FEFF 		bl	Motor_Right_Driver_Wakeup
 1211              	.LVL203:
 489:navigation.c  ****     Motor_Right_Driver_WriteCompare(speed_right);
 1212              		.loc 1 489 0
 1213 0078 1920     		movs	r0, #25
 1214 007a FFF7FEFF 		bl	Motor_Right_Driver_WriteCompare
 1215              	.LVL204:
 490:navigation.c  **** 
 491:navigation.c  ****     
 492:navigation.c  ****     while(abs(difference) > tolerance ) {
 1216              		.loc 1 492 0
 1217 007e 68E0     		b	.L84
 1218              	.L91:
 493:navigation.c  ****         if (difference > 0)             // This means we need to move it right
 1219              		.loc 1 493 0
 1220 0080 002C     		cmp	r4, #0
 1221 0082 22DD     		ble	.L85
 494:navigation.c  ****         {
 495:navigation.c  ****             Motor_Left_Control_Write(0); Motor_Right_Control_Write(1); 
 1222              		.loc 1 495 0
 1223 0084 0020     		movs	r0, #0
 1224 0086 FFF7FEFF 		bl	Motor_Left_Control_Write
 1225              	.LVL205:
 1226 008a 0120     		movs	r0, #1
ARM GAS  C:\Users\bamcg3\AppData\Local\Temp\ccKbUQhh.s 			page 33


 1227 008c FFF7FEFF 		bl	Motor_Right_Control_Write
 1228              	.LVL206:
 496:navigation.c  ****             while (abs(difference) > tolerance 
 1229              		.loc 1 496 0
 1230 0090 0FE0     		b	.L86
 1231              	.L88:
 497:navigation.c  ****                 && difference > 0
 498:navigation.c  ****                 && abs(difference) < max_difference)     // ensures working correctly
 499:navigation.c  ****             {
 500:navigation.c  **** 
 501:navigation.c  ****             distanceSensor(FRONT_LEFT);
 1232              		.loc 1 501 0
 1233 0092 0020     		movs	r0, #0
 1234 0094 FFF7FEFF 		bl	distanceSensor
 1235              	.LVL207:
 502:navigation.c  ****             CyDelay(ultra_delay);
 1236              		.loc 1 502 0
 1237 0098 3220     		movs	r0, #50
 1238 009a FFF7FEFF 		bl	CyDelay
 1239              	.LVL208:
 503:navigation.c  ****             distanceSensor(FRONT_RIGHT);
 1240              		.loc 1 503 0
 1241 009e 0120     		movs	r0, #1
 1242 00a0 FFF7FEFF 		bl	distanceSensor
 1243              	.LVL209:
 504:navigation.c  ****             CyDelay(ultra_delay);
 1244              		.loc 1 504 0
 1245 00a4 3220     		movs	r0, #50
 1246 00a6 FFF7FEFF 		bl	CyDelay
 1247              	.LVL210:
 505:navigation.c  ****                       
 506:navigation.c  ****             difference = ultrasonic_distances_mm[FRONT_LEFT] - ultrasonic_distances_mm[FRONT_RIGHT]
 1248              		.loc 1 506 0
 1249 00aa 2F4B     		ldr	r3, .L93
 1250 00ac 1C68     		ldr	r4, [r3]
 1251              	.LVL211:
 1252 00ae 5B68     		ldr	r3, [r3, #4]
 1253 00b0 E41A     		subs	r4, r4, r3
 1254              	.LVL212:
 1255              	.L86:
 496:navigation.c  ****                 && difference > 0
 1256              		.loc 1 496 0
 1257 00b2 84EAE473 		eor	r3, r4, r4, asr #31
 1258 00b6 A3EBE473 		sub	r3, r3, r4, asr #31
 1259 00ba 012B     		cmp	r3, #1
 1260 00bc 29DD     		ble	.L87
 497:navigation.c  ****                 && abs(difference) < max_difference)     // ensures working correctly
 1261              		.loc 1 497 0
 1262 00be 002C     		cmp	r4, #0
 1263 00c0 27DD     		ble	.L87
 498:navigation.c  ****             {
 1264              		.loc 1 498 0
 1265 00c2 B3F5487F 		cmp	r3, #800
 1266 00c6 E4DB     		blt	.L88
 1267 00c8 23E0     		b	.L87
 1268              	.L85:
 507:navigation.c  ****             
ARM GAS  C:\Users\bamcg3\AppData\Local\Temp\ccKbUQhh.s 			page 34


 508:navigation.c  ****             //sprintf(output, " %d , %d \t dif: %d, \n", ultrasonic_distances_mm[FRONT_LEFT], 
 509:navigation.c  ****             //                                            ultrasonic_distances_mm[FRONT_RIGHT],
 510:navigation.c  ****             //                                                                        difference); 
 511:navigation.c  ****             //UART_1_PutString(output);
 512:navigation.c  ****             
 513:navigation.c  ****             
 514:navigation.c  ****             }
 515:navigation.c  ****             
 516:navigation.c  ****         }
 517:navigation.c  ****         else if (difference < 0 ){      // HERE we are turning left
 1269              		.loc 1 517 0
 1270 00ca 002C     		cmp	r4, #0
 1271 00cc 21DA     		bge	.L87
 518:navigation.c  ****             Motor_Left_Control_Write(1); Motor_Right_Control_Write(0);
 1272              		.loc 1 518 0
 1273 00ce 0120     		movs	r0, #1
 1274 00d0 FFF7FEFF 		bl	Motor_Left_Control_Write
 1275              	.LVL213:
 1276 00d4 0020     		movs	r0, #0
 1277 00d6 FFF7FEFF 		bl	Motor_Right_Control_Write
 1278              	.LVL214:
 519:navigation.c  ****             while (abs(difference) > tolerance 
 1279              		.loc 1 519 0
 1280 00da 0FE0     		b	.L89
 1281              	.L90:
 520:navigation.c  ****                         && difference < 0
 521:navigation.c  ****                         && abs(difference) < max_difference) 
 522:navigation.c  ****             {
 523:navigation.c  ****             
 524:navigation.c  ****             distanceSensor(FRONT_LEFT);
 1282              		.loc 1 524 0
 1283 00dc 0020     		movs	r0, #0
 1284 00de FFF7FEFF 		bl	distanceSensor
 1285              	.LVL215:
 525:navigation.c  ****             CyDelay(ultra_delay);
 1286              		.loc 1 525 0
 1287 00e2 3220     		movs	r0, #50
 1288 00e4 FFF7FEFF 		bl	CyDelay
 1289              	.LVL216:
 526:navigation.c  ****             distanceSensor(FRONT_RIGHT);
 1290              		.loc 1 526 0
 1291 00e8 0120     		movs	r0, #1
 1292 00ea FFF7FEFF 		bl	distanceSensor
 1293              	.LVL217:
 527:navigation.c  ****             CyDelay(ultra_delay);
 1294              		.loc 1 527 0
 1295 00ee 3220     		movs	r0, #50
 1296 00f0 FFF7FEFF 		bl	CyDelay
 1297              	.LVL218:
 528:navigation.c  ****                       
 529:navigation.c  ****             difference = ultrasonic_distances_mm[FRONT_LEFT] - ultrasonic_distances_mm[FRONT_RIGHT]
 1298              		.loc 1 529 0
 1299 00f4 1C4B     		ldr	r3, .L93
 1300 00f6 1C68     		ldr	r4, [r3]
 1301              	.LVL219:
 1302 00f8 5B68     		ldr	r3, [r3, #4]
 1303 00fa E41A     		subs	r4, r4, r3
ARM GAS  C:\Users\bamcg3\AppData\Local\Temp\ccKbUQhh.s 			page 35


 1304              	.LVL220:
 1305              	.L89:
 519:navigation.c  ****                         && difference < 0
 1306              		.loc 1 519 0
 1307 00fc 84EAE473 		eor	r3, r4, r4, asr #31
 1308 0100 A3EBE473 		sub	r3, r3, r4, asr #31
 1309 0104 012B     		cmp	r3, #1
 1310 0106 04DD     		ble	.L87
 520:navigation.c  ****                         && abs(difference) < max_difference) 
 1311              		.loc 1 520 0
 1312 0108 002C     		cmp	r4, #0
 1313 010a 02DA     		bge	.L87
 521:navigation.c  ****             {
 1314              		.loc 1 521 0
 1315 010c B3F5487F 		cmp	r3, #800
 1316 0110 E4DB     		blt	.L90
 1317              	.L87:
 530:navigation.c  ****                        
 531:navigation.c  ****             //sprintf(output, " %d , %d \t dif: %d, \n", ultrasonic_distances_mm[FRONT_LEFT], 
 532:navigation.c  ****             //                                            ultrasonic_distances_mm[FRONT_RIGHT],
 533:navigation.c  ****             //                                                                        difference); 
 534:navigation.c  ****             //UART_1_PutString(output);
 535:navigation.c  ****             
 536:navigation.c  ****             
 537:navigation.c  ****             }
 538:navigation.c  ****             
 539:navigation.c  ****         }
 540:navigation.c  ****         
 541:navigation.c  ****         
 542:navigation.c  ****         // CHECKS one more time to ensure the difference is accurate: 
 543:navigation.c  ****             // consider putting in a for loop to get new readings
 544:navigation.c  ****         distanceSensor(FRONT_LEFT);
 1318              		.loc 1 544 0
 1319 0112 0020     		movs	r0, #0
 1320 0114 FFF7FEFF 		bl	distanceSensor
 1321              	.LVL221:
 545:navigation.c  ****         CyDelay(ultra_delay);
 1322              		.loc 1 545 0
 1323 0118 3220     		movs	r0, #50
 1324 011a FFF7FEFF 		bl	CyDelay
 1325              	.LVL222:
 546:navigation.c  ****         distanceSensor(FRONT_RIGHT);
 1326              		.loc 1 546 0
 1327 011e 0120     		movs	r0, #1
 1328 0120 FFF7FEFF 		bl	distanceSensor
 1329              	.LVL223:
 547:navigation.c  ****         CyDelay(ultra_delay);
 1330              		.loc 1 547 0
 1331 0124 3220     		movs	r0, #50
 1332 0126 FFF7FEFF 		bl	CyDelay
 1333              	.LVL224:
 548:navigation.c  ****                       
 549:navigation.c  ****         difference = ultrasonic_distances_mm[FRONT_LEFT] - ultrasonic_distances_mm[FRONT_RIGHT];
 1334              		.loc 1 549 0
 1335 012a 0F4B     		ldr	r3, .L93
 1336 012c 1A68     		ldr	r2, [r3]
 1337 012e 5B68     		ldr	r3, [r3, #4]
ARM GAS  C:\Users\bamcg3\AppData\Local\Temp\ccKbUQhh.s 			page 36


 1338 0130 D41A     		subs	r4, r2, r3
 1339              	.LVL225:
 550:navigation.c  ****         sprintf(output, "%d, %d, ", ultrasonic_distances_mm[FRONT_LEFT], ultrasonic_distances_mm[FR
 1340              		.loc 1 550 0
 1341 0132 0F4D     		ldr	r5, .L93+8
 1342 0134 1049     		ldr	r1, .L93+16
 1343 0136 2846     		mov	r0, r5
 1344 0138 FFF7FEFF 		bl	sprintf
 1345              	.LVL226:
 551:navigation.c  ****         UART_1_PutString(output);
 1346              		.loc 1 551 0
 1347 013c 2846     		mov	r0, r5
 1348 013e FFF7FEFF 		bl	UART_1_PutString
 1349              	.LVL227:
 552:navigation.c  ****         sprintf(output, "dif: %d, \n", difference);       
 1350              		.loc 1 552 0
 1351 0142 2246     		mov	r2, r4
 1352 0144 0D49     		ldr	r1, .L93+20
 1353 0146 2846     		mov	r0, r5
 1354 0148 FFF7FEFF 		bl	sprintf
 1355              	.LVL228:
 553:navigation.c  ****         UART_1_PutString(output);
 1356              		.loc 1 553 0
 1357 014c 2846     		mov	r0, r5
 1358 014e FFF7FEFF 		bl	UART_1_PutString
 1359              	.LVL229:
 1360              	.L84:
 492:navigation.c  ****         if (difference > 0)             // This means we need to move it right
 1361              		.loc 1 492 0
 1362 0152 84EAE473 		eor	r3, r4, r4, asr #31
 1363 0156 A3EBE473 		sub	r3, r3, r4, asr #31
 1364 015a 012B     		cmp	r3, #1
 1365 015c 90DC     		bgt	.L91
 554:navigation.c  ****         
 555:navigation.c  ****     }         // This ensures that the turning worked correctly
 556:navigation.c  ****                                             // changed it from 10 to 2, this might change the way i
 557:navigation.c  ****     
 558:navigation.c  ****     
 559:navigation.c  ****     Motor_Left_Driver_Sleep();
 1366              		.loc 1 559 0
 1367 015e FFF7FEFF 		bl	Motor_Left_Driver_Sleep
 1368              	.LVL230:
 560:navigation.c  ****     Motor_Right_Driver_Sleep();
 1369              		.loc 1 560 0
 1370 0162 FFF7FEFF 		bl	Motor_Right_Driver_Sleep
 1371              	.LVL231:
 1372 0166 70BD     		pop	{r4, r5, r6, pc}
 1373              	.LVL232:
 1374              	.L94:
 1375              		.align	2
 1376              	.L93:
 1377 0168 00000000 		.word	ultrasonic_distances_mm
 1378 016c 08000000 		.word	.LC1
 1379 0170 00000000 		.word	output
 1380 0174 74000000 		.word	.LC7
 1381 0178 88000000 		.word	.LC8
 1382 017c 94000000 		.word	.LC9
ARM GAS  C:\Users\bamcg3\AppData\Local\Temp\ccKbUQhh.s 			page 37


 1383              		.cfi_endproc
 1384              	.LFE70:
 1385              		.size	straightAdjust, .-straightAdjust
 1386              		.section	.text.straightAdjustBack,"ax",%progbits
 1387              		.align	2
 1388              		.global	straightAdjustBack
 1389              		.thumb
 1390              		.thumb_func
 1391              		.type	straightAdjustBack, %function
 1392              	straightAdjustBack:
 1393              	.LFB71:
 561:navigation.c  ****        
 562:navigation.c  **** }
 563:navigation.c  **** 
 564:navigation.c  **** 
 565:navigation.c  **** void straightAdjustBack(void) {
 1394              		.loc 1 565 0
 1395              		.cfi_startproc
 1396              		@ args = 0, pretend = 0, frame = 0
 1397              		@ frame_needed = 0, uses_anonymous_args = 0
 1398 0000 70B5     		push	{r4, r5, r6, lr}
 1399              		.cfi_def_cfa_offset 16
 1400              		.cfi_offset 4, -16
 1401              		.cfi_offset 5, -12
 1402              		.cfi_offset 6, -8
 1403              		.cfi_offset 14, -4
 1404              	.LVL233:
 566:navigation.c  ****     // Move left, if number gets bigger, then move right
 567:navigation.c  ****     // keep moving left & right until a minimum distance is found 
 568:navigation.c  ****         // should we add another sensor to the back of the robot??? 
 569:navigation.c  ****         //  will adding another sensor affect anything? 
 570:navigation.c  ****     int distance_check;
 571:navigation.c  ****     int distance_previous = 0;  // ensures we will enter the while loop
 572:navigation.c  ****     int direction = LEFT;       // start off turning left first 
 573:navigation.c  ****     int minimum_distance;                           
 574:navigation.c  ****         
 575:navigation.c  ****     distanceSensor(BACK);
 1405              		.loc 1 575 0
 1406 0002 0420     		movs	r0, #4
 1407 0004 FFF7FEFF 		bl	distanceSensor
 1408              	.LVL234:
 576:navigation.c  ****     CyDelay(DELAY);
 1409              		.loc 1 576 0
 1410 0008 3C20     		movs	r0, #60
 1411 000a FFF7FEFF 		bl	CyDelay
 1412              	.LVL235:
 577:navigation.c  ****     
 578:navigation.c  ****     Motor_Left_Driver_Wakeup();
 1413              		.loc 1 578 0
 1414 000e FFF7FEFF 		bl	Motor_Left_Driver_Wakeup
 1415              	.LVL236:
 579:navigation.c  ****     Motor_Right_Driver_Wakeup();
 1416              		.loc 1 579 0
 1417 0012 FFF7FEFF 		bl	Motor_Right_Driver_Wakeup
 1418              	.LVL237:
 580:navigation.c  ****     Motor_Left_Driver_WriteCompare(25);
 1419              		.loc 1 580 0
ARM GAS  C:\Users\bamcg3\AppData\Local\Temp\ccKbUQhh.s 			page 38


 1420 0016 1920     		movs	r0, #25
 1421 0018 FFF7FEFF 		bl	Motor_Left_Driver_WriteCompare
 1422              	.LVL238:
 581:navigation.c  ****     Motor_Right_Driver_WriteCompare(25);
 1423              		.loc 1 581 0
 1424 001c 1920     		movs	r0, #25
 1425 001e FFF7FEFF 		bl	Motor_Right_Driver_WriteCompare
 1426              	.LVL239:
 582:navigation.c  ****     
 583:navigation.c  ****     distance_check = ultrasonic_distances_mm[BACK];
 1427              		.loc 1 583 0
 1428 0022 124B     		ldr	r3, .L104
 1429 0024 1C69     		ldr	r4, [r3, #16]
 1430              	.LVL240:
 572:navigation.c  ****     int minimum_distance;                           
 1431              		.loc 1 572 0
 1432 0026 0226     		movs	r6, #2
 571:navigation.c  ****     int direction = LEFT;       // start off turning left first 
 1433              		.loc 1 571 0
 1434 0028 0025     		movs	r5, #0
 1435 002a 00E0     		b	.L96
 1436              	.LVL241:
 1437              	.L101:
 584:navigation.c  ****     minimum_distance = distance_check;
 585:navigation.c  ****     
 586:navigation.c  ****     while(1) {
 587:navigation.c  ****         if (direction == LEFT) { Motor_Left_Control_Write(0); Motor_Right_Control_Write(1); }
 588:navigation.c  ****         else {Motor_Left_Control_Write(1); Motor_Right_Control_Write(0); }
 589:navigation.c  ****         
 590:navigation.c  ****         while (distance_previous > distance_check) {
 591:navigation.c  ****             // this will run while:
 592:navigation.c  ****                 // new distance values are getting smaller           
 593:navigation.c  ****             
 594:navigation.c  ****             // Updating the distance values: 
 595:navigation.c  ****             distance_previous = distance_check;
 596:navigation.c  ****             distanceSensor(BACK);
 597:navigation.c  ****             CyDelay(DELAY);
 598:navigation.c  ****             distance_check = ultrasonic_distances_mm[BACK];
 599:navigation.c  ****         }
 600:navigation.c  ****         if (direction == LEFT) {direction = RIGHT; }        // This changes the directions
 1438              		.loc 1 600 0
 1439 002c 0326     		movs	r6, #3
 1440              	.LVL242:
 1441              	.L96:
 587:navigation.c  ****         else {Motor_Left_Control_Write(1); Motor_Right_Control_Write(0); }
 1442              		.loc 1 587 0
 1443 002e 022E     		cmp	r6, #2
 1444 0030 06D1     		bne	.L97
 587:navigation.c  ****         else {Motor_Left_Control_Write(1); Motor_Right_Control_Write(0); }
 1445              		.loc 1 587 0 is_stmt 0 discriminator 1
 1446 0032 0020     		movs	r0, #0
 1447 0034 FFF7FEFF 		bl	Motor_Left_Control_Write
 1448              	.LVL243:
 1449 0038 0120     		movs	r0, #1
 1450 003a FFF7FEFF 		bl	Motor_Right_Control_Write
 1451              	.LVL244:
 1452 003e 0FE0     		b	.L98
ARM GAS  C:\Users\bamcg3\AppData\Local\Temp\ccKbUQhh.s 			page 39


 1453              	.L97:
 588:navigation.c  ****         
 1454              		.loc 1 588 0 is_stmt 1
 1455 0040 0120     		movs	r0, #1
 1456 0042 FFF7FEFF 		bl	Motor_Left_Control_Write
 1457              	.LVL245:
 1458 0046 0020     		movs	r0, #0
 1459 0048 FFF7FEFF 		bl	Motor_Right_Control_Write
 1460              	.LVL246:
 1461 004c 08E0     		b	.L98
 1462              	.L100:
 1463              	.LVL247:
 596:navigation.c  ****             CyDelay(DELAY);
 1464              		.loc 1 596 0
 1465 004e 0420     		movs	r0, #4
 1466 0050 FFF7FEFF 		bl	distanceSensor
 1467              	.LVL248:
 597:navigation.c  ****             distance_check = ultrasonic_distances_mm[BACK];
 1468              		.loc 1 597 0
 1469 0054 3C20     		movs	r0, #60
 1470 0056 FFF7FEFF 		bl	CyDelay
 1471              	.LVL249:
 595:navigation.c  ****             distanceSensor(BACK);
 1472              		.loc 1 595 0
 1473 005a 2546     		mov	r5, r4
 598:navigation.c  ****         }
 1474              		.loc 1 598 0
 1475 005c 034B     		ldr	r3, .L104
 1476 005e 1C69     		ldr	r4, [r3, #16]
 1477              	.LVL250:
 1478              	.L98:
 590:navigation.c  ****             // this will run while:
 1479              		.loc 1 590 0
 1480 0060 AC42     		cmp	r4, r5
 1481 0062 F4DB     		blt	.L100
 1482              		.loc 1 600 0
 1483 0064 022E     		cmp	r6, #2
 1484 0066 E1D0     		beq	.L101
 601:navigation.c  ****         else {direction = LEFT; }
 1485              		.loc 1 601 0
 1486 0068 0226     		movs	r6, #2
 1487              	.LVL251:
 1488 006a E0E7     		b	.L96
 1489              	.L105:
 1490              		.align	2
 1491              	.L104:
 1492 006c 00000000 		.word	ultrasonic_distances_mm
 1493              		.cfi_endproc
 1494              	.LFE71:
 1495              		.size	straightAdjustBack, .-straightAdjustBack
 1496              		.section	.text.toleranceCheck,"ax",%progbits
 1497              		.align	2
 1498              		.global	toleranceCheck
 1499              		.thumb
 1500              		.thumb_func
 1501              		.type	toleranceCheck, %function
 1502              	toleranceCheck:
ARM GAS  C:\Users\bamcg3\AppData\Local\Temp\ccKbUQhh.s 			page 40


 1503              	.LFB72:
 602:navigation.c  ****         
 603:navigation.c  ****         // This may enter an infinite loop where it can't decide if it is correct 
 604:navigation.c  ****     }
 605:navigation.c  ****     
 606:navigation.c  ****     Motor_Left_Driver_Sleep();
 607:navigation.c  ****     Motor_Right_Driver_Sleep();   
 608:navigation.c  ****     
 609:navigation.c  **** }
 610:navigation.c  **** 
 611:navigation.c  **** 
 612:navigation.c  **** void toleranceCheck(void) {
 1504              		.loc 1 612 0
 1505              		.cfi_startproc
 1506              		@ args = 0, pretend = 0, frame = 0
 1507              		@ frame_needed = 0, uses_anonymous_args = 0
 1508 0000 08B5     		push	{r3, lr}
 1509              		.cfi_def_cfa_offset 8
 1510              		.cfi_offset 3, -8
 1511              		.cfi_offset 14, -4
 1512              	.LVL252:
 613:navigation.c  ****     
 614:navigation.c  ****     // This function needs work
 615:navigation.c  **** 
 616:navigation.c  ****     int tolerance = 100;
 617:navigation.c  ****     
 618:navigation.c  ****     distanceSensor(FRONT_LEFT);
 1513              		.loc 1 618 0
 1514 0002 0020     		movs	r0, #0
 1515 0004 FFF7FEFF 		bl	distanceSensor
 1516              	.LVL253:
 619:navigation.c  ****     CyDelay(60);
 1517              		.loc 1 619 0
 1518 0008 3C20     		movs	r0, #60
 1519 000a FFF7FEFF 		bl	CyDelay
 1520              	.LVL254:
 620:navigation.c  ****     distanceSensor(FRONT_LEFT);
 1521              		.loc 1 620 0
 1522 000e 0020     		movs	r0, #0
 1523 0010 FFF7FEFF 		bl	distanceSensor
 1524              	.LVL255:
 621:navigation.c  ****     CyDelay(60);
 1525              		.loc 1 621 0
 1526 0014 3C20     		movs	r0, #60
 1527 0016 FFF7FEFF 		bl	CyDelay
 1528              	.LVL256:
 622:navigation.c  ****     distanceSensor(BACK);
 1529              		.loc 1 622 0
 1530 001a 0420     		movs	r0, #4
 1531 001c FFF7FEFF 		bl	distanceSensor
 1532              	.LVL257:
 623:navigation.c  ****     CyDelay(60);
 1533              		.loc 1 623 0
 1534 0020 3C20     		movs	r0, #60
 1535 0022 FFF7FEFF 		bl	CyDelay
 1536              	.LVL258:
 624:navigation.c  ****     
ARM GAS  C:\Users\bamcg3\AppData\Local\Temp\ccKbUQhh.s 			page 41


 625:navigation.c  ****     while (ultrasonic_distances_mm[FRONT_LEFT] + ultrasonic_distances_mm[BACK] + tolerance < ARENA_
 1537              		.loc 1 625 0
 1538 0026 11E0     		b	.L107
 1539              	.L108:
 626:navigation.c  ****             
 627:navigation.c  ****     
 628:navigation.c  ****     
 629:navigation.c  ****     
 630:navigation.c  ****     || ultrasonic_distances_mm[FRONT_LEFT] + ultrasonic_distances_mm[BACK] + tolerance < ARENA_WIDT
 631:navigation.c  ****             // this checks if the ultrasonic distances being recorded are accurate
 632:navigation.c  ****             // if it is not within this threshold, there must be something up.  
 633:navigation.c  ****                 
 634:navigation.c  ****     distanceSensor(FRONT_LEFT);
 1540              		.loc 1 634 0
 1541 0028 0020     		movs	r0, #0
 1542 002a FFF7FEFF 		bl	distanceSensor
 1543              	.LVL259:
 635:navigation.c  ****     CyDelay(60);
 1544              		.loc 1 635 0
 1545 002e 3C20     		movs	r0, #60
 1546 0030 FFF7FEFF 		bl	CyDelay
 1547              	.LVL260:
 636:navigation.c  ****     distanceSensor(FRONT_LEFT);
 1548              		.loc 1 636 0
 1549 0034 0020     		movs	r0, #0
 1550 0036 FFF7FEFF 		bl	distanceSensor
 1551              	.LVL261:
 637:navigation.c  ****     CyDelay(60);
 1552              		.loc 1 637 0
 1553 003a 3C20     		movs	r0, #60
 1554 003c FFF7FEFF 		bl	CyDelay
 1555              	.LVL262:
 638:navigation.c  ****     distanceSensor(BACK);
 1556              		.loc 1 638 0
 1557 0040 0420     		movs	r0, #4
 1558 0042 FFF7FEFF 		bl	distanceSensor
 1559              	.LVL263:
 639:navigation.c  ****     CyDelay(60);
 1560              		.loc 1 639 0
 1561 0046 3C20     		movs	r0, #60
 1562 0048 FFF7FEFF 		bl	CyDelay
 1563              	.LVL264:
 1564              	.L107:
 625:navigation.c  ****             
 1565              		.loc 1 625 0
 1566 004c 044A     		ldr	r2, .L110
 1567 004e 1168     		ldr	r1, [r2]
 1568 0050 1369     		ldr	r3, [r2, #16]
 1569 0052 0B44     		add	r3, r3, r1
 1570 0054 6433     		adds	r3, r3, #100
 1571 0056 B3F5966F 		cmp	r3, #1200
 1572 005a E5DB     		blt	.L108
 640:navigation.c  ****         
 641:navigation.c  ****     }
 642:navigation.c  ****     
 643:navigation.c  **** }
 1573              		.loc 1 643 0
ARM GAS  C:\Users\bamcg3\AppData\Local\Temp\ccKbUQhh.s 			page 42


 1574 005c 08BD     		pop	{r3, pc}
 1575              	.L111:
 1576 005e 00BF     		.align	2
 1577              	.L110:
 1578 0060 00000000 		.word	ultrasonic_distances_mm
 1579              		.cfi_endproc
 1580              	.LFE72:
 1581              		.size	toleranceCheck, .-toleranceCheck
 1582              		.section	.text.locatePucks,"ax",%progbits
 1583              		.align	2
 1584              		.global	locatePucks
 1585              		.thumb
 1586              		.thumb_func
 1587              		.type	locatePucks, %function
 1588              	locatePucks:
 1589              	.LFB73:
 644:navigation.c  **** 
 645:navigation.c  **** void locatePucks(void)
 646:navigation.c  **** {
 1590              		.loc 1 646 0
 1591              		.cfi_startproc
 1592              		@ args = 0, pretend = 0, frame = 0
 1593              		@ frame_needed = 0, uses_anonymous_args = 0
 1594              		@ link register save eliminated.
 1595 0000 7047     		bx	lr
 1596              		.cfi_endproc
 1597              	.LFE73:
 1598              		.size	locatePucks, .-locatePucks
 1599 0002 00BF     		.section	.text.blockAndPuckZoneFinding,"ax",%progbits
 1600              		.align	2
 1601              		.global	blockAndPuckZoneFinding
 1602              		.thumb
 1603              		.thumb_func
 1604              		.type	blockAndPuckZoneFinding, %function
 1605              	blockAndPuckZoneFinding:
 1606              	.LFB74:
 647:navigation.c  ****     
 648:navigation.c  ****     
 649:navigation.c  ****     
 650:navigation.c  ****     
 651:navigation.c  **** }
 652:navigation.c  **** 
 653:navigation.c  **** 
 654:navigation.c  **** void blockAndPuckZoneFinding(void) {
 1607              		.loc 1 654 0
 1608              		.cfi_startproc
 1609              		@ args = 0, pretend = 0, frame = 0
 1610              		@ frame_needed = 0, uses_anonymous_args = 0
 1611              		@ link register save eliminated.
 1612              	.LVL265:
 1613 0000 7047     		bx	lr
 1614              		.cfi_endproc
 1615              	.LFE74:
 1616              		.size	blockAndPuckZoneFinding, .-blockAndPuckZoneFinding
 1617 0002 00BF     		.section	.text.straightAdjustSensor,"ax",%progbits
 1618              		.align	2
 1619              		.global	straightAdjustSensor
ARM GAS  C:\Users\bamcg3\AppData\Local\Temp\ccKbUQhh.s 			page 43


 1620              		.thumb
 1621              		.thumb_func
 1622              		.type	straightAdjustSensor, %function
 1623              	straightAdjustSensor:
 1624              	.LFB75:
 655:navigation.c  ****     // this function will scan while moving across, and depending on different thresholds, whill tr
 656:navigation.c  ****     // either for a block or a  puck
 657:navigation.c  ****     
 658:navigation.c  ****     int block_threshold; // the block toloerance will be anything less than 700mm - width of robot 
 659:navigation.c  ****     
 660:navigation.c  ****     int puck_threshold;     // the puck zone will be between 1200 - width of robot - opposite senso
 661:navigation.c  ****                                                         //  & 1200 - grid_width - width of robot - 
 662:navigation.c  ****     
 663:navigation.c  ****     int distance_sensor;    // the value the ultrasonic sensors will give us
 664:navigation.c  ****     
 665:navigation.c  ****     // first check the south facing sensor's value, ensure that it is correct
 666:navigation.c  ****     
 667:navigation.c  ****     
 668:navigation.c  ****     // need to scan the front or back sensors
 669:navigation.c  ****     // This function can be generalised, but I'm going to first write it just assuming we are movin
 670:navigation.c  ****     // from the west wall towards the east wall
 671:navigation.c  ****     
 672:navigation.c  ****     // The following while loop will run while the sensor is above the puck threshold and inbetween
 673:navigation.c  ****     // the puck threshold and the block threshold 
 674:navigation.c  ****     // as soon as it moves outside of this threshold, it will trigger, and then we will determine w
 675:navigation.c  ****     // the puck or the block that triggere it
 676:navigation.c  ****     
 677:navigation.c  ****     // Then it will keep moving, looking to trigger only for the other object
 678:navigation.c  ****     
 679:navigation.c  ****     
 680:navigation.c  ****     
 681:navigation.c  ****     // Calculate the block threshold:
 682:navigation.c  ****     
 683:navigation.c  ****     
 684:navigation.c  ****     // Calulcate the puck threshold: 
 685:navigation.c  ****     
 686:navigation.c  ****     
 687:navigation.c  ****     
 688:navigation.c  ****     // Hardcoded values for both, assuming location of robot: (if dynamic versions don't work) 
 689:navigation.c  ****     
 690:navigation.c  ****     distance_sensor = (puck_threshold + block_threshold)/2;     // Used to initialise the while loo
 691:navigation.c  ****     
 692:navigation.c  ****     while (distance_sensor > puck_threshold) {
 693:navigation.c  ****     
 694:navigation.c  ****         
 695:navigation.c  ****     
 696:navigation.c  ****     } 
 697:navigation.c  ****     if (distance_sensor < puck_threshold && distance_sensor > block_threshold) {
 698:navigation.c  ****         // The puck sensor tripped the sensor
 699:navigation.c  ****         
 700:navigation.c  ****         
 701:navigation.c  ****         
 702:navigation.c  ****         // Enter while loop to find block: 
 703:navigation.c  ****         while (distance_sensor > block_threshold) {
 704:navigation.c  ****             
 705:navigation.c  ****             
 706:navigation.c  ****             
ARM GAS  C:\Users\bamcg3\AppData\Local\Temp\ccKbUQhh.s 			page 44


 707:navigation.c  ****         }
 708:navigation.c  **** 
 709:navigation.c  ****     }
 710:navigation.c  ****     else if (distance_sensor < block_threshold) {
 711:navigation.c  ****         // The block tripped the sensor 
 712:navigation.c  ****         
 713:navigation.c  ****         
 714:navigation.c  ****         
 715:navigation.c  ****         // Enter while loop to find puck:         
 716:navigation.c  ****         while (distance_sensor > puck_threshold && distance_sensor < block_threshold) {
 717:navigation.c  ****             
 718:navigation.c  ****             
 719:navigation.c  ****         }
 720:navigation.c  ****         
 721:navigation.c  ****     }
 722:navigation.c  ****     
 723:navigation.c  **** 
 724:navigation.c  **** }
 725:navigation.c  **** 
 726:navigation.c  **** void straightAdjustSensor(int sensor){
 1625              		.loc 1 726 0
 1626              		.cfi_startproc
 1627              		@ args = 0, pretend = 0, frame = 0
 1628              		@ frame_needed = 0, uses_anonymous_args = 0
 1629              	.LVL266:
 1630              		.loc 1 726 0
 1631 0000 70B5     		push	{r4, r5, r6, lr}
 1632              		.cfi_def_cfa_offset 16
 1633              		.cfi_offset 4, -16
 1634              		.cfi_offset 5, -12
 1635              		.cfi_offset 6, -8
 1636              		.cfi_offset 14, -4
 1637 0002 0546     		mov	r5, r0
 727:navigation.c  ****     //Start by rotating a definite direction away from the rough center point we have aligned in be
 728:navigation.c  ****     moveSwivel(OVER_ROTATION_ANGLE, SPEED_LOW, FALSE);
 1638              		.loc 1 728 0
 1639 0004 0022     		movs	r2, #0
 1640 0006 4621     		movs	r1, #70
 1641 0008 1420     		movs	r0, #20
 1642              	.LVL267:
 1643 000a FFF7FEFF 		bl	moveSwivel
 1644              	.LVL268:
 729:navigation.c  ****     distanceSensor(sensor);
 1645              		.loc 1 729 0
 1646 000e 2846     		mov	r0, r5
 1647 0010 FFF7FEFF 		bl	distanceSensor
 1648              	.LVL269:
 730:navigation.c  ****     int minimum = ultrasonic_distances_mm[sensor];
 1649              		.loc 1 730 0
 1650 0014 104B     		ldr	r3, .L125
 1651 0016 53F82560 		ldr	r6, [r3, r5, lsl #2]
 1652              	.LVL270:
 731:navigation.c  ****     int above_minimum_count = 0;
 1653              		.loc 1 731 0
 1654 001a 0024     		movs	r4, #0
 1655              	.LVL271:
 1656              	.L122:
ARM GAS  C:\Users\bamcg3\AppData\Local\Temp\ccKbUQhh.s 			page 45


 732:navigation.c  ****     while(1){
 733:navigation.c  ****         distanceSensor(sensor);
 1657              		.loc 1 733 0
 1658 001c 2846     		mov	r0, r5
 1659 001e FFF7FEFF 		bl	distanceSensor
 1660              	.LVL272:
 734:navigation.c  ****         CyDelay(100);
 1661              		.loc 1 734 0
 1662 0022 6420     		movs	r0, #100
 1663 0024 FFF7FEFF 		bl	CyDelay
 1664              	.LVL273:
 735:navigation.c  ****         
 736:navigation.c  ****         if (ultrasonic_distances_mm[sensor] < minimum) { // Update minimum if smaller value is foun
 1665              		.loc 1 736 0
 1666 0028 0B4B     		ldr	r3, .L125
 1667 002a 53F82530 		ldr	r3, [r3, r5, lsl #2]
 1668 002e 9E42     		cmp	r6, r3
 1669 0030 01DC     		bgt	.L123
 737:navigation.c  ****             minimum = ultrasonic_distances_mm[sensor];
 738:navigation.c  ****             above_minimum_count = 0;
 739:navigation.c  ****         } 
 740:navigation.c  ****         else {
 741:navigation.c  ****             above_minimum_count++;   
 1670              		.loc 1 741 0
 1671 0032 0134     		adds	r4, r4, #1
 1672              	.LVL274:
 1673 0034 01E0     		b	.L120
 1674              	.L123:
 737:navigation.c  ****             minimum = ultrasonic_distances_mm[sensor];
 1675              		.loc 1 737 0
 1676 0036 1E46     		mov	r6, r3
 1677              	.LVL275:
 738:navigation.c  ****         } 
 1678              		.loc 1 738 0
 1679 0038 0024     		movs	r4, #0
 1680              	.LVL276:
 1681              	.L120:
 742:navigation.c  ****         }
 743:navigation.c  ****         
 744:navigation.c  ****         if (above_minimum_count == ABOVE_MINIMUM_COUNT_THRESHOLD){
 1682              		.loc 1 744 0
 1683 003a 032C     		cmp	r4, #3
 1684 003c 04D1     		bne	.L121
 745:navigation.c  ****             moveSwivel(ABOVE_MINIMUM_COUNT_THRESHOLD, SPEED_LOW_ROTATE, FALSE);   
 1685              		.loc 1 745 0
 1686 003e 0022     		movs	r2, #0
 1687 0040 1921     		movs	r1, #25
 1688 0042 0320     		movs	r0, #3
 1689 0044 FFF7FEFF 		bl	moveSwivel
 1690              	.LVL277:
 1691              	.L121:
 746:navigation.c  ****         }
 747:navigation.c  **** 
 748:navigation.c  ****         moveSwivel(-1, SPEED_LOW_ROTATE, FALSE);
 1692              		.loc 1 748 0
 1693 0048 0022     		movs	r2, #0
 1694 004a 1921     		movs	r1, #25
ARM GAS  C:\Users\bamcg3\AppData\Local\Temp\ccKbUQhh.s 			page 46


 1695 004c 4FF0FF30 		mov	r0, #-1
 1696 0050 FFF7FEFF 		bl	moveSwivel
 1697              	.LVL278:
 749:navigation.c  ****     }
 1698              		.loc 1 749 0
 1699 0054 E2E7     		b	.L122
 1700              	.L126:
 1701 0056 00BF     		.align	2
 1702              	.L125:
 1703 0058 00000000 		.word	ultrasonic_distances_mm
 1704              		.cfi_endproc
 1705              	.LFE75:
 1706              		.size	straightAdjustSensor, .-straightAdjustSensor
 1707              		.comm	ultrasonic_flag,4,4
 1708              		.comm	initialisation,4,4
 1709              		.comm	output,32,4
 1710              		.comm	turningRightFlag,2,2
 1711              		.comm	turningLeftFlag,2,2
 1712              		.comm	drivingBackwardFlag,2,2
 1713              		.comm	drivingForwardFlag,2,2
 1714              		.comm	puckPileLocation,4,4
 1715              		.comm	block_edge_location,16,4
 1716              		.comm	sweeping,4,4
 1717              		.comm	puckRackOffsetsFromWest,20,4
 1718              		.comm	puckRackColours,20,4
 1719              		.comm	currentPuckRackScanningIndex,4,4
 1720              		.comm	driveStraightEnable,4,4
 1721              		.comm	internal_orientation,4,4
 1722              		.section	.rodata.str1.4,"aMS",%progbits,1
 1723              		.align	2
 1724              	.LC0:
 1725 0000 25692009 		.ascii	"%i \011\000"
 1725      00
 1726 0005 000000   		.space	3
 1727              	.LC1:
 1728 0008 25642009 		.ascii	"%d \011\000"
 1728      00
 1729 000d 000000   		.space	3
 1730              	.LC2:
 1731 0010 656E7465 		.ascii	"entering greater than\012\000"
 1731      72696E67 
 1731      20677265 
 1731      61746572 
 1731      20746861 
 1732 0027 00       		.space	1
 1733              	.LC3:
 1734 0028 656E7465 		.ascii	"entering less than\012\000"
 1734      72696E67 
 1734      206C6573 
 1734      73207468 
 1734      616E0A00 
 1735              	.LC4:
 1736 003c 65786974 		.ascii	"exited loop\000"
 1736      6564206C 
 1736      6F6F7000 
 1737              	.LC5:
 1738 0048 53414645 		.ascii	"SAFETY MARGIN ACTIVATED @ %d\012\000"
ARM GAS  C:\Users\bamcg3\AppData\Local\Temp\ccKbUQhh.s 			page 47


 1738      5459204D 
 1738      41524749 
 1738      4E204143 
 1738      54495641 
 1739 0066 0000     		.space	2
 1740              	.LC6:
 1741 0068 0A206669 		.ascii	"\012 fin: %d \012\000"
 1741      6E3A2025 
 1741      64200A00 
 1742              	.LC7:
 1743 0074 64696666 		.ascii	"difference = %d, \012\000"
 1743      6572656E 
 1743      6365203D 
 1743      2025642C 
 1743      200A00
 1744 0087 00       		.space	1
 1745              	.LC8:
 1746 0088 25642C20 		.ascii	"%d, %d, \000"
 1746      25642C20 
 1746      00
 1747 0091 000000   		.space	3
 1748              	.LC9:
 1749 0094 6469663A 		.ascii	"dif: %d, \012\000"
 1749      2025642C 
 1749      200A00
 1750              		.text
 1751              	.Letext0:
 1752              		.file 2 "c:\\program files (x86)\\cypress\\psoc creator\\4.2\\psoc creator\\import\\gnu\\arm\\5.4.
 1753              		.file 3 "c:\\program files (x86)\\cypress\\psoc creator\\4.2\\psoc creator\\import\\gnu\\arm\\5.4.
 1754              		.file 4 "Generated_Source\\PSoC5/core_cm3.h"
 1755              		.file 5 "navigation.h"
 1756              		.file 6 "ultrasonic.h"
 1757              		.file 7 "main.h"
 1758              		.file 8 "servo.h"
 1759              		.file 9 "colour.h"
 1760              		.file 10 "Generated_Source\\PSoC5/Motor_Left_Control.h"
 1761              		.file 11 "Generated_Source\\PSoC5/Motor_Right_Control.h"
 1762              		.file 12 "Generated_Source\\PSoC5/Motor_Left_Driver.h"
 1763              		.file 13 "Generated_Source\\PSoC5/Motor_Right_Driver.h"
 1764              		.file 14 "Generated_Source\\PSoC5/control_photodiode.h"
 1765              		.file 15 "Generated_Source\\PSoC5/CyLib.h"
 1766              		.file 16 "c:\\program files (x86)\\cypress\\psoc creator\\4.2\\psoc creator\\import\\gnu\\arm\\5.4
 1767              		.file 17 "Generated_Source\\PSoC5/UART_1.h"
 1768              		.file 18 "Generated_Source\\PSoC5/Motor_Left_Decoder.h"
 1769              		.file 19 "Generated_Source\\PSoC5/Motor_Right_Decoder.h"
 1770              		.file 20 "motor.h"