ARM GAS  C:\Users\Misha\AppData\Local\Temp\ccbcIC6d.s 			page 1


   1              		.syntax unified
   2              		.cpu cortex-m3
   3              		.fpu softvfp
   4              		.eabi_attribute 20, 1
   5              		.eabi_attribute 21, 1
   6              		.eabi_attribute 23, 3
   7              		.eabi_attribute 24, 1
   8              		.eabi_attribute 25, 1
   9              		.eabi_attribute 26, 1
  10              		.eabi_attribute 30, 1
  11              		.eabi_attribute 34, 1
  12              		.eabi_attribute 18, 4
  13              		.thumb
  14              		.syntax unified
  15              		.file	"navigation.c"
  16              		.text
  17              	.Ltext0:
  18              		.cfi_sections	.debug_frame
  19              		.section	.text.armMoving,"ax",%progbits
  20              		.align	2
  21              		.global	armMoving
  22              		.thumb
  23              		.thumb_func
  24              		.type	armMoving, %function
  25              	armMoving:
  26              	.LFB64:
  27              		.file 1 "navigation.c"
   1:navigation.c  **** 
   2:navigation.c  **** /* ========================================
   3:navigation.c  ****  *
   4:navigation.c  ****  * Copyright Group 17, 2019
   5:navigation.c  ****  * All Rights Reserved
   6:navigation.c  ****  * UNPUBLISHED, LICENSED SOFTWARE.
   7:navigation.c  ****  *
   8:navigation.c  ****  * CONFIDENTIAL AND PROPRIETARY INFORMATION
   9:navigation.c  ****  * WHICH IS THE PROPERTY OF Blayke, Misha, Nidhin.
  10:navigation.c  ****  *
  11:navigation.c  ****  * ========================================
  12:navigation.c  **** */
  13:navigation.c  **** 
  14:navigation.c  **** // * PSOC LIBRARY * //
  15:navigation.c  **** #include "project.h"
  16:navigation.c  **** 
  17:navigation.c  **** // * C LIBRARIES * // 
  18:navigation.c  **** #include <stdlib.h>
  19:navigation.c  **** #include <stdio.h>
  20:navigation.c  **** #include <math.h>
  21:navigation.c  **** 
  22:navigation.c  **** // * OUR LIBRARIES * //
  23:navigation.c  **** #include "main.h"
  24:navigation.c  **** #include "colour.h"
  25:navigation.c  **** #include "ultrasonic.h" 
  26:navigation.c  **** #include "servo.h"
  27:navigation.c  **** #include "motor.h"
  28:navigation.c  **** #include "customMath.h"
  29:navigation.c  **** #include "navigation.h"
  30:navigation.c  **** #include "debugging.h"
ARM GAS  C:\Users\Misha\AppData\Local\Temp\ccbcIC6d.s 			page 2


  31:navigation.c  **** 
  32:navigation.c  **** void armMoving(void){
  28              		.loc 1 32 0
  29              		.cfi_startproc
  30              		@ args = 0, pretend = 0, frame = 0
  31              		@ frame_needed = 0, uses_anonymous_args = 0
  32 0000 38B5     		push	{r3, r4, r5, lr}
  33              		.cfi_def_cfa_offset 16
  34              		.cfi_offset 3, -16
  35              		.cfi_offset 4, -12
  36              		.cfi_offset 5, -8
  37              		.cfi_offset 14, -4
  38              	.LVL0:
  33:navigation.c  ****     
  34:navigation.c  ****     int puck_correct = FALSE;   // A flag to determine if the correct puck has been picked up
  35:navigation.c  ****     int puck_scan;
  36:navigation.c  ****     
  37:navigation.c  ****     puck_construction_plan[1] = RED;  // this was a test
  39              		.loc 1 37 0
  40 0002 0122     		movs	r2, #1
  41 0004 0E4B     		ldr	r3, .L7
  42 0006 5A60     		str	r2, [r3, #4]
  38:navigation.c  ****     
  39:navigation.c  ****     // States
  40:navigation.c  ****     // moving
  41:navigation.c  ****     changeHeightToPuck(3, NEITHER);  // Arm has to be lifted to highest position
  43              		.loc 1 41 0
  44 0008 0221     		movs	r1, #2
  45 000a 0320     		movs	r0, #3
  46 000c FFF7FEFF 		bl	changeHeightToPuck
  47              	.LVL1:
  34:navigation.c  ****     int puck_scan;
  48              		.loc 1 34 0
  49 0010 0025     		movs	r5, #0
  42:navigation.c  ****         // THIS WILL be ensured by always returning the claw to the highest position after completi
  43:navigation.c  ****         
  44:navigation.c  ****     // Scanning puck:
  45:navigation.c  ****     while (puck_correct == FALSE) 
  50              		.loc 1 45 0
  51 0012 12E0     		b	.L2
  52              	.LVL2:
  53              	.L4:
  46:navigation.c  ****     {
  47:navigation.c  ****                                 // robot moves forward towards puck
  48:navigation.c  ****         changeHeightToPuck(1, NEITHER);  // arm lowers onto robot
  54              		.loc 1 48 0
  55 0014 0221     		movs	r1, #2
  56 0016 0120     		movs	r0, #1
  57 0018 FFF7FEFF 		bl	changeHeightToPuck
  58              	.LVL3:
  49:navigation.c  ****         puck_scan = colourSensingOutput();  // colour sensor takes a scan
  59              		.loc 1 49 0
  60 001c FFF7FEFF 		bl	colourSensingOutput
  61              	.LVL4:
  62 0020 0446     		mov	r4, r0
  63              	.LVL5:
  50:navigation.c  ****         changeHeightToPuck(3, NEITHER);  // arm returns to high position
ARM GAS  C:\Users\Misha\AppData\Local\Temp\ccbcIC6d.s 			page 3


  64              		.loc 1 50 0
  65 0022 0221     		movs	r1, #2
  66 0024 0320     		movs	r0, #3
  67              	.LVL6:
  68 0026 FFF7FEFF 		bl	changeHeightToPuck
  69              	.LVL7:
  51:navigation.c  ****                                 // robot moves backwards
  52:navigation.c  ****         if (puck_scan == puck_construction_plan[current_stage]) {puck_correct = TRUE;}
  70              		.loc 1 52 0
  71 002a 064B     		ldr	r3, .L7+4
  72 002c 1A68     		ldr	r2, [r3]
  73 002e 044B     		ldr	r3, .L7
  74 0030 53F82230 		ldr	r3, [r3, r2, lsl #2]
  75 0034 9C42     		cmp	r4, r3
  76 0036 00D1     		bne	.L2
  77 0038 0125     		movs	r5, #1
  78              	.LVL8:
  79              	.L2:
  45:navigation.c  ****     {
  80              		.loc 1 45 0
  81 003a 002D     		cmp	r5, #0
  82 003c EAD0     		beq	.L4
  53:navigation.c  ****                                 // if colour == true:
  54:navigation.c  ****                                     // enter picking up puck from 
  55:navigation.c  ****         else 
  56:navigation.c  ****         {
  57:navigation.c  ****                                 // if colour == false
  58:navigation.c  ****                                     // robot translates to side to see next puck, and performs scan
  59:navigation.c  ****         }
  60:navigation.c  ****     }
  61:navigation.c  ****     
  62:navigation.c  **** }
  83              		.loc 1 62 0
  84 003e 38BD     		pop	{r3, r4, r5, pc}
  85              	.LVL9:
  86              	.L8:
  87              		.align	2
  88              	.L7:
  89 0040 00000000 		.word	puck_construction_plan
  90 0044 00000000 		.word	current_stage
  91              		.cfi_endproc
  92              	.LFE64:
  93              		.size	armMoving, .-armMoving
  94              		.section	.text.moveUntilPuck,"ax",%progbits
  95              		.align	2
  96              		.global	moveUntilPuck
  97              		.thumb
  98              		.thumb_func
  99              		.type	moveUntilPuck, %function
 100              	moveUntilPuck:
 101              	.LFB66:
  63:navigation.c  **** 
  64:navigation.c  **** void checkHoldingPuck(void) {
  65:navigation.c  ****     // This function will check if we are holding a puck after having attempted to pick up a puck,
  66:navigation.c  ****     // if we are not holding a puck, it will translate to the left or right, and then attempt to pi
  67:navigation.c  ****     // the puck again 
  68:navigation.c  ****     int colour_check = colourSensingOutput();
ARM GAS  C:\Users\Misha\AppData\Local\Temp\ccbcIC6d.s 			page 4


  69:navigation.c  ****     
  70:navigation.c  ****     if (colour_check == BLANK) {
  71:navigation.c  ****         // Reattempt to pick up the puck
  72:navigation.c  ****         //straightAdjustSensor(FRONT_MIDDLE);
  73:navigation.c  ****         moveUntilPuck(CLAW_GROUND_ALGORITHM);       // This may be the wrong algorithm, 
  74:navigation.c  ****                                                     // as the claw is fairly above the ground now
  75:navigation.c  ****     }
  76:navigation.c  ****     else {
  77:navigation.c  ****         // still have a puck, can continue as normal
  78:navigation.c  ****         return;
  79:navigation.c  ****     }
  80:navigation.c  ****     
  81:navigation.c  **** }
  82:navigation.c  **** 
  83:navigation.c  **** 
  84:navigation.c  **** void moveUntilPuck(int algorithm) {
 102              		.loc 1 84 0
 103              		.cfi_startproc
 104              		@ args = 0, pretend = 0, frame = 0
 105              		@ frame_needed = 0, uses_anonymous_args = 0
 106              	.LVL10:
 107 0000 2DE9F843 		push	{r3, r4, r5, r6, r7, r8, r9, lr}
 108              		.cfi_def_cfa_offset 32
 109              		.cfi_offset 3, -32
 110              		.cfi_offset 4, -28
 111              		.cfi_offset 5, -24
 112              		.cfi_offset 6, -20
 113              		.cfi_offset 7, -16
 114              		.cfi_offset 8, -12
 115              		.cfi_offset 9, -8
 116              		.cfi_offset 14, -4
 117 0004 0446     		mov	r4, r0
 118              	.LVL11:
  85:navigation.c  ****       
  86:navigation.c  ****     int puck_detect = 0;
  87:navigation.c  ****     
  88:navigation.c  ****     int speed = 70;
  89:navigation.c  ****     
  90:navigation.c  ****     int count_right;
  91:navigation.c  ****     int count_left;
  92:navigation.c  ****     int speed_left = speed;
  93:navigation.c  ****     int speed_right = speed;
  94:navigation.c  ****     
  95:navigation.c  ****     Motor_Left_Control_Write(0);        // move FORWARD
 119              		.loc 1 95 0
 120 0006 0020     		movs	r0, #0
 121              	.LVL12:
 122 0008 FFF7FEFF 		bl	Motor_Left_Control_Write
 123              	.LVL13:
  96:navigation.c  ****     Motor_Right_Control_Write(0);
 124              		.loc 1 96 0
 125 000c 0020     		movs	r0, #0
 126 000e FFF7FEFF 		bl	Motor_Right_Control_Write
 127              	.LVL14:
  97:navigation.c  ****     
  98:navigation.c  ****     Motor_Left_Driver_Wakeup();
 128              		.loc 1 98 0
ARM GAS  C:\Users\Misha\AppData\Local\Temp\ccbcIC6d.s 			page 5


 129 0012 FFF7FEFF 		bl	Motor_Left_Driver_Wakeup
 130              	.LVL15:
  99:navigation.c  ****     Motor_Left_Driver_WriteCompare(speed_left);
 131              		.loc 1 99 0
 132 0016 4620     		movs	r0, #70
 133 0018 FFF7FEFF 		bl	Motor_Left_Driver_WriteCompare
 134              	.LVL16:
 100:navigation.c  ****     Motor_Right_Driver_Wakeup();
 135              		.loc 1 100 0
 136 001c FFF7FEFF 		bl	Motor_Right_Driver_Wakeup
 137              	.LVL17:
 101:navigation.c  ****     Motor_Right_Driver_WriteCompare(speed_right);
 138              		.loc 1 101 0
 139 0020 4620     		movs	r0, #70
 140 0022 FFF7FEFF 		bl	Motor_Right_Driver_WriteCompare
 141              	.LVL18:
 102:navigation.c  ****     
 103:navigation.c  ****     armOpen();                                  // ensures the arm is open
 142              		.loc 1 103 0
 143 0026 FFF7FEFF 		bl	armOpen
 144              	.LVL19:
 104:navigation.c  ****     control_photodiode_Write(CLAW_SENSING);     //ENSURES that it is the claw that is sensing
 145              		.loc 1 104 0
 146 002a 0120     		movs	r0, #1
 147 002c FFF7FEFF 		bl	control_photodiode_Write
 148              	.LVL20:
 105:navigation.c  ****     colour_sensing_algorithm = algorithm;       
 149              		.loc 1 105 0
 150 0030 244B     		ldr	r3, .L17
 151 0032 1C60     		str	r4, [r3]
  93:navigation.c  ****     
 152              		.loc 1 93 0
 153 0034 4FF04608 		mov	r8, #70
  92:navigation.c  ****     int speed_right = speed;
 154              		.loc 1 92 0
 155 0038 C146     		mov	r9, r8
  86:navigation.c  ****     
 156              		.loc 1 86 0
 157 003a 0026     		movs	r6, #0
 106:navigation.c  ****     
 107:navigation.c  ****     while (puck_detect == 0) 
 158              		.loc 1 107 0
 159 003c 2EE0     		b	.L10
 160              	.LVL21:
 161              	.L13:
 108:navigation.c  ****     {
 109:navigation.c  ****         count_right = Motor_Right_Decoder_GetCounter();        
 162              		.loc 1 109 0
 163 003e FFF7FEFF 		bl	Motor_Right_Decoder_GetCounter
 164              	.LVL22:
 165 0042 0446     		mov	r4, r0
 166              	.LVL23:
 110:navigation.c  ****         count_left = Motor_Left_Decoder_GetCounter();
 167              		.loc 1 110 0
 168 0044 FFF7FEFF 		bl	Motor_Left_Decoder_GetCounter
 169              	.LVL24:
 170 0048 0546     		mov	r5, r0
ARM GAS  C:\Users\Misha\AppData\Local\Temp\ccbcIC6d.s 			page 6


 171              	.LVL25:
 111:navigation.c  ****         puck_detect = colourSensingOutput();
 172              		.loc 1 111 0
 173 004a FFF7FEFF 		bl	colourSensingOutput
 174              	.LVL26:
 175 004e 0646     		mov	r6, r0
 176              	.LVL27:
 112:navigation.c  ****         CyDelay(10);
 177              		.loc 1 112 0
 178 0050 0A20     		movs	r0, #10
 179              	.LVL28:
 180 0052 FFF7FEFF 		bl	CyDelay
 181              	.LVL29:
 113:navigation.c  ****         sprintf(output, "%i \t", puck_detect);       
 182              		.loc 1 113 0
 183 0056 1C4F     		ldr	r7, .L17+4
 184 0058 3246     		mov	r2, r6
 185 005a 1C49     		ldr	r1, .L17+8
 186 005c 3846     		mov	r0, r7
 187 005e FFF7FEFF 		bl	sprintf
 188              	.LVL30:
 114:navigation.c  ****         UART_1_PutString(output);
 189              		.loc 1 114 0
 190 0062 3846     		mov	r0, r7
 191 0064 FFF7FEFF 		bl	UART_1_PutString
 192              	.LVL31:
 115:navigation.c  ****         
 116:navigation.c  ****         // DRIFT CORRECTION: 
 117:navigation.c  ****         
 118:navigation.c  ****         if (abs(count_left) > abs(count_right)) {
 193              		.loc 1 118 0
 194 0068 85EAE570 		eor	r0, r5, r5, asr #31
 195 006c A0EBE570 		sub	r0, r0, r5, asr #31
 196 0070 84EAE473 		eor	r3, r4, r4, asr #31
 197 0074 A3EBE473 		sub	r3, r3, r4, asr #31
 198 0078 9842     		cmp	r0, r3
 199 007a 03DD     		ble	.L11
 119:navigation.c  ****             speed_left = speed - ADJUST;
 120:navigation.c  ****             speed_right = speed + ADJUST;
 200              		.loc 1 120 0
 201 007c 4FF04A08 		mov	r8, #74
 202              	.LVL32:
 119:navigation.c  ****             speed_left = speed - ADJUST;
 203              		.loc 1 119 0
 204 0080 4FF04209 		mov	r9, #66
 205              	.LVL33:
 206              	.L11:
 121:navigation.c  ****         }
 122:navigation.c  ****         if (abs(count_right) > abs(count_left)) {
 207              		.loc 1 122 0
 208 0084 9842     		cmp	r0, r3
 209 0086 03DA     		bge	.L12
 123:navigation.c  ****             speed_right = speed - ADJUST;             
 210              		.loc 1 123 0
 211 0088 4FF04208 		mov	r8, #66
 212              	.LVL34:
 124:navigation.c  ****             speed_left = speed + ADJUST;
ARM GAS  C:\Users\Misha\AppData\Local\Temp\ccbcIC6d.s 			page 7


 213              		.loc 1 124 0
 214 008c 4FF04A09 		mov	r9, #74
 215              	.LVL35:
 216              	.L12:
 125:navigation.c  ****         } 
 126:navigation.c  ****         Motor_Left_Driver_WriteCompare(speed_left);
 217              		.loc 1 126 0
 218 0090 4846     		mov	r0, r9
 219 0092 FFF7FEFF 		bl	Motor_Left_Driver_WriteCompare
 220              	.LVL36:
 127:navigation.c  ****         Motor_Right_Driver_WriteCompare(speed_right);        
 221              		.loc 1 127 0
 222 0096 4046     		mov	r0, r8
 223 0098 FFF7FEFF 		bl	Motor_Right_Driver_WriteCompare
 224              	.LVL37:
 225              	.L10:
 107:navigation.c  ****     {
 226              		.loc 1 107 0
 227 009c 002E     		cmp	r6, #0
 228 009e CED0     		beq	.L13
 128:navigation.c  ****     }
 129:navigation.c  ****     
 130:navigation.c  ****     
 131:navigation.c  ****     
 132:navigation.c  ****     Motor_Left_Decoder_SetCounter(0);
 229              		.loc 1 132 0
 230 00a0 0020     		movs	r0, #0
 231 00a2 FFF7FEFF 		bl	Motor_Left_Decoder_SetCounter
 232              	.LVL38:
 133:navigation.c  ****     Motor_Right_Decoder_SetCounter(0);
 233              		.loc 1 133 0
 234 00a6 0020     		movs	r0, #0
 235 00a8 FFF7FEFF 		bl	Motor_Right_Decoder_SetCounter
 236              	.LVL39:
 134:navigation.c  ****     
 135:navigation.c  ****     Motor_Left_Driver_Sleep();
 237              		.loc 1 135 0
 238 00ac FFF7FEFF 		bl	Motor_Left_Driver_Sleep
 239              	.LVL40:
 136:navigation.c  ****     Motor_Right_Driver_Sleep();
 240              		.loc 1 136 0
 241 00b0 FFF7FEFF 		bl	Motor_Right_Driver_Sleep
 242              	.LVL41:
 137:navigation.c  ****     
 138:navigation.c  ****     moveDynamic(37, 100, FALSE);
 243              		.loc 1 138 0
 244 00b4 0022     		movs	r2, #0
 245 00b6 6421     		movs	r1, #100
 246 00b8 2520     		movs	r0, #37
 247 00ba FFF7FEFF 		bl	moveDynamic
 248              	.LVL42:
 249 00be BDE8F883 		pop	{r3, r4, r5, r6, r7, r8, r9, pc}
 250              	.LVL43:
 251              	.L18:
 252 00c2 00BF     		.align	2
 253              	.L17:
 254 00c4 00000000 		.word	colour_sensing_algorithm
ARM GAS  C:\Users\Misha\AppData\Local\Temp\ccbcIC6d.s 			page 8


 255 00c8 00000000 		.word	output
 256 00cc 00000000 		.word	.LC0
 257              		.cfi_endproc
 258              	.LFE66:
 259              		.size	moveUntilPuck, .-moveUntilPuck
 260              		.section	.text.checkHoldingPuck,"ax",%progbits
 261              		.align	2
 262              		.global	checkHoldingPuck
 263              		.thumb
 264              		.thumb_func
 265              		.type	checkHoldingPuck, %function
 266              	checkHoldingPuck:
 267              	.LFB65:
  64:navigation.c  ****     // This function will check if we are holding a puck after having attempted to pick up a puck,
 268              		.loc 1 64 0
 269              		.cfi_startproc
 270              		@ args = 0, pretend = 0, frame = 0
 271              		@ frame_needed = 0, uses_anonymous_args = 0
 272 0000 08B5     		push	{r3, lr}
 273              		.cfi_def_cfa_offset 8
 274              		.cfi_offset 3, -8
 275              		.cfi_offset 14, -4
  68:navigation.c  ****     
 276              		.loc 1 68 0
 277 0002 FFF7FEFF 		bl	colourSensingOutput
 278              	.LVL44:
  70:navigation.c  ****         // Reattempt to pick up the puck
 279              		.loc 1 70 0
 280 0006 10B9     		cbnz	r0, .L19
  73:navigation.c  ****                                                     // as the claw is fairly above the ground now
 281              		.loc 1 73 0
 282 0008 0520     		movs	r0, #5
 283              	.LVL45:
 284 000a FFF7FEFF 		bl	moveUntilPuck
 285              	.LVL46:
 286              	.L19:
 287 000e 08BD     		pop	{r3, pc}
 288              		.cfi_endproc
 289              	.LFE65:
 290              		.size	checkHoldingPuck, .-checkHoldingPuck
 291              		.section	.text.changeOrientation,"ax",%progbits
 292              		.align	2
 293              		.global	changeOrientation
 294              		.thumb
 295              		.thumb_func
 296              		.type	changeOrientation, %function
 297              	changeOrientation:
 298              	.LFB68:
 139:navigation.c  **** }
 140:navigation.c  **** 
 141:navigation.c  **** void moveUntil(int distance_set, int direction, int less_or_great, int ultrasonic_sensor, int speed
 142:navigation.c  ****     // This function will move until given a set distance (in mm)
 143:navigation.c  ****     // Can indicate the direction (FORWARD or BACKWARD)
 144:navigation.c  ****     // whether you want it to move until it is greater or less than the set distance
 145:navigation.c  ****     // which ultrasonic_sensor you want to use
 146:navigation.c  ****     // the speed you want to move
 147:navigation.c  ****     // can activate_safety (TRUE or FALSE) so that it will always stop before it hits a wall (movin
ARM GAS  C:\Users\Misha\AppData\Local\Temp\ccbcIC6d.s 			page 9


 148:navigation.c  ****     
 149:navigation.c  ****     // safetyDistanceCheck();        // CALL this if you want to recalibrate
 150:navigation.c  ****     
 151:navigation.c  ****     int count_left;                 // counts the encoder values
 152:navigation.c  ****     int count_right;
 153:navigation.c  ****     int speed_left = speed;         // the set speed of the motors
 154:navigation.c  ****     int speed_right = speed;
 155:navigation.c  ****     int front_sensor_flag = FALSE;
 156:navigation.c  ****                                   // the ultrasonic sensor we will be using 
 157:navigation.c  ****     int distance_sensor;            // the measured distance of the sensor
 158:navigation.c  ****     
 159:navigation.c  ****     int old_count = -(SAFETY_MARGIN)*ENCODER_MULTIPLIER*0.75 - 1000;  // used in the old failsafe t
 160:navigation.c  ****                                                         // will enter the failsafe check straight a
 161:navigation.c  ****     int emergency_exit = FALSE;
 162:navigation.c  ****     
 163:navigation.c  ****     // Check if we are closer to or further away from the side wall: 
 164:navigation.c  ****     /*
 165:navigation.c  ****         int side_prox_sensor;
 166:navigation.c  ****         int initial_side_distance;
 167:navigation.c  ****         distanceSensor(SIDE_LEFT);
 168:navigation.c  ****         CyDelay(50);
 169:navigation.c  ****         distanceSensor(SIDE_RIGHT);
 170:navigation.c  ****         CyDelay(50);
 171:navigation.c  ****         if (sensor_distances[SIDE_LEFT] > sensor_distances[SIDE_RIGHT]) {
 172:navigation.c  ****             side_prox_sensor = SIDE_RIGHT; 
 173:navigation.c  ****             initial_side_distance = sensor_distances[SIDE_RIGHT];
 174:navigation.c  ****         }
 175:navigation.c  ****         else { side_prox_sensor = SIDE_LEFT; initial_side_distance = sensor_distances[SIDE_LEFT]; }
 176:navigation.c  ****     */
 177:navigation.c  ****     // Setting the direction 
 178:navigation.c  ****     if (direction == FORWARD) { 
 179:navigation.c  ****         Motor_Left_Control_Write(0); 
 180:navigation.c  ****         Motor_Right_Control_Write(0); 
 181:navigation.c  ****     }
 182:navigation.c  ****     if (direction == BACKWARD) {
 183:navigation.c  ****         Motor_Left_Control_Write(1); 
 184:navigation.c  ****         Motor_Right_Control_Write(1);
 185:navigation.c  ****     }
 186:navigation.c  ****     
 187:navigation.c  ****     
 188:navigation.c  ****     //if (ultrasonic_sensor == FRONT_SENSORS) {ultrasonic_sensor = FRONT_LEFT; front_sensor_flag = 
 189:navigation.c  ****     
 190:navigation.c  ****     // This ensures that the initial sensing value is good 
 191:navigation.c  ****     sensor_distances[ultrasonic_sensor] = ARENA_WIDTH + 100;             // Enters the while loop
 192:navigation.c  ****     while (sensor_distances[ultrasonic_sensor] > ARENA_WIDTH) {          // protects against dodgy 
 193:navigation.c  ****         distanceSensor(ultrasonic_sensor);
 194:navigation.c  ****         CyDelay(50);
 195:navigation.c  ****         distance_sensor = sensor_distances[ultrasonic_sensor];   // checks the distance measured by
 196:navigation.c  ****         sprintf(output, "%d \t", distance_sensor);       
 197:navigation.c  ****         UART_1_PutString(output);
 198:navigation.c  ****     }
 199:navigation.c  ****     
 200:navigation.c  ****     //if (front_sensor_flag == TRUE) {ultrasonic_sensor = FRONT_SENSORS; front_sensor_flag = FALSE;
 201:navigation.c  ****     
 202:navigation.c  ****     Motor_Left_Driver_Wakeup();
 203:navigation.c  ****     Motor_Left_Driver_WriteCompare(speed_left);
 204:navigation.c  ****     Motor_Right_Driver_Wakeup();
ARM GAS  C:\Users\Misha\AppData\Local\Temp\ccbcIC6d.s 			page 10


 205:navigation.c  ****     Motor_Right_Driver_WriteCompare(speed_right);
 206:navigation.c  ****     
 207:navigation.c  ****     if (less_or_great == GREATER_THAN) {                                         // if distance_set
 208:navigation.c  ****         //UART_1_PutString("\n GREATER THAN LOOP: \n");
 209:navigation.c  ****         while (distance_sensor < abs(distance_set) && emergency_exit == FALSE) {               // T
 210:navigation.c  ****             
 211:navigation.c  ****             count_left = Motor_Left_Decoder_GetCounter();
 212:navigation.c  ****             count_right = Motor_Right_Decoder_GetCounter();
 213:navigation.c  ****             
 214:navigation.c  ****             // DRIFT CORRECTION:
 215:navigation.c  ****             if (abs(count_left) > abs(count_right)) {
 216:navigation.c  ****                 speed_left = speed - ADJUST;
 217:navigation.c  ****                 speed_right = speed + ADJUST;
 218:navigation.c  ****             }        
 219:navigation.c  ****             if (abs(count_right) > abs(count_left)) {
 220:navigation.c  ****                 speed_right = speed - ADJUST;              
 221:navigation.c  ****                 speed_left = speed + ADJUST;
 222:navigation.c  ****             }
 223:navigation.c  ****             // end of drift correction 
 224:navigation.c  ****             
 225:navigation.c  ****             Motor_Left_Driver_WriteCompare(speed_left);         // updates the driver speed
 226:navigation.c  ****             Motor_Right_Driver_WriteCompare(speed_right);
 227:navigation.c  ****             
 228:navigation.c  ****             // When you want to do both front sensors: 
 229:navigation.c  ****             if (ultrasonic_sensor == FRONT_SENSORS && front_sensor_flag == TRUE) {
 230:navigation.c  ****                 distanceSensor(FRONT_LEFT);
 231:navigation.c  ****                 CyDelay(50);
 232:navigation.c  ****                 distance_sensor = sensor_distances[ultrasonic_sensor];   // checks the distance mea
 233:navigation.c  ****                 front_sensor_flag = FALSE;
 234:navigation.c  ****             }
 235:navigation.c  ****             else if (ultrasonic_sensor == FRONT_SENSORS && front_sensor_flag == FALSE) {
 236:navigation.c  ****                 distanceSensor(FRONT_RIGHT);
 237:navigation.c  ****                 CyDelay(50);
 238:navigation.c  ****                 distance_sensor = sensor_distances[ultrasonic_sensor];   // checks the distance mea
 239:navigation.c  ****                 front_sensor_flag = TRUE;
 240:navigation.c  ****             }
 241:navigation.c  ****             else {
 242:navigation.c  ****                 distanceSensor(ultrasonic_sensor);
 243:navigation.c  ****                 CyDelay(50);
 244:navigation.c  ****                 distance_sensor = sensor_distances[ultrasonic_sensor];   // checks the distance mea
 245:navigation.c  ****                 sprintf(output, "%d \t", distance_sensor);       
 246:navigation.c  ****                 UART_1_PutString(output);
 247:navigation.c  ****             }
 248:navigation.c  ****             
 249:navigation.c  ****             // FAILSAFES:
 250:navigation.c  ****                 // the failsafes will alternate between each other if failsafe is activated
 251:navigation.c  ****                 // they should both run within one safety margin
 252:navigation.c  ****                 // if you want to get rid of one of the failsafes, you will need to double the safe
 253:navigation.c  ****             int failsafe_alternator = TRUE;
 254:navigation.c  ****             
 255:navigation.c  ****             // FAILSAFE forward & backward
 256:navigation.c  ****             if (abs(count_left) > (old_count + (SAFETY_MARGIN)*ENCODER_MULTIPLIER*0.75 - 100) 
 257:navigation.c  ****                                         && failsafe_alternator == TRUE 
 258:navigation.c  ****                                         && activate_safety == TRUE){
 259:navigation.c  ****                 emergency_exit = failsafe(direction);
 260:navigation.c  ****                 old_count = count_left;
 261:navigation.c  ****                 //failsafe_alternator = FALSE;
ARM GAS  C:\Users\Misha\AppData\Local\Temp\ccbcIC6d.s 			page 11


 262:navigation.c  ****             }
 263:navigation.c  ****                         
 264:navigation.c  ****             //  side sensors sensors
 265:navigation.c  ****             /*
 266:navigation.c  ****             if (abs(count_left) > (old_count + (SAFETY_MARGIN/2)*ENCODER_MULTIPLIER - 100)
 267:navigation.c  ****                                         && failsafe_alternator == FALSE 
 268:navigation.c  ****                                         && activate_safety == TRUE){
 269:navigation.c  ****                 failsafeSideSensors(side_prox_sensor, initial_side_distance);
 270:navigation.c  ****                 old_count = count_left;
 271:navigation.c  ****                 failsafe_alternator = TRUE;
 272:navigation.c  ****             }
 273:navigation.c  ****             */                            
 274:navigation.c  ****         } 
 275:navigation.c  ****     }
 276:navigation.c  ****     
 277:navigation.c  ****     if (less_or_great == LESS_THAN) {                                         // if distance_set is
 278:navigation.c  ****         //UART_1_PutString("\n LESS THAN LOOP: \n");
 279:navigation.c  ****         while (distance_sensor > abs(distance_set) && emergency_exit == FALSE){                    
 280:navigation.c  ****             
 281:navigation.c  ****             count_left = Motor_Left_Decoder_GetCounter();
 282:navigation.c  ****             count_right = Motor_Right_Decoder_GetCounter();
 283:navigation.c  ****             
 284:navigation.c  ****             // DRIFT CORRECTION:
 285:navigation.c  ****             if (abs(count_left) > abs(count_right)) {
 286:navigation.c  ****                 speed_left = speed - ADJUST;
 287:navigation.c  ****                 speed_right = speed + ADJUST;
 288:navigation.c  ****             }        
 289:navigation.c  ****             if (abs(count_right) > abs(count_left)) {
 290:navigation.c  ****                     speed_right = speed - ADJUST;              // If the speeds are equal, we decre
 291:navigation.c  ****                                                         // adjust tolerance 
 292:navigation.c  ****                     speed_left = speed + ADJUST;
 293:navigation.c  ****             }
 294:navigation.c  ****             // end of drift correction 
 295:navigation.c  ****             
 296:navigation.c  ****             Motor_Left_Driver_WriteCompare(speed_left);         // updates the driver speed
 297:navigation.c  ****             Motor_Right_Driver_WriteCompare(speed_right);
 298:navigation.c  ****             
 299:navigation.c  ****             distanceSensor(ultrasonic_sensor);
 300:navigation.c  ****             CyDelay(50);
 301:navigation.c  ****             distance_sensor = sensor_distances[ultrasonic_sensor];   // checks the distance measure
 302:navigation.c  ****             sprintf(output, "%d \t", distance_sensor);       
 303:navigation.c  ****             UART_1_PutString(output);
 304:navigation.c  ****             
 305:navigation.c  ****             // FAILSAFES:
 306:navigation.c  ****                 // the failsafes will alternate between each other if failsafe is activated
 307:navigation.c  ****                 // they should both run within one safety margin
 308:navigation.c  ****                 // if you want to get rid of one of the failsafes, you will need to double the safe
 309:navigation.c  ****             int failsafe_alternator = TRUE;
 310:navigation.c  ****             
 311:navigation.c  ****             // FAILSAFE forward & backward
 312:navigation.c  ****             if (abs(count_left) > (old_count + (SAFETY_MARGIN/2)*ENCODER_MULTIPLIER - 100) 
 313:navigation.c  ****                                         && failsafe_alternator == TRUE 
 314:navigation.c  ****                                         && activate_safety == TRUE){
 315:navigation.c  ****                 emergency_exit = failsafe(direction);
 316:navigation.c  ****                 old_count = count_left;
 317:navigation.c  ****                 //failsafe_alternator = FALSE;
 318:navigation.c  ****             }
ARM GAS  C:\Users\Misha\AppData\Local\Temp\ccbcIC6d.s 			page 12


 319:navigation.c  ****                         
 320:navigation.c  ****             //  side sensors sensors
 321:navigation.c  ****             /*
 322:navigation.c  ****             if (abs(count_left) > (old_count + (SAFETY_MARGIN/2)*ENCODER_MULTIPLIER - 100)
 323:navigation.c  ****                                         && failsafe_alternator == FALSE 
 324:navigation.c  ****                                         && activate_safety == TRUE){
 325:navigation.c  ****                 failsafeSideSensors(side_prox_sensor, initial_side_distance);
 326:navigation.c  ****                 old_count = count_left;
 327:navigation.c  ****                 failsafe_alternator = TRUE;
 328:navigation.c  ****             }
 329:navigation.c  ****             */                            
 330:navigation.c  ****         } 
 331:navigation.c  ****     }
 332:navigation.c  ****     
 333:navigation.c  ****     
 334:navigation.c  ****     
 335:navigation.c  ****     //sprintf(output, "left motor: %d \n", count_left);       
 336:navigation.c  ****     //UART_1_PutString(output);
 337:navigation.c  ****     //sprintf(output, "right motor: %d \n", count_right);      
 338:navigation.c  ****     //UART_1_PutString(output);
 339:navigation.c  ****         
 340:navigation.c  ****     // final check of sensor:
 341:navigation.c  ****     distanceSensor(ultrasonic_sensor);
 342:navigation.c  ****     CyDelay(50);
 343:navigation.c  ****     distance_sensor = sensor_distances[ultrasonic_sensor];   // checks the distance measured by the
 344:navigation.c  ****     sprintf(output, "\n fin: %d \n", distance_sensor);    
 345:navigation.c  ****     UART_1_PutString(output);
 346:navigation.c  ****     
 347:navigation.c  ****     global_encoder = Motor_Left_Decoder_GetCounter();;                            
 348:navigation.c  ****     global_distance = global_encoder/ENCODER_MULTIPLIER;        // tells us how far we travelled in
 349:navigation.c  ****     
 350:navigation.c  ****     sprintf(output, "count value: %d \n", global_encoder);
 351:navigation.c  ****     UART_1_PutString(output);
 352:navigation.c  ****     
 353:navigation.c  ****     
 354:navigation.c  ****     Motor_Left_Decoder_SetCounter(0);                       // RESET the decoders to 0
 355:navigation.c  ****     Motor_Right_Decoder_SetCounter(0);   
 356:navigation.c  ****     
 357:navigation.c  ****     Motor_Left_Driver_Sleep();              // Puts motors to sleep 
 358:navigation.c  ****     Motor_Right_Driver_Sleep();
 359:navigation.c  ****     
 360:navigation.c  **** }
 361:navigation.c  **** 
 362:navigation.c  **** void changeOrientation(int orientation_change, int speed) {
 299              		.loc 1 362 0
 300              		.cfi_startproc
 301              		@ args = 0, pretend = 0, frame = 0
 302              		@ frame_needed = 0, uses_anonymous_args = 0
 303              	.LVL47:
 304 0000 10B5     		push	{r4, lr}
 305              		.cfi_def_cfa_offset 8
 306              		.cfi_offset 4, -8
 307              		.cfi_offset 14, -4
 308 0002 0446     		mov	r4, r0
 363:navigation.c  ****     //define NORTH 0
 364:navigation.c  ****     //define EAST 1
 365:navigation.c  ****     //define SOUTH 2
ARM GAS  C:\Users\Misha\AppData\Local\Temp\ccbcIC6d.s 			page 13


 366:navigation.c  ****     //define WEST 3
 367:navigation.c  ****     int degree_change;
 368:navigation.c  ****     
 369:navigation.c  ****     // Incorporate some failsafes so that it turns in a direction that won't hit anything:
 370:navigation.c  ****         // failsafes:
 371:navigation.c  ****     
 372:navigation.c  ****     int change = orientation_change - internal_orientation;
 309              		.loc 1 372 0
 310 0004 0B4B     		ldr	r3, .L26
 311 0006 1868     		ldr	r0, [r3]
 312              	.LVL48:
 313 0008 201A     		subs	r0, r4, r0
 314              	.LVL49:
 373:navigation.c  ****     degree_change = 90*change;                                  // converts the amount of degrees w
 315              		.loc 1 373 0
 316 000a 5A23     		movs	r3, #90
 317 000c 03FB00F0 		mul	r0, r3, r0
 318              	.LVL50:
 374:navigation.c  ****     
 375:navigation.c  ****     if (degree_change == 270 || degree_change == -270)
 319              		.loc 1 375 0
 320 0010 B0F5877F 		cmp	r0, #270
 321 0014 02D0     		beq	.L23
 322              		.loc 1 375 0 is_stmt 0 discriminator 1
 323 0016 10F5877F 		cmn	r0, #270
 324 001a 04D1     		bne	.L24
 325              	.L23:
 376:navigation.c  ****     {
 377:navigation.c  ****         degree_change = degree_change/3;        
 326              		.loc 1 377 0 is_stmt 1
 327 001c 064B     		ldr	r3, .L26+4
 328 001e 83FB0023 		smull	r2, r3, r3, r0
 329              	.LVL51:
 378:navigation.c  ****         degree_change = -1*degree_change;       
 330              		.loc 1 378 0
 331 0022 C3EBE070 		rsb	r0, r3, r0, asr #31
 332              	.LVL52:
 333              	.L24:
 379:navigation.c  ****     }
 380:navigation.c  ****     
 381:navigation.c  ****     moveSwivel(degree_change, speed, TRUE);
 334              		.loc 1 381 0
 335 0026 0122     		movs	r2, #1
 336 0028 FFF7FEFF 		bl	moveSwivel
 337              	.LVL53:
 382:navigation.c  ****     internal_orientation = orientation_change;  
 338              		.loc 1 382 0
 339 002c 014B     		ldr	r3, .L26
 340 002e 1C60     		str	r4, [r3]
 341 0030 10BD     		pop	{r4, pc}
 342              	.LVL54:
 343              	.L27:
 344 0032 00BF     		.align	2
 345              	.L26:
 346 0034 00000000 		.word	internal_orientation
 347 0038 56555555 		.word	1431655766
 348              		.cfi_endproc
ARM GAS  C:\Users\Misha\AppData\Local\Temp\ccbcIC6d.s 			page 14


 349              	.LFE68:
 350              		.size	changeOrientation, .-changeOrientation
 351              		.global	__aeabi_f2d
 352              		.global	__aeabi_ddiv
 353              		.global	__aeabi_dsub
 354              		.global	__aeabi_d2iz
 355              		.global	__aeabi_i2d
 356              		.global	__aeabi_dmul
 357              		.global	__aeabi_dcmpgt
 358              		.global	__aeabi_d2f
 359              		.global	__aeabi_i2f
 360              		.section	.text.translateUntil,"ax",%progbits
 361              		.align	2
 362              		.global	translateUntil
 363              		.thumb
 364              		.thumb_func
 365              		.type	translateUntil, %function
 366              	translateUntil:
 367              	.LFB69:
 383:navigation.c  **** }
 384:navigation.c  **** 
 385:navigation.c  **** void translateUntil(int distance, float max_back, int left_or_right, int less_or_great){
 368              		.loc 1 385 0
 369              		.cfi_startproc
 370              		@ args = 0, pretend = 0, frame = 0
 371              		@ frame_needed = 0, uses_anonymous_args = 0
 372              	.LVL55:
 373 0000 2DE9F047 		push	{r4, r5, r6, r7, r8, r9, r10, lr}
 374              		.cfi_def_cfa_offset 32
 375              		.cfi_offset 4, -32
 376              		.cfi_offset 5, -28
 377              		.cfi_offset 6, -24
 378              		.cfi_offset 7, -20
 379              		.cfi_offset 8, -16
 380              		.cfi_offset 9, -12
 381              		.cfi_offset 10, -8
 382              		.cfi_offset 14, -4
 383 0004 0446     		mov	r4, r0
 384 0006 1646     		mov	r6, r2
 385 0008 1F46     		mov	r7, r3
 386              	.LVL56:
 386:navigation.c  ****     int current_distance;
 387:navigation.c  ****     float angle_to_turn_at = 20; 
 388:navigation.c  ****     int maxBack1 = round(max_back/cos((M_PI/180)*angle_to_turn_at))- 1;
 387              		.loc 1 388 0
 388 000a 0846     		mov	r0, r1
 389              	.LVL57:
 390 000c FFF7FEFF 		bl	__aeabi_f2d
 391              	.LVL58:
 392 0010 83A3     		adr	r3, .L62
 393 0012 D3E90023 		ldrd	r2, [r3]
 394 0016 FFF7FEFF 		bl	__aeabi_ddiv
 395              	.LVL59:
 396 001a FFF7FEFF 		bl	round
 397              	.LVL60:
 398 001e 0022     		movs	r2, #0
 399 0020 834B     		ldr	r3, .L62+16
ARM GAS  C:\Users\Misha\AppData\Local\Temp\ccbcIC6d.s 			page 15


 400 0022 FFF7FEFF 		bl	__aeabi_dsub
 401              	.LVL61:
 402 0026 FFF7FEFF 		bl	__aeabi_d2iz
 403              	.LVL62:
 404 002a 0546     		mov	r5, r0
 405              	.LVL63:
 389:navigation.c  ****     if (left_or_right == RIGHT){ 
 406              		.loc 1 389 0
 407 002c 032E     		cmp	r6, #3
 408 002e 77D1     		bne	.L29
 390:navigation.c  ****         if (less_or_great == LESS_THAN) {
 409              		.loc 1 390 0
 410 0030 012F     		cmp	r7, #1
 411 0032 38D1     		bne	.L30
 391:navigation.c  ****             distanceSensor(SIDE_RIGHT);
 412              		.loc 1 391 0
 413 0034 0320     		movs	r0, #3
 414              	.LVL64:
 415 0036 FFF7FEFF 		bl	distanceSensor
 416              	.LVL65:
 392:navigation.c  ****             current_distance = sensor_distances[SIDE_RIGHT];
 417              		.loc 1 392 0
 418 003a 7E4B     		ldr	r3, .L62+20
 419 003c D868     		ldr	r0, [r3, #12]
 420              	.LVL66:
 393:navigation.c  ****             while (current_distance > distance){
 421              		.loc 1 393 0
 422 003e 2EE0     		b	.L31
 423              	.LVL67:
 424              	.L35:
 394:navigation.c  ****                 if ((current_distance - distance) > maxBack1*sin((M_PI/180)*angle_to_turn_at)){
 425              		.loc 1 394 0
 426 0040 C4EB000A 		rsb	r10, r4, r0
 427 0044 5046     		mov	r0, r10
 428              	.LVL68:
 429 0046 FFF7FEFF 		bl	__aeabi_i2d
 430              	.LVL69:
 431 004a 0646     		mov	r6, r0
 432 004c 0F46     		mov	r7, r1
 433 004e 2846     		mov	r0, r5
 434 0050 FFF7FEFF 		bl	__aeabi_i2d
 435              	.LVL70:
 436 0054 74A3     		adr	r3, .L62+8
 437 0056 D3E90023 		ldrd	r2, [r3]
 438 005a FFF7FEFF 		bl	__aeabi_dmul
 439              	.LVL71:
 440 005e 8046     		mov	r8, r0
 441 0060 8946     		mov	r9, r1
 442 0062 0246     		mov	r2, r0
 443 0064 0B46     		mov	r3, r1
 444 0066 3046     		mov	r0, r6
 445 0068 3946     		mov	r1, r7
 446 006a FFF7FEFF 		bl	__aeabi_dcmpgt
 447              	.LVL72:
 448 006e 48B1     		cbz	r0, .L57
 395:navigation.c  ****                     translateMoveDynamic(maxBack1*sin((M_PI/180)*angle_to_turn_at),angle_to_turn_at
 449              		.loc 1 395 0
ARM GAS  C:\Users\Misha\AppData\Local\Temp\ccbcIC6d.s 			page 16


 450 0070 4046     		mov	r0, r8
 451 0072 4946     		mov	r1, r9
 452 0074 FFF7FEFF 		bl	__aeabi_d2f
 453              	.LVL73:
 454 0078 0023     		movs	r3, #0
 455 007a 4622     		movs	r2, #70
 456 007c 1421     		movs	r1, #20
 457 007e FFF7FEFF 		bl	translateMoveDynamic
 458              	.LVL74:
 459 0082 07E0     		b	.L34
 460              	.L57:
 396:navigation.c  ****                 }else{
 397:navigation.c  ****                     translateMoveDynamic((current_distance - distance),angle_to_turn_at,SPEED_LOW,F
 461              		.loc 1 397 0
 462 0084 5046     		mov	r0, r10
 463 0086 FFF7FEFF 		bl	__aeabi_i2f
 464              	.LVL75:
 465 008a 0023     		movs	r3, #0
 466 008c 4622     		movs	r2, #70
 467 008e 1421     		movs	r1, #20
 468 0090 FFF7FEFF 		bl	translateMoveDynamic
 469              	.LVL76:
 470              	.L34:
 398:navigation.c  ****                 }
 399:navigation.c  ****                 distanceSensor(SIDE_RIGHT);
 471              		.loc 1 399 0
 472 0094 0320     		movs	r0, #3
 473 0096 FFF7FEFF 		bl	distanceSensor
 474              	.LVL77:
 400:navigation.c  ****                 current_distance = sensor_distances[SIDE_RIGHT];
 475              		.loc 1 400 0
 476 009a 664B     		ldr	r3, .L62+20
 477 009c D868     		ldr	r0, [r3, #12]
 478              	.LVL78:
 479              	.L31:
 393:navigation.c  ****                 if ((current_distance - distance) > maxBack1*sin((M_PI/180)*angle_to_turn_at)){
 480              		.loc 1 393 0
 481 009e A042     		cmp	r0, r4
 482 00a0 CEDC     		bgt	.L35
 483 00a2 BDE8F087 		pop	{r4, r5, r6, r7, r8, r9, r10, pc}
 484              	.LVL79:
 485              	.L30:
 401:navigation.c  ****             }
 402:navigation.c  ****         }else if (less_or_great == GREATER_THAN){
 486              		.loc 1 402 0
 487 00a6 B7F1FF3F 		cmp	r7, #-1
 488 00aa 40F0B580 		bne	.L28
 403:navigation.c  ****             distanceSensor(SIDE_LEFT);
 489              		.loc 1 403 0
 490 00ae 0220     		movs	r0, #2
 491              	.LVL80:
 492 00b0 FFF7FEFF 		bl	distanceSensor
 493              	.LVL81:
 404:navigation.c  ****             current_distance = sensor_distances[SIDE_LEFT];
 494              		.loc 1 404 0
 495 00b4 5F4B     		ldr	r3, .L62+20
 496 00b6 9868     		ldr	r0, [r3, #8]
ARM GAS  C:\Users\Misha\AppData\Local\Temp\ccbcIC6d.s 			page 17


 497              	.LVL82:
 405:navigation.c  ****             while (current_distance < distance){
 498              		.loc 1 405 0
 499 00b8 2EE0     		b	.L37
 500              	.LVL83:
 501              	.L41:
 406:navigation.c  ****                 if ((distance - current_distance) > maxBack1*sin((M_PI/180)*angle_to_turn_at)){
 502              		.loc 1 406 0
 503 00ba C0EB040A 		rsb	r10, r0, r4
 504 00be 5046     		mov	r0, r10
 505              	.LVL84:
 506 00c0 FFF7FEFF 		bl	__aeabi_i2d
 507              	.LVL85:
 508 00c4 8046     		mov	r8, r0
 509 00c6 8946     		mov	r9, r1
 510 00c8 2846     		mov	r0, r5
 511 00ca FFF7FEFF 		bl	__aeabi_i2d
 512              	.LVL86:
 513 00ce 56A3     		adr	r3, .L62+8
 514 00d0 D3E90023 		ldrd	r2, [r3]
 515 00d4 FFF7FEFF 		bl	__aeabi_dmul
 516              	.LVL87:
 517 00d8 0646     		mov	r6, r0
 518 00da 0F46     		mov	r7, r1
 519 00dc 0246     		mov	r2, r0
 520 00de 0B46     		mov	r3, r1
 521 00e0 4046     		mov	r0, r8
 522 00e2 4946     		mov	r1, r9
 523 00e4 FFF7FEFF 		bl	__aeabi_dcmpgt
 524              	.LVL88:
 525 00e8 48B1     		cbz	r0, .L58
 407:navigation.c  ****                     translateMoveDynamic(maxBack1*sin((M_PI/180)*angle_to_turn_at),angle_to_turn_at
 526              		.loc 1 407 0
 527 00ea 3046     		mov	r0, r6
 528 00ec 3946     		mov	r1, r7
 529 00ee FFF7FEFF 		bl	__aeabi_d2f
 530              	.LVL89:
 531 00f2 0023     		movs	r3, #0
 532 00f4 4622     		movs	r2, #70
 533 00f6 1421     		movs	r1, #20
 534 00f8 FFF7FEFF 		bl	translateMoveDynamic
 535              	.LVL90:
 536 00fc 07E0     		b	.L40
 537              	.L58:
 408:navigation.c  ****                 }else{
 409:navigation.c  ****                     translateMoveDynamic((distance - current_distance),angle_to_turn_at,SPEED_LOW,F
 538              		.loc 1 409 0
 539 00fe 5046     		mov	r0, r10
 540 0100 FFF7FEFF 		bl	__aeabi_i2f
 541              	.LVL91:
 542 0104 0023     		movs	r3, #0
 543 0106 4622     		movs	r2, #70
 544 0108 1421     		movs	r1, #20
 545 010a FFF7FEFF 		bl	translateMoveDynamic
 546              	.LVL92:
 547              	.L40:
 410:navigation.c  ****                 }
ARM GAS  C:\Users\Misha\AppData\Local\Temp\ccbcIC6d.s 			page 18


 411:navigation.c  ****                 distanceSensor(SIDE_LEFT);
 548              		.loc 1 411 0
 549 010e 0220     		movs	r0, #2
 550 0110 FFF7FEFF 		bl	distanceSensor
 551              	.LVL93:
 412:navigation.c  ****                 current_distance = sensor_distances[SIDE_LEFT];
 552              		.loc 1 412 0
 553 0114 474B     		ldr	r3, .L62+20
 554 0116 9868     		ldr	r0, [r3, #8]
 555              	.LVL94:
 556              	.L37:
 405:navigation.c  ****                 if ((distance - current_distance) > maxBack1*sin((M_PI/180)*angle_to_turn_at)){
 557              		.loc 1 405 0
 558 0118 A042     		cmp	r0, r4
 559 011a CEDB     		blt	.L41
 560 011c BDE8F087 		pop	{r4, r5, r6, r7, r8, r9, r10, pc}
 561              	.LVL95:
 562              	.L29:
 413:navigation.c  ****             }
 414:navigation.c  ****         }
 415:navigation.c  ****     }else if (left_or_right == LEFT){ 
 563              		.loc 1 415 0
 564 0120 022E     		cmp	r6, #2
 565 0122 79D1     		bne	.L28
 416:navigation.c  ****         if (less_or_great == LESS_THAN) {
 566              		.loc 1 416 0
 567 0124 012F     		cmp	r7, #1
 568 0126 3AD1     		bne	.L42
 417:navigation.c  ****             distanceSensor(SIDE_LEFT); 
 569              		.loc 1 417 0
 570 0128 0220     		movs	r0, #2
 571              	.LVL96:
 572 012a FFF7FEFF 		bl	distanceSensor
 573              	.LVL97:
 418:navigation.c  ****             current_distance = sensor_distances[SIDE_LEFT];
 574              		.loc 1 418 0
 575 012e 414B     		ldr	r3, .L62+20
 576 0130 9E68     		ldr	r6, [r3, #8]
 577              	.LVL98:
 419:navigation.c  ****             while (current_distance > distance){
 578              		.loc 1 419 0
 579 0132 30E0     		b	.L43
 580              	.L47:
 420:navigation.c  ****                 if ((current_distance - distance) > maxBack1*sin((M_PI/180)*angle_to_turn_at)){
 581              		.loc 1 420 0
 582 0134 301B     		subs	r0, r6, r4
 583 0136 FFF7FEFF 		bl	__aeabi_i2d
 584              	.LVL99:
 585 013a 8046     		mov	r8, r0
 586 013c 8946     		mov	r9, r1
 587 013e 2846     		mov	r0, r5
 588 0140 FFF7FEFF 		bl	__aeabi_i2d
 589              	.LVL100:
 590 0144 38A3     		adr	r3, .L62+8
 591 0146 D3E90023 		ldrd	r2, [r3]
 592 014a FFF7FEFF 		bl	__aeabi_dmul
 593              	.LVL101:
ARM GAS  C:\Users\Misha\AppData\Local\Temp\ccbcIC6d.s 			page 19


 594 014e 0246     		mov	r2, r0
 595 0150 0B46     		mov	r3, r1
 596 0152 4046     		mov	r0, r8
 597 0154 4946     		mov	r1, r9
 598 0156 FFF7FEFF 		bl	__aeabi_dcmpgt
 599              	.LVL102:
 600 015a 78B1     		cbz	r0, .L59
 421:navigation.c  ****                     translateMoveDynamic(-maxBack1*sin((M_PI/180)*angle_to_turn_at),angle_to_turn_a
 601              		.loc 1 421 0
 602 015c 6842     		negs	r0, r5
 603 015e FFF7FEFF 		bl	__aeabi_i2d
 604              	.LVL103:
 605 0162 31A3     		adr	r3, .L62+8
 606 0164 D3E90023 		ldrd	r2, [r3]
 607 0168 FFF7FEFF 		bl	__aeabi_dmul
 608              	.LVL104:
 609 016c FFF7FEFF 		bl	__aeabi_d2f
 610              	.LVL105:
 611 0170 0023     		movs	r3, #0
 612 0172 4622     		movs	r2, #70
 613 0174 1421     		movs	r1, #20
 614 0176 FFF7FEFF 		bl	translateMoveDynamic
 615              	.LVL106:
 616 017a 07E0     		b	.L46
 617              	.L59:
 422:navigation.c  ****                 }else{
 423:navigation.c  ****                     translateMoveDynamic(-(current_distance - distance),angle_to_turn_at,SPEED_LOW,
 618              		.loc 1 423 0
 619 017c A01B     		subs	r0, r4, r6
 620 017e FFF7FEFF 		bl	__aeabi_i2f
 621              	.LVL107:
 622 0182 0023     		movs	r3, #0
 623 0184 4622     		movs	r2, #70
 624 0186 1421     		movs	r1, #20
 625 0188 FFF7FEFF 		bl	translateMoveDynamic
 626              	.LVL108:
 627              	.L46:
 424:navigation.c  ****                 }
 425:navigation.c  ****                 distanceSensor(SIDE_LEFT);
 628              		.loc 1 425 0
 629 018c 0220     		movs	r0, #2
 630 018e FFF7FEFF 		bl	distanceSensor
 631              	.LVL109:
 426:navigation.c  ****                 current_distance = sensor_distances[SIDE_LEFT];
 632              		.loc 1 426 0
 633 0192 284B     		ldr	r3, .L62+20
 634 0194 9E68     		ldr	r6, [r3, #8]
 635              	.LVL110:
 636              	.L43:
 419:navigation.c  ****                 if ((current_distance - distance) > maxBack1*sin((M_PI/180)*angle_to_turn_at)){
 637              		.loc 1 419 0
 638 0196 A642     		cmp	r6, r4
 639 0198 CCDC     		bgt	.L47
 640 019a BDE8F087 		pop	{r4, r5, r6, r7, r8, r9, r10, pc}
 641              	.LVL111:
 642              	.L42:
 427:navigation.c  ****             }
ARM GAS  C:\Users\Misha\AppData\Local\Temp\ccbcIC6d.s 			page 20


 428:navigation.c  ****         }else if (less_or_great == GREATER_THAN){
 643              		.loc 1 428 0
 644 019e B7F1FF3F 		cmp	r7, #-1
 645 01a2 39D1     		bne	.L28
 429:navigation.c  ****             distanceSensor(SIDE_RIGHT);
 646              		.loc 1 429 0
 647 01a4 0320     		movs	r0, #3
 648              	.LVL112:
 649 01a6 FFF7FEFF 		bl	distanceSensor
 650              	.LVL113:
 430:navigation.c  ****             current_distance = sensor_distances[SIDE_RIGHT];
 651              		.loc 1 430 0
 652 01aa 224B     		ldr	r3, .L62+20
 653 01ac D868     		ldr	r0, [r3, #12]
 654              	.LVL114:
 431:navigation.c  ****             while (current_distance < distance){
 655              		.loc 1 431 0
 656 01ae 31E0     		b	.L48
 657              	.LVL115:
 658              	.L52:
 432:navigation.c  ****                 if ((distance - current_distance) > maxBack1*sin((M_PI/180)*angle_to_turn_at)){
 659              		.loc 1 432 0
 660 01b0 261A     		subs	r6, r4, r0
 661 01b2 3046     		mov	r0, r6
 662              	.LVL116:
 663 01b4 FFF7FEFF 		bl	__aeabi_i2d
 664              	.LVL117:
 665 01b8 8046     		mov	r8, r0
 666 01ba 8946     		mov	r9, r1
 667 01bc 2846     		mov	r0, r5
 668 01be FFF7FEFF 		bl	__aeabi_i2d
 669              	.LVL118:
 670 01c2 19A3     		adr	r3, .L62+8
 671 01c4 D3E90023 		ldrd	r2, [r3]
 672 01c8 FFF7FEFF 		bl	__aeabi_dmul
 673              	.LVL119:
 674 01cc 0246     		mov	r2, r0
 675 01ce 0B46     		mov	r3, r1
 676 01d0 4046     		mov	r0, r8
 677 01d2 4946     		mov	r1, r9
 678 01d4 FFF7FEFF 		bl	__aeabi_dcmpgt
 679              	.LVL120:
 680 01d8 78B1     		cbz	r0, .L60
 433:navigation.c  ****                     translateMoveDynamic(-maxBack1*sin((M_PI/180)*angle_to_turn_at),angle_to_turn_a
 681              		.loc 1 433 0
 682 01da 6842     		negs	r0, r5
 683 01dc FFF7FEFF 		bl	__aeabi_i2d
 684              	.LVL121:
 685 01e0 11A3     		adr	r3, .L62+8
 686 01e2 D3E90023 		ldrd	r2, [r3]
 687 01e6 FFF7FEFF 		bl	__aeabi_dmul
 688              	.LVL122:
 689 01ea FFF7FEFF 		bl	__aeabi_d2f
 690              	.LVL123:
 691 01ee 0023     		movs	r3, #0
 692 01f0 4622     		movs	r2, #70
 693 01f2 1421     		movs	r1, #20
ARM GAS  C:\Users\Misha\AppData\Local\Temp\ccbcIC6d.s 			page 21


 694 01f4 FFF7FEFF 		bl	translateMoveDynamic
 695              	.LVL124:
 696 01f8 07E0     		b	.L51
 697              	.L60:
 434:navigation.c  ****                 }else{
 435:navigation.c  ****                     translateMoveDynamic(-(current_distance - distance),angle_to_turn_at,SPEED_LOW,
 698              		.loc 1 435 0
 699 01fa 3046     		mov	r0, r6
 700 01fc FFF7FEFF 		bl	__aeabi_i2f
 701              	.LVL125:
 702 0200 0023     		movs	r3, #0
 703 0202 4622     		movs	r2, #70
 704 0204 1421     		movs	r1, #20
 705 0206 FFF7FEFF 		bl	translateMoveDynamic
 706              	.LVL126:
 707              	.L51:
 436:navigation.c  ****                 }
 437:navigation.c  ****                 distanceSensor(SIDE_RIGHT);
 708              		.loc 1 437 0
 709 020a 0320     		movs	r0, #3
 710 020c FFF7FEFF 		bl	distanceSensor
 711              	.LVL127:
 438:navigation.c  ****                 current_distance = sensor_distances[SIDE_RIGHT];
 712              		.loc 1 438 0
 713 0210 084B     		ldr	r3, .L62+20
 714 0212 D868     		ldr	r0, [r3, #12]
 715              	.LVL128:
 716              	.L48:
 431:navigation.c  ****                 if ((distance - current_distance) > maxBack1*sin((M_PI/180)*angle_to_turn_at)){
 717              		.loc 1 431 0
 718 0214 A042     		cmp	r0, r4
 719 0216 CBDB     		blt	.L52
 720              	.LVL129:
 721              	.L28:
 722 0218 BDE8F087 		pop	{r4, r5, r6, r7, r8, r9, r10, pc}
 723              	.LVL130:
 724              	.L63:
 725 021c AFF30080 		.align	3
 726              	.L62:
 727 0220 1C2D5242 		.word	1112681756
 728 0224 F611EE3F 		.word	1072566774
 729 0228 F50B8A74 		.word	1955204085
 730 022c A8E3D53F 		.word	1070982056
 731 0230 0000F03F 		.word	1072693248
 732 0234 00000000 		.word	sensor_distances
 733              		.cfi_endproc
 734              	.LFE69:
 735              		.size	translateUntil, .-translateUntil
 736              		.section	.text.failsafe,"ax",%progbits
 737              		.align	2
 738              		.global	failsafe
 739              		.thumb
 740              		.thumb_func
 741              		.type	failsafe, %function
 742              	failsafe:
 743              	.LFB70:
 439:navigation.c  ****             }
ARM GAS  C:\Users\Misha\AppData\Local\Temp\ccbcIC6d.s 			page 22


 440:navigation.c  ****         }
 441:navigation.c  ****     }
 442:navigation.c  **** }
 443:navigation.c  **** 
 444:navigation.c  **** int failsafe(int direction) {
 744              		.loc 1 444 0
 745              		.cfi_startproc
 746              		@ args = 0, pretend = 0, frame = 0
 747              		@ frame_needed = 0, uses_anonymous_args = 0
 748              	.LVL131:
 749 0000 10B5     		push	{r4, lr}
 750              		.cfi_def_cfa_offset 8
 751              		.cfi_offset 4, -8
 752              		.cfi_offset 14, -4
 445:navigation.c  ****     int check_distance;
 446:navigation.c  ****     
 447:navigation.c  ****     // SAFETY OVERRIDE:
 448:navigation.c  ****     if(safety_override == TRUE){
 753              		.loc 1 448 0
 754 0002 1C4B     		ldr	r3, .L72
 755 0004 1B68     		ldr	r3, [r3]
 756 0006 012B     		cmp	r3, #1
 757 0008 2DD0     		beq	.L68
 449:navigation.c  ****         return FALSE;
 450:navigation.c  ****     }
 451:navigation.c  ****     
 452:navigation.c  ****     // detecting direction:    
 453:navigation.c  ****     if (direction == BACKWARD) {
 758              		.loc 1 453 0
 759 000a A0B9     		cbnz	r0, .L66
 454:navigation.c  ****         distanceSensor(BACK_RIGHT);
 760              		.loc 1 454 0
 761 000c 0420     		movs	r0, #4
 762              	.LVL132:
 763 000e FFF7FEFF 		bl	distanceSensor
 764              	.LVL133:
 455:navigation.c  ****         CyDelay(50);
 765              		.loc 1 455 0
 766 0012 3220     		movs	r0, #50
 767 0014 FFF7FEFF 		bl	CyDelay
 768              	.LVL134:
 456:navigation.c  ****         
 457:navigation.c  ****         check_distance = sensor_distances[BACK_RIGHT];   // checks the distance measured by the ult
 769              		.loc 1 457 0
 770 0018 174B     		ldr	r3, .L72+4
 771 001a 1A69     		ldr	r2, [r3, #16]
 772              	.LVL135:
 458:navigation.c  ****         if (check_distance < SAFETY_MARGIN && check_distance > 0) { 
 773              		.loc 1 458 0
 774 001c 531E     		subs	r3, r2, #1
 775 001e 532B     		cmp	r3, #83
 776 0020 23D8     		bhi	.L69
 459:navigation.c  ****             sprintf(output, "SAFETY MARGIN ACTIVATED @ %d\n", check_distance);      
 777              		.loc 1 459 0
 778 0022 164C     		ldr	r4, .L72+8
 779 0024 1649     		ldr	r1, .L72+12
 780 0026 2046     		mov	r0, r4
ARM GAS  C:\Users\Misha\AppData\Local\Temp\ccbcIC6d.s 			page 23


 781 0028 FFF7FEFF 		bl	sprintf
 782              	.LVL136:
 460:navigation.c  ****             UART_1_PutString(output); 
 783              		.loc 1 460 0
 784 002c 2046     		mov	r0, r4
 785 002e FFF7FEFF 		bl	UART_1_PutString
 786              	.LVL137:
 461:navigation.c  ****             return TRUE; 
 787              		.loc 1 461 0
 788 0032 0120     		movs	r0, #1
 789 0034 10BD     		pop	{r4, pc}
 790              	.LVL138:
 791              	.L66:
 462:navigation.c  ****         }
 463:navigation.c  ****         else { return FALSE; }
 464:navigation.c  ****     }
 465:navigation.c  ****     else if (direction == FORWARD) {
 792              		.loc 1 465 0
 793 0036 0128     		cmp	r0, #1
 794 0038 14D1     		bne	.L67
 466:navigation.c  ****         distanceSensor(FRONT_LEFT);
 795              		.loc 1 466 0
 796 003a 0020     		movs	r0, #0
 797              	.LVL139:
 798 003c FFF7FEFF 		bl	distanceSensor
 799              	.LVL140:
 467:navigation.c  ****         CyDelay(50);
 800              		.loc 1 467 0
 801 0040 3220     		movs	r0, #50
 802 0042 FFF7FEFF 		bl	CyDelay
 803              	.LVL141:
 468:navigation.c  ****         //distanceSensor(FRONT_RIGHT);      // May need to add this in of front left sensor isnt en
 469:navigation.c  ****         //CyDelay(50);
 470:navigation.c  ****         
 471:navigation.c  ****         check_distance = sensor_distances[FRONT_LEFT];   // checks the distance measured by the ult
 804              		.loc 1 471 0
 805 0046 0C4B     		ldr	r3, .L72+4
 806 0048 1A68     		ldr	r2, [r3]
 807              	.LVL142:
 472:navigation.c  ****         if (check_distance < SAFETY_MARGIN && check_distance > 0) { 
 808              		.loc 1 472 0
 809 004a 531E     		subs	r3, r2, #1
 810 004c 532B     		cmp	r3, #83
 811 004e 0ED8     		bhi	.L70
 473:navigation.c  ****             sprintf(output, "SAFETY MARGIN ACTIVATED @ %d\n", check_distance);      
 812              		.loc 1 473 0
 813 0050 0A4C     		ldr	r4, .L72+8
 814 0052 0B49     		ldr	r1, .L72+12
 815 0054 2046     		mov	r0, r4
 816 0056 FFF7FEFF 		bl	sprintf
 817              	.LVL143:
 474:navigation.c  ****             UART_1_PutString(output); 
 818              		.loc 1 474 0
 819 005a 2046     		mov	r0, r4
 820 005c FFF7FEFF 		bl	UART_1_PutString
 821              	.LVL144:
 475:navigation.c  ****             return TRUE; 
ARM GAS  C:\Users\Misha\AppData\Local\Temp\ccbcIC6d.s 			page 24


 822              		.loc 1 475 0
 823 0060 0120     		movs	r0, #1
 824 0062 10BD     		pop	{r4, pc}
 825              	.LVL145:
 826              	.L67:
 827              	.LVL146:
 476:navigation.c  ****         }
 477:navigation.c  ****         else { return FALSE; }
 478:navigation.c  ****     }
 479:navigation.c  ****     
 480:navigation.c  ****     // detecting side sensor usage: 
 481:navigation.c  ****     
 482:navigation.c  ****     
 483:navigation.c  ****     
 484:navigation.c  ****     // Considerations:
 485:navigation.c  ****         // we may not want this failsafe enabled in some cases
 486:navigation.c  ****     
 487:navigation.c  **** }
 828              		.loc 1 487 0
 829 0064 10BD     		pop	{r4, pc}
 830              	.LVL147:
 831              	.L68:
 449:navigation.c  ****     }
 832              		.loc 1 449 0
 833 0066 0020     		movs	r0, #0
 834              	.LVL148:
 835 0068 10BD     		pop	{r4, pc}
 836              	.LVL149:
 837              	.L69:
 463:navigation.c  ****     }
 838              		.loc 1 463 0
 839 006a 0020     		movs	r0, #0
 840 006c 10BD     		pop	{r4, pc}
 841              	.L70:
 477:navigation.c  ****     }
 842              		.loc 1 477 0
 843 006e 0020     		movs	r0, #0
 844              		.loc 1 487 0
 845 0070 10BD     		pop	{r4, pc}
 846              	.L73:
 847 0072 00BF     		.align	2
 848              	.L72:
 849 0074 00000000 		.word	safety_override
 850 0078 00000000 		.word	sensor_distances
 851 007c 00000000 		.word	output
 852 0080 08000000 		.word	.LC1
 853              		.cfi_endproc
 854              	.LFE70:
 855              		.size	failsafe, .-failsafe
 856              		.global	__aeabi_dadd
 857              		.section	.text.moveUntil,"ax",%progbits
 858              		.align	2
 859              		.global	moveUntil
 860              		.thumb
 861              		.thumb_func
 862              		.type	moveUntil, %function
 863              	moveUntil:
ARM GAS  C:\Users\Misha\AppData\Local\Temp\ccbcIC6d.s 			page 25


 864              	.LFB67:
 141:navigation.c  ****     // This function will move until given a set distance (in mm)
 865              		.loc 1 141 0
 866              		.cfi_startproc
 867              		@ args = 8, pretend = 0, frame = 32
 868              		@ frame_needed = 0, uses_anonymous_args = 0
 869              	.LVL150:
 870 0000 2DE9F04F 		push	{r4, r5, r6, r7, r8, r9, r10, fp, lr}
 871              		.cfi_def_cfa_offset 36
 872              		.cfi_offset 4, -36
 873              		.cfi_offset 5, -32
 874              		.cfi_offset 6, -28
 875              		.cfi_offset 7, -24
 876              		.cfi_offset 8, -20
 877              		.cfi_offset 9, -16
 878              		.cfi_offset 10, -12
 879              		.cfi_offset 11, -8
 880              		.cfi_offset 14, -4
 881 0004 89B0     		sub	sp, sp, #36
 882              		.cfi_def_cfa_offset 72
 883 0006 8346     		mov	fp, r0
 884 0008 0791     		str	r1, [sp, #28]
 885 000a 0592     		str	r2, [sp, #20]
 886 000c 1C46     		mov	r4, r3
 887 000e 129E     		ldr	r6, [sp, #72]
 888              	.LVL151:
 178:navigation.c  ****         Motor_Left_Control_Write(0); 
 889              		.loc 1 178 0
 890 0010 0129     		cmp	r1, #1
 891 0012 05D1     		bne	.L75
 179:navigation.c  ****         Motor_Right_Control_Write(0); 
 892              		.loc 1 179 0
 893 0014 0020     		movs	r0, #0
 894              	.LVL152:
 895 0016 FFF7FEFF 		bl	Motor_Left_Control_Write
 896              	.LVL153:
 180:navigation.c  ****     }
 897              		.loc 1 180 0
 898 001a 0020     		movs	r0, #0
 899 001c FFF7FEFF 		bl	Motor_Right_Control_Write
 900              	.LVL154:
 901              	.L75:
 182:navigation.c  ****         Motor_Left_Control_Write(1); 
 902              		.loc 1 182 0
 903 0020 079B     		ldr	r3, [sp, #28]
 904 0022 2BB9     		cbnz	r3, .L76
 183:navigation.c  ****         Motor_Right_Control_Write(1);
 905              		.loc 1 183 0
 906 0024 0120     		movs	r0, #1
 907 0026 FFF7FEFF 		bl	Motor_Left_Control_Write
 908              	.LVL155:
 184:navigation.c  ****     }
 909              		.loc 1 184 0
 910 002a 0120     		movs	r0, #1
 911 002c FFF7FEFF 		bl	Motor_Right_Control_Write
 912              	.LVL156:
 913              	.L76:
ARM GAS  C:\Users\Misha\AppData\Local\Temp\ccbcIC6d.s 			page 26


 191:navigation.c  ****     while (sensor_distances[ultrasonic_sensor] > ARENA_WIDTH) {          // protects against dodgy 
 914              		.loc 1 191 0
 915 0030 40F21452 		movw	r2, #1300
 916 0034 AE4B     		ldr	r3, .L102+24
 917 0036 43F82420 		str	r2, [r3, r4, lsl #2]
 192:navigation.c  ****         distanceSensor(ultrasonic_sensor);
 918              		.loc 1 192 0
 919 003a 11E0     		b	.L77
 920              	.LVL157:
 921              	.L78:
 193:navigation.c  ****         CyDelay(50);
 922              		.loc 1 193 0
 923 003c 2046     		mov	r0, r4
 924 003e FFF7FEFF 		bl	distanceSensor
 925              	.LVL158:
 194:navigation.c  ****         distance_sensor = sensor_distances[ultrasonic_sensor];   // checks the distance measured by
 926              		.loc 1 194 0
 927 0042 3220     		movs	r0, #50
 928 0044 FFF7FEFF 		bl	CyDelay
 929              	.LVL159:
 195:navigation.c  ****         sprintf(output, "%d \t", distance_sensor);       
 930              		.loc 1 195 0
 931 0048 A94B     		ldr	r3, .L102+24
 932 004a 53F82450 		ldr	r5, [r3, r4, lsl #2]
 933              	.LVL160:
 196:navigation.c  ****         UART_1_PutString(output);
 934              		.loc 1 196 0
 935 004e A94F     		ldr	r7, .L102+28
 936 0050 2A46     		mov	r2, r5
 937 0052 A949     		ldr	r1, .L102+32
 938 0054 3846     		mov	r0, r7
 939 0056 FFF7FEFF 		bl	sprintf
 940              	.LVL161:
 197:navigation.c  ****     }
 941              		.loc 1 197 0
 942 005a 3846     		mov	r0, r7
 943 005c FFF7FEFF 		bl	UART_1_PutString
 944              	.LVL162:
 945              	.L77:
 192:navigation.c  ****         distanceSensor(ultrasonic_sensor);
 946              		.loc 1 192 0
 947 0060 A34B     		ldr	r3, .L102+24
 948 0062 53F82430 		ldr	r3, [r3, r4, lsl #2]
 949 0066 B3F5966F 		cmp	r3, #1200
 950 006a E7DC     		bgt	.L78
 202:navigation.c  ****     Motor_Left_Driver_WriteCompare(speed_left);
 951              		.loc 1 202 0
 952 006c FFF7FEFF 		bl	Motor_Left_Driver_Wakeup
 953              	.LVL163:
 203:navigation.c  ****     Motor_Right_Driver_Wakeup();
 954              		.loc 1 203 0
 955 0070 5FFA86F8 		uxtb	r8, r6
 956 0074 4046     		mov	r0, r8
 957 0076 FFF7FEFF 		bl	Motor_Left_Driver_WriteCompare
 958              	.LVL164:
 204:navigation.c  ****     Motor_Right_Driver_WriteCompare(speed_right);
 959              		.loc 1 204 0
ARM GAS  C:\Users\Misha\AppData\Local\Temp\ccbcIC6d.s 			page 27


 960 007a FFF7FEFF 		bl	Motor_Right_Driver_Wakeup
 961              	.LVL165:
 205:navigation.c  ****     
 962              		.loc 1 205 0
 963 007e 4046     		mov	r0, r8
 964 0080 FFF7FEFF 		bl	Motor_Right_Driver_WriteCompare
 965              	.LVL166:
 207:navigation.c  ****         //UART_1_PutString("\n GREATER THAN LOOP: \n");
 966              		.loc 1 207 0
 967 0084 059B     		ldr	r3, [sp, #20]
 968 0086 B3F1FF3F 		cmp	r3, #-1
 969 008a 79D0     		beq	.L96
 154:navigation.c  ****     int front_sensor_flag = FALSE;
 970              		.loc 1 154 0
 971 008c B246     		mov	r10, r6
 153:navigation.c  ****     int speed_right = speed;
 972              		.loc 1 153 0
 973 008e B146     		mov	r9, r6
 161:navigation.c  ****     
 974              		.loc 1 161 0
 975 0090 0027     		movs	r7, #0
 159:navigation.c  ****                                                         // will enter the failsafe check straight a
 976              		.loc 1 159 0
 977 0092 6FF4A763 		mvn	r3, #1336
 978 0096 0193     		str	r3, [sp, #4]
 979 0098 87E0     		b	.L80
 980              	.LVL167:
 981              	.L88:
 982              	.LBB2:
 211:navigation.c  ****             count_right = Motor_Right_Decoder_GetCounter();
 983              		.loc 1 211 0
 984 009a FFF7FEFF 		bl	Motor_Left_Decoder_GetCounter
 985              	.LVL168:
 986 009e 0746     		mov	r7, r0
 987 00a0 0490     		str	r0, [sp, #16]
 988              	.LVL169:
 212:navigation.c  ****             
 989              		.loc 1 212 0
 990 00a2 FFF7FEFF 		bl	Motor_Right_Decoder_GetCounter
 991              	.LVL170:
 215:navigation.c  ****                 speed_left = speed - ADJUST;
 992              		.loc 1 215 0
 993 00a6 002F     		cmp	r7, #0
 994 00a8 B8BF     		it	lt
 995 00aa 7F42     		rsblt	r7, r7, #0
 996              	.LVL171:
 997 00ac 0028     		cmp	r0, #0
 998 00ae B8BF     		it	lt
 999 00b0 4042     		rsblt	r0, r0, #0
 1000              	.LVL172:
 1001 00b2 8742     		cmp	r7, r0
 1002 00b4 03DD     		ble	.L81
 216:navigation.c  ****                 speed_right = speed + ADJUST;
 1003              		.loc 1 216 0
 1004 00b6 A6F10409 		sub	r9, r6, #4
 1005              	.LVL173:
 217:navigation.c  ****             }        
ARM GAS  C:\Users\Misha\AppData\Local\Temp\ccbcIC6d.s 			page 28


 1006              		.loc 1 217 0
 1007 00ba 06F1040A 		add	r10, r6, #4
 1008              	.LVL174:
 1009              	.L81:
 219:navigation.c  ****                 speed_right = speed - ADJUST;              
 1010              		.loc 1 219 0
 1011 00be 8742     		cmp	r7, r0
 1012 00c0 03DA     		bge	.L82
 220:navigation.c  ****                 speed_left = speed + ADJUST;
 1013              		.loc 1 220 0
 1014 00c2 A6F1040A 		sub	r10, r6, #4
 1015              	.LVL175:
 221:navigation.c  ****             }
 1016              		.loc 1 221 0
 1017 00c6 06F10409 		add	r9, r6, #4
 1018              	.LVL176:
 1019              	.L82:
 225:navigation.c  ****             Motor_Right_Driver_WriteCompare(speed_right);
 1020              		.loc 1 225 0
 1021 00ca 5FFA89F0 		uxtb	r0, r9
 1022 00ce FFF7FEFF 		bl	Motor_Left_Driver_WriteCompare
 1023              	.LVL177:
 226:navigation.c  ****             
 1024              		.loc 1 226 0
 1025 00d2 5FFA8AF0 		uxtb	r0, r10
 1026 00d6 FFF7FEFF 		bl	Motor_Right_Driver_WriteCompare
 1027              	.LVL178:
 229:navigation.c  ****                 distanceSensor(FRONT_LEFT);
 1028              		.loc 1 229 0
 1029 00da 072C     		cmp	r4, #7
 1030 00dc 0DD1     		bne	.L83
 229:navigation.c  ****                 distanceSensor(FRONT_LEFT);
 1031              		.loc 1 229 0 is_stmt 0 discriminator 1
 1032 00de 069B     		ldr	r3, [sp, #24]
 1033 00e0 5BB1     		cbz	r3, .L83
 230:navigation.c  ****                 CyDelay(50);
 1034              		.loc 1 230 0 is_stmt 1
 1035 00e2 0020     		movs	r0, #0
 1036 00e4 FFF7FEFF 		bl	distanceSensor
 1037              	.LVL179:
 231:navigation.c  ****                 distance_sensor = sensor_distances[ultrasonic_sensor];   // checks the distance mea
 1038              		.loc 1 231 0
 1039 00e8 3220     		movs	r0, #50
 1040 00ea FFF7FEFF 		bl	CyDelay
 1041              	.LVL180:
 232:navigation.c  ****                 front_sensor_flag = FALSE;
 1042              		.loc 1 232 0
 1043 00ee 804B     		ldr	r3, .L102+24
 1044 00f0 53F82450 		ldr	r5, [r3, r4, lsl #2]
 1045              	.LVL181:
 233:navigation.c  ****             }
 1046              		.loc 1 233 0
 1047 00f4 0023     		movs	r3, #0
 1048 00f6 0693     		str	r3, [sp, #24]
 1049 00f8 20E0     		b	.L84
 1050              	.LVL182:
 1051              	.L83:
ARM GAS  C:\Users\Misha\AppData\Local\Temp\ccbcIC6d.s 			page 29


 235:navigation.c  ****                 distanceSensor(FRONT_RIGHT);
 1052              		.loc 1 235 0
 1053 00fa 072C     		cmp	r4, #7
 1054 00fc 0DD1     		bne	.L85
 235:navigation.c  ****                 distanceSensor(FRONT_RIGHT);
 1055              		.loc 1 235 0 is_stmt 0 discriminator 1
 1056 00fe 069B     		ldr	r3, [sp, #24]
 1057 0100 5BB9     		cbnz	r3, .L85
 236:navigation.c  ****                 CyDelay(50);
 1058              		.loc 1 236 0 is_stmt 1
 1059 0102 0120     		movs	r0, #1
 1060 0104 FFF7FEFF 		bl	distanceSensor
 1061              	.LVL183:
 237:navigation.c  ****                 distance_sensor = sensor_distances[ultrasonic_sensor];   // checks the distance mea
 1062              		.loc 1 237 0
 1063 0108 3220     		movs	r0, #50
 1064 010a FFF7FEFF 		bl	CyDelay
 1065              	.LVL184:
 238:navigation.c  ****                 front_sensor_flag = TRUE;
 1066              		.loc 1 238 0
 1067 010e 784B     		ldr	r3, .L102+24
 1068 0110 53F82450 		ldr	r5, [r3, r4, lsl #2]
 1069              	.LVL185:
 239:navigation.c  ****             }
 1070              		.loc 1 239 0
 1071 0114 0123     		movs	r3, #1
 1072 0116 0693     		str	r3, [sp, #24]
 1073 0118 10E0     		b	.L84
 1074              	.LVL186:
 1075              	.L85:
 242:navigation.c  ****                 CyDelay(50);
 1076              		.loc 1 242 0
 1077 011a 2046     		mov	r0, r4
 1078 011c FFF7FEFF 		bl	distanceSensor
 1079              	.LVL187:
 243:navigation.c  ****                 distance_sensor = sensor_distances[ultrasonic_sensor];   // checks the distance mea
 1080              		.loc 1 243 0
 1081 0120 3220     		movs	r0, #50
 1082 0122 FFF7FEFF 		bl	CyDelay
 1083              	.LVL188:
 244:navigation.c  ****                 sprintf(output, "%d \t", distance_sensor);       
 1084              		.loc 1 244 0
 1085 0126 724B     		ldr	r3, .L102+24
 1086 0128 53F82450 		ldr	r5, [r3, r4, lsl #2]
 1087              	.LVL189:
 245:navigation.c  ****                 UART_1_PutString(output);
 1088              		.loc 1 245 0
 1089 012c 2A46     		mov	r2, r5
 1090 012e 7249     		ldr	r1, .L102+32
 1091 0130 7048     		ldr	r0, .L102+28
 1092 0132 FFF7FEFF 		bl	sprintf
 1093              	.LVL190:
 246:navigation.c  ****             }
 1094              		.loc 1 246 0
 1095 0136 6F48     		ldr	r0, .L102+28
 1096 0138 FFF7FEFF 		bl	UART_1_PutString
 1097              	.LVL191:
ARM GAS  C:\Users\Misha\AppData\Local\Temp\ccbcIC6d.s 			page 30


 1098              	.L84:
 256:navigation.c  ****                                         && failsafe_alternator == TRUE 
 1099              		.loc 1 256 0
 1100 013c 3846     		mov	r0, r7
 1101 013e FFF7FEFF 		bl	__aeabi_i2d
 1102              	.LVL192:
 1103 0142 CDE90201 		strd	r0, [sp, #8]
 1104 0146 0198     		ldr	r0, [sp, #4]
 1105 0148 FFF7FEFF 		bl	__aeabi_i2d
 1106              	.LVL193:
 1107 014c 62A3     		adr	r3, .L102
 1108 014e D3E90023 		ldrd	r2, [r3]
 1109 0152 FFF7FEFF 		bl	__aeabi_dadd
 1110              	.LVL194:
 1111 0156 0022     		movs	r2, #0
 1112 0158 684B     		ldr	r3, .L102+36
 1113 015a FFF7FEFF 		bl	__aeabi_dsub
 1114              	.LVL195:
 1115 015e 0246     		mov	r2, r0
 1116 0160 0B46     		mov	r3, r1
 1117 0162 DDE90201 		ldrd	r0, [sp, #8]
 1118 0166 FFF7FEFF 		bl	__aeabi_dcmpgt
 1119              	.LVL196:
 1120 016a 88B1     		cbz	r0, .L79
 258:navigation.c  ****                 emergency_exit = failsafe(direction);
 1121              		.loc 1 258 0
 1122 016c 139B     		ldr	r3, [sp, #76]
 1123 016e 012B     		cmp	r3, #1
 1124 0170 0ED1     		bne	.L79
 259:navigation.c  ****                 old_count = count_left;
 1125              		.loc 1 259 0
 1126 0172 0798     		ldr	r0, [sp, #28]
 1127 0174 FFF7FEFF 		bl	failsafe
 1128              	.LVL197:
 1129 0178 8046     		mov	r8, r0
 1130              	.LVL198:
 260:navigation.c  ****                 //failsafe_alternator = FALSE;
 1131              		.loc 1 260 0
 1132 017a 049B     		ldr	r3, [sp, #16]
 1133 017c 0193     		str	r3, [sp, #4]
 1134 017e 07E0     		b	.L79
 1135              	.LVL199:
 1136              	.L96:
 1137              	.LBE2:
 1138 0180 B246     		mov	r10, r6
 1139 0182 B146     		mov	r9, r6
 1140 0184 0027     		movs	r7, #0
 1141 0186 6FF4A763 		mvn	r3, #1336
 1142 018a 0193     		str	r3, [sp, #4]
 1143 018c 0697     		str	r7, [sp, #24]
 1144 018e B846     		mov	r8, r7
 1145              	.LVL200:
 1146              	.L79:
 209:navigation.c  ****             
 1147              		.loc 1 209 0
 1148 0190 8BEAEB73 		eor	r3, fp, fp, asr #31
 1149 0194 A3EBEB73 		sub	r3, r3, fp, asr #31
ARM GAS  C:\Users\Misha\AppData\Local\Temp\ccbcIC6d.s 			page 31


 1150 0198 9D42     		cmp	r5, r3
 1151 019a 05DA     		bge	.L99
 209:navigation.c  ****             
 1152              		.loc 1 209 0 is_stmt 0 discriminator 1
 1153 019c B8F1000F 		cmp	r8, #0
 1154 01a0 3FF47BAF 		beq	.L88
 1155 01a4 4746     		mov	r7, r8
 1156 01a6 00E0     		b	.L80
 1157              	.L99:
 1158 01a8 4746     		mov	r7, r8
 1159              	.LVL201:
 1160              	.L80:
 277:navigation.c  ****         //UART_1_PutString("\n LESS THAN LOOP: \n");
 1161              		.loc 1 277 0 is_stmt 1
 1162 01aa 059B     		ldr	r3, [sp, #20]
 1163 01ac 012B     		cmp	r3, #1
 1164 01ae 5CD1     		bne	.L90
 1165 01b0 B846     		mov	r8, r7
 1166 01b2 51E0     		b	.L89
 1167              	.LVL202:
 1168              	.L95:
 1169              	.LBB3:
 281:navigation.c  ****             count_right = Motor_Right_Decoder_GetCounter();
 1170              		.loc 1 281 0
 1171 01b4 FFF7FEFF 		bl	Motor_Left_Decoder_GetCounter
 1172              	.LVL203:
 1173 01b8 0746     		mov	r7, r0
 1174 01ba 0490     		str	r0, [sp, #16]
 1175              	.LVL204:
 282:navigation.c  ****             
 1176              		.loc 1 282 0
 1177 01bc FFF7FEFF 		bl	Motor_Right_Decoder_GetCounter
 1178              	.LVL205:
 285:navigation.c  ****                 speed_left = speed - ADJUST;
 1179              		.loc 1 285 0
 1180 01c0 002F     		cmp	r7, #0
 1181 01c2 B8BF     		it	lt
 1182 01c4 7F42     		rsblt	r7, r7, #0
 1183              	.LVL206:
 1184 01c6 0028     		cmp	r0, #0
 1185 01c8 B8BF     		it	lt
 1186 01ca 4042     		rsblt	r0, r0, #0
 1187              	.LVL207:
 1188 01cc 8742     		cmp	r7, r0
 1189 01ce 03DD     		ble	.L91
 286:navigation.c  ****                 speed_right = speed + ADJUST;
 1190              		.loc 1 286 0
 1191 01d0 A6F10409 		sub	r9, r6, #4
 1192              	.LVL208:
 287:navigation.c  ****             }        
 1193              		.loc 1 287 0
 1194 01d4 06F1040A 		add	r10, r6, #4
 1195              	.LVL209:
 1196              	.L91:
 289:navigation.c  ****                     speed_right = speed - ADJUST;              // If the speeds are equal, we decre
 1197              		.loc 1 289 0
 1198 01d8 8742     		cmp	r7, r0
ARM GAS  C:\Users\Misha\AppData\Local\Temp\ccbcIC6d.s 			page 32


 1199 01da 03DA     		bge	.L92
 290:navigation.c  ****                                                         // adjust tolerance 
 1200              		.loc 1 290 0
 1201 01dc A6F1040A 		sub	r10, r6, #4
 1202              	.LVL210:
 292:navigation.c  ****             }
 1203              		.loc 1 292 0
 1204 01e0 06F10409 		add	r9, r6, #4
 1205              	.LVL211:
 1206              	.L92:
 296:navigation.c  ****             Motor_Right_Driver_WriteCompare(speed_right);
 1207              		.loc 1 296 0
 1208 01e4 5FFA89F0 		uxtb	r0, r9
 1209 01e8 FFF7FEFF 		bl	Motor_Left_Driver_WriteCompare
 1210              	.LVL212:
 297:navigation.c  ****             
 1211              		.loc 1 297 0
 1212 01ec 5FFA8AF0 		uxtb	r0, r10
 1213 01f0 FFF7FEFF 		bl	Motor_Right_Driver_WriteCompare
 1214              	.LVL213:
 299:navigation.c  ****             CyDelay(50);
 1215              		.loc 1 299 0
 1216 01f4 2046     		mov	r0, r4
 1217 01f6 FFF7FEFF 		bl	distanceSensor
 1218              	.LVL214:
 300:navigation.c  ****             distance_sensor = sensor_distances[ultrasonic_sensor];   // checks the distance measure
 1219              		.loc 1 300 0
 1220 01fa 3220     		movs	r0, #50
 1221 01fc FFF7FEFF 		bl	CyDelay
 1222              	.LVL215:
 301:navigation.c  ****             sprintf(output, "%d \t", distance_sensor);       
 1223              		.loc 1 301 0
 1224 0200 3B4B     		ldr	r3, .L102+24
 1225 0202 53F82450 		ldr	r5, [r3, r4, lsl #2]
 1226              	.LVL216:
 302:navigation.c  ****             UART_1_PutString(output);
 1227              		.loc 1 302 0
 1228 0206 2A46     		mov	r2, r5
 1229 0208 3B49     		ldr	r1, .L102+32
 1230 020a 3A48     		ldr	r0, .L102+28
 1231 020c FFF7FEFF 		bl	sprintf
 1232              	.LVL217:
 303:navigation.c  ****             
 1233              		.loc 1 303 0
 1234 0210 3848     		ldr	r0, .L102+28
 1235 0212 FFF7FEFF 		bl	UART_1_PutString
 1236              	.LVL218:
 312:navigation.c  ****                                         && failsafe_alternator == TRUE 
 1237              		.loc 1 312 0
 1238 0216 3846     		mov	r0, r7
 1239 0218 FFF7FEFF 		bl	__aeabi_i2d
 1240              	.LVL219:
 1241 021c CDE90201 		strd	r0, [sp, #8]
 1242 0220 0198     		ldr	r0, [sp, #4]
 1243 0222 FFF7FEFF 		bl	__aeabi_i2d
 1244              	.LVL220:
 1245 0226 2EA3     		adr	r3, .L102+8
ARM GAS  C:\Users\Misha\AppData\Local\Temp\ccbcIC6d.s 			page 33


 1246 0228 D3E90023 		ldrd	r2, [r3]
 1247 022c FFF7FEFF 		bl	__aeabi_dadd
 1248              	.LVL221:
 1249 0230 0022     		movs	r2, #0
 1250 0232 324B     		ldr	r3, .L102+36
 1251 0234 FFF7FEFF 		bl	__aeabi_dsub
 1252              	.LVL222:
 1253 0238 0246     		mov	r2, r0
 1254 023a 0B46     		mov	r3, r1
 1255 023c DDE90201 		ldrd	r0, [sp, #8]
 1256 0240 FFF7FEFF 		bl	__aeabi_dcmpgt
 1257              	.LVL223:
 1258 0244 40B1     		cbz	r0, .L89
 314:navigation.c  ****                 emergency_exit = failsafe(direction);
 1259              		.loc 1 314 0
 1260 0246 139B     		ldr	r3, [sp, #76]
 1261 0248 012B     		cmp	r3, #1
 1262 024a 05D1     		bne	.L89
 315:navigation.c  ****                 old_count = count_left;
 1263              		.loc 1 315 0
 1264 024c 0798     		ldr	r0, [sp, #28]
 1265 024e FFF7FEFF 		bl	failsafe
 1266              	.LVL224:
 1267 0252 8046     		mov	r8, r0
 1268              	.LVL225:
 316:navigation.c  ****                 //failsafe_alternator = FALSE;
 1269              		.loc 1 316 0
 1270 0254 049B     		ldr	r3, [sp, #16]
 1271 0256 0193     		str	r3, [sp, #4]
 1272              	.LVL226:
 1273              	.L89:
 1274              	.LBE3:
 279:navigation.c  ****             
 1275              		.loc 1 279 0
 1276 0258 8BEAEB73 		eor	r3, fp, fp, asr #31
 1277 025c A3EBEB73 		sub	r3, r3, fp, asr #31
 1278 0260 9D42     		cmp	r5, r3
 1279 0262 02DD     		ble	.L90
 279:navigation.c  ****             
 1280              		.loc 1 279 0 is_stmt 0 discriminator 1
 1281 0264 B8F1000F 		cmp	r8, #0
 1282 0268 A4D0     		beq	.L95
 1283              	.LVL227:
 1284              	.L90:
 341:navigation.c  ****     CyDelay(50);
 1285              		.loc 1 341 0 is_stmt 1
 1286 026a 2046     		mov	r0, r4
 1287 026c FFF7FEFF 		bl	distanceSensor
 1288              	.LVL228:
 342:navigation.c  ****     distance_sensor = sensor_distances[ultrasonic_sensor];   // checks the distance measured by the
 1289              		.loc 1 342 0
 1290 0270 3220     		movs	r0, #50
 1291 0272 FFF7FEFF 		bl	CyDelay
 1292              	.LVL229:
 344:navigation.c  ****     UART_1_PutString(output);
 1293              		.loc 1 344 0
 1294 0276 1F4D     		ldr	r5, .L102+28
ARM GAS  C:\Users\Misha\AppData\Local\Temp\ccbcIC6d.s 			page 34


 1295 0278 1D4B     		ldr	r3, .L102+24
 1296 027a 53F82420 		ldr	r2, [r3, r4, lsl #2]
 1297 027e 2049     		ldr	r1, .L102+40
 1298 0280 2846     		mov	r0, r5
 1299 0282 FFF7FEFF 		bl	sprintf
 1300              	.LVL230:
 345:navigation.c  ****     
 1301              		.loc 1 345 0
 1302 0286 2846     		mov	r0, r5
 1303 0288 FFF7FEFF 		bl	UART_1_PutString
 1304              	.LVL231:
 347:navigation.c  ****     global_distance = global_encoder/ENCODER_MULTIPLIER;        // tells us how far we travelled in
 1305              		.loc 1 347 0
 1306 028c FFF7FEFF 		bl	Motor_Left_Decoder_GetCounter
 1307              	.LVL232:
 1308 0290 0446     		mov	r4, r0
 1309              	.LVL233:
 1310 0292 1C4B     		ldr	r3, .L102+44
 1311 0294 1860     		str	r0, [r3]
 348:navigation.c  ****     
 1312              		.loc 1 348 0
 1313 0296 FFF7FEFF 		bl	__aeabi_i2d
 1314              	.LVL234:
 1315 029a 13A3     		adr	r3, .L102+16
 1316 029c D3E90023 		ldrd	r2, [r3]
 1317 02a0 FFF7FEFF 		bl	__aeabi_ddiv
 1318              	.LVL235:
 1319 02a4 FFF7FEFF 		bl	__aeabi_d2iz
 1320              	.LVL236:
 1321 02a8 174B     		ldr	r3, .L102+48
 1322 02aa 1860     		str	r0, [r3]
 350:navigation.c  ****     UART_1_PutString(output);
 1323              		.loc 1 350 0
 1324 02ac 2246     		mov	r2, r4
 1325 02ae 1749     		ldr	r1, .L102+52
 1326 02b0 2846     		mov	r0, r5
 1327 02b2 FFF7FEFF 		bl	sprintf
 1328              	.LVL237:
 351:navigation.c  ****     
 1329              		.loc 1 351 0
 1330 02b6 2846     		mov	r0, r5
 1331 02b8 FFF7FEFF 		bl	UART_1_PutString
 1332              	.LVL238:
 354:navigation.c  ****     Motor_Right_Decoder_SetCounter(0);   
 1333              		.loc 1 354 0
 1334 02bc 0020     		movs	r0, #0
 1335 02be FFF7FEFF 		bl	Motor_Left_Decoder_SetCounter
 1336              	.LVL239:
 355:navigation.c  ****     
 1337              		.loc 1 355 0
 1338 02c2 0020     		movs	r0, #0
 1339 02c4 FFF7FEFF 		bl	Motor_Right_Decoder_SetCounter
 1340              	.LVL240:
 357:navigation.c  ****     Motor_Right_Driver_Sleep();
 1341              		.loc 1 357 0
 1342 02c8 FFF7FEFF 		bl	Motor_Left_Driver_Sleep
 1343              	.LVL241:
ARM GAS  C:\Users\Misha\AppData\Local\Temp\ccbcIC6d.s 			page 35


 358:navigation.c  ****     
 1344              		.loc 1 358 0
 1345 02cc FFF7FEFF 		bl	Motor_Right_Driver_Sleep
 1346              	.LVL242:
 360:navigation.c  **** 
 1347              		.loc 1 360 0
 1348 02d0 09B0     		add	sp, sp, #36
 1349              		.cfi_def_cfa_offset 36
 1350              		@ sp needed
 1351 02d2 BDE8F08F 		pop	{r4, r5, r6, r7, r8, r9, r10, fp, pc}
 1352              	.LVL243:
 1353              	.L103:
 1354 02d6 00BF     		.align	3
 1355              	.L102:
 1356 02d8 CCCCCCCC 		.word	-858993460
 1357 02dc CC137540 		.word	1081414604
 1358 02e0 F6285C8F 		.word	-1889785610
 1359 02e4 C2C56B40 		.word	1080804802
 1360 02e8 295C8FC2 		.word	-1030792151
 1361 02ec F5281540 		.word	1075128565
 1362 02f0 00000000 		.word	sensor_distances
 1363 02f4 00000000 		.word	output
 1364 02f8 28000000 		.word	.LC2
 1365 02fc 00005940 		.word	1079574528
 1366 0300 30000000 		.word	.LC3
 1367 0304 00000000 		.word	global_encoder
 1368 0308 00000000 		.word	global_distance
 1369 030c 3C000000 		.word	.LC4
 1370              		.cfi_endproc
 1371              	.LFE67:
 1372              		.size	moveUntil, .-moveUntil
 1373              		.section	.text.straightAdjust,"ax",%progbits
 1374              		.align	2
 1375              		.global	straightAdjust
 1376              		.thumb
 1377              		.thumb_func
 1378              		.type	straightAdjust, %function
 1379              	straightAdjust:
 1380              	.LFB72:
 488:navigation.c  **** 
 489:navigation.c  **** void failsafeSideSensors(int side_sensing, int initial_value) {
 490:navigation.c  ****     
 491:navigation.c  ****     int drift_tolerance = 10;     // 10mm
 492:navigation.c  ****     int translate_direction;
 493:navigation.c  ****     
 494:navigation.c  ****     if (side_sensing == SIDE_LEFT) {translate_direction = RIGHT;} else { translate_direction = LEFT
 495:navigation.c  ****     
 496:navigation.c  ****         // SAFETY OVERRIDE:
 497:navigation.c  ****     if(safety_override == TRUE){
 498:navigation.c  ****         return;
 499:navigation.c  ****     }
 500:navigation.c  ****     
 501:navigation.c  ****     distanceSensor(side_sensing);
 502:navigation.c  ****     CyDelay(50);
 503:navigation.c  ****     
 504:navigation.c  ****     if (sensor_distances[side_sensing] > initial_value + drift_tolerance 
 505:navigation.c  ****                 || sensor_distances[side_sensing] < initial_value - drift_tolerance ){
ARM GAS  C:\Users\Misha\AppData\Local\Temp\ccbcIC6d.s 			page 36


 506:navigation.c  ****         // If it has drifted more than 10mm either side from the initial value, we perform a straig
 507:navigation.c  ****         //translateUntil(initial_value, translate_direction, GREATER_THAN,side_sensing,SPEED);   //
 508:navigation.c  ****                                                                                 // if this got trip
 509:navigation.c  ****         //translateMoveDynamic(translate_direction, 30, SPEED, FALSE);          // these are not th
 510:navigation.c  ****         straightAdjust(FRONT_SENSORS);                                          // straight adjust 
 511:navigation.c  ****         
 512:navigation.c  ****     }
 513:navigation.c  **** }
 514:navigation.c  **** 
 515:navigation.c  **** void straightAdjust(int front_back) {
 1381              		.loc 1 515 0
 1382              		.cfi_startproc
 1383              		@ args = 0, pretend = 0, frame = 0
 1384              		@ frame_needed = 0, uses_anonymous_args = 0
 1385              	.LVL244:
 1386 0000 2DE9F041 		push	{r4, r5, r6, r7, r8, lr}
 1387              		.cfi_def_cfa_offset 24
 1388              		.cfi_offset 4, -24
 1389              		.cfi_offset 5, -20
 1390              		.cfi_offset 6, -16
 1391              		.cfi_offset 7, -12
 1392              		.cfi_offset 8, -8
 1393              		.cfi_offset 14, -4
 1394 0004 82B0     		sub	sp, sp, #8
 1395              		.cfi_def_cfa_offset 32
 1396 0006 0446     		mov	r4, r0
 1397              	.LVL245:
 516:navigation.c  ****        
 517:navigation.c  ****     int sensor_left; 
 518:navigation.c  ****     int sensor_right;
 519:navigation.c  ****     int difference = 300;
 520:navigation.c  ****     int tolerance = 2;
 521:navigation.c  ****     int max_difference = 800;
 522:navigation.c  ****     int ultra_delay = 50;
 523:navigation.c  ****     int speed = 25;
 524:navigation.c  ****     int timer;
 525:navigation.c  ****     Timer_straight_adjust_Start();      // Starts counting the timer 
 1398              		.loc 1 525 0
 1399 0008 FFF7FEFF 		bl	Timer_straight_adjust_Start
 1400              	.LVL246:
 526:navigation.c  ****     
 527:navigation.c  ****     // Are we adjusting with the back or front sensors: 
 528:navigation.c  ****     if (front_back == FRONT_SENSORS) {
 1401              		.loc 1 528 0
 1402 000c 072C     		cmp	r4, #7
 1403 000e 02D1     		bne	.L116
 529:navigation.c  ****         sensor_left = FRONT_LEFT;
 530:navigation.c  ****         sensor_right = FRONT_RIGHT;
 1404              		.loc 1 530 0
 1405 0010 0126     		movs	r6, #1
 529:navigation.c  ****         sensor_left = FRONT_LEFT;
 1406              		.loc 1 529 0
 1407 0012 0025     		movs	r5, #0
 1408 0014 01E0     		b	.L105
 1409              	.L116:
 531:navigation.c  ****     }
 532:navigation.c  ****     else {
ARM GAS  C:\Users\Misha\AppData\Local\Temp\ccbcIC6d.s 			page 37


 533:navigation.c  ****         sensor_left = BACK_RIGHT;       // THEY ARE SWAPPED AROUND AS A FIX 
 534:navigation.c  ****         sensor_right = BACK_LEFT;
 1410              		.loc 1 534 0
 1411 0016 0626     		movs	r6, #6
 533:navigation.c  ****         sensor_right = BACK_LEFT;
 1412              		.loc 1 533 0
 1413 0018 0425     		movs	r5, #4
 1414              	.L105:
 529:navigation.c  ****         sensor_left = FRONT_LEFT;
 1415              		.loc 1 529 0
 1416 001a 4FF49674 		mov	r4, #300
 1417              	.LVL247:
 1418 001e 2EE0     		b	.L106
 1419              	.LVL248:
 1420              	.L107:
 535:navigation.c  ****     }
 536:navigation.c  ****           
 537:navigation.c  ****     // Ensure the initial readings are accurate: 
 538:navigation.c  ****     while (abs(difference) > max_difference) {              
 539:navigation.c  ****         distanceSensor(sensor_left);
 1421              		.loc 1 539 0
 1422 0020 2846     		mov	r0, r5
 1423 0022 FFF7FEFF 		bl	distanceSensor
 1424              	.LVL249:
 540:navigation.c  ****         CyDelay(50);                        // 50ms might not be enough ???
 1425              		.loc 1 540 0
 1426 0026 3220     		movs	r0, #50
 1427 0028 FFF7FEFF 		bl	CyDelay
 1428              	.LVL250:
 541:navigation.c  ****         sprintf(output, "%d \t", sensor_distances[sensor_left]);
 1429              		.loc 1 541 0
 1430 002c 674C     		ldr	r4, .L118
 1431              	.LVL251:
 1432 002e DFF8B481 		ldr	r8, .L118+24
 1433 0032 674F     		ldr	r7, .L118+4
 1434 0034 54F82520 		ldr	r2, [r4, r5, lsl #2]
 1435 0038 4146     		mov	r1, r8
 1436 003a 3846     		mov	r0, r7
 1437 003c FFF7FEFF 		bl	sprintf
 1438              	.LVL252:
 542:navigation.c  ****         UART_1_PutString(output);
 1439              		.loc 1 542 0
 1440 0040 3846     		mov	r0, r7
 1441 0042 FFF7FEFF 		bl	UART_1_PutString
 1442              	.LVL253:
 543:navigation.c  ****         
 544:navigation.c  ****         distanceSensor(sensor_right);
 1443              		.loc 1 544 0
 1444 0046 3046     		mov	r0, r6
 1445 0048 FFF7FEFF 		bl	distanceSensor
 1446              	.LVL254:
 545:navigation.c  ****         CyDelay(50);
 1447              		.loc 1 545 0
 1448 004c 3220     		movs	r0, #50
 1449 004e FFF7FEFF 		bl	CyDelay
 1450              	.LVL255:
 546:navigation.c  ****         sprintf(output, "%d \t", sensor_distances[sensor_right]);
ARM GAS  C:\Users\Misha\AppData\Local\Temp\ccbcIC6d.s 			page 38


 1451              		.loc 1 546 0
 1452 0052 54F82620 		ldr	r2, [r4, r6, lsl #2]
 1453 0056 4146     		mov	r1, r8
 1454 0058 3846     		mov	r0, r7
 1455 005a FFF7FEFF 		bl	sprintf
 1456              	.LVL256:
 547:navigation.c  ****         UART_1_PutString(output);
 1457              		.loc 1 547 0
 1458 005e 3846     		mov	r0, r7
 1459 0060 FFF7FEFF 		bl	UART_1_PutString
 1460              	.LVL257:
 548:navigation.c  ****         
 549:navigation.c  ****         difference = sensor_distances[sensor_left] - sensor_distances[sensor_right];
 1461              		.loc 1 549 0
 1462 0064 54F82520 		ldr	r2, [r4, r5, lsl #2]
 1463 0068 54F82630 		ldr	r3, [r4, r6, lsl #2]
 1464 006c D41A     		subs	r4, r2, r3
 1465              	.LVL258:
 550:navigation.c  ****         sprintf(output, "difference = %d, \n", difference);       
 1466              		.loc 1 550 0
 1467 006e 2246     		mov	r2, r4
 1468 0070 5849     		ldr	r1, .L118+8
 1469 0072 3846     		mov	r0, r7
 1470 0074 FFF7FEFF 		bl	sprintf
 1471              	.LVL259:
 551:navigation.c  ****         UART_1_PutString(output);
 1472              		.loc 1 551 0
 1473 0078 3846     		mov	r0, r7
 1474 007a FFF7FEFF 		bl	UART_1_PutString
 1475              	.LVL260:
 1476              	.L106:
 538:navigation.c  ****         distanceSensor(sensor_left);
 1477              		.loc 1 538 0
 1478 007e 84EAE473 		eor	r3, r4, r4, asr #31
 1479 0082 A3EBE473 		sub	r3, r3, r4, asr #31
 1480 0086 B3F5487F 		cmp	r3, #800
 1481 008a C9DC     		bgt	.L107
 1482              	.LVL261:
 552:navigation.c  ****     }
 553:navigation.c  ****         
 554:navigation.c  ****     
 555:navigation.c  ****     // Adjust against the wall: 
 556:navigation.c  ****     int speed_left = speed;        // slow speed
 557:navigation.c  ****     int speed_right = speed;
 558:navigation.c  ****     
 559:navigation.c  ****     
 560:navigation.c  ****     Motor_Left_Driver_Wakeup();
 1483              		.loc 1 560 0
 1484 008c FFF7FEFF 		bl	Motor_Left_Driver_Wakeup
 1485              	.LVL262:
 561:navigation.c  ****     Motor_Left_Driver_WriteCompare(speed_left);
 1486              		.loc 1 561 0
 1487 0090 1920     		movs	r0, #25
 1488 0092 FFF7FEFF 		bl	Motor_Left_Driver_WriteCompare
 1489              	.LVL263:
 562:navigation.c  ****     Motor_Right_Driver_Wakeup();
 1490              		.loc 1 562 0
ARM GAS  C:\Users\Misha\AppData\Local\Temp\ccbcIC6d.s 			page 39


 1491 0096 FFF7FEFF 		bl	Motor_Right_Driver_Wakeup
 1492              	.LVL264:
 563:navigation.c  ****     Motor_Right_Driver_WriteCompare(speed_right);
 1493              		.loc 1 563 0
 1494 009a 1920     		movs	r0, #25
 1495 009c FFF7FEFF 		bl	Motor_Right_Driver_WriteCompare
 1496              	.LVL265:
 564:navigation.c  ****         
 565:navigation.c  ****     while(abs(difference) > tolerance ) {
 1497              		.loc 1 565 0
 1498 00a0 89E0     		b	.L108
 1499              	.L115:
 566:navigation.c  ****         
 567:navigation.c  ****         if (difference > 0)             // This means we need to move it right
 1500              		.loc 1 567 0
 1501 00a2 002C     		cmp	r4, #0
 1502 00a4 24DD     		ble	.L109
 568:navigation.c  ****         {
 569:navigation.c  ****             Motor_Left_Control_Write(0); Motor_Right_Control_Write(1); 
 1503              		.loc 1 569 0
 1504 00a6 0020     		movs	r0, #0
 1505 00a8 FFF7FEFF 		bl	Motor_Left_Control_Write
 1506              	.LVL266:
 1507 00ac 0120     		movs	r0, #1
 1508 00ae FFF7FEFF 		bl	Motor_Right_Control_Write
 1509              	.LVL267:
 570:navigation.c  ****              
 571:navigation.c  ****             while (abs(difference) > tolerance 
 1510              		.loc 1 571 0
 1511 00b2 11E0     		b	.L110
 1512              	.L112:
 572:navigation.c  ****                 && difference > 0
 573:navigation.c  ****                 && abs(difference) < max_difference)     // ensures working correctly
 574:navigation.c  ****             {
 575:navigation.c  **** 
 576:navigation.c  ****             distanceSensor(sensor_left);
 1513              		.loc 1 576 0
 1514 00b4 2846     		mov	r0, r5
 1515 00b6 FFF7FEFF 		bl	distanceSensor
 1516              	.LVL268:
 577:navigation.c  ****             CyDelay(ultra_delay);
 1517              		.loc 1 577 0
 1518 00ba 3220     		movs	r0, #50
 1519 00bc FFF7FEFF 		bl	CyDelay
 1520              	.LVL269:
 578:navigation.c  ****             distanceSensor(sensor_right);
 1521              		.loc 1 578 0
 1522 00c0 3046     		mov	r0, r6
 1523 00c2 FFF7FEFF 		bl	distanceSensor
 1524              	.LVL270:
 579:navigation.c  ****             CyDelay(ultra_delay);
 1525              		.loc 1 579 0
 1526 00c6 3220     		movs	r0, #50
 1527 00c8 FFF7FEFF 		bl	CyDelay
 1528              	.LVL271:
 580:navigation.c  ****                       
 581:navigation.c  ****             difference = sensor_distances[sensor_left] - sensor_distances[sensor_right];
ARM GAS  C:\Users\Misha\AppData\Local\Temp\ccbcIC6d.s 			page 40


 1529              		.loc 1 581 0
 1530 00cc 3F4B     		ldr	r3, .L118
 1531 00ce 53F82540 		ldr	r4, [r3, r5, lsl #2]
 1532              	.LVL272:
 1533 00d2 53F82630 		ldr	r3, [r3, r6, lsl #2]
 1534 00d6 E41A     		subs	r4, r4, r3
 1535              	.LVL273:
 1536              	.L110:
 571:navigation.c  ****                 && difference > 0
 1537              		.loc 1 571 0
 1538 00d8 84EAE473 		eor	r3, r4, r4, asr #31
 1539 00dc A3EBE473 		sub	r3, r3, r4, asr #31
 1540 00e0 022B     		cmp	r3, #2
 1541 00e2 46DD     		ble	.L111
 572:navigation.c  ****                 && abs(difference) < max_difference)     // ensures working correctly
 1542              		.loc 1 572 0
 1543 00e4 002C     		cmp	r4, #0
 1544 00e6 44DD     		ble	.L111
 573:navigation.c  ****             {
 1545              		.loc 1 573 0
 1546 00e8 B3F5487F 		cmp	r3, #800
 1547 00ec E2DB     		blt	.L112
 1548 00ee 40E0     		b	.L111
 1549              	.L109:
 582:navigation.c  ****             }
 583:navigation.c  ****            
 584:navigation.c  ****         }
 585:navigation.c  ****         else if (difference < 0 ){      // HERE we are turning left
 1550              		.loc 1 585 0
 1551 00f0 002C     		cmp	r4, #0
 1552 00f2 3EDA     		bge	.L111
 586:navigation.c  ****             Motor_Left_Control_Write(1); Motor_Right_Control_Write(0);
 1553              		.loc 1 586 0
 1554 00f4 0120     		movs	r0, #1
 1555 00f6 FFF7FEFF 		bl	Motor_Left_Control_Write
 1556              	.LVL274:
 1557 00fa 0020     		movs	r0, #0
 1558 00fc FFF7FEFF 		bl	Motor_Right_Control_Write
 1559              	.LVL275:
 587:navigation.c  ****             
 588:navigation.c  ****             distanceSensor(sensor_left);
 1560              		.loc 1 588 0
 1561 0100 2846     		mov	r0, r5
 1562 0102 FFF7FEFF 		bl	distanceSensor
 1563              	.LVL276:
 589:navigation.c  ****             CyDelay(ultra_delay);
 1564              		.loc 1 589 0
 1565 0106 3220     		movs	r0, #50
 1566 0108 FFF7FEFF 		bl	CyDelay
 1567              	.LVL277:
 590:navigation.c  ****             distanceSensor(sensor_right);
 1568              		.loc 1 590 0
 1569 010c 3046     		mov	r0, r6
 1570 010e FFF7FEFF 		bl	distanceSensor
 1571              	.LVL278:
 591:navigation.c  ****             CyDelay(ultra_delay);
 1572              		.loc 1 591 0
ARM GAS  C:\Users\Misha\AppData\Local\Temp\ccbcIC6d.s 			page 41


 1573 0112 3220     		movs	r0, #50
 1574 0114 FFF7FEFF 		bl	CyDelay
 1575              	.LVL279:
 592:navigation.c  ****                       
 593:navigation.c  ****             difference = sensor_distances[sensor_left] - sensor_distances[sensor_right];
 1576              		.loc 1 593 0
 1577 0118 2C4A     		ldr	r2, .L118
 1578 011a 52F82530 		ldr	r3, [r2, r5, lsl #2]
 1579 011e 52F82640 		ldr	r4, [r2, r6, lsl #2]
 1580              	.LVL280:
 1581 0122 1C1B     		subs	r4, r3, r4
 1582              	.LVL281:
 594:navigation.c  ****                        
 595:navigation.c  ****             //sprintf(output, " %d , %d \t dif: %d, \n", sensor_distances[FRONT_LEFT], 
 596:navigation.c  ****             //                                            sensor_distances[FRONT_RIGHT],
 597:navigation.c  ****             //                                                                        difference); 
 598:navigation.c  ****             //UART_1_PutString(output);
 599:navigation.c  ****             
 600:navigation.c  ****             while (abs(difference) > tolerance 
 1583              		.loc 1 600 0
 1584 0124 1AE0     		b	.L113
 1585              	.L114:
 601:navigation.c  ****                         && difference < 0
 602:navigation.c  ****                         && abs(difference) < max_difference) {
 603:navigation.c  ****                 distanceSensor(sensor_left);
 1586              		.loc 1 603 0
 1587 0126 2846     		mov	r0, r5
 1588 0128 FFF7FEFF 		bl	distanceSensor
 1589              	.LVL282:
 604:navigation.c  ****                 CyDelay(ultra_delay);
 1590              		.loc 1 604 0
 1591 012c 3220     		movs	r0, #50
 1592 012e FFF7FEFF 		bl	CyDelay
 1593              	.LVL283:
 605:navigation.c  ****                 distanceSensor(sensor_right);
 1594              		.loc 1 605 0
 1595 0132 3046     		mov	r0, r6
 1596 0134 FFF7FEFF 		bl	distanceSensor
 1597              	.LVL284:
 606:navigation.c  ****                 CyDelay(ultra_delay);
 1598              		.loc 1 606 0
 1599 0138 3220     		movs	r0, #50
 1600 013a FFF7FEFF 		bl	CyDelay
 1601              	.LVL285:
 607:navigation.c  ****                           
 608:navigation.c  ****                 difference = sensor_distances[sensor_left] - sensor_distances[sensor_right];
 1602              		.loc 1 608 0
 1603 013e 234B     		ldr	r3, .L118
 1604 0140 53F82520 		ldr	r2, [r3, r5, lsl #2]
 1605 0144 53F82630 		ldr	r3, [r3, r6, lsl #2]
 1606 0148 D41A     		subs	r4, r2, r3
 1607              	.LVL286:
 609:navigation.c  ****                            
 610:navigation.c  ****                 sprintf(output, " %d , %d \t dif: %d, \n", sensor_distances[sensor_left], 
 1608              		.loc 1 610 0
 1609 014a 214F     		ldr	r7, .L118+4
 1610 014c 0094     		str	r4, [sp]
ARM GAS  C:\Users\Misha\AppData\Local\Temp\ccbcIC6d.s 			page 42


 1611 014e 2249     		ldr	r1, .L118+12
 1612 0150 3846     		mov	r0, r7
 1613 0152 FFF7FEFF 		bl	sprintf
 1614              	.LVL287:
 611:navigation.c  ****                                                             sensor_distances[sensor_right],
 612:navigation.c  ****                                                                                         difference)
 613:navigation.c  ****                 UART_1_PutString(output);
 1615              		.loc 1 613 0
 1616 0156 3846     		mov	r0, r7
 1617 0158 FFF7FEFF 		bl	UART_1_PutString
 1618              	.LVL288:
 1619              	.L113:
 600:navigation.c  ****                         && difference < 0
 1620              		.loc 1 600 0
 1621 015c 84EAE473 		eor	r3, r4, r4, asr #31
 1622 0160 A3EBE473 		sub	r3, r3, r4, asr #31
 1623 0164 022B     		cmp	r3, #2
 1624 0166 04DD     		ble	.L111
 601:navigation.c  ****                         && abs(difference) < max_difference) {
 1625              		.loc 1 601 0
 1626 0168 002C     		cmp	r4, #0
 1627 016a 02DA     		bge	.L111
 602:navigation.c  ****                 distanceSensor(sensor_left);
 1628              		.loc 1 602 0
 1629 016c B3F5487F 		cmp	r3, #800
 1630 0170 D9DB     		blt	.L114
 1631              	.L111:
 614:navigation.c  ****             
 615:navigation.c  ****             }
 616:navigation.c  ****             
 617:navigation.c  ****         }
 618:navigation.c  ****         
 619:navigation.c  ****         // Comes out of the while loop if the max_difference is exceeded, but then the values might
 620:navigation.c  ****         // if max_difference is exceeded, it should probably be forced to swivel the other way to 
 621:navigation.c  ****         // that it was swivelling        
 622:navigation.c  ****         
 623:navigation.c  ****         
 624:navigation.c  ****         // CHECKS one more time to ensure the difference is accurate: 
 625:navigation.c  ****             // consider putting in a for loop to get new readings
 626:navigation.c  ****         distanceSensor(sensor_left);
 1632              		.loc 1 626 0
 1633 0172 2846     		mov	r0, r5
 1634 0174 FFF7FEFF 		bl	distanceSensor
 1635              	.LVL289:
 627:navigation.c  ****         CyDelay(ultra_delay);
 1636              		.loc 1 627 0
 1637 0178 3220     		movs	r0, #50
 1638 017a FFF7FEFF 		bl	CyDelay
 1639              	.LVL290:
 628:navigation.c  ****         distanceSensor(sensor_right);
 1640              		.loc 1 628 0
 1641 017e 3046     		mov	r0, r6
 1642 0180 FFF7FEFF 		bl	distanceSensor
 1643              	.LVL291:
 629:navigation.c  ****         CyDelay(ultra_delay);
 1644              		.loc 1 629 0
 1645 0184 3220     		movs	r0, #50
ARM GAS  C:\Users\Misha\AppData\Local\Temp\ccbcIC6d.s 			page 43


 1646 0186 FFF7FEFF 		bl	CyDelay
 1647              	.LVL292:
 630:navigation.c  ****                       
 631:navigation.c  ****         difference = sensor_distances[sensor_left] - sensor_distances[sensor_right];
 1648              		.loc 1 631 0
 1649 018a 104B     		ldr	r3, .L118
 1650 018c 53F82520 		ldr	r2, [r3, r5, lsl #2]
 1651 0190 53F82630 		ldr	r3, [r3, r6, lsl #2]
 1652 0194 D41A     		subs	r4, r2, r3
 1653              	.LVL293:
 632:navigation.c  ****         sprintf(output, "%d, %d, ", sensor_distances[sensor_left], sensor_distances[sensor_right]);
 1654              		.loc 1 632 0
 1655 0196 0E4F     		ldr	r7, .L118+4
 1656 0198 1049     		ldr	r1, .L118+16
 1657 019a 3846     		mov	r0, r7
 1658 019c FFF7FEFF 		bl	sprintf
 1659              	.LVL294:
 633:navigation.c  ****         UART_1_PutString(output);
 1660              		.loc 1 633 0
 1661 01a0 3846     		mov	r0, r7
 1662 01a2 FFF7FEFF 		bl	UART_1_PutString
 1663              	.LVL295:
 634:navigation.c  ****         sprintf(output, "dif: %d, \n", difference);       
 1664              		.loc 1 634 0
 1665 01a6 2246     		mov	r2, r4
 1666 01a8 0D49     		ldr	r1, .L118+20
 1667 01aa 3846     		mov	r0, r7
 1668 01ac FFF7FEFF 		bl	sprintf
 1669              	.LVL296:
 635:navigation.c  ****         UART_1_PutString(output);
 1670              		.loc 1 635 0
 1671 01b0 3846     		mov	r0, r7
 1672 01b2 FFF7FEFF 		bl	UART_1_PutString
 1673              	.LVL297:
 1674              	.L108:
 565:navigation.c  ****         
 1675              		.loc 1 565 0
 1676 01b6 84EAE473 		eor	r3, r4, r4, asr #31
 1677 01ba A3EBE473 		sub	r3, r3, r4, asr #31
 1678 01be 022B     		cmp	r3, #2
 1679 01c0 3FF76FAF 		bgt	.L115
 636:navigation.c  ****         
 637:navigation.c  ****         // Timer out failsafe: 
 638:navigation.c  ****         
 639:navigation.c  **** 
 640:navigation.c  **** //        timer = Timer_straight_adjust_ReadCounter();
 641:navigation.c  **** //        
 642:navigation.c  **** //        if (timer < 35000) {
 643:navigation.c  **** //            Motor_Left_Driver_Sleep();                  // puts it back to sleep
 644:navigation.c  **** //            Motor_Right_Driver_Sleep();
 645:navigation.c  **** //            moveDynamic(-30,SPEED,TRUE);                // calls movedynamic
 646:navigation.c  **** //            moveDynamic(30, SPEED,TRUE);      
 647:navigation.c  **** //            Motor_Left_Driver_Wakeup();
 648:navigation.c  **** //            Motor_Left_Driver_WriteCompare(speed_left); // brings it back to continue the while l
 649:navigation.c  **** //            Motor_Right_Driver_Wakeup();
 650:navigation.c  **** //            Motor_Right_Driver_WriteCompare(speed_right);
 651:navigation.c  **** //            Control_Reset_Straight_Write(1);            // Resets the timer (I think)
ARM GAS  C:\Users\Misha\AppData\Local\Temp\ccbcIC6d.s 			page 44


 652:navigation.c  **** //            CyDelay(10); 
 653:navigation.c  **** //            Control_Reset_Straight_Write(0);
 654:navigation.c  **** //            
 655:navigation.c  **** //            sprintf(output, "timer count: %d", timer);
 656:navigation.c  **** //            UART_1_PutString(output);
 657:navigation.c  **** //        }
 658:navigation.c  ****         
 659:navigation.c  ****        
 660:navigation.c  ****         
 661:navigation.c  ****         
 662:navigation.c  ****         
 663:navigation.c  ****              // This ensures that the turning worked correctly
 664:navigation.c  ****                                             // changed it from 10 to 2, this might change the way i
 665:navigation.c  ****     }
 666:navigation.c  **** }
 1680              		.loc 1 666 0
 1681 01c4 02B0     		add	sp, sp, #8
 1682              		.cfi_def_cfa_offset 24
 1683              		@ sp needed
 1684 01c6 BDE8F081 		pop	{r4, r5, r6, r7, r8, pc}
 1685              	.LVL298:
 1686              	.L119:
 1687 01ca 00BF     		.align	2
 1688              	.L118:
 1689 01cc 00000000 		.word	sensor_distances
 1690 01d0 00000000 		.word	output
 1691 01d4 50000000 		.word	.LC5
 1692 01d8 64000000 		.word	.LC6
 1693 01dc 7C000000 		.word	.LC7
 1694 01e0 88000000 		.word	.LC8
 1695 01e4 28000000 		.word	.LC2
 1696              		.cfi_endproc
 1697              	.LFE72:
 1698              		.size	straightAdjust, .-straightAdjust
 1699              		.section	.text.failsafeSideSensors,"ax",%progbits
 1700              		.align	2
 1701              		.global	failsafeSideSensors
 1702              		.thumb
 1703              		.thumb_func
 1704              		.type	failsafeSideSensors, %function
 1705              	failsafeSideSensors:
 1706              	.LFB71:
 489:navigation.c  ****     
 1707              		.loc 1 489 0
 1708              		.cfi_startproc
 1709              		@ args = 0, pretend = 0, frame = 0
 1710              		@ frame_needed = 0, uses_anonymous_args = 0
 1711              	.LVL299:
 1712 0000 38B5     		push	{r3, r4, r5, lr}
 1713              		.cfi_def_cfa_offset 16
 1714              		.cfi_offset 3, -16
 1715              		.cfi_offset 4, -12
 1716              		.cfi_offset 5, -8
 1717              		.cfi_offset 14, -4
 1718              	.LVL300:
 497:navigation.c  ****         return;
 1719              		.loc 1 497 0
ARM GAS  C:\Users\Misha\AppData\Local\Temp\ccbcIC6d.s 			page 45


 1720 0002 0C4B     		ldr	r3, .L124
 1721 0004 1B68     		ldr	r3, [r3]
 1722 0006 012B     		cmp	r3, #1
 1723 0008 13D0     		beq	.L120
 1724 000a 0C46     		mov	r4, r1
 1725 000c 0546     		mov	r5, r0
 501:navigation.c  ****     CyDelay(50);
 1726              		.loc 1 501 0
 1727 000e FFF7FEFF 		bl	distanceSensor
 1728              	.LVL301:
 502:navigation.c  ****     
 1729              		.loc 1 502 0
 1730 0012 3220     		movs	r0, #50
 1731 0014 FFF7FEFF 		bl	CyDelay
 1732              	.LVL302:
 504:navigation.c  ****                 || sensor_distances[side_sensing] < initial_value - drift_tolerance ){
 1733              		.loc 1 504 0
 1734 0018 074B     		ldr	r3, .L124+4
 1735 001a 53F82530 		ldr	r3, [r3, r5, lsl #2]
 1736 001e 04F10A02 		add	r2, r4, #10
 1737 0022 9342     		cmp	r3, r2
 1738 0024 02DC     		bgt	.L122
 505:navigation.c  ****         // If it has drifted more than 10mm either side from the initial value, we perform a straig
 1739              		.loc 1 505 0
 1740 0026 0A3C     		subs	r4, r4, #10
 1741              	.LVL303:
 1742 0028 A342     		cmp	r3, r4
 1743 002a 02DA     		bge	.L120
 1744              	.LVL304:
 1745              	.L122:
 510:navigation.c  ****         
 1746              		.loc 1 510 0
 1747 002c 0720     		movs	r0, #7
 1748 002e FFF7FEFF 		bl	straightAdjust
 1749              	.LVL305:
 1750              	.L120:
 1751 0032 38BD     		pop	{r3, r4, r5, pc}
 1752              	.L125:
 1753              		.align	2
 1754              	.L124:
 1755 0034 00000000 		.word	safety_override
 1756 0038 00000000 		.word	sensor_distances
 1757              		.cfi_endproc
 1758              	.LFE71:
 1759              		.size	failsafeSideSensors, .-failsafeSideSensors
 1760              		.section	.text.straightAdjustBlayke,"ax",%progbits
 1761              		.align	2
 1762              		.global	straightAdjustBlayke
 1763              		.thumb
 1764              		.thumb_func
 1765              		.type	straightAdjustBlayke, %function
 1766              	straightAdjustBlayke:
 1767              	.LFB73:
 667:navigation.c  ****         
 668:navigation.c  ****         
 669:navigation.c  **** 
 670:navigation.c  **** void straightAdjustBlayke(int front_back){
ARM GAS  C:\Users\Misha\AppData\Local\Temp\ccbcIC6d.s 			page 46


 1768              		.loc 1 670 0
 1769              		.cfi_startproc
 1770              		@ args = 0, pretend = 0, frame = 0
 1771              		@ frame_needed = 0, uses_anonymous_args = 0
 1772              	.LVL306:
 1773 0000 F8B5     		push	{r3, r4, r5, r6, r7, lr}
 1774              		.cfi_def_cfa_offset 24
 1775              		.cfi_offset 3, -24
 1776              		.cfi_offset 4, -20
 1777              		.cfi_offset 5, -16
 1778              		.cfi_offset 6, -12
 1779              		.cfi_offset 7, -8
 1780              		.cfi_offset 14, -4
 1781              	.LVL307:
 671:navigation.c  ****     int sensor_left; 
 672:navigation.c  ****     int sensor_right;
 673:navigation.c  ****     int difference = 300;
 674:navigation.c  ****     int tolerance = 2;
 675:navigation.c  ****     int max_difference = 800;
 676:navigation.c  ****     int ultra_delay = 50;
 677:navigation.c  ****     int speed = 25;
 678:navigation.c  ****     
 679:navigation.c  ****     // Are we adjusting with the back or front sensors: 
 680:navigation.c  ****     if (front_back == FRONT_SENSORS) {
 1782              		.loc 1 680 0
 1783 0002 0728     		cmp	r0, #7
 1784 0004 02D1     		bne	.L134
 681:navigation.c  ****         sensor_left = FRONT_LEFT;
 682:navigation.c  ****         sensor_right = FRONT_RIGHT;
 1785              		.loc 1 682 0
 1786 0006 0125     		movs	r5, #1
 681:navigation.c  ****         sensor_left = FRONT_LEFT;
 1787              		.loc 1 681 0
 1788 0008 0026     		movs	r6, #0
 1789 000a 01E0     		b	.L127
 1790              	.L134:
 683:navigation.c  ****     }
 684:navigation.c  ****     else {
 685:navigation.c  ****         sensor_left = BACK_RIGHT; // Mirrored from perspective of on the middle of robot looking ou
 686:navigation.c  ****         sensor_right = BACK_LEFT;
 1791              		.loc 1 686 0
 1792 000c 0625     		movs	r5, #6
 685:navigation.c  ****         sensor_right = BACK_LEFT;
 1793              		.loc 1 685 0
 1794 000e 0426     		movs	r6, #4
 1795              	.L127:
 1796              	.LVL308:
 687:navigation.c  ****     }
 688:navigation.c  ****     
 689:navigation.c  ****     // Initialise
 690:navigation.c  ****     distanceSensor(sensor_left);
 1797              		.loc 1 690 0
 1798 0010 3046     		mov	r0, r6
 1799              	.LVL309:
 1800 0012 FFF7FEFF 		bl	distanceSensor
 1801              	.LVL310:
 691:navigation.c  ****     distanceSensor(sensor_right);
ARM GAS  C:\Users\Misha\AppData\Local\Temp\ccbcIC6d.s 			page 47


 1802              		.loc 1 691 0
 1803 0016 2846     		mov	r0, r5
 1804 0018 FFF7FEFF 		bl	distanceSensor
 1805              	.LVL311:
 692:navigation.c  ****     difference = sensor_distances[sensor_left] - sensor_distances[sensor_right];
 1806              		.loc 1 692 0
 1807 001c 384A     		ldr	r2, .L136
 1808 001e 52F82630 		ldr	r3, [r2, r6, lsl #2]
 1809 0022 52F82540 		ldr	r4, [r2, r5, lsl #2]
 1810 0026 1C1B     		subs	r4, r3, r4
 1811              	.LVL312:
 693:navigation.c  **** 
 694:navigation.c  ****     
 695:navigation.c  ****     // Adjust against the wall: 
 696:navigation.c  ****     int speed_left = speed;        // slow speed
 697:navigation.c  ****     int speed_right = speed;
 698:navigation.c  ****     
 699:navigation.c  ****     
 700:navigation.c  ****     Motor_Left_Driver_Wakeup();
 1812              		.loc 1 700 0
 1813 0028 FFF7FEFF 		bl	Motor_Left_Driver_Wakeup
 1814              	.LVL313:
 701:navigation.c  ****     Motor_Left_Driver_WriteCompare(speed_left);
 1815              		.loc 1 701 0
 1816 002c 1920     		movs	r0, #25
 1817 002e FFF7FEFF 		bl	Motor_Left_Driver_WriteCompare
 1818              	.LVL314:
 702:navigation.c  ****     Motor_Right_Driver_Wakeup();
 1819              		.loc 1 702 0
 1820 0032 FFF7FEFF 		bl	Motor_Right_Driver_Wakeup
 1821              	.LVL315:
 703:navigation.c  ****     Motor_Right_Driver_WriteCompare(speed_right);
 1822              		.loc 1 703 0
 1823 0036 1920     		movs	r0, #25
 1824 0038 FFF7FEFF 		bl	Motor_Right_Driver_WriteCompare
 1825              	.LVL316:
 704:navigation.c  ****         
 705:navigation.c  ****     while(abs(difference) > tolerance ) {
 1826              		.loc 1 705 0
 1827 003c 59E0     		b	.L128
 1828              	.L133:
 706:navigation.c  ****         
 707:navigation.c  ****         if (difference > 0)             // This means we need to move it right
 1829              		.loc 1 707 0
 1830 003e 002C     		cmp	r4, #0
 1831 0040 21DD     		ble	.L129
 708:navigation.c  ****         {
 709:navigation.c  ****             Motor_Left_Control_Write(0); Motor_Right_Control_Write(1); 
 1832              		.loc 1 709 0
 1833 0042 0020     		movs	r0, #0
 1834 0044 FFF7FEFF 		bl	Motor_Left_Control_Write
 1835              	.LVL317:
 1836 0048 0120     		movs	r0, #1
 1837 004a FFF7FEFF 		bl	Motor_Right_Control_Write
 1838              	.LVL318:
 710:navigation.c  ****              
 711:navigation.c  ****             while (abs(difference) > tolerance 
ARM GAS  C:\Users\Misha\AppData\Local\Temp\ccbcIC6d.s 			page 48


 1839              		.loc 1 711 0
 1840 004e 11E0     		b	.L130
 1841              	.L132:
 712:navigation.c  ****                 && difference > 0)     // ensures working correctly
 713:navigation.c  ****             {
 714:navigation.c  **** 
 715:navigation.c  ****             distanceSensor(sensor_left);
 1842              		.loc 1 715 0
 1843 0050 3046     		mov	r0, r6
 1844 0052 FFF7FEFF 		bl	distanceSensor
 1845              	.LVL319:
 716:navigation.c  ****             CyDelay(ultra_delay);
 1846              		.loc 1 716 0
 1847 0056 3220     		movs	r0, #50
 1848 0058 FFF7FEFF 		bl	CyDelay
 1849              	.LVL320:
 717:navigation.c  ****             distanceSensor(sensor_right);
 1850              		.loc 1 717 0
 1851 005c 2846     		mov	r0, r5
 1852 005e FFF7FEFF 		bl	distanceSensor
 1853              	.LVL321:
 718:navigation.c  ****             CyDelay(ultra_delay);
 1854              		.loc 1 718 0
 1855 0062 3220     		movs	r0, #50
 1856 0064 FFF7FEFF 		bl	CyDelay
 1857              	.LVL322:
 719:navigation.c  ****                       
 720:navigation.c  ****             difference = sensor_distances[sensor_left] - sensor_distances[sensor_right];
 1858              		.loc 1 720 0
 1859 0068 254A     		ldr	r2, .L136
 1860 006a 52F82630 		ldr	r3, [r2, r6, lsl #2]
 1861 006e 52F82540 		ldr	r4, [r2, r5, lsl #2]
 1862              	.LVL323:
 1863 0072 1C1B     		subs	r4, r3, r4
 1864              	.LVL324:
 1865              	.L130:
 711:navigation.c  ****                 && difference > 0)     // ensures working correctly
 1866              		.loc 1 711 0
 1867 0074 84EAE473 		eor	r3, r4, r4, asr #31
 1868 0078 A3EBE473 		sub	r3, r3, r4, asr #31
 1869 007c 022B     		cmp	r3, #2
 1870 007e 16DD     		ble	.L131
 712:navigation.c  ****             {
 1871              		.loc 1 712 0
 1872 0080 002C     		cmp	r4, #0
 1873 0082 E5DC     		bgt	.L132
 1874 0084 13E0     		b	.L131
 1875              	.L129:
 721:navigation.c  ****             }
 722:navigation.c  ****            
 723:navigation.c  ****         }
 724:navigation.c  ****         else if (difference < 0 ){      // HERE we are turning left
 1876              		.loc 1 724 0
 1877 0086 002C     		cmp	r4, #0
 1878 0088 11DA     		bge	.L131
 725:navigation.c  ****             Motor_Left_Control_Write(1); Motor_Right_Control_Write(0);
 1879              		.loc 1 725 0
ARM GAS  C:\Users\Misha\AppData\Local\Temp\ccbcIC6d.s 			page 49


 1880 008a 0120     		movs	r0, #1
 1881 008c FFF7FEFF 		bl	Motor_Left_Control_Write
 1882              	.LVL325:
 1883 0090 0020     		movs	r0, #0
 1884 0092 FFF7FEFF 		bl	Motor_Right_Control_Write
 1885              	.LVL326:
 726:navigation.c  ****             
 727:navigation.c  ****             distanceSensor(sensor_left);
 1886              		.loc 1 727 0
 1887 0096 3046     		mov	r0, r6
 1888 0098 FFF7FEFF 		bl	distanceSensor
 1889              	.LVL327:
 728:navigation.c  ****             CyDelay(ultra_delay);
 1890              		.loc 1 728 0
 1891 009c 3220     		movs	r0, #50
 1892 009e FFF7FEFF 		bl	CyDelay
 1893              	.LVL328:
 729:navigation.c  ****             distanceSensor(sensor_right);
 1894              		.loc 1 729 0
 1895 00a2 2846     		mov	r0, r5
 1896 00a4 FFF7FEFF 		bl	distanceSensor
 1897              	.LVL329:
 730:navigation.c  ****             CyDelay(ultra_delay);
 1898              		.loc 1 730 0
 1899 00a8 3220     		movs	r0, #50
 1900 00aa FFF7FEFF 		bl	CyDelay
 1901              	.LVL330:
 1902              	.L131:
 731:navigation.c  ****                       
 732:navigation.c  ****             difference = sensor_distances[sensor_left] - sensor_distances[sensor_right];
 733:navigation.c  **** 
 734:navigation.c  ****         }
 735:navigation.c  ****         
 736:navigation.c  ****         // Comes out of the while loop if the max_difference is exceeded, but then the values might
 737:navigation.c  ****         // if max_difference is exceeded, it should probably be forced to swivel the other way to 
 738:navigation.c  ****         // that it was swivelling        
 739:navigation.c  ****         
 740:navigation.c  ****         
 741:navigation.c  ****         // CHECKS one more time to ensure the difference is accurate: 
 742:navigation.c  ****             // consider putting in a for loop to get new readings
 743:navigation.c  ****         distanceSensor(sensor_left);
 1903              		.loc 1 743 0
 1904 00ae 3046     		mov	r0, r6
 1905 00b0 FFF7FEFF 		bl	distanceSensor
 1906              	.LVL331:
 744:navigation.c  ****         CyDelay(ultra_delay);
 1907              		.loc 1 744 0
 1908 00b4 3220     		movs	r0, #50
 1909 00b6 FFF7FEFF 		bl	CyDelay
 1910              	.LVL332:
 745:navigation.c  ****         distanceSensor(sensor_right);
 1911              		.loc 1 745 0
 1912 00ba 2846     		mov	r0, r5
 1913 00bc FFF7FEFF 		bl	distanceSensor
 1914              	.LVL333:
 746:navigation.c  ****         CyDelay(ultra_delay);
 1915              		.loc 1 746 0
ARM GAS  C:\Users\Misha\AppData\Local\Temp\ccbcIC6d.s 			page 50


 1916 00c0 3220     		movs	r0, #50
 1917 00c2 FFF7FEFF 		bl	CyDelay
 1918              	.LVL334:
 747:navigation.c  ****                       
 748:navigation.c  ****         difference = sensor_distances[sensor_left] - sensor_distances[sensor_right];
 1919              		.loc 1 748 0
 1920 00c6 0E4B     		ldr	r3, .L136
 1921 00c8 53F82620 		ldr	r2, [r3, r6, lsl #2]
 1922 00cc 53F82530 		ldr	r3, [r3, r5, lsl #2]
 1923 00d0 D41A     		subs	r4, r2, r3
 1924              	.LVL335:
 749:navigation.c  ****         sprintf(output, "%d, %d, ", sensor_distances[sensor_left], sensor_distances[sensor_right]);
 1925              		.loc 1 749 0
 1926 00d2 0C4F     		ldr	r7, .L136+4
 1927 00d4 0C49     		ldr	r1, .L136+8
 1928 00d6 3846     		mov	r0, r7
 1929 00d8 FFF7FEFF 		bl	sprintf
 1930              	.LVL336:
 750:navigation.c  ****         UART_1_PutString(output);
 1931              		.loc 1 750 0
 1932 00dc 3846     		mov	r0, r7
 1933 00de FFF7FEFF 		bl	UART_1_PutString
 1934              	.LVL337:
 751:navigation.c  ****         sprintf(output, "dif: %d, \n", difference);       
 1935              		.loc 1 751 0
 1936 00e2 2246     		mov	r2, r4
 1937 00e4 0949     		ldr	r1, .L136+12
 1938 00e6 3846     		mov	r0, r7
 1939 00e8 FFF7FEFF 		bl	sprintf
 1940              	.LVL338:
 752:navigation.c  ****         UART_1_PutString(output);
 1941              		.loc 1 752 0
 1942 00ec 3846     		mov	r0, r7
 1943 00ee FFF7FEFF 		bl	UART_1_PutString
 1944              	.LVL339:
 1945              	.L128:
 705:navigation.c  ****         
 1946              		.loc 1 705 0
 1947 00f2 84EAE473 		eor	r3, r4, r4, asr #31
 1948 00f6 A3EBE473 		sub	r3, r3, r4, asr #31
 1949 00fa 022B     		cmp	r3, #2
 1950 00fc 9FDC     		bgt	.L133
 753:navigation.c  ****     }
 754:navigation.c  **** }
 1951              		.loc 1 754 0
 1952 00fe F8BD     		pop	{r3, r4, r5, r6, r7, pc}
 1953              	.LVL340:
 1954              	.L137:
 1955              		.align	2
 1956              	.L136:
 1957 0100 00000000 		.word	sensor_distances
 1958 0104 00000000 		.word	output
 1959 0108 7C000000 		.word	.LC7
 1960 010c 88000000 		.word	.LC8
 1961              		.cfi_endproc
 1962              	.LFE73:
 1963              		.size	straightAdjustBlayke, .-straightAdjustBlayke
ARM GAS  C:\Users\Misha\AppData\Local\Temp\ccbcIC6d.s 			page 51


 1964              		.section	.text.straightAdjustBack,"ax",%progbits
 1965              		.align	2
 1966              		.global	straightAdjustBack
 1967              		.thumb
 1968              		.thumb_func
 1969              		.type	straightAdjustBack, %function
 1970              	straightAdjustBack:
 1971              	.LFB74:
 755:navigation.c  **** 
 756:navigation.c  **** 
 757:navigation.c  **** void straightAdjustBack(void) {
 1972              		.loc 1 757 0
 1973              		.cfi_startproc
 1974              		@ args = 0, pretend = 0, frame = 0
 1975              		@ frame_needed = 0, uses_anonymous_args = 0
 1976 0000 70B5     		push	{r4, r5, r6, lr}
 1977              		.cfi_def_cfa_offset 16
 1978              		.cfi_offset 4, -16
 1979              		.cfi_offset 5, -12
 1980              		.cfi_offset 6, -8
 1981              		.cfi_offset 14, -4
 1982              	.LVL341:
 758:navigation.c  ****     // Move left, if number gets bigger, then move right
 759:navigation.c  ****     // keep moving left & right until a minimum distance is found 
 760:navigation.c  ****         // should we add another sensor to the back of the robot??? 
 761:navigation.c  ****         //  will adding another sensor affect anything? 
 762:navigation.c  ****     int distance_check;
 763:navigation.c  ****     int distance_previous = 0;  // ensures we will enter the while loop
 764:navigation.c  ****     int direction = LEFT;       // start off turning left first 
 765:navigation.c  ****     int minimum_distance;                           
 766:navigation.c  ****         
 767:navigation.c  ****     distanceSensor(BACK_RIGHT);
 1983              		.loc 1 767 0
 1984 0002 0420     		movs	r0, #4
 1985 0004 FFF7FEFF 		bl	distanceSensor
 1986              	.LVL342:
 768:navigation.c  ****     CyDelay(DELAY);
 1987              		.loc 1 768 0
 1988 0008 3C20     		movs	r0, #60
 1989 000a FFF7FEFF 		bl	CyDelay
 1990              	.LVL343:
 769:navigation.c  ****     
 770:navigation.c  ****     Motor_Left_Driver_Wakeup();
 1991              		.loc 1 770 0
 1992 000e FFF7FEFF 		bl	Motor_Left_Driver_Wakeup
 1993              	.LVL344:
 771:navigation.c  ****     Motor_Right_Driver_Wakeup();
 1994              		.loc 1 771 0
 1995 0012 FFF7FEFF 		bl	Motor_Right_Driver_Wakeup
 1996              	.LVL345:
 772:navigation.c  ****     Motor_Left_Driver_WriteCompare(25);
 1997              		.loc 1 772 0
 1998 0016 1920     		movs	r0, #25
 1999 0018 FFF7FEFF 		bl	Motor_Left_Driver_WriteCompare
 2000              	.LVL346:
 773:navigation.c  ****     Motor_Right_Driver_WriteCompare(25);
 2001              		.loc 1 773 0
ARM GAS  C:\Users\Misha\AppData\Local\Temp\ccbcIC6d.s 			page 52


 2002 001c 1920     		movs	r0, #25
 2003 001e FFF7FEFF 		bl	Motor_Right_Driver_WriteCompare
 2004              	.LVL347:
 774:navigation.c  ****     
 775:navigation.c  ****     distance_check = sensor_distances[BACK_RIGHT];
 2005              		.loc 1 775 0
 2006 0022 124B     		ldr	r3, .L147
 2007 0024 1C69     		ldr	r4, [r3, #16]
 2008              	.LVL348:
 764:navigation.c  ****     int minimum_distance;                           
 2009              		.loc 1 764 0
 2010 0026 0226     		movs	r6, #2
 763:navigation.c  ****     int direction = LEFT;       // start off turning left first 
 2011              		.loc 1 763 0
 2012 0028 0025     		movs	r5, #0
 2013 002a 00E0     		b	.L139
 2014              	.LVL349:
 2015              	.L144:
 776:navigation.c  ****     minimum_distance = distance_check;
 777:navigation.c  ****     
 778:navigation.c  ****     while(1) {
 779:navigation.c  ****         if (direction == LEFT) { Motor_Left_Control_Write(0); Motor_Right_Control_Write(1); }
 780:navigation.c  ****         else {Motor_Left_Control_Write(1); Motor_Right_Control_Write(0); }
 781:navigation.c  ****         
 782:navigation.c  ****         while (distance_previous > distance_check) {
 783:navigation.c  ****             // this will run while:
 784:navigation.c  ****                 // new distance values are getting smaller           
 785:navigation.c  ****             
 786:navigation.c  ****             // Updating the distance values: 
 787:navigation.c  ****             distance_previous = distance_check;
 788:navigation.c  ****             distanceSensor(BACK_RIGHT);
 789:navigation.c  ****             CyDelay(DELAY);
 790:navigation.c  ****             distance_check = sensor_distances[BACK_RIGHT];
 791:navigation.c  ****         }
 792:navigation.c  ****         if (direction == LEFT) {direction = RIGHT; }        // This changes the directions
 2016              		.loc 1 792 0
 2017 002c 0326     		movs	r6, #3
 2018              	.LVL350:
 2019              	.L139:
 779:navigation.c  ****         else {Motor_Left_Control_Write(1); Motor_Right_Control_Write(0); }
 2020              		.loc 1 779 0
 2021 002e 022E     		cmp	r6, #2
 2022 0030 06D1     		bne	.L140
 779:navigation.c  ****         else {Motor_Left_Control_Write(1); Motor_Right_Control_Write(0); }
 2023              		.loc 1 779 0 is_stmt 0 discriminator 1
 2024 0032 0020     		movs	r0, #0
 2025 0034 FFF7FEFF 		bl	Motor_Left_Control_Write
 2026              	.LVL351:
 2027 0038 0120     		movs	r0, #1
 2028 003a FFF7FEFF 		bl	Motor_Right_Control_Write
 2029              	.LVL352:
 2030 003e 0FE0     		b	.L141
 2031              	.L140:
 780:navigation.c  ****         
 2032              		.loc 1 780 0 is_stmt 1
 2033 0040 0120     		movs	r0, #1
 2034 0042 FFF7FEFF 		bl	Motor_Left_Control_Write
ARM GAS  C:\Users\Misha\AppData\Local\Temp\ccbcIC6d.s 			page 53


 2035              	.LVL353:
 2036 0046 0020     		movs	r0, #0
 2037 0048 FFF7FEFF 		bl	Motor_Right_Control_Write
 2038              	.LVL354:
 2039 004c 08E0     		b	.L141
 2040              	.L143:
 2041              	.LVL355:
 788:navigation.c  ****             CyDelay(DELAY);
 2042              		.loc 1 788 0
 2043 004e 0420     		movs	r0, #4
 2044 0050 FFF7FEFF 		bl	distanceSensor
 2045              	.LVL356:
 789:navigation.c  ****             distance_check = sensor_distances[BACK_RIGHT];
 2046              		.loc 1 789 0
 2047 0054 3C20     		movs	r0, #60
 2048 0056 FFF7FEFF 		bl	CyDelay
 2049              	.LVL357:
 787:navigation.c  ****             distanceSensor(BACK_RIGHT);
 2050              		.loc 1 787 0
 2051 005a 2546     		mov	r5, r4
 790:navigation.c  ****         }
 2052              		.loc 1 790 0
 2053 005c 034B     		ldr	r3, .L147
 2054 005e 1C69     		ldr	r4, [r3, #16]
 2055              	.LVL358:
 2056              	.L141:
 782:navigation.c  ****             // this will run while:
 2057              		.loc 1 782 0
 2058 0060 AC42     		cmp	r4, r5
 2059 0062 F4DB     		blt	.L143
 2060              		.loc 1 792 0
 2061 0064 022E     		cmp	r6, #2
 2062 0066 E1D0     		beq	.L144
 793:navigation.c  ****         else {direction = LEFT; }
 2063              		.loc 1 793 0
 2064 0068 0226     		movs	r6, #2
 2065              	.LVL359:
 2066 006a E0E7     		b	.L139
 2067              	.L148:
 2068              		.align	2
 2069              	.L147:
 2070 006c 00000000 		.word	sensor_distances
 2071              		.cfi_endproc
 2072              	.LFE74:
 2073              		.size	straightAdjustBack, .-straightAdjustBack
 2074              		.section	.text.toleranceCheck,"ax",%progbits
 2075              		.align	2
 2076              		.global	toleranceCheck
 2077              		.thumb
 2078              		.thumb_func
 2079              		.type	toleranceCheck, %function
 2080              	toleranceCheck:
 2081              	.LFB75:
 794:navigation.c  ****         
 795:navigation.c  ****         // This may enter an infinite loop where it can't decide if it is correct 
 796:navigation.c  ****     }
 797:navigation.c  ****     
ARM GAS  C:\Users\Misha\AppData\Local\Temp\ccbcIC6d.s 			page 54


 798:navigation.c  ****     Motor_Left_Driver_Sleep();
 799:navigation.c  ****     Motor_Right_Driver_Sleep();   
 800:navigation.c  ****     
 801:navigation.c  **** }
 802:navigation.c  **** 
 803:navigation.c  **** 
 804:navigation.c  **** 
 805:navigation.c  **** void toleranceCheck(void) {
 2082              		.loc 1 805 0
 2083              		.cfi_startproc
 2084              		@ args = 0, pretend = 0, frame = 0
 2085              		@ frame_needed = 0, uses_anonymous_args = 0
 2086 0000 08B5     		push	{r3, lr}
 2087              		.cfi_def_cfa_offset 8
 2088              		.cfi_offset 3, -8
 2089              		.cfi_offset 14, -4
 2090              	.LVL360:
 806:navigation.c  ****     
 807:navigation.c  ****     // This function needs work
 808:navigation.c  **** 
 809:navigation.c  ****     int tolerance = 100;
 810:navigation.c  ****     
 811:navigation.c  ****     distanceSensor(FRONT_LEFT);
 2091              		.loc 1 811 0
 2092 0002 0020     		movs	r0, #0
 2093 0004 FFF7FEFF 		bl	distanceSensor
 2094              	.LVL361:
 812:navigation.c  ****     CyDelay(60);
 2095              		.loc 1 812 0
 2096 0008 3C20     		movs	r0, #60
 2097 000a FFF7FEFF 		bl	CyDelay
 2098              	.LVL362:
 813:navigation.c  ****     distanceSensor(FRONT_LEFT);
 2099              		.loc 1 813 0
 2100 000e 0020     		movs	r0, #0
 2101 0010 FFF7FEFF 		bl	distanceSensor
 2102              	.LVL363:
 814:navigation.c  ****     CyDelay(60);
 2103              		.loc 1 814 0
 2104 0014 3C20     		movs	r0, #60
 2105 0016 FFF7FEFF 		bl	CyDelay
 2106              	.LVL364:
 815:navigation.c  ****     distanceSensor(BACK_RIGHT);
 2107              		.loc 1 815 0
 2108 001a 0420     		movs	r0, #4
 2109 001c FFF7FEFF 		bl	distanceSensor
 2110              	.LVL365:
 816:navigation.c  ****     CyDelay(60);
 2111              		.loc 1 816 0
 2112 0020 3C20     		movs	r0, #60
 2113 0022 FFF7FEFF 		bl	CyDelay
 2114              	.LVL366:
 817:navigation.c  ****     
 818:navigation.c  ****     while (sensor_distances[FRONT_LEFT] + sensor_distances[BACK_RIGHT] + tolerance < ARENA_WIDTH 
 2115              		.loc 1 818 0
 2116 0026 11E0     		b	.L150
 2117              	.L151:
ARM GAS  C:\Users\Misha\AppData\Local\Temp\ccbcIC6d.s 			page 55


 819:navigation.c  ****            || sensor_distances[FRONT_LEFT] + sensor_distances[BACK_RIGHT] + tolerance < ARENA_WIDTH
 820:navigation.c  ****             // this checks if the ultrasonic distances being recorded are accurate
 821:navigation.c  ****             // if it is not within this threshold, there must be something up.  
 822:navigation.c  ****                 
 823:navigation.c  ****     distanceSensor(FRONT_LEFT);
 2118              		.loc 1 823 0
 2119 0028 0020     		movs	r0, #0
 2120 002a FFF7FEFF 		bl	distanceSensor
 2121              	.LVL367:
 824:navigation.c  ****     CyDelay(60);
 2122              		.loc 1 824 0
 2123 002e 3C20     		movs	r0, #60
 2124 0030 FFF7FEFF 		bl	CyDelay
 2125              	.LVL368:
 825:navigation.c  ****     distanceSensor(FRONT_LEFT);
 2126              		.loc 1 825 0
 2127 0034 0020     		movs	r0, #0
 2128 0036 FFF7FEFF 		bl	distanceSensor
 2129              	.LVL369:
 826:navigation.c  ****     CyDelay(60);
 2130              		.loc 1 826 0
 2131 003a 3C20     		movs	r0, #60
 2132 003c FFF7FEFF 		bl	CyDelay
 2133              	.LVL370:
 827:navigation.c  ****     distanceSensor(BACK_RIGHT);
 2134              		.loc 1 827 0
 2135 0040 0420     		movs	r0, #4
 2136 0042 FFF7FEFF 		bl	distanceSensor
 2137              	.LVL371:
 828:navigation.c  ****     CyDelay(60);
 2138              		.loc 1 828 0
 2139 0046 3C20     		movs	r0, #60
 2140 0048 FFF7FEFF 		bl	CyDelay
 2141              	.LVL372:
 2142              	.L150:
 818:navigation.c  ****            || sensor_distances[FRONT_LEFT] + sensor_distances[BACK_RIGHT] + tolerance < ARENA_WIDTH
 2143              		.loc 1 818 0
 2144 004c 044A     		ldr	r2, .L153
 2145 004e 1168     		ldr	r1, [r2]
 2146 0050 1369     		ldr	r3, [r2, #16]
 2147 0052 0B44     		add	r3, r3, r1
 2148 0054 6433     		adds	r3, r3, #100
 2149 0056 B3F5966F 		cmp	r3, #1200
 2150 005a E5DB     		blt	.L151
 829:navigation.c  ****         
 830:navigation.c  ****     }
 831:navigation.c  ****     
 832:navigation.c  **** }
 2151              		.loc 1 832 0
 2152 005c 08BD     		pop	{r3, pc}
 2153              	.L154:
 2154 005e 00BF     		.align	2
 2155              	.L153:
 2156 0060 00000000 		.word	sensor_distances
 2157              		.cfi_endproc
 2158              	.LFE75:
 2159              		.size	toleranceCheck, .-toleranceCheck
ARM GAS  C:\Users\Misha\AppData\Local\Temp\ccbcIC6d.s 			page 56


 2160              		.section	.text.locatePucks,"ax",%progbits
 2161              		.align	2
 2162              		.global	locatePucks
 2163              		.thumb
 2164              		.thumb_func
 2165              		.type	locatePucks, %function
 2166              	locatePucks:
 2167              	.LFB76:
 833:navigation.c  **** 
 834:navigation.c  **** void locatePucks(void)
 835:navigation.c  **** {
 2168              		.loc 1 835 0
 2169              		.cfi_startproc
 2170              		@ args = 0, pretend = 0, frame = 0
 2171              		@ frame_needed = 0, uses_anonymous_args = 0
 2172              		@ link register save eliminated.
 2173 0000 7047     		bx	lr
 2174              		.cfi_endproc
 2175              	.LFE76:
 2176              		.size	locatePucks, .-locatePucks
 2177 0002 00BF     		.section	.text.moveForwardThenBackward,"ax",%progbits
 2178              		.align	2
 2179              		.global	moveForwardThenBackward
 2180              		.thumb
 2181              		.thumb_func
 2182              		.type	moveForwardThenBackward, %function
 2183              	moveForwardThenBackward:
 2184              	.LFB77:
 836:navigation.c  ****     
 837:navigation.c  ****     
 838:navigation.c  ****     
 839:navigation.c  ****     
 840:navigation.c  **** }
 841:navigation.c  **** 
 842:navigation.c  **** void moveForwardThenBackward(int distance, int less_great, int sensor, int speed, int activate_safe
 2185              		.loc 1 842 0
 2186              		.cfi_startproc
 2187              		@ args = 4, pretend = 0, frame = 0
 2188              		@ frame_needed = 0, uses_anonymous_args = 0
 2189              	.LVL373:
 2190              		.loc 1 842 0
 2191 0000 2DE9F041 		push	{r4, r5, r6, r7, r8, lr}
 2192              		.cfi_def_cfa_offset 24
 2193              		.cfi_offset 4, -24
 2194              		.cfi_offset 5, -20
 2195              		.cfi_offset 6, -16
 2196              		.cfi_offset 7, -12
 2197              		.cfi_offset 8, -8
 2198              		.cfi_offset 14, -4
 2199 0004 82B0     		sub	sp, sp, #8
 2200              		.cfi_def_cfa_offset 32
 2201 0006 8046     		mov	r8, r0
 2202 0008 0C46     		mov	r4, r1
 2203 000a 1546     		mov	r5, r2
 2204 000c 1E46     		mov	r6, r3
 2205 000e 089F     		ldr	r7, [sp, #32]
 843:navigation.c  ****    moveUntil(distance, FORWARD, less_great, sensor, speed ,activate_safety); 
ARM GAS  C:\Users\Misha\AppData\Local\Temp\ccbcIC6d.s 			page 57


 2206              		.loc 1 843 0
 2207 0010 0197     		str	r7, [sp, #4]
 2208 0012 0093     		str	r3, [sp]
 2209 0014 1346     		mov	r3, r2
 2210              	.LVL374:
 2211 0016 0A46     		mov	r2, r1
 2212              	.LVL375:
 2213 0018 0121     		movs	r1, #1
 2214              	.LVL376:
 2215 001a FFF7FEFF 		bl	moveUntil
 2216              	.LVL377:
 844:navigation.c  ****    moveUntil(distance, BACKWARD, -1*less_great, sensor, speed ,activate_safety);     
 2217              		.loc 1 844 0
 2218 001e 0197     		str	r7, [sp, #4]
 2219 0020 0096     		str	r6, [sp]
 2220 0022 2B46     		mov	r3, r5
 2221 0024 6242     		negs	r2, r4
 2222 0026 0021     		movs	r1, #0
 2223 0028 4046     		mov	r0, r8
 2224 002a FFF7FEFF 		bl	moveUntil
 2225              	.LVL378:
 845:navigation.c  **** }...
 2226              		.loc 1 845 0
 2227 002e 02B0     		add	sp, sp, #8
 2228              		.cfi_def_cfa_offset 24
 2229              		@ sp needed
 2230 0030 BDE8F081 		pop	{r4, r5, r6, r7, r8, pc}
 2231              		.cfi_endproc
 2232              	.LFE77:
 2233              		.size	moveForwardThenBackward, .-moveForwardThenBackward
 2234              		.comm	ultrasonic_flag,4,4
 2235              		.comm	initialisation,4,4
 2236              		.comm	puck_grid_initial,4,4
 2237              		.comm	set_path,4,4
 2238              		.comm	initial_tolerance,4,4
 2239              		.comm	preferential_route,4,4
 2240              		.comm	global_distance,4,4
 2241              		.comm	global_encoder,4,4
 2242              		.comm	output,32,4
 2243              		.comm	block_edge_location,16,4
 2244              		.comm	puck_rack_west_offsets,20,4
 2245              		.comm	puck_rack_scans,20,4
 2246              		.comm	internal_orientation,4,4
 2247              		.section	.rodata.str1.4,"aMS",%progbits,1
 2248              		.align	2
 2249              	.LC0:
 2250 0000 25692009 		.ascii	"%i \011\000"
 2250      00
 2251 0005 000000   		.space	3
 2252              	.LC1:
 2253 0008 53414645 		.ascii	"SAFETY MARGIN ACTIVATED @ %d\012\000"
 2253      5459204D 
 2253      41524749 
 2253      4E204143 
 2253      54495641 
 2254 0026 0000     		.space	2
 2255              	.LC2:
ARM GAS  C:\Users\Misha\AppData\Local\Temp\ccbcIC6d.s 			page 58


 2256 0028 25642009 		.ascii	"%d \011\000"
 2256      00
 2257 002d 000000   		.space	3
 2258              	.LC3:
 2259 0030 0A206669 		.ascii	"\012 fin: %d \012\000"
 2259      6E3A2025 
 2259      64200A00 
 2260              	.LC4:
 2261 003c 636F756E 		.ascii	"count value: %d \012\000"
 2261      74207661 
 2261      6C75653A 
 2261      20256420 
 2261      0A00
 2262 004e 0000     		.space	2
 2263              	.LC5:
 2264 0050 64696666 		.ascii	"difference = %d, \012\000"
 2264      6572656E 
 2264      6365203D 
 2264      2025642C 
 2264      200A00
 2265 0063 00       		.space	1
 2266              	.LC6:
 2267 0064 20256420 		.ascii	" %d , %d \011 dif: %d, \012\000"
 2267      2C202564 
 2267      20092064 
 2267      69663A20 
 2267      25642C20 
 2268 007a 0000     		.space	2
 2269              	.LC7:
 2270 007c 25642C20 		.ascii	"%d, %d, \000"
 2270      25642C20 
 2270      00
 2271 0085 000000   		.space	3
 2272              	.LC8:
 2273 0088 6469663A 		.ascii	"dif: %d, \012\000"
 2273      2025642C 
 2273      200A00
 2274              		.text
 2275              	.Letext0:
 2276              		.file 2 "c:\\program files (x86)\\cypress\\psoc creator\\4.2\\psoc creator\\import\\gnu\\arm\\5.4.
 2277              		.file 3 "c:\\program files (x86)\\cypress\\psoc creator\\4.2\\psoc creator\\import\\gnu\\arm\\5.4.
 2278              		.file 4 "Generated_Source\\PSoC5/core_cm3.h"
 2279              		.file 5 "navigation.h"
 2280              		.file 6 "ultrasonic.h"
 2281              		.file 7 "main.h"
 2282              		.file 8 "servo.h"
 2283              		.file 9 "colour.h"
 2284              		.file 10 "Generated_Source\\PSoC5/Motor_Left_Control.h"
 2285              		.file 11 "Generated_Source\\PSoC5/Motor_Right_Control.h"
 2286              		.file 12 "Generated_Source\\PSoC5/Motor_Left_Driver.h"
 2287              		.file 13 "Generated_Source\\PSoC5/Motor_Right_Driver.h"
 2288              		.file 14 "Generated_Source\\PSoC5/control_photodiode.h"
 2289              		.file 15 "Generated_Source\\PSoC5/Motor_Right_Decoder.h"
 2290              		.file 16 "Generated_Source\\PSoC5/Motor_Left_Decoder.h"
 2291              		.file 17 "Generated_Source\\PSoC5/CyLib.h"
 2292              		.file 18 "c:\\program files (x86)\\cypress\\psoc creator\\4.2\\psoc creator\\import\\gnu\\arm\\5.4
 2293              		.file 19 "Generated_Source\\PSoC5/UART_1.h"
ARM GAS  C:\Users\Misha\AppData\Local\Temp\ccbcIC6d.s 			page 59


 2294              		.file 20 "motor.h"
 2295              		.file 21 "c:\\program files (x86)\\cypress\\psoc creator\\4.2\\psoc creator\\import\\gnu\\arm\\5.4
 2296              		.file 22 "Generated_Source\\PSoC5/Timer_straight_adjust.h"
 2297              		.section	.debug_info,"",%progbits
 2298              	.Ldebug_info0:
 2299 0000 DE170000 		.4byte	0x17de
 2300 0004 0400     		.2byte	0x4
 2301 0006 00000000 		.4byte	.Ldebug_abbrev0
 2302 000a 04       		.byte	0x4
 2303 000b 01       		.uleb128 0x1
 2304 000c 32070000 		.4byte	.LASF120
 2305 0010 0C       		.byte	0xc
 2306 0011 F0000000 		.4byte	.LASF121
 2307 0015 70060000 		.4byte	.LASF122
 2308 0019 00000000 		.4byte	.Ldebug_ranges0+0
 2309 001d 00000000 		.4byte	0
 2310 0021 00000000 		.4byte	.Ldebug_line0
 2311 0025 02       		.uleb128 0x2
 2312 0026 04       		.byte	0x4
 2313 0027 04       		.byte	0x4
 2314 0028 40020000 		.4byte	.LASF0
 2315 002c 02       		.uleb128 0x2
 2316 002d 01       		.byte	0x1
 2317 002e 06       		.byte	0x6
 2318 002f 18040000 		.4byte	.LASF1
 2319 0033 02       		.uleb128 0x2
 2320 0034 01       		.byte	0x1
 2321 0035 08       		.byte	0x8
 2322 0036 D6030000 		.4byte	.LASF2
 2323 003a 02       		.uleb128 0x2
 2324 003b 02       		.byte	0x2
 2325 003c 05       		.byte	0x5
 2326 003d 9E010000 		.4byte	.LASF3
 2327 0041 02       		.uleb128 0x2
 2328 0042 02       		.byte	0x2
 2329 0043 07       		.byte	0x7
 2330 0044 AB040000 		.4byte	.LASF4
 2331 0048 03       		.uleb128 0x3
 2332 0049 4A060000 		.4byte	.LASF10
 2333 004d 02       		.byte	0x2
 2334 004e 3F       		.byte	0x3f
 2335 004f 53000000 		.4byte	0x53
 2336 0053 02       		.uleb128 0x2
 2337 0054 04       		.byte	0x4
 2338 0055 05       		.byte	0x5
 2339 0056 BA020000 		.4byte	.LASF5
 2340 005a 02       		.uleb128 0x2
 2341 005b 04       		.byte	0x4
 2342 005c 07       		.byte	0x7
 2343 005d B4050000 		.4byte	.LASF6
 2344 0061 02       		.uleb128 0x2
 2345 0062 08       		.byte	0x8
 2346 0063 05       		.byte	0x5
 2347 0064 65020000 		.4byte	.LASF7
 2348 0068 02       		.uleb128 0x2
 2349 0069 08       		.byte	0x8
 2350 006a 07       		.byte	0x7
ARM GAS  C:\Users\Misha\AppData\Local\Temp\ccbcIC6d.s 			page 60


 2351 006b 73020000 		.4byte	.LASF8
 2352 006f 04       		.uleb128 0x4
 2353 0070 04       		.byte	0x4
 2354 0071 05       		.byte	0x5
 2355 0072 696E7400 		.ascii	"int\000"
 2356 0076 02       		.uleb128 0x2
 2357 0077 04       		.byte	0x4
 2358 0078 07       		.byte	0x7
 2359 0079 41040000 		.4byte	.LASF9
 2360 007d 03       		.uleb128 0x3
 2361 007e ED020000 		.4byte	.LASF11
 2362 0082 03       		.byte	0x3
 2363 0083 2C       		.byte	0x2c
 2364 0084 48000000 		.4byte	0x48
 2365 0088 02       		.uleb128 0x2
 2366 0089 08       		.byte	0x8
 2367 008a 04       		.byte	0x4
 2368 008b D2050000 		.4byte	.LASF12
 2369 008f 02       		.uleb128 0x2
 2370 0090 01       		.byte	0x1
 2371 0091 08       		.byte	0x8
 2372 0092 F0040000 		.4byte	.LASF13
 2373 0096 02       		.uleb128 0x2
 2374 0097 08       		.byte	0x8
 2375 0098 04       		.byte	0x4
 2376 0099 32010000 		.4byte	.LASF14
 2377 009d 02       		.uleb128 0x2
 2378 009e 04       		.byte	0x4
 2379 009f 07       		.byte	0x7
 2380 00a0 E4060000 		.4byte	.LASF15
 2381 00a4 05       		.uleb128 0x5
 2382 00a5 0E040000 		.4byte	.LASF18
 2383 00a9 01       		.byte	0x1
 2384 00aa 20       		.byte	0x20
 2385 00ab 00000000 		.4byte	.LFB64
 2386 00af 48000000 		.4byte	.LFE64-.LFB64
 2387 00b3 01       		.uleb128 0x1
 2388 00b4 9C       		.byte	0x9c
 2389 00b5 25010000 		.4byte	0x125
 2390 00b9 06       		.uleb128 0x6
 2391 00ba 21020000 		.4byte	.LASF16
 2392 00be 01       		.byte	0x1
 2393 00bf 22       		.byte	0x22
 2394 00c0 6F000000 		.4byte	0x6f
 2395 00c4 00000000 		.4byte	.LLST0
 2396 00c8 06       		.uleb128 0x6
 2397 00c9 40060000 		.4byte	.LASF17
 2398 00cd 01       		.byte	0x1
 2399 00ce 23       		.byte	0x23
 2400 00cf 6F000000 		.4byte	0x6f
 2401 00d3 1F000000 		.4byte	.LLST1
 2402 00d7 07       		.uleb128 0x7
 2403 00d8 10000000 		.4byte	.LVL1
 2404 00dc CD160000 		.4byte	0x16cd
 2405 00e0 EF000000 		.4byte	0xef
 2406 00e4 08       		.uleb128 0x8
 2407 00e5 01       		.uleb128 0x1
ARM GAS  C:\Users\Misha\AppData\Local\Temp\ccbcIC6d.s 			page 61


 2408 00e6 50       		.byte	0x50
 2409 00e7 01       		.uleb128 0x1
 2410 00e8 33       		.byte	0x33
 2411 00e9 08       		.uleb128 0x8
 2412 00ea 01       		.uleb128 0x1
 2413 00eb 51       		.byte	0x51
 2414 00ec 01       		.uleb128 0x1
 2415 00ed 32       		.byte	0x32
 2416 00ee 00       		.byte	0
 2417 00ef 07       		.uleb128 0x7
 2418 00f0 1C000000 		.4byte	.LVL3
 2419 00f4 CD160000 		.4byte	0x16cd
 2420 00f8 07010000 		.4byte	0x107
 2421 00fc 08       		.uleb128 0x8
 2422 00fd 01       		.uleb128 0x1
 2423 00fe 50       		.byte	0x50
 2424 00ff 01       		.uleb128 0x1
 2425 0100 31       		.byte	0x31
 2426 0101 08       		.uleb128 0x8
 2427 0102 01       		.uleb128 0x1
 2428 0103 51       		.byte	0x51
 2429 0104 01       		.uleb128 0x1
 2430 0105 32       		.byte	0x32
 2431 0106 00       		.byte	0
 2432 0107 09       		.uleb128 0x9
 2433 0108 20000000 		.4byte	.LVL4
 2434 010c D8160000 		.4byte	0x16d8
 2435 0110 0A       		.uleb128 0xa
 2436 0111 2A000000 		.4byte	.LVL7
 2437 0115 CD160000 		.4byte	0x16cd
 2438 0119 08       		.uleb128 0x8
 2439 011a 01       		.uleb128 0x1
 2440 011b 50       		.byte	0x50
 2441 011c 01       		.uleb128 0x1
 2442 011d 33       		.byte	0x33
 2443 011e 08       		.uleb128 0x8
 2444 011f 01       		.uleb128 0x1
 2445 0120 51       		.byte	0x51
 2446 0121 01       		.uleb128 0x1
 2447 0122 32       		.byte	0x32
 2448 0123 00       		.byte	0
 2449 0124 00       		.byte	0
 2450 0125 05       		.uleb128 0x5
 2451 0126 C8030000 		.4byte	.LASF19
 2452 012a 01       		.byte	0x1
 2453 012b 54       		.byte	0x54
 2454 012c 00000000 		.4byte	.LFB66
 2455 0130 D0000000 		.4byte	.LFE66-.LFB66
 2456 0134 01       		.uleb128 0x1
 2457 0135 9C       		.byte	0x9c
 2458 0136 FD020000 		.4byte	0x2fd
 2459 013a 0B       		.uleb128 0xb
 2460 013b 15060000 		.4byte	.LASF29
 2461 013f 01       		.byte	0x1
 2462 0140 54       		.byte	0x54
 2463 0141 6F000000 		.4byte	0x6f
 2464 0145 3D000000 		.4byte	.LLST2
ARM GAS  C:\Users\Misha\AppData\Local\Temp\ccbcIC6d.s 			page 62


 2465 0149 06       		.uleb128 0x6
 2466 014a 66050000 		.4byte	.LASF20
 2467 014e 01       		.byte	0x1
 2468 014f 56       		.byte	0x56
 2469 0150 6F000000 		.4byte	0x6f
 2470 0154 69000000 		.4byte	.LLST3
 2471 0158 0C       		.uleb128 0xc
 2472 0159 5B040000 		.4byte	.LASF21
 2473 015d 01       		.byte	0x1
 2474 015e 58       		.byte	0x58
 2475 015f 6F000000 		.4byte	0x6f
 2476 0163 46       		.byte	0x46
 2477 0164 06       		.uleb128 0x6
 2478 0165 C8070000 		.4byte	.LASF22
 2479 0169 01       		.byte	0x1
 2480 016a 5A       		.byte	0x5a
 2481 016b 6F000000 		.4byte	0x6f
 2482 016f 9E000000 		.4byte	.LLST4
 2483 0173 06       		.uleb128 0x6
 2484 0174 4E000000 		.4byte	.LASF23
 2485 0178 01       		.byte	0x1
 2486 0179 5B       		.byte	0x5b
 2487 017a 6F000000 		.4byte	0x6f
 2488 017e BC000000 		.4byte	.LLST5
 2489 0182 06       		.uleb128 0x6
 2490 0183 95000000 		.4byte	.LASF24
 2491 0187 01       		.byte	0x1
 2492 0188 5C       		.byte	0x5c
 2493 0189 6F000000 		.4byte	0x6f
 2494 018d DA000000 		.4byte	.LLST6
 2495 0191 06       		.uleb128 0x6
 2496 0192 D4070000 		.4byte	.LASF25
 2497 0196 01       		.byte	0x1
 2498 0197 5D       		.byte	0x5d
 2499 0198 6F000000 		.4byte	0x6f
 2500 019c FA000000 		.4byte	.LLST7
 2501 01a0 07       		.uleb128 0x7
 2502 01a1 0C000000 		.4byte	.LVL13
 2503 01a5 E3160000 		.4byte	0x16e3
 2504 01a9 B3010000 		.4byte	0x1b3
 2505 01ad 08       		.uleb128 0x8
 2506 01ae 01       		.uleb128 0x1
 2507 01af 50       		.byte	0x50
 2508 01b0 01       		.uleb128 0x1
 2509 01b1 30       		.byte	0x30
 2510 01b2 00       		.byte	0
 2511 01b3 07       		.uleb128 0x7
 2512 01b4 12000000 		.4byte	.LVL14
 2513 01b8 EE160000 		.4byte	0x16ee
 2514 01bc C6010000 		.4byte	0x1c6
 2515 01c0 08       		.uleb128 0x8
 2516 01c1 01       		.uleb128 0x1
 2517 01c2 50       		.byte	0x50
 2518 01c3 01       		.uleb128 0x1
 2519 01c4 30       		.byte	0x30
 2520 01c5 00       		.byte	0
 2521 01c6 09       		.uleb128 0x9
ARM GAS  C:\Users\Misha\AppData\Local\Temp\ccbcIC6d.s 			page 63


 2522 01c7 16000000 		.4byte	.LVL15
 2523 01cb F9160000 		.4byte	0x16f9
 2524 01cf 07       		.uleb128 0x7
 2525 01d0 1C000000 		.4byte	.LVL16
 2526 01d4 04170000 		.4byte	0x1704
 2527 01d8 E3010000 		.4byte	0x1e3
 2528 01dc 08       		.uleb128 0x8
 2529 01dd 01       		.uleb128 0x1
 2530 01de 50       		.byte	0x50
 2531 01df 02       		.uleb128 0x2
 2532 01e0 08       		.byte	0x8
 2533 01e1 46       		.byte	0x46
 2534 01e2 00       		.byte	0
 2535 01e3 09       		.uleb128 0x9
 2536 01e4 20000000 		.4byte	.LVL17
 2537 01e8 0F170000 		.4byte	0x170f
 2538 01ec 07       		.uleb128 0x7
 2539 01ed 26000000 		.4byte	.LVL18
 2540 01f1 1A170000 		.4byte	0x171a
 2541 01f5 00020000 		.4byte	0x200
 2542 01f9 08       		.uleb128 0x8
 2543 01fa 01       		.uleb128 0x1
 2544 01fb 50       		.byte	0x50
 2545 01fc 02       		.uleb128 0x2
 2546 01fd 08       		.byte	0x8
 2547 01fe 46       		.byte	0x46
 2548 01ff 00       		.byte	0
 2549 0200 09       		.uleb128 0x9
 2550 0201 2A000000 		.4byte	.LVL19
 2551 0205 25170000 		.4byte	0x1725
 2552 0209 07       		.uleb128 0x7
 2553 020a 30000000 		.4byte	.LVL20
 2554 020e 30170000 		.4byte	0x1730
 2555 0212 1C020000 		.4byte	0x21c
 2556 0216 08       		.uleb128 0x8
 2557 0217 01       		.uleb128 0x1
 2558 0218 50       		.byte	0x50
 2559 0219 01       		.uleb128 0x1
 2560 021a 31       		.byte	0x31
 2561 021b 00       		.byte	0
 2562 021c 09       		.uleb128 0x9
 2563 021d 42000000 		.4byte	.LVL22
 2564 0221 3B170000 		.4byte	0x173b
 2565 0225 09       		.uleb128 0x9
 2566 0226 48000000 		.4byte	.LVL24
 2567 022a 46170000 		.4byte	0x1746
 2568 022e 09       		.uleb128 0x9
 2569 022f 4E000000 		.4byte	.LVL26
 2570 0233 D8160000 		.4byte	0x16d8
 2571 0237 07       		.uleb128 0x7
 2572 0238 56000000 		.4byte	.LVL29
 2573 023c 51170000 		.4byte	0x1751
 2574 0240 4A020000 		.4byte	0x24a
 2575 0244 08       		.uleb128 0x8
 2576 0245 01       		.uleb128 0x1
 2577 0246 50       		.byte	0x50
 2578 0247 01       		.uleb128 0x1
ARM GAS  C:\Users\Misha\AppData\Local\Temp\ccbcIC6d.s 			page 64


 2579 0248 3A       		.byte	0x3a
 2580 0249 00       		.byte	0
 2581 024a 07       		.uleb128 0x7
 2582 024b 62000000 		.4byte	.LVL30
 2583 024f 5C170000 		.4byte	0x175c
 2584 0253 6D020000 		.4byte	0x26d
 2585 0257 08       		.uleb128 0x8
 2586 0258 01       		.uleb128 0x1
 2587 0259 50       		.byte	0x50
 2588 025a 02       		.uleb128 0x2
 2589 025b 77       		.byte	0x77
 2590 025c 00       		.sleb128 0
 2591 025d 08       		.uleb128 0x8
 2592 025e 01       		.uleb128 0x1
 2593 025f 51       		.byte	0x51
 2594 0260 05       		.uleb128 0x5
 2595 0261 03       		.byte	0x3
 2596 0262 00000000 		.4byte	.LC0
 2597 0266 08       		.uleb128 0x8
 2598 0267 01       		.uleb128 0x1
 2599 0268 52       		.byte	0x52
 2600 0269 02       		.uleb128 0x2
 2601 026a 76       		.byte	0x76
 2602 026b 00       		.sleb128 0
 2603 026c 00       		.byte	0
 2604 026d 07       		.uleb128 0x7
 2605 026e 68000000 		.4byte	.LVL31
 2606 0272 67170000 		.4byte	0x1767
 2607 0276 81020000 		.4byte	0x281
 2608 027a 08       		.uleb128 0x8
 2609 027b 01       		.uleb128 0x1
 2610 027c 50       		.byte	0x50
 2611 027d 02       		.uleb128 0x2
 2612 027e 77       		.byte	0x77
 2613 027f 00       		.sleb128 0
 2614 0280 00       		.byte	0
 2615 0281 07       		.uleb128 0x7
 2616 0282 96000000 		.4byte	.LVL36
 2617 0286 04170000 		.4byte	0x1704
 2618 028a 95020000 		.4byte	0x295
 2619 028e 08       		.uleb128 0x8
 2620 028f 01       		.uleb128 0x1
 2621 0290 50       		.byte	0x50
 2622 0291 02       		.uleb128 0x2
 2623 0292 79       		.byte	0x79
 2624 0293 00       		.sleb128 0
 2625 0294 00       		.byte	0
 2626 0295 07       		.uleb128 0x7
 2627 0296 9C000000 		.4byte	.LVL37
 2628 029a 1A170000 		.4byte	0x171a
 2629 029e A9020000 		.4byte	0x2a9
 2630 02a2 08       		.uleb128 0x8
 2631 02a3 01       		.uleb128 0x1
 2632 02a4 50       		.byte	0x50
 2633 02a5 02       		.uleb128 0x2
 2634 02a6 78       		.byte	0x78
 2635 02a7 00       		.sleb128 0
ARM GAS  C:\Users\Misha\AppData\Local\Temp\ccbcIC6d.s 			page 65


 2636 02a8 00       		.byte	0
 2637 02a9 07       		.uleb128 0x7
 2638 02aa A6000000 		.4byte	.LVL38
 2639 02ae 72170000 		.4byte	0x1772
 2640 02b2 BC020000 		.4byte	0x2bc
 2641 02b6 08       		.uleb128 0x8
 2642 02b7 01       		.uleb128 0x1
 2643 02b8 50       		.byte	0x50
 2644 02b9 01       		.uleb128 0x1
 2645 02ba 30       		.byte	0x30
 2646 02bb 00       		.byte	0
 2647 02bc 07       		.uleb128 0x7
 2648 02bd AC000000 		.4byte	.LVL39
 2649 02c1 7D170000 		.4byte	0x177d
 2650 02c5 CF020000 		.4byte	0x2cf
 2651 02c9 08       		.uleb128 0x8
 2652 02ca 01       		.uleb128 0x1
 2653 02cb 50       		.byte	0x50
 2654 02cc 01       		.uleb128 0x1
 2655 02cd 30       		.byte	0x30
 2656 02ce 00       		.byte	0
 2657 02cf 09       		.uleb128 0x9
 2658 02d0 B0000000 		.4byte	.LVL40
 2659 02d4 88170000 		.4byte	0x1788
 2660 02d8 09       		.uleb128 0x9
 2661 02d9 B4000000 		.4byte	.LVL41
 2662 02dd 93170000 		.4byte	0x1793
 2663 02e1 0A       		.uleb128 0xa
 2664 02e2 BE000000 		.4byte	.LVL42
 2665 02e6 9E170000 		.4byte	0x179e
 2666 02ea 08       		.uleb128 0x8
 2667 02eb 01       		.uleb128 0x1
 2668 02ec 50       		.byte	0x50
 2669 02ed 02       		.uleb128 0x2
 2670 02ee 08       		.byte	0x8
 2671 02ef 25       		.byte	0x25
 2672 02f0 08       		.uleb128 0x8
 2673 02f1 01       		.uleb128 0x1
 2674 02f2 51       		.byte	0x51
 2675 02f3 02       		.uleb128 0x2
 2676 02f4 08       		.byte	0x8
 2677 02f5 64       		.byte	0x64
 2678 02f6 08       		.uleb128 0x8
 2679 02f7 01       		.uleb128 0x1
 2680 02f8 52       		.byte	0x52
 2681 02f9 01       		.uleb128 0x1
 2682 02fa 30       		.byte	0x30
 2683 02fb 00       		.byte	0
 2684 02fc 00       		.byte	0
 2685 02fd 05       		.uleb128 0x5
 2686 02fe 3E010000 		.4byte	.LASF26
 2687 0302 01       		.byte	0x1
 2688 0303 40       		.byte	0x40
 2689 0304 00000000 		.4byte	.LFB65
 2690 0308 10000000 		.4byte	.LFE65-.LFB65
 2691 030c 01       		.uleb128 0x1
 2692 030d 9C       		.byte	0x9c
ARM GAS  C:\Users\Misha\AppData\Local\Temp\ccbcIC6d.s 			page 66


 2693 030e 3A030000 		.4byte	0x33a
 2694 0312 06       		.uleb128 0x6
 2695 0313 4E040000 		.4byte	.LASF27
 2696 0317 01       		.byte	0x1
 2697 0318 44       		.byte	0x44
 2698 0319 6F000000 		.4byte	0x6f
 2699 031d 30010000 		.4byte	.LLST8
 2700 0321 09       		.uleb128 0x9
 2701 0322 06000000 		.4byte	.LVL44
 2702 0326 D8160000 		.4byte	0x16d8
 2703 032a 0A       		.uleb128 0xa
 2704 032b 0E000000 		.4byte	.LVL46
 2705 032f 25010000 		.4byte	0x125
 2706 0333 08       		.uleb128 0x8
 2707 0334 01       		.uleb128 0x1
 2708 0335 50       		.byte	0x50
 2709 0336 01       		.uleb128 0x1
 2710 0337 35       		.byte	0x35
 2711 0338 00       		.byte	0
 2712 0339 00       		.byte	0
 2713 033a 0D       		.uleb128 0xd
 2714 033b 2A000000 		.4byte	.LASF28
 2715 033f 01       		.byte	0x1
 2716 0340 6A01     		.2byte	0x16a
 2717 0342 00000000 		.4byte	.LFB68
 2718 0346 3C000000 		.4byte	.LFE68-.LFB68
 2719 034a 01       		.uleb128 0x1
 2720 034b 9C       		.byte	0x9c
 2721 034c A0030000 		.4byte	0x3a0
 2722 0350 0E       		.uleb128 0xe
 2723 0351 FD000000 		.4byte	.LASF30
 2724 0355 01       		.byte	0x1
 2725 0356 6A01     		.2byte	0x16a
 2726 0358 6F000000 		.4byte	0x6f
 2727 035c 43010000 		.4byte	.LLST9
 2728 0360 0E       		.uleb128 0xe
 2729 0361 5B040000 		.4byte	.LASF21
 2730 0365 01       		.byte	0x1
 2731 0366 6A01     		.2byte	0x16a
 2732 0368 6F000000 		.4byte	0x6f
 2733 036c 70010000 		.4byte	.LLST10
 2734 0370 0F       		.uleb128 0xf
 2735 0371 E2000000 		.4byte	.LASF31
 2736 0375 01       		.byte	0x1
 2737 0376 6F01     		.2byte	0x16f
 2738 0378 6F000000 		.4byte	0x6f
 2739 037c 91010000 		.4byte	.LLST11
 2740 0380 0F       		.uleb128 0xf
 2741 0381 7B050000 		.4byte	.LASF32
 2742 0385 01       		.byte	0x1
 2743 0386 7401     		.2byte	0x174
 2744 0388 6F000000 		.4byte	0x6f
 2745 038c C1010000 		.4byte	.LLST12
 2746 0390 0A       		.uleb128 0xa
 2747 0391 2C000000 		.4byte	.LVL53
 2748 0395 A9170000 		.4byte	0x17a9
 2749 0399 08       		.uleb128 0x8
ARM GAS  C:\Users\Misha\AppData\Local\Temp\ccbcIC6d.s 			page 67


 2750 039a 01       		.uleb128 0x1
 2751 039b 52       		.byte	0x52
 2752 039c 01       		.uleb128 0x1
 2753 039d 31       		.byte	0x31
 2754 039e 00       		.byte	0
 2755 039f 00       		.byte	0
 2756 03a0 10       		.uleb128 0x10
 2757 03a1 D2040000 		.4byte	.LASF33
 2758 03a5 01       		.byte	0x1
 2759 03a6 8101     		.2byte	0x181
 2760 03a8 00000000 		.4byte	.LFB69
 2761 03ac 38020000 		.4byte	.LFE69-.LFB69
 2762 03b0 01       		.uleb128 0x1
 2763 03b1 9C       		.byte	0x9c
 2764 03b2 B5050000 		.4byte	0x5b5
 2765 03b6 0E       		.uleb128 0xe
 2766 03b7 F5040000 		.4byte	.LASF34
 2767 03bb 01       		.byte	0x1
 2768 03bc 8101     		.2byte	0x181
 2769 03be 6F000000 		.4byte	0x6f
 2770 03c2 E8010000 		.4byte	.LLST13
 2771 03c6 0E       		.uleb128 0xe
 2772 03c7 18020000 		.4byte	.LASF35
 2773 03cb 01       		.byte	0x1
 2774 03cc 8101     		.2byte	0x181
 2775 03ce 25000000 		.4byte	0x25
 2776 03d2 14020000 		.4byte	.LLST14
 2777 03d6 0E       		.uleb128 0xe
 2778 03d7 05030000 		.4byte	.LASF36
 2779 03db 01       		.byte	0x1
 2780 03dc 8101     		.2byte	0x181
 2781 03de 6F000000 		.4byte	0x6f
 2782 03e2 37020000 		.4byte	.LLST15
 2783 03e6 0E       		.uleb128 0xe
 2784 03e7 61040000 		.4byte	.LASF37
 2785 03eb 01       		.byte	0x1
 2786 03ec 8101     		.2byte	0x181
 2787 03ee 6F000000 		.4byte	0x6f
 2788 03f2 AE020000 		.4byte	.LLST16
 2789 03f6 0F       		.uleb128 0xf
 2790 03f7 54060000 		.4byte	.LASF38
 2791 03fb 01       		.byte	0x1
 2792 03fc 8201     		.2byte	0x182
 2793 03fe 6F000000 		.4byte	0x6f
 2794 0402 0C030000 		.4byte	.LLST17
 2795 0406 11       		.uleb128 0x11
 2796 0407 2D050000 		.4byte	.LASF39
 2797 040b 01       		.byte	0x1
 2798 040c 8301     		.2byte	0x183
 2799 040e 25000000 		.4byte	0x25
 2800 0412 04       		.byte	0x4
 2801 0413 0000A041 		.4byte	0x41a00000
 2802 0417 0F       		.uleb128 0xf
 2803 0418 38040000 		.4byte	.LASF40
 2804 041c 01       		.byte	0x1
 2805 041d 8401     		.2byte	0x184
 2806 041f 6F000000 		.4byte	0x6f
ARM GAS  C:\Users\Misha\AppData\Local\Temp\ccbcIC6d.s 			page 68


 2807 0423 85030000 		.4byte	.LLST18
 2808 0427 09       		.uleb128 0x9
 2809 0428 1E000000 		.4byte	.LVL60
 2810 042c B4170000 		.4byte	0x17b4
 2811 0430 07       		.uleb128 0x7
 2812 0431 3A000000 		.4byte	.LVL65
 2813 0435 C0170000 		.4byte	0x17c0
 2814 0439 43040000 		.4byte	0x443
 2815 043d 08       		.uleb128 0x8
 2816 043e 01       		.uleb128 0x1
 2817 043f 50       		.byte	0x50
 2818 0440 01       		.uleb128 0x1
 2819 0441 33       		.byte	0x33
 2820 0442 00       		.byte	0
 2821 0443 07       		.uleb128 0x7
 2822 0444 82000000 		.4byte	.LVL74
 2823 0448 CB170000 		.4byte	0x17cb
 2824 044c 61040000 		.4byte	0x461
 2825 0450 08       		.uleb128 0x8
 2826 0451 01       		.uleb128 0x1
 2827 0452 51       		.byte	0x51
 2828 0453 01       		.uleb128 0x1
 2829 0454 44       		.byte	0x44
 2830 0455 08       		.uleb128 0x8
 2831 0456 01       		.uleb128 0x1
 2832 0457 52       		.byte	0x52
 2833 0458 02       		.uleb128 0x2
 2834 0459 08       		.byte	0x8
 2835 045a 46       		.byte	0x46
 2836 045b 08       		.uleb128 0x8
 2837 045c 01       		.uleb128 0x1
 2838 045d 53       		.byte	0x53
 2839 045e 01       		.uleb128 0x1
 2840 045f 30       		.byte	0x30
 2841 0460 00       		.byte	0
 2842 0461 07       		.uleb128 0x7
 2843 0462 94000000 		.4byte	.LVL76
 2844 0466 CB170000 		.4byte	0x17cb
 2845 046a 7F040000 		.4byte	0x47f
 2846 046e 08       		.uleb128 0x8
 2847 046f 01       		.uleb128 0x1
 2848 0470 51       		.byte	0x51
 2849 0471 01       		.uleb128 0x1
 2850 0472 44       		.byte	0x44
 2851 0473 08       		.uleb128 0x8
 2852 0474 01       		.uleb128 0x1
 2853 0475 52       		.byte	0x52
 2854 0476 02       		.uleb128 0x2
 2855 0477 08       		.byte	0x8
 2856 0478 46       		.byte	0x46
 2857 0479 08       		.uleb128 0x8
 2858 047a 01       		.uleb128 0x1
 2859 047b 53       		.byte	0x53
 2860 047c 01       		.uleb128 0x1
 2861 047d 30       		.byte	0x30
 2862 047e 00       		.byte	0
 2863 047f 07       		.uleb128 0x7
ARM GAS  C:\Users\Misha\AppData\Local\Temp\ccbcIC6d.s 			page 69


 2864 0480 9A000000 		.4byte	.LVL77
 2865 0484 C0170000 		.4byte	0x17c0
 2866 0488 92040000 		.4byte	0x492
 2867 048c 08       		.uleb128 0x8
 2868 048d 01       		.uleb128 0x1
 2869 048e 50       		.byte	0x50
 2870 048f 01       		.uleb128 0x1
 2871 0490 33       		.byte	0x33
 2872 0491 00       		.byte	0
 2873 0492 07       		.uleb128 0x7
 2874 0493 B4000000 		.4byte	.LVL81
 2875 0497 C0170000 		.4byte	0x17c0
 2876 049b A5040000 		.4byte	0x4a5
 2877 049f 08       		.uleb128 0x8
 2878 04a0 01       		.uleb128 0x1
 2879 04a1 50       		.byte	0x50
 2880 04a2 01       		.uleb128 0x1
 2881 04a3 32       		.byte	0x32
 2882 04a4 00       		.byte	0
 2883 04a5 07       		.uleb128 0x7
 2884 04a6 FC000000 		.4byte	.LVL90
 2885 04aa CB170000 		.4byte	0x17cb
 2886 04ae C3040000 		.4byte	0x4c3
 2887 04b2 08       		.uleb128 0x8
 2888 04b3 01       		.uleb128 0x1
 2889 04b4 51       		.byte	0x51
 2890 04b5 01       		.uleb128 0x1
 2891 04b6 44       		.byte	0x44
 2892 04b7 08       		.uleb128 0x8
 2893 04b8 01       		.uleb128 0x1
 2894 04b9 52       		.byte	0x52
 2895 04ba 02       		.uleb128 0x2
 2896 04bb 08       		.byte	0x8
 2897 04bc 46       		.byte	0x46
 2898 04bd 08       		.uleb128 0x8
 2899 04be 01       		.uleb128 0x1
 2900 04bf 53       		.byte	0x53
 2901 04c0 01       		.uleb128 0x1
 2902 04c1 30       		.byte	0x30
 2903 04c2 00       		.byte	0
 2904 04c3 07       		.uleb128 0x7
 2905 04c4 0E010000 		.4byte	.LVL92
 2906 04c8 CB170000 		.4byte	0x17cb
 2907 04cc E1040000 		.4byte	0x4e1
 2908 04d0 08       		.uleb128 0x8
 2909 04d1 01       		.uleb128 0x1
 2910 04d2 51       		.byte	0x51
 2911 04d3 01       		.uleb128 0x1
 2912 04d4 44       		.byte	0x44
 2913 04d5 08       		.uleb128 0x8
 2914 04d6 01       		.uleb128 0x1
 2915 04d7 52       		.byte	0x52
 2916 04d8 02       		.uleb128 0x2
 2917 04d9 08       		.byte	0x8
 2918 04da 46       		.byte	0x46
 2919 04db 08       		.uleb128 0x8
 2920 04dc 01       		.uleb128 0x1
ARM GAS  C:\Users\Misha\AppData\Local\Temp\ccbcIC6d.s 			page 70


 2921 04dd 53       		.byte	0x53
 2922 04de 01       		.uleb128 0x1
 2923 04df 30       		.byte	0x30
 2924 04e0 00       		.byte	0
 2925 04e1 07       		.uleb128 0x7
 2926 04e2 14010000 		.4byte	.LVL93
 2927 04e6 C0170000 		.4byte	0x17c0
 2928 04ea F4040000 		.4byte	0x4f4
 2929 04ee 08       		.uleb128 0x8
 2930 04ef 01       		.uleb128 0x1
 2931 04f0 50       		.byte	0x50
 2932 04f1 01       		.uleb128 0x1
 2933 04f2 32       		.byte	0x32
 2934 04f3 00       		.byte	0
 2935 04f4 07       		.uleb128 0x7
 2936 04f5 2E010000 		.4byte	.LVL97
 2937 04f9 C0170000 		.4byte	0x17c0
 2938 04fd 07050000 		.4byte	0x507
 2939 0501 08       		.uleb128 0x8
 2940 0502 01       		.uleb128 0x1
 2941 0503 50       		.byte	0x50
 2942 0504 01       		.uleb128 0x1
 2943 0505 32       		.byte	0x32
 2944 0506 00       		.byte	0
 2945 0507 07       		.uleb128 0x7
 2946 0508 7A010000 		.4byte	.LVL106
 2947 050c CB170000 		.4byte	0x17cb
 2948 0510 25050000 		.4byte	0x525
 2949 0514 08       		.uleb128 0x8
 2950 0515 01       		.uleb128 0x1
 2951 0516 51       		.byte	0x51
 2952 0517 01       		.uleb128 0x1
 2953 0518 44       		.byte	0x44
 2954 0519 08       		.uleb128 0x8
 2955 051a 01       		.uleb128 0x1
 2956 051b 52       		.byte	0x52
 2957 051c 02       		.uleb128 0x2
 2958 051d 08       		.byte	0x8
 2959 051e 46       		.byte	0x46
 2960 051f 08       		.uleb128 0x8
 2961 0520 01       		.uleb128 0x1
 2962 0521 53       		.byte	0x53
 2963 0522 01       		.uleb128 0x1
 2964 0523 30       		.byte	0x30
 2965 0524 00       		.byte	0
 2966 0525 07       		.uleb128 0x7
 2967 0526 8C010000 		.4byte	.LVL108
 2968 052a CB170000 		.4byte	0x17cb
 2969 052e 43050000 		.4byte	0x543
 2970 0532 08       		.uleb128 0x8
 2971 0533 01       		.uleb128 0x1
 2972 0534 51       		.byte	0x51
 2973 0535 01       		.uleb128 0x1
 2974 0536 44       		.byte	0x44
 2975 0537 08       		.uleb128 0x8
 2976 0538 01       		.uleb128 0x1
 2977 0539 52       		.byte	0x52
ARM GAS  C:\Users\Misha\AppData\Local\Temp\ccbcIC6d.s 			page 71


 2978 053a 02       		.uleb128 0x2
 2979 053b 08       		.byte	0x8
 2980 053c 46       		.byte	0x46
 2981 053d 08       		.uleb128 0x8
 2982 053e 01       		.uleb128 0x1
 2983 053f 53       		.byte	0x53
 2984 0540 01       		.uleb128 0x1
 2985 0541 30       		.byte	0x30
 2986 0542 00       		.byte	0
 2987 0543 07       		.uleb128 0x7
 2988 0544 92010000 		.4byte	.LVL109
 2989 0548 C0170000 		.4byte	0x17c0
 2990 054c 56050000 		.4byte	0x556
 2991 0550 08       		.uleb128 0x8
 2992 0551 01       		.uleb128 0x1
 2993 0552 50       		.byte	0x50
 2994 0553 01       		.uleb128 0x1
 2995 0554 32       		.byte	0x32
 2996 0555 00       		.byte	0
 2997 0556 07       		.uleb128 0x7
 2998 0557 AA010000 		.4byte	.LVL113
 2999 055b C0170000 		.4byte	0x17c0
 3000 055f 69050000 		.4byte	0x569
 3001 0563 08       		.uleb128 0x8
 3002 0564 01       		.uleb128 0x1
 3003 0565 50       		.byte	0x50
 3004 0566 01       		.uleb128 0x1
 3005 0567 33       		.byte	0x33
 3006 0568 00       		.byte	0
 3007 0569 07       		.uleb128 0x7
 3008 056a F8010000 		.4byte	.LVL124
 3009 056e CB170000 		.4byte	0x17cb
 3010 0572 87050000 		.4byte	0x587
 3011 0576 08       		.uleb128 0x8
 3012 0577 01       		.uleb128 0x1
 3013 0578 51       		.byte	0x51
 3014 0579 01       		.uleb128 0x1
 3015 057a 44       		.byte	0x44
 3016 057b 08       		.uleb128 0x8
 3017 057c 01       		.uleb128 0x1
 3018 057d 52       		.byte	0x52
 3019 057e 02       		.uleb128 0x2
 3020 057f 08       		.byte	0x8
 3021 0580 46       		.byte	0x46
 3022 0581 08       		.uleb128 0x8
 3023 0582 01       		.uleb128 0x1
 3024 0583 53       		.byte	0x53
 3025 0584 01       		.uleb128 0x1
 3026 0585 30       		.byte	0x30
 3027 0586 00       		.byte	0
 3028 0587 07       		.uleb128 0x7
 3029 0588 0A020000 		.4byte	.LVL126
 3030 058c CB170000 		.4byte	0x17cb
 3031 0590 A5050000 		.4byte	0x5a5
 3032 0594 08       		.uleb128 0x8
 3033 0595 01       		.uleb128 0x1
 3034 0596 51       		.byte	0x51
ARM GAS  C:\Users\Misha\AppData\Local\Temp\ccbcIC6d.s 			page 72


 3035 0597 01       		.uleb128 0x1
 3036 0598 44       		.byte	0x44
 3037 0599 08       		.uleb128 0x8
 3038 059a 01       		.uleb128 0x1
 3039 059b 52       		.byte	0x52
 3040 059c 02       		.uleb128 0x2
 3041 059d 08       		.byte	0x8
 3042 059e 46       		.byte	0x46
 3043 059f 08       		.uleb128 0x8
 3044 05a0 01       		.uleb128 0x1
 3045 05a1 53       		.byte	0x53
 3046 05a2 01       		.uleb128 0x1
 3047 05a3 30       		.byte	0x30
 3048 05a4 00       		.byte	0
 3049 05a5 0A       		.uleb128 0xa
 3050 05a6 10020000 		.4byte	.LVL127
 3051 05aa C0170000 		.4byte	0x17c0
 3052 05ae 08       		.uleb128 0x8
 3053 05af 01       		.uleb128 0x1
 3054 05b0 50       		.byte	0x50
 3055 05b1 01       		.uleb128 0x1
 3056 05b2 33       		.byte	0x33
 3057 05b3 00       		.byte	0
 3058 05b4 00       		.byte	0
 3059 05b5 12       		.uleb128 0x12
 3060 05b6 8F050000 		.4byte	.LASF67
 3061 05ba 01       		.byte	0x1
 3062 05bb BC01     		.2byte	0x1bc
 3063 05bd 6F000000 		.4byte	0x6f
 3064 05c1 00000000 		.4byte	.LFB70
 3065 05c5 84000000 		.4byte	.LFE70-.LFB70
 3066 05c9 01       		.uleb128 0x1
 3067 05ca 9C       		.byte	0x9c
 3068 05cb 9C060000 		.4byte	0x69c
 3069 05cf 0E       		.uleb128 0xe
 3070 05d0 28010000 		.4byte	.LASF41
 3071 05d4 01       		.byte	0x1
 3072 05d5 BC01     		.2byte	0x1bc
 3073 05d7 6F000000 		.4byte	0x6f
 3074 05db E5030000 		.4byte	.LLST19
 3075 05df 0F       		.uleb128 0xf
 3076 05e0 4F010000 		.4byte	.LASF42
 3077 05e4 01       		.byte	0x1
 3078 05e5 BD01     		.2byte	0x1bd
 3079 05e7 6F000000 		.4byte	0x6f
 3080 05eb 51040000 		.4byte	.LLST20
 3081 05ef 07       		.uleb128 0x7
 3082 05f0 12000000 		.4byte	.LVL133
 3083 05f4 C0170000 		.4byte	0x17c0
 3084 05f8 02060000 		.4byte	0x602
 3085 05fc 08       		.uleb128 0x8
 3086 05fd 01       		.uleb128 0x1
 3087 05fe 50       		.byte	0x50
 3088 05ff 01       		.uleb128 0x1
 3089 0600 34       		.byte	0x34
 3090 0601 00       		.byte	0
 3091 0602 07       		.uleb128 0x7
ARM GAS  C:\Users\Misha\AppData\Local\Temp\ccbcIC6d.s 			page 73


 3092 0603 18000000 		.4byte	.LVL134
 3093 0607 51170000 		.4byte	0x1751
 3094 060b 16060000 		.4byte	0x616
 3095 060f 08       		.uleb128 0x8
 3096 0610 01       		.uleb128 0x1
 3097 0611 50       		.byte	0x50
 3098 0612 02       		.uleb128 0x2
 3099 0613 08       		.byte	0x8
 3100 0614 32       		.byte	0x32
 3101 0615 00       		.byte	0
 3102 0616 07       		.uleb128 0x7
 3103 0617 2C000000 		.4byte	.LVL136
 3104 061b 5C170000 		.4byte	0x175c
 3105 061f 33060000 		.4byte	0x633
 3106 0623 08       		.uleb128 0x8
 3107 0624 01       		.uleb128 0x1
 3108 0625 50       		.byte	0x50
 3109 0626 02       		.uleb128 0x2
 3110 0627 74       		.byte	0x74
 3111 0628 00       		.sleb128 0
 3112 0629 08       		.uleb128 0x8
 3113 062a 01       		.uleb128 0x1
 3114 062b 51       		.byte	0x51
 3115 062c 05       		.uleb128 0x5
 3116 062d 03       		.byte	0x3
 3117 062e 08000000 		.4byte	.LC1
 3118 0632 00       		.byte	0
 3119 0633 07       		.uleb128 0x7
 3120 0634 32000000 		.4byte	.LVL137
 3121 0638 67170000 		.4byte	0x1767
 3122 063c 47060000 		.4byte	0x647
 3123 0640 08       		.uleb128 0x8
 3124 0641 01       		.uleb128 0x1
 3125 0642 50       		.byte	0x50
 3126 0643 02       		.uleb128 0x2
 3127 0644 74       		.byte	0x74
 3128 0645 00       		.sleb128 0
 3129 0646 00       		.byte	0
 3130 0647 07       		.uleb128 0x7
 3131 0648 40000000 		.4byte	.LVL140
 3132 064c C0170000 		.4byte	0x17c0
 3133 0650 5A060000 		.4byte	0x65a
 3134 0654 08       		.uleb128 0x8
 3135 0655 01       		.uleb128 0x1
 3136 0656 50       		.byte	0x50
 3137 0657 01       		.uleb128 0x1
 3138 0658 30       		.byte	0x30
 3139 0659 00       		.byte	0
 3140 065a 07       		.uleb128 0x7
 3141 065b 46000000 		.4byte	.LVL141
 3142 065f 51170000 		.4byte	0x1751
 3143 0663 6E060000 		.4byte	0x66e
 3144 0667 08       		.uleb128 0x8
 3145 0668 01       		.uleb128 0x1
 3146 0669 50       		.byte	0x50
 3147 066a 02       		.uleb128 0x2
 3148 066b 08       		.byte	0x8
ARM GAS  C:\Users\Misha\AppData\Local\Temp\ccbcIC6d.s 			page 74


 3149 066c 32       		.byte	0x32
 3150 066d 00       		.byte	0
 3151 066e 07       		.uleb128 0x7
 3152 066f 5A000000 		.4byte	.LVL143
 3153 0673 5C170000 		.4byte	0x175c
 3154 0677 8B060000 		.4byte	0x68b
 3155 067b 08       		.uleb128 0x8
 3156 067c 01       		.uleb128 0x1
 3157 067d 50       		.byte	0x50
 3158 067e 02       		.uleb128 0x2
 3159 067f 74       		.byte	0x74
 3160 0680 00       		.sleb128 0
 3161 0681 08       		.uleb128 0x8
 3162 0682 01       		.uleb128 0x1
 3163 0683 51       		.byte	0x51
 3164 0684 05       		.uleb128 0x5
 3165 0685 03       		.byte	0x3
 3166 0686 08000000 		.4byte	.LC1
 3167 068a 00       		.byte	0
 3168 068b 0A       		.uleb128 0xa
 3169 068c 60000000 		.4byte	.LVL144
 3170 0690 67170000 		.4byte	0x1767
 3171 0694 08       		.uleb128 0x8
 3172 0695 01       		.uleb128 0x1
 3173 0696 50       		.byte	0x50
 3174 0697 02       		.uleb128 0x2
 3175 0698 74       		.byte	0x74
 3176 0699 00       		.sleb128 0
 3177 069a 00       		.byte	0
 3178 069b 00       		.byte	0
 3179 069c 13       		.uleb128 0x13
 3180 069d DA060000 		.4byte	.LASF43
 3181 06a1 01       		.byte	0x1
 3182 06a2 8D       		.byte	0x8d
 3183 06a3 00000000 		.4byte	.LFB67
 3184 06a7 10030000 		.4byte	.LFE67-.LFB67
 3185 06ab 01       		.uleb128 0x1
 3186 06ac 9C       		.byte	0x9c
 3187 06ad 230B0000 		.4byte	0xb23
 3188 06b1 0B       		.uleb128 0xb
 3189 06b2 32030000 		.4byte	.LASF44
 3190 06b6 01       		.byte	0x1
 3191 06b7 8D       		.byte	0x8d
 3192 06b8 6F000000 		.4byte	0x6f
 3193 06bc 7A040000 		.4byte	.LLST21
 3194 06c0 0B       		.uleb128 0xb
 3195 06c1 28010000 		.4byte	.LASF41
 3196 06c5 01       		.byte	0x1
 3197 06c6 8D       		.byte	0x8d
 3198 06c7 6F000000 		.4byte	0x6f
 3199 06cb A6040000 		.4byte	.LLST22
 3200 06cf 0B       		.uleb128 0xb
 3201 06d0 61040000 		.4byte	.LASF37
 3202 06d4 01       		.byte	0x1
 3203 06d5 8D       		.byte	0x8d
 3204 06d6 6F000000 		.4byte	0x6f
 3205 06da D1040000 		.4byte	.LLST23
ARM GAS  C:\Users\Misha\AppData\Local\Temp\ccbcIC6d.s 			page 75


 3206 06de 0B       		.uleb128 0xb
 3207 06df 18000000 		.4byte	.LASF45
 3208 06e3 01       		.byte	0x1
 3209 06e4 8D       		.byte	0x8d
 3210 06e5 6F000000 		.4byte	0x6f
 3211 06e9 FC040000 		.4byte	.LLST24
 3212 06ed 0B       		.uleb128 0xb
 3213 06ee 5B040000 		.4byte	.LASF21
 3214 06f2 01       		.byte	0x1
 3215 06f3 8D       		.byte	0x8d
 3216 06f4 6F000000 		.4byte	0x6f
 3217 06f8 28050000 		.4byte	.LLST25
 3218 06fc 0B       		.uleb128 0xb
 3219 06fd A4050000 		.4byte	.LASF46
 3220 0701 01       		.byte	0x1
 3221 0702 8D       		.byte	0x8d
 3222 0703 6F000000 		.4byte	0x6f
 3223 0707 48050000 		.4byte	.LLST26
 3224 070b 06       		.uleb128 0x6
 3225 070c 4E000000 		.4byte	.LASF23
 3226 0710 01       		.byte	0x1
 3227 0711 97       		.byte	0x97
 3228 0712 6F000000 		.4byte	0x6f
 3229 0716 68050000 		.4byte	.LLST27
 3230 071a 06       		.uleb128 0x6
 3231 071b C8070000 		.4byte	.LASF22
 3232 071f 01       		.byte	0x1
 3233 0720 98       		.byte	0x98
 3234 0721 6F000000 		.4byte	0x6f
 3235 0725 B4050000 		.4byte	.LLST28
 3236 0729 06       		.uleb128 0x6
 3237 072a 95000000 		.4byte	.LASF24
 3238 072e 01       		.byte	0x1
 3239 072f 99       		.byte	0x99
 3240 0730 6F000000 		.4byte	0x6f
 3241 0734 D2050000 		.4byte	.LLST29
 3242 0738 06       		.uleb128 0x6
 3243 0739 D4070000 		.4byte	.LASF25
 3244 073d 01       		.byte	0x1
 3245 073e 9A       		.byte	0x9a
 3246 073f 6F000000 		.4byte	0x6f
 3247 0743 06060000 		.4byte	.LLST30
 3248 0747 06       		.uleb128 0x6
 3249 0748 03060000 		.4byte	.LASF47
 3250 074c 01       		.byte	0x1
 3251 074d 9B       		.byte	0x9b
 3252 074e 6F000000 		.4byte	0x6f
 3253 0752 3A060000 		.4byte	.LLST31
 3254 0756 06       		.uleb128 0x6
 3255 0757 67030000 		.4byte	.LASF48
 3256 075b 01       		.byte	0x1
 3257 075c 9D       		.byte	0x9d
 3258 075d 6F000000 		.4byte	0x6f
 3259 0761 A2060000 		.4byte	.LLST32
 3260 0765 06       		.uleb128 0x6
 3261 0766 8B040000 		.4byte	.LASF49
 3262 076a 01       		.byte	0x1
ARM GAS  C:\Users\Misha\AppData\Local\Temp\ccbcIC6d.s 			page 76


 3263 076b 9F       		.byte	0x9f
 3264 076c 6F000000 		.4byte	0x6f
 3265 0770 B5060000 		.4byte	.LLST33
 3266 0774 06       		.uleb128 0x6
 3267 0775 8F010000 		.4byte	.LASF50
 3268 0779 01       		.byte	0x1
 3269 077a A1       		.byte	0xa1
 3270 077b 6F000000 		.4byte	0x6f
 3271 077f 25070000 		.4byte	.LLST34
 3272 0783 14       		.uleb128 0x14
 3273 0784 9A000000 		.4byte	.LBB2
 3274 0788 E6000000 		.4byte	.LBE2-.LBB2
 3275 078c 9E080000 		.4byte	0x89e
 3276 0790 06       		.uleb128 0x6
 3277 0791 BE040000 		.4byte	.LASF51
 3278 0795 01       		.byte	0x1
 3279 0796 FD       		.byte	0xfd
 3280 0797 6F000000 		.4byte	0x6f
 3281 079b 92070000 		.4byte	.LLST35
 3282 079f 09       		.uleb128 0x9
 3283 07a0 9E000000 		.4byte	.LVL168
 3284 07a4 46170000 		.4byte	0x1746
 3285 07a8 09       		.uleb128 0x9
 3286 07a9 A6000000 		.4byte	.LVL170
 3287 07ad 3B170000 		.4byte	0x173b
 3288 07b1 07       		.uleb128 0x7
 3289 07b2 D2000000 		.4byte	.LVL177
 3290 07b6 04170000 		.4byte	0x1704
 3291 07ba C5070000 		.4byte	0x7c5
 3292 07be 08       		.uleb128 0x8
 3293 07bf 01       		.uleb128 0x1
 3294 07c0 50       		.byte	0x50
 3295 07c1 02       		.uleb128 0x2
 3296 07c2 79       		.byte	0x79
 3297 07c3 00       		.sleb128 0
 3298 07c4 00       		.byte	0
 3299 07c5 07       		.uleb128 0x7
 3300 07c6 DA000000 		.4byte	.LVL178
 3301 07ca 1A170000 		.4byte	0x171a
 3302 07ce D9070000 		.4byte	0x7d9
 3303 07d2 08       		.uleb128 0x8
 3304 07d3 01       		.uleb128 0x1
 3305 07d4 50       		.byte	0x50
 3306 07d5 02       		.uleb128 0x2
 3307 07d6 7A       		.byte	0x7a
 3308 07d7 00       		.sleb128 0
 3309 07d8 00       		.byte	0
 3310 07d9 07       		.uleb128 0x7
 3311 07da E8000000 		.4byte	.LVL179
 3312 07de C0170000 		.4byte	0x17c0
 3313 07e2 EC070000 		.4byte	0x7ec
 3314 07e6 08       		.uleb128 0x8
 3315 07e7 01       		.uleb128 0x1
 3316 07e8 50       		.byte	0x50
 3317 07e9 01       		.uleb128 0x1
 3318 07ea 30       		.byte	0x30
 3319 07eb 00       		.byte	0
ARM GAS  C:\Users\Misha\AppData\Local\Temp\ccbcIC6d.s 			page 77


 3320 07ec 07       		.uleb128 0x7
 3321 07ed EE000000 		.4byte	.LVL180
 3322 07f1 51170000 		.4byte	0x1751
 3323 07f5 00080000 		.4byte	0x800
 3324 07f9 08       		.uleb128 0x8
 3325 07fa 01       		.uleb128 0x1
 3326 07fb 50       		.byte	0x50
 3327 07fc 02       		.uleb128 0x2
 3328 07fd 08       		.byte	0x8
 3329 07fe 32       		.byte	0x32
 3330 07ff 00       		.byte	0
 3331 0800 07       		.uleb128 0x7
 3332 0801 08010000 		.4byte	.LVL183
 3333 0805 C0170000 		.4byte	0x17c0
 3334 0809 13080000 		.4byte	0x813
 3335 080d 08       		.uleb128 0x8
 3336 080e 01       		.uleb128 0x1
 3337 080f 50       		.byte	0x50
 3338 0810 01       		.uleb128 0x1
 3339 0811 31       		.byte	0x31
 3340 0812 00       		.byte	0
 3341 0813 07       		.uleb128 0x7
 3342 0814 0E010000 		.4byte	.LVL184
 3343 0818 51170000 		.4byte	0x1751
 3344 081c 27080000 		.4byte	0x827
 3345 0820 08       		.uleb128 0x8
 3346 0821 01       		.uleb128 0x1
 3347 0822 50       		.byte	0x50
 3348 0823 02       		.uleb128 0x2
 3349 0824 08       		.byte	0x8
 3350 0825 32       		.byte	0x32
 3351 0826 00       		.byte	0
 3352 0827 07       		.uleb128 0x7
 3353 0828 20010000 		.4byte	.LVL187
 3354 082c C0170000 		.4byte	0x17c0
 3355 0830 3B080000 		.4byte	0x83b
 3356 0834 08       		.uleb128 0x8
 3357 0835 01       		.uleb128 0x1
 3358 0836 50       		.byte	0x50
 3359 0837 02       		.uleb128 0x2
 3360 0838 74       		.byte	0x74
 3361 0839 00       		.sleb128 0
 3362 083a 00       		.byte	0
 3363 083b 07       		.uleb128 0x7
 3364 083c 26010000 		.4byte	.LVL188
 3365 0840 51170000 		.4byte	0x1751
 3366 0844 4F080000 		.4byte	0x84f
 3367 0848 08       		.uleb128 0x8
 3368 0849 01       		.uleb128 0x1
 3369 084a 50       		.byte	0x50
 3370 084b 02       		.uleb128 0x2
 3371 084c 08       		.byte	0x8
 3372 084d 32       		.byte	0x32
 3373 084e 00       		.byte	0
 3374 084f 07       		.uleb128 0x7
 3375 0850 36010000 		.4byte	.LVL190
 3376 0854 5C170000 		.4byte	0x175c
ARM GAS  C:\Users\Misha\AppData\Local\Temp\ccbcIC6d.s 			page 78


 3377 0858 75080000 		.4byte	0x875
 3378 085c 08       		.uleb128 0x8
 3379 085d 01       		.uleb128 0x1
 3380 085e 50       		.byte	0x50
 3381 085f 05       		.uleb128 0x5
 3382 0860 03       		.byte	0x3
 3383 0861 00000000 		.4byte	output
 3384 0865 08       		.uleb128 0x8
 3385 0866 01       		.uleb128 0x1
 3386 0867 51       		.byte	0x51
 3387 0868 05       		.uleb128 0x5
 3388 0869 03       		.byte	0x3
 3389 086a 28000000 		.4byte	.LC2
 3390 086e 08       		.uleb128 0x8
 3391 086f 01       		.uleb128 0x1
 3392 0870 52       		.byte	0x52
 3393 0871 02       		.uleb128 0x2
 3394 0872 75       		.byte	0x75
 3395 0873 00       		.sleb128 0
 3396 0874 00       		.byte	0
 3397 0875 07       		.uleb128 0x7
 3398 0876 3C010000 		.4byte	.LVL191
 3399 087a 67170000 		.4byte	0x1767
 3400 087e 8C080000 		.4byte	0x88c
 3401 0882 08       		.uleb128 0x8
 3402 0883 01       		.uleb128 0x1
 3403 0884 50       		.byte	0x50
 3404 0885 05       		.uleb128 0x5
 3405 0886 03       		.byte	0x3
 3406 0887 00000000 		.4byte	output
 3407 088b 00       		.byte	0
 3408 088c 0A       		.uleb128 0xa
 3409 088d 78010000 		.4byte	.LVL197
 3410 0891 B5050000 		.4byte	0x5b5
 3411 0895 08       		.uleb128 0x8
 3412 0896 01       		.uleb128 0x1
 3413 0897 50       		.byte	0x50
 3414 0898 03       		.uleb128 0x3
 3415 0899 91       		.byte	0x91
 3416 089a 54       		.sleb128 -44
 3417 089b 06       		.byte	0x6
 3418 089c 00       		.byte	0
 3419 089d 00       		.byte	0
 3420 089e 14       		.uleb128 0x14
 3421 089f B4010000 		.4byte	.LBB3
 3422 08a3 A4000000 		.4byte	.LBE3-.LBB3
 3423 08a7 6C090000 		.4byte	0x96c
 3424 08ab 0F       		.uleb128 0xf
 3425 08ac BE040000 		.4byte	.LASF51
 3426 08b0 01       		.byte	0x1
 3427 08b1 3501     		.2byte	0x135
 3428 08b3 6F000000 		.4byte	0x6f
 3429 08b7 A6070000 		.4byte	.LLST36
 3430 08bb 09       		.uleb128 0x9
 3431 08bc B8010000 		.4byte	.LVL203
 3432 08c0 46170000 		.4byte	0x1746
 3433 08c4 09       		.uleb128 0x9
ARM GAS  C:\Users\Misha\AppData\Local\Temp\ccbcIC6d.s 			page 79


 3434 08c5 C0010000 		.4byte	.LVL205
 3435 08c9 3B170000 		.4byte	0x173b
 3436 08cd 07       		.uleb128 0x7
 3437 08ce EC010000 		.4byte	.LVL212
 3438 08d2 04170000 		.4byte	0x1704
 3439 08d6 E1080000 		.4byte	0x8e1
 3440 08da 08       		.uleb128 0x8
 3441 08db 01       		.uleb128 0x1
 3442 08dc 50       		.byte	0x50
 3443 08dd 02       		.uleb128 0x2
 3444 08de 79       		.byte	0x79
 3445 08df 00       		.sleb128 0
 3446 08e0 00       		.byte	0
 3447 08e1 07       		.uleb128 0x7
 3448 08e2 F4010000 		.4byte	.LVL213
 3449 08e6 1A170000 		.4byte	0x171a
 3450 08ea F5080000 		.4byte	0x8f5
 3451 08ee 08       		.uleb128 0x8
 3452 08ef 01       		.uleb128 0x1
 3453 08f0 50       		.byte	0x50
 3454 08f1 02       		.uleb128 0x2
 3455 08f2 7A       		.byte	0x7a
 3456 08f3 00       		.sleb128 0
 3457 08f4 00       		.byte	0
 3458 08f5 07       		.uleb128 0x7
 3459 08f6 FA010000 		.4byte	.LVL214
 3460 08fa C0170000 		.4byte	0x17c0
 3461 08fe 09090000 		.4byte	0x909
 3462 0902 08       		.uleb128 0x8
 3463 0903 01       		.uleb128 0x1
 3464 0904 50       		.byte	0x50
 3465 0905 02       		.uleb128 0x2
 3466 0906 74       		.byte	0x74
 3467 0907 00       		.sleb128 0
 3468 0908 00       		.byte	0
 3469 0909 07       		.uleb128 0x7
 3470 090a 00020000 		.4byte	.LVL215
 3471 090e 51170000 		.4byte	0x1751
 3472 0912 1D090000 		.4byte	0x91d
 3473 0916 08       		.uleb128 0x8
 3474 0917 01       		.uleb128 0x1
 3475 0918 50       		.byte	0x50
 3476 0919 02       		.uleb128 0x2
 3477 091a 08       		.byte	0x8
 3478 091b 32       		.byte	0x32
 3479 091c 00       		.byte	0
 3480 091d 07       		.uleb128 0x7
 3481 091e 10020000 		.4byte	.LVL217
 3482 0922 5C170000 		.4byte	0x175c
 3483 0926 43090000 		.4byte	0x943
 3484 092a 08       		.uleb128 0x8
 3485 092b 01       		.uleb128 0x1
 3486 092c 50       		.byte	0x50
 3487 092d 05       		.uleb128 0x5
 3488 092e 03       		.byte	0x3
 3489 092f 00000000 		.4byte	output
 3490 0933 08       		.uleb128 0x8
ARM GAS  C:\Users\Misha\AppData\Local\Temp\ccbcIC6d.s 			page 80


 3491 0934 01       		.uleb128 0x1
 3492 0935 51       		.byte	0x51
 3493 0936 05       		.uleb128 0x5
 3494 0937 03       		.byte	0x3
 3495 0938 28000000 		.4byte	.LC2
 3496 093c 08       		.uleb128 0x8
 3497 093d 01       		.uleb128 0x1
 3498 093e 52       		.byte	0x52
 3499 093f 02       		.uleb128 0x2
 3500 0940 75       		.byte	0x75
 3501 0941 00       		.sleb128 0
 3502 0942 00       		.byte	0
 3503 0943 07       		.uleb128 0x7
 3504 0944 16020000 		.4byte	.LVL218
 3505 0948 67170000 		.4byte	0x1767
 3506 094c 5A090000 		.4byte	0x95a
 3507 0950 08       		.uleb128 0x8
 3508 0951 01       		.uleb128 0x1
 3509 0952 50       		.byte	0x50
 3510 0953 05       		.uleb128 0x5
 3511 0954 03       		.byte	0x3
 3512 0955 00000000 		.4byte	output
 3513 0959 00       		.byte	0
 3514 095a 0A       		.uleb128 0xa
 3515 095b 52020000 		.4byte	.LVL224
 3516 095f B5050000 		.4byte	0x5b5
 3517 0963 08       		.uleb128 0x8
 3518 0964 01       		.uleb128 0x1
 3519 0965 50       		.byte	0x50
 3520 0966 03       		.uleb128 0x3
 3521 0967 91       		.byte	0x91
 3522 0968 54       		.sleb128 -44
 3523 0969 06       		.byte	0x6
 3524 096a 00       		.byte	0
 3525 096b 00       		.byte	0
 3526 096c 07       		.uleb128 0x7
 3527 096d 1A000000 		.4byte	.LVL153
 3528 0971 E3160000 		.4byte	0x16e3
 3529 0975 7F090000 		.4byte	0x97f
 3530 0979 08       		.uleb128 0x8
 3531 097a 01       		.uleb128 0x1
 3532 097b 50       		.byte	0x50
 3533 097c 01       		.uleb128 0x1
 3534 097d 30       		.byte	0x30
 3535 097e 00       		.byte	0
 3536 097f 07       		.uleb128 0x7
 3537 0980 20000000 		.4byte	.LVL154
 3538 0984 EE160000 		.4byte	0x16ee
 3539 0988 92090000 		.4byte	0x992
 3540 098c 08       		.uleb128 0x8
 3541 098d 01       		.uleb128 0x1
 3542 098e 50       		.byte	0x50
 3543 098f 01       		.uleb128 0x1
 3544 0990 30       		.byte	0x30
 3545 0991 00       		.byte	0
 3546 0992 07       		.uleb128 0x7
 3547 0993 2A000000 		.4byte	.LVL155
ARM GAS  C:\Users\Misha\AppData\Local\Temp\ccbcIC6d.s 			page 81


 3548 0997 E3160000 		.4byte	0x16e3
 3549 099b A5090000 		.4byte	0x9a5
 3550 099f 08       		.uleb128 0x8
 3551 09a0 01       		.uleb128 0x1
 3552 09a1 50       		.byte	0x50
 3553 09a2 01       		.uleb128 0x1
 3554 09a3 31       		.byte	0x31
 3555 09a4 00       		.byte	0
 3556 09a5 07       		.uleb128 0x7
 3557 09a6 30000000 		.4byte	.LVL156
 3558 09aa EE160000 		.4byte	0x16ee
 3559 09ae B8090000 		.4byte	0x9b8
 3560 09b2 08       		.uleb128 0x8
 3561 09b3 01       		.uleb128 0x1
 3562 09b4 50       		.byte	0x50
 3563 09b5 01       		.uleb128 0x1
 3564 09b6 31       		.byte	0x31
 3565 09b7 00       		.byte	0
 3566 09b8 07       		.uleb128 0x7
 3567 09b9 42000000 		.4byte	.LVL158
 3568 09bd C0170000 		.4byte	0x17c0
 3569 09c1 CC090000 		.4byte	0x9cc
 3570 09c5 08       		.uleb128 0x8
 3571 09c6 01       		.uleb128 0x1
 3572 09c7 50       		.byte	0x50
 3573 09c8 02       		.uleb128 0x2
 3574 09c9 74       		.byte	0x74
 3575 09ca 00       		.sleb128 0
 3576 09cb 00       		.byte	0
 3577 09cc 07       		.uleb128 0x7
 3578 09cd 48000000 		.4byte	.LVL159
 3579 09d1 51170000 		.4byte	0x1751
 3580 09d5 E0090000 		.4byte	0x9e0
 3581 09d9 08       		.uleb128 0x8
 3582 09da 01       		.uleb128 0x1
 3583 09db 50       		.byte	0x50
 3584 09dc 02       		.uleb128 0x2
 3585 09dd 08       		.byte	0x8
 3586 09de 32       		.byte	0x32
 3587 09df 00       		.byte	0
 3588 09e0 07       		.uleb128 0x7
 3589 09e1 5A000000 		.4byte	.LVL161
 3590 09e5 5C170000 		.4byte	0x175c
 3591 09e9 030A0000 		.4byte	0xa03
 3592 09ed 08       		.uleb128 0x8
 3593 09ee 01       		.uleb128 0x1
 3594 09ef 50       		.byte	0x50
 3595 09f0 02       		.uleb128 0x2
 3596 09f1 77       		.byte	0x77
 3597 09f2 00       		.sleb128 0
 3598 09f3 08       		.uleb128 0x8
 3599 09f4 01       		.uleb128 0x1
 3600 09f5 51       		.byte	0x51
 3601 09f6 05       		.uleb128 0x5
 3602 09f7 03       		.byte	0x3
 3603 09f8 28000000 		.4byte	.LC2
 3604 09fc 08       		.uleb128 0x8
ARM GAS  C:\Users\Misha\AppData\Local\Temp\ccbcIC6d.s 			page 82


 3605 09fd 01       		.uleb128 0x1
 3606 09fe 52       		.byte	0x52
 3607 09ff 02       		.uleb128 0x2
 3608 0a00 75       		.byte	0x75
 3609 0a01 00       		.sleb128 0
 3610 0a02 00       		.byte	0
 3611 0a03 07       		.uleb128 0x7
 3612 0a04 60000000 		.4byte	.LVL162
 3613 0a08 67170000 		.4byte	0x1767
 3614 0a0c 170A0000 		.4byte	0xa17
 3615 0a10 08       		.uleb128 0x8
 3616 0a11 01       		.uleb128 0x1
 3617 0a12 50       		.byte	0x50
 3618 0a13 02       		.uleb128 0x2
 3619 0a14 77       		.byte	0x77
 3620 0a15 00       		.sleb128 0
 3621 0a16 00       		.byte	0
 3622 0a17 09       		.uleb128 0x9
 3623 0a18 70000000 		.4byte	.LVL163
 3624 0a1c F9160000 		.4byte	0x16f9
 3625 0a20 07       		.uleb128 0x7
 3626 0a21 7A000000 		.4byte	.LVL164
 3627 0a25 04170000 		.4byte	0x1704
 3628 0a29 340A0000 		.4byte	0xa34
 3629 0a2d 08       		.uleb128 0x8
 3630 0a2e 01       		.uleb128 0x1
 3631 0a2f 50       		.byte	0x50
 3632 0a30 02       		.uleb128 0x2
 3633 0a31 78       		.byte	0x78
 3634 0a32 00       		.sleb128 0
 3635 0a33 00       		.byte	0
 3636 0a34 09       		.uleb128 0x9
 3637 0a35 7E000000 		.4byte	.LVL165
 3638 0a39 0F170000 		.4byte	0x170f
 3639 0a3d 07       		.uleb128 0x7
 3640 0a3e 84000000 		.4byte	.LVL166
 3641 0a42 1A170000 		.4byte	0x171a
 3642 0a46 510A0000 		.4byte	0xa51
 3643 0a4a 08       		.uleb128 0x8
 3644 0a4b 01       		.uleb128 0x1
 3645 0a4c 50       		.byte	0x50
 3646 0a4d 02       		.uleb128 0x2
 3647 0a4e 78       		.byte	0x78
 3648 0a4f 00       		.sleb128 0
 3649 0a50 00       		.byte	0
 3650 0a51 07       		.uleb128 0x7
 3651 0a52 70020000 		.4byte	.LVL228
 3652 0a56 C0170000 		.4byte	0x17c0
 3653 0a5a 650A0000 		.4byte	0xa65
 3654 0a5e 08       		.uleb128 0x8
 3655 0a5f 01       		.uleb128 0x1
 3656 0a60 50       		.byte	0x50
 3657 0a61 02       		.uleb128 0x2
 3658 0a62 74       		.byte	0x74
 3659 0a63 00       		.sleb128 0
 3660 0a64 00       		.byte	0
 3661 0a65 07       		.uleb128 0x7
ARM GAS  C:\Users\Misha\AppData\Local\Temp\ccbcIC6d.s 			page 83


 3662 0a66 76020000 		.4byte	.LVL229
 3663 0a6a 51170000 		.4byte	0x1751
 3664 0a6e 790A0000 		.4byte	0xa79
 3665 0a72 08       		.uleb128 0x8
 3666 0a73 01       		.uleb128 0x1
 3667 0a74 50       		.byte	0x50
 3668 0a75 02       		.uleb128 0x2
 3669 0a76 08       		.byte	0x8
 3670 0a77 32       		.byte	0x32
 3671 0a78 00       		.byte	0
 3672 0a79 07       		.uleb128 0x7
 3673 0a7a 86020000 		.4byte	.LVL230
 3674 0a7e 5C170000 		.4byte	0x175c
 3675 0a82 960A0000 		.4byte	0xa96
 3676 0a86 08       		.uleb128 0x8
 3677 0a87 01       		.uleb128 0x1
 3678 0a88 50       		.byte	0x50
 3679 0a89 02       		.uleb128 0x2
 3680 0a8a 75       		.byte	0x75
 3681 0a8b 00       		.sleb128 0
 3682 0a8c 08       		.uleb128 0x8
 3683 0a8d 01       		.uleb128 0x1
 3684 0a8e 51       		.byte	0x51
 3685 0a8f 05       		.uleb128 0x5
 3686 0a90 03       		.byte	0x3
 3687 0a91 30000000 		.4byte	.LC3
 3688 0a95 00       		.byte	0
 3689 0a96 07       		.uleb128 0x7
 3690 0a97 8C020000 		.4byte	.LVL231
 3691 0a9b 67170000 		.4byte	0x1767
 3692 0a9f AA0A0000 		.4byte	0xaaa
 3693 0aa3 08       		.uleb128 0x8
 3694 0aa4 01       		.uleb128 0x1
 3695 0aa5 50       		.byte	0x50
 3696 0aa6 02       		.uleb128 0x2
 3697 0aa7 75       		.byte	0x75
 3698 0aa8 00       		.sleb128 0
 3699 0aa9 00       		.byte	0
 3700 0aaa 09       		.uleb128 0x9
 3701 0aab 90020000 		.4byte	.LVL232
 3702 0aaf 46170000 		.4byte	0x1746
 3703 0ab3 07       		.uleb128 0x7
 3704 0ab4 B6020000 		.4byte	.LVL237
 3705 0ab8 5C170000 		.4byte	0x175c
 3706 0abc D60A0000 		.4byte	0xad6
 3707 0ac0 08       		.uleb128 0x8
 3708 0ac1 01       		.uleb128 0x1
 3709 0ac2 50       		.byte	0x50
 3710 0ac3 02       		.uleb128 0x2
 3711 0ac4 75       		.byte	0x75
 3712 0ac5 00       		.sleb128 0
 3713 0ac6 08       		.uleb128 0x8
 3714 0ac7 01       		.uleb128 0x1
 3715 0ac8 51       		.byte	0x51
 3716 0ac9 05       		.uleb128 0x5
 3717 0aca 03       		.byte	0x3
 3718 0acb 3C000000 		.4byte	.LC4
ARM GAS  C:\Users\Misha\AppData\Local\Temp\ccbcIC6d.s 			page 84


 3719 0acf 08       		.uleb128 0x8
 3720 0ad0 01       		.uleb128 0x1
 3721 0ad1 52       		.byte	0x52
 3722 0ad2 02       		.uleb128 0x2
 3723 0ad3 74       		.byte	0x74
 3724 0ad4 00       		.sleb128 0
 3725 0ad5 00       		.byte	0
 3726 0ad6 07       		.uleb128 0x7
 3727 0ad7 BC020000 		.4byte	.LVL238
 3728 0adb 67170000 		.4byte	0x1767
 3729 0adf EA0A0000 		.4byte	0xaea
 3730 0ae3 08       		.uleb128 0x8
 3731 0ae4 01       		.uleb128 0x1
 3732 0ae5 50       		.byte	0x50
 3733 0ae6 02       		.uleb128 0x2
 3734 0ae7 75       		.byte	0x75
 3735 0ae8 00       		.sleb128 0
 3736 0ae9 00       		.byte	0
 3737 0aea 07       		.uleb128 0x7
 3738 0aeb C2020000 		.4byte	.LVL239
 3739 0aef 72170000 		.4byte	0x1772
 3740 0af3 FD0A0000 		.4byte	0xafd
 3741 0af7 08       		.uleb128 0x8
 3742 0af8 01       		.uleb128 0x1
 3743 0af9 50       		.byte	0x50
 3744 0afa 01       		.uleb128 0x1
 3745 0afb 30       		.byte	0x30
 3746 0afc 00       		.byte	0
 3747 0afd 07       		.uleb128 0x7
 3748 0afe C8020000 		.4byte	.LVL240
 3749 0b02 7D170000 		.4byte	0x177d
 3750 0b06 100B0000 		.4byte	0xb10
 3751 0b0a 08       		.uleb128 0x8
 3752 0b0b 01       		.uleb128 0x1
 3753 0b0c 50       		.byte	0x50
 3754 0b0d 01       		.uleb128 0x1
 3755 0b0e 30       		.byte	0x30
 3756 0b0f 00       		.byte	0
 3757 0b10 09       		.uleb128 0x9
 3758 0b11 CC020000 		.4byte	.LVL241
 3759 0b15 88170000 		.4byte	0x1788
 3760 0b19 09       		.uleb128 0x9
 3761 0b1a D0020000 		.4byte	.LVL242
 3762 0b1e 93170000 		.4byte	0x1793
 3763 0b22 00       		.byte	0
 3764 0b23 0D       		.uleb128 0xd
 3765 0b24 FE040000 		.4byte	.LASF52
 3766 0b28 01       		.byte	0x1
 3767 0b29 0302     		.2byte	0x203
 3768 0b2b 00000000 		.4byte	.LFB72
 3769 0b2f E8010000 		.4byte	.LFE72-.LFB72
 3770 0b33 01       		.uleb128 0x1
 3771 0b34 9C       		.byte	0x9c
 3772 0b35 210F0000 		.4byte	0xf21
 3773 0b39 0E       		.uleb128 0xe
 3774 0b3a E4030000 		.4byte	.LASF53
 3775 0b3e 01       		.byte	0x1
ARM GAS  C:\Users\Misha\AppData\Local\Temp\ccbcIC6d.s 			page 85


 3776 0b3f 0302     		.2byte	0x203
 3777 0b41 6F000000 		.4byte	0x6f
 3778 0b45 BA070000 		.4byte	.LLST37
 3779 0b49 0F       		.uleb128 0xf
 3780 0b4a 59020000 		.4byte	.LASF54
 3781 0b4e 01       		.byte	0x1
 3782 0b4f 0502     		.2byte	0x205
 3783 0b51 6F000000 		.4byte	0x6f
 3784 0b55 E6070000 		.4byte	.LLST38
 3785 0b59 0F       		.uleb128 0xf
 3786 0b5a 10010000 		.4byte	.LASF55
 3787 0b5e 01       		.byte	0x1
 3788 0b5f 0602     		.2byte	0x206
 3789 0b61 6F000000 		.4byte	0x6f
 3790 0b65 F9070000 		.4byte	.LLST39
 3791 0b69 0F       		.uleb128 0xf
 3792 0b6a 1D010000 		.4byte	.LASF56
 3793 0b6e 01       		.byte	0x1
 3794 0b6f 0702     		.2byte	0x207
 3795 0b71 6F000000 		.4byte	0x6f
 3796 0b75 0C080000 		.4byte	.LLST40
 3797 0b79 15       		.uleb128 0x15
 3798 0b7a 79000000 		.4byte	.LASF57
 3799 0b7e 01       		.byte	0x1
 3800 0b7f 0802     		.2byte	0x208
 3801 0b81 6F000000 		.4byte	0x6f
 3802 0b85 02       		.byte	0x2
 3803 0b86 16       		.uleb128 0x16
 3804 0b87 3F030000 		.4byte	.LASF58
 3805 0b8b 01       		.byte	0x1
 3806 0b8c 0902     		.2byte	0x209
 3807 0b8e 6F000000 		.4byte	0x6f
 3808 0b92 2003     		.2byte	0x320
 3809 0b94 15       		.uleb128 0x15
 3810 0b95 21050000 		.4byte	.LASF59
 3811 0b99 01       		.byte	0x1
 3812 0b9a 0A02     		.2byte	0x20a
 3813 0b9c 6F000000 		.4byte	0x6f
 3814 0ba0 32       		.byte	0x32
 3815 0ba1 15       		.uleb128 0x15
 3816 0ba2 5B040000 		.4byte	.LASF21
 3817 0ba6 01       		.byte	0x1
 3818 0ba7 0B02     		.2byte	0x20b
 3819 0ba9 6F000000 		.4byte	0x6f
 3820 0bad 19       		.byte	0x19
 3821 0bae 17       		.uleb128 0x17
 3822 0baf D3010000 		.4byte	.LASF64
 3823 0bb3 01       		.byte	0x1
 3824 0bb4 0C02     		.2byte	0x20c
 3825 0bb6 6F000000 		.4byte	0x6f
 3826 0bba 15       		.uleb128 0x15
 3827 0bbb 95000000 		.4byte	.LASF24
 3828 0bbf 01       		.byte	0x1
 3829 0bc0 2C02     		.2byte	0x22c
 3830 0bc2 6F000000 		.4byte	0x6f
 3831 0bc6 19       		.byte	0x19
 3832 0bc7 15       		.uleb128 0x15
ARM GAS  C:\Users\Misha\AppData\Local\Temp\ccbcIC6d.s 			page 86


 3833 0bc8 D4070000 		.4byte	.LASF25
 3834 0bcc 01       		.byte	0x1
 3835 0bcd 2D02     		.2byte	0x22d
 3836 0bcf 6F000000 		.4byte	0x6f
 3837 0bd3 19       		.byte	0x19
 3838 0bd4 09       		.uleb128 0x9
 3839 0bd5 0C000000 		.4byte	.LVL246
 3840 0bd9 D6170000 		.4byte	0x17d6
 3841 0bdd 07       		.uleb128 0x7
 3842 0bde 26000000 		.4byte	.LVL249
 3843 0be2 C0170000 		.4byte	0x17c0
 3844 0be6 F10B0000 		.4byte	0xbf1
 3845 0bea 08       		.uleb128 0x8
 3846 0beb 01       		.uleb128 0x1
 3847 0bec 50       		.byte	0x50
 3848 0bed 02       		.uleb128 0x2
 3849 0bee 75       		.byte	0x75
 3850 0bef 00       		.sleb128 0
 3851 0bf0 00       		.byte	0
 3852 0bf1 07       		.uleb128 0x7
 3853 0bf2 2C000000 		.4byte	.LVL250
 3854 0bf6 51170000 		.4byte	0x1751
 3855 0bfa 050C0000 		.4byte	0xc05
 3856 0bfe 08       		.uleb128 0x8
 3857 0bff 01       		.uleb128 0x1
 3858 0c00 50       		.byte	0x50
 3859 0c01 02       		.uleb128 0x2
 3860 0c02 08       		.byte	0x8
 3861 0c03 32       		.byte	0x32
 3862 0c04 00       		.byte	0
 3863 0c05 07       		.uleb128 0x7
 3864 0c06 40000000 		.4byte	.LVL252
 3865 0c0a 5C170000 		.4byte	0x175c
 3866 0c0e 1F0C0000 		.4byte	0xc1f
 3867 0c12 08       		.uleb128 0x8
 3868 0c13 01       		.uleb128 0x1
 3869 0c14 50       		.byte	0x50
 3870 0c15 02       		.uleb128 0x2
 3871 0c16 77       		.byte	0x77
 3872 0c17 00       		.sleb128 0
 3873 0c18 08       		.uleb128 0x8
 3874 0c19 01       		.uleb128 0x1
 3875 0c1a 51       		.byte	0x51
 3876 0c1b 02       		.uleb128 0x2
 3877 0c1c 78       		.byte	0x78
 3878 0c1d 00       		.sleb128 0
 3879 0c1e 00       		.byte	0
 3880 0c1f 07       		.uleb128 0x7
 3881 0c20 46000000 		.4byte	.LVL253
 3882 0c24 67170000 		.4byte	0x1767
 3883 0c28 330C0000 		.4byte	0xc33
 3884 0c2c 08       		.uleb128 0x8
 3885 0c2d 01       		.uleb128 0x1
 3886 0c2e 50       		.byte	0x50
 3887 0c2f 02       		.uleb128 0x2
 3888 0c30 77       		.byte	0x77
 3889 0c31 00       		.sleb128 0
ARM GAS  C:\Users\Misha\AppData\Local\Temp\ccbcIC6d.s 			page 87


 3890 0c32 00       		.byte	0
 3891 0c33 07       		.uleb128 0x7
 3892 0c34 4C000000 		.4byte	.LVL254
 3893 0c38 C0170000 		.4byte	0x17c0
 3894 0c3c 470C0000 		.4byte	0xc47
 3895 0c40 08       		.uleb128 0x8
 3896 0c41 01       		.uleb128 0x1
 3897 0c42 50       		.byte	0x50
 3898 0c43 02       		.uleb128 0x2
 3899 0c44 76       		.byte	0x76
 3900 0c45 00       		.sleb128 0
 3901 0c46 00       		.byte	0
 3902 0c47 07       		.uleb128 0x7
 3903 0c48 52000000 		.4byte	.LVL255
 3904 0c4c 51170000 		.4byte	0x1751
 3905 0c50 5B0C0000 		.4byte	0xc5b
 3906 0c54 08       		.uleb128 0x8
 3907 0c55 01       		.uleb128 0x1
 3908 0c56 50       		.byte	0x50
 3909 0c57 02       		.uleb128 0x2
 3910 0c58 08       		.byte	0x8
 3911 0c59 32       		.byte	0x32
 3912 0c5a 00       		.byte	0
 3913 0c5b 07       		.uleb128 0x7
 3914 0c5c 5E000000 		.4byte	.LVL256
 3915 0c60 5C170000 		.4byte	0x175c
 3916 0c64 750C0000 		.4byte	0xc75
 3917 0c68 08       		.uleb128 0x8
 3918 0c69 01       		.uleb128 0x1
 3919 0c6a 50       		.byte	0x50
 3920 0c6b 02       		.uleb128 0x2
 3921 0c6c 77       		.byte	0x77
 3922 0c6d 00       		.sleb128 0
 3923 0c6e 08       		.uleb128 0x8
 3924 0c6f 01       		.uleb128 0x1
 3925 0c70 51       		.byte	0x51
 3926 0c71 02       		.uleb128 0x2
 3927 0c72 78       		.byte	0x78
 3928 0c73 00       		.sleb128 0
 3929 0c74 00       		.byte	0
 3930 0c75 07       		.uleb128 0x7
 3931 0c76 64000000 		.4byte	.LVL257
 3932 0c7a 67170000 		.4byte	0x1767
 3933 0c7e 890C0000 		.4byte	0xc89
 3934 0c82 08       		.uleb128 0x8
 3935 0c83 01       		.uleb128 0x1
 3936 0c84 50       		.byte	0x50
 3937 0c85 02       		.uleb128 0x2
 3938 0c86 77       		.byte	0x77
 3939 0c87 00       		.sleb128 0
 3940 0c88 00       		.byte	0
 3941 0c89 07       		.uleb128 0x7
 3942 0c8a 78000000 		.4byte	.LVL259
 3943 0c8e 5C170000 		.4byte	0x175c
 3944 0c92 AC0C0000 		.4byte	0xcac
 3945 0c96 08       		.uleb128 0x8
 3946 0c97 01       		.uleb128 0x1
ARM GAS  C:\Users\Misha\AppData\Local\Temp\ccbcIC6d.s 			page 88


 3947 0c98 50       		.byte	0x50
 3948 0c99 02       		.uleb128 0x2
 3949 0c9a 77       		.byte	0x77
 3950 0c9b 00       		.sleb128 0
 3951 0c9c 08       		.uleb128 0x8
 3952 0c9d 01       		.uleb128 0x1
 3953 0c9e 51       		.byte	0x51
 3954 0c9f 05       		.uleb128 0x5
 3955 0ca0 03       		.byte	0x3
 3956 0ca1 50000000 		.4byte	.LC5
 3957 0ca5 08       		.uleb128 0x8
 3958 0ca6 01       		.uleb128 0x1
 3959 0ca7 52       		.byte	0x52
 3960 0ca8 02       		.uleb128 0x2
 3961 0ca9 74       		.byte	0x74
 3962 0caa 00       		.sleb128 0
 3963 0cab 00       		.byte	0
 3964 0cac 07       		.uleb128 0x7
 3965 0cad 7E000000 		.4byte	.LVL260
 3966 0cb1 67170000 		.4byte	0x1767
 3967 0cb5 C00C0000 		.4byte	0xcc0
 3968 0cb9 08       		.uleb128 0x8
 3969 0cba 01       		.uleb128 0x1
 3970 0cbb 50       		.byte	0x50
 3971 0cbc 02       		.uleb128 0x2
 3972 0cbd 77       		.byte	0x77
 3973 0cbe 00       		.sleb128 0
 3974 0cbf 00       		.byte	0
 3975 0cc0 09       		.uleb128 0x9
 3976 0cc1 90000000 		.4byte	.LVL262
 3977 0cc5 F9160000 		.4byte	0x16f9
 3978 0cc9 07       		.uleb128 0x7
 3979 0cca 96000000 		.4byte	.LVL263
 3980 0cce 04170000 		.4byte	0x1704
 3981 0cd2 DC0C0000 		.4byte	0xcdc
 3982 0cd6 08       		.uleb128 0x8
 3983 0cd7 01       		.uleb128 0x1
 3984 0cd8 50       		.byte	0x50
 3985 0cd9 01       		.uleb128 0x1
 3986 0cda 49       		.byte	0x49
 3987 0cdb 00       		.byte	0
 3988 0cdc 09       		.uleb128 0x9
 3989 0cdd 9A000000 		.4byte	.LVL264
 3990 0ce1 0F170000 		.4byte	0x170f
 3991 0ce5 07       		.uleb128 0x7
 3992 0ce6 A0000000 		.4byte	.LVL265
 3993 0cea 1A170000 		.4byte	0x171a
 3994 0cee F80C0000 		.4byte	0xcf8
 3995 0cf2 08       		.uleb128 0x8
 3996 0cf3 01       		.uleb128 0x1
 3997 0cf4 50       		.byte	0x50
 3998 0cf5 01       		.uleb128 0x1
 3999 0cf6 49       		.byte	0x49
 4000 0cf7 00       		.byte	0
 4001 0cf8 07       		.uleb128 0x7
 4002 0cf9 AC000000 		.4byte	.LVL266
 4003 0cfd E3160000 		.4byte	0x16e3
ARM GAS  C:\Users\Misha\AppData\Local\Temp\ccbcIC6d.s 			page 89


 4004 0d01 0B0D0000 		.4byte	0xd0b
 4005 0d05 08       		.uleb128 0x8
 4006 0d06 01       		.uleb128 0x1
 4007 0d07 50       		.byte	0x50
 4008 0d08 01       		.uleb128 0x1
 4009 0d09 30       		.byte	0x30
 4010 0d0a 00       		.byte	0
 4011 0d0b 07       		.uleb128 0x7
 4012 0d0c B2000000 		.4byte	.LVL267
 4013 0d10 EE160000 		.4byte	0x16ee
 4014 0d14 1E0D0000 		.4byte	0xd1e
 4015 0d18 08       		.uleb128 0x8
 4016 0d19 01       		.uleb128 0x1
 4017 0d1a 50       		.byte	0x50
 4018 0d1b 01       		.uleb128 0x1
 4019 0d1c 31       		.byte	0x31
 4020 0d1d 00       		.byte	0
 4021 0d1e 07       		.uleb128 0x7
 4022 0d1f BA000000 		.4byte	.LVL268
 4023 0d23 C0170000 		.4byte	0x17c0
 4024 0d27 320D0000 		.4byte	0xd32
 4025 0d2b 08       		.uleb128 0x8
 4026 0d2c 01       		.uleb128 0x1
 4027 0d2d 50       		.byte	0x50
 4028 0d2e 02       		.uleb128 0x2
 4029 0d2f 75       		.byte	0x75
 4030 0d30 00       		.sleb128 0
 4031 0d31 00       		.byte	0
 4032 0d32 07       		.uleb128 0x7
 4033 0d33 C0000000 		.4byte	.LVL269
 4034 0d37 51170000 		.4byte	0x1751
 4035 0d3b 460D0000 		.4byte	0xd46
 4036 0d3f 08       		.uleb128 0x8
 4037 0d40 01       		.uleb128 0x1
 4038 0d41 50       		.byte	0x50
 4039 0d42 02       		.uleb128 0x2
 4040 0d43 08       		.byte	0x8
 4041 0d44 32       		.byte	0x32
 4042 0d45 00       		.byte	0
 4043 0d46 07       		.uleb128 0x7
 4044 0d47 C6000000 		.4byte	.LVL270
 4045 0d4b C0170000 		.4byte	0x17c0
 4046 0d4f 5A0D0000 		.4byte	0xd5a
 4047 0d53 08       		.uleb128 0x8
 4048 0d54 01       		.uleb128 0x1
 4049 0d55 50       		.byte	0x50
 4050 0d56 02       		.uleb128 0x2
 4051 0d57 76       		.byte	0x76
 4052 0d58 00       		.sleb128 0
 4053 0d59 00       		.byte	0
 4054 0d5a 07       		.uleb128 0x7
 4055 0d5b CC000000 		.4byte	.LVL271
 4056 0d5f 51170000 		.4byte	0x1751
 4057 0d63 6E0D0000 		.4byte	0xd6e
 4058 0d67 08       		.uleb128 0x8
 4059 0d68 01       		.uleb128 0x1
 4060 0d69 50       		.byte	0x50
ARM GAS  C:\Users\Misha\AppData\Local\Temp\ccbcIC6d.s 			page 90


 4061 0d6a 02       		.uleb128 0x2
 4062 0d6b 08       		.byte	0x8
 4063 0d6c 32       		.byte	0x32
 4064 0d6d 00       		.byte	0
 4065 0d6e 07       		.uleb128 0x7
 4066 0d6f FA000000 		.4byte	.LVL274
 4067 0d73 E3160000 		.4byte	0x16e3
 4068 0d77 810D0000 		.4byte	0xd81
 4069 0d7b 08       		.uleb128 0x8
 4070 0d7c 01       		.uleb128 0x1
 4071 0d7d 50       		.byte	0x50
 4072 0d7e 01       		.uleb128 0x1
 4073 0d7f 31       		.byte	0x31
 4074 0d80 00       		.byte	0
 4075 0d81 07       		.uleb128 0x7
 4076 0d82 00010000 		.4byte	.LVL275
 4077 0d86 EE160000 		.4byte	0x16ee
 4078 0d8a 940D0000 		.4byte	0xd94
 4079 0d8e 08       		.uleb128 0x8
 4080 0d8f 01       		.uleb128 0x1
 4081 0d90 50       		.byte	0x50
 4082 0d91 01       		.uleb128 0x1
 4083 0d92 30       		.byte	0x30
 4084 0d93 00       		.byte	0
 4085 0d94 07       		.uleb128 0x7
 4086 0d95 06010000 		.4byte	.LVL276
 4087 0d99 C0170000 		.4byte	0x17c0
 4088 0d9d A80D0000 		.4byte	0xda8
 4089 0da1 08       		.uleb128 0x8
 4090 0da2 01       		.uleb128 0x1
 4091 0da3 50       		.byte	0x50
 4092 0da4 02       		.uleb128 0x2
 4093 0da5 75       		.byte	0x75
 4094 0da6 00       		.sleb128 0
 4095 0da7 00       		.byte	0
 4096 0da8 07       		.uleb128 0x7
 4097 0da9 0C010000 		.4byte	.LVL277
 4098 0dad 51170000 		.4byte	0x1751
 4099 0db1 BC0D0000 		.4byte	0xdbc
 4100 0db5 08       		.uleb128 0x8
 4101 0db6 01       		.uleb128 0x1
 4102 0db7 50       		.byte	0x50
 4103 0db8 02       		.uleb128 0x2
 4104 0db9 08       		.byte	0x8
 4105 0dba 32       		.byte	0x32
 4106 0dbb 00       		.byte	0
 4107 0dbc 07       		.uleb128 0x7
 4108 0dbd 12010000 		.4byte	.LVL278
 4109 0dc1 C0170000 		.4byte	0x17c0
 4110 0dc5 D00D0000 		.4byte	0xdd0
 4111 0dc9 08       		.uleb128 0x8
 4112 0dca 01       		.uleb128 0x1
 4113 0dcb 50       		.byte	0x50
 4114 0dcc 02       		.uleb128 0x2
 4115 0dcd 76       		.byte	0x76
 4116 0dce 00       		.sleb128 0
 4117 0dcf 00       		.byte	0
ARM GAS  C:\Users\Misha\AppData\Local\Temp\ccbcIC6d.s 			page 91


 4118 0dd0 07       		.uleb128 0x7
 4119 0dd1 18010000 		.4byte	.LVL279
 4120 0dd5 51170000 		.4byte	0x1751
 4121 0dd9 E40D0000 		.4byte	0xde4
 4122 0ddd 08       		.uleb128 0x8
 4123 0dde 01       		.uleb128 0x1
 4124 0ddf 50       		.byte	0x50
 4125 0de0 02       		.uleb128 0x2
 4126 0de1 08       		.byte	0x8
 4127 0de2 32       		.byte	0x32
 4128 0de3 00       		.byte	0
 4129 0de4 07       		.uleb128 0x7
 4130 0de5 2C010000 		.4byte	.LVL282
 4131 0de9 C0170000 		.4byte	0x17c0
 4132 0ded F80D0000 		.4byte	0xdf8
 4133 0df1 08       		.uleb128 0x8
 4134 0df2 01       		.uleb128 0x1
 4135 0df3 50       		.byte	0x50
 4136 0df4 02       		.uleb128 0x2
 4137 0df5 75       		.byte	0x75
 4138 0df6 00       		.sleb128 0
 4139 0df7 00       		.byte	0
 4140 0df8 07       		.uleb128 0x7
 4141 0df9 32010000 		.4byte	.LVL283
 4142 0dfd 51170000 		.4byte	0x1751
 4143 0e01 0C0E0000 		.4byte	0xe0c
 4144 0e05 08       		.uleb128 0x8
 4145 0e06 01       		.uleb128 0x1
 4146 0e07 50       		.byte	0x50
 4147 0e08 02       		.uleb128 0x2
 4148 0e09 08       		.byte	0x8
 4149 0e0a 32       		.byte	0x32
 4150 0e0b 00       		.byte	0
 4151 0e0c 07       		.uleb128 0x7
 4152 0e0d 38010000 		.4byte	.LVL284
 4153 0e11 C0170000 		.4byte	0x17c0
 4154 0e15 200E0000 		.4byte	0xe20
 4155 0e19 08       		.uleb128 0x8
 4156 0e1a 01       		.uleb128 0x1
 4157 0e1b 50       		.byte	0x50
 4158 0e1c 02       		.uleb128 0x2
 4159 0e1d 76       		.byte	0x76
 4160 0e1e 00       		.sleb128 0
 4161 0e1f 00       		.byte	0
 4162 0e20 07       		.uleb128 0x7
 4163 0e21 3E010000 		.4byte	.LVL285
 4164 0e25 51170000 		.4byte	0x1751
 4165 0e29 340E0000 		.4byte	0xe34
 4166 0e2d 08       		.uleb128 0x8
 4167 0e2e 01       		.uleb128 0x1
 4168 0e2f 50       		.byte	0x50
 4169 0e30 02       		.uleb128 0x2
 4170 0e31 08       		.byte	0x8
 4171 0e32 32       		.byte	0x32
 4172 0e33 00       		.byte	0
 4173 0e34 07       		.uleb128 0x7
 4174 0e35 56010000 		.4byte	.LVL287
ARM GAS  C:\Users\Misha\AppData\Local\Temp\ccbcIC6d.s 			page 92


 4175 0e39 5C170000 		.4byte	0x175c
 4176 0e3d 580E0000 		.4byte	0xe58
 4177 0e41 08       		.uleb128 0x8
 4178 0e42 01       		.uleb128 0x1
 4179 0e43 50       		.byte	0x50
 4180 0e44 02       		.uleb128 0x2
 4181 0e45 77       		.byte	0x77
 4182 0e46 00       		.sleb128 0
 4183 0e47 08       		.uleb128 0x8
 4184 0e48 01       		.uleb128 0x1
 4185 0e49 51       		.byte	0x51
 4186 0e4a 05       		.uleb128 0x5
 4187 0e4b 03       		.byte	0x3
 4188 0e4c 64000000 		.4byte	.LC6
 4189 0e50 08       		.uleb128 0x8
 4190 0e51 02       		.uleb128 0x2
 4191 0e52 7D       		.byte	0x7d
 4192 0e53 00       		.sleb128 0
 4193 0e54 02       		.uleb128 0x2
 4194 0e55 74       		.byte	0x74
 4195 0e56 00       		.sleb128 0
 4196 0e57 00       		.byte	0
 4197 0e58 07       		.uleb128 0x7
 4198 0e59 5C010000 		.4byte	.LVL288
 4199 0e5d 67170000 		.4byte	0x1767
 4200 0e61 6C0E0000 		.4byte	0xe6c
 4201 0e65 08       		.uleb128 0x8
 4202 0e66 01       		.uleb128 0x1
 4203 0e67 50       		.byte	0x50
 4204 0e68 02       		.uleb128 0x2
 4205 0e69 77       		.byte	0x77
 4206 0e6a 00       		.sleb128 0
 4207 0e6b 00       		.byte	0
 4208 0e6c 07       		.uleb128 0x7
 4209 0e6d 78010000 		.4byte	.LVL289
 4210 0e71 C0170000 		.4byte	0x17c0
 4211 0e75 800E0000 		.4byte	0xe80
 4212 0e79 08       		.uleb128 0x8
 4213 0e7a 01       		.uleb128 0x1
 4214 0e7b 50       		.byte	0x50
 4215 0e7c 02       		.uleb128 0x2
 4216 0e7d 75       		.byte	0x75
 4217 0e7e 00       		.sleb128 0
 4218 0e7f 00       		.byte	0
 4219 0e80 07       		.uleb128 0x7
 4220 0e81 7E010000 		.4byte	.LVL290
 4221 0e85 51170000 		.4byte	0x1751
 4222 0e89 940E0000 		.4byte	0xe94
 4223 0e8d 08       		.uleb128 0x8
 4224 0e8e 01       		.uleb128 0x1
 4225 0e8f 50       		.byte	0x50
 4226 0e90 02       		.uleb128 0x2
 4227 0e91 08       		.byte	0x8
 4228 0e92 32       		.byte	0x32
 4229 0e93 00       		.byte	0
 4230 0e94 07       		.uleb128 0x7
 4231 0e95 84010000 		.4byte	.LVL291
ARM GAS  C:\Users\Misha\AppData\Local\Temp\ccbcIC6d.s 			page 93


 4232 0e99 C0170000 		.4byte	0x17c0
 4233 0e9d A80E0000 		.4byte	0xea8
 4234 0ea1 08       		.uleb128 0x8
 4235 0ea2 01       		.uleb128 0x1
 4236 0ea3 50       		.byte	0x50
 4237 0ea4 02       		.uleb128 0x2
 4238 0ea5 76       		.byte	0x76
 4239 0ea6 00       		.sleb128 0
 4240 0ea7 00       		.byte	0
 4241 0ea8 07       		.uleb128 0x7
 4242 0ea9 8A010000 		.4byte	.LVL292
 4243 0ead 51170000 		.4byte	0x1751
 4244 0eb1 BC0E0000 		.4byte	0xebc
 4245 0eb5 08       		.uleb128 0x8
 4246 0eb6 01       		.uleb128 0x1
 4247 0eb7 50       		.byte	0x50
 4248 0eb8 02       		.uleb128 0x2
 4249 0eb9 08       		.byte	0x8
 4250 0eba 32       		.byte	0x32
 4251 0ebb 00       		.byte	0
 4252 0ebc 07       		.uleb128 0x7
 4253 0ebd A0010000 		.4byte	.LVL294
 4254 0ec1 5C170000 		.4byte	0x175c
 4255 0ec5 D90E0000 		.4byte	0xed9
 4256 0ec9 08       		.uleb128 0x8
 4257 0eca 01       		.uleb128 0x1
 4258 0ecb 50       		.byte	0x50
 4259 0ecc 02       		.uleb128 0x2
 4260 0ecd 77       		.byte	0x77
 4261 0ece 00       		.sleb128 0
 4262 0ecf 08       		.uleb128 0x8
 4263 0ed0 01       		.uleb128 0x1
 4264 0ed1 51       		.byte	0x51
 4265 0ed2 05       		.uleb128 0x5
 4266 0ed3 03       		.byte	0x3
 4267 0ed4 7C000000 		.4byte	.LC7
 4268 0ed8 00       		.byte	0
 4269 0ed9 07       		.uleb128 0x7
 4270 0eda A6010000 		.4byte	.LVL295
 4271 0ede 67170000 		.4byte	0x1767
 4272 0ee2 ED0E0000 		.4byte	0xeed
 4273 0ee6 08       		.uleb128 0x8
 4274 0ee7 01       		.uleb128 0x1
 4275 0ee8 50       		.byte	0x50
 4276 0ee9 02       		.uleb128 0x2
 4277 0eea 77       		.byte	0x77
 4278 0eeb 00       		.sleb128 0
 4279 0eec 00       		.byte	0
 4280 0eed 07       		.uleb128 0x7
 4281 0eee B0010000 		.4byte	.LVL296
 4282 0ef2 5C170000 		.4byte	0x175c
 4283 0ef6 100F0000 		.4byte	0xf10
 4284 0efa 08       		.uleb128 0x8
 4285 0efb 01       		.uleb128 0x1
 4286 0efc 50       		.byte	0x50
 4287 0efd 02       		.uleb128 0x2
 4288 0efe 77       		.byte	0x77
ARM GAS  C:\Users\Misha\AppData\Local\Temp\ccbcIC6d.s 			page 94


 4289 0eff 00       		.sleb128 0
 4290 0f00 08       		.uleb128 0x8
 4291 0f01 01       		.uleb128 0x1
 4292 0f02 51       		.byte	0x51
 4293 0f03 05       		.uleb128 0x5
 4294 0f04 03       		.byte	0x3
 4295 0f05 88000000 		.4byte	.LC8
 4296 0f09 08       		.uleb128 0x8
 4297 0f0a 01       		.uleb128 0x1
 4298 0f0b 52       		.byte	0x52
 4299 0f0c 02       		.uleb128 0x2
 4300 0f0d 74       		.byte	0x74
 4301 0f0e 00       		.sleb128 0
 4302 0f0f 00       		.byte	0
 4303 0f10 0A       		.uleb128 0xa
 4304 0f11 B6010000 		.4byte	.LVL297
 4305 0f15 67170000 		.4byte	0x1767
 4306 0f19 08       		.uleb128 0x8
 4307 0f1a 01       		.uleb128 0x1
 4308 0f1b 50       		.byte	0x50
 4309 0f1c 02       		.uleb128 0x2
 4310 0f1d 77       		.byte	0x77
 4311 0f1e 00       		.sleb128 0
 4312 0f1f 00       		.byte	0
 4313 0f20 00       		.byte	0
 4314 0f21 0D       		.uleb128 0xd
 4315 0f22 0D050000 		.4byte	.LASF60
 4316 0f26 01       		.byte	0x1
 4317 0f27 E901     		.2byte	0x1e9
 4318 0f29 00000000 		.4byte	.LFB71
 4319 0f2d 3C000000 		.4byte	.LFE71-.LFB71
 4320 0f31 01       		.uleb128 0x1
 4321 0f32 9C       		.byte	0x9c
 4322 0f33 A80F0000 		.4byte	0xfa8
 4323 0f37 0E       		.uleb128 0xe
 4324 0f38 82050000 		.4byte	.LASF61
 4325 0f3c 01       		.byte	0x1
 4326 0f3d E901     		.2byte	0x1e9
 4327 0f3f 6F000000 		.4byte	0x6f
 4328 0f43 4E080000 		.4byte	.LLST41
 4329 0f47 0E       		.uleb128 0xe
 4330 0f48 32060000 		.4byte	.LASF62
 4331 0f4c 01       		.byte	0x1
 4332 0f4d E901     		.2byte	0x1e9
 4333 0f4f 6F000000 		.4byte	0x6f
 4334 0f53 7A080000 		.4byte	.LLST42
 4335 0f57 15       		.uleb128 0x15
 4336 0f58 CA060000 		.4byte	.LASF63
 4337 0f5c 01       		.byte	0x1
 4338 0f5d EB01     		.2byte	0x1eb
 4339 0f5f 6F000000 		.4byte	0x6f
 4340 0f63 0A       		.byte	0xa
 4341 0f64 17       		.uleb128 0x17
 4342 0f65 D9010000 		.4byte	.LASF65
 4343 0f69 01       		.byte	0x1
 4344 0f6a EC01     		.2byte	0x1ec
 4345 0f6c 6F000000 		.4byte	0x6f
ARM GAS  C:\Users\Misha\AppData\Local\Temp\ccbcIC6d.s 			page 95


 4346 0f70 07       		.uleb128 0x7
 4347 0f71 12000000 		.4byte	.LVL301
 4348 0f75 C0170000 		.4byte	0x17c0
 4349 0f79 840F0000 		.4byte	0xf84
 4350 0f7d 08       		.uleb128 0x8
 4351 0f7e 01       		.uleb128 0x1
 4352 0f7f 50       		.byte	0x50
 4353 0f80 02       		.uleb128 0x2
 4354 0f81 75       		.byte	0x75
 4355 0f82 00       		.sleb128 0
 4356 0f83 00       		.byte	0
 4357 0f84 07       		.uleb128 0x7
 4358 0f85 18000000 		.4byte	.LVL302
 4359 0f89 51170000 		.4byte	0x1751
 4360 0f8d 980F0000 		.4byte	0xf98
 4361 0f91 08       		.uleb128 0x8
 4362 0f92 01       		.uleb128 0x1
 4363 0f93 50       		.byte	0x50
 4364 0f94 02       		.uleb128 0x2
 4365 0f95 08       		.byte	0x8
 4366 0f96 32       		.byte	0x32
 4367 0f97 00       		.byte	0
 4368 0f98 0A       		.uleb128 0xa
 4369 0f99 32000000 		.4byte	.LVL305
 4370 0f9d 230B0000 		.4byte	0xb23
 4371 0fa1 08       		.uleb128 0x8
 4372 0fa2 01       		.uleb128 0x1
 4373 0fa3 50       		.byte	0x50
 4374 0fa4 01       		.uleb128 0x1
 4375 0fa5 37       		.byte	0x37
 4376 0fa6 00       		.byte	0
 4377 0fa7 00       		.byte	0
 4378 0fa8 0D       		.uleb128 0xd
 4379 0fa9 D8020000 		.4byte	.LASF66
 4380 0fad 01       		.byte	0x1
 4381 0fae 9E02     		.2byte	0x29e
 4382 0fb0 00000000 		.4byte	.LFB73
 4383 0fb4 10010000 		.4byte	.LFE73-.LFB73
 4384 0fb8 01       		.uleb128 0x1
 4385 0fb9 9C       		.byte	0x9c
 4386 0fba 4E120000 		.4byte	0x124e
 4387 0fbe 0E       		.uleb128 0xe
 4388 0fbf E4030000 		.4byte	.LASF53
 4389 0fc3 01       		.byte	0x1
 4390 0fc4 9E02     		.2byte	0x29e
 4391 0fc6 6F000000 		.4byte	0x6f
 4392 0fca C0080000 		.4byte	.LLST43
 4393 0fce 0F       		.uleb128 0xf
 4394 0fcf 59020000 		.4byte	.LASF54
 4395 0fd3 01       		.byte	0x1
 4396 0fd4 9F02     		.2byte	0x29f
 4397 0fd6 6F000000 		.4byte	0x6f
 4398 0fda E1080000 		.4byte	.LLST44
 4399 0fde 0F       		.uleb128 0xf
 4400 0fdf 10010000 		.4byte	.LASF55
 4401 0fe3 01       		.byte	0x1
 4402 0fe4 A002     		.2byte	0x2a0
ARM GAS  C:\Users\Misha\AppData\Local\Temp\ccbcIC6d.s 			page 96


 4403 0fe6 6F000000 		.4byte	0x6f
 4404 0fea F4080000 		.4byte	.LLST45
 4405 0fee 0F       		.uleb128 0xf
 4406 0fef 1D010000 		.4byte	.LASF56
 4407 0ff3 01       		.byte	0x1
 4408 0ff4 A102     		.2byte	0x2a1
 4409 0ff6 6F000000 		.4byte	0x6f
 4410 0ffa 07090000 		.4byte	.LLST46
 4411 0ffe 15       		.uleb128 0x15
 4412 0fff 79000000 		.4byte	.LASF57
 4413 1003 01       		.byte	0x1
 4414 1004 A202     		.2byte	0x2a2
 4415 1006 6F000000 		.4byte	0x6f
 4416 100a 02       		.byte	0x2
 4417 100b 16       		.uleb128 0x16
 4418 100c 3F030000 		.4byte	.LASF58
 4419 1010 01       		.byte	0x1
 4420 1011 A302     		.2byte	0x2a3
 4421 1013 6F000000 		.4byte	0x6f
 4422 1017 2003     		.2byte	0x320
 4423 1019 15       		.uleb128 0x15
 4424 101a 21050000 		.4byte	.LASF59
 4425 101e 01       		.byte	0x1
 4426 101f A402     		.2byte	0x2a4
 4427 1021 6F000000 		.4byte	0x6f
 4428 1025 32       		.byte	0x32
 4429 1026 15       		.uleb128 0x15
 4430 1027 5B040000 		.4byte	.LASF21
 4431 102b 01       		.byte	0x1
 4432 102c A502     		.2byte	0x2a5
 4433 102e 6F000000 		.4byte	0x6f
 4434 1032 19       		.byte	0x19
 4435 1033 15       		.uleb128 0x15
 4436 1034 95000000 		.4byte	.LASF24
 4437 1038 01       		.byte	0x1
 4438 1039 B802     		.2byte	0x2b8
 4439 103b 6F000000 		.4byte	0x6f
 4440 103f 19       		.byte	0x19
 4441 1040 15       		.uleb128 0x15
 4442 1041 D4070000 		.4byte	.LASF25
 4443 1045 01       		.byte	0x1
 4444 1046 B902     		.2byte	0x2b9
 4445 1048 6F000000 		.4byte	0x6f
 4446 104c 19       		.byte	0x19
 4447 104d 07       		.uleb128 0x7
 4448 104e 16000000 		.4byte	.LVL310
 4449 1052 C0170000 		.4byte	0x17c0
 4450 1056 61100000 		.4byte	0x1061
 4451 105a 08       		.uleb128 0x8
 4452 105b 01       		.uleb128 0x1
 4453 105c 50       		.byte	0x50
 4454 105d 02       		.uleb128 0x2
 4455 105e 76       		.byte	0x76
 4456 105f 00       		.sleb128 0
 4457 1060 00       		.byte	0
 4458 1061 07       		.uleb128 0x7
 4459 1062 1C000000 		.4byte	.LVL311
ARM GAS  C:\Users\Misha\AppData\Local\Temp\ccbcIC6d.s 			page 97


 4460 1066 C0170000 		.4byte	0x17c0
 4461 106a 75100000 		.4byte	0x1075
 4462 106e 08       		.uleb128 0x8
 4463 106f 01       		.uleb128 0x1
 4464 1070 50       		.byte	0x50
 4465 1071 02       		.uleb128 0x2
 4466 1072 75       		.byte	0x75
 4467 1073 00       		.sleb128 0
 4468 1074 00       		.byte	0
 4469 1075 09       		.uleb128 0x9
 4470 1076 2C000000 		.4byte	.LVL313
 4471 107a F9160000 		.4byte	0x16f9
 4472 107e 07       		.uleb128 0x7
 4473 107f 32000000 		.4byte	.LVL314
 4474 1083 04170000 		.4byte	0x1704
 4475 1087 91100000 		.4byte	0x1091
 4476 108b 08       		.uleb128 0x8
 4477 108c 01       		.uleb128 0x1
 4478 108d 50       		.byte	0x50
 4479 108e 01       		.uleb128 0x1
 4480 108f 49       		.byte	0x49
 4481 1090 00       		.byte	0
 4482 1091 09       		.uleb128 0x9
 4483 1092 36000000 		.4byte	.LVL315
 4484 1096 0F170000 		.4byte	0x170f
 4485 109a 07       		.uleb128 0x7
 4486 109b 3C000000 		.4byte	.LVL316
 4487 109f 1A170000 		.4byte	0x171a
 4488 10a3 AD100000 		.4byte	0x10ad
 4489 10a7 08       		.uleb128 0x8
 4490 10a8 01       		.uleb128 0x1
 4491 10a9 50       		.byte	0x50
 4492 10aa 01       		.uleb128 0x1
 4493 10ab 49       		.byte	0x49
 4494 10ac 00       		.byte	0
 4495 10ad 07       		.uleb128 0x7
 4496 10ae 48000000 		.4byte	.LVL317
 4497 10b2 E3160000 		.4byte	0x16e3
 4498 10b6 C0100000 		.4byte	0x10c0
 4499 10ba 08       		.uleb128 0x8
 4500 10bb 01       		.uleb128 0x1
 4501 10bc 50       		.byte	0x50
 4502 10bd 01       		.uleb128 0x1
 4503 10be 30       		.byte	0x30
 4504 10bf 00       		.byte	0
 4505 10c0 07       		.uleb128 0x7
 4506 10c1 4E000000 		.4byte	.LVL318
 4507 10c5 EE160000 		.4byte	0x16ee
 4508 10c9 D3100000 		.4byte	0x10d3
 4509 10cd 08       		.uleb128 0x8
 4510 10ce 01       		.uleb128 0x1
 4511 10cf 50       		.byte	0x50
 4512 10d0 01       		.uleb128 0x1
 4513 10d1 31       		.byte	0x31
 4514 10d2 00       		.byte	0
 4515 10d3 07       		.uleb128 0x7
 4516 10d4 56000000 		.4byte	.LVL319
ARM GAS  C:\Users\Misha\AppData\Local\Temp\ccbcIC6d.s 			page 98


 4517 10d8 C0170000 		.4byte	0x17c0
 4518 10dc E7100000 		.4byte	0x10e7
 4519 10e0 08       		.uleb128 0x8
 4520 10e1 01       		.uleb128 0x1
 4521 10e2 50       		.byte	0x50
 4522 10e3 02       		.uleb128 0x2
 4523 10e4 76       		.byte	0x76
 4524 10e5 00       		.sleb128 0
 4525 10e6 00       		.byte	0
 4526 10e7 07       		.uleb128 0x7
 4527 10e8 5C000000 		.4byte	.LVL320
 4528 10ec 51170000 		.4byte	0x1751
 4529 10f0 FB100000 		.4byte	0x10fb
 4530 10f4 08       		.uleb128 0x8
 4531 10f5 01       		.uleb128 0x1
 4532 10f6 50       		.byte	0x50
 4533 10f7 02       		.uleb128 0x2
 4534 10f8 08       		.byte	0x8
 4535 10f9 32       		.byte	0x32
 4536 10fa 00       		.byte	0
 4537 10fb 07       		.uleb128 0x7
 4538 10fc 62000000 		.4byte	.LVL321
 4539 1100 C0170000 		.4byte	0x17c0
 4540 1104 0F110000 		.4byte	0x110f
 4541 1108 08       		.uleb128 0x8
 4542 1109 01       		.uleb128 0x1
 4543 110a 50       		.byte	0x50
 4544 110b 02       		.uleb128 0x2
 4545 110c 75       		.byte	0x75
 4546 110d 00       		.sleb128 0
 4547 110e 00       		.byte	0
 4548 110f 07       		.uleb128 0x7
 4549 1110 68000000 		.4byte	.LVL322
 4550 1114 51170000 		.4byte	0x1751
 4551 1118 23110000 		.4byte	0x1123
 4552 111c 08       		.uleb128 0x8
 4553 111d 01       		.uleb128 0x1
 4554 111e 50       		.byte	0x50
 4555 111f 02       		.uleb128 0x2
 4556 1120 08       		.byte	0x8
 4557 1121 32       		.byte	0x32
 4558 1122 00       		.byte	0
 4559 1123 07       		.uleb128 0x7
 4560 1124 90000000 		.4byte	.LVL325
 4561 1128 E3160000 		.4byte	0x16e3
 4562 112c 36110000 		.4byte	0x1136
 4563 1130 08       		.uleb128 0x8
 4564 1131 01       		.uleb128 0x1
 4565 1132 50       		.byte	0x50
 4566 1133 01       		.uleb128 0x1
 4567 1134 31       		.byte	0x31
 4568 1135 00       		.byte	0
 4569 1136 07       		.uleb128 0x7
 4570 1137 96000000 		.4byte	.LVL326
 4571 113b EE160000 		.4byte	0x16ee
 4572 113f 49110000 		.4byte	0x1149
 4573 1143 08       		.uleb128 0x8
ARM GAS  C:\Users\Misha\AppData\Local\Temp\ccbcIC6d.s 			page 99


 4574 1144 01       		.uleb128 0x1
 4575 1145 50       		.byte	0x50
 4576 1146 01       		.uleb128 0x1
 4577 1147 30       		.byte	0x30
 4578 1148 00       		.byte	0
 4579 1149 07       		.uleb128 0x7
 4580 114a 9C000000 		.4byte	.LVL327
 4581 114e C0170000 		.4byte	0x17c0
 4582 1152 5D110000 		.4byte	0x115d
 4583 1156 08       		.uleb128 0x8
 4584 1157 01       		.uleb128 0x1
 4585 1158 50       		.byte	0x50
 4586 1159 02       		.uleb128 0x2
 4587 115a 76       		.byte	0x76
 4588 115b 00       		.sleb128 0
 4589 115c 00       		.byte	0
 4590 115d 07       		.uleb128 0x7
 4591 115e A2000000 		.4byte	.LVL328
 4592 1162 51170000 		.4byte	0x1751
 4593 1166 71110000 		.4byte	0x1171
 4594 116a 08       		.uleb128 0x8
 4595 116b 01       		.uleb128 0x1
 4596 116c 50       		.byte	0x50
 4597 116d 02       		.uleb128 0x2
 4598 116e 08       		.byte	0x8
 4599 116f 32       		.byte	0x32
 4600 1170 00       		.byte	0
 4601 1171 07       		.uleb128 0x7
 4602 1172 A8000000 		.4byte	.LVL329
 4603 1176 C0170000 		.4byte	0x17c0
 4604 117a 85110000 		.4byte	0x1185
 4605 117e 08       		.uleb128 0x8
 4606 117f 01       		.uleb128 0x1
 4607 1180 50       		.byte	0x50
 4608 1181 02       		.uleb128 0x2
 4609 1182 75       		.byte	0x75
 4610 1183 00       		.sleb128 0
 4611 1184 00       		.byte	0
 4612 1185 07       		.uleb128 0x7
 4613 1186 AE000000 		.4byte	.LVL330
 4614 118a 51170000 		.4byte	0x1751
 4615 118e 99110000 		.4byte	0x1199
 4616 1192 08       		.uleb128 0x8
 4617 1193 01       		.uleb128 0x1
 4618 1194 50       		.byte	0x50
 4619 1195 02       		.uleb128 0x2
 4620 1196 08       		.byte	0x8
 4621 1197 32       		.byte	0x32
 4622 1198 00       		.byte	0
 4623 1199 07       		.uleb128 0x7
 4624 119a B4000000 		.4byte	.LVL331
 4625 119e C0170000 		.4byte	0x17c0
 4626 11a2 AD110000 		.4byte	0x11ad
 4627 11a6 08       		.uleb128 0x8
 4628 11a7 01       		.uleb128 0x1
 4629 11a8 50       		.byte	0x50
 4630 11a9 02       		.uleb128 0x2
ARM GAS  C:\Users\Misha\AppData\Local\Temp\ccbcIC6d.s 			page 100


 4631 11aa 76       		.byte	0x76
 4632 11ab 00       		.sleb128 0
 4633 11ac 00       		.byte	0
 4634 11ad 07       		.uleb128 0x7
 4635 11ae BA000000 		.4byte	.LVL332
 4636 11b2 51170000 		.4byte	0x1751
 4637 11b6 C1110000 		.4byte	0x11c1
 4638 11ba 08       		.uleb128 0x8
 4639 11bb 01       		.uleb128 0x1
 4640 11bc 50       		.byte	0x50
 4641 11bd 02       		.uleb128 0x2
 4642 11be 08       		.byte	0x8
 4643 11bf 32       		.byte	0x32
 4644 11c0 00       		.byte	0
 4645 11c1 07       		.uleb128 0x7
 4646 11c2 C0000000 		.4byte	.LVL333
 4647 11c6 C0170000 		.4byte	0x17c0
 4648 11ca D5110000 		.4byte	0x11d5
 4649 11ce 08       		.uleb128 0x8
 4650 11cf 01       		.uleb128 0x1
 4651 11d0 50       		.byte	0x50
 4652 11d1 02       		.uleb128 0x2
 4653 11d2 75       		.byte	0x75
 4654 11d3 00       		.sleb128 0
 4655 11d4 00       		.byte	0
 4656 11d5 07       		.uleb128 0x7
 4657 11d6 C6000000 		.4byte	.LVL334
 4658 11da 51170000 		.4byte	0x1751
 4659 11de E9110000 		.4byte	0x11e9
 4660 11e2 08       		.uleb128 0x8
 4661 11e3 01       		.uleb128 0x1
 4662 11e4 50       		.byte	0x50
 4663 11e5 02       		.uleb128 0x2
 4664 11e6 08       		.byte	0x8
 4665 11e7 32       		.byte	0x32
 4666 11e8 00       		.byte	0
 4667 11e9 07       		.uleb128 0x7
 4668 11ea DC000000 		.4byte	.LVL336
 4669 11ee 5C170000 		.4byte	0x175c
 4670 11f2 06120000 		.4byte	0x1206
 4671 11f6 08       		.uleb128 0x8
 4672 11f7 01       		.uleb128 0x1
 4673 11f8 50       		.byte	0x50
 4674 11f9 02       		.uleb128 0x2
 4675 11fa 77       		.byte	0x77
 4676 11fb 00       		.sleb128 0
 4677 11fc 08       		.uleb128 0x8
 4678 11fd 01       		.uleb128 0x1
 4679 11fe 51       		.byte	0x51
 4680 11ff 05       		.uleb128 0x5
 4681 1200 03       		.byte	0x3
 4682 1201 7C000000 		.4byte	.LC7
 4683 1205 00       		.byte	0
 4684 1206 07       		.uleb128 0x7
 4685 1207 E2000000 		.4byte	.LVL337
 4686 120b 67170000 		.4byte	0x1767
 4687 120f 1A120000 		.4byte	0x121a
ARM GAS  C:\Users\Misha\AppData\Local\Temp\ccbcIC6d.s 			page 101


 4688 1213 08       		.uleb128 0x8
 4689 1214 01       		.uleb128 0x1
 4690 1215 50       		.byte	0x50
 4691 1216 02       		.uleb128 0x2
 4692 1217 77       		.byte	0x77
 4693 1218 00       		.sleb128 0
 4694 1219 00       		.byte	0
 4695 121a 07       		.uleb128 0x7
 4696 121b EC000000 		.4byte	.LVL338
 4697 121f 5C170000 		.4byte	0x175c
 4698 1223 3D120000 		.4byte	0x123d
 4699 1227 08       		.uleb128 0x8
 4700 1228 01       		.uleb128 0x1
 4701 1229 50       		.byte	0x50
 4702 122a 02       		.uleb128 0x2
 4703 122b 77       		.byte	0x77
 4704 122c 00       		.sleb128 0
 4705 122d 08       		.uleb128 0x8
 4706 122e 01       		.uleb128 0x1
 4707 122f 51       		.byte	0x51
 4708 1230 05       		.uleb128 0x5
 4709 1231 03       		.byte	0x3
 4710 1232 88000000 		.4byte	.LC8
 4711 1236 08       		.uleb128 0x8
 4712 1237 01       		.uleb128 0x1
 4713 1238 52       		.byte	0x52
 4714 1239 02       		.uleb128 0x2
 4715 123a 74       		.byte	0x74
 4716 123b 00       		.sleb128 0
 4717 123c 00       		.byte	0
 4718 123d 0A       		.uleb128 0xa
 4719 123e F2000000 		.4byte	.LVL339
 4720 1242 67170000 		.4byte	0x1767
 4721 1246 08       		.uleb128 0x8
 4722 1247 01       		.uleb128 0x1
 4723 1248 50       		.byte	0x50
 4724 1249 02       		.uleb128 0x2
 4725 124a 77       		.byte	0x77
 4726 124b 00       		.sleb128 0
 4727 124c 00       		.byte	0
 4728 124d 00       		.byte	0
 4729 124e 18       		.uleb128 0x18
 4730 124f 12070000 		.4byte	.LASF68
 4731 1253 01       		.byte	0x1
 4732 1254 F502     		.2byte	0x2f5
 4733 1256 00000000 		.4byte	.LFB74
 4734 125a 70000000 		.4byte	.LFE74-.LFB74
 4735 125e 01       		.uleb128 0x1
 4736 125f 9C       		.byte	0x9c
 4737 1260 73130000 		.4byte	0x1373
 4738 1264 0F       		.uleb128 0xf
 4739 1265 57050000 		.4byte	.LASF69
 4740 1269 01       		.byte	0x1
 4741 126a FA02     		.2byte	0x2fa
 4742 126c 6F000000 		.4byte	0x6f
 4743 1270 3E090000 		.4byte	.LLST47
 4744 1274 0F       		.uleb128 0xf
ARM GAS  C:\Users\Misha\AppData\Local\Temp\ccbcIC6d.s 			page 102


 4745 1275 83000000 		.4byte	.LASF70
 4746 1279 01       		.byte	0x1
 4747 127a FB02     		.2byte	0x2fb
 4748 127c 6F000000 		.4byte	0x6f
 4749 1280 5C090000 		.4byte	.LLST48
 4750 1284 0F       		.uleb128 0xf
 4751 1285 28010000 		.4byte	.LASF41
 4752 1289 01       		.byte	0x1
 4753 128a FC02     		.2byte	0x2fc
 4754 128c 6F000000 		.4byte	0x6f
 4755 1290 91090000 		.4byte	.LLST49
 4756 1294 0F       		.uleb128 0xf
 4757 1295 07020000 		.4byte	.LASF71
 4758 1299 01       		.byte	0x1
 4759 129a FD02     		.2byte	0x2fd
 4760 129c 6F000000 		.4byte	0x6f
 4761 12a0 B0090000 		.4byte	.LLST50
 4762 12a4 07       		.uleb128 0x7
 4763 12a5 08000000 		.4byte	.LVL342
 4764 12a9 C0170000 		.4byte	0x17c0
 4765 12ad B7120000 		.4byte	0x12b7
 4766 12b1 08       		.uleb128 0x8
 4767 12b2 01       		.uleb128 0x1
 4768 12b3 50       		.byte	0x50
 4769 12b4 01       		.uleb128 0x1
 4770 12b5 34       		.byte	0x34
 4771 12b6 00       		.byte	0
 4772 12b7 07       		.uleb128 0x7
 4773 12b8 0E000000 		.4byte	.LVL343
 4774 12bc 51170000 		.4byte	0x1751
 4775 12c0 CB120000 		.4byte	0x12cb
 4776 12c4 08       		.uleb128 0x8
 4777 12c5 01       		.uleb128 0x1
 4778 12c6 50       		.byte	0x50
 4779 12c7 02       		.uleb128 0x2
 4780 12c8 08       		.byte	0x8
 4781 12c9 3C       		.byte	0x3c
 4782 12ca 00       		.byte	0
 4783 12cb 09       		.uleb128 0x9
 4784 12cc 12000000 		.4byte	.LVL344
 4785 12d0 F9160000 		.4byte	0x16f9
 4786 12d4 09       		.uleb128 0x9
 4787 12d5 16000000 		.4byte	.LVL345
 4788 12d9 0F170000 		.4byte	0x170f
 4789 12dd 07       		.uleb128 0x7
 4790 12de 1C000000 		.4byte	.LVL346
 4791 12e2 04170000 		.4byte	0x1704
 4792 12e6 F0120000 		.4byte	0x12f0
 4793 12ea 08       		.uleb128 0x8
 4794 12eb 01       		.uleb128 0x1
 4795 12ec 50       		.byte	0x50
 4796 12ed 01       		.uleb128 0x1
 4797 12ee 49       		.byte	0x49
 4798 12ef 00       		.byte	0
 4799 12f0 07       		.uleb128 0x7
 4800 12f1 22000000 		.4byte	.LVL347
 4801 12f5 1A170000 		.4byte	0x171a
ARM GAS  C:\Users\Misha\AppData\Local\Temp\ccbcIC6d.s 			page 103


 4802 12f9 03130000 		.4byte	0x1303
 4803 12fd 08       		.uleb128 0x8
 4804 12fe 01       		.uleb128 0x1
 4805 12ff 50       		.byte	0x50
 4806 1300 01       		.uleb128 0x1
 4807 1301 49       		.byte	0x49
 4808 1302 00       		.byte	0
 4809 1303 07       		.uleb128 0x7
 4810 1304 38000000 		.4byte	.LVL351
 4811 1308 E3160000 		.4byte	0x16e3
 4812 130c 16130000 		.4byte	0x1316
 4813 1310 08       		.uleb128 0x8
 4814 1311 01       		.uleb128 0x1
 4815 1312 50       		.byte	0x50
 4816 1313 01       		.uleb128 0x1
 4817 1314 30       		.byte	0x30
 4818 1315 00       		.byte	0
 4819 1316 07       		.uleb128 0x7
 4820 1317 3E000000 		.4byte	.LVL352
 4821 131b EE160000 		.4byte	0x16ee
 4822 131f 29130000 		.4byte	0x1329
 4823 1323 08       		.uleb128 0x8
 4824 1324 01       		.uleb128 0x1
 4825 1325 50       		.byte	0x50
 4826 1326 01       		.uleb128 0x1
 4827 1327 31       		.byte	0x31
 4828 1328 00       		.byte	0
 4829 1329 07       		.uleb128 0x7
 4830 132a 46000000 		.4byte	.LVL353
 4831 132e E3160000 		.4byte	0x16e3
 4832 1332 3C130000 		.4byte	0x133c
 4833 1336 08       		.uleb128 0x8
 4834 1337 01       		.uleb128 0x1
 4835 1338 50       		.byte	0x50
 4836 1339 01       		.uleb128 0x1
 4837 133a 31       		.byte	0x31
 4838 133b 00       		.byte	0
 4839 133c 07       		.uleb128 0x7
 4840 133d 4C000000 		.4byte	.LVL354
 4841 1341 EE160000 		.4byte	0x16ee
 4842 1345 4F130000 		.4byte	0x134f
 4843 1349 08       		.uleb128 0x8
 4844 134a 01       		.uleb128 0x1
 4845 134b 50       		.byte	0x50
 4846 134c 01       		.uleb128 0x1
 4847 134d 30       		.byte	0x30
 4848 134e 00       		.byte	0
 4849 134f 07       		.uleb128 0x7
 4850 1350 54000000 		.4byte	.LVL356
 4851 1354 C0170000 		.4byte	0x17c0
 4852 1358 62130000 		.4byte	0x1362
 4853 135c 08       		.uleb128 0x8
 4854 135d 01       		.uleb128 0x1
 4855 135e 50       		.byte	0x50
 4856 135f 01       		.uleb128 0x1
 4857 1360 34       		.byte	0x34
 4858 1361 00       		.byte	0
ARM GAS  C:\Users\Misha\AppData\Local\Temp\ccbcIC6d.s 			page 104


 4859 1362 0A       		.uleb128 0xa
 4860 1363 5A000000 		.4byte	.LVL357
 4861 1367 51170000 		.4byte	0x1751
 4862 136b 08       		.uleb128 0x8
 4863 136c 01       		.uleb128 0x1
 4864 136d 50       		.byte	0x50
 4865 136e 02       		.uleb128 0x2
 4866 136f 08       		.byte	0x8
 4867 1370 3C       		.byte	0x3c
 4868 1371 00       		.byte	0
 4869 1372 00       		.byte	0
 4870 1373 0D       		.uleb128 0xd
 4871 1374 91030000 		.4byte	.LASF72
 4872 1378 01       		.byte	0x1
 4873 1379 2503     		.2byte	0x325
 4874 137b 00000000 		.4byte	.LFB75
 4875 137f 64000000 		.4byte	.LFE75-.LFB75
 4876 1383 01       		.uleb128 0x1
 4877 1384 9C       		.byte	0x9c
 4878 1385 7D140000 		.4byte	0x147d
 4879 1389 15       		.uleb128 0x15
 4880 138a 79000000 		.4byte	.LASF57
 4881 138e 01       		.byte	0x1
 4882 138f 2903     		.2byte	0x329
 4883 1391 6F000000 		.4byte	0x6f
 4884 1395 64       		.byte	0x64
 4885 1396 07       		.uleb128 0x7
 4886 1397 08000000 		.4byte	.LVL361
 4887 139b C0170000 		.4byte	0x17c0
 4888 139f A9130000 		.4byte	0x13a9
 4889 13a3 08       		.uleb128 0x8
 4890 13a4 01       		.uleb128 0x1
 4891 13a5 50       		.byte	0x50
 4892 13a6 01       		.uleb128 0x1
 4893 13a7 30       		.byte	0x30
 4894 13a8 00       		.byte	0
 4895 13a9 07       		.uleb128 0x7
 4896 13aa 0E000000 		.4byte	.LVL362
 4897 13ae 51170000 		.4byte	0x1751
 4898 13b2 BD130000 		.4byte	0x13bd
 4899 13b6 08       		.uleb128 0x8
 4900 13b7 01       		.uleb128 0x1
 4901 13b8 50       		.byte	0x50
 4902 13b9 02       		.uleb128 0x2
 4903 13ba 08       		.byte	0x8
 4904 13bb 3C       		.byte	0x3c
 4905 13bc 00       		.byte	0
 4906 13bd 07       		.uleb128 0x7
 4907 13be 14000000 		.4byte	.LVL363
 4908 13c2 C0170000 		.4byte	0x17c0
 4909 13c6 D0130000 		.4byte	0x13d0
 4910 13ca 08       		.uleb128 0x8
 4911 13cb 01       		.uleb128 0x1
 4912 13cc 50       		.byte	0x50
 4913 13cd 01       		.uleb128 0x1
 4914 13ce 30       		.byte	0x30
 4915 13cf 00       		.byte	0
ARM GAS  C:\Users\Misha\AppData\Local\Temp\ccbcIC6d.s 			page 105


 4916 13d0 07       		.uleb128 0x7
 4917 13d1 1A000000 		.4byte	.LVL364
 4918 13d5 51170000 		.4byte	0x1751
 4919 13d9 E4130000 		.4byte	0x13e4
 4920 13dd 08       		.uleb128 0x8
 4921 13de 01       		.uleb128 0x1
 4922 13df 50       		.byte	0x50
 4923 13e0 02       		.uleb128 0x2
 4924 13e1 08       		.byte	0x8
 4925 13e2 3C       		.byte	0x3c
 4926 13e3 00       		.byte	0
 4927 13e4 07       		.uleb128 0x7
 4928 13e5 20000000 		.4byte	.LVL365
 4929 13e9 C0170000 		.4byte	0x17c0
 4930 13ed F7130000 		.4byte	0x13f7
 4931 13f1 08       		.uleb128 0x8
 4932 13f2 01       		.uleb128 0x1
 4933 13f3 50       		.byte	0x50
 4934 13f4 01       		.uleb128 0x1
 4935 13f5 34       		.byte	0x34
 4936 13f6 00       		.byte	0
 4937 13f7 07       		.uleb128 0x7
 4938 13f8 26000000 		.4byte	.LVL366
 4939 13fc 51170000 		.4byte	0x1751
 4940 1400 0B140000 		.4byte	0x140b
 4941 1404 08       		.uleb128 0x8
 4942 1405 01       		.uleb128 0x1
 4943 1406 50       		.byte	0x50
 4944 1407 02       		.uleb128 0x2
 4945 1408 08       		.byte	0x8
 4946 1409 3C       		.byte	0x3c
 4947 140a 00       		.byte	0
 4948 140b 07       		.uleb128 0x7
 4949 140c 2E000000 		.4byte	.LVL367
 4950 1410 C0170000 		.4byte	0x17c0
 4951 1414 1E140000 		.4byte	0x141e
 4952 1418 08       		.uleb128 0x8
 4953 1419 01       		.uleb128 0x1
 4954 141a 50       		.byte	0x50
 4955 141b 01       		.uleb128 0x1
 4956 141c 30       		.byte	0x30
 4957 141d 00       		.byte	0
 4958 141e 07       		.uleb128 0x7
 4959 141f 34000000 		.4byte	.LVL368
 4960 1423 51170000 		.4byte	0x1751
 4961 1427 32140000 		.4byte	0x1432
 4962 142b 08       		.uleb128 0x8
 4963 142c 01       		.uleb128 0x1
 4964 142d 50       		.byte	0x50
 4965 142e 02       		.uleb128 0x2
 4966 142f 08       		.byte	0x8
 4967 1430 3C       		.byte	0x3c
 4968 1431 00       		.byte	0
 4969 1432 07       		.uleb128 0x7
 4970 1433 3A000000 		.4byte	.LVL369
 4971 1437 C0170000 		.4byte	0x17c0
 4972 143b 45140000 		.4byte	0x1445
ARM GAS  C:\Users\Misha\AppData\Local\Temp\ccbcIC6d.s 			page 106


 4973 143f 08       		.uleb128 0x8
 4974 1440 01       		.uleb128 0x1
 4975 1441 50       		.byte	0x50
 4976 1442 01       		.uleb128 0x1
 4977 1443 30       		.byte	0x30
 4978 1444 00       		.byte	0
 4979 1445 07       		.uleb128 0x7
 4980 1446 40000000 		.4byte	.LVL370
 4981 144a 51170000 		.4byte	0x1751
 4982 144e 59140000 		.4byte	0x1459
 4983 1452 08       		.uleb128 0x8
 4984 1453 01       		.uleb128 0x1
 4985 1454 50       		.byte	0x50
 4986 1455 02       		.uleb128 0x2
 4987 1456 08       		.byte	0x8
 4988 1457 3C       		.byte	0x3c
 4989 1458 00       		.byte	0
 4990 1459 07       		.uleb128 0x7
 4991 145a 46000000 		.4byte	.LVL371
 4992 145e C0170000 		.4byte	0x17c0
 4993 1462 6C140000 		.4byte	0x146c
 4994 1466 08       		.uleb128 0x8
 4995 1467 01       		.uleb128 0x1
 4996 1468 50       		.byte	0x50
 4997 1469 01       		.uleb128 0x1
 4998 146a 34       		.byte	0x34
 4999 146b 00       		.byte	0
 5000 146c 0A       		.uleb128 0xa
 5001 146d 4C000000 		.4byte	.LVL372
 5002 1471 51170000 		.4byte	0x1751
 5003 1475 08       		.uleb128 0x8
 5004 1476 01       		.uleb128 0x1
 5005 1477 50       		.byte	0x50
 5006 1478 02       		.uleb128 0x2
 5007 1479 08       		.byte	0x8
 5008 147a 3C       		.byte	0x3c
 5009 147b 00       		.byte	0
 5010 147c 00       		.byte	0
 5011 147d 19       		.uleb128 0x19
 5012 147e C6050000 		.4byte	.LASF123
 5013 1482 01       		.byte	0x1
 5014 1483 4203     		.2byte	0x342
 5015 1485 00000000 		.4byte	.LFB76
 5016 1489 02000000 		.4byte	.LFE76-.LFB76
 5017 148d 01       		.uleb128 0x1
 5018 148e 9C       		.byte	0x9c
 5019 148f 0D       		.uleb128 0xd
 5020 1490 00000000 		.4byte	.LASF73
 5021 1494 01       		.byte	0x1
 5022 1495 4A03     		.2byte	0x34a
 5023 1497 00000000 		.4byte	.LFB77
 5024 149b 34000000 		.4byte	.LFE77-.LFB77
 5025 149f 01       		.uleb128 0x1
 5026 14a0 9C       		.byte	0x9c
 5027 14a1 58150000 		.4byte	0x1558
 5028 14a5 0E       		.uleb128 0xe
 5029 14a6 F5040000 		.4byte	.LASF34
ARM GAS  C:\Users\Misha\AppData\Local\Temp\ccbcIC6d.s 			page 107


 5030 14aa 01       		.byte	0x1
 5031 14ab 4A03     		.2byte	0x34a
 5032 14ad 6F000000 		.4byte	0x6f
 5033 14b1 C3090000 		.4byte	.LLST51
 5034 14b5 0E       		.uleb128 0xe
 5035 14b6 65060000 		.4byte	.LASF74
 5036 14ba 01       		.byte	0x1
 5037 14bb 4A03     		.2byte	0x34a
 5038 14bd 6F000000 		.4byte	0x6f
 5039 14c1 E1090000 		.4byte	.LLST52
 5040 14c5 0E       		.uleb128 0xe
 5041 14c6 CC010000 		.4byte	.LASF75
 5042 14ca 01       		.byte	0x1
 5043 14cb 4A03     		.2byte	0x34a
 5044 14cd 6F000000 		.4byte	0x6f
 5045 14d1 0A0A0000 		.4byte	.LLST53
 5046 14d5 0E       		.uleb128 0xe
 5047 14d6 5B040000 		.4byte	.LASF21
 5048 14da 01       		.byte	0x1
 5049 14db 4A03     		.2byte	0x34a
 5050 14dd 6F000000 		.4byte	0x6f
 5051 14e1 330A0000 		.4byte	.LLST54
 5052 14e5 1A       		.uleb128 0x1a
 5053 14e6 A4050000 		.4byte	.LASF46
 5054 14ea 01       		.byte	0x1
 5055 14eb 4A03     		.2byte	0x34a
 5056 14ed 6F000000 		.4byte	0x6f
 5057 14f1 02       		.uleb128 0x2
 5058 14f2 91       		.byte	0x91
 5059 14f3 00       		.sleb128 0
 5060 14f4 07       		.uleb128 0x7
 5061 14f5 1E000000 		.4byte	.LVL377
 5062 14f9 9C060000 		.4byte	0x69c
 5063 14fd 27150000 		.4byte	0x1527
 5064 1501 08       		.uleb128 0x8
 5065 1502 01       		.uleb128 0x1
 5066 1503 50       		.byte	0x50
 5067 1504 02       		.uleb128 0x2
 5068 1505 78       		.byte	0x78
 5069 1506 00       		.sleb128 0
 5070 1507 08       		.uleb128 0x8
 5071 1508 01       		.uleb128 0x1
 5072 1509 51       		.byte	0x51
 5073 150a 01       		.uleb128 0x1
 5074 150b 31       		.byte	0x31
 5075 150c 08       		.uleb128 0x8
 5076 150d 01       		.uleb128 0x1
 5077 150e 52       		.byte	0x52
 5078 150f 02       		.uleb128 0x2
 5079 1510 74       		.byte	0x74
 5080 1511 00       		.sleb128 0
 5081 1512 08       		.uleb128 0x8
 5082 1513 01       		.uleb128 0x1
 5083 1514 53       		.byte	0x53
 5084 1515 02       		.uleb128 0x2
 5085 1516 75       		.byte	0x75
 5086 1517 00       		.sleb128 0
ARM GAS  C:\Users\Misha\AppData\Local\Temp\ccbcIC6d.s 			page 108


 5087 1518 08       		.uleb128 0x8
 5088 1519 02       		.uleb128 0x2
 5089 151a 7D       		.byte	0x7d
 5090 151b 00       		.sleb128 0
 5091 151c 02       		.uleb128 0x2
 5092 151d 76       		.byte	0x76
 5093 151e 00       		.sleb128 0
 5094 151f 08       		.uleb128 0x8
 5095 1520 02       		.uleb128 0x2
 5096 1521 7D       		.byte	0x7d
 5097 1522 04       		.sleb128 4
 5098 1523 02       		.uleb128 0x2
 5099 1524 77       		.byte	0x77
 5100 1525 00       		.sleb128 0
 5101 1526 00       		.byte	0
 5102 1527 0A       		.uleb128 0xa
 5103 1528 2E000000 		.4byte	.LVL378
 5104 152c 9C060000 		.4byte	0x69c
 5105 1530 08       		.uleb128 0x8
 5106 1531 01       		.uleb128 0x1
 5107 1532 50       		.byte	0x50
 5108 1533 02       		.uleb128 0x2
 5109 1534 78       		.byte	0x78
 5110 1535 00       		.sleb128 0
 5111 1536 08       		.uleb128 0x8
 5112 1537 01       		.uleb128 0x1
 5113 1538 51       		.byte	0x51
 5114 1539 01       		.uleb128 0x1
 5115 153a 30       		.byte	0x30
 5116 153b 08       		.uleb128 0x8
 5117 153c 01       		.uleb128 0x1
 5118 153d 52       		.byte	0x52
 5119 153e 03       		.uleb128 0x3
 5120 153f 74       		.byte	0x74
 5121 1540 00       		.sleb128 0
 5122 1541 1F       		.byte	0x1f
 5123 1542 08       		.uleb128 0x8
 5124 1543 01       		.uleb128 0x1
 5125 1544 53       		.byte	0x53
 5126 1545 02       		.uleb128 0x2
 5127 1546 75       		.byte	0x75
 5128 1547 00       		.sleb128 0
 5129 1548 08       		.uleb128 0x8
 5130 1549 02       		.uleb128 0x2
 5131 154a 7D       		.byte	0x7d
 5132 154b 00       		.sleb128 0
 5133 154c 02       		.uleb128 0x2
 5134 154d 76       		.byte	0x76
 5135 154e 00       		.sleb128 0
 5136 154f 08       		.uleb128 0x8
 5137 1550 02       		.uleb128 0x2
 5138 1551 7D       		.byte	0x7d
 5139 1552 04       		.sleb128 4
 5140 1553 02       		.uleb128 0x2
 5141 1554 77       		.byte	0x77
 5142 1555 00       		.sleb128 0
 5143 1556 00       		.byte	0
ARM GAS  C:\Users\Misha\AppData\Local\Temp\ccbcIC6d.s 			page 109


 5144 1557 00       		.byte	0
 5145 1558 1B       		.uleb128 0x1b
 5146 1559 25070000 		.4byte	.LASF76
 5147 155d 04       		.byte	0x4
 5148 155e 1207     		.2byte	0x712
 5149 1560 64150000 		.4byte	0x1564
 5150 1564 1C       		.uleb128 0x1c
 5151 1565 7D000000 		.4byte	0x7d
 5152 1569 1D       		.uleb128 0x1d
 5153 156a C3020000 		.4byte	.LASF77
 5154 156e 05       		.byte	0x5
 5155 156f 22       		.byte	0x22
 5156 1570 6F000000 		.4byte	0x6f
 5157 1574 05       		.uleb128 0x5
 5158 1575 03       		.byte	0x3
 5159 1576 00000000 		.4byte	internal_orientation
 5160 157a 1E       		.uleb128 0x1e
 5161 157b 6F000000 		.4byte	0x6f
 5162 157f 8A150000 		.4byte	0x158a
 5163 1583 1F       		.uleb128 0x1f
 5164 1584 9D000000 		.4byte	0x9d
 5165 1588 04       		.byte	0x4
 5166 1589 00       		.byte	0
 5167 158a 1D       		.uleb128 0x1d
 5168 158b B8030000 		.4byte	.LASF78
 5169 158f 06       		.byte	0x6
 5170 1590 1C       		.byte	0x1c
 5171 1591 7A150000 		.4byte	0x157a
 5172 1595 05       		.uleb128 0x5
 5173 1596 03       		.byte	0x3
 5174 1597 00000000 		.4byte	puck_rack_scans
 5175 159b 1D       		.uleb128 0x1d
 5176 159c 8A020000 		.4byte	.LASF79
 5177 15a0 06       		.byte	0x6
 5178 15a1 1D       		.byte	0x1d
 5179 15a2 7A150000 		.4byte	0x157a
 5180 15a6 05       		.uleb128 0x5
 5181 15a7 03       		.byte	0x3
 5182 15a8 00000000 		.4byte	puck_rack_west_offsets
 5183 15ac 1E       		.uleb128 0x1e
 5184 15ad 25000000 		.4byte	0x25
 5185 15b1 BC150000 		.4byte	0x15bc
 5186 15b5 1F       		.uleb128 0x1f
 5187 15b6 9D000000 		.4byte	0x9d
 5188 15ba 03       		.byte	0x3
 5189 15bb 00       		.byte	0
 5190 15bc 1D       		.uleb128 0x1d
 5191 15bd 24040000 		.4byte	.LASF80
 5192 15c1 06       		.byte	0x6
 5193 15c2 1F       		.byte	0x1f
 5194 15c3 AC150000 		.4byte	0x15ac
 5195 15c7 05       		.uleb128 0x5
 5196 15c8 03       		.byte	0x3
 5197 15c9 00000000 		.4byte	block_edge_location
 5198 15cd 1D       		.uleb128 0x1d
 5199 15ce EB070000 		.4byte	.LASF81
 5200 15d2 06       		.byte	0x6
ARM GAS  C:\Users\Misha\AppData\Local\Temp\ccbcIC6d.s 			page 110


 5201 15d3 23       		.byte	0x23
 5202 15d4 6F000000 		.4byte	0x6f
 5203 15d8 05       		.uleb128 0x5
 5204 15d9 03       		.byte	0x3
 5205 15da 00000000 		.4byte	initialisation
 5206 15de 1E       		.uleb128 0x1e
 5207 15df 8F000000 		.4byte	0x8f
 5208 15e3 EE150000 		.4byte	0x15ee
 5209 15e7 1F       		.uleb128 0x1f
 5210 15e8 9D000000 		.4byte	0x9d
 5211 15ec 1F       		.byte	0x1f
 5212 15ed 00       		.byte	0
 5213 15ee 1D       		.uleb128 0x1d
 5214 15ef ED060000 		.4byte	.LASF82
 5215 15f3 06       		.byte	0x6
 5216 15f4 21       		.byte	0x21
 5217 15f5 DE150000 		.4byte	0x15de
 5218 15f9 05       		.uleb128 0x5
 5219 15fa 03       		.byte	0x3
 5220 15fb 00000000 		.4byte	output
 5221 15ff 1E       		.uleb128 0x1e
 5222 1600 6F000000 		.4byte	0x6f
 5223 1604 0F160000 		.4byte	0x160f
 5224 1608 1F       		.uleb128 0x1f
 5225 1609 9D000000 		.4byte	0x9d
 5226 160d 06       		.byte	0x6
 5227 160e 00       		.byte	0
 5228 160f 20       		.uleb128 0x20
 5229 1610 6E010000 		.4byte	.LASF83
 5230 1614 07       		.byte	0x7
 5231 1615 CC       		.byte	0xcc
 5232 1616 FF150000 		.4byte	0x15ff
 5233 161a 1D       		.uleb128 0x1d
 5234 161b D3000000 		.4byte	.LASF84
 5235 161f 05       		.byte	0x5
 5236 1620 2B       		.byte	0x2b
 5237 1621 6F000000 		.4byte	0x6f
 5238 1625 05       		.uleb128 0x5
 5239 1626 03       		.byte	0x3
 5240 1627 00000000 		.4byte	global_encoder
 5241 162b 1D       		.uleb128 0x1d
 5242 162c 5E010000 		.4byte	.LASF85
 5243 1630 05       		.byte	0x5
 5244 1631 2C       		.byte	0x2c
 5245 1632 6F000000 		.4byte	0x6f
 5246 1636 05       		.uleb128 0x5
 5247 1637 03       		.byte	0x3
 5248 1638 00000000 		.4byte	global_distance
 5249 163c 1D       		.uleb128 0x1d
 5250 163d 1F060000 		.4byte	.LASF86
 5251 1641 07       		.byte	0x7
 5252 1642 D2       		.byte	0xd2
 5253 1643 6F000000 		.4byte	0x6f
 5254 1647 05       		.uleb128 0x5
 5255 1648 03       		.byte	0x3
 5256 1649 00000000 		.4byte	preferential_route
 5257 164d 1D       		.uleb128 0x1d
ARM GAS  C:\Users\Misha\AppData\Local\Temp\ccbcIC6d.s 			page 111


 5258 164e 3C000000 		.4byte	.LASF87
 5259 1652 07       		.byte	0x7
 5260 1653 D3       		.byte	0xd3
 5261 1654 6F000000 		.4byte	0x6f
 5262 1658 05       		.uleb128 0x5
 5263 1659 03       		.byte	0x3
 5264 165a 00000000 		.4byte	initial_tolerance
 5265 165e 1D       		.uleb128 0x1d
 5266 165f 72050000 		.4byte	.LASF88
 5267 1663 07       		.byte	0x7
 5268 1664 D4       		.byte	0xd4
 5269 1665 6F000000 		.4byte	0x6f
 5270 1669 05       		.uleb128 0x5
 5271 166a 03       		.byte	0x3
 5272 166b 00000000 		.4byte	set_path
 5273 166f 1D       		.uleb128 0x1d
 5274 1670 2E020000 		.4byte	.LASF89
 5275 1674 07       		.byte	0x7
 5276 1675 D6       		.byte	0xd6
 5277 1676 6F000000 		.4byte	0x6f
 5278 167a 05       		.uleb128 0x5
 5279 167b 03       		.byte	0x3
 5280 167c 00000000 		.4byte	puck_grid_initial
 5281 1680 1D       		.uleb128 0x1d
 5282 1681 7F010000 		.4byte	.LASF90
 5283 1685 06       		.byte	0x6
 5284 1686 25       		.byte	0x25
 5285 1687 6F000000 		.4byte	0x6f
 5286 168b 05       		.uleb128 0x5
 5287 168c 03       		.byte	0x3
 5288 168d 00000000 		.4byte	ultrasonic_flag
 5289 1691 1E       		.uleb128 0x1e
 5290 1692 6F000000 		.4byte	0x6f
 5291 1696 A1160000 		.4byte	0x16a1
 5292 169a 1F       		.uleb128 0x1f
 5293 169b 9D000000 		.4byte	0x9d
 5294 169f 02       		.byte	0x2
 5295 16a0 00       		.byte	0
 5296 16a1 20       		.uleb128 0x20
 5297 16a2 F7030000 		.4byte	.LASF91
 5298 16a6 05       		.byte	0x5
 5299 16a7 1F       		.byte	0x1f
 5300 16a8 91160000 		.4byte	0x1691
 5301 16ac 20       		.uleb128 0x20
 5302 16ad 9D040000 		.4byte	.LASF92
 5303 16b1 05       		.byte	0x5
 5304 16b2 20       		.byte	0x20
 5305 16b3 6F000000 		.4byte	0x6f
 5306 16b7 20       		.uleb128 0x20
 5307 16b8 3E050000 		.4byte	.LASF93
 5308 16bc 05       		.byte	0x5
 5309 16bd 21       		.byte	0x21
 5310 16be 6F000000 		.4byte	0x6f
 5311 16c2 20       		.uleb128 0x20
 5312 16c3 F5020000 		.4byte	.LASF94
 5313 16c7 05       		.byte	0x5
 5314 16c8 23       		.byte	0x23
ARM GAS  C:\Users\Misha\AppData\Local\Temp\ccbcIC6d.s 			page 112


 5315 16c9 6F000000 		.4byte	0x6f
 5316 16cd 21       		.uleb128 0x21
 5317 16ce 46020000 		.4byte	.LASF95
 5318 16d2 46020000 		.4byte	.LASF95
 5319 16d6 08       		.byte	0x8
 5320 16d7 0F       		.byte	0xf
 5321 16d8 21       		.uleb128 0x21
 5322 16d9 A0000000 		.4byte	.LASF96
 5323 16dd A0000000 		.4byte	.LASF96
 5324 16e1 09       		.byte	0x9
 5325 16e2 1D       		.byte	0x1d
 5326 16e3 21       		.uleb128 0x21
 5327 16e4 EA050000 		.4byte	.LASF97
 5328 16e8 EA050000 		.4byte	.LASF97
 5329 16ec 0A       		.byte	0xa
 5330 16ed 2F       		.byte	0x2f
 5331 16ee 21       		.uleb128 0x21
 5332 16ef ED010000 		.4byte	.LASF98
 5333 16f3 ED010000 		.4byte	.LASF98
 5334 16f7 0B       		.byte	0xb
 5335 16f8 2F       		.byte	0x2f
 5336 16f9 21       		.uleb128 0x21
 5337 16fa 19080000 		.4byte	.LASF99
 5338 16fe 19080000 		.4byte	.LASF99
 5339 1702 0C       		.byte	0xc
 5340 1703 DD       		.byte	0xdd
 5341 1704 21       		.uleb128 0x21
 5342 1705 FA070000 		.4byte	.LASF100
 5343 1709 FA070000 		.4byte	.LASF100
 5344 170d 0C       		.byte	0xc
 5345 170e C3       		.byte	0xc3
 5346 170f 21       		.uleb128 0x21
 5347 1710 77030000 		.4byte	.LASF101
 5348 1714 77030000 		.4byte	.LASF101
 5349 1718 0D       		.byte	0xd
 5350 1719 DD       		.byte	0xdd
 5351 171a 21       		.uleb128 0x21
 5352 171b 59000000 		.4byte	.LASF102
 5353 171f 59000000 		.4byte	.LASF102
 5354 1723 0D       		.byte	0xd
 5355 1724 C3       		.byte	0xc3
 5356 1725 21       		.uleb128 0x21
 5357 1726 95040000 		.4byte	.LASF103
 5358 172a 95040000 		.4byte	.LASF103
 5359 172e 08       		.byte	0x8
 5360 172f 10       		.byte	0x10
 5361 1730 21       		.uleb128 0x21
 5362 1731 4E030000 		.4byte	.LASF104
 5363 1735 4E030000 		.4byte	.LASF104
 5364 1739 0E       		.byte	0xe
 5365 173a 2F       		.byte	0x2f
 5366 173b 21       		.uleb128 0x21
 5367 173c B4000000 		.4byte	.LASF105
 5368 1740 B4000000 		.4byte	.LASF105
 5369 1744 0F       		.byte	0xf
 5370 1745 4E       		.byte	0x4e
 5371 1746 21       		.uleb128 0x21
ARM GAS  C:\Users\Misha\AppData\Local\Temp\ccbcIC6d.s 			page 113


 5372 1747 F4060000 		.4byte	.LASF106
 5373 174b F4060000 		.4byte	.LASF106
 5374 174f 10       		.byte	0x10
 5375 1750 4E       		.byte	0x4e
 5376 1751 21       		.uleb128 0x21
 5377 1752 C0070000 		.4byte	.LASF107
 5378 1756 C0070000 		.4byte	.LASF107
 5379 175a 11       		.byte	0x11
 5380 175b 76       		.byte	0x76
 5381 175c 21       		.uleb128 0x21
 5382 175d EF030000 		.4byte	.LASF108
 5383 1761 EF030000 		.4byte	.LASF108
 5384 1765 12       		.byte	0x12
 5385 1766 E7       		.byte	0xe7
 5386 1767 21       		.uleb128 0x21
 5387 1768 D9050000 		.4byte	.LASF109
 5388 176c D9050000 		.4byte	.LASF109
 5389 1770 13       		.byte	0x13
 5390 1771 8B       		.byte	0x8b
 5391 1772 21       		.uleb128 0x21
 5392 1773 AE010000 		.4byte	.LASF110
 5393 1777 AE010000 		.4byte	.LASF110
 5394 177b 10       		.byte	0x10
 5395 177c 4F       		.byte	0x4f
 5396 177d 21       		.uleb128 0x21
 5397 177e 13030000 		.4byte	.LASF111
 5398 1782 13030000 		.4byte	.LASF111
 5399 1786 0F       		.byte	0xf
 5400 1787 4F       		.byte	0x4f
 5401 1788 21       		.uleb128 0x21
 5402 1789 A0030000 		.4byte	.LASF112
 5403 178d A0030000 		.4byte	.LASF112
 5404 1791 0C       		.byte	0xc
 5405 1792 DC       		.byte	0xdc
 5406 1793 21       		.uleb128 0x21
 5407 1794 A1020000 		.4byte	.LASF113
 5408 1798 A1020000 		.4byte	.LASF113
 5409 179c 0D       		.byte	0xd
 5410 179d DC       		.byte	0xdc
 5411 179e 21       		.uleb128 0x21
 5412 179f 98050000 		.4byte	.LASF114
 5413 17a3 98050000 		.4byte	.LASF114
 5414 17a7 14       		.byte	0x14
 5415 17a8 0E       		.byte	0xe
 5416 17a9 21       		.uleb128 0x21
 5417 17aa E0070000 		.4byte	.LASF115
 5418 17ae E0070000 		.4byte	.LASF115
 5419 17b2 14       		.byte	0x14
 5420 17b3 10       		.byte	0x10
 5421 17b4 22       		.uleb128 0x22
 5422 17b5 A8010000 		.4byte	.LASF116
 5423 17b9 A8010000 		.4byte	.LASF116
 5424 17bd 15       		.byte	0x15
 5425 17be 4B01     		.2byte	0x14b
 5426 17c0 21       		.uleb128 0x21
 5427 17c1 E1040000 		.4byte	.LASF117
 5428 17c5 E1040000 		.4byte	.LASF117
ARM GAS  C:\Users\Misha\AppData\Local\Temp\ccbcIC6d.s 			page 114


 5429 17c9 06       		.byte	0x6
 5430 17ca 16       		.byte	0x16
 5431 17cb 21       		.uleb128 0x21
 5432 17cc 32080000 		.4byte	.LASF118
 5433 17d0 32080000 		.4byte	.LASF118
 5434 17d4 14       		.byte	0x14
 5435 17d5 0F       		.byte	0xf
 5436 17d6 21       		.uleb128 0x21
 5437 17d7 6F040000 		.4byte	.LASF119
 5438 17db 6F040000 		.4byte	.LASF119
 5439 17df 16       		.byte	0x16
 5440 17e0 5A       		.byte	0x5a
 5441 17e1 00       		.byte	0
 5442              		.section	.debug_abbrev,"",%progbits
 5443              	.Ldebug_abbrev0:
 5444 0000 01       		.uleb128 0x1
 5445 0001 11       		.uleb128 0x11
 5446 0002 01       		.byte	0x1
 5447 0003 25       		.uleb128 0x25
 5448 0004 0E       		.uleb128 0xe
 5449 0005 13       		.uleb128 0x13
 5450 0006 0B       		.uleb128 0xb
 5451 0007 03       		.uleb128 0x3
 5452 0008 0E       		.uleb128 0xe
 5453 0009 1B       		.uleb128 0x1b
 5454 000a 0E       		.uleb128 0xe
 5455 000b 55       		.uleb128 0x55
 5456 000c 17       		.uleb128 0x17
 5457 000d 11       		.uleb128 0x11
 5458 000e 01       		.uleb128 0x1
 5459 000f 10       		.uleb128 0x10
 5460 0010 17       		.uleb128 0x17
 5461 0011 00       		.byte	0
 5462 0012 00       		.byte	0
 5463 0013 02       		.uleb128 0x2
 5464 0014 24       		.uleb128 0x24
 5465 0015 00       		.byte	0
 5466 0016 0B       		.uleb128 0xb
 5467 0017 0B       		.uleb128 0xb
 5468 0018 3E       		.uleb128 0x3e
 5469 0019 0B       		.uleb128 0xb
 5470 001a 03       		.uleb128 0x3
 5471 001b 0E       		.uleb128 0xe
 5472 001c 00       		.byte	0
 5473 001d 00       		.byte	0
 5474 001e 03       		.uleb128 0x3
 5475 001f 16       		.uleb128 0x16
 5476 0020 00       		.byte	0
 5477 0021 03       		.uleb128 0x3
 5478 0022 0E       		.uleb128 0xe
 5479 0023 3A       		.uleb128 0x3a
 5480 0024 0B       		.uleb128 0xb
 5481 0025 3B       		.uleb128 0x3b
 5482 0026 0B       		.uleb128 0xb
 5483 0027 49       		.uleb128 0x49
 5484 0028 13       		.uleb128 0x13
 5485 0029 00       		.byte	0
ARM GAS  C:\Users\Misha\AppData\Local\Temp\ccbcIC6d.s 			page 115


 5486 002a 00       		.byte	0
 5487 002b 04       		.uleb128 0x4
 5488 002c 24       		.uleb128 0x24
 5489 002d 00       		.byte	0
 5490 002e 0B       		.uleb128 0xb
 5491 002f 0B       		.uleb128 0xb
 5492 0030 3E       		.uleb128 0x3e
 5493 0031 0B       		.uleb128 0xb
 5494 0032 03       		.uleb128 0x3
 5495 0033 08       		.uleb128 0x8
 5496 0034 00       		.byte	0
 5497 0035 00       		.byte	0
 5498 0036 05       		.uleb128 0x5
 5499 0037 2E       		.uleb128 0x2e
 5500 0038 01       		.byte	0x1
 5501 0039 3F       		.uleb128 0x3f
 5502 003a 19       		.uleb128 0x19
 5503 003b 03       		.uleb128 0x3
 5504 003c 0E       		.uleb128 0xe
 5505 003d 3A       		.uleb128 0x3a
 5506 003e 0B       		.uleb128 0xb
 5507 003f 3B       		.uleb128 0x3b
 5508 0040 0B       		.uleb128 0xb
 5509 0041 27       		.uleb128 0x27
 5510 0042 19       		.uleb128 0x19
 5511 0043 11       		.uleb128 0x11
 5512 0044 01       		.uleb128 0x1
 5513 0045 12       		.uleb128 0x12
 5514 0046 06       		.uleb128 0x6
 5515 0047 40       		.uleb128 0x40
 5516 0048 18       		.uleb128 0x18
 5517 0049 9742     		.uleb128 0x2117
 5518 004b 19       		.uleb128 0x19
 5519 004c 01       		.uleb128 0x1
 5520 004d 13       		.uleb128 0x13
 5521 004e 00       		.byte	0
 5522 004f 00       		.byte	0
 5523 0050 06       		.uleb128 0x6
 5524 0051 34       		.uleb128 0x34
 5525 0052 00       		.byte	0
 5526 0053 03       		.uleb128 0x3
 5527 0054 0E       		.uleb128 0xe
 5528 0055 3A       		.uleb128 0x3a
 5529 0056 0B       		.uleb128 0xb
 5530 0057 3B       		.uleb128 0x3b
 5531 0058 0B       		.uleb128 0xb
 5532 0059 49       		.uleb128 0x49
 5533 005a 13       		.uleb128 0x13
 5534 005b 02       		.uleb128 0x2
 5535 005c 17       		.uleb128 0x17
 5536 005d 00       		.byte	0
 5537 005e 00       		.byte	0
 5538 005f 07       		.uleb128 0x7
 5539 0060 898201   		.uleb128 0x4109
 5540 0063 01       		.byte	0x1
 5541 0064 11       		.uleb128 0x11
 5542 0065 01       		.uleb128 0x1
ARM GAS  C:\Users\Misha\AppData\Local\Temp\ccbcIC6d.s 			page 116


 5543 0066 31       		.uleb128 0x31
 5544 0067 13       		.uleb128 0x13
 5545 0068 01       		.uleb128 0x1
 5546 0069 13       		.uleb128 0x13
 5547 006a 00       		.byte	0
 5548 006b 00       		.byte	0
 5549 006c 08       		.uleb128 0x8
 5550 006d 8A8201   		.uleb128 0x410a
 5551 0070 00       		.byte	0
 5552 0071 02       		.uleb128 0x2
 5553 0072 18       		.uleb128 0x18
 5554 0073 9142     		.uleb128 0x2111
 5555 0075 18       		.uleb128 0x18
 5556 0076 00       		.byte	0
 5557 0077 00       		.byte	0
 5558 0078 09       		.uleb128 0x9
 5559 0079 898201   		.uleb128 0x4109
 5560 007c 00       		.byte	0
 5561 007d 11       		.uleb128 0x11
 5562 007e 01       		.uleb128 0x1
 5563 007f 31       		.uleb128 0x31
 5564 0080 13       		.uleb128 0x13
 5565 0081 00       		.byte	0
 5566 0082 00       		.byte	0
 5567 0083 0A       		.uleb128 0xa
 5568 0084 898201   		.uleb128 0x4109
 5569 0087 01       		.byte	0x1
 5570 0088 11       		.uleb128 0x11
 5571 0089 01       		.uleb128 0x1
 5572 008a 31       		.uleb128 0x31
 5573 008b 13       		.uleb128 0x13
 5574 008c 00       		.byte	0
 5575 008d 00       		.byte	0
 5576 008e 0B       		.uleb128 0xb
 5577 008f 05       		.uleb128 0x5
 5578 0090 00       		.byte	0
 5579 0091 03       		.uleb128 0x3
 5580 0092 0E       		.uleb128 0xe
 5581 0093 3A       		.uleb128 0x3a
 5582 0094 0B       		.uleb128 0xb
 5583 0095 3B       		.uleb128 0x3b
 5584 0096 0B       		.uleb128 0xb
 5585 0097 49       		.uleb128 0x49
 5586 0098 13       		.uleb128 0x13
 5587 0099 02       		.uleb128 0x2
 5588 009a 17       		.uleb128 0x17
 5589 009b 00       		.byte	0
 5590 009c 00       		.byte	0
 5591 009d 0C       		.uleb128 0xc
 5592 009e 34       		.uleb128 0x34
 5593 009f 00       		.byte	0
 5594 00a0 03       		.uleb128 0x3
 5595 00a1 0E       		.uleb128 0xe
 5596 00a2 3A       		.uleb128 0x3a
 5597 00a3 0B       		.uleb128 0xb
 5598 00a4 3B       		.uleb128 0x3b
 5599 00a5 0B       		.uleb128 0xb
ARM GAS  C:\Users\Misha\AppData\Local\Temp\ccbcIC6d.s 			page 117


 5600 00a6 49       		.uleb128 0x49
 5601 00a7 13       		.uleb128 0x13
 5602 00a8 1C       		.uleb128 0x1c
 5603 00a9 0B       		.uleb128 0xb
 5604 00aa 00       		.byte	0
 5605 00ab 00       		.byte	0
 5606 00ac 0D       		.uleb128 0xd
 5607 00ad 2E       		.uleb128 0x2e
 5608 00ae 01       		.byte	0x1
 5609 00af 3F       		.uleb128 0x3f
 5610 00b0 19       		.uleb128 0x19
 5611 00b1 03       		.uleb128 0x3
 5612 00b2 0E       		.uleb128 0xe
 5613 00b3 3A       		.uleb128 0x3a
 5614 00b4 0B       		.uleb128 0xb
 5615 00b5 3B       		.uleb128 0x3b
 5616 00b6 05       		.uleb128 0x5
 5617 00b7 27       		.uleb128 0x27
 5618 00b8 19       		.uleb128 0x19
 5619 00b9 11       		.uleb128 0x11
 5620 00ba 01       		.uleb128 0x1
 5621 00bb 12       		.uleb128 0x12
 5622 00bc 06       		.uleb128 0x6
 5623 00bd 40       		.uleb128 0x40
 5624 00be 18       		.uleb128 0x18
 5625 00bf 9742     		.uleb128 0x2117
 5626 00c1 19       		.uleb128 0x19
 5627 00c2 01       		.uleb128 0x1
 5628 00c3 13       		.uleb128 0x13
 5629 00c4 00       		.byte	0
 5630 00c5 00       		.byte	0
 5631 00c6 0E       		.uleb128 0xe
 5632 00c7 05       		.uleb128 0x5
 5633 00c8 00       		.byte	0
 5634 00c9 03       		.uleb128 0x3
 5635 00ca 0E       		.uleb128 0xe
 5636 00cb 3A       		.uleb128 0x3a
 5637 00cc 0B       		.uleb128 0xb
 5638 00cd 3B       		.uleb128 0x3b
 5639 00ce 05       		.uleb128 0x5
 5640 00cf 49       		.uleb128 0x49
 5641 00d0 13       		.uleb128 0x13
 5642 00d1 02       		.uleb128 0x2
 5643 00d2 17       		.uleb128 0x17
 5644 00d3 00       		.byte	0
 5645 00d4 00       		.byte	0
 5646 00d5 0F       		.uleb128 0xf
 5647 00d6 34       		.uleb128 0x34
 5648 00d7 00       		.byte	0
 5649 00d8 03       		.uleb128 0x3
 5650 00d9 0E       		.uleb128 0xe
 5651 00da 3A       		.uleb128 0x3a
 5652 00db 0B       		.uleb128 0xb
 5653 00dc 3B       		.uleb128 0x3b
 5654 00dd 05       		.uleb128 0x5
 5655 00de 49       		.uleb128 0x49
 5656 00df 13       		.uleb128 0x13
ARM GAS  C:\Users\Misha\AppData\Local\Temp\ccbcIC6d.s 			page 118


 5657 00e0 02       		.uleb128 0x2
 5658 00e1 17       		.uleb128 0x17
 5659 00e2 00       		.byte	0
 5660 00e3 00       		.byte	0
 5661 00e4 10       		.uleb128 0x10
 5662 00e5 2E       		.uleb128 0x2e
 5663 00e6 01       		.byte	0x1
 5664 00e7 3F       		.uleb128 0x3f
 5665 00e8 19       		.uleb128 0x19
 5666 00e9 03       		.uleb128 0x3
 5667 00ea 0E       		.uleb128 0xe
 5668 00eb 3A       		.uleb128 0x3a
 5669 00ec 0B       		.uleb128 0xb
 5670 00ed 3B       		.uleb128 0x3b
 5671 00ee 05       		.uleb128 0x5
 5672 00ef 27       		.uleb128 0x27
 5673 00f0 19       		.uleb128 0x19
 5674 00f1 11       		.uleb128 0x11
 5675 00f2 01       		.uleb128 0x1
 5676 00f3 12       		.uleb128 0x12
 5677 00f4 06       		.uleb128 0x6
 5678 00f5 40       		.uleb128 0x40
 5679 00f6 18       		.uleb128 0x18
 5680 00f7 9642     		.uleb128 0x2116
 5681 00f9 19       		.uleb128 0x19
 5682 00fa 01       		.uleb128 0x1
 5683 00fb 13       		.uleb128 0x13
 5684 00fc 00       		.byte	0
 5685 00fd 00       		.byte	0
 5686 00fe 11       		.uleb128 0x11
 5687 00ff 34       		.uleb128 0x34
 5688 0100 00       		.byte	0
 5689 0101 03       		.uleb128 0x3
 5690 0102 0E       		.uleb128 0xe
 5691 0103 3A       		.uleb128 0x3a
 5692 0104 0B       		.uleb128 0xb
 5693 0105 3B       		.uleb128 0x3b
 5694 0106 05       		.uleb128 0x5
 5695 0107 49       		.uleb128 0x49
 5696 0108 13       		.uleb128 0x13
 5697 0109 1C       		.uleb128 0x1c
 5698 010a 0A       		.uleb128 0xa
 5699 010b 00       		.byte	0
 5700 010c 00       		.byte	0
 5701 010d 12       		.uleb128 0x12
 5702 010e 2E       		.uleb128 0x2e
 5703 010f 01       		.byte	0x1
 5704 0110 3F       		.uleb128 0x3f
 5705 0111 19       		.uleb128 0x19
 5706 0112 03       		.uleb128 0x3
 5707 0113 0E       		.uleb128 0xe
 5708 0114 3A       		.uleb128 0x3a
 5709 0115 0B       		.uleb128 0xb
 5710 0116 3B       		.uleb128 0x3b
 5711 0117 05       		.uleb128 0x5
 5712 0118 27       		.uleb128 0x27
 5713 0119 19       		.uleb128 0x19
ARM GAS  C:\Users\Misha\AppData\Local\Temp\ccbcIC6d.s 			page 119


 5714 011a 49       		.uleb128 0x49
 5715 011b 13       		.uleb128 0x13
 5716 011c 11       		.uleb128 0x11
 5717 011d 01       		.uleb128 0x1
 5718 011e 12       		.uleb128 0x12
 5719 011f 06       		.uleb128 0x6
 5720 0120 40       		.uleb128 0x40
 5721 0121 18       		.uleb128 0x18
 5722 0122 9742     		.uleb128 0x2117
 5723 0124 19       		.uleb128 0x19
 5724 0125 01       		.uleb128 0x1
 5725 0126 13       		.uleb128 0x13
 5726 0127 00       		.byte	0
 5727 0128 00       		.byte	0
 5728 0129 13       		.uleb128 0x13
 5729 012a 2E       		.uleb128 0x2e
 5730 012b 01       		.byte	0x1
 5731 012c 3F       		.uleb128 0x3f
 5732 012d 19       		.uleb128 0x19
 5733 012e 03       		.uleb128 0x3
 5734 012f 0E       		.uleb128 0xe
 5735 0130 3A       		.uleb128 0x3a
 5736 0131 0B       		.uleb128 0xb
 5737 0132 3B       		.uleb128 0x3b
 5738 0133 0B       		.uleb128 0xb
 5739 0134 27       		.uleb128 0x27
 5740 0135 19       		.uleb128 0x19
 5741 0136 11       		.uleb128 0x11
 5742 0137 01       		.uleb128 0x1
 5743 0138 12       		.uleb128 0x12
 5744 0139 06       		.uleb128 0x6
 5745 013a 40       		.uleb128 0x40
 5746 013b 18       		.uleb128 0x18
 5747 013c 9642     		.uleb128 0x2116
 5748 013e 19       		.uleb128 0x19
 5749 013f 01       		.uleb128 0x1
 5750 0140 13       		.uleb128 0x13
 5751 0141 00       		.byte	0
 5752 0142 00       		.byte	0
 5753 0143 14       		.uleb128 0x14
 5754 0144 0B       		.uleb128 0xb
 5755 0145 01       		.byte	0x1
 5756 0146 11       		.uleb128 0x11
 5757 0147 01       		.uleb128 0x1
 5758 0148 12       		.uleb128 0x12
 5759 0149 06       		.uleb128 0x6
 5760 014a 01       		.uleb128 0x1
 5761 014b 13       		.uleb128 0x13
 5762 014c 00       		.byte	0
 5763 014d 00       		.byte	0
 5764 014e 15       		.uleb128 0x15
 5765 014f 34       		.uleb128 0x34
 5766 0150 00       		.byte	0
 5767 0151 03       		.uleb128 0x3
 5768 0152 0E       		.uleb128 0xe
 5769 0153 3A       		.uleb128 0x3a
 5770 0154 0B       		.uleb128 0xb
ARM GAS  C:\Users\Misha\AppData\Local\Temp\ccbcIC6d.s 			page 120


 5771 0155 3B       		.uleb128 0x3b
 5772 0156 05       		.uleb128 0x5
 5773 0157 49       		.uleb128 0x49
 5774 0158 13       		.uleb128 0x13
 5775 0159 1C       		.uleb128 0x1c
 5776 015a 0B       		.uleb128 0xb
 5777 015b 00       		.byte	0
 5778 015c 00       		.byte	0
 5779 015d 16       		.uleb128 0x16
 5780 015e 34       		.uleb128 0x34
 5781 015f 00       		.byte	0
 5782 0160 03       		.uleb128 0x3
 5783 0161 0E       		.uleb128 0xe
 5784 0162 3A       		.uleb128 0x3a
 5785 0163 0B       		.uleb128 0xb
 5786 0164 3B       		.uleb128 0x3b
 5787 0165 05       		.uleb128 0x5
 5788 0166 49       		.uleb128 0x49
 5789 0167 13       		.uleb128 0x13
 5790 0168 1C       		.uleb128 0x1c
 5791 0169 05       		.uleb128 0x5
 5792 016a 00       		.byte	0
 5793 016b 00       		.byte	0
 5794 016c 17       		.uleb128 0x17
 5795 016d 34       		.uleb128 0x34
 5796 016e 00       		.byte	0
 5797 016f 03       		.uleb128 0x3
 5798 0170 0E       		.uleb128 0xe
 5799 0171 3A       		.uleb128 0x3a
 5800 0172 0B       		.uleb128 0xb
 5801 0173 3B       		.uleb128 0x3b
 5802 0174 05       		.uleb128 0x5
 5803 0175 49       		.uleb128 0x49
 5804 0176 13       		.uleb128 0x13
 5805 0177 00       		.byte	0
 5806 0178 00       		.byte	0
 5807 0179 18       		.uleb128 0x18
 5808 017a 2E       		.uleb128 0x2e
 5809 017b 01       		.byte	0x1
 5810 017c 3F       		.uleb128 0x3f
 5811 017d 19       		.uleb128 0x19
 5812 017e 03       		.uleb128 0x3
 5813 017f 0E       		.uleb128 0xe
 5814 0180 3A       		.uleb128 0x3a
 5815 0181 0B       		.uleb128 0xb
 5816 0182 3B       		.uleb128 0x3b
 5817 0183 05       		.uleb128 0x5
 5818 0184 27       		.uleb128 0x27
 5819 0185 19       		.uleb128 0x19
 5820 0186 8701     		.uleb128 0x87
 5821 0188 19       		.uleb128 0x19
 5822 0189 11       		.uleb128 0x11
 5823 018a 01       		.uleb128 0x1
 5824 018b 12       		.uleb128 0x12
 5825 018c 06       		.uleb128 0x6
 5826 018d 40       		.uleb128 0x40
 5827 018e 18       		.uleb128 0x18
ARM GAS  C:\Users\Misha\AppData\Local\Temp\ccbcIC6d.s 			page 121


 5828 018f 9742     		.uleb128 0x2117
 5829 0191 19       		.uleb128 0x19
 5830 0192 01       		.uleb128 0x1
 5831 0193 13       		.uleb128 0x13
 5832 0194 00       		.byte	0
 5833 0195 00       		.byte	0
 5834 0196 19       		.uleb128 0x19
 5835 0197 2E       		.uleb128 0x2e
 5836 0198 00       		.byte	0
 5837 0199 3F       		.uleb128 0x3f
 5838 019a 19       		.uleb128 0x19
 5839 019b 03       		.uleb128 0x3
 5840 019c 0E       		.uleb128 0xe
 5841 019d 3A       		.uleb128 0x3a
 5842 019e 0B       		.uleb128 0xb
 5843 019f 3B       		.uleb128 0x3b
 5844 01a0 05       		.uleb128 0x5
 5845 01a1 27       		.uleb128 0x27
 5846 01a2 19       		.uleb128 0x19
 5847 01a3 11       		.uleb128 0x11
 5848 01a4 01       		.uleb128 0x1
 5849 01a5 12       		.uleb128 0x12
 5850 01a6 06       		.uleb128 0x6
 5851 01a7 40       		.uleb128 0x40
 5852 01a8 18       		.uleb128 0x18
 5853 01a9 9742     		.uleb128 0x2117
 5854 01ab 19       		.uleb128 0x19
 5855 01ac 00       		.byte	0
 5856 01ad 00       		.byte	0
 5857 01ae 1A       		.uleb128 0x1a
 5858 01af 05       		.uleb128 0x5
 5859 01b0 00       		.byte	0
 5860 01b1 03       		.uleb128 0x3
 5861 01b2 0E       		.uleb128 0xe
 5862 01b3 3A       		.uleb128 0x3a
 5863 01b4 0B       		.uleb128 0xb
 5864 01b5 3B       		.uleb128 0x3b
 5865 01b6 05       		.uleb128 0x5
 5866 01b7 49       		.uleb128 0x49
 5867 01b8 13       		.uleb128 0x13
 5868 01b9 02       		.uleb128 0x2
 5869 01ba 18       		.uleb128 0x18
 5870 01bb 00       		.byte	0
 5871 01bc 00       		.byte	0
 5872 01bd 1B       		.uleb128 0x1b
 5873 01be 34       		.uleb128 0x34
 5874 01bf 00       		.byte	0
 5875 01c0 03       		.uleb128 0x3
 5876 01c1 0E       		.uleb128 0xe
 5877 01c2 3A       		.uleb128 0x3a
 5878 01c3 0B       		.uleb128 0xb
 5879 01c4 3B       		.uleb128 0x3b
 5880 01c5 05       		.uleb128 0x5
 5881 01c6 49       		.uleb128 0x49
 5882 01c7 13       		.uleb128 0x13
 5883 01c8 3F       		.uleb128 0x3f
 5884 01c9 19       		.uleb128 0x19
ARM GAS  C:\Users\Misha\AppData\Local\Temp\ccbcIC6d.s 			page 122


 5885 01ca 3C       		.uleb128 0x3c
 5886 01cb 19       		.uleb128 0x19
 5887 01cc 00       		.byte	0
 5888 01cd 00       		.byte	0
 5889 01ce 1C       		.uleb128 0x1c
 5890 01cf 35       		.uleb128 0x35
 5891 01d0 00       		.byte	0
 5892 01d1 49       		.uleb128 0x49
 5893 01d2 13       		.uleb128 0x13
 5894 01d3 00       		.byte	0
 5895 01d4 00       		.byte	0
 5896 01d5 1D       		.uleb128 0x1d
 5897 01d6 34       		.uleb128 0x34
 5898 01d7 00       		.byte	0
 5899 01d8 03       		.uleb128 0x3
 5900 01d9 0E       		.uleb128 0xe
 5901 01da 3A       		.uleb128 0x3a
 5902 01db 0B       		.uleb128 0xb
 5903 01dc 3B       		.uleb128 0x3b
 5904 01dd 0B       		.uleb128 0xb
 5905 01de 49       		.uleb128 0x49
 5906 01df 13       		.uleb128 0x13
 5907 01e0 3F       		.uleb128 0x3f
 5908 01e1 19       		.uleb128 0x19
 5909 01e2 02       		.uleb128 0x2
 5910 01e3 18       		.uleb128 0x18
 5911 01e4 00       		.byte	0
 5912 01e5 00       		.byte	0
 5913 01e6 1E       		.uleb128 0x1e
 5914 01e7 01       		.uleb128 0x1
 5915 01e8 01       		.byte	0x1
 5916 01e9 49       		.uleb128 0x49
 5917 01ea 13       		.uleb128 0x13
 5918 01eb 01       		.uleb128 0x1
 5919 01ec 13       		.uleb128 0x13
 5920 01ed 00       		.byte	0
 5921 01ee 00       		.byte	0
 5922 01ef 1F       		.uleb128 0x1f
 5923 01f0 21       		.uleb128 0x21
 5924 01f1 00       		.byte	0
 5925 01f2 49       		.uleb128 0x49
 5926 01f3 13       		.uleb128 0x13
 5927 01f4 2F       		.uleb128 0x2f
 5928 01f5 0B       		.uleb128 0xb
 5929 01f6 00       		.byte	0
 5930 01f7 00       		.byte	0
 5931 01f8 20       		.uleb128 0x20
 5932 01f9 34       		.uleb128 0x34
 5933 01fa 00       		.byte	0
 5934 01fb 03       		.uleb128 0x3
 5935 01fc 0E       		.uleb128 0xe
 5936 01fd 3A       		.uleb128 0x3a
 5937 01fe 0B       		.uleb128 0xb
 5938 01ff 3B       		.uleb128 0x3b
 5939 0200 0B       		.uleb128 0xb
 5940 0201 49       		.uleb128 0x49
 5941 0202 13       		.uleb128 0x13
ARM GAS  C:\Users\Misha\AppData\Local\Temp\ccbcIC6d.s 			page 123


 5942 0203 3F       		.uleb128 0x3f
 5943 0204 19       		.uleb128 0x19
 5944 0205 3C       		.uleb128 0x3c
 5945 0206 19       		.uleb128 0x19
 5946 0207 00       		.byte	0
 5947 0208 00       		.byte	0
 5948 0209 21       		.uleb128 0x21
 5949 020a 2E       		.uleb128 0x2e
 5950 020b 00       		.byte	0
 5951 020c 3F       		.uleb128 0x3f
 5952 020d 19       		.uleb128 0x19
 5953 020e 3C       		.uleb128 0x3c
 5954 020f 19       		.uleb128 0x19
 5955 0210 6E       		.uleb128 0x6e
 5956 0211 0E       		.uleb128 0xe
 5957 0212 03       		.uleb128 0x3
 5958 0213 0E       		.uleb128 0xe
 5959 0214 3A       		.uleb128 0x3a
 5960 0215 0B       		.uleb128 0xb
 5961 0216 3B       		.uleb128 0x3b
 5962 0217 0B       		.uleb128 0xb
 5963 0218 00       		.byte	0
 5964 0219 00       		.byte	0
 5965 021a 22       		.uleb128 0x22
 5966 021b 2E       		.uleb128 0x2e
 5967 021c 00       		.byte	0
 5968 021d 3F       		.uleb128 0x3f
 5969 021e 19       		.uleb128 0x19
 5970 021f 3C       		.uleb128 0x3c
 5971 0220 19       		.uleb128 0x19
 5972 0221 6E       		.uleb128 0x6e
 5973 0222 0E       		.uleb128 0xe
 5974 0223 03       		.uleb128 0x3
 5975 0224 0E       		.uleb128 0xe
 5976 0225 3A       		.uleb128 0x3a
 5977 0226 0B       		.uleb128 0xb
 5978 0227 3B       		.uleb128 0x3b
 5979 0228 05       		.uleb128 0x5
 5980 0229 00       		.byte	0
 5981 022a 00       		.byte	0
 5982 022b 00       		.byte	0
 5983              		.section	.debug_loc,"",%progbits
 5984              	.Ldebug_loc0:
 5985              	.LLST0:
 5986 0000 02000000 		.4byte	.LVL0
 5987 0004 14000000 		.4byte	.LVL2
 5988 0008 0200     		.2byte	0x2
 5989 000a 30       		.byte	0x30
 5990 000b 9F       		.byte	0x9f
 5991 000c 14000000 		.4byte	.LVL2
 5992 0010 40000000 		.4byte	.LVL9
 5993 0014 0100     		.2byte	0x1
 5994 0016 55       		.byte	0x55
 5995 0017 00000000 		.4byte	0
 5996 001b 00000000 		.4byte	0
 5997              	.LLST1:
 5998 001f 22000000 		.4byte	.LVL5
ARM GAS  C:\Users\Misha\AppData\Local\Temp\ccbcIC6d.s 			page 124


 5999 0023 26000000 		.4byte	.LVL6
 6000 0027 0100     		.2byte	0x1
 6001 0029 50       		.byte	0x50
 6002 002a 26000000 		.4byte	.LVL6
 6003 002e 3A000000 		.4byte	.LVL8
 6004 0032 0100     		.2byte	0x1
 6005 0034 54       		.byte	0x54
 6006 0035 00000000 		.4byte	0
 6007 0039 00000000 		.4byte	0
 6008              	.LLST2:
 6009 003d 00000000 		.4byte	.LVL10
 6010 0041 08000000 		.4byte	.LVL12
 6011 0045 0100     		.2byte	0x1
 6012 0047 50       		.byte	0x50
 6013 0048 08000000 		.4byte	.LVL12
 6014 004c 3E000000 		.4byte	.LVL21
 6015 0050 0100     		.2byte	0x1
 6016 0052 54       		.byte	0x54
 6017 0053 3E000000 		.4byte	.LVL21
 6018 0057 D0000000 		.4byte	.LFE66
 6019 005b 0400     		.2byte	0x4
 6020 005d F3       		.byte	0xf3
 6021 005e 01       		.uleb128 0x1
 6022 005f 50       		.byte	0x50
 6023 0060 9F       		.byte	0x9f
 6024 0061 00000000 		.4byte	0
 6025 0065 00000000 		.4byte	0
 6026              	.LLST3:
 6027 0069 06000000 		.4byte	.LVL11
 6028 006d 3E000000 		.4byte	.LVL21
 6029 0071 0200     		.2byte	0x2
 6030 0073 30       		.byte	0x30
 6031 0074 9F       		.byte	0x9f
 6032 0075 3E000000 		.4byte	.LVL21
 6033 0079 50000000 		.4byte	.LVL27
 6034 007d 0100     		.2byte	0x1
 6035 007f 56       		.byte	0x56
 6036 0080 50000000 		.4byte	.LVL27
 6037 0084 52000000 		.4byte	.LVL28
 6038 0088 0100     		.2byte	0x1
 6039 008a 50       		.byte	0x50
 6040 008b 52000000 		.4byte	.LVL28
 6041 008f C2000000 		.4byte	.LVL43
 6042 0093 0100     		.2byte	0x1
 6043 0095 56       		.byte	0x56
 6044 0096 00000000 		.4byte	0
 6045 009a 00000000 		.4byte	0
 6046              	.LLST4:
 6047 009e 44000000 		.4byte	.LVL23
 6048 00a2 47000000 		.4byte	.LVL24-1
 6049 00a6 0100     		.2byte	0x1
 6050 00a8 50       		.byte	0x50
 6051 00a9 47000000 		.4byte	.LVL24-1
 6052 00ad 9C000000 		.4byte	.LVL37
 6053 00b1 0100     		.2byte	0x1
 6054 00b3 54       		.byte	0x54
 6055 00b4 00000000 		.4byte	0
ARM GAS  C:\Users\Misha\AppData\Local\Temp\ccbcIC6d.s 			page 125


 6056 00b8 00000000 		.4byte	0
 6057              	.LLST5:
 6058 00bc 4A000000 		.4byte	.LVL25
 6059 00c0 4D000000 		.4byte	.LVL26-1
 6060 00c4 0100     		.2byte	0x1
 6061 00c6 50       		.byte	0x50
 6062 00c7 4D000000 		.4byte	.LVL26-1
 6063 00cb 9C000000 		.4byte	.LVL37
 6064 00cf 0100     		.2byte	0x1
 6065 00d1 55       		.byte	0x55
 6066 00d2 00000000 		.4byte	0
 6067 00d6 00000000 		.4byte	0
 6068              	.LLST6:
 6069 00da 06000000 		.4byte	.LVL11
 6070 00de 3E000000 		.4byte	.LVL21
 6071 00e2 0300     		.2byte	0x3
 6072 00e4 08       		.byte	0x8
 6073 00e5 46       		.byte	0x46
 6074 00e6 9F       		.byte	0x9f
 6075 00e7 3E000000 		.4byte	.LVL21
 6076 00eb C2000000 		.4byte	.LVL43
 6077 00ef 0100     		.2byte	0x1
 6078 00f1 59       		.byte	0x59
 6079 00f2 00000000 		.4byte	0
 6080 00f6 00000000 		.4byte	0
 6081              	.LLST7:
 6082 00fa 06000000 		.4byte	.LVL11
 6083 00fe 3E000000 		.4byte	.LVL21
 6084 0102 0300     		.2byte	0x3
 6085 0104 08       		.byte	0x8
 6086 0105 46       		.byte	0x46
 6087 0106 9F       		.byte	0x9f
 6088 0107 3E000000 		.4byte	.LVL21
 6089 010b 80000000 		.4byte	.LVL32
 6090 010f 0100     		.2byte	0x1
 6091 0111 58       		.byte	0x58
 6092 0112 84000000 		.4byte	.LVL33
 6093 0116 8C000000 		.4byte	.LVL34
 6094 011a 0100     		.2byte	0x1
 6095 011c 58       		.byte	0x58
 6096 011d 90000000 		.4byte	.LVL35
 6097 0121 C2000000 		.4byte	.LVL43
 6098 0125 0100     		.2byte	0x1
 6099 0127 58       		.byte	0x58
 6100 0128 00000000 		.4byte	0
 6101 012c 00000000 		.4byte	0
 6102              	.LLST8:
 6103 0130 06000000 		.4byte	.LVL44
 6104 0134 0A000000 		.4byte	.LVL45
 6105 0138 0100     		.2byte	0x1
 6106 013a 50       		.byte	0x50
 6107 013b 00000000 		.4byte	0
 6108 013f 00000000 		.4byte	0
 6109              	.LLST9:
 6110 0143 00000000 		.4byte	.LVL47
 6111 0147 08000000 		.4byte	.LVL48
 6112 014b 0100     		.2byte	0x1
ARM GAS  C:\Users\Misha\AppData\Local\Temp\ccbcIC6d.s 			page 126


 6113 014d 50       		.byte	0x50
 6114 014e 08000000 		.4byte	.LVL48
 6115 0152 32000000 		.4byte	.LVL54
 6116 0156 0100     		.2byte	0x1
 6117 0158 54       		.byte	0x54
 6118 0159 32000000 		.4byte	.LVL54
 6119 015d 3C000000 		.4byte	.LFE68
 6120 0161 0500     		.2byte	0x5
 6121 0163 03       		.byte	0x3
 6122 0164 00000000 		.4byte	internal_orientation
 6123 0168 00000000 		.4byte	0
 6124 016c 00000000 		.4byte	0
 6125              	.LLST10:
 6126 0170 00000000 		.4byte	.LVL47
 6127 0174 2B000000 		.4byte	.LVL53-1
 6128 0178 0100     		.2byte	0x1
 6129 017a 51       		.byte	0x51
 6130 017b 2B000000 		.4byte	.LVL53-1
 6131 017f 3C000000 		.4byte	.LFE68
 6132 0183 0400     		.2byte	0x4
 6133 0185 F3       		.byte	0xf3
 6134 0186 01       		.uleb128 0x1
 6135 0187 51       		.byte	0x51
 6136 0188 9F       		.byte	0x9f
 6137 0189 00000000 		.4byte	0
 6138 018d 00000000 		.4byte	0
 6139              	.LLST11:
 6140 0191 10000000 		.4byte	.LVL50
 6141 0195 22000000 		.4byte	.LVL51
 6142 0199 0100     		.2byte	0x1
 6143 019b 50       		.byte	0x50
 6144 019c 22000000 		.4byte	.LVL51
 6145 01a0 26000000 		.4byte	.LVL52
 6146 01a4 0800     		.2byte	0x8
 6147 01a6 73       		.byte	0x73
 6148 01a7 00       		.sleb128 0
 6149 01a8 70       		.byte	0x70
 6150 01a9 00       		.sleb128 0
 6151 01aa 4F       		.byte	0x4f
 6152 01ab 26       		.byte	0x26
 6153 01ac 1C       		.byte	0x1c
 6154 01ad 9F       		.byte	0x9f
 6155 01ae 26000000 		.4byte	.LVL52
 6156 01b2 2B000000 		.4byte	.LVL53-1
 6157 01b6 0100     		.2byte	0x1
 6158 01b8 50       		.byte	0x50
 6159 01b9 00000000 		.4byte	0
 6160 01bd 00000000 		.4byte	0
 6161              	.LLST12:
 6162 01c1 0A000000 		.4byte	.LVL49
 6163 01c5 10000000 		.4byte	.LVL50
 6164 01c9 0100     		.2byte	0x1
 6165 01cb 50       		.byte	0x50
 6166 01cc 10000000 		.4byte	.LVL50
 6167 01d0 2B000000 		.4byte	.LVL53-1
 6168 01d4 0A00     		.2byte	0xa
 6169 01d6 74       		.byte	0x74
ARM GAS  C:\Users\Misha\AppData\Local\Temp\ccbcIC6d.s 			page 127


 6170 01d7 00       		.sleb128 0
 6171 01d8 03       		.byte	0x3
 6172 01d9 00000000 		.4byte	internal_orientation
 6173 01dd 06       		.byte	0x6
 6174 01de 1C       		.byte	0x1c
 6175 01df 9F       		.byte	0x9f
 6176 01e0 00000000 		.4byte	0
 6177 01e4 00000000 		.4byte	0
 6178              	.LLST13:
 6179 01e8 00000000 		.4byte	.LVL55
 6180 01ec 0C000000 		.4byte	.LVL57
 6181 01f0 0100     		.2byte	0x1
 6182 01f2 50       		.byte	0x50
 6183 01f3 0C000000 		.4byte	.LVL57
 6184 01f7 1C020000 		.4byte	.LVL130
 6185 01fb 0100     		.2byte	0x1
 6186 01fd 54       		.byte	0x54
 6187 01fe 1C020000 		.4byte	.LVL130
 6188 0202 38020000 		.4byte	.LFE69
 6189 0206 0400     		.2byte	0x4
 6190 0208 F3       		.byte	0xf3
 6191 0209 01       		.uleb128 0x1
 6192 020a 50       		.byte	0x50
 6193 020b 9F       		.byte	0x9f
 6194 020c 00000000 		.4byte	0
 6195 0210 00000000 		.4byte	0
 6196              	.LLST14:
 6197 0214 00000000 		.4byte	.LVL55
 6198 0218 0F000000 		.4byte	.LVL58-1
 6199 021c 0100     		.2byte	0x1
 6200 021e 51       		.byte	0x51
 6201 021f 0F000000 		.4byte	.LVL58-1
 6202 0223 38020000 		.4byte	.LFE69
 6203 0227 0600     		.2byte	0x6
 6204 0229 F3       		.byte	0xf3
 6205 022a 03       		.uleb128 0x3
 6206 022b F5       		.byte	0xf5
 6207 022c 01       		.uleb128 0x1
 6208 022d 25       		.uleb128 0x25
 6209 022e 9F       		.byte	0x9f
 6210 022f 00000000 		.4byte	0
 6211 0233 00000000 		.4byte	0
 6212              	.LLST15:
 6213 0237 00000000 		.4byte	.LVL55
 6214 023b 0F000000 		.4byte	.LVL58-1
 6215 023f 0100     		.2byte	0x1
 6216 0241 52       		.byte	0x52
 6217 0242 0F000000 		.4byte	.LVL58-1
 6218 0246 40000000 		.4byte	.LVL67
 6219 024a 0100     		.2byte	0x1
 6220 024c 56       		.byte	0x56
 6221 024d 40000000 		.4byte	.LVL67
 6222 0251 A6000000 		.4byte	.LVL79
 6223 0255 0400     		.2byte	0x4
 6224 0257 F3       		.byte	0xf3
 6225 0258 01       		.uleb128 0x1
 6226 0259 52       		.byte	0x52
ARM GAS  C:\Users\Misha\AppData\Local\Temp\ccbcIC6d.s 			page 128


 6227 025a 9F       		.byte	0x9f
 6228 025b A6000000 		.4byte	.LVL79
 6229 025f BA000000 		.4byte	.LVL83
 6230 0263 0100     		.2byte	0x1
 6231 0265 56       		.byte	0x56
 6232 0266 BA000000 		.4byte	.LVL83
 6233 026a 20010000 		.4byte	.LVL95
 6234 026e 0400     		.2byte	0x4
 6235 0270 F3       		.byte	0xf3
 6236 0271 01       		.uleb128 0x1
 6237 0272 52       		.byte	0x52
 6238 0273 9F       		.byte	0x9f
 6239 0274 20010000 		.4byte	.LVL95
 6240 0278 32010000 		.4byte	.LVL98
 6241 027c 0100     		.2byte	0x1
 6242 027e 56       		.byte	0x56
 6243 027f 32010000 		.4byte	.LVL98
 6244 0283 9E010000 		.4byte	.LVL111
 6245 0287 0400     		.2byte	0x4
 6246 0289 F3       		.byte	0xf3
 6247 028a 01       		.uleb128 0x1
 6248 028b 52       		.byte	0x52
 6249 028c 9F       		.byte	0x9f
 6250 028d 9E010000 		.4byte	.LVL111
 6251 0291 B0010000 		.4byte	.LVL115
 6252 0295 0100     		.2byte	0x1
 6253 0297 56       		.byte	0x56
 6254 0298 B0010000 		.4byte	.LVL115
 6255 029c 38020000 		.4byte	.LFE69
 6256 02a0 0400     		.2byte	0x4
 6257 02a2 F3       		.byte	0xf3
 6258 02a3 01       		.uleb128 0x1
 6259 02a4 52       		.byte	0x52
 6260 02a5 9F       		.byte	0x9f
 6261 02a6 00000000 		.4byte	0
 6262 02aa 00000000 		.4byte	0
 6263              	.LLST16:
 6264 02ae 00000000 		.4byte	.LVL55
 6265 02b2 0F000000 		.4byte	.LVL58-1
 6266 02b6 0100     		.2byte	0x1
 6267 02b8 53       		.byte	0x53
 6268 02b9 0F000000 		.4byte	.LVL58-1
 6269 02bd 40000000 		.4byte	.LVL67
 6270 02c1 0100     		.2byte	0x1
 6271 02c3 57       		.byte	0x57
 6272 02c4 40000000 		.4byte	.LVL67
 6273 02c8 A6000000 		.4byte	.LVL79
 6274 02cc 0400     		.2byte	0x4
 6275 02ce F3       		.byte	0xf3
 6276 02cf 01       		.uleb128 0x1
 6277 02d0 53       		.byte	0x53
 6278 02d1 9F       		.byte	0x9f
 6279 02d2 A6000000 		.4byte	.LVL79
 6280 02d6 BA000000 		.4byte	.LVL83
 6281 02da 0100     		.2byte	0x1
 6282 02dc 57       		.byte	0x57
 6283 02dd BA000000 		.4byte	.LVL83
ARM GAS  C:\Users\Misha\AppData\Local\Temp\ccbcIC6d.s 			page 129


 6284 02e1 20010000 		.4byte	.LVL95
 6285 02e5 0400     		.2byte	0x4
 6286 02e7 F3       		.byte	0xf3
 6287 02e8 01       		.uleb128 0x1
 6288 02e9 53       		.byte	0x53
 6289 02ea 9F       		.byte	0x9f
 6290 02eb 20010000 		.4byte	.LVL95
 6291 02ef 1C020000 		.4byte	.LVL130
 6292 02f3 0100     		.2byte	0x1
 6293 02f5 57       		.byte	0x57
 6294 02f6 1C020000 		.4byte	.LVL130
 6295 02fa 38020000 		.4byte	.LFE69
 6296 02fe 0400     		.2byte	0x4
 6297 0300 F3       		.byte	0xf3
 6298 0301 01       		.uleb128 0x1
 6299 0302 53       		.byte	0x53
 6300 0303 9F       		.byte	0x9f
 6301 0304 00000000 		.4byte	0
 6302 0308 00000000 		.4byte	0
 6303              	.LLST17:
 6304 030c 3E000000 		.4byte	.LVL66
 6305 0310 46000000 		.4byte	.LVL68
 6306 0314 0100     		.2byte	0x1
 6307 0316 50       		.byte	0x50
 6308 0317 46000000 		.4byte	.LVL68
 6309 031b 49000000 		.4byte	.LVL69-1
 6310 031f 0200     		.2byte	0x2
 6311 0321 73       		.byte	0x73
 6312 0322 0C       		.sleb128 12
 6313 0323 9E000000 		.4byte	.LVL78
 6314 0327 A6000000 		.4byte	.LVL79
 6315 032b 0100     		.2byte	0x1
 6316 032d 50       		.byte	0x50
 6317 032e B8000000 		.4byte	.LVL82
 6318 0332 C0000000 		.4byte	.LVL84
 6319 0336 0100     		.2byte	0x1
 6320 0338 50       		.byte	0x50
 6321 0339 C0000000 		.4byte	.LVL84
 6322 033d C3000000 		.4byte	.LVL85-1
 6323 0341 0200     		.2byte	0x2
 6324 0343 73       		.byte	0x73
 6325 0344 08       		.sleb128 8
 6326 0345 18010000 		.4byte	.LVL94
 6327 0349 20010000 		.4byte	.LVL95
 6328 034d 0100     		.2byte	0x1
 6329 034f 50       		.byte	0x50
 6330 0350 32010000 		.4byte	.LVL98
 6331 0354 9E010000 		.4byte	.LVL111
 6332 0358 0100     		.2byte	0x1
 6333 035a 56       		.byte	0x56
 6334 035b AE010000 		.4byte	.LVL114
 6335 035f B4010000 		.4byte	.LVL116
 6336 0363 0100     		.2byte	0x1
 6337 0365 50       		.byte	0x50
 6338 0366 B4010000 		.4byte	.LVL116
 6339 036a B7010000 		.4byte	.LVL117-1
 6340 036e 0200     		.2byte	0x2
ARM GAS  C:\Users\Misha\AppData\Local\Temp\ccbcIC6d.s 			page 130


 6341 0370 73       		.byte	0x73
 6342 0371 0C       		.sleb128 12
 6343 0372 14020000 		.4byte	.LVL128
 6344 0376 18020000 		.4byte	.LVL129
 6345 037a 0100     		.2byte	0x1
 6346 037c 50       		.byte	0x50
 6347 037d 00000000 		.4byte	0
 6348 0381 00000000 		.4byte	0
 6349              	.LLST18:
 6350 0385 2C000000 		.4byte	.LVL63
 6351 0389 36000000 		.4byte	.LVL64
 6352 038d 0100     		.2byte	0x1
 6353 038f 50       		.byte	0x50
 6354 0390 36000000 		.4byte	.LVL64
 6355 0394 A6000000 		.4byte	.LVL79
 6356 0398 0100     		.2byte	0x1
 6357 039a 55       		.byte	0x55
 6358 039b A6000000 		.4byte	.LVL79
 6359 039f B0000000 		.4byte	.LVL80
 6360 03a3 0100     		.2byte	0x1
 6361 03a5 50       		.byte	0x50
 6362 03a6 B0000000 		.4byte	.LVL80
 6363 03aa 20010000 		.4byte	.LVL95
 6364 03ae 0100     		.2byte	0x1
 6365 03b0 55       		.byte	0x55
 6366 03b1 20010000 		.4byte	.LVL95
 6367 03b5 2A010000 		.4byte	.LVL96
 6368 03b9 0100     		.2byte	0x1
 6369 03bb 50       		.byte	0x50
 6370 03bc 2A010000 		.4byte	.LVL96
 6371 03c0 9E010000 		.4byte	.LVL111
 6372 03c4 0100     		.2byte	0x1
 6373 03c6 55       		.byte	0x55
 6374 03c7 9E010000 		.4byte	.LVL111
 6375 03cb A6010000 		.4byte	.LVL112
 6376 03cf 0100     		.2byte	0x1
 6377 03d1 50       		.byte	0x50
 6378 03d2 A6010000 		.4byte	.LVL112
 6379 03d6 1C020000 		.4byte	.LVL130
 6380 03da 0100     		.2byte	0x1
 6381 03dc 55       		.byte	0x55
 6382 03dd 00000000 		.4byte	0
 6383 03e1 00000000 		.4byte	0
 6384              	.LLST19:
 6385 03e5 00000000 		.4byte	.LVL131
 6386 03e9 0E000000 		.4byte	.LVL132
 6387 03ed 0100     		.2byte	0x1
 6388 03ef 50       		.byte	0x50
 6389 03f0 0E000000 		.4byte	.LVL132
 6390 03f4 36000000 		.4byte	.LVL138
 6391 03f8 0400     		.2byte	0x4
 6392 03fa F3       		.byte	0xf3
 6393 03fb 01       		.uleb128 0x1
 6394 03fc 50       		.byte	0x50
 6395 03fd 9F       		.byte	0x9f
 6396 03fe 36000000 		.4byte	.LVL138
 6397 0402 3C000000 		.4byte	.LVL139
ARM GAS  C:\Users\Misha\AppData\Local\Temp\ccbcIC6d.s 			page 131


 6398 0406 0100     		.2byte	0x1
 6399 0408 50       		.byte	0x50
 6400 0409 3C000000 		.4byte	.LVL139
 6401 040d 64000000 		.4byte	.LVL145
 6402 0411 0400     		.2byte	0x4
 6403 0413 F3       		.byte	0xf3
 6404 0414 01       		.uleb128 0x1
 6405 0415 50       		.byte	0x50
 6406 0416 9F       		.byte	0x9f
 6407 0417 64000000 		.4byte	.LVL145
 6408 041b 64000000 		.4byte	.LVL146
 6409 041f 0100     		.2byte	0x1
 6410 0421 50       		.byte	0x50
 6411 0422 64000000 		.4byte	.LVL146
 6412 0426 66000000 		.4byte	.LVL147
 6413 042a 0400     		.2byte	0x4
 6414 042c F3       		.byte	0xf3
 6415 042d 01       		.uleb128 0x1
 6416 042e 50       		.byte	0x50
 6417 042f 9F       		.byte	0x9f
 6418 0430 66000000 		.4byte	.LVL147
 6419 0434 68000000 		.4byte	.LVL148
 6420 0438 0100     		.2byte	0x1
 6421 043a 50       		.byte	0x50
 6422 043b 68000000 		.4byte	.LVL148
 6423 043f 84000000 		.4byte	.LFE70
 6424 0443 0400     		.2byte	0x4
 6425 0445 F3       		.byte	0xf3
 6426 0446 01       		.uleb128 0x1
 6427 0447 50       		.byte	0x50
 6428 0448 9F       		.byte	0x9f
 6429 0449 00000000 		.4byte	0
 6430 044d 00000000 		.4byte	0
 6431              	.LLST20:
 6432 0451 1C000000 		.4byte	.LVL135
 6433 0455 2B000000 		.4byte	.LVL136-1
 6434 0459 0100     		.2byte	0x1
 6435 045b 52       		.byte	0x52
 6436 045c 4A000000 		.4byte	.LVL142
 6437 0460 59000000 		.4byte	.LVL143-1
 6438 0464 0100     		.2byte	0x1
 6439 0466 52       		.byte	0x52
 6440 0467 6A000000 		.4byte	.LVL149
 6441 046b 84000000 		.4byte	.LFE70
 6442 046f 0100     		.2byte	0x1
 6443 0471 52       		.byte	0x52
 6444 0472 00000000 		.4byte	0
 6445 0476 00000000 		.4byte	0
 6446              	.LLST21:
 6447 047a 00000000 		.4byte	.LVL150
 6448 047e 16000000 		.4byte	.LVL152
 6449 0482 0100     		.2byte	0x1
 6450 0484 50       		.byte	0x50
 6451 0485 16000000 		.4byte	.LVL152
 6452 0489 D6020000 		.4byte	.LVL243
 6453 048d 0100     		.2byte	0x1
 6454 048f 5B       		.byte	0x5b
ARM GAS  C:\Users\Misha\AppData\Local\Temp\ccbcIC6d.s 			page 132


 6455 0490 D6020000 		.4byte	.LVL243
 6456 0494 10030000 		.4byte	.LFE67
 6457 0498 0400     		.2byte	0x4
 6458 049a F3       		.byte	0xf3
 6459 049b 01       		.uleb128 0x1
 6460 049c 50       		.byte	0x50
 6461 049d 9F       		.byte	0x9f
 6462 049e 00000000 		.4byte	0
 6463 04a2 00000000 		.4byte	0
 6464              	.LLST22:
 6465 04a6 00000000 		.4byte	.LVL150
 6466 04aa 19000000 		.4byte	.LVL153-1
 6467 04ae 0100     		.2byte	0x1
 6468 04b0 51       		.byte	0x51
 6469 04b1 19000000 		.4byte	.LVL153-1
 6470 04b5 D6020000 		.4byte	.LVL243
 6471 04b9 0200     		.2byte	0x2
 6472 04bb 91       		.byte	0x91
 6473 04bc 54       		.sleb128 -44
 6474 04bd D6020000 		.4byte	.LVL243
 6475 04c1 10030000 		.4byte	.LFE67
 6476 04c5 0200     		.2byte	0x2
 6477 04c7 7D       		.byte	0x7d
 6478 04c8 54       		.sleb128 -44
 6479 04c9 00000000 		.4byte	0
 6480 04cd 00000000 		.4byte	0
 6481              	.LLST23:
 6482 04d1 00000000 		.4byte	.LVL150
 6483 04d5 19000000 		.4byte	.LVL153-1
 6484 04d9 0100     		.2byte	0x1
 6485 04db 52       		.byte	0x52
 6486 04dc 19000000 		.4byte	.LVL153-1
 6487 04e0 D6020000 		.4byte	.LVL243
 6488 04e4 0200     		.2byte	0x2
 6489 04e6 91       		.byte	0x91
 6490 04e7 4C       		.sleb128 -52
 6491 04e8 D6020000 		.4byte	.LVL243
 6492 04ec 10030000 		.4byte	.LFE67
 6493 04f0 0200     		.2byte	0x2
 6494 04f2 7D       		.byte	0x7d
 6495 04f3 4C       		.sleb128 -52
 6496 04f4 00000000 		.4byte	0
 6497 04f8 00000000 		.4byte	0
 6498              	.LLST24:
 6499 04fc 00000000 		.4byte	.LVL150
 6500 0500 19000000 		.4byte	.LVL153-1
 6501 0504 0100     		.2byte	0x1
 6502 0506 53       		.byte	0x53
 6503 0507 19000000 		.4byte	.LVL153-1
 6504 050b 92020000 		.4byte	.LVL233
 6505 050f 0100     		.2byte	0x1
 6506 0511 54       		.byte	0x54
 6507 0512 92020000 		.4byte	.LVL233
 6508 0516 10030000 		.4byte	.LFE67
 6509 051a 0400     		.2byte	0x4
 6510 051c F3       		.byte	0xf3
 6511 051d 01       		.uleb128 0x1
ARM GAS  C:\Users\Misha\AppData\Local\Temp\ccbcIC6d.s 			page 133


 6512 051e 53       		.byte	0x53
 6513 051f 9F       		.byte	0x9f
 6514 0520 00000000 		.4byte	0
 6515 0524 00000000 		.4byte	0
 6516              	.LLST25:
 6517 0528 00000000 		.4byte	.LVL150
 6518 052c D6020000 		.4byte	.LVL243
 6519 0530 0200     		.2byte	0x2
 6520 0532 91       		.byte	0x91
 6521 0533 00       		.sleb128 0
 6522 0534 D6020000 		.4byte	.LVL243
 6523 0538 10030000 		.4byte	.LFE67
 6524 053c 0200     		.2byte	0x2
 6525 053e 7D       		.byte	0x7d
 6526 053f 00       		.sleb128 0
 6527 0540 00000000 		.4byte	0
 6528 0544 00000000 		.4byte	0
 6529              	.LLST26:
 6530 0548 00000000 		.4byte	.LVL150
 6531 054c D6020000 		.4byte	.LVL243
 6532 0550 0200     		.2byte	0x2
 6533 0552 91       		.byte	0x91
 6534 0553 04       		.sleb128 4
 6535 0554 D6020000 		.4byte	.LVL243
 6536 0558 10030000 		.4byte	.LFE67
 6537 055c 0200     		.2byte	0x2
 6538 055e 7D       		.byte	0x7d
 6539 055f 04       		.sleb128 4
 6540 0560 00000000 		.4byte	0
 6541 0564 00000000 		.4byte	0
 6542              	.LLST27:
 6543 0568 A2000000 		.4byte	.LVL169
 6544 056c A5000000 		.4byte	.LVL170-1
 6545 0570 0100     		.2byte	0x1
 6546 0572 50       		.byte	0x50
 6547 0573 A5000000 		.4byte	.LVL170-1
 6548 0577 AC000000 		.4byte	.LVL171
 6549 057b 0100     		.2byte	0x1
 6550 057d 57       		.byte	0x57
 6551 057e AC000000 		.4byte	.LVL171
 6552 0582 80010000 		.4byte	.LVL199
 6553 0586 0200     		.2byte	0x2
 6554 0588 91       		.byte	0x91
 6555 0589 48       		.sleb128 -56
 6556 058a BC010000 		.4byte	.LVL204
 6557 058e BF010000 		.4byte	.LVL205-1
 6558 0592 0100     		.2byte	0x1
 6559 0594 50       		.byte	0x50
 6560 0595 BF010000 		.4byte	.LVL205-1
 6561 0599 C6010000 		.4byte	.LVL206
 6562 059d 0100     		.2byte	0x1
 6563 059f 57       		.byte	0x57
 6564 05a0 C6010000 		.4byte	.LVL206
 6565 05a4 58020000 		.4byte	.LVL226
 6566 05a8 0200     		.2byte	0x2
 6567 05aa 91       		.byte	0x91
 6568 05ab 48       		.sleb128 -56
ARM GAS  C:\Users\Misha\AppData\Local\Temp\ccbcIC6d.s 			page 134


 6569 05ac 00000000 		.4byte	0
 6570 05b0 00000000 		.4byte	0
 6571              	.LLST28:
 6572 05b4 A6000000 		.4byte	.LVL170
 6573 05b8 B2000000 		.4byte	.LVL172
 6574 05bc 0100     		.2byte	0x1
 6575 05be 50       		.byte	0x50
 6576 05bf C0010000 		.4byte	.LVL205
 6577 05c3 CC010000 		.4byte	.LVL207
 6578 05c7 0100     		.2byte	0x1
 6579 05c9 50       		.byte	0x50
 6580 05ca 00000000 		.4byte	0
 6581 05ce 00000000 		.4byte	0
 6582              	.LLST29:
 6583 05d2 10000000 		.4byte	.LVL151
 6584 05d6 9A000000 		.4byte	.LVL167
 6585 05da 0100     		.2byte	0x1
 6586 05dc 56       		.byte	0x56
 6587 05dd 9A000000 		.4byte	.LVL167
 6588 05e1 80010000 		.4byte	.LVL199
 6589 05e5 0100     		.2byte	0x1
 6590 05e7 59       		.byte	0x59
 6591 05e8 80010000 		.4byte	.LVL199
 6592 05ec 90010000 		.4byte	.LVL200
 6593 05f0 0100     		.2byte	0x1
 6594 05f2 56       		.byte	0x56
 6595 05f3 90010000 		.4byte	.LVL200
 6596 05f7 D6020000 		.4byte	.LVL243
 6597 05fb 0100     		.2byte	0x1
 6598 05fd 59       		.byte	0x59
 6599 05fe 00000000 		.4byte	0
 6600 0602 00000000 		.4byte	0
 6601              	.LLST30:
 6602 0606 10000000 		.4byte	.LVL151
 6603 060a 9A000000 		.4byte	.LVL167
 6604 060e 0100     		.2byte	0x1
 6605 0610 56       		.byte	0x56
 6606 0611 9A000000 		.4byte	.LVL167
 6607 0615 80010000 		.4byte	.LVL199
 6608 0619 0100     		.2byte	0x1
 6609 061b 5A       		.byte	0x5a
 6610 061c 80010000 		.4byte	.LVL199
 6611 0620 90010000 		.4byte	.LVL200
 6612 0624 0100     		.2byte	0x1
 6613 0626 56       		.byte	0x56
 6614 0627 90010000 		.4byte	.LVL200
 6615 062b D6020000 		.4byte	.LVL243
 6616 062f 0100     		.2byte	0x1
 6617 0631 5A       		.byte	0x5a
 6618 0632 00000000 		.4byte	0
 6619 0636 00000000 		.4byte	0
 6620              	.LLST31:
 6621 063a 10000000 		.4byte	.LVL151
 6622 063e 9A000000 		.4byte	.LVL167
 6623 0642 0200     		.2byte	0x2
 6624 0644 30       		.byte	0x30
 6625 0645 9F       		.byte	0x9f
ARM GAS  C:\Users\Misha\AppData\Local\Temp\ccbcIC6d.s 			page 135


 6626 0646 9A000000 		.4byte	.LVL167
 6627 064a F4000000 		.4byte	.LVL181
 6628 064e 0200     		.2byte	0x2
 6629 0650 91       		.byte	0x91
 6630 0651 50       		.sleb128 -48
 6631 0652 F4000000 		.4byte	.LVL181
 6632 0656 FA000000 		.4byte	.LVL182
 6633 065a 0200     		.2byte	0x2
 6634 065c 30       		.byte	0x30
 6635 065d 9F       		.byte	0x9f
 6636 065e FA000000 		.4byte	.LVL182
 6637 0662 14010000 		.4byte	.LVL185
 6638 0666 0200     		.2byte	0x2
 6639 0668 91       		.byte	0x91
 6640 0669 50       		.sleb128 -48
 6641 066a 14010000 		.4byte	.LVL185
 6642 066e 1A010000 		.4byte	.LVL186
 6643 0672 0200     		.2byte	0x2
 6644 0674 31       		.byte	0x31
 6645 0675 9F       		.byte	0x9f
 6646 0676 1A010000 		.4byte	.LVL186
 6647 067a 80010000 		.4byte	.LVL199
 6648 067e 0200     		.2byte	0x2
 6649 0680 91       		.byte	0x91
 6650 0681 50       		.sleb128 -48
 6651 0682 80010000 		.4byte	.LVL199
 6652 0686 90010000 		.4byte	.LVL200
 6653 068a 0200     		.2byte	0x2
 6654 068c 30       		.byte	0x30
 6655 068d 9F       		.byte	0x9f
 6656 068e 90010000 		.4byte	.LVL200
 6657 0692 AA010000 		.4byte	.LVL201
 6658 0696 0200     		.2byte	0x2
 6659 0698 91       		.byte	0x91
 6660 0699 50       		.sleb128 -48
 6661 069a 00000000 		.4byte	0
 6662 069e 00000000 		.4byte	0
 6663              	.LLST32:
 6664 06a2 3C000000 		.4byte	.LVL157
 6665 06a6 76020000 		.4byte	.LVL229
 6666 06aa 0100     		.2byte	0x1
 6667 06ac 55       		.byte	0x55
 6668 06ad 00000000 		.4byte	0
 6669 06b1 00000000 		.4byte	0
 6670              	.LLST33:
 6671 06b5 10000000 		.4byte	.LVL151
 6672 06b9 9A000000 		.4byte	.LVL167
 6673 06bd 0400     		.2byte	0x4
 6674 06bf 0B       		.byte	0xb
 6675 06c0 C7FA     		.2byte	0xfac7
 6676 06c2 9F       		.byte	0x9f
 6677 06c3 9A000000 		.4byte	.LVL167
 6678 06c7 7A010000 		.4byte	.LVL198
 6679 06cb 0300     		.2byte	0x3
 6680 06cd 91       		.byte	0x91
 6681 06ce BC7F     		.sleb128 -68
 6682 06d0 7A010000 		.4byte	.LVL198
ARM GAS  C:\Users\Misha\AppData\Local\Temp\ccbcIC6d.s 			page 136


 6683 06d4 80010000 		.4byte	.LVL199
 6684 06d8 0200     		.2byte	0x2
 6685 06da 91       		.byte	0x91
 6686 06db 48       		.sleb128 -56
 6687 06dc 80010000 		.4byte	.LVL199
 6688 06e0 90010000 		.4byte	.LVL200
 6689 06e4 0400     		.2byte	0x4
 6690 06e6 0B       		.byte	0xb
 6691 06e7 C7FA     		.2byte	0xfac7
 6692 06e9 9F       		.byte	0x9f
 6693 06ea 90010000 		.4byte	.LVL200
 6694 06ee 54020000 		.4byte	.LVL225
 6695 06f2 0300     		.2byte	0x3
 6696 06f4 91       		.byte	0x91
 6697 06f5 BC7F     		.sleb128 -68
 6698 06f7 54020000 		.4byte	.LVL225
 6699 06fb 58020000 		.4byte	.LVL226
 6700 06ff 0200     		.2byte	0x2
 6701 0701 91       		.byte	0x91
 6702 0702 48       		.sleb128 -56
 6703 0703 58020000 		.4byte	.LVL226
 6704 0707 D6020000 		.4byte	.LVL243
 6705 070b 0300     		.2byte	0x3
 6706 070d 91       		.byte	0x91
 6707 070e BC7F     		.sleb128 -68
 6708 0710 D6020000 		.4byte	.LVL243
 6709 0714 10030000 		.4byte	.LFE67
 6710 0718 0300     		.2byte	0x3
 6711 071a 7D       		.byte	0x7d
 6712 071b BC7F     		.sleb128 -68
 6713 071d 00000000 		.4byte	0
 6714 0721 00000000 		.4byte	0
 6715              	.LLST34:
 6716 0725 10000000 		.4byte	.LVL151
 6717 0729 9A000000 		.4byte	.LVL167
 6718 072d 0200     		.2byte	0x2
 6719 072f 30       		.byte	0x30
 6720 0730 9F       		.byte	0x9f
 6721 0731 9A000000 		.4byte	.LVL167
 6722 0735 7A010000 		.4byte	.LVL198
 6723 0739 0100     		.2byte	0x1
 6724 073b 58       		.byte	0x58
 6725 073c 7A010000 		.4byte	.LVL198
 6726 0740 80010000 		.4byte	.LVL199
 6727 0744 0100     		.2byte	0x1
 6728 0746 50       		.byte	0x50
 6729 0747 80010000 		.4byte	.LVL199
 6730 074b 90010000 		.4byte	.LVL200
 6731 074f 0200     		.2byte	0x2
 6732 0751 30       		.byte	0x30
 6733 0752 9F       		.byte	0x9f
 6734 0753 90010000 		.4byte	.LVL200
 6735 0757 AA010000 		.4byte	.LVL201
 6736 075b 0100     		.2byte	0x1
 6737 075d 58       		.byte	0x58
 6738 075e AA010000 		.4byte	.LVL201
 6739 0762 B4010000 		.4byte	.LVL202
ARM GAS  C:\Users\Misha\AppData\Local\Temp\ccbcIC6d.s 			page 137


 6740 0766 0100     		.2byte	0x1
 6741 0768 57       		.byte	0x57
 6742 0769 B4010000 		.4byte	.LVL202
 6743 076d 54020000 		.4byte	.LVL225
 6744 0771 0100     		.2byte	0x1
 6745 0773 58       		.byte	0x58
 6746 0774 54020000 		.4byte	.LVL225
 6747 0778 58020000 		.4byte	.LVL226
 6748 077c 0100     		.2byte	0x1
 6749 077e 50       		.byte	0x50
 6750 077f 58020000 		.4byte	.LVL226
 6751 0783 6A020000 		.4byte	.LVL227
 6752 0787 0100     		.2byte	0x1
 6753 0789 58       		.byte	0x58
 6754 078a 00000000 		.4byte	0
 6755 078e 00000000 		.4byte	0
 6756              	.LLST35:
 6757 0792 3C010000 		.4byte	.LVL191
 6758 0796 80010000 		.4byte	.LVL199
 6759 079a 0200     		.2byte	0x2
 6760 079c 31       		.byte	0x31
 6761 079d 9F       		.byte	0x9f
 6762 079e 00000000 		.4byte	0
 6763 07a2 00000000 		.4byte	0
 6764              	.LLST36:
 6765 07a6 16020000 		.4byte	.LVL218
 6766 07aa 58020000 		.4byte	.LVL226
 6767 07ae 0200     		.2byte	0x2
 6768 07b0 31       		.byte	0x31
 6769 07b1 9F       		.byte	0x9f
 6770 07b2 00000000 		.4byte	0
 6771 07b6 00000000 		.4byte	0
 6772              	.LLST37:
 6773 07ba 00000000 		.4byte	.LVL244
 6774 07be 0B000000 		.4byte	.LVL246-1
 6775 07c2 0100     		.2byte	0x1
 6776 07c4 50       		.byte	0x50
 6777 07c5 0B000000 		.4byte	.LVL246-1
 6778 07c9 1E000000 		.4byte	.LVL247
 6779 07cd 0100     		.2byte	0x1
 6780 07cf 54       		.byte	0x54
 6781 07d0 1E000000 		.4byte	.LVL247
 6782 07d4 E8010000 		.4byte	.LFE72
 6783 07d8 0400     		.2byte	0x4
 6784 07da F3       		.byte	0xf3
 6785 07db 01       		.uleb128 0x1
 6786 07dc 50       		.byte	0x50
 6787 07dd 9F       		.byte	0x9f
 6788 07de 00000000 		.4byte	0
 6789 07e2 00000000 		.4byte	0
 6790              	.LLST38:
 6791 07e6 20000000 		.4byte	.LVL248
 6792 07ea CA010000 		.4byte	.LVL298
 6793 07ee 0100     		.2byte	0x1
 6794 07f0 55       		.byte	0x55
 6795 07f1 00000000 		.4byte	0
 6796 07f5 00000000 		.4byte	0
ARM GAS  C:\Users\Misha\AppData\Local\Temp\ccbcIC6d.s 			page 138


 6797              	.LLST39:
 6798 07f9 20000000 		.4byte	.LVL248
 6799 07fd CA010000 		.4byte	.LVL298
 6800 0801 0100     		.2byte	0x1
 6801 0803 56       		.byte	0x56
 6802 0804 00000000 		.4byte	0
 6803 0808 00000000 		.4byte	0
 6804              	.LLST40:
 6805 080c 08000000 		.4byte	.LVL245
 6806 0810 20000000 		.4byte	.LVL248
 6807 0814 0400     		.2byte	0x4
 6808 0816 0A       		.byte	0xa
 6809 0817 2C01     		.2byte	0x12c
 6810 0819 9F       		.byte	0x9f
 6811 081a 20000000 		.4byte	.LVL248
 6812 081e 2E000000 		.4byte	.LVL251
 6813 0822 0100     		.2byte	0x1
 6814 0824 54       		.byte	0x54
 6815 0825 6E000000 		.4byte	.LVL258
 6816 0829 D2000000 		.4byte	.LVL272
 6817 082d 0100     		.2byte	0x1
 6818 082f 54       		.byte	0x54
 6819 0830 D8000000 		.4byte	.LVL273
 6820 0834 22010000 		.4byte	.LVL280
 6821 0838 0100     		.2byte	0x1
 6822 083a 54       		.byte	0x54
 6823 083b 24010000 		.4byte	.LVL281
 6824 083f CA010000 		.4byte	.LVL298
 6825 0843 0100     		.2byte	0x1
 6826 0845 54       		.byte	0x54
 6827 0846 00000000 		.4byte	0
 6828 084a 00000000 		.4byte	0
 6829              	.LLST41:
 6830 084e 00000000 		.4byte	.LVL299
 6831 0852 11000000 		.4byte	.LVL301-1
 6832 0856 0100     		.2byte	0x1
 6833 0858 50       		.byte	0x50
 6834 0859 11000000 		.4byte	.LVL301-1
 6835 085d 32000000 		.4byte	.LVL305
 6836 0861 0100     		.2byte	0x1
 6837 0863 55       		.byte	0x55
 6838 0864 32000000 		.4byte	.LVL305
 6839 0868 3C000000 		.4byte	.LFE71
 6840 086c 0400     		.2byte	0x4
 6841 086e F3       		.byte	0xf3
 6842 086f 01       		.uleb128 0x1
 6843 0870 50       		.byte	0x50
 6844 0871 9F       		.byte	0x9f
 6845 0872 00000000 		.4byte	0
 6846 0876 00000000 		.4byte	0
 6847              	.LLST42:
 6848 087a 00000000 		.4byte	.LVL299
 6849 087e 11000000 		.4byte	.LVL301-1
 6850 0882 0100     		.2byte	0x1
 6851 0884 51       		.byte	0x51
 6852 0885 11000000 		.4byte	.LVL301-1
 6853 0889 28000000 		.4byte	.LVL303
ARM GAS  C:\Users\Misha\AppData\Local\Temp\ccbcIC6d.s 			page 139


 6854 088d 0100     		.2byte	0x1
 6855 088f 54       		.byte	0x54
 6856 0890 28000000 		.4byte	.LVL303
 6857 0894 2C000000 		.4byte	.LVL304
 6858 0898 0300     		.2byte	0x3
 6859 089a 74       		.byte	0x74
 6860 089b 0A       		.sleb128 10
 6861 089c 9F       		.byte	0x9f
 6862 089d 2C000000 		.4byte	.LVL304
 6863 08a1 31000000 		.4byte	.LVL305-1
 6864 08a5 0300     		.2byte	0x3
 6865 08a7 72       		.byte	0x72
 6866 08a8 76       		.sleb128 -10
 6867 08a9 9F       		.byte	0x9f
 6868 08aa 31000000 		.4byte	.LVL305-1
 6869 08ae 3C000000 		.4byte	.LFE71
 6870 08b2 0400     		.2byte	0x4
 6871 08b4 F3       		.byte	0xf3
 6872 08b5 01       		.uleb128 0x1
 6873 08b6 51       		.byte	0x51
 6874 08b7 9F       		.byte	0x9f
 6875 08b8 00000000 		.4byte	0
 6876 08bc 00000000 		.4byte	0
 6877              	.LLST43:
 6878 08c0 00000000 		.4byte	.LVL306
 6879 08c4 12000000 		.4byte	.LVL309
 6880 08c8 0100     		.2byte	0x1
 6881 08ca 50       		.byte	0x50
 6882 08cb 12000000 		.4byte	.LVL309
 6883 08cf 10010000 		.4byte	.LFE73
 6884 08d3 0400     		.2byte	0x4
 6885 08d5 F3       		.byte	0xf3
 6886 08d6 01       		.uleb128 0x1
 6887 08d7 50       		.byte	0x50
 6888 08d8 9F       		.byte	0x9f
 6889 08d9 00000000 		.4byte	0
 6890 08dd 00000000 		.4byte	0
 6891              	.LLST44:
 6892 08e1 10000000 		.4byte	.LVL308
 6893 08e5 00010000 		.4byte	.LVL340
 6894 08e9 0100     		.2byte	0x1
 6895 08eb 56       		.byte	0x56
 6896 08ec 00000000 		.4byte	0
 6897 08f0 00000000 		.4byte	0
 6898              	.LLST45:
 6899 08f4 10000000 		.4byte	.LVL308
 6900 08f8 00010000 		.4byte	.LVL340
 6901 08fc 0100     		.2byte	0x1
 6902 08fe 55       		.byte	0x55
 6903 08ff 00000000 		.4byte	0
 6904 0903 00000000 		.4byte	0
 6905              	.LLST46:
 6906 0907 02000000 		.4byte	.LVL307
 6907 090b 28000000 		.4byte	.LVL312
 6908 090f 0400     		.2byte	0x4
 6909 0911 0A       		.byte	0xa
 6910 0912 2C01     		.2byte	0x12c
ARM GAS  C:\Users\Misha\AppData\Local\Temp\ccbcIC6d.s 			page 140


 6911 0914 9F       		.byte	0x9f
 6912 0915 28000000 		.4byte	.LVL312
 6913 0919 72000000 		.4byte	.LVL323
 6914 091d 0100     		.2byte	0x1
 6915 091f 54       		.byte	0x54
 6916 0920 74000000 		.4byte	.LVL324
 6917 0924 AE000000 		.4byte	.LVL330
 6918 0928 0100     		.2byte	0x1
 6919 092a 54       		.byte	0x54
 6920 092b D2000000 		.4byte	.LVL335
 6921 092f 00010000 		.4byte	.LVL340
 6922 0933 0100     		.2byte	0x1
 6923 0935 54       		.byte	0x54
 6924 0936 00000000 		.4byte	0
 6925 093a 00000000 		.4byte	0
 6926              	.LLST47:
 6927 093e 26000000 		.4byte	.LVL348
 6928 0942 5A000000 		.4byte	.LVL357
 6929 0946 0100     		.2byte	0x1
 6930 0948 54       		.byte	0x54
 6931 0949 60000000 		.4byte	.LVL358
 6932 094d 70000000 		.4byte	.LFE74
 6933 0951 0100     		.2byte	0x1
 6934 0953 54       		.byte	0x54
 6935 0954 00000000 		.4byte	0
 6936 0958 00000000 		.4byte	0
 6937              	.LLST48:
 6938 095c 02000000 		.4byte	.LVL341
 6939 0960 2C000000 		.4byte	.LVL349
 6940 0964 0200     		.2byte	0x2
 6941 0966 30       		.byte	0x30
 6942 0967 9F       		.byte	0x9f
 6943 0968 2C000000 		.4byte	.LVL349
 6944 096c 4E000000 		.4byte	.LVL355
 6945 0970 0100     		.2byte	0x1
 6946 0972 55       		.byte	0x55
 6947 0973 4E000000 		.4byte	.LVL355
 6948 0977 60000000 		.4byte	.LVL358
 6949 097b 0100     		.2byte	0x1
 6950 097d 54       		.byte	0x54
 6951 097e 60000000 		.4byte	.LVL358
 6952 0982 70000000 		.4byte	.LFE74
 6953 0986 0100     		.2byte	0x1
 6954 0988 55       		.byte	0x55
 6955 0989 00000000 		.4byte	0
 6956 098d 00000000 		.4byte	0
 6957              	.LLST49:
 6958 0991 02000000 		.4byte	.LVL341
 6959 0995 2C000000 		.4byte	.LVL349
 6960 0999 0200     		.2byte	0x2
 6961 099b 32       		.byte	0x32
 6962 099c 9F       		.byte	0x9f
 6963 099d 2C000000 		.4byte	.LVL349
 6964 09a1 6A000000 		.4byte	.LVL359
 6965 09a5 0100     		.2byte	0x1
 6966 09a7 56       		.byte	0x56
 6967 09a8 00000000 		.4byte	0
ARM GAS  C:\Users\Misha\AppData\Local\Temp\ccbcIC6d.s 			page 141


 6968 09ac 00000000 		.4byte	0
 6969              	.LLST50:
 6970 09b0 26000000 		.4byte	.LVL348
 6971 09b4 2C000000 		.4byte	.LVL349
 6972 09b8 0100     		.2byte	0x1
 6973 09ba 54       		.byte	0x54
 6974 09bb 00000000 		.4byte	0
 6975 09bf 00000000 		.4byte	0
 6976              	.LLST51:
 6977 09c3 00000000 		.4byte	.LVL373
 6978 09c7 1D000000 		.4byte	.LVL377-1
 6979 09cb 0100     		.2byte	0x1
 6980 09cd 50       		.byte	0x50
 6981 09ce 1D000000 		.4byte	.LVL377-1
 6982 09d2 34000000 		.4byte	.LFE77
 6983 09d6 0100     		.2byte	0x1
 6984 09d8 58       		.byte	0x58
 6985 09d9 00000000 		.4byte	0
 6986 09dd 00000000 		.4byte	0
 6987              	.LLST52:
 6988 09e1 00000000 		.4byte	.LVL373
 6989 09e5 1A000000 		.4byte	.LVL376
 6990 09e9 0100     		.2byte	0x1
 6991 09eb 51       		.byte	0x51
 6992 09ec 1A000000 		.4byte	.LVL376
 6993 09f0 1D000000 		.4byte	.LVL377-1
 6994 09f4 0100     		.2byte	0x1
 6995 09f6 52       		.byte	0x52
 6996 09f7 1D000000 		.4byte	.LVL377-1
 6997 09fb 34000000 		.4byte	.LFE77
 6998 09ff 0100     		.2byte	0x1
 6999 0a01 54       		.byte	0x54
 7000 0a02 00000000 		.4byte	0
 7001 0a06 00000000 		.4byte	0
 7002              	.LLST53:
 7003 0a0a 00000000 		.4byte	.LVL373
 7004 0a0e 18000000 		.4byte	.LVL375
 7005 0a12 0100     		.2byte	0x1
 7006 0a14 52       		.byte	0x52
 7007 0a15 18000000 		.4byte	.LVL375
 7008 0a19 1D000000 		.4byte	.LVL377-1
 7009 0a1d 0100     		.2byte	0x1
 7010 0a1f 53       		.byte	0x53
 7011 0a20 1D000000 		.4byte	.LVL377-1
 7012 0a24 34000000 		.4byte	.LFE77
 7013 0a28 0100     		.2byte	0x1
 7014 0a2a 55       		.byte	0x55
 7015 0a2b 00000000 		.4byte	0
 7016 0a2f 00000000 		.4byte	0
 7017              	.LLST54:
 7018 0a33 00000000 		.4byte	.LVL373
 7019 0a37 16000000 		.4byte	.LVL374
 7020 0a3b 0100     		.2byte	0x1
 7021 0a3d 53       		.byte	0x53
 7022 0a3e 16000000 		.4byte	.LVL374
 7023 0a42 34000000 		.4byte	.LFE77
 7024 0a46 0100     		.2byte	0x1
ARM GAS  C:\Users\Misha\AppData\Local\Temp\ccbcIC6d.s 			page 142


 7025 0a48 56       		.byte	0x56
 7026 0a49 00000000 		.4byte	0
 7027 0a4d 00000000 		.4byte	0
 7028              		.section	.debug_aranges,"",%progbits
 7029 0000 84000000 		.4byte	0x84
 7030 0004 0200     		.2byte	0x2
 7031 0006 00000000 		.4byte	.Ldebug_info0
 7032 000a 04       		.byte	0x4
 7033 000b 00       		.byte	0
 7034 000c 0000     		.2byte	0
 7035 000e 0000     		.2byte	0
 7036 0010 00000000 		.4byte	.LFB64
 7037 0014 48000000 		.4byte	.LFE64-.LFB64
 7038 0018 00000000 		.4byte	.LFB66
 7039 001c D0000000 		.4byte	.LFE66-.LFB66
 7040 0020 00000000 		.4byte	.LFB65
 7041 0024 10000000 		.4byte	.LFE65-.LFB65
 7042 0028 00000000 		.4byte	.LFB68
 7043 002c 3C000000 		.4byte	.LFE68-.LFB68
 7044 0030 00000000 		.4byte	.LFB69
 7045 0034 38020000 		.4byte	.LFE69-.LFB69
 7046 0038 00000000 		.4byte	.LFB70
 7047 003c 84000000 		.4byte	.LFE70-.LFB70
 7048 0040 00000000 		.4byte	.LFB67
 7049 0044 10030000 		.4byte	.LFE67-.LFB67
 7050 0048 00000000 		.4byte	.LFB72
 7051 004c E8010000 		.4byte	.LFE72-.LFB72
 7052 0050 00000000 		.4byte	.LFB71
 7053 0054 3C000000 		.4byte	.LFE71-.LFB71
 7054 0058 00000000 		.4byte	.LFB73
 7055 005c 10010000 		.4byte	.LFE73-.LFB73
 7056 0060 00000000 		.4byte	.LFB74
 7057 0064 70000000 		.4byte	.LFE74-.LFB74
 7058 0068 00000000 		.4byte	.LFB75
 7059 006c 64000000 		.4byte	.LFE75-.LFB75
 7060 0070 00000000 		.4byte	.LFB76
 7061 0074 02000000 		.4byte	.LFE76-.LFB76
 7062 0078 00000000 		.4byte	.LFB77
 7063 007c 34000000 		.4byte	.LFE77-.LFB77
 7064 0080 00000000 		.4byte	0
 7065 0084 00000000 		.4byte	0
 7066              		.section	.debug_ranges,"",%progbits
 7067              	.Ldebug_ranges0:
 7068 0000 00000000 		.4byte	.LFB64
 7069 0004 48000000 		.4byte	.LFE64
 7070 0008 00000000 		.4byte	.LFB66
 7071 000c D0000000 		.4byte	.LFE66
 7072 0010 00000000 		.4byte	.LFB65
 7073 0014 10000000 		.4byte	.LFE65
 7074 0018 00000000 		.4byte	.LFB68
 7075 001c 3C000000 		.4byte	.LFE68
 7076 0020 00000000 		.4byte	.LFB69
 7077 0024 38020000 		.4byte	.LFE69
 7078 0028 00000000 		.4byte	.LFB70
 7079 002c 84000000 		.4byte	.LFE70
 7080 0030 00000000 		.4byte	.LFB67
 7081 0034 10030000 		.4byte	.LFE67
ARM GAS  C:\Users\Misha\AppData\Local\Temp\ccbcIC6d.s 			page 143


 7082 0038 00000000 		.4byte	.LFB72
 7083 003c E8010000 		.4byte	.LFE72
 7084 0040 00000000 		.4byte	.LFB71
 7085 0044 3C000000 		.4byte	.LFE71
 7086 0048 00000000 		.4byte	.LFB73
 7087 004c 10010000 		.4byte	.LFE73
 7088 0050 00000000 		.4byte	.LFB74
 7089 0054 70000000 		.4byte	.LFE74
 7090 0058 00000000 		.4byte	.LFB75
 7091 005c 64000000 		.4byte	.LFE75
 7092 0060 00000000 		.4byte	.LFB76
 7093 0064 02000000 		.4byte	.LFE76
 7094 0068 00000000 		.4byte	.LFB77
 7095 006c 34000000 		.4byte	.LFE77
 7096 0070 00000000 		.4byte	0
 7097 0074 00000000 		.4byte	0
 7098              		.section	.debug_line,"",%progbits
 7099              	.Ldebug_line0:
 7100 0000 D4050000 		.section	.debug_str,"MS",%progbits,1
 7100      0200E902 
 7100      00000201 
 7100      FB0E0D00 
 7100      01010101 
 7101              	.LASF73:
 7102 0000 6D6F7665 		.ascii	"moveForwardThenBackward\000"
 7102      466F7277 
 7102      61726454 
 7102      68656E42 
 7102      61636B77 
 7103              	.LASF45:
 7104 0018 756C7472 		.ascii	"ultrasonic_sensor\000"
 7104      61736F6E 
 7104      69635F73 
 7104      656E736F 
 7104      7200
 7105              	.LASF28:
 7106 002a 6368616E 		.ascii	"changeOrientation\000"
 7106      67654F72 
 7106      69656E74 
 7106      6174696F 
 7106      6E00
 7107              	.LASF87:
 7108 003c 696E6974 		.ascii	"initial_tolerance\000"
 7108      69616C5F 
 7108      746F6C65 
 7108      72616E63 
 7108      6500
 7109              	.LASF23:
 7110 004e 636F756E 		.ascii	"count_left\000"
 7110      745F6C65 
 7110      667400
 7111              	.LASF102:
 7112 0059 4D6F746F 		.ascii	"Motor_Right_Driver_WriteCompare\000"
 7112      725F5269 
 7112      6768745F 
 7112      44726976 
 7112      65725F57 
ARM GAS  C:\Users\Misha\AppData\Local\Temp\ccbcIC6d.s 			page 144


 7113              	.LASF57:
 7114 0079 746F6C65 		.ascii	"tolerance\000"
 7114      72616E63 
 7114      6500
 7115              	.LASF70:
 7116 0083 64697374 		.ascii	"distance_previous\000"
 7116      616E6365 
 7116      5F707265 
 7116      76696F75 
 7116      7300
 7117              	.LASF24:
 7118 0095 73706565 		.ascii	"speed_left\000"
 7118      645F6C65 
 7118      667400
 7119              	.LASF96:
 7120 00a0 636F6C6F 		.ascii	"colourSensingOutput\000"
 7120      75725365 
 7120      6E73696E 
 7120      674F7574 
 7120      70757400 
 7121              	.LASF105:
 7122 00b4 4D6F746F 		.ascii	"Motor_Right_Decoder_GetCounter\000"
 7122      725F5269 
 7122      6768745F 
 7122      4465636F 
 7122      6465725F 
 7123              	.LASF84:
 7124 00d3 676C6F62 		.ascii	"global_encoder\000"
 7124      616C5F65 
 7124      6E636F64 
 7124      657200
 7125              	.LASF31:
 7126 00e2 64656772 		.ascii	"degree_change\000"
 7126      65655F63 
 7126      68616E67 
 7126      6500
 7127              	.LASF121:
 7128 00f0 6E617669 		.ascii	"navigation.c\000"
 7128      67617469 
 7128      6F6E2E63 
 7128      00
 7129              	.LASF30:
 7130 00fd 6F726965 		.ascii	"orientation_change\000"
 7130      6E746174 
 7130      696F6E5F 
 7130      6368616E 
 7130      676500
 7131              	.LASF55:
 7132 0110 73656E73 		.ascii	"sensor_right\000"
 7132      6F725F72 
 7132      69676874 
 7132      00
 7133              	.LASF56:
 7134 011d 64696666 		.ascii	"difference\000"
 7134      6572656E 
 7134      636500
 7135              	.LASF41:
ARM GAS  C:\Users\Misha\AppData\Local\Temp\ccbcIC6d.s 			page 145


 7136 0128 64697265 		.ascii	"direction\000"
 7136      6374696F 
 7136      6E00
 7137              	.LASF14:
 7138 0132 6C6F6E67 		.ascii	"long double\000"
 7138      20646F75 
 7138      626C6500 
 7139              	.LASF26:
 7140 013e 63686563 		.ascii	"checkHoldingPuck\000"
 7140      6B486F6C 
 7140      64696E67 
 7140      5075636B 
 7140      00
 7141              	.LASF42:
 7142 014f 63686563 		.ascii	"check_distance\000"
 7142      6B5F6469 
 7142      7374616E 
 7142      636500
 7143              	.LASF85:
 7144 015e 676C6F62 		.ascii	"global_distance\000"
 7144      616C5F64 
 7144      69737461 
 7144      6E636500 
 7145              	.LASF83:
 7146 016e 73656E73 		.ascii	"sensor_distances\000"
 7146      6F725F64 
 7146      69737461 
 7146      6E636573 
 7146      00
 7147              	.LASF90:
 7148 017f 756C7472 		.ascii	"ultrasonic_flag\000"
 7148      61736F6E 
 7148      69635F66 
 7148      6C616700 
 7149              	.LASF50:
 7150 018f 656D6572 		.ascii	"emergency_exit\000"
 7150      67656E63 
 7150      795F6578 
 7150      697400
 7151              	.LASF3:
 7152 019e 73686F72 		.ascii	"short int\000"
 7152      7420696E 
 7152      7400
 7153              	.LASF116:
 7154 01a8 726F756E 		.ascii	"round\000"
 7154      6400
 7155              	.LASF110:
 7156 01ae 4D6F746F 		.ascii	"Motor_Left_Decoder_SetCounter\000"
 7156      725F4C65 
 7156      66745F44 
 7156      65636F64 
 7156      65725F53 
 7157              	.LASF75:
 7158 01cc 73656E73 		.ascii	"sensor\000"
 7158      6F7200
 7159              	.LASF64:
 7160 01d3 74696D65 		.ascii	"timer\000"
ARM GAS  C:\Users\Misha\AppData\Local\Temp\ccbcIC6d.s 			page 146


 7160      7200
 7161              	.LASF65:
 7162 01d9 7472616E 		.ascii	"translate_direction\000"
 7162      736C6174 
 7162      655F6469 
 7162      72656374 
 7162      696F6E00 
 7163              	.LASF98:
 7164 01ed 4D6F746F 		.ascii	"Motor_Right_Control_Write\000"
 7164      725F5269 
 7164      6768745F 
 7164      436F6E74 
 7164      726F6C5F 
 7165              	.LASF71:
 7166 0207 6D696E69 		.ascii	"minimum_distance\000"
 7166      6D756D5F 
 7166      64697374 
 7166      616E6365 
 7166      00
 7167              	.LASF35:
 7168 0218 6D61785F 		.ascii	"max_back\000"
 7168      6261636B 
 7168      00
 7169              	.LASF16:
 7170 0221 7075636B 		.ascii	"puck_correct\000"
 7170      5F636F72 
 7170      72656374 
 7170      00
 7171              	.LASF89:
 7172 022e 7075636B 		.ascii	"puck_grid_initial\000"
 7172      5F677269 
 7172      645F696E 
 7172      69746961 
 7172      6C00
 7173              	.LASF0:
 7174 0240 666C6F61 		.ascii	"float\000"
 7174      7400
 7175              	.LASF95:
 7176 0246 6368616E 		.ascii	"changeHeightToPuck\000"
 7176      67654865 
 7176      69676874 
 7176      546F5075 
 7176      636B00
 7177              	.LASF54:
 7178 0259 73656E73 		.ascii	"sensor_left\000"
 7178      6F725F6C 
 7178      65667400 
 7179              	.LASF7:
 7180 0265 6C6F6E67 		.ascii	"long long int\000"
 7180      206C6F6E 
 7180      6720696E 
 7180      7400
 7181              	.LASF8:
 7182 0273 6C6F6E67 		.ascii	"long long unsigned int\000"
 7182      206C6F6E 
 7182      6720756E 
 7182      7369676E 
ARM GAS  C:\Users\Misha\AppData\Local\Temp\ccbcIC6d.s 			page 147


 7182      65642069 
 7183              	.LASF79:
 7184 028a 7075636B 		.ascii	"puck_rack_west_offsets\000"
 7184      5F726163 
 7184      6B5F7765 
 7184      73745F6F 
 7184      66667365 
 7185              	.LASF113:
 7186 02a1 4D6F746F 		.ascii	"Motor_Right_Driver_Sleep\000"
 7186      725F5269 
 7186      6768745F 
 7186      44726976 
 7186      65725F53 
 7187              	.LASF5:
 7188 02ba 6C6F6E67 		.ascii	"long int\000"
 7188      20696E74 
 7188      00
 7189              	.LASF77:
 7190 02c3 696E7465 		.ascii	"internal_orientation\000"
 7190      726E616C 
 7190      5F6F7269 
 7190      656E7461 
 7190      74696F6E 
 7191              	.LASF66:
 7192 02d8 73747261 		.ascii	"straightAdjustBlayke\000"
 7192      69676874 
 7192      41646A75 
 7192      7374426C 
 7192      61796B65 
 7193              	.LASF11:
 7194 02ed 696E7433 		.ascii	"int32_t\000"
 7194      325F7400 
 7195              	.LASF94:
 7196 02f5 73616665 		.ascii	"safety_override\000"
 7196      74795F6F 
 7196      76657272 
 7196      69646500 
 7197              	.LASF36:
 7198 0305 6C656674 		.ascii	"left_or_right\000"
 7198      5F6F725F 
 7198      72696768 
 7198      7400
 7199              	.LASF111:
 7200 0313 4D6F746F 		.ascii	"Motor_Right_Decoder_SetCounter\000"
 7200      725F5269 
 7200      6768745F 
 7200      4465636F 
 7200      6465725F 
 7201              	.LASF44:
 7202 0332 64697374 		.ascii	"distance_set\000"
 7202      616E6365 
 7202      5F736574 
 7202      00
 7203              	.LASF58:
 7204 033f 6D61785F 		.ascii	"max_difference\000"
 7204      64696666 
 7204      6572656E 
ARM GAS  C:\Users\Misha\AppData\Local\Temp\ccbcIC6d.s 			page 148


 7204      636500
 7205              	.LASF104:
 7206 034e 636F6E74 		.ascii	"control_photodiode_Write\000"
 7206      726F6C5F 
 7206      70686F74 
 7206      6F64696F 
 7206      64655F57 
 7207              	.LASF48:
 7208 0367 64697374 		.ascii	"distance_sensor\000"
 7208      616E6365 
 7208      5F73656E 
 7208      736F7200 
 7209              	.LASF101:
 7210 0377 4D6F746F 		.ascii	"Motor_Right_Driver_Wakeup\000"
 7210      725F5269 
 7210      6768745F 
 7210      44726976 
 7210      65725F57 
 7211              	.LASF72:
 7212 0391 746F6C65 		.ascii	"toleranceCheck\000"
 7212      72616E63 
 7212      65436865 
 7212      636B00
 7213              	.LASF112:
 7214 03a0 4D6F746F 		.ascii	"Motor_Left_Driver_Sleep\000"
 7214      725F4C65 
 7214      66745F44 
 7214      72697665 
 7214      725F536C 
 7215              	.LASF78:
 7216 03b8 7075636B 		.ascii	"puck_rack_scans\000"
 7216      5F726163 
 7216      6B5F7363 
 7216      616E7300 
 7217              	.LASF19:
 7218 03c8 6D6F7665 		.ascii	"moveUntilPuck\000"
 7218      556E7469 
 7218      6C507563 
 7218      6B00
 7219              	.LASF2:
 7220 03d6 756E7369 		.ascii	"unsigned char\000"
 7220      676E6564 
 7220      20636861 
 7220      7200
 7221              	.LASF53:
 7222 03e4 66726F6E 		.ascii	"front_back\000"
 7222      745F6261 
 7222      636B00
 7223              	.LASF108:
 7224 03ef 73707269 		.ascii	"sprintf\000"
 7224      6E746600 
 7225              	.LASF91:
 7226 03f7 7075636B 		.ascii	"puck_construction_plan\000"
 7226      5F636F6E 
 7226      73747275 
 7226      6374696F 
 7226      6E5F706C 
ARM GAS  C:\Users\Misha\AppData\Local\Temp\ccbcIC6d.s 			page 149


 7227              	.LASF18:
 7228 040e 61726D4D 		.ascii	"armMoving\000"
 7228      6F76696E 
 7228      6700
 7229              	.LASF1:
 7230 0418 7369676E 		.ascii	"signed char\000"
 7230      65642063 
 7230      68617200 
 7231              	.LASF80:
 7232 0424 626C6F63 		.ascii	"block_edge_location\000"
 7232      6B5F6564 
 7232      67655F6C 
 7232      6F636174 
 7232      696F6E00 
 7233              	.LASF40:
 7234 0438 6D617842 		.ascii	"maxBack1\000"
 7234      61636B31 
 7234      00
 7235              	.LASF9:
 7236 0441 756E7369 		.ascii	"unsigned int\000"
 7236      676E6564 
 7236      20696E74 
 7236      00
 7237              	.LASF27:
 7238 044e 636F6C6F 		.ascii	"colour_check\000"
 7238      75725F63 
 7238      6865636B 
 7238      00
 7239              	.LASF21:
 7240 045b 73706565 		.ascii	"speed\000"
 7240      6400
 7241              	.LASF37:
 7242 0461 6C657373 		.ascii	"less_or_great\000"
 7242      5F6F725F 
 7242      67726561 
 7242      7400
 7243              	.LASF119:
 7244 046f 54696D65 		.ascii	"Timer_straight_adjust_Start\000"
 7244      725F7374 
 7244      72616967 
 7244      68745F61 
 7244      646A7573 
 7245              	.LASF49:
 7246 048b 6F6C645F 		.ascii	"old_count\000"
 7246      636F756E 
 7246      7400
 7247              	.LASF103:
 7248 0495 61726D4F 		.ascii	"armOpen\000"
 7248      70656E00 
 7249              	.LASF92:
 7250 049d 63757272 		.ascii	"current_stage\000"
 7250      656E745F 
 7250      73746167 
 7250      6500
 7251              	.LASF4:
 7252 04ab 73686F72 		.ascii	"short unsigned int\000"
 7252      7420756E 
ARM GAS  C:\Users\Misha\AppData\Local\Temp\ccbcIC6d.s 			page 150


 7252      7369676E 
 7252      65642069 
 7252      6E7400
 7253              	.LASF51:
 7254 04be 6661696C 		.ascii	"failsafe_alternator\000"
 7254      73616665 
 7254      5F616C74 
 7254      65726E61 
 7254      746F7200 
 7255              	.LASF33:
 7256 04d2 7472616E 		.ascii	"translateUntil\000"
 7256      736C6174 
 7256      65556E74 
 7256      696C00
 7257              	.LASF117:
 7258 04e1 64697374 		.ascii	"distanceSensor\000"
 7258      616E6365 
 7258      53656E73 
 7258      6F7200
 7259              	.LASF13:
 7260 04f0 63686172 		.ascii	"char\000"
 7260      00
 7261              	.LASF34:
 7262 04f5 64697374 		.ascii	"distance\000"
 7262      616E6365 
 7262      00
 7263              	.LASF52:
 7264 04fe 73747261 		.ascii	"straightAdjust\000"
 7264      69676874 
 7264      41646A75 
 7264      737400
 7265              	.LASF60:
 7266 050d 6661696C 		.ascii	"failsafeSideSensors\000"
 7266      73616665 
 7266      53696465 
 7266      53656E73 
 7266      6F727300 
 7267              	.LASF59:
 7268 0521 756C7472 		.ascii	"ultra_delay\000"
 7268      615F6465 
 7268      6C617900 
 7269              	.LASF39:
 7270 052d 616E676C 		.ascii	"angle_to_turn_at\000"
 7270      655F746F 
 7270      5F747572 
 7270      6E5F6174 
 7270      00
 7271              	.LASF93:
 7272 053e 636F6C6F 		.ascii	"colour_sensing_algorithm\000"
 7272      75725F73 
 7272      656E7369 
 7272      6E675F61 
 7272      6C676F72 
 7273              	.LASF69:
 7274 0557 64697374 		.ascii	"distance_check\000"
 7274      616E6365 
 7274      5F636865 
ARM GAS  C:\Users\Misha\AppData\Local\Temp\ccbcIC6d.s 			page 151


 7274      636B00
 7275              	.LASF20:
 7276 0566 7075636B 		.ascii	"puck_detect\000"
 7276      5F646574 
 7276      65637400 
 7277              	.LASF88:
 7278 0572 7365745F 		.ascii	"set_path\000"
 7278      70617468 
 7278      00
 7279              	.LASF32:
 7280 057b 6368616E 		.ascii	"change\000"
 7280      676500
 7281              	.LASF61:
 7282 0582 73696465 		.ascii	"side_sensing\000"
 7282      5F73656E 
 7282      73696E67 
 7282      00
 7283              	.LASF67:
 7284 058f 6661696C 		.ascii	"failsafe\000"
 7284      73616665 
 7284      00
 7285              	.LASF114:
 7286 0598 6D6F7665 		.ascii	"moveDynamic\000"
 7286      44796E61 
 7286      6D696300 
 7287              	.LASF46:
 7288 05a4 61637469 		.ascii	"activate_safety\000"
 7288      76617465 
 7288      5F736166 
 7288      65747900 
 7289              	.LASF6:
 7290 05b4 6C6F6E67 		.ascii	"long unsigned int\000"
 7290      20756E73 
 7290      69676E65 
 7290      6420696E 
 7290      7400
 7291              	.LASF123:
 7292 05c6 6C6F6361 		.ascii	"locatePucks\000"
 7292      74655075 
 7292      636B7300 
 7293              	.LASF12:
 7294 05d2 646F7562 		.ascii	"double\000"
 7294      6C6500
 7295              	.LASF109:
 7296 05d9 55415254 		.ascii	"UART_1_PutString\000"
 7296      5F315F50 
 7296      75745374 
 7296      72696E67 
 7296      00
 7297              	.LASF97:
 7298 05ea 4D6F746F 		.ascii	"Motor_Left_Control_Write\000"
 7298      725F4C65 
 7298      66745F43 
 7298      6F6E7472 
 7298      6F6C5F57 
 7299              	.LASF47:
 7300 0603 66726F6E 		.ascii	"front_sensor_flag\000"
ARM GAS  C:\Users\Misha\AppData\Local\Temp\ccbcIC6d.s 			page 152


 7300      745F7365 
 7300      6E736F72 
 7300      5F666C61 
 7300      6700
 7301              	.LASF29:
 7302 0615 616C676F 		.ascii	"algorithm\000"
 7302      72697468 
 7302      6D00
 7303              	.LASF86:
 7304 061f 70726566 		.ascii	"preferential_route\000"
 7304      6572656E 
 7304      7469616C 
 7304      5F726F75 
 7304      746500
 7305              	.LASF62:
 7306 0632 696E6974 		.ascii	"initial_value\000"
 7306      69616C5F 
 7306      76616C75 
 7306      6500
 7307              	.LASF17:
 7308 0640 7075636B 		.ascii	"puck_scan\000"
 7308      5F736361 
 7308      6E00
 7309              	.LASF10:
 7310 064a 5F5F696E 		.ascii	"__int32_t\000"
 7310      7433325F 
 7310      7400
 7311              	.LASF38:
 7312 0654 63757272 		.ascii	"current_distance\000"
 7312      656E745F 
 7312      64697374 
 7312      616E6365 
 7312      00
 7313              	.LASF74:
 7314 0665 6C657373 		.ascii	"less_great\000"
 7314      5F677265 
 7314      617400
 7315              	.LASF122:
 7316 0670 433A5C55 		.ascii	"C:\\Users\\Misha\\Documents\\PSoC Creator\\ECE3091_"
 7316      73657273 
 7316      5C4D6973 
 7316      68615C44 
 7316      6F63756D 
 7317 069e 47726F75 		.ascii	"Group17\\Group17RobotReal\\Group17Robot.cydsn\000"
 7317      7031375C 
 7317      47726F75 
 7317      70313752 
 7317      6F626F74 
 7318              	.LASF63:
 7319 06ca 64726966 		.ascii	"drift_tolerance\000"
 7319      745F746F 
 7319      6C657261 
 7319      6E636500 
 7320              	.LASF43:
 7321 06da 6D6F7665 		.ascii	"moveUntil\000"
 7321      556E7469 
 7321      6C00
ARM GAS  C:\Users\Misha\AppData\Local\Temp\ccbcIC6d.s 			page 153


 7322              	.LASF15:
 7323 06e4 73697A65 		.ascii	"sizetype\000"
 7323      74797065 
 7323      00
 7324              	.LASF82:
 7325 06ed 6F757470 		.ascii	"output\000"
 7325      757400
 7326              	.LASF106:
 7327 06f4 4D6F746F 		.ascii	"Motor_Left_Decoder_GetCounter\000"
 7327      725F4C65 
 7327      66745F44 
 7327      65636F64 
 7327      65725F47 
 7328              	.LASF68:
 7329 0712 73747261 		.ascii	"straightAdjustBack\000"
 7329      69676874 
 7329      41646A75 
 7329      73744261 
 7329      636B00
 7330              	.LASF76:
 7331 0725 49544D5F 		.ascii	"ITM_RxBuffer\000"
 7331      52784275 
 7331      66666572 
 7331      00
 7332              	.LASF120:
 7333 0732 474E5520 		.ascii	"GNU C11 5.4.1 20160609 (release) [ARM/embedded-5-br"
 7333      43313120 
 7333      352E342E 
 7333      31203230 
 7333      31363036 
 7334 0765 616E6368 		.ascii	"anch revision 237715] -mcpu=cortex-m3 -mthumb -g -O"
 7334      20726576 
 7334      6973696F 
 7334      6E203233 
 7334      37373135 
 7335 0798 67202D66 		.ascii	"g -ffunction-sections -ffat-lto-objects\000"
 7335      66756E63 
 7335      74696F6E 
 7335      2D736563 
 7335      74696F6E 
 7336              	.LASF107:
 7337 07c0 43794465 		.ascii	"CyDelay\000"
 7337      6C617900 
 7338              	.LASF22:
 7339 07c8 636F756E 		.ascii	"count_right\000"
 7339      745F7269 
 7339      67687400 
 7340              	.LASF25:
 7341 07d4 73706565 		.ascii	"speed_right\000"
 7341      645F7269 
 7341      67687400 
 7342              	.LASF115:
 7343 07e0 6D6F7665 		.ascii	"moveSwivel\000"
 7343      53776976 
 7343      656C00
 7344              	.LASF81:
 7345 07eb 696E6974 		.ascii	"initialisation\000"
ARM GAS  C:\Users\Misha\AppData\Local\Temp\ccbcIC6d.s 			page 154


 7345      69616C69 
 7345      73617469 
 7345      6F6E00
 7346              	.LASF100:
 7347 07fa 4D6F746F 		.ascii	"Motor_Left_Driver_WriteCompare\000"
 7347      725F4C65 
 7347      66745F44 
 7347      72697665 
 7347      725F5772 
 7348              	.LASF99:
 7349 0819 4D6F746F 		.ascii	"Motor_Left_Driver_Wakeup\000"
 7349      725F4C65 
 7349      66745F44 
 7349      72697665 
 7349      725F5761 
 7350              	.LASF118:
 7351 0832 7472616E 		.ascii	"translateMoveDynamic\000"
 7351      736C6174 
 7351      654D6F76 
 7351      6544796E 
 7351      616D6963 
 7352              		.ident	"GCC: (GNU Tools for ARM Embedded Processors) 5.4.1 20160609 (release) [ARM/embedded-5-bran
