ARM GAS  C:\Users\Blayke\AppData\Local\Temp\cc62WBhQ.s 			page 1


   1              		.syntax unified
   2              		.cpu cortex-m3
   3              		.fpu softvfp
   4              		.eabi_attribute 20, 1
   5              		.eabi_attribute 21, 1
   6              		.eabi_attribute 23, 3
   7              		.eabi_attribute 24, 1
   8              		.eabi_attribute 25, 1
   9              		.eabi_attribute 26, 1
  10              		.eabi_attribute 30, 1
  11              		.eabi_attribute 34, 1
  12              		.eabi_attribute 18, 4
  13              		.thumb
  14              		.syntax unified
  15              		.file	"navigation.c"
  16              		.text
  17              	.Ltext0:
  18              		.cfi_sections	.debug_frame
  19              		.section	.text.armMoving,"ax",%progbits
  20              		.align	2
  21              		.global	armMoving
  22              		.thumb
  23              		.thumb_func
  24              		.type	armMoving, %function
  25              	armMoving:
  26              	.LFB64:
  27              		.file 1 "navigation.c"
   1:navigation.c  **** 
   2:navigation.c  **** /* ========================================
   3:navigation.c  ****  *
   4:navigation.c  ****  * Copyright Group 17, 2019
   5:navigation.c  ****  * All Rights Reserved
   6:navigation.c  ****  * UNPUBLISHED, LICENSED SOFTWARE.
   7:navigation.c  ****  *
   8:navigation.c  ****  * CONFIDENTIAL AND PROPRIETARY INFORMATION
   9:navigation.c  ****  * WHICH IS THE PROPERTY OF Blayke, Misha, Nidhin.
  10:navigation.c  ****  *
  11:navigation.c  ****  * ========================================
  12:navigation.c  **** */
  13:navigation.c  **** 
  14:navigation.c  **** // * PSOC LIBRARY * //
  15:navigation.c  **** #include "project.h"
  16:navigation.c  **** 
  17:navigation.c  **** // * C LIBRARIES * // 
  18:navigation.c  **** #include <stdlib.h>
  19:navigation.c  **** #include <stdio.h>
  20:navigation.c  **** #include <math.h>
  21:navigation.c  **** 
  22:navigation.c  **** // * OUR LIBRARIES * //
  23:navigation.c  **** #include "main.h"
  24:navigation.c  **** #include "colour.h"
  25:navigation.c  **** #include "ultrasonic.h" 
  26:navigation.c  **** #include "servo.h"
  27:navigation.c  **** #include "motor.h"
  28:navigation.c  **** #include "customMath.h"
  29:navigation.c  **** #include "navigation.h"
  30:navigation.c  **** #include "debugging.h"
ARM GAS  C:\Users\Blayke\AppData\Local\Temp\cc62WBhQ.s 			page 2


  31:navigation.c  **** 
  32:navigation.c  **** void armMoving(void){
  28              		.loc 1 32 0
  29              		.cfi_startproc
  30              		@ args = 0, pretend = 0, frame = 0
  31              		@ frame_needed = 0, uses_anonymous_args = 0
  32 0000 38B5     		push	{r3, r4, r5, lr}
  33              		.cfi_def_cfa_offset 16
  34              		.cfi_offset 3, -16
  35              		.cfi_offset 4, -12
  36              		.cfi_offset 5, -8
  37              		.cfi_offset 14, -4
  38              	.LVL0:
  33:navigation.c  ****     
  34:navigation.c  ****     int puck_correct = FALSE;   // A flag to determine if the correct puck has been picked up
  35:navigation.c  ****     int puck_scan;
  36:navigation.c  ****     
  37:navigation.c  ****     puck_construction_plan[1] = RED;  // this was a test
  39              		.loc 1 37 0
  40 0002 0122     		movs	r2, #1
  41 0004 0E4B     		ldr	r3, .L7
  42 0006 5A60     		str	r2, [r3, #4]
  38:navigation.c  ****     
  39:navigation.c  ****     // States
  40:navigation.c  ****     // moving
  41:navigation.c  ****     changeHeightToPuck(3, NEITHER);  // Arm has to be lifted to highest position
  43              		.loc 1 41 0
  44 0008 0221     		movs	r1, #2
  45 000a 0320     		movs	r0, #3
  46 000c FFF7FEFF 		bl	changeHeightToPuck
  47              	.LVL1:
  34:navigation.c  ****     int puck_scan;
  48              		.loc 1 34 0
  49 0010 0025     		movs	r5, #0
  42:navigation.c  ****         // THIS WILL be ensured by always returning the claw to the highest position after completi
  43:navigation.c  ****         
  44:navigation.c  ****     // Scanning puck:
  45:navigation.c  ****     while (puck_correct == FALSE) 
  50              		.loc 1 45 0
  51 0012 12E0     		b	.L2
  52              	.LVL2:
  53              	.L4:
  46:navigation.c  ****     {
  47:navigation.c  ****                                 // robot moves forward towards puck
  48:navigation.c  ****         changeHeightToPuck(1, NEITHER);  // arm lowers onto robot
  54              		.loc 1 48 0
  55 0014 0221     		movs	r1, #2
  56 0016 0120     		movs	r0, #1
  57 0018 FFF7FEFF 		bl	changeHeightToPuck
  58              	.LVL3:
  49:navigation.c  ****         puck_scan = colourSensingOutput();  // colour sensor takes a scan
  59              		.loc 1 49 0
  60 001c FFF7FEFF 		bl	colourSensingOutput
  61              	.LVL4:
  62 0020 0446     		mov	r4, r0
  63              	.LVL5:
  50:navigation.c  ****         changeHeightToPuck(3, NEITHER);  // arm returns to high position
ARM GAS  C:\Users\Blayke\AppData\Local\Temp\cc62WBhQ.s 			page 3


  64              		.loc 1 50 0
  65 0022 0221     		movs	r1, #2
  66 0024 0320     		movs	r0, #3
  67              	.LVL6:
  68 0026 FFF7FEFF 		bl	changeHeightToPuck
  69              	.LVL7:
  51:navigation.c  ****                                 // robot moves backwards
  52:navigation.c  ****         if (puck_scan == puck_construction_plan[current_stage]) {puck_correct = TRUE;}
  70              		.loc 1 52 0
  71 002a 064B     		ldr	r3, .L7+4
  72 002c 1A68     		ldr	r2, [r3]
  73 002e 044B     		ldr	r3, .L7
  74 0030 53F82230 		ldr	r3, [r3, r2, lsl #2]
  75 0034 9C42     		cmp	r4, r3
  76 0036 00D1     		bne	.L2
  77 0038 0125     		movs	r5, #1
  78              	.LVL8:
  79              	.L2:
  45:navigation.c  ****     {
  80              		.loc 1 45 0
  81 003a 002D     		cmp	r5, #0
  82 003c EAD0     		beq	.L4
  53:navigation.c  ****                                 // if colour == true:
  54:navigation.c  ****                                     // enter picking up puck from 
  55:navigation.c  ****         else 
  56:navigation.c  ****         {
  57:navigation.c  ****                                 // if colour == false
  58:navigation.c  ****                                     // robot translates to side to see next puck, and performs scan
  59:navigation.c  ****         }
  60:navigation.c  ****     }
  61:navigation.c  ****     
  62:navigation.c  **** }
  83              		.loc 1 62 0
  84 003e 38BD     		pop	{r3, r4, r5, pc}
  85              	.LVL9:
  86              	.L8:
  87              		.align	2
  88              	.L7:
  89 0040 00000000 		.word	puck_construction_plan
  90 0044 00000000 		.word	current_stage
  91              		.cfi_endproc
  92              	.LFE64:
  93              		.size	armMoving, .-armMoving
  94              		.section	.text.moveUntilPuck,"ax",%progbits
  95              		.align	2
  96              		.global	moveUntilPuck
  97              		.thumb
  98              		.thumb_func
  99              		.type	moveUntilPuck, %function
 100              	moveUntilPuck:
 101              	.LFB66:
  63:navigation.c  **** 
  64:navigation.c  **** void checkHoldingPuck(void) {
  65:navigation.c  ****     // This function will check if we are holding a puck after having attempted to pick up a puck,
  66:navigation.c  ****     // if we are not holding a puck, it will translate to the left or right, and then attempt to pi
  67:navigation.c  ****     // the puck again 
  68:navigation.c  ****     int colour_check = colourSensingOutput();
ARM GAS  C:\Users\Blayke\AppData\Local\Temp\cc62WBhQ.s 			page 4


  69:navigation.c  ****     
  70:navigation.c  ****     if (colour_check == BLANK) {
  71:navigation.c  ****         // Reattempt to pick up the puck
  72:navigation.c  ****         //straightAdjustSensor(FRONT_MIDDLE);
  73:navigation.c  ****         moveUntilPuck(CLAW_GROUND_ALGORITHM);       // This may be the wrong algorithm, 
  74:navigation.c  ****                                                     // as the claw is fairly above the ground now
  75:navigation.c  ****     }
  76:navigation.c  ****     else {
  77:navigation.c  ****         // still have a puck, can continue as normal
  78:navigation.c  ****         return;
  79:navigation.c  ****     }
  80:navigation.c  ****     
  81:navigation.c  **** }
  82:navigation.c  **** 
  83:navigation.c  **** 
  84:navigation.c  **** void moveUntilPuck(int algorithm) {
 102              		.loc 1 84 0
 103              		.cfi_startproc
 104              		@ args = 0, pretend = 0, frame = 0
 105              		@ frame_needed = 0, uses_anonymous_args = 0
 106              	.LVL10:
 107 0000 2DE9F843 		push	{r3, r4, r5, r6, r7, r8, r9, lr}
 108              		.cfi_def_cfa_offset 32
 109              		.cfi_offset 3, -32
 110              		.cfi_offset 4, -28
 111              		.cfi_offset 5, -24
 112              		.cfi_offset 6, -20
 113              		.cfi_offset 7, -16
 114              		.cfi_offset 8, -12
 115              		.cfi_offset 9, -8
 116              		.cfi_offset 14, -4
 117 0004 0446     		mov	r4, r0
 118              	.LVL11:
  85:navigation.c  ****       
  86:navigation.c  ****     int puck_detect = 0;
  87:navigation.c  ****     
  88:navigation.c  ****     int speed = 70;
  89:navigation.c  ****     
  90:navigation.c  ****     int count_right;
  91:navigation.c  ****     int count_left;
  92:navigation.c  ****     int speed_left = speed;
  93:navigation.c  ****     int speed_right = speed;
  94:navigation.c  ****     
  95:navigation.c  ****     Motor_Left_Control_Write(0);        // move FORWARD
 119              		.loc 1 95 0
 120 0006 0020     		movs	r0, #0
 121              	.LVL12:
 122 0008 FFF7FEFF 		bl	Motor_Left_Control_Write
 123              	.LVL13:
  96:navigation.c  ****     Motor_Right_Control_Write(0);
 124              		.loc 1 96 0
 125 000c 0020     		movs	r0, #0
 126 000e FFF7FEFF 		bl	Motor_Right_Control_Write
 127              	.LVL14:
  97:navigation.c  ****     
  98:navigation.c  ****     Motor_Left_Driver_Wakeup();
 128              		.loc 1 98 0
ARM GAS  C:\Users\Blayke\AppData\Local\Temp\cc62WBhQ.s 			page 5


 129 0012 FFF7FEFF 		bl	Motor_Left_Driver_Wakeup
 130              	.LVL15:
  99:navigation.c  ****     Motor_Left_Driver_WriteCompare(speed_left);
 131              		.loc 1 99 0
 132 0016 4620     		movs	r0, #70
 133 0018 FFF7FEFF 		bl	Motor_Left_Driver_WriteCompare
 134              	.LVL16:
 100:navigation.c  ****     Motor_Right_Driver_Wakeup();
 135              		.loc 1 100 0
 136 001c FFF7FEFF 		bl	Motor_Right_Driver_Wakeup
 137              	.LVL17:
 101:navigation.c  ****     Motor_Right_Driver_WriteCompare(speed_right);
 138              		.loc 1 101 0
 139 0020 4620     		movs	r0, #70
 140 0022 FFF7FEFF 		bl	Motor_Right_Driver_WriteCompare
 141              	.LVL18:
 102:navigation.c  ****     
 103:navigation.c  ****     armOpen();                                  // ensures the arm is open
 142              		.loc 1 103 0
 143 0026 FFF7FEFF 		bl	armOpen
 144              	.LVL19:
 104:navigation.c  ****     control_photodiode_Write(CLAW_SENSING);     //ENSURES that it is the claw that is sensing
 145              		.loc 1 104 0
 146 002a 0120     		movs	r0, #1
 147 002c FFF7FEFF 		bl	control_photodiode_Write
 148              	.LVL20:
 105:navigation.c  ****     colour_sensing_algorithm = algorithm;       
 149              		.loc 1 105 0
 150 0030 244B     		ldr	r3, .L17
 151 0032 1C60     		str	r4, [r3]
  93:navigation.c  ****     
 152              		.loc 1 93 0
 153 0034 4FF04608 		mov	r8, #70
  92:navigation.c  ****     int speed_right = speed;
 154              		.loc 1 92 0
 155 0038 C146     		mov	r9, r8
  86:navigation.c  ****     
 156              		.loc 1 86 0
 157 003a 0026     		movs	r6, #0
 106:navigation.c  ****     
 107:navigation.c  ****     while (puck_detect == 0) 
 158              		.loc 1 107 0
 159 003c 2EE0     		b	.L10
 160              	.LVL21:
 161              	.L13:
 108:navigation.c  ****     {
 109:navigation.c  ****         count_right = Motor_Right_Decoder_GetCounter();        
 162              		.loc 1 109 0
 163 003e FFF7FEFF 		bl	Motor_Right_Decoder_GetCounter
 164              	.LVL22:
 165 0042 0446     		mov	r4, r0
 166              	.LVL23:
 110:navigation.c  ****         count_left = Motor_Left_Decoder_GetCounter();
 167              		.loc 1 110 0
 168 0044 FFF7FEFF 		bl	Motor_Left_Decoder_GetCounter
 169              	.LVL24:
 170 0048 0546     		mov	r5, r0
ARM GAS  C:\Users\Blayke\AppData\Local\Temp\cc62WBhQ.s 			page 6


 171              	.LVL25:
 111:navigation.c  ****         puck_detect = colourSensingOutput();
 172              		.loc 1 111 0
 173 004a FFF7FEFF 		bl	colourSensingOutput
 174              	.LVL26:
 175 004e 0646     		mov	r6, r0
 176              	.LVL27:
 112:navigation.c  ****         CyDelay(10);
 177              		.loc 1 112 0
 178 0050 0A20     		movs	r0, #10
 179              	.LVL28:
 180 0052 FFF7FEFF 		bl	CyDelay
 181              	.LVL29:
 113:navigation.c  ****         sprintf(output, "%i \t", puck_detect);       
 182              		.loc 1 113 0
 183 0056 1C4F     		ldr	r7, .L17+4
 184 0058 3246     		mov	r2, r6
 185 005a 1C49     		ldr	r1, .L17+8
 186 005c 3846     		mov	r0, r7
 187 005e FFF7FEFF 		bl	sprintf
 188              	.LVL30:
 114:navigation.c  ****         UART_1_PutString(output);
 189              		.loc 1 114 0
 190 0062 3846     		mov	r0, r7
 191 0064 FFF7FEFF 		bl	UART_1_PutString
 192              	.LVL31:
 115:navigation.c  ****         
 116:navigation.c  ****         // DRIFT CORRECTION: 
 117:navigation.c  ****         
 118:navigation.c  ****         if (abs(count_left) > abs(count_right)) {
 193              		.loc 1 118 0
 194 0068 85EAE570 		eor	r0, r5, r5, asr #31
 195 006c A0EBE570 		sub	r0, r0, r5, asr #31
 196 0070 84EAE473 		eor	r3, r4, r4, asr #31
 197 0074 A3EBE473 		sub	r3, r3, r4, asr #31
 198 0078 9842     		cmp	r0, r3
 199 007a 03DD     		ble	.L11
 119:navigation.c  ****             speed_left = speed - ADJUST;
 120:navigation.c  ****             speed_right = speed + ADJUST;
 200              		.loc 1 120 0
 201 007c 4FF04A08 		mov	r8, #74
 202              	.LVL32:
 119:navigation.c  ****             speed_left = speed - ADJUST;
 203              		.loc 1 119 0
 204 0080 4FF04209 		mov	r9, #66
 205              	.LVL33:
 206              	.L11:
 121:navigation.c  ****         }
 122:navigation.c  ****         if (abs(count_right) > abs(count_left)) {
 207              		.loc 1 122 0
 208 0084 9842     		cmp	r0, r3
 209 0086 03DA     		bge	.L12
 123:navigation.c  ****             speed_right = speed - ADJUST;             
 210              		.loc 1 123 0
 211 0088 4FF04208 		mov	r8, #66
 212              	.LVL34:
 124:navigation.c  ****             speed_left = speed + ADJUST;
ARM GAS  C:\Users\Blayke\AppData\Local\Temp\cc62WBhQ.s 			page 7


 213              		.loc 1 124 0
 214 008c 4FF04A09 		mov	r9, #74
 215              	.LVL35:
 216              	.L12:
 125:navigation.c  ****         } 
 126:navigation.c  ****         Motor_Left_Driver_WriteCompare(speed_left);
 217              		.loc 1 126 0
 218 0090 4846     		mov	r0, r9
 219 0092 FFF7FEFF 		bl	Motor_Left_Driver_WriteCompare
 220              	.LVL36:
 127:navigation.c  ****         Motor_Right_Driver_WriteCompare(speed_right);        
 221              		.loc 1 127 0
 222 0096 4046     		mov	r0, r8
 223 0098 FFF7FEFF 		bl	Motor_Right_Driver_WriteCompare
 224              	.LVL37:
 225              	.L10:
 107:navigation.c  ****     {
 226              		.loc 1 107 0
 227 009c 002E     		cmp	r6, #0
 228 009e CED0     		beq	.L13
 128:navigation.c  ****     }
 129:navigation.c  ****     
 130:navigation.c  ****     Motor_Left_Decoder_SetCounter(0);
 229              		.loc 1 130 0
 230 00a0 0020     		movs	r0, #0
 231 00a2 FFF7FEFF 		bl	Motor_Left_Decoder_SetCounter
 232              	.LVL38:
 131:navigation.c  ****     Motor_Right_Decoder_SetCounter(0);
 233              		.loc 1 131 0
 234 00a6 0020     		movs	r0, #0
 235 00a8 FFF7FEFF 		bl	Motor_Right_Decoder_SetCounter
 236              	.LVL39:
 132:navigation.c  ****     
 133:navigation.c  ****     Motor_Left_Driver_Sleep();
 237              		.loc 1 133 0
 238 00ac FFF7FEFF 		bl	Motor_Left_Driver_Sleep
 239              	.LVL40:
 134:navigation.c  ****     Motor_Right_Driver_Sleep();
 240              		.loc 1 134 0
 241 00b0 FFF7FEFF 		bl	Motor_Right_Driver_Sleep
 242              	.LVL41:
 135:navigation.c  ****     
 136:navigation.c  ****     moveDynamic(37, 100, FALSE);
 243              		.loc 1 136 0
 244 00b4 0022     		movs	r2, #0
 245 00b6 6421     		movs	r1, #100
 246 00b8 2520     		movs	r0, #37
 247 00ba FFF7FEFF 		bl	moveDynamic
 248              	.LVL42:
 249 00be BDE8F883 		pop	{r3, r4, r5, r6, r7, r8, r9, pc}
 250              	.LVL43:
 251              	.L18:
 252 00c2 00BF     		.align	2
 253              	.L17:
 254 00c4 00000000 		.word	colour_sensing_algorithm
 255 00c8 00000000 		.word	output
 256 00cc 00000000 		.word	.LC0
ARM GAS  C:\Users\Blayke\AppData\Local\Temp\cc62WBhQ.s 			page 8


 257              		.cfi_endproc
 258              	.LFE66:
 259              		.size	moveUntilPuck, .-moveUntilPuck
 260              		.section	.text.checkHoldingPuck,"ax",%progbits
 261              		.align	2
 262              		.global	checkHoldingPuck
 263              		.thumb
 264              		.thumb_func
 265              		.type	checkHoldingPuck, %function
 266              	checkHoldingPuck:
 267              	.LFB65:
  64:navigation.c  ****     // This function will check if we are holding a puck after having attempted to pick up a puck,
 268              		.loc 1 64 0
 269              		.cfi_startproc
 270              		@ args = 0, pretend = 0, frame = 0
 271              		@ frame_needed = 0, uses_anonymous_args = 0
 272 0000 08B5     		push	{r3, lr}
 273              		.cfi_def_cfa_offset 8
 274              		.cfi_offset 3, -8
 275              		.cfi_offset 14, -4
  68:navigation.c  ****     
 276              		.loc 1 68 0
 277 0002 FFF7FEFF 		bl	colourSensingOutput
 278              	.LVL44:
  70:navigation.c  ****         // Reattempt to pick up the puck
 279              		.loc 1 70 0
 280 0006 10B9     		cbnz	r0, .L19
  73:navigation.c  ****                                                     // as the claw is fairly above the ground now
 281              		.loc 1 73 0
 282 0008 0520     		movs	r0, #5
 283              	.LVL45:
 284 000a FFF7FEFF 		bl	moveUntilPuck
 285              	.LVL46:
 286              	.L19:
 287 000e 08BD     		pop	{r3, pc}
 288              		.cfi_endproc
 289              	.LFE65:
 290              		.size	checkHoldingPuck, .-checkHoldingPuck
 291              		.section	.text.changeOrientation,"ax",%progbits
 292              		.align	2
 293              		.global	changeOrientation
 294              		.thumb
 295              		.thumb_func
 296              		.type	changeOrientation, %function
 297              	changeOrientation:
 298              	.LFB68:
 137:navigation.c  **** }
 138:navigation.c  **** 
 139:navigation.c  **** 
 140:navigation.c  **** 
 141:navigation.c  **** void moveUntil(int distance_set, int direction, int less_or_great, int ultrasonic_sensor, int speed
 142:navigation.c  ****     // This function will move until given a set distance (in mm)
 143:navigation.c  ****     // Can indicate the direction (FORWARD or BACKWARD)
 144:navigation.c  ****     // whether you want it to move until it is greater or less than the set distance
 145:navigation.c  ****     // which ultrasonic_sensor you want to use
 146:navigation.c  ****     // the speed you want to move
 147:navigation.c  ****     // can activate_safety (TRUE or FALSE) so that it will always stop before it hits a wall (movin
ARM GAS  C:\Users\Blayke\AppData\Local\Temp\cc62WBhQ.s 			page 9


 148:navigation.c  ****     
 149:navigation.c  ****     // safetyDistanceCheck();        // CALL this if you want to recalibrate
 150:navigation.c  ****     
 151:navigation.c  ****     int count_left;                 // counts the encoder values
 152:navigation.c  ****     int count_right;
 153:navigation.c  ****     int speed_left = speed;         // the set speed of the motors
 154:navigation.c  ****     int speed_right = speed;
 155:navigation.c  ****     int front_sensor_flag = FALSE;
 156:navigation.c  ****                                   // the ultrasonic sensor we will be using 
 157:navigation.c  ****     int distance_sensor;            // the measured distance of the sensor
 158:navigation.c  ****     
 159:navigation.c  ****     int old_count = -(SAFETY_MARGIN)*ENCODER_MULTIPLIER*0.75 - 1000;  // used in the old failsafe t
 160:navigation.c  ****                                                         // will enter the failsafe check straight a
 161:navigation.c  ****     int emergency_exit = FALSE;
 162:navigation.c  ****     
 163:navigation.c  ****     // Check if we are closer to or further away from the side wall: 
 164:navigation.c  ****     /*
 165:navigation.c  ****         int side_prox_sensor;
 166:navigation.c  ****         int initial_side_distance;
 167:navigation.c  ****         distanceSensor(SIDE_LEFT);
 168:navigation.c  ****         CyDelay(50);
 169:navigation.c  ****         distanceSensor(SIDE_RIGHT);
 170:navigation.c  ****         CyDelay(50);
 171:navigation.c  ****         if (sensor_distances[SIDE_LEFT] > sensor_distances[SIDE_RIGHT]) {
 172:navigation.c  ****             side_prox_sensor = SIDE_RIGHT; 
 173:navigation.c  ****             initial_side_distance = sensor_distances[SIDE_RIGHT];
 174:navigation.c  ****         }
 175:navigation.c  ****         else { side_prox_sensor = SIDE_LEFT; initial_side_distance = sensor_distances[SIDE_LEFT]; }
 176:navigation.c  ****     */
 177:navigation.c  ****     // Setting the direction 
 178:navigation.c  ****     if (direction == FORWARD) { 
 179:navigation.c  ****         Motor_Left_Control_Write(0); 
 180:navigation.c  ****         Motor_Right_Control_Write(0); 
 181:navigation.c  ****     }
 182:navigation.c  ****     if (direction == BACKWARD) {
 183:navigation.c  ****         Motor_Left_Control_Write(1); 
 184:navigation.c  ****         Motor_Right_Control_Write(1);
 185:navigation.c  ****     }
 186:navigation.c  ****     
 187:navigation.c  ****     
 188:navigation.c  ****     //if (ultrasonic_sensor == FRONT_SENSORS) {ultrasonic_sensor = FRONT_LEFT; front_sensor_flag = 
 189:navigation.c  ****     
 190:navigation.c  ****     // This ensures that the initial sensing value is good 
 191:navigation.c  ****     sensor_distances[ultrasonic_sensor] = ARENA_WIDTH + 100;             // Enters the while loop
 192:navigation.c  ****     while (sensor_distances[ultrasonic_sensor] > ARENA_WIDTH) {          // protects against dodgy 
 193:navigation.c  ****         distanceSensor(ultrasonic_sensor);
 194:navigation.c  ****         CyDelay(50);
 195:navigation.c  ****         distance_sensor = sensor_distances[ultrasonic_sensor];   // checks the distance measured by
 196:navigation.c  ****         sprintf(output, "%d \t", distance_sensor);       
 197:navigation.c  ****         UART_1_PutString(output);
 198:navigation.c  ****     }
 199:navigation.c  ****     
 200:navigation.c  ****     //if (front_sensor_flag == TRUE) {ultrasonic_sensor = FRONT_SENSORS; front_sensor_flag = FALSE;
 201:navigation.c  ****     
 202:navigation.c  ****     Motor_Left_Driver_Wakeup();
 203:navigation.c  ****     Motor_Left_Driver_WriteCompare(speed_left);
 204:navigation.c  ****     Motor_Right_Driver_Wakeup();
ARM GAS  C:\Users\Blayke\AppData\Local\Temp\cc62WBhQ.s 			page 10


 205:navigation.c  ****     Motor_Right_Driver_WriteCompare(speed_right);
 206:navigation.c  ****     
 207:navigation.c  ****     if (less_or_great == GREATER_THAN) {                                         // if distance_set
 208:navigation.c  ****         //UART_1_PutString("\n GREATER THAN LOOP: \n");
 209:navigation.c  ****         while (distance_sensor < abs(distance_set) && emergency_exit == FALSE) {               // T
 210:navigation.c  ****             
 211:navigation.c  ****             count_left = Motor_Left_Decoder_GetCounter();
 212:navigation.c  ****             count_right = Motor_Right_Decoder_GetCounter();
 213:navigation.c  ****             
 214:navigation.c  ****             // DRIFT CORRECTION:
 215:navigation.c  ****             if (abs(count_left) > abs(count_right)) {
 216:navigation.c  ****                 speed_left = speed - ADJUST;
 217:navigation.c  ****                 speed_right = speed + ADJUST;
 218:navigation.c  ****             }        
 219:navigation.c  ****             if (abs(count_right) > abs(count_left)) {
 220:navigation.c  ****                 speed_right = speed - ADJUST;              
 221:navigation.c  ****                 speed_left = speed + ADJUST;
 222:navigation.c  ****             }
 223:navigation.c  ****             // end of drift correction 
 224:navigation.c  ****             
 225:navigation.c  ****             Motor_Left_Driver_WriteCompare(speed_left);         // updates the driver speed
 226:navigation.c  ****             Motor_Right_Driver_WriteCompare(speed_right);
 227:navigation.c  ****             
 228:navigation.c  ****             // When you want to do both front sensors: 
 229:navigation.c  ****             if (ultrasonic_sensor == FRONT_SENSORS && front_sensor_flag == TRUE) {
 230:navigation.c  ****                 distanceSensor(FRONT_LEFT);
 231:navigation.c  ****                 CyDelay(50);
 232:navigation.c  ****                 distance_sensor = sensor_distances[ultrasonic_sensor];   // checks the distance mea
 233:navigation.c  ****                 front_sensor_flag = FALSE;
 234:navigation.c  ****             }
 235:navigation.c  ****             else if (ultrasonic_sensor == FRONT_SENSORS && front_sensor_flag == FALSE) {
 236:navigation.c  ****                 distanceSensor(FRONT_RIGHT);
 237:navigation.c  ****                 CyDelay(50);
 238:navigation.c  ****                 distance_sensor = sensor_distances[ultrasonic_sensor];   // checks the distance mea
 239:navigation.c  ****                 front_sensor_flag = TRUE;
 240:navigation.c  ****             }
 241:navigation.c  ****             else {
 242:navigation.c  ****                 distanceSensor(ultrasonic_sensor);
 243:navigation.c  ****                 CyDelay(50);
 244:navigation.c  ****                 distance_sensor = sensor_distances[ultrasonic_sensor];   // checks the distance mea
 245:navigation.c  ****                 sprintf(output, "%d \t", distance_sensor);       
 246:navigation.c  ****                 UART_1_PutString(output);
 247:navigation.c  ****             }
 248:navigation.c  ****             
 249:navigation.c  ****             // FAILSAFES:
 250:navigation.c  ****                 // the failsafes will alternate between each other if failsafe is activated
 251:navigation.c  ****                 // they should both run within one safety margin
 252:navigation.c  ****                 // if you want to get rid of one of the failsafes, you will need to double the safe
 253:navigation.c  ****             int failsafe_alternator = TRUE;
 254:navigation.c  ****             
 255:navigation.c  ****             // FAILSAFE forward & backward
 256:navigation.c  ****             if (abs(count_left) > (old_count + (SAFETY_MARGIN)*ENCODER_MULTIPLIER*0.75 - 100) 
 257:navigation.c  ****                                         && failsafe_alternator == TRUE 
 258:navigation.c  ****                                         && activate_safety == TRUE){
 259:navigation.c  ****                 emergency_exit = failsafe(direction);
 260:navigation.c  ****                 old_count = count_left;
 261:navigation.c  ****                 //failsafe_alternator = FALSE;
ARM GAS  C:\Users\Blayke\AppData\Local\Temp\cc62WBhQ.s 			page 11


 262:navigation.c  ****             }
 263:navigation.c  ****                         
 264:navigation.c  ****             //  side sensors sensors
 265:navigation.c  ****             /*
 266:navigation.c  ****             if (abs(count_left) > (old_count + (SAFETY_MARGIN/2)*ENCODER_MULTIPLIER - 100)
 267:navigation.c  ****                                         && failsafe_alternator == FALSE 
 268:navigation.c  ****                                         && activate_safety == TRUE){
 269:navigation.c  ****                 failsafeSideSensors(side_prox_sensor, initial_side_distance);
 270:navigation.c  ****                 old_count = count_left;
 271:navigation.c  ****                 failsafe_alternator = TRUE;
 272:navigation.c  ****             }
 273:navigation.c  ****             */                            
 274:navigation.c  ****         } 
 275:navigation.c  ****     }
 276:navigation.c  ****     
 277:navigation.c  ****     if (less_or_great == LESS_THAN) {                                         // if distance_set is
 278:navigation.c  ****         //UART_1_PutString("\n LESS THAN LOOP: \n");
 279:navigation.c  ****         while (distance_sensor > abs(distance_set) && emergency_exit == FALSE){                    
 280:navigation.c  ****             
 281:navigation.c  ****             count_left = Motor_Left_Decoder_GetCounter();
 282:navigation.c  ****             count_right = Motor_Right_Decoder_GetCounter();
 283:navigation.c  ****             
 284:navigation.c  ****             // DRIFT CORRECTION:
 285:navigation.c  ****             if (abs(count_left) > abs(count_right)) {
 286:navigation.c  ****                 speed_left = speed - ADJUST;
 287:navigation.c  ****                 speed_right = speed + ADJUST;
 288:navigation.c  ****             }        
 289:navigation.c  ****             if (abs(count_right) > abs(count_left)) {
 290:navigation.c  ****                     speed_right = speed - ADJUST;              // If the speeds are equal, we decre
 291:navigation.c  ****                                                         // adjust tolerance 
 292:navigation.c  ****                     speed_left = speed + ADJUST;
 293:navigation.c  ****             }
 294:navigation.c  ****             // end of drift correction 
 295:navigation.c  ****             
 296:navigation.c  ****             Motor_Left_Driver_WriteCompare(speed_left);         // updates the driver speed
 297:navigation.c  ****             Motor_Right_Driver_WriteCompare(speed_right);
 298:navigation.c  ****             
 299:navigation.c  ****             distanceSensor(ultrasonic_sensor);
 300:navigation.c  ****             CyDelay(50);
 301:navigation.c  ****             distance_sensor = sensor_distances[ultrasonic_sensor];   // checks the distance measure
 302:navigation.c  ****             sprintf(output, "%d \t", distance_sensor);       
 303:navigation.c  ****             UART_1_PutString(output);
 304:navigation.c  ****             
 305:navigation.c  ****             // FAILSAFES:
 306:navigation.c  ****                 // the failsafes will alternate between each other if failsafe is activated
 307:navigation.c  ****                 // they should both run within one safety margin
 308:navigation.c  ****                 // if you want to get rid of one of the failsafes, you will need to double the safe
 309:navigation.c  ****             int failsafe_alternator = TRUE;
 310:navigation.c  ****             
 311:navigation.c  ****             // FAILSAFE forward & backward
 312:navigation.c  ****             if (abs(count_left) > (old_count + (SAFETY_MARGIN/2)*ENCODER_MULTIPLIER - 100) 
 313:navigation.c  ****                                         && failsafe_alternator == TRUE 
 314:navigation.c  ****                                         && activate_safety == TRUE){
 315:navigation.c  ****                 emergency_exit = failsafe(direction);
 316:navigation.c  ****                 old_count = count_left;
 317:navigation.c  ****                 //failsafe_alternator = FALSE;
 318:navigation.c  ****             }
ARM GAS  C:\Users\Blayke\AppData\Local\Temp\cc62WBhQ.s 			page 12


 319:navigation.c  ****                         
 320:navigation.c  ****             //  side sensors sensors
 321:navigation.c  ****             /*
 322:navigation.c  ****             if (abs(count_left) > (old_count + (SAFETY_MARGIN/2)*ENCODER_MULTIPLIER - 100)
 323:navigation.c  ****                                         && failsafe_alternator == FALSE 
 324:navigation.c  ****                                         && activate_safety == TRUE){
 325:navigation.c  ****                 failsafeSideSensors(side_prox_sensor, initial_side_distance);
 326:navigation.c  ****                 old_count = count_left;
 327:navigation.c  ****                 failsafe_alternator = TRUE;
 328:navigation.c  ****             }
 329:navigation.c  ****             */                            
 330:navigation.c  ****         } 
 331:navigation.c  ****     }
 332:navigation.c  ****     
 333:navigation.c  ****     
 334:navigation.c  ****     
 335:navigation.c  ****     //sprintf(output, "left motor: %d \n", count_left);       
 336:navigation.c  ****     //UART_1_PutString(output);
 337:navigation.c  ****     //sprintf(output, "right motor: %d \n", count_right);      
 338:navigation.c  ****     //UART_1_PutString(output);
 339:navigation.c  ****         
 340:navigation.c  ****     // final check of sensor:
 341:navigation.c  ****     distanceSensor(ultrasonic_sensor);
 342:navigation.c  ****     CyDelay(50);
 343:navigation.c  ****     distance_sensor = sensor_distances[ultrasonic_sensor];   // checks the distance measured by the
 344:navigation.c  ****     sprintf(output, "\n fin: %d \n", distance_sensor);    
 345:navigation.c  ****     UART_1_PutString(output);
 346:navigation.c  ****     
 347:navigation.c  ****     Motor_Left_Decoder_SetCounter(0);                       // RESET the decoders to 0
 348:navigation.c  ****     Motor_Right_Decoder_SetCounter(0);   
 349:navigation.c  ****     
 350:navigation.c  ****     Motor_Left_Driver_Sleep();              // Puts motors to sleep 
 351:navigation.c  ****     Motor_Right_Driver_Sleep();
 352:navigation.c  ****     
 353:navigation.c  **** }
 354:navigation.c  **** 
 355:navigation.c  **** void changeOrientation(int orientation_change, int speed) {
 299              		.loc 1 355 0
 300              		.cfi_startproc
 301              		@ args = 0, pretend = 0, frame = 0
 302              		@ frame_needed = 0, uses_anonymous_args = 0
 303              	.LVL47:
 304 0000 10B5     		push	{r4, lr}
 305              		.cfi_def_cfa_offset 8
 306              		.cfi_offset 4, -8
 307              		.cfi_offset 14, -4
 308 0002 0446     		mov	r4, r0
 356:navigation.c  ****     //define NORTH 0
 357:navigation.c  ****     //define EAST 1
 358:navigation.c  ****     //define SOUTH 2
 359:navigation.c  ****     //define WEST 3
 360:navigation.c  ****     int degree_change;
 361:navigation.c  ****     
 362:navigation.c  ****     // Incorporate some failsafes so that it turns in a direction that won't hit anything:
 363:navigation.c  ****         // failsafes:
 364:navigation.c  ****     
 365:navigation.c  ****     int change = orientation_change - internal_orientation;
ARM GAS  C:\Users\Blayke\AppData\Local\Temp\cc62WBhQ.s 			page 13


 309              		.loc 1 365 0
 310 0004 0B4B     		ldr	r3, .L26
 311 0006 1868     		ldr	r0, [r3]
 312              	.LVL48:
 313 0008 201A     		subs	r0, r4, r0
 314              	.LVL49:
 366:navigation.c  ****     degree_change = 90*change;                                  // converts the amount of degrees w
 315              		.loc 1 366 0
 316 000a 5A23     		movs	r3, #90
 317 000c 03FB00F0 		mul	r0, r3, r0
 318              	.LVL50:
 367:navigation.c  ****     
 368:navigation.c  ****     if (degree_change == 270 || degree_change == -270)
 319              		.loc 1 368 0
 320 0010 B0F5877F 		cmp	r0, #270
 321 0014 02D0     		beq	.L23
 322              		.loc 1 368 0 is_stmt 0 discriminator 1
 323 0016 10F5877F 		cmn	r0, #270
 324 001a 04D1     		bne	.L24
 325              	.L23:
 369:navigation.c  ****     {
 370:navigation.c  ****         degree_change = degree_change/3;        
 326              		.loc 1 370 0 is_stmt 1
 327 001c 064B     		ldr	r3, .L26+4
 328 001e 83FB0023 		smull	r2, r3, r3, r0
 329              	.LVL51:
 371:navigation.c  ****         degree_change = -1*degree_change;       
 330              		.loc 1 371 0
 331 0022 C3EBE070 		rsb	r0, r3, r0, asr #31
 332              	.LVL52:
 333              	.L24:
 372:navigation.c  ****     }
 373:navigation.c  ****     
 374:navigation.c  ****     moveSwivel(degree_change, speed, TRUE);
 334              		.loc 1 374 0
 335 0026 0122     		movs	r2, #1
 336 0028 FFF7FEFF 		bl	moveSwivel
 337              	.LVL53:
 375:navigation.c  ****     internal_orientation = orientation_change;  
 338              		.loc 1 375 0
 339 002c 014B     		ldr	r3, .L26
 340 002e 1C60     		str	r4, [r3]
 341 0030 10BD     		pop	{r4, pc}
 342              	.LVL54:
 343              	.L27:
 344 0032 00BF     		.align	2
 345              	.L26:
 346 0034 00000000 		.word	internal_orientation
 347 0038 56555555 		.word	1431655766
 348              		.cfi_endproc
 349              	.LFE68:
 350              		.size	changeOrientation, .-changeOrientation
 351              		.section	.text.translateUntil,"ax",%progbits
 352              		.align	2
 353              		.global	translateUntil
 354              		.thumb
 355              		.thumb_func
ARM GAS  C:\Users\Blayke\AppData\Local\Temp\cc62WBhQ.s 			page 14


 356              		.type	translateUntil, %function
 357              	translateUntil:
 358              	.LFB69:
 376:navigation.c  **** }
 377:navigation.c  **** 
 378:navigation.c  **** void translateUntil(int distance_set, int direction, int less_or_great, int ultrasonic_sensor, int 
 359              		.loc 1 378 0
 360              		.cfi_startproc
 361              		@ args = 4, pretend = 0, frame = 0
 362              		@ frame_needed = 0, uses_anonymous_args = 0
 363              	.LVL55:
 364 0000 2DE9F843 		push	{r3, r4, r5, r6, r7, r8, r9, lr}
 365              		.cfi_def_cfa_offset 32
 366              		.cfi_offset 3, -32
 367              		.cfi_offset 4, -28
 368              		.cfi_offset 5, -24
 369              		.cfi_offset 6, -20
 370              		.cfi_offset 7, -16
 371              		.cfi_offset 8, -12
 372              		.cfi_offset 9, -8
 373              		.cfi_offset 14, -4
 374 0004 8046     		mov	r8, r0
 375 0006 0F46     		mov	r7, r1
 376 0008 9146     		mov	r9, r2
 377 000a 1C46     		mov	r4, r3
 378              	.LVL56:
 379:navigation.c  ****     // distance_set is in millimeteres
 380:navigation.c  ****     // will check the front two ultrasonics 
 381:navigation.c  ****     // will move until distance specified in function 
 382:navigation.c  ****     
 383:navigation.c  ****     // direction can be left or right
 384:navigation.c  ****     
 385:navigation.c  ****     int count_left;                 // counts the encoder values
 386:navigation.c  ****     int count_right;
 387:navigation.c  ****     int old_count = -SAFETY_MARGIN*ENCODER_MULTIPLIER;   // used in the old failsafe to check how m
 388:navigation.c  ****                                                         // will enter the failsafe straight away du
 389:navigation.c  ****     int speed_left = speed;         // the set speed of the motors
 390:navigation.c  ****     int speed_right = speed;
 391:navigation.c  ****     //int emergency_exit = FALSE;     // BREAKS out of the code in an emergency 
 392:navigation.c  ****                                   // the ultrasonic sensor we will be using 
 393:navigation.c  ****     int distance_sensor;            // the measured distance of the sensor
 394:navigation.c  **** 
 395:navigation.c  ****     
 396:navigation.c  ****     sensor_distances[ultrasonic_sensor] = ARENA_WIDTH + 100;             // So it will enter the wh
 379              		.loc 1 396 0
 380 000c 40F21452 		movw	r2, #1300
 381              	.LVL57:
 382 0010 484B     		ldr	r3, .L42
 383              	.LVL58:
 384 0012 43F82420 		str	r2, [r3, r4, lsl #2]
 397:navigation.c  ****     while (sensor_distances[ultrasonic_sensor] > ARENA_WIDTH) {          // protects against dodgy 
 385              		.loc 1 397 0
 386 0016 11E0     		b	.L29
 387              	.LVL59:
 388              	.L30:
 398:navigation.c  ****         distanceSensor(ultrasonic_sensor);
 389              		.loc 1 398 0
ARM GAS  C:\Users\Blayke\AppData\Local\Temp\cc62WBhQ.s 			page 15


 390 0018 2046     		mov	r0, r4
 391 001a FFF7FEFF 		bl	distanceSensor
 392              	.LVL60:
 399:navigation.c  ****         CyDelay(50);
 393              		.loc 1 399 0
 394 001e 3220     		movs	r0, #50
 395 0020 FFF7FEFF 		bl	CyDelay
 396              	.LVL61:
 400:navigation.c  ****         distance_sensor = sensor_distances[ultrasonic_sensor];   // checks the distance measured by
 397              		.loc 1 400 0
 398 0024 434B     		ldr	r3, .L42
 399 0026 53F82450 		ldr	r5, [r3, r4, lsl #2]
 400              	.LVL62:
 401:navigation.c  ****         sprintf(output, "%d \t", distance_sensor);       
 401              		.loc 1 401 0
 402 002a 434E     		ldr	r6, .L42+4
 403 002c 2A46     		mov	r2, r5
 404 002e 4349     		ldr	r1, .L42+8
 405 0030 3046     		mov	r0, r6
 406 0032 FFF7FEFF 		bl	sprintf
 407              	.LVL63:
 402:navigation.c  ****         UART_1_PutString(output);
 408              		.loc 1 402 0
 409 0036 3046     		mov	r0, r6
 410 0038 FFF7FEFF 		bl	UART_1_PutString
 411              	.LVL64:
 412              	.L29:
 397:navigation.c  ****         distanceSensor(ultrasonic_sensor);
 413              		.loc 1 397 0
 414 003c 3D4B     		ldr	r3, .L42
 415 003e 53F82430 		ldr	r3, [r3, r4, lsl #2]
 416 0042 B3F5966F 		cmp	r3, #1200
 417 0046 E7DC     		bgt	.L30
 403:navigation.c  ****     }
 404:navigation.c  ****     
 405:navigation.c  ****     //Motor_Left_Driver_Wakeup();
 406:navigation.c  ****     //Motor_Left_Driver_WriteCompare(speed_left);
 407:navigation.c  ****     //Motor_Right_Driver_Wakeup();
 408:navigation.c  ****     //Motor_Right_Driver_WriteCompare(speed_right);
 409:navigation.c  ****         
 410:navigation.c  ****     if (less_or_great == LESS_THAN) {                                         // if distance_set is
 418              		.loc 1 410 0
 419 0048 B9F1040F 		cmp	r9, #4
 420 004c 31D1     		bne	.L32
 421 004e 2AE0     		b	.L31
 422              	.L35:
 411:navigation.c  ****         while (distance_sensor > abs(distance_set)) {                // This adjusts for drift 
 412:navigation.c  ****             
 413:navigation.c  ****             UART_1_PutString("entering greater than\n");
 423              		.loc 1 413 0
 424 0050 3B48     		ldr	r0, .L42+12
 425 0052 FFF7FEFF 		bl	UART_1_PutString
 426              	.LVL65:
 414:navigation.c  ****             
 415:navigation.c  ****             count_left = Motor_Left_Decoder_GetCounter();
 427              		.loc 1 415 0
 428 0056 FFF7FEFF 		bl	Motor_Left_Decoder_GetCounter
ARM GAS  C:\Users\Blayke\AppData\Local\Temp\cc62WBhQ.s 			page 16


 429              	.LVL66:
 416:navigation.c  ****             count_right = Motor_Right_Decoder_GetCounter();
 430              		.loc 1 416 0
 431 005a FFF7FEFF 		bl	Motor_Right_Decoder_GetCounter
 432              	.LVL67:
 417:navigation.c  ****             
 418:navigation.c  ****             if (direction == LEFT) {
 433              		.loc 1 418 0
 434 005e 022F     		cmp	r7, #2
 435 0060 06D1     		bne	.L33
 419:navigation.c  ****                 translateMoveDynamic(-5, 7, speed, FALSE);      // This will translate to the left 
 436              		.loc 1 419 0
 437 0062 0023     		movs	r3, #0
 438 0064 089A     		ldr	r2, [sp, #32]
 439 0066 0721     		movs	r1, #7
 440 0068 6FF00400 		mvn	r0, #4
 441 006c FFF7FEFF 		bl	translateMoveDynamic
 442              	.LVL68:
 443              	.L33:
 420:navigation.c  ****             }
 421:navigation.c  ****             
 422:navigation.c  ****             if (direction == RIGHT) {
 444              		.loc 1 422 0
 445 0070 032F     		cmp	r7, #3
 446 0072 06D1     		bne	.L34
 423:navigation.c  ****                 translateMoveDynamic(5, -7, speed, FALSE);      // This will translate to the right
 447              		.loc 1 423 0
 448 0074 0023     		movs	r3, #0
 449 0076 089A     		ldr	r2, [sp, #32]
 450 0078 6FF00601 		mvn	r1, #6
 451 007c 0520     		movs	r0, #5
 452 007e FFF7FEFF 		bl	translateMoveDynamic
 453              	.LVL69:
 454              	.L34:
 424:navigation.c  ****             }
 425:navigation.c  ****                         
 426:navigation.c  ****             //Motor_Left_Driver_WriteCompare(speed_left);     // update the drivers
 427:navigation.c  ****             //Motor_Right_Driver_WriteCompare(speed_right);
 428:navigation.c  ****             
 429:navigation.c  ****             distanceSensor(ultrasonic_sensor);
 455              		.loc 1 429 0
 456 0082 2046     		mov	r0, r4
 457 0084 FFF7FEFF 		bl	distanceSensor
 458              	.LVL70:
 430:navigation.c  ****             CyDelay(50);
 459              		.loc 1 430 0
 460 0088 3220     		movs	r0, #50
 461 008a FFF7FEFF 		bl	CyDelay
 462              	.LVL71:
 431:navigation.c  ****             //distanceCheckOne(ultrasonic_sensor);                            // checks the distanc
 432:navigation.c  ****             distance_sensor = sensor_distances[ultrasonic_sensor];   // checks the distance measure
 463              		.loc 1 432 0
 464 008e 294B     		ldr	r3, .L42
 465 0090 53F82450 		ldr	r5, [r3, r4, lsl #2]
 466              	.LVL72:
 433:navigation.c  ****             sprintf(output, "%d \t", distance_sensor);       
 467              		.loc 1 433 0
ARM GAS  C:\Users\Blayke\AppData\Local\Temp\cc62WBhQ.s 			page 17


 468 0094 284E     		ldr	r6, .L42+4
 469 0096 2A46     		mov	r2, r5
 470 0098 2849     		ldr	r1, .L42+8
 471 009a 3046     		mov	r0, r6
 472 009c FFF7FEFF 		bl	sprintf
 473              	.LVL73:
 434:navigation.c  ****             UART_1_PutString(output);
 474              		.loc 1 434 0
 475 00a0 3046     		mov	r0, r6
 476 00a2 FFF7FEFF 		bl	UART_1_PutString
 477              	.LVL74:
 478              	.L31:
 411:navigation.c  ****             
 479              		.loc 1 411 0
 480 00a6 88EAE873 		eor	r3, r8, r8, asr #31
 481 00aa A3EBE873 		sub	r3, r3, r8, asr #31
 482 00ae 9D42     		cmp	r5, r3
 483 00b0 CEDC     		bgt	.L35
 484              	.L32:
 435:navigation.c  ****             
 436:navigation.c  ****            
 437:navigation.c  ****             
 438:navigation.c  ****         }
 439:navigation.c  ****     }
 440:navigation.c  ****     
 441:navigation.c  ****     if (less_or_great == GREATER_THAN){                                         // if distance_set 
 485              		.loc 1 441 0
 486 00b2 B9F1050F 		cmp	r9, #5
 487 00b6 31D1     		bne	.L37
 488 00b8 2AE0     		b	.L36
 489              	.L40:
 442:navigation.c  ****         while (distance_sensor < abs(distance_set)) {                // This adjusts for drift 
 443:navigation.c  ****             count_left = Motor_Left_Decoder_GetCounter();
 490              		.loc 1 443 0
 491 00ba FFF7FEFF 		bl	Motor_Left_Decoder_GetCounter
 492              	.LVL75:
 444:navigation.c  ****             count_right = Motor_Right_Decoder_GetCounter();
 493              		.loc 1 444 0
 494 00be FFF7FEFF 		bl	Motor_Right_Decoder_GetCounter
 495              	.LVL76:
 445:navigation.c  ****             
 446:navigation.c  ****             UART_1_PutString("entering less than\n");
 496              		.loc 1 446 0
 497 00c2 2048     		ldr	r0, .L42+16
 498 00c4 FFF7FEFF 		bl	UART_1_PutString
 499              	.LVL77:
 447:navigation.c  **** 
 448:navigation.c  ****             if (direction == LEFT) {
 500              		.loc 1 448 0
 501 00c8 022F     		cmp	r7, #2
 502 00ca 06D1     		bne	.L38
 449:navigation.c  ****                 translateMoveDynamic(-5, 7, speed, FALSE);      // This will translate to the left 
 503              		.loc 1 449 0
 504 00cc 0023     		movs	r3, #0
 505 00ce 089A     		ldr	r2, [sp, #32]
 506 00d0 0721     		movs	r1, #7
 507 00d2 6FF00400 		mvn	r0, #4
ARM GAS  C:\Users\Blayke\AppData\Local\Temp\cc62WBhQ.s 			page 18


 508 00d6 FFF7FEFF 		bl	translateMoveDynamic
 509              	.LVL78:
 510              	.L38:
 450:navigation.c  ****             }
 451:navigation.c  ****             
 452:navigation.c  ****             if (direction == RIGHT) {
 511              		.loc 1 452 0
 512 00da 032F     		cmp	r7, #3
 513 00dc 06D1     		bne	.L39
 453:navigation.c  ****                 translateMoveDynamic(5, -7, speed, FALSE);      // This will translate to the right
 514              		.loc 1 453 0
 515 00de 0023     		movs	r3, #0
 516 00e0 089A     		ldr	r2, [sp, #32]
 517 00e2 6FF00601 		mvn	r1, #6
 518 00e6 0520     		movs	r0, #5
 519 00e8 FFF7FEFF 		bl	translateMoveDynamic
 520              	.LVL79:
 521              	.L39:
 454:navigation.c  ****             }
 455:navigation.c  ****             
 456:navigation.c  ****             //Motor_Left_Driver_WriteCompare(speed_left);         // update the drivers
 457:navigation.c  ****             //Motor_Right_Driver_WriteCompare(speed_right);
 458:navigation.c  ****             
 459:navigation.c  ****             distanceSensor(ultrasonic_sensor);
 522              		.loc 1 459 0
 523 00ec 2046     		mov	r0, r4
 524 00ee FFF7FEFF 		bl	distanceSensor
 525              	.LVL80:
 460:navigation.c  ****             CyDelay(50);
 526              		.loc 1 460 0
 527 00f2 3220     		movs	r0, #50
 528 00f4 FFF7FEFF 		bl	CyDelay
 529              	.LVL81:
 461:navigation.c  ****             
 462:navigation.c  ****             distance_sensor = sensor_distances[ultrasonic_sensor];   // checks the distance measure
 530              		.loc 1 462 0
 531 00f8 0E4B     		ldr	r3, .L42
 532 00fa 53F82450 		ldr	r5, [r3, r4, lsl #2]
 533              	.LVL82:
 463:navigation.c  ****             sprintf(output, "%d \t", distance_sensor);       
 534              		.loc 1 463 0
 535 00fe 0E4E     		ldr	r6, .L42+4
 536 0100 2A46     		mov	r2, r5
 537 0102 0E49     		ldr	r1, .L42+8
 538 0104 3046     		mov	r0, r6
 539 0106 FFF7FEFF 		bl	sprintf
 540              	.LVL83:
 464:navigation.c  ****             UART_1_PutString(output);
 541              		.loc 1 464 0
 542 010a 3046     		mov	r0, r6
 543 010c FFF7FEFF 		bl	UART_1_PutString
 544              	.LVL84:
 545              	.L36:
 442:navigation.c  ****             count_left = Motor_Left_Decoder_GetCounter();
 546              		.loc 1 442 0
 547 0110 88EAE873 		eor	r3, r8, r8, asr #31
 548 0114 A3EBE873 		sub	r3, r3, r8, asr #31
ARM GAS  C:\Users\Blayke\AppData\Local\Temp\cc62WBhQ.s 			page 19


 549 0118 9D42     		cmp	r5, r3
 550 011a CEDB     		blt	.L40
 551              	.L37:
 465:navigation.c  ****             
 466:navigation.c  ****         }
 467:navigation.c  ****     }
 468:navigation.c  ****     
 469:navigation.c  ****     //sprintf(output, "left motor: %d \n", count_left);       
 470:navigation.c  ****     //UART_1_PutString(output);
 471:navigation.c  ****     //sprintf(output, "right motor: %d \n", count_right);      
 472:navigation.c  ****     //UART_1_PutString(output);
 473:navigation.c  ****         
 474:navigation.c  ****     UART_1_PutString("exited loop");
 552              		.loc 1 474 0
 553 011c 0A48     		ldr	r0, .L42+20
 554 011e FFF7FEFF 		bl	UART_1_PutString
 555              	.LVL85:
 475:navigation.c  ****     
 476:navigation.c  ****     Motor_Left_Decoder_SetCounter(0);                       // RESET the decoders to 0
 556              		.loc 1 476 0
 557 0122 0020     		movs	r0, #0
 558 0124 FFF7FEFF 		bl	Motor_Left_Decoder_SetCounter
 559              	.LVL86:
 477:navigation.c  ****     Motor_Right_Decoder_SetCounter(0);   
 560              		.loc 1 477 0
 561 0128 0020     		movs	r0, #0
 562 012a FFF7FEFF 		bl	Motor_Right_Decoder_SetCounter
 563              	.LVL87:
 564 012e BDE8F883 		pop	{r3, r4, r5, r6, r7, r8, r9, pc}
 565              	.LVL88:
 566              	.L43:
 567 0132 00BF     		.align	2
 568              	.L42:
 569 0134 00000000 		.word	sensor_distances
 570 0138 00000000 		.word	output
 571 013c 08000000 		.word	.LC1
 572 0140 10000000 		.word	.LC2
 573 0144 28000000 		.word	.LC3
 574 0148 3C000000 		.word	.LC4
 575              		.cfi_endproc
 576              	.LFE69:
 577              		.size	translateUntil, .-translateUntil
 578              		.section	.text.failsafe,"ax",%progbits
 579              		.align	2
 580              		.global	failsafe
 581              		.thumb
 582              		.thumb_func
 583              		.type	failsafe, %function
 584              	failsafe:
 585              	.LFB70:
 478:navigation.c  ****     
 479:navigation.c  ****     //Motor_Left_Driver_Sleep();              // Puts motors to sleep 
 480:navigation.c  ****     //Motor_Right_Driver_Sleep();
 481:navigation.c  ****     
 482:navigation.c  **** }
 483:navigation.c  **** 
 484:navigation.c  **** int failsafe(int direction) {
ARM GAS  C:\Users\Blayke\AppData\Local\Temp\cc62WBhQ.s 			page 20


 586              		.loc 1 484 0
 587              		.cfi_startproc
 588              		@ args = 0, pretend = 0, frame = 0
 589              		@ frame_needed = 0, uses_anonymous_args = 0
 590              	.LVL89:
 591 0000 10B5     		push	{r4, lr}
 592              		.cfi_def_cfa_offset 8
 593              		.cfi_offset 4, -8
 594              		.cfi_offset 14, -4
 485:navigation.c  ****     int check_distance;
 486:navigation.c  ****     
 487:navigation.c  ****     // SAFETY OVERRIDE:
 488:navigation.c  ****     if(safety_override == TRUE){
 595              		.loc 1 488 0
 596 0002 1C4B     		ldr	r3, .L52
 597 0004 1B68     		ldr	r3, [r3]
 598 0006 012B     		cmp	r3, #1
 599 0008 2DD0     		beq	.L48
 489:navigation.c  ****         return FALSE;
 490:navigation.c  ****     }
 491:navigation.c  ****     
 492:navigation.c  ****     // detecting direction:    
 493:navigation.c  ****     if (direction == BACKWARD) {
 600              		.loc 1 493 0
 601 000a A0B9     		cbnz	r0, .L46
 494:navigation.c  ****         distanceSensor(BACK_RIGHT);
 602              		.loc 1 494 0
 603 000c 0520     		movs	r0, #5
 604              	.LVL90:
 605 000e FFF7FEFF 		bl	distanceSensor
 606              	.LVL91:
 495:navigation.c  ****         CyDelay(50);
 607              		.loc 1 495 0
 608 0012 3220     		movs	r0, #50
 609 0014 FFF7FEFF 		bl	CyDelay
 610              	.LVL92:
 496:navigation.c  ****         
 497:navigation.c  ****         check_distance = sensor_distances[BACK_RIGHT];   // checks the distance measured by the ult
 611              		.loc 1 497 0
 612 0018 174B     		ldr	r3, .L52+4
 613 001a 5A69     		ldr	r2, [r3, #20]
 614              	.LVL93:
 498:navigation.c  ****         if (check_distance < SAFETY_MARGIN && check_distance > 0) { 
 615              		.loc 1 498 0
 616 001c 531E     		subs	r3, r2, #1
 617 001e 532B     		cmp	r3, #83
 618 0020 23D8     		bhi	.L49
 499:navigation.c  ****             sprintf(output, "SAFETY MARGIN ACTIVATED @ %d\n", check_distance);      
 619              		.loc 1 499 0
 620 0022 164C     		ldr	r4, .L52+8
 621 0024 1649     		ldr	r1, .L52+12
 622 0026 2046     		mov	r0, r4
 623 0028 FFF7FEFF 		bl	sprintf
 624              	.LVL94:
 500:navigation.c  ****             UART_1_PutString(output); 
 625              		.loc 1 500 0
 626 002c 2046     		mov	r0, r4
ARM GAS  C:\Users\Blayke\AppData\Local\Temp\cc62WBhQ.s 			page 21


 627 002e FFF7FEFF 		bl	UART_1_PutString
 628              	.LVL95:
 501:navigation.c  ****             return TRUE; 
 629              		.loc 1 501 0
 630 0032 0120     		movs	r0, #1
 631 0034 10BD     		pop	{r4, pc}
 632              	.LVL96:
 633              	.L46:
 502:navigation.c  ****         }
 503:navigation.c  ****         else { return FALSE; }
 504:navigation.c  ****     }
 505:navigation.c  ****     else if (direction == FORWARD) {
 634              		.loc 1 505 0
 635 0036 0128     		cmp	r0, #1
 636 0038 14D1     		bne	.L47
 506:navigation.c  ****         distanceSensor(FRONT_LEFT);
 637              		.loc 1 506 0
 638 003a 0020     		movs	r0, #0
 639              	.LVL97:
 640 003c FFF7FEFF 		bl	distanceSensor
 641              	.LVL98:
 507:navigation.c  ****         CyDelay(50);
 642              		.loc 1 507 0
 643 0040 3220     		movs	r0, #50
 644 0042 FFF7FEFF 		bl	CyDelay
 645              	.LVL99:
 508:navigation.c  ****         //distanceSensor(FRONT_RIGHT);      // May need to add this in of front left sensor isnt en
 509:navigation.c  ****         //CyDelay(50);
 510:navigation.c  ****         
 511:navigation.c  ****         check_distance = sensor_distances[FRONT_LEFT];   // checks the distance measured by the ult
 646              		.loc 1 511 0
 647 0046 0C4B     		ldr	r3, .L52+4
 648 0048 1A68     		ldr	r2, [r3]
 649              	.LVL100:
 512:navigation.c  ****         if (check_distance < SAFETY_MARGIN && check_distance > 0) { 
 650              		.loc 1 512 0
 651 004a 531E     		subs	r3, r2, #1
 652 004c 532B     		cmp	r3, #83
 653 004e 0ED8     		bhi	.L50
 513:navigation.c  ****             sprintf(output, "SAFETY MARGIN ACTIVATED @ %d\n", check_distance);      
 654              		.loc 1 513 0
 655 0050 0A4C     		ldr	r4, .L52+8
 656 0052 0B49     		ldr	r1, .L52+12
 657 0054 2046     		mov	r0, r4
 658 0056 FFF7FEFF 		bl	sprintf
 659              	.LVL101:
 514:navigation.c  ****             UART_1_PutString(output); 
 660              		.loc 1 514 0
 661 005a 2046     		mov	r0, r4
 662 005c FFF7FEFF 		bl	UART_1_PutString
 663              	.LVL102:
 515:navigation.c  ****             return TRUE; 
 664              		.loc 1 515 0
 665 0060 0120     		movs	r0, #1
 666 0062 10BD     		pop	{r4, pc}
 667              	.LVL103:
 668              	.L47:
ARM GAS  C:\Users\Blayke\AppData\Local\Temp\cc62WBhQ.s 			page 22


 669              	.LVL104:
 516:navigation.c  ****         }
 517:navigation.c  ****         else { return FALSE; }
 518:navigation.c  ****     }
 519:navigation.c  ****     
 520:navigation.c  ****     // detecting side sensor usage: 
 521:navigation.c  ****     
 522:navigation.c  ****     
 523:navigation.c  ****     
 524:navigation.c  ****     // Considerations:
 525:navigation.c  ****         // we may not want this failsafe enabled in some cases
 526:navigation.c  ****     
 527:navigation.c  **** }
 670              		.loc 1 527 0
 671 0064 10BD     		pop	{r4, pc}
 672              	.LVL105:
 673              	.L48:
 489:navigation.c  ****     }
 674              		.loc 1 489 0
 675 0066 0020     		movs	r0, #0
 676              	.LVL106:
 677 0068 10BD     		pop	{r4, pc}
 678              	.LVL107:
 679              	.L49:
 503:navigation.c  ****     }
 680              		.loc 1 503 0
 681 006a 0020     		movs	r0, #0
 682 006c 10BD     		pop	{r4, pc}
 683              	.L50:
 517:navigation.c  ****     }
 684              		.loc 1 517 0
 685 006e 0020     		movs	r0, #0
 686              		.loc 1 527 0
 687 0070 10BD     		pop	{r4, pc}
 688              	.L53:
 689 0072 00BF     		.align	2
 690              	.L52:
 691 0074 00000000 		.word	safety_override
 692 0078 00000000 		.word	sensor_distances
 693 007c 00000000 		.word	output
 694 0080 48000000 		.word	.LC5
 695              		.cfi_endproc
 696              	.LFE70:
 697              		.size	failsafe, .-failsafe
 698              		.global	__aeabi_i2d
 699              		.global	__aeabi_dadd
 700              		.global	__aeabi_dsub
 701              		.global	__aeabi_dcmpgt
 702              		.section	.text.moveUntil,"ax",%progbits
 703              		.align	2
 704              		.global	moveUntil
 705              		.thumb
 706              		.thumb_func
 707              		.type	moveUntil, %function
 708              	moveUntil:
 709              	.LFB67:
 141:navigation.c  ****     // This function will move until given a set distance (in mm)
ARM GAS  C:\Users\Blayke\AppData\Local\Temp\cc62WBhQ.s 			page 23


 710              		.loc 1 141 0
 711              		.cfi_startproc
 712              		@ args = 8, pretend = 0, frame = 32
 713              		@ frame_needed = 0, uses_anonymous_args = 0
 714              	.LVL108:
 715 0000 2DE9F04F 		push	{r4, r5, r6, r7, r8, r9, r10, fp, lr}
 716              		.cfi_def_cfa_offset 36
 717              		.cfi_offset 4, -36
 718              		.cfi_offset 5, -32
 719              		.cfi_offset 6, -28
 720              		.cfi_offset 7, -24
 721              		.cfi_offset 8, -20
 722              		.cfi_offset 9, -16
 723              		.cfi_offset 10, -12
 724              		.cfi_offset 11, -8
 725              		.cfi_offset 14, -4
 726 0004 89B0     		sub	sp, sp, #36
 727              		.cfi_def_cfa_offset 72
 728 0006 8346     		mov	fp, r0
 729 0008 0791     		str	r1, [sp, #28]
 730 000a 0592     		str	r2, [sp, #20]
 731 000c 1C46     		mov	r4, r3
 732 000e 129E     		ldr	r6, [sp, #72]
 733              	.LVL109:
 178:navigation.c  ****         Motor_Left_Control_Write(0); 
 734              		.loc 1 178 0
 735 0010 0129     		cmp	r1, #1
 736 0012 05D1     		bne	.L55
 179:navigation.c  ****         Motor_Right_Control_Write(0); 
 737              		.loc 1 179 0
 738 0014 0020     		movs	r0, #0
 739              	.LVL110:
 740 0016 FFF7FEFF 		bl	Motor_Left_Control_Write
 741              	.LVL111:
 180:navigation.c  ****     }
 742              		.loc 1 180 0
 743 001a 0020     		movs	r0, #0
 744 001c FFF7FEFF 		bl	Motor_Right_Control_Write
 745              	.LVL112:
 746              	.L55:
 182:navigation.c  ****         Motor_Left_Control_Write(1); 
 747              		.loc 1 182 0
 748 0020 079B     		ldr	r3, [sp, #28]
 749 0022 2BB9     		cbnz	r3, .L56
 183:navigation.c  ****         Motor_Right_Control_Write(1);
 750              		.loc 1 183 0
 751 0024 0120     		movs	r0, #1
 752 0026 FFF7FEFF 		bl	Motor_Left_Control_Write
 753              	.LVL113:
 184:navigation.c  ****     }
 754              		.loc 1 184 0
 755 002a 0120     		movs	r0, #1
 756 002c FFF7FEFF 		bl	Motor_Right_Control_Write
 757              	.LVL114:
 758              	.L56:
 191:navigation.c  ****     while (sensor_distances[ultrasonic_sensor] > ARENA_WIDTH) {          // protects against dodgy 
 759              		.loc 1 191 0
ARM GAS  C:\Users\Blayke\AppData\Local\Temp\cc62WBhQ.s 			page 24


 760 0030 40F21452 		movw	r2, #1300
 761 0034 A04B     		ldr	r3, .L82+16
 762 0036 43F82420 		str	r2, [r3, r4, lsl #2]
 192:navigation.c  ****         distanceSensor(ultrasonic_sensor);
 763              		.loc 1 192 0
 764 003a 11E0     		b	.L57
 765              	.LVL115:
 766              	.L58:
 193:navigation.c  ****         CyDelay(50);
 767              		.loc 1 193 0
 768 003c 2046     		mov	r0, r4
 769 003e FFF7FEFF 		bl	distanceSensor
 770              	.LVL116:
 194:navigation.c  ****         distance_sensor = sensor_distances[ultrasonic_sensor];   // checks the distance measured by
 771              		.loc 1 194 0
 772 0042 3220     		movs	r0, #50
 773 0044 FFF7FEFF 		bl	CyDelay
 774              	.LVL117:
 195:navigation.c  ****         sprintf(output, "%d \t", distance_sensor);       
 775              		.loc 1 195 0
 776 0048 9B4B     		ldr	r3, .L82+16
 777 004a 53F82450 		ldr	r5, [r3, r4, lsl #2]
 778              	.LVL118:
 196:navigation.c  ****         UART_1_PutString(output);
 779              		.loc 1 196 0
 780 004e 9B4F     		ldr	r7, .L82+20
 781 0050 2A46     		mov	r2, r5
 782 0052 9B49     		ldr	r1, .L82+24
 783 0054 3846     		mov	r0, r7
 784 0056 FFF7FEFF 		bl	sprintf
 785              	.LVL119:
 197:navigation.c  ****     }
 786              		.loc 1 197 0
 787 005a 3846     		mov	r0, r7
 788 005c FFF7FEFF 		bl	UART_1_PutString
 789              	.LVL120:
 790              	.L57:
 192:navigation.c  ****         distanceSensor(ultrasonic_sensor);
 791              		.loc 1 192 0
 792 0060 954B     		ldr	r3, .L82+16
 793 0062 53F82430 		ldr	r3, [r3, r4, lsl #2]
 794 0066 B3F5966F 		cmp	r3, #1200
 795 006a E7DC     		bgt	.L58
 202:navigation.c  ****     Motor_Left_Driver_WriteCompare(speed_left);
 796              		.loc 1 202 0
 797 006c FFF7FEFF 		bl	Motor_Left_Driver_Wakeup
 798              	.LVL121:
 203:navigation.c  ****     Motor_Right_Driver_Wakeup();
 799              		.loc 1 203 0
 800 0070 5FFA86F8 		uxtb	r8, r6
 801 0074 4046     		mov	r0, r8
 802 0076 FFF7FEFF 		bl	Motor_Left_Driver_WriteCompare
 803              	.LVL122:
 204:navigation.c  ****     Motor_Right_Driver_WriteCompare(speed_right);
 804              		.loc 1 204 0
 805 007a FFF7FEFF 		bl	Motor_Right_Driver_Wakeup
 806              	.LVL123:
ARM GAS  C:\Users\Blayke\AppData\Local\Temp\cc62WBhQ.s 			page 25


 205:navigation.c  ****     
 807              		.loc 1 205 0
 808 007e 4046     		mov	r0, r8
 809 0080 FFF7FEFF 		bl	Motor_Right_Driver_WriteCompare
 810              	.LVL124:
 207:navigation.c  ****         //UART_1_PutString("\n GREATER THAN LOOP: \n");
 811              		.loc 1 207 0
 812 0084 059B     		ldr	r3, [sp, #20]
 813 0086 052B     		cmp	r3, #5
 814 0088 79D0     		beq	.L76
 154:navigation.c  ****     int front_sensor_flag = FALSE;
 815              		.loc 1 154 0
 816 008a B246     		mov	r10, r6
 153:navigation.c  ****     int speed_right = speed;
 817              		.loc 1 153 0
 818 008c B146     		mov	r9, r6
 161:navigation.c  ****     
 819              		.loc 1 161 0
 820 008e 0027     		movs	r7, #0
 159:navigation.c  ****                                                         // will enter the failsafe check straight a
 821              		.loc 1 159 0
 822 0090 6FF4A763 		mvn	r3, #1336
 823 0094 0193     		str	r3, [sp, #4]
 824 0096 87E0     		b	.L60
 825              	.LVL125:
 826              	.L68:
 827              	.LBB2:
 211:navigation.c  ****             count_right = Motor_Right_Decoder_GetCounter();
 828              		.loc 1 211 0
 829 0098 FFF7FEFF 		bl	Motor_Left_Decoder_GetCounter
 830              	.LVL126:
 831 009c 0746     		mov	r7, r0
 832 009e 0490     		str	r0, [sp, #16]
 833              	.LVL127:
 212:navigation.c  ****             
 834              		.loc 1 212 0
 835 00a0 FFF7FEFF 		bl	Motor_Right_Decoder_GetCounter
 836              	.LVL128:
 215:navigation.c  ****                 speed_left = speed - ADJUST;
 837              		.loc 1 215 0
 838 00a4 002F     		cmp	r7, #0
 839 00a6 B8BF     		it	lt
 840 00a8 7F42     		rsblt	r7, r7, #0
 841              	.LVL129:
 842 00aa 0028     		cmp	r0, #0
 843 00ac B8BF     		it	lt
 844 00ae 4042     		rsblt	r0, r0, #0
 845              	.LVL130:
 846 00b0 8742     		cmp	r7, r0
 847 00b2 03DD     		ble	.L61
 216:navigation.c  ****                 speed_right = speed + ADJUST;
 848              		.loc 1 216 0
 849 00b4 A6F10409 		sub	r9, r6, #4
 850              	.LVL131:
 217:navigation.c  ****             }        
 851              		.loc 1 217 0
 852 00b8 06F1040A 		add	r10, r6, #4
ARM GAS  C:\Users\Blayke\AppData\Local\Temp\cc62WBhQ.s 			page 26


 853              	.LVL132:
 854              	.L61:
 219:navigation.c  ****                 speed_right = speed - ADJUST;              
 855              		.loc 1 219 0
 856 00bc 8742     		cmp	r7, r0
 857 00be 03DA     		bge	.L62
 220:navigation.c  ****                 speed_left = speed + ADJUST;
 858              		.loc 1 220 0
 859 00c0 A6F1040A 		sub	r10, r6, #4
 860              	.LVL133:
 221:navigation.c  ****             }
 861              		.loc 1 221 0
 862 00c4 06F10409 		add	r9, r6, #4
 863              	.LVL134:
 864              	.L62:
 225:navigation.c  ****             Motor_Right_Driver_WriteCompare(speed_right);
 865              		.loc 1 225 0
 866 00c8 5FFA89F0 		uxtb	r0, r9
 867 00cc FFF7FEFF 		bl	Motor_Left_Driver_WriteCompare
 868              	.LVL135:
 226:navigation.c  ****             
 869              		.loc 1 226 0
 870 00d0 5FFA8AF0 		uxtb	r0, r10
 871 00d4 FFF7FEFF 		bl	Motor_Right_Driver_WriteCompare
 872              	.LVL136:
 229:navigation.c  ****                 distanceSensor(FRONT_LEFT);
 873              		.loc 1 229 0
 874 00d8 072C     		cmp	r4, #7
 875 00da 0DD1     		bne	.L63
 229:navigation.c  ****                 distanceSensor(FRONT_LEFT);
 876              		.loc 1 229 0 is_stmt 0 discriminator 1
 877 00dc 069B     		ldr	r3, [sp, #24]
 878 00de 5BB1     		cbz	r3, .L63
 230:navigation.c  ****                 CyDelay(50);
 879              		.loc 1 230 0 is_stmt 1
 880 00e0 0020     		movs	r0, #0
 881 00e2 FFF7FEFF 		bl	distanceSensor
 882              	.LVL137:
 231:navigation.c  ****                 distance_sensor = sensor_distances[ultrasonic_sensor];   // checks the distance mea
 883              		.loc 1 231 0
 884 00e6 3220     		movs	r0, #50
 885 00e8 FFF7FEFF 		bl	CyDelay
 886              	.LVL138:
 232:navigation.c  ****                 front_sensor_flag = FALSE;
 887              		.loc 1 232 0
 888 00ec 724B     		ldr	r3, .L82+16
 889 00ee 53F82450 		ldr	r5, [r3, r4, lsl #2]
 890              	.LVL139:
 233:navigation.c  ****             }
 891              		.loc 1 233 0
 892 00f2 0023     		movs	r3, #0
 893 00f4 0693     		str	r3, [sp, #24]
 894 00f6 20E0     		b	.L64
 895              	.LVL140:
 896              	.L63:
 235:navigation.c  ****                 distanceSensor(FRONT_RIGHT);
 897              		.loc 1 235 0
ARM GAS  C:\Users\Blayke\AppData\Local\Temp\cc62WBhQ.s 			page 27


 898 00f8 072C     		cmp	r4, #7
 899 00fa 0DD1     		bne	.L65
 235:navigation.c  ****                 distanceSensor(FRONT_RIGHT);
 900              		.loc 1 235 0 is_stmt 0 discriminator 1
 901 00fc 069B     		ldr	r3, [sp, #24]
 902 00fe 5BB9     		cbnz	r3, .L65
 236:navigation.c  ****                 CyDelay(50);
 903              		.loc 1 236 0 is_stmt 1
 904 0100 0120     		movs	r0, #1
 905 0102 FFF7FEFF 		bl	distanceSensor
 906              	.LVL141:
 237:navigation.c  ****                 distance_sensor = sensor_distances[ultrasonic_sensor];   // checks the distance mea
 907              		.loc 1 237 0
 908 0106 3220     		movs	r0, #50
 909 0108 FFF7FEFF 		bl	CyDelay
 910              	.LVL142:
 238:navigation.c  ****                 front_sensor_flag = TRUE;
 911              		.loc 1 238 0
 912 010c 6A4B     		ldr	r3, .L82+16
 913 010e 53F82450 		ldr	r5, [r3, r4, lsl #2]
 914              	.LVL143:
 239:navigation.c  ****             }
 915              		.loc 1 239 0
 916 0112 0123     		movs	r3, #1
 917 0114 0693     		str	r3, [sp, #24]
 918 0116 10E0     		b	.L64
 919              	.LVL144:
 920              	.L65:
 242:navigation.c  ****                 CyDelay(50);
 921              		.loc 1 242 0
 922 0118 2046     		mov	r0, r4
 923 011a FFF7FEFF 		bl	distanceSensor
 924              	.LVL145:
 243:navigation.c  ****                 distance_sensor = sensor_distances[ultrasonic_sensor];   // checks the distance mea
 925              		.loc 1 243 0
 926 011e 3220     		movs	r0, #50
 927 0120 FFF7FEFF 		bl	CyDelay
 928              	.LVL146:
 244:navigation.c  ****                 sprintf(output, "%d \t", distance_sensor);       
 929              		.loc 1 244 0
 930 0124 644B     		ldr	r3, .L82+16
 931 0126 53F82450 		ldr	r5, [r3, r4, lsl #2]
 932              	.LVL147:
 245:navigation.c  ****                 UART_1_PutString(output);
 933              		.loc 1 245 0
 934 012a 2A46     		mov	r2, r5
 935 012c 6449     		ldr	r1, .L82+24
 936 012e 6348     		ldr	r0, .L82+20
 937 0130 FFF7FEFF 		bl	sprintf
 938              	.LVL148:
 246:navigation.c  ****             }
 939              		.loc 1 246 0
 940 0134 6148     		ldr	r0, .L82+20
 941 0136 FFF7FEFF 		bl	UART_1_PutString
 942              	.LVL149:
 943              	.L64:
 256:navigation.c  ****                                         && failsafe_alternator == TRUE 
ARM GAS  C:\Users\Blayke\AppData\Local\Temp\cc62WBhQ.s 			page 28


 944              		.loc 1 256 0
 945 013a 3846     		mov	r0, r7
 946 013c FFF7FEFF 		bl	__aeabi_i2d
 947              	.LVL150:
 948 0140 CDE90201 		strd	r0, [sp, #8]
 949 0144 0198     		ldr	r0, [sp, #4]
 950 0146 FFF7FEFF 		bl	__aeabi_i2d
 951              	.LVL151:
 952 014a 57A3     		adr	r3, .L82
 953 014c D3E90023 		ldrd	r2, [r3]
 954 0150 FFF7FEFF 		bl	__aeabi_dadd
 955              	.LVL152:
 956 0154 0022     		movs	r2, #0
 957 0156 5B4B     		ldr	r3, .L82+28
 958 0158 FFF7FEFF 		bl	__aeabi_dsub
 959              	.LVL153:
 960 015c 0246     		mov	r2, r0
 961 015e 0B46     		mov	r3, r1
 962 0160 DDE90201 		ldrd	r0, [sp, #8]
 963 0164 FFF7FEFF 		bl	__aeabi_dcmpgt
 964              	.LVL154:
 965 0168 88B1     		cbz	r0, .L59
 258:navigation.c  ****                 emergency_exit = failsafe(direction);
 966              		.loc 1 258 0
 967 016a 139B     		ldr	r3, [sp, #76]
 968 016c 012B     		cmp	r3, #1
 969 016e 0ED1     		bne	.L59
 259:navigation.c  ****                 old_count = count_left;
 970              		.loc 1 259 0
 971 0170 0798     		ldr	r0, [sp, #28]
 972 0172 FFF7FEFF 		bl	failsafe
 973              	.LVL155:
 974 0176 8046     		mov	r8, r0
 975              	.LVL156:
 260:navigation.c  ****                 //failsafe_alternator = FALSE;
 976              		.loc 1 260 0
 977 0178 049B     		ldr	r3, [sp, #16]
 978 017a 0193     		str	r3, [sp, #4]
 979 017c 07E0     		b	.L59
 980              	.LVL157:
 981              	.L76:
 982              	.LBE2:
 983 017e B246     		mov	r10, r6
 984 0180 B146     		mov	r9, r6
 985 0182 0027     		movs	r7, #0
 986 0184 6FF4A763 		mvn	r3, #1336
 987 0188 0193     		str	r3, [sp, #4]
 988 018a 0697     		str	r7, [sp, #24]
 989 018c B846     		mov	r8, r7
 990              	.LVL158:
 991              	.L59:
 209:navigation.c  ****             
 992              		.loc 1 209 0
 993 018e 8BEAEB73 		eor	r3, fp, fp, asr #31
 994 0192 A3EBEB73 		sub	r3, r3, fp, asr #31
 995 0196 9D42     		cmp	r5, r3
 996 0198 05DA     		bge	.L79
ARM GAS  C:\Users\Blayke\AppData\Local\Temp\cc62WBhQ.s 			page 29


 209:navigation.c  ****             
 997              		.loc 1 209 0 is_stmt 0 discriminator 1
 998 019a B8F1000F 		cmp	r8, #0
 999 019e 3FF47BAF 		beq	.L68
 1000 01a2 4746     		mov	r7, r8
 1001 01a4 00E0     		b	.L60
 1002              	.L79:
 1003 01a6 4746     		mov	r7, r8
 1004              	.LVL159:
 1005              	.L60:
 277:navigation.c  ****         //UART_1_PutString("\n LESS THAN LOOP: \n");
 1006              		.loc 1 277 0 is_stmt 1
 1007 01a8 059B     		ldr	r3, [sp, #20]
 1008 01aa 042B     		cmp	r3, #4
 1009 01ac 5CD1     		bne	.L70
 1010 01ae B846     		mov	r8, r7
 1011 01b0 51E0     		b	.L69
 1012              	.LVL160:
 1013              	.L75:
 1014              	.LBB3:
 281:navigation.c  ****             count_right = Motor_Right_Decoder_GetCounter();
 1015              		.loc 1 281 0
 1016 01b2 FFF7FEFF 		bl	Motor_Left_Decoder_GetCounter
 1017              	.LVL161:
 1018 01b6 0746     		mov	r7, r0
 1019 01b8 0490     		str	r0, [sp, #16]
 1020              	.LVL162:
 282:navigation.c  ****             
 1021              		.loc 1 282 0
 1022 01ba FFF7FEFF 		bl	Motor_Right_Decoder_GetCounter
 1023              	.LVL163:
 285:navigation.c  ****                 speed_left = speed - ADJUST;
 1024              		.loc 1 285 0
 1025 01be 002F     		cmp	r7, #0
 1026 01c0 B8BF     		it	lt
 1027 01c2 7F42     		rsblt	r7, r7, #0
 1028              	.LVL164:
 1029 01c4 0028     		cmp	r0, #0
 1030 01c6 B8BF     		it	lt
 1031 01c8 4042     		rsblt	r0, r0, #0
 1032              	.LVL165:
 1033 01ca 8742     		cmp	r7, r0
 1034 01cc 03DD     		ble	.L71
 286:navigation.c  ****                 speed_right = speed + ADJUST;
 1035              		.loc 1 286 0
 1036 01ce A6F10409 		sub	r9, r6, #4
 1037              	.LVL166:
 287:navigation.c  ****             }        
 1038              		.loc 1 287 0
 1039 01d2 06F1040A 		add	r10, r6, #4
 1040              	.LVL167:
 1041              	.L71:
 289:navigation.c  ****                     speed_right = speed - ADJUST;              // If the speeds are equal, we decre
 1042              		.loc 1 289 0
 1043 01d6 8742     		cmp	r7, r0
 1044 01d8 03DA     		bge	.L72
 290:navigation.c  ****                                                         // adjust tolerance 
ARM GAS  C:\Users\Blayke\AppData\Local\Temp\cc62WBhQ.s 			page 30


 1045              		.loc 1 290 0
 1046 01da A6F1040A 		sub	r10, r6, #4
 1047              	.LVL168:
 292:navigation.c  ****             }
 1048              		.loc 1 292 0
 1049 01de 06F10409 		add	r9, r6, #4
 1050              	.LVL169:
 1051              	.L72:
 296:navigation.c  ****             Motor_Right_Driver_WriteCompare(speed_right);
 1052              		.loc 1 296 0
 1053 01e2 5FFA89F0 		uxtb	r0, r9
 1054 01e6 FFF7FEFF 		bl	Motor_Left_Driver_WriteCompare
 1055              	.LVL170:
 297:navigation.c  ****             
 1056              		.loc 1 297 0
 1057 01ea 5FFA8AF0 		uxtb	r0, r10
 1058 01ee FFF7FEFF 		bl	Motor_Right_Driver_WriteCompare
 1059              	.LVL171:
 299:navigation.c  ****             CyDelay(50);
 1060              		.loc 1 299 0
 1061 01f2 2046     		mov	r0, r4
 1062 01f4 FFF7FEFF 		bl	distanceSensor
 1063              	.LVL172:
 300:navigation.c  ****             distance_sensor = sensor_distances[ultrasonic_sensor];   // checks the distance measure
 1064              		.loc 1 300 0
 1065 01f8 3220     		movs	r0, #50
 1066 01fa FFF7FEFF 		bl	CyDelay
 1067              	.LVL173:
 301:navigation.c  ****             sprintf(output, "%d \t", distance_sensor);       
 1068              		.loc 1 301 0
 1069 01fe 2E4B     		ldr	r3, .L82+16
 1070 0200 53F82450 		ldr	r5, [r3, r4, lsl #2]
 1071              	.LVL174:
 302:navigation.c  ****             UART_1_PutString(output);
 1072              		.loc 1 302 0
 1073 0204 2A46     		mov	r2, r5
 1074 0206 2E49     		ldr	r1, .L82+24
 1075 0208 2C48     		ldr	r0, .L82+20
 1076 020a FFF7FEFF 		bl	sprintf
 1077              	.LVL175:
 303:navigation.c  ****             
 1078              		.loc 1 303 0
 1079 020e 2B48     		ldr	r0, .L82+20
 1080 0210 FFF7FEFF 		bl	UART_1_PutString
 1081              	.LVL176:
 312:navigation.c  ****                                         && failsafe_alternator == TRUE 
 1082              		.loc 1 312 0
 1083 0214 3846     		mov	r0, r7
 1084 0216 FFF7FEFF 		bl	__aeabi_i2d
 1085              	.LVL177:
 1086 021a CDE90201 		strd	r0, [sp, #8]
 1087 021e 0198     		ldr	r0, [sp, #4]
 1088 0220 FFF7FEFF 		bl	__aeabi_i2d
 1089              	.LVL178:
 1090 0224 22A3     		adr	r3, .L82+8
 1091 0226 D3E90023 		ldrd	r2, [r3]
 1092 022a FFF7FEFF 		bl	__aeabi_dadd
ARM GAS  C:\Users\Blayke\AppData\Local\Temp\cc62WBhQ.s 			page 31


 1093              	.LVL179:
 1094 022e 0022     		movs	r2, #0
 1095 0230 244B     		ldr	r3, .L82+28
 1096 0232 FFF7FEFF 		bl	__aeabi_dsub
 1097              	.LVL180:
 1098 0236 0246     		mov	r2, r0
 1099 0238 0B46     		mov	r3, r1
 1100 023a DDE90201 		ldrd	r0, [sp, #8]
 1101 023e FFF7FEFF 		bl	__aeabi_dcmpgt
 1102              	.LVL181:
 1103 0242 40B1     		cbz	r0, .L69
 314:navigation.c  ****                 emergency_exit = failsafe(direction);
 1104              		.loc 1 314 0
 1105 0244 139B     		ldr	r3, [sp, #76]
 1106 0246 012B     		cmp	r3, #1
 1107 0248 05D1     		bne	.L69
 315:navigation.c  ****                 old_count = count_left;
 1108              		.loc 1 315 0
 1109 024a 0798     		ldr	r0, [sp, #28]
 1110 024c FFF7FEFF 		bl	failsafe
 1111              	.LVL182:
 1112 0250 8046     		mov	r8, r0
 1113              	.LVL183:
 316:navigation.c  ****                 //failsafe_alternator = FALSE;
 1114              		.loc 1 316 0
 1115 0252 049B     		ldr	r3, [sp, #16]
 1116 0254 0193     		str	r3, [sp, #4]
 1117              	.LVL184:
 1118              	.L69:
 1119              	.LBE3:
 279:navigation.c  ****             
 1120              		.loc 1 279 0
 1121 0256 8BEAEB73 		eor	r3, fp, fp, asr #31
 1122 025a A3EBEB73 		sub	r3, r3, fp, asr #31
 1123 025e 9D42     		cmp	r5, r3
 1124 0260 02DD     		ble	.L70
 279:navigation.c  ****             
 1125              		.loc 1 279 0 is_stmt 0 discriminator 1
 1126 0262 B8F1000F 		cmp	r8, #0
 1127 0266 A4D0     		beq	.L75
 1128              	.LVL185:
 1129              	.L70:
 341:navigation.c  ****     CyDelay(50);
 1130              		.loc 1 341 0 is_stmt 1
 1131 0268 2046     		mov	r0, r4
 1132 026a FFF7FEFF 		bl	distanceSensor
 1133              	.LVL186:
 342:navigation.c  ****     distance_sensor = sensor_distances[ultrasonic_sensor];   // checks the distance measured by the
 1134              		.loc 1 342 0
 1135 026e 3220     		movs	r0, #50
 1136 0270 FFF7FEFF 		bl	CyDelay
 1137              	.LVL187:
 344:navigation.c  ****     UART_1_PutString(output);
 1138              		.loc 1 344 0
 1139 0274 114D     		ldr	r5, .L82+20
 1140 0276 104B     		ldr	r3, .L82+16
 1141 0278 53F82420 		ldr	r2, [r3, r4, lsl #2]
ARM GAS  C:\Users\Blayke\AppData\Local\Temp\cc62WBhQ.s 			page 32


 1142 027c 1249     		ldr	r1, .L82+32
 1143 027e 2846     		mov	r0, r5
 1144 0280 FFF7FEFF 		bl	sprintf
 1145              	.LVL188:
 345:navigation.c  ****     
 1146              		.loc 1 345 0
 1147 0284 2846     		mov	r0, r5
 1148 0286 FFF7FEFF 		bl	UART_1_PutString
 1149              	.LVL189:
 347:navigation.c  ****     Motor_Right_Decoder_SetCounter(0);   
 1150              		.loc 1 347 0
 1151 028a 0020     		movs	r0, #0
 1152 028c FFF7FEFF 		bl	Motor_Left_Decoder_SetCounter
 1153              	.LVL190:
 348:navigation.c  ****     
 1154              		.loc 1 348 0
 1155 0290 0020     		movs	r0, #0
 1156 0292 FFF7FEFF 		bl	Motor_Right_Decoder_SetCounter
 1157              	.LVL191:
 350:navigation.c  ****     Motor_Right_Driver_Sleep();
 1158              		.loc 1 350 0
 1159 0296 FFF7FEFF 		bl	Motor_Left_Driver_Sleep
 1160              	.LVL192:
 351:navigation.c  ****     
 1161              		.loc 1 351 0
 1162 029a FFF7FEFF 		bl	Motor_Right_Driver_Sleep
 1163              	.LVL193:
 353:navigation.c  **** 
 1164              		.loc 1 353 0
 1165 029e 09B0     		add	sp, sp, #36
 1166              		.cfi_def_cfa_offset 36
 1167              		@ sp needed
 1168 02a0 BDE8F08F 		pop	{r4, r5, r6, r7, r8, r9, r10, fp, pc}
 1169              	.LVL194:
 1170              	.L83:
 1171 02a4 AFF30080 		.align	3
 1172              	.L82:
 1173 02a8 CCCCCCCC 		.word	-858993460
 1174 02ac CC137540 		.word	1081414604
 1175 02b0 F6285C8F 		.word	-1889785610
 1176 02b4 C2C56B40 		.word	1080804802
 1177 02b8 00000000 		.word	sensor_distances
 1178 02bc 00000000 		.word	output
 1179 02c0 08000000 		.word	.LC1
 1180 02c4 00005940 		.word	1079574528
 1181 02c8 68000000 		.word	.LC6
 1182              		.cfi_endproc
 1183              	.LFE67:
 1184              		.size	moveUntil, .-moveUntil
 1185              		.section	.text.straightAdjust,"ax",%progbits
 1186              		.align	2
 1187              		.global	straightAdjust
 1188              		.thumb
 1189              		.thumb_func
 1190              		.type	straightAdjust, %function
 1191              	straightAdjust:
 1192              	.LFB72:
ARM GAS  C:\Users\Blayke\AppData\Local\Temp\cc62WBhQ.s 			page 33


 528:navigation.c  **** 
 529:navigation.c  **** void failsafeSideSensors(int side_sensing, int initial_value) {
 530:navigation.c  ****     
 531:navigation.c  ****     int drift_tolerance = 10;     // 10mm
 532:navigation.c  ****     int translate_direction;
 533:navigation.c  ****     
 534:navigation.c  ****     if (side_sensing == SIDE_LEFT) {translate_direction = RIGHT;} else { translate_direction = LEFT
 535:navigation.c  ****     
 536:navigation.c  ****         // SAFETY OVERRIDE:
 537:navigation.c  ****     if(safety_override == TRUE){
 538:navigation.c  ****         return;
 539:navigation.c  ****     }
 540:navigation.c  ****     
 541:navigation.c  ****     distanceSensor(side_sensing);
 542:navigation.c  ****     CyDelay(50);
 543:navigation.c  ****     
 544:navigation.c  ****     if (sensor_distances[side_sensing] > initial_value + drift_tolerance 
 545:navigation.c  ****                 || sensor_distances[side_sensing] < initial_value - drift_tolerance ){
 546:navigation.c  ****         // If it has drifted more than 10mm either side from the initial value, we perform a straig
 547:navigation.c  ****         //translateUntil(initial_value, translate_direction, GREATER_THAN,side_sensing,SPEED);   //
 548:navigation.c  ****                                                                                 // if this got trip
 549:navigation.c  ****         //translateMoveDynamic(translate_direction, 30, SPEED, FALSE);          // these are not th
 550:navigation.c  ****         straightAdjust(FRONT_SENSORS);                                          // straight adjust 
 551:navigation.c  ****         
 552:navigation.c  ****     }
 553:navigation.c  **** }
 554:navigation.c  **** 
 555:navigation.c  **** 
 556:navigation.c  **** void straightAdjust(int front_back) {
 1193              		.loc 1 556 0
 1194              		.cfi_startproc
 1195              		@ args = 0, pretend = 0, frame = 0
 1196              		@ frame_needed = 0, uses_anonymous_args = 0
 1197              	.LVL195:
 1198 0000 2DE9F041 		push	{r4, r5, r6, r7, r8, lr}
 1199              		.cfi_def_cfa_offset 24
 1200              		.cfi_offset 4, -24
 1201              		.cfi_offset 5, -20
 1202              		.cfi_offset 6, -16
 1203              		.cfi_offset 7, -12
 1204              		.cfi_offset 8, -8
 1205              		.cfi_offset 14, -4
 1206 0004 82B0     		sub	sp, sp, #8
 1207              		.cfi_def_cfa_offset 32
 1208 0006 0446     		mov	r4, r0
 1209              	.LVL196:
 557:navigation.c  ****        
 558:navigation.c  ****     int sensor_left; 
 559:navigation.c  ****     int sensor_right;
 560:navigation.c  ****     int difference = 300;
 561:navigation.c  ****     int tolerance = 1;
 562:navigation.c  ****     int max_difference = 800;
 563:navigation.c  ****     int ultra_delay = 50;
 564:navigation.c  ****     int speed = 25;
 565:navigation.c  ****     int timer;
 566:navigation.c  ****     Timer_straight_adjust_Start();      // Starts counting the timer 
 1210              		.loc 1 566 0
ARM GAS  C:\Users\Blayke\AppData\Local\Temp\cc62WBhQ.s 			page 34


 1211 0008 FFF7FEFF 		bl	Timer_straight_adjust_Start
 1212              	.LVL197:
 567:navigation.c  ****     
 568:navigation.c  ****     // Are we adjusting with the back or front sensors: 
 569:navigation.c  ****     if (front_back == FRONT_SENSORS) {
 1213              		.loc 1 569 0
 1214 000c 072C     		cmp	r4, #7
 1215 000e 02D1     		bne	.L97
 570:navigation.c  ****         sensor_left = FRONT_LEFT;
 571:navigation.c  ****         sensor_right = FRONT_RIGHT;
 1216              		.loc 1 571 0
 1217 0010 0126     		movs	r6, #1
 570:navigation.c  ****         sensor_left = FRONT_LEFT;
 1218              		.loc 1 570 0
 1219 0012 0025     		movs	r5, #0
 1220 0014 01E0     		b	.L85
 1221              	.L97:
 572:navigation.c  ****     }
 573:navigation.c  ****     else {
 574:navigation.c  ****         sensor_left = BACK_LEFT;
 575:navigation.c  ****         sensor_right = BACK_RIGHT;
 1222              		.loc 1 575 0
 1223 0016 0526     		movs	r6, #5
 574:navigation.c  ****         sensor_right = BACK_RIGHT;
 1224              		.loc 1 574 0
 1225 0018 0425     		movs	r5, #4
 1226              	.L85:
 570:navigation.c  ****         sensor_left = FRONT_LEFT;
 1227              		.loc 1 570 0
 1228 001a 4FF49674 		mov	r4, #300
 1229              	.LVL198:
 1230 001e 2EE0     		b	.L86
 1231              	.LVL199:
 1232              	.L87:
 576:navigation.c  ****     }
 577:navigation.c  ****     
 578:navigation.c  ****     
 579:navigation.c  ****        
 580:navigation.c  ****     // Ensure the initial readings are accurate: 
 581:navigation.c  ****     while (abs(difference) > max_difference) {              
 582:navigation.c  ****         distanceSensor(sensor_left);
 1233              		.loc 1 582 0
 1234 0020 2846     		mov	r0, r5
 1235 0022 FFF7FEFF 		bl	distanceSensor
 1236              	.LVL200:
 583:navigation.c  ****         CyDelay(50);                        // 50ms might not be enough ???
 1237              		.loc 1 583 0
 1238 0026 3220     		movs	r0, #50
 1239 0028 FFF7FEFF 		bl	CyDelay
 1240              	.LVL201:
 584:navigation.c  ****         sprintf(output, "%d \t", sensor_distances[sensor_left]);
 1241              		.loc 1 584 0
 1242 002c 834C     		ldr	r4, .L99
 1243              	.LVL202:
 1244 002e DFF82882 		ldr	r8, .L99+28
 1245 0032 834F     		ldr	r7, .L99+4
 1246 0034 54F82520 		ldr	r2, [r4, r5, lsl #2]
ARM GAS  C:\Users\Blayke\AppData\Local\Temp\cc62WBhQ.s 			page 35


 1247 0038 4146     		mov	r1, r8
 1248 003a 3846     		mov	r0, r7
 1249 003c FFF7FEFF 		bl	sprintf
 1250              	.LVL203:
 585:navigation.c  ****         UART_1_PutString(output);
 1251              		.loc 1 585 0
 1252 0040 3846     		mov	r0, r7
 1253 0042 FFF7FEFF 		bl	UART_1_PutString
 1254              	.LVL204:
 586:navigation.c  ****         
 587:navigation.c  ****         distanceSensor(sensor_right);
 1255              		.loc 1 587 0
 1256 0046 3046     		mov	r0, r6
 1257 0048 FFF7FEFF 		bl	distanceSensor
 1258              	.LVL205:
 588:navigation.c  ****         CyDelay(50);
 1259              		.loc 1 588 0
 1260 004c 3220     		movs	r0, #50
 1261 004e FFF7FEFF 		bl	CyDelay
 1262              	.LVL206:
 589:navigation.c  ****         sprintf(output, "%d \t", sensor_distances[sensor_right]);
 1263              		.loc 1 589 0
 1264 0052 54F82620 		ldr	r2, [r4, r6, lsl #2]
 1265 0056 4146     		mov	r1, r8
 1266 0058 3846     		mov	r0, r7
 1267 005a FFF7FEFF 		bl	sprintf
 1268              	.LVL207:
 590:navigation.c  ****         UART_1_PutString(output);
 1269              		.loc 1 590 0
 1270 005e 3846     		mov	r0, r7
 1271 0060 FFF7FEFF 		bl	UART_1_PutString
 1272              	.LVL208:
 591:navigation.c  ****         
 592:navigation.c  ****         difference = sensor_distances[sensor_left] - sensor_distances[sensor_right];
 1273              		.loc 1 592 0
 1274 0064 54F82520 		ldr	r2, [r4, r5, lsl #2]
 1275 0068 54F82630 		ldr	r3, [r4, r6, lsl #2]
 1276 006c D41A     		subs	r4, r2, r3
 1277              	.LVL209:
 593:navigation.c  ****         sprintf(output, "difference = %d, \n", difference);       
 1278              		.loc 1 593 0
 1279 006e 2246     		mov	r2, r4
 1280 0070 7449     		ldr	r1, .L99+8
 1281 0072 3846     		mov	r0, r7
 1282 0074 FFF7FEFF 		bl	sprintf
 1283              	.LVL210:
 594:navigation.c  ****         UART_1_PutString(output);
 1284              		.loc 1 594 0
 1285 0078 3846     		mov	r0, r7
 1286 007a FFF7FEFF 		bl	UART_1_PutString
 1287              	.LVL211:
 1288              	.L86:
 581:navigation.c  ****         distanceSensor(sensor_left);
 1289              		.loc 1 581 0
 1290 007e 84EAE473 		eor	r3, r4, r4, asr #31
 1291 0082 A3EBE473 		sub	r3, r3, r4, asr #31
 1292 0086 B3F5487F 		cmp	r3, #800
ARM GAS  C:\Users\Blayke\AppData\Local\Temp\cc62WBhQ.s 			page 36


 1293 008a C9DC     		bgt	.L87
 1294              	.LVL212:
 595:navigation.c  ****     }
 596:navigation.c  ****         
 597:navigation.c  ****     
 598:navigation.c  ****     // Adjust against the wall: 
 599:navigation.c  ****     int speed_left = speed;        // slow speed
 600:navigation.c  ****     int speed_right = speed;
 601:navigation.c  ****     
 602:navigation.c  ****     
 603:navigation.c  ****     Motor_Left_Driver_Wakeup();
 1295              		.loc 1 603 0
 1296 008c FFF7FEFF 		bl	Motor_Left_Driver_Wakeup
 1297              	.LVL213:
 604:navigation.c  ****     Motor_Left_Driver_WriteCompare(speed_left);
 1298              		.loc 1 604 0
 1299 0090 1920     		movs	r0, #25
 1300 0092 FFF7FEFF 		bl	Motor_Left_Driver_WriteCompare
 1301              	.LVL214:
 605:navigation.c  ****     Motor_Right_Driver_Wakeup();
 1302              		.loc 1 605 0
 1303 0096 FFF7FEFF 		bl	Motor_Right_Driver_Wakeup
 1304              	.LVL215:
 606:navigation.c  ****     Motor_Right_Driver_WriteCompare(speed_right);
 1305              		.loc 1 606 0
 1306 009a 1920     		movs	r0, #25
 1307 009c FFF7FEFF 		bl	Motor_Right_Driver_WriteCompare
 1308              	.LVL216:
 607:navigation.c  ****         
 608:navigation.c  ****     while(abs(difference) > tolerance ) {
 1309              		.loc 1 608 0
 1310 00a0 BCE0     		b	.L88
 1311              	.L96:
 609:navigation.c  ****         
 610:navigation.c  ****         if (difference > 0)             // This means we need to move it right
 1312              		.loc 1 610 0
 1313 00a2 002C     		cmp	r4, #0
 1314 00a4 24DD     		ble	.L89
 611:navigation.c  ****         {
 612:navigation.c  ****             Motor_Left_Control_Write(0); Motor_Right_Control_Write(1); 
 1315              		.loc 1 612 0
 1316 00a6 0020     		movs	r0, #0
 1317 00a8 FFF7FEFF 		bl	Motor_Left_Control_Write
 1318              	.LVL217:
 1319 00ac 0120     		movs	r0, #1
 1320 00ae FFF7FEFF 		bl	Motor_Right_Control_Write
 1321              	.LVL218:
 613:navigation.c  ****              
 614:navigation.c  ****             while (abs(difference) > tolerance 
 1322              		.loc 1 614 0
 1323 00b2 11E0     		b	.L90
 1324              	.L92:
 615:navigation.c  ****                 && difference > 0
 616:navigation.c  ****                 && abs(difference) < max_difference)     // ensures working correctly
 617:navigation.c  ****             {
 618:navigation.c  **** 
 619:navigation.c  ****             distanceSensor(sensor_left);
ARM GAS  C:\Users\Blayke\AppData\Local\Temp\cc62WBhQ.s 			page 37


 1325              		.loc 1 619 0
 1326 00b4 2846     		mov	r0, r5
 1327 00b6 FFF7FEFF 		bl	distanceSensor
 1328              	.LVL219:
 620:navigation.c  ****             CyDelay(ultra_delay);
 1329              		.loc 1 620 0
 1330 00ba 3220     		movs	r0, #50
 1331 00bc FFF7FEFF 		bl	CyDelay
 1332              	.LVL220:
 621:navigation.c  ****             distanceSensor(sensor_right);
 1333              		.loc 1 621 0
 1334 00c0 3046     		mov	r0, r6
 1335 00c2 FFF7FEFF 		bl	distanceSensor
 1336              	.LVL221:
 622:navigation.c  ****             CyDelay(ultra_delay);
 1337              		.loc 1 622 0
 1338 00c6 3220     		movs	r0, #50
 1339 00c8 FFF7FEFF 		bl	CyDelay
 1340              	.LVL222:
 623:navigation.c  ****                       
 624:navigation.c  ****             difference = sensor_distances[sensor_left] - sensor_distances[sensor_right];
 1341              		.loc 1 624 0
 1342 00cc 5B4B     		ldr	r3, .L99
 1343 00ce 53F82540 		ldr	r4, [r3, r5, lsl #2]
 1344              	.LVL223:
 1345 00d2 53F82630 		ldr	r3, [r3, r6, lsl #2]
 1346 00d6 E41A     		subs	r4, r4, r3
 1347              	.LVL224:
 1348              	.L90:
 614:navigation.c  ****                 && difference > 0
 1349              		.loc 1 614 0
 1350 00d8 84EAE473 		eor	r3, r4, r4, asr #31
 1351 00dc A3EBE473 		sub	r3, r3, r4, asr #31
 1352 00e0 012B     		cmp	r3, #1
 1353 00e2 46DD     		ble	.L91
 615:navigation.c  ****                 && abs(difference) < max_difference)     // ensures working correctly
 1354              		.loc 1 615 0
 1355 00e4 002C     		cmp	r4, #0
 1356 00e6 44DD     		ble	.L91
 616:navigation.c  ****             {
 1357              		.loc 1 616 0
 1358 00e8 B3F5487F 		cmp	r3, #800
 1359 00ec E2DB     		blt	.L92
 1360 00ee 40E0     		b	.L91
 1361              	.L89:
 625:navigation.c  ****             
 626:navigation.c  ****             //sprintf(output, " %d , %d \t dif: %d, \n", sensor_distances[FRONT_LEFT], 
 627:navigation.c  ****             //                                            sensor_distances[FRONT_RIGHT],
 628:navigation.c  ****             //                                                                        difference); 
 629:navigation.c  ****             //UART_1_PutString(output);
 630:navigation.c  ****             
 631:navigation.c  ****             
 632:navigation.c  ****             }
 633:navigation.c  ****             
 634:navigation.c  ****             /* I DON'T KNOW WHY THIS IS DUPLICATED, JUST COMMENTING OUT FOR NOW
 635:navigation.c  ****             while (abs(difference) > tolerance                  
 636:navigation.c  ****                         && difference > 0
ARM GAS  C:\Users\Blayke\AppData\Local\Temp\cc62WBhQ.s 			page 38


 637:navigation.c  ****                         && abs(difference) < max_difference) {    // ensures working correctly
 638:navigation.c  ****                 distanceSensor(FRONT_LEFT);
 639:navigation.c  ****                 CyDelay(ultra_delay);
 640:navigation.c  ****                 distanceSensor(FRONT_RIGHT);
 641:navigation.c  ****                 CyDelay(ultra_delay);
 642:navigation.c  ****                           
 643:navigation.c  ****                 difference = sensor_distances[FRONT_LEFT] - sensor_distances[FRONT_RIGHT];
 644:navigation.c  ****                 
 645:navigation.c  ****                 sprintf(output, " %d , %d \t dif: %d, \n", sensor_distances[FRONT_LEFT], 
 646:navigation.c  ****                                                             sensor_distances[FRONT_RIGHT],
 647:navigation.c  ****                                                                                         difference)
 648:navigation.c  ****                 UART_1_PutString(output);
 649:navigation.c  ****             } 
 650:navigation.c  ****             */
 651:navigation.c  ****         }
 652:navigation.c  ****         else if (difference < 0 ){      // HERE we are turning left
 1362              		.loc 1 652 0
 1363 00f0 002C     		cmp	r4, #0
 1364 00f2 3EDA     		bge	.L91
 653:navigation.c  ****             Motor_Left_Control_Write(1); Motor_Right_Control_Write(0);
 1365              		.loc 1 653 0
 1366 00f4 0120     		movs	r0, #1
 1367 00f6 FFF7FEFF 		bl	Motor_Left_Control_Write
 1368              	.LVL225:
 1369 00fa 0020     		movs	r0, #0
 1370 00fc FFF7FEFF 		bl	Motor_Right_Control_Write
 1371              	.LVL226:
 654:navigation.c  ****             
 655:navigation.c  ****             distanceSensor(sensor_left);
 1372              		.loc 1 655 0
 1373 0100 2846     		mov	r0, r5
 1374 0102 FFF7FEFF 		bl	distanceSensor
 1375              	.LVL227:
 656:navigation.c  ****             CyDelay(ultra_delay);
 1376              		.loc 1 656 0
 1377 0106 3220     		movs	r0, #50
 1378 0108 FFF7FEFF 		bl	CyDelay
 1379              	.LVL228:
 657:navigation.c  ****             distanceSensor(sensor_right);
 1380              		.loc 1 657 0
 1381 010c 3046     		mov	r0, r6
 1382 010e FFF7FEFF 		bl	distanceSensor
 1383              	.LVL229:
 658:navigation.c  ****             CyDelay(ultra_delay);
 1384              		.loc 1 658 0
 1385 0112 3220     		movs	r0, #50
 1386 0114 FFF7FEFF 		bl	CyDelay
 1387              	.LVL230:
 659:navigation.c  ****                       
 660:navigation.c  ****             difference = sensor_distances[sensor_left] - sensor_distances[sensor_right];
 1388              		.loc 1 660 0
 1389 0118 484A     		ldr	r2, .L99
 1390 011a 52F82530 		ldr	r3, [r2, r5, lsl #2]
 1391 011e 52F82640 		ldr	r4, [r2, r6, lsl #2]
 1392              	.LVL231:
 1393 0122 1C1B     		subs	r4, r3, r4
 1394              	.LVL232:
ARM GAS  C:\Users\Blayke\AppData\Local\Temp\cc62WBhQ.s 			page 39


 661:navigation.c  ****                        
 662:navigation.c  ****             //sprintf(output, " %d , %d \t dif: %d, \n", sensor_distances[FRONT_LEFT], 
 663:navigation.c  ****             //                                            sensor_distances[FRONT_RIGHT],
 664:navigation.c  ****             //                                                                        difference); 
 665:navigation.c  ****             //UART_1_PutString(output);
 666:navigation.c  ****             
 667:navigation.c  ****             while (abs(difference) > tolerance 
 1395              		.loc 1 667 0
 1396 0124 1AE0     		b	.L93
 1397              	.L94:
 668:navigation.c  ****                         && difference < 0
 669:navigation.c  ****                         && abs(difference) < max_difference) {
 670:navigation.c  ****                 distanceSensor(sensor_left);
 1398              		.loc 1 670 0
 1399 0126 2846     		mov	r0, r5
 1400 0128 FFF7FEFF 		bl	distanceSensor
 1401              	.LVL233:
 671:navigation.c  ****                 CyDelay(ultra_delay);
 1402              		.loc 1 671 0
 1403 012c 3220     		movs	r0, #50
 1404 012e FFF7FEFF 		bl	CyDelay
 1405              	.LVL234:
 672:navigation.c  ****                 distanceSensor(sensor_right);
 1406              		.loc 1 672 0
 1407 0132 3046     		mov	r0, r6
 1408 0134 FFF7FEFF 		bl	distanceSensor
 1409              	.LVL235:
 673:navigation.c  ****                 CyDelay(ultra_delay);
 1410              		.loc 1 673 0
 1411 0138 3220     		movs	r0, #50
 1412 013a FFF7FEFF 		bl	CyDelay
 1413              	.LVL236:
 674:navigation.c  ****                           
 675:navigation.c  ****                 difference = sensor_distances[sensor_left] - sensor_distances[sensor_right];
 1414              		.loc 1 675 0
 1415 013e 3F4B     		ldr	r3, .L99
 1416 0140 53F82520 		ldr	r2, [r3, r5, lsl #2]
 1417 0144 53F82630 		ldr	r3, [r3, r6, lsl #2]
 1418 0148 D41A     		subs	r4, r2, r3
 1419              	.LVL237:
 676:navigation.c  ****                            
 677:navigation.c  ****                 sprintf(output, " %d , %d \t dif: %d, \n", sensor_distances[sensor_left], 
 1420              		.loc 1 677 0
 1421 014a 3D4F     		ldr	r7, .L99+4
 1422 014c 0094     		str	r4, [sp]
 1423 014e 3E49     		ldr	r1, .L99+12
 1424 0150 3846     		mov	r0, r7
 1425 0152 FFF7FEFF 		bl	sprintf
 1426              	.LVL238:
 678:navigation.c  ****                                                             sensor_distances[sensor_right],
 679:navigation.c  ****                                                                                         difference)
 680:navigation.c  ****                 UART_1_PutString(output);
 1427              		.loc 1 680 0
 1428 0156 3846     		mov	r0, r7
 1429 0158 FFF7FEFF 		bl	UART_1_PutString
 1430              	.LVL239:
 1431              	.L93:
ARM GAS  C:\Users\Blayke\AppData\Local\Temp\cc62WBhQ.s 			page 40


 667:navigation.c  ****                         && difference < 0
 1432              		.loc 1 667 0
 1433 015c 84EAE473 		eor	r3, r4, r4, asr #31
 1434 0160 A3EBE473 		sub	r3, r3, r4, asr #31
 1435 0164 012B     		cmp	r3, #1
 1436 0166 04DD     		ble	.L91
 668:navigation.c  ****                         && abs(difference) < max_difference) {
 1437              		.loc 1 668 0
 1438 0168 002C     		cmp	r4, #0
 1439 016a 02DA     		bge	.L91
 669:navigation.c  ****                 distanceSensor(sensor_left);
 1440              		.loc 1 669 0
 1441 016c B3F5487F 		cmp	r3, #800
 1442 0170 D9DB     		blt	.L94
 1443              	.L91:
 681:navigation.c  ****             
 682:navigation.c  ****             }
 683:navigation.c  ****             
 684:navigation.c  ****         }
 685:navigation.c  ****         
 686:navigation.c  ****         // Comes out of the while loop if the max_difference is exceeded, but then the values might
 687:navigation.c  ****         // if max_difference is exceeded, it should probably be forced to swivel the other way to 
 688:navigation.c  ****         // that it was swivelling        
 689:navigation.c  ****         
 690:navigation.c  ****         
 691:navigation.c  ****         // CHECKS one more time to ensure the difference is accurate: 
 692:navigation.c  ****             // consider putting in a for loop to get new readings
 693:navigation.c  ****         distanceSensor(sensor_left);
 1444              		.loc 1 693 0
 1445 0172 2846     		mov	r0, r5
 1446 0174 FFF7FEFF 		bl	distanceSensor
 1447              	.LVL240:
 694:navigation.c  ****         CyDelay(ultra_delay);
 1448              		.loc 1 694 0
 1449 0178 3220     		movs	r0, #50
 1450 017a FFF7FEFF 		bl	CyDelay
 1451              	.LVL241:
 695:navigation.c  ****         distanceSensor(sensor_right);
 1452              		.loc 1 695 0
 1453 017e 3046     		mov	r0, r6
 1454 0180 FFF7FEFF 		bl	distanceSensor
 1455              	.LVL242:
 696:navigation.c  ****         CyDelay(ultra_delay);
 1456              		.loc 1 696 0
 1457 0184 3220     		movs	r0, #50
 1458 0186 FFF7FEFF 		bl	CyDelay
 1459              	.LVL243:
 697:navigation.c  ****                       
 698:navigation.c  ****         difference = sensor_distances[sensor_left] - sensor_distances[sensor_right];
 1460              		.loc 1 698 0
 1461 018a 2C4B     		ldr	r3, .L99
 1462 018c 53F82520 		ldr	r2, [r3, r5, lsl #2]
 1463 0190 53F82630 		ldr	r3, [r3, r6, lsl #2]
 1464 0194 D41A     		subs	r4, r2, r3
 1465              	.LVL244:
 699:navigation.c  ****         sprintf(output, "%d, %d, ", sensor_distances[sensor_left], sensor_distances[sensor_right]);
 1466              		.loc 1 699 0
ARM GAS  C:\Users\Blayke\AppData\Local\Temp\cc62WBhQ.s 			page 41


 1467 0196 2A4F     		ldr	r7, .L99+4
 1468 0198 2C49     		ldr	r1, .L99+16
 1469 019a 3846     		mov	r0, r7
 1470 019c FFF7FEFF 		bl	sprintf
 1471              	.LVL245:
 700:navigation.c  ****         UART_1_PutString(output);
 1472              		.loc 1 700 0
 1473 01a0 3846     		mov	r0, r7
 1474 01a2 FFF7FEFF 		bl	UART_1_PutString
 1475              	.LVL246:
 701:navigation.c  ****         sprintf(output, "dif: %d, \n", difference);       
 1476              		.loc 1 701 0
 1477 01a6 2246     		mov	r2, r4
 1478 01a8 2949     		ldr	r1, .L99+20
 1479 01aa 3846     		mov	r0, r7
 1480 01ac FFF7FEFF 		bl	sprintf
 1481              	.LVL247:
 702:navigation.c  ****         UART_1_PutString(output);
 1482              		.loc 1 702 0
 1483 01b0 3846     		mov	r0, r7
 1484 01b2 FFF7FEFF 		bl	UART_1_PutString
 1485              	.LVL248:
 703:navigation.c  ****         
 704:navigation.c  ****         // Timer out failsafe: 
 705:navigation.c  ****         
 706:navigation.c  ****         timer = Timer_straight_adjust_ReadCounter();
 1486              		.loc 1 706 0
 1487 01b6 FFF7FEFF 		bl	Timer_straight_adjust_ReadCounter
 1488              	.LVL249:
 1489 01ba 0746     		mov	r7, r0
 1490              	.LVL250:
 707:navigation.c  ****         
 708:navigation.c  ****         if (timer < 35000) {
 1491              		.loc 1 708 0
 1492 01bc 48F6B703 		movw	r3, #34999
 1493 01c0 9842     		cmp	r0, r3
 1494 01c2 2BDC     		bgt	.L88
 709:navigation.c  ****             Motor_Left_Driver_Sleep();                  // puts it back to sleep
 1495              		.loc 1 709 0
 1496 01c4 FFF7FEFF 		bl	Motor_Left_Driver_Sleep
 1497              	.LVL251:
 710:navigation.c  ****             Motor_Right_Driver_Sleep();
 1498              		.loc 1 710 0
 1499 01c8 FFF7FEFF 		bl	Motor_Right_Driver_Sleep
 1500              	.LVL252:
 711:navigation.c  ****             moveDynamic(-30,SPEED,TRUE);                // calls movedynamic
 1501              		.loc 1 711 0
 1502 01cc 0122     		movs	r2, #1
 1503 01ce C821     		movs	r1, #200
 1504 01d0 6FF01D00 		mvn	r0, #29
 1505 01d4 FFF7FEFF 		bl	moveDynamic
 1506              	.LVL253:
 712:navigation.c  ****             moveDynamic(30, SPEED,TRUE);      
 1507              		.loc 1 712 0
 1508 01d8 0122     		movs	r2, #1
 1509 01da C821     		movs	r1, #200
 1510 01dc 1E20     		movs	r0, #30
ARM GAS  C:\Users\Blayke\AppData\Local\Temp\cc62WBhQ.s 			page 42


 1511 01de FFF7FEFF 		bl	moveDynamic
 1512              	.LVL254:
 713:navigation.c  ****             Motor_Left_Driver_Wakeup();
 1513              		.loc 1 713 0
 1514 01e2 FFF7FEFF 		bl	Motor_Left_Driver_Wakeup
 1515              	.LVL255:
 714:navigation.c  ****             Motor_Left_Driver_WriteCompare(speed_left); // brings it back to continue the while loo
 1516              		.loc 1 714 0
 1517 01e6 1920     		movs	r0, #25
 1518 01e8 FFF7FEFF 		bl	Motor_Left_Driver_WriteCompare
 1519              	.LVL256:
 715:navigation.c  ****             Motor_Right_Driver_Wakeup();
 1520              		.loc 1 715 0
 1521 01ec FFF7FEFF 		bl	Motor_Right_Driver_Wakeup
 1522              	.LVL257:
 716:navigation.c  ****             Motor_Right_Driver_WriteCompare(speed_right);
 1523              		.loc 1 716 0
 1524 01f0 1920     		movs	r0, #25
 1525 01f2 FFF7FEFF 		bl	Motor_Right_Driver_WriteCompare
 1526              	.LVL258:
 717:navigation.c  ****             Control_Reset_Straight_Write(1);            // Resets the timer (I think)
 1527              		.loc 1 717 0
 1528 01f6 0120     		movs	r0, #1
 1529 01f8 FFF7FEFF 		bl	Control_Reset_Straight_Write
 1530              	.LVL259:
 718:navigation.c  ****             CyDelay(10); 
 1531              		.loc 1 718 0
 1532 01fc 0A20     		movs	r0, #10
 1533 01fe FFF7FEFF 		bl	CyDelay
 1534              	.LVL260:
 719:navigation.c  ****             Control_Reset_Straight_Write(0);
 1535              		.loc 1 719 0
 1536 0202 0020     		movs	r0, #0
 1537 0204 FFF7FEFF 		bl	Control_Reset_Straight_Write
 1538              	.LVL261:
 720:navigation.c  ****             
 721:navigation.c  ****             sprintf(output, "timer count: %d", timer);
 1539              		.loc 1 721 0
 1540 0208 DFF83480 		ldr	r8, .L99+4
 1541 020c 3A46     		mov	r2, r7
 1542 020e 1149     		ldr	r1, .L99+24
 1543 0210 4046     		mov	r0, r8
 1544 0212 FFF7FEFF 		bl	sprintf
 1545              	.LVL262:
 722:navigation.c  ****             UART_1_PutString(output);
 1546              		.loc 1 722 0
 1547 0216 4046     		mov	r0, r8
 1548 0218 FFF7FEFF 		bl	UART_1_PutString
 1549              	.LVL263:
 1550              	.L88:
 608:navigation.c  ****         
 1551              		.loc 1 608 0
 1552 021c 84EAE473 		eor	r3, r4, r4, asr #31
 1553 0220 A3EBE473 		sub	r3, r3, r4, asr #31
 1554 0224 012B     		cmp	r3, #1
 1555 0226 3FF73CAF 		bgt	.L96
 723:navigation.c  ****         }
ARM GAS  C:\Users\Blayke\AppData\Local\Temp\cc62WBhQ.s 			page 43


 724:navigation.c  ****         
 725:navigation.c  ****         
 726:navigation.c  ****         
 727:navigation.c  ****         
 728:navigation.c  ****         
 729:navigation.c  ****     }         // This ensures that the turning worked correctly
 730:navigation.c  ****                                             // changed it from 10 to 2, this might change the way i
 731:navigation.c  ****     
 732:navigation.c  ****     
 733:navigation.c  ****     Motor_Left_Driver_Sleep();
 1556              		.loc 1 733 0
 1557 022a FFF7FEFF 		bl	Motor_Left_Driver_Sleep
 1558              	.LVL264:
 734:navigation.c  ****     Motor_Right_Driver_Sleep();
 1559              		.loc 1 734 0
 1560 022e FFF7FEFF 		bl	Motor_Right_Driver_Sleep
 1561              	.LVL265:
 735:navigation.c  ****     Timer_straight_adjust_Stop();       // stops the timer 
 1562              		.loc 1 735 0
 1563 0232 FFF7FEFF 		bl	Timer_straight_adjust_Stop
 1564              	.LVL266:
 736:navigation.c  **** }
 1565              		.loc 1 736 0
 1566 0236 02B0     		add	sp, sp, #8
 1567              		.cfi_def_cfa_offset 24
 1568              		@ sp needed
 1569 0238 BDE8F081 		pop	{r4, r5, r6, r7, r8, pc}
 1570              	.LVL267:
 1571              	.L100:
 1572              		.align	2
 1573              	.L99:
 1574 023c 00000000 		.word	sensor_distances
 1575 0240 00000000 		.word	output
 1576 0244 74000000 		.word	.LC7
 1577 0248 88000000 		.word	.LC8
 1578 024c A0000000 		.word	.LC9
 1579 0250 AC000000 		.word	.LC10
 1580 0254 B8000000 		.word	.LC11
 1581 0258 08000000 		.word	.LC1
 1582              		.cfi_endproc
 1583              	.LFE72:
 1584              		.size	straightAdjust, .-straightAdjust
 1585              		.section	.text.failsafeSideSensors,"ax",%progbits
 1586              		.align	2
 1587              		.global	failsafeSideSensors
 1588              		.thumb
 1589              		.thumb_func
 1590              		.type	failsafeSideSensors, %function
 1591              	failsafeSideSensors:
 1592              	.LFB71:
 529:navigation.c  ****     
 1593              		.loc 1 529 0
 1594              		.cfi_startproc
 1595              		@ args = 0, pretend = 0, frame = 0
 1596              		@ frame_needed = 0, uses_anonymous_args = 0
 1597              	.LVL268:
 1598 0000 38B5     		push	{r3, r4, r5, lr}
ARM GAS  C:\Users\Blayke\AppData\Local\Temp\cc62WBhQ.s 			page 44


 1599              		.cfi_def_cfa_offset 16
 1600              		.cfi_offset 3, -16
 1601              		.cfi_offset 4, -12
 1602              		.cfi_offset 5, -8
 1603              		.cfi_offset 14, -4
 1604              	.LVL269:
 537:navigation.c  ****         return;
 1605              		.loc 1 537 0
 1606 0002 0C4B     		ldr	r3, .L105
 1607 0004 1B68     		ldr	r3, [r3]
 1608 0006 012B     		cmp	r3, #1
 1609 0008 13D0     		beq	.L101
 1610 000a 0C46     		mov	r4, r1
 1611 000c 0546     		mov	r5, r0
 541:navigation.c  ****     CyDelay(50);
 1612              		.loc 1 541 0
 1613 000e FFF7FEFF 		bl	distanceSensor
 1614              	.LVL270:
 542:navigation.c  ****     
 1615              		.loc 1 542 0
 1616 0012 3220     		movs	r0, #50
 1617 0014 FFF7FEFF 		bl	CyDelay
 1618              	.LVL271:
 544:navigation.c  ****                 || sensor_distances[side_sensing] < initial_value - drift_tolerance ){
 1619              		.loc 1 544 0
 1620 0018 074B     		ldr	r3, .L105+4
 1621 001a 53F82530 		ldr	r3, [r3, r5, lsl #2]
 1622 001e 04F10A02 		add	r2, r4, #10
 1623 0022 9342     		cmp	r3, r2
 1624 0024 02DC     		bgt	.L103
 545:navigation.c  ****         // If it has drifted more than 10mm either side from the initial value, we perform a straig
 1625              		.loc 1 545 0
 1626 0026 0A3C     		subs	r4, r4, #10
 1627              	.LVL272:
 1628 0028 A342     		cmp	r3, r4
 1629 002a 02DA     		bge	.L101
 1630              	.LVL273:
 1631              	.L103:
 550:navigation.c  ****         
 1632              		.loc 1 550 0
 1633 002c 0720     		movs	r0, #7
 1634 002e FFF7FEFF 		bl	straightAdjust
 1635              	.LVL274:
 1636              	.L101:
 1637 0032 38BD     		pop	{r3, r4, r5, pc}
 1638              	.L106:
 1639              		.align	2
 1640              	.L105:
 1641 0034 00000000 		.word	safety_override
 1642 0038 00000000 		.word	sensor_distances
 1643              		.cfi_endproc
 1644              	.LFE71:
 1645              		.size	failsafeSideSensors, .-failsafeSideSensors
 1646              		.section	.text.straightAdjustBack,"ax",%progbits
 1647              		.align	2
 1648              		.global	straightAdjustBack
 1649              		.thumb
ARM GAS  C:\Users\Blayke\AppData\Local\Temp\cc62WBhQ.s 			page 45


 1650              		.thumb_func
 1651              		.type	straightAdjustBack, %function
 1652              	straightAdjustBack:
 1653              	.LFB73:
 737:navigation.c  **** 
 738:navigation.c  **** 
 739:navigation.c  **** void straightAdjustBack(void) {
 1654              		.loc 1 739 0
 1655              		.cfi_startproc
 1656              		@ args = 0, pretend = 0, frame = 0
 1657              		@ frame_needed = 0, uses_anonymous_args = 0
 1658 0000 70B5     		push	{r4, r5, r6, lr}
 1659              		.cfi_def_cfa_offset 16
 1660              		.cfi_offset 4, -16
 1661              		.cfi_offset 5, -12
 1662              		.cfi_offset 6, -8
 1663              		.cfi_offset 14, -4
 1664              	.LVL275:
 740:navigation.c  ****     // Move left, if number gets bigger, then move right
 741:navigation.c  ****     // keep moving left & right until a minimum distance is found 
 742:navigation.c  ****         // should we add another sensor to the back of the robot??? 
 743:navigation.c  ****         //  will adding another sensor affect anything? 
 744:navigation.c  ****     int distance_check;
 745:navigation.c  ****     int distance_previous = 0;  // ensures we will enter the while loop
 746:navigation.c  ****     int direction = LEFT;       // start off turning left first 
 747:navigation.c  ****     int minimum_distance;                           
 748:navigation.c  ****         
 749:navigation.c  ****     distanceSensor(BACK_RIGHT);
 1665              		.loc 1 749 0
 1666 0002 0520     		movs	r0, #5
 1667 0004 FFF7FEFF 		bl	distanceSensor
 1668              	.LVL276:
 750:navigation.c  ****     CyDelay(DELAY);
 1669              		.loc 1 750 0
 1670 0008 3C20     		movs	r0, #60
 1671 000a FFF7FEFF 		bl	CyDelay
 1672              	.LVL277:
 751:navigation.c  ****     
 752:navigation.c  ****     Motor_Left_Driver_Wakeup();
 1673              		.loc 1 752 0
 1674 000e FFF7FEFF 		bl	Motor_Left_Driver_Wakeup
 1675              	.LVL278:
 753:navigation.c  ****     Motor_Right_Driver_Wakeup();
 1676              		.loc 1 753 0
 1677 0012 FFF7FEFF 		bl	Motor_Right_Driver_Wakeup
 1678              	.LVL279:
 754:navigation.c  ****     Motor_Left_Driver_WriteCompare(25);
 1679              		.loc 1 754 0
 1680 0016 1920     		movs	r0, #25
 1681 0018 FFF7FEFF 		bl	Motor_Left_Driver_WriteCompare
 1682              	.LVL280:
 755:navigation.c  ****     Motor_Right_Driver_WriteCompare(25);
 1683              		.loc 1 755 0
 1684 001c 1920     		movs	r0, #25
 1685 001e FFF7FEFF 		bl	Motor_Right_Driver_WriteCompare
 1686              	.LVL281:
 756:navigation.c  ****     
ARM GAS  C:\Users\Blayke\AppData\Local\Temp\cc62WBhQ.s 			page 46


 757:navigation.c  ****     distance_check = sensor_distances[BACK_RIGHT];
 1687              		.loc 1 757 0
 1688 0022 124B     		ldr	r3, .L116
 1689 0024 5C69     		ldr	r4, [r3, #20]
 1690              	.LVL282:
 746:navigation.c  ****     int minimum_distance;                           
 1691              		.loc 1 746 0
 1692 0026 0226     		movs	r6, #2
 745:navigation.c  ****     int direction = LEFT;       // start off turning left first 
 1693              		.loc 1 745 0
 1694 0028 0025     		movs	r5, #0
 1695 002a 00E0     		b	.L108
 1696              	.LVL283:
 1697              	.L113:
 758:navigation.c  ****     minimum_distance = distance_check;
 759:navigation.c  ****     
 760:navigation.c  ****     while(1) {
 761:navigation.c  ****         if (direction == LEFT) { Motor_Left_Control_Write(0); Motor_Right_Control_Write(1); }
 762:navigation.c  ****         else {Motor_Left_Control_Write(1); Motor_Right_Control_Write(0); }
 763:navigation.c  ****         
 764:navigation.c  ****         while (distance_previous > distance_check) {
 765:navigation.c  ****             // this will run while:
 766:navigation.c  ****                 // new distance values are getting smaller           
 767:navigation.c  ****             
 768:navigation.c  ****             // Updating the distance values: 
 769:navigation.c  ****             distance_previous = distance_check;
 770:navigation.c  ****             distanceSensor(BACK_RIGHT);
 771:navigation.c  ****             CyDelay(DELAY);
 772:navigation.c  ****             distance_check = sensor_distances[BACK_RIGHT];
 773:navigation.c  ****         }
 774:navigation.c  ****         if (direction == LEFT) {direction = RIGHT; }        // This changes the directions
 1698              		.loc 1 774 0
 1699 002c 0326     		movs	r6, #3
 1700              	.LVL284:
 1701              	.L108:
 761:navigation.c  ****         else {Motor_Left_Control_Write(1); Motor_Right_Control_Write(0); }
 1702              		.loc 1 761 0
 1703 002e 022E     		cmp	r6, #2
 1704 0030 06D1     		bne	.L109
 761:navigation.c  ****         else {Motor_Left_Control_Write(1); Motor_Right_Control_Write(0); }
 1705              		.loc 1 761 0 is_stmt 0 discriminator 1
 1706 0032 0020     		movs	r0, #0
 1707 0034 FFF7FEFF 		bl	Motor_Left_Control_Write
 1708              	.LVL285:
 1709 0038 0120     		movs	r0, #1
 1710 003a FFF7FEFF 		bl	Motor_Right_Control_Write
 1711              	.LVL286:
 1712 003e 0FE0     		b	.L110
 1713              	.L109:
 762:navigation.c  ****         
 1714              		.loc 1 762 0 is_stmt 1
 1715 0040 0120     		movs	r0, #1
 1716 0042 FFF7FEFF 		bl	Motor_Left_Control_Write
 1717              	.LVL287:
 1718 0046 0020     		movs	r0, #0
 1719 0048 FFF7FEFF 		bl	Motor_Right_Control_Write
 1720              	.LVL288:
ARM GAS  C:\Users\Blayke\AppData\Local\Temp\cc62WBhQ.s 			page 47


 1721 004c 08E0     		b	.L110
 1722              	.L112:
 1723              	.LVL289:
 770:navigation.c  ****             CyDelay(DELAY);
 1724              		.loc 1 770 0
 1725 004e 0520     		movs	r0, #5
 1726 0050 FFF7FEFF 		bl	distanceSensor
 1727              	.LVL290:
 771:navigation.c  ****             distance_check = sensor_distances[BACK_RIGHT];
 1728              		.loc 1 771 0
 1729 0054 3C20     		movs	r0, #60
 1730 0056 FFF7FEFF 		bl	CyDelay
 1731              	.LVL291:
 769:navigation.c  ****             distanceSensor(BACK_RIGHT);
 1732              		.loc 1 769 0
 1733 005a 2546     		mov	r5, r4
 772:navigation.c  ****         }
 1734              		.loc 1 772 0
 1735 005c 034B     		ldr	r3, .L116
 1736 005e 5C69     		ldr	r4, [r3, #20]
 1737              	.LVL292:
 1738              	.L110:
 764:navigation.c  ****             // this will run while:
 1739              		.loc 1 764 0
 1740 0060 AC42     		cmp	r4, r5
 1741 0062 F4DB     		blt	.L112
 1742              		.loc 1 774 0
 1743 0064 022E     		cmp	r6, #2
 1744 0066 E1D0     		beq	.L113
 775:navigation.c  ****         else {direction = LEFT; }
 1745              		.loc 1 775 0
 1746 0068 0226     		movs	r6, #2
 1747              	.LVL293:
 1748 006a E0E7     		b	.L108
 1749              	.L117:
 1750              		.align	2
 1751              	.L116:
 1752 006c 00000000 		.word	sensor_distances
 1753              		.cfi_endproc
 1754              	.LFE73:
 1755              		.size	straightAdjustBack, .-straightAdjustBack
 1756              		.section	.text.toleranceCheck,"ax",%progbits
 1757              		.align	2
 1758              		.global	toleranceCheck
 1759              		.thumb
 1760              		.thumb_func
 1761              		.type	toleranceCheck, %function
 1762              	toleranceCheck:
 1763              	.LFB74:
 776:navigation.c  ****         
 777:navigation.c  ****         // This may enter an infinite loop where it can't decide if it is correct 
 778:navigation.c  ****     }
 779:navigation.c  ****     
 780:navigation.c  ****     Motor_Left_Driver_Sleep();
 781:navigation.c  ****     Motor_Right_Driver_Sleep();   
 782:navigation.c  ****     
 783:navigation.c  **** }
ARM GAS  C:\Users\Blayke\AppData\Local\Temp\cc62WBhQ.s 			page 48


 784:navigation.c  **** 
 785:navigation.c  **** 
 786:navigation.c  **** void toleranceCheck(void) {
 1764              		.loc 1 786 0
 1765              		.cfi_startproc
 1766              		@ args = 0, pretend = 0, frame = 0
 1767              		@ frame_needed = 0, uses_anonymous_args = 0
 1768 0000 08B5     		push	{r3, lr}
 1769              		.cfi_def_cfa_offset 8
 1770              		.cfi_offset 3, -8
 1771              		.cfi_offset 14, -4
 1772              	.LVL294:
 787:navigation.c  ****     
 788:navigation.c  ****     // This function needs work
 789:navigation.c  **** 
 790:navigation.c  ****     int tolerance = 100;
 791:navigation.c  ****     
 792:navigation.c  ****     distanceSensor(FRONT_LEFT);
 1773              		.loc 1 792 0
 1774 0002 0020     		movs	r0, #0
 1775 0004 FFF7FEFF 		bl	distanceSensor
 1776              	.LVL295:
 793:navigation.c  ****     CyDelay(60);
 1777              		.loc 1 793 0
 1778 0008 3C20     		movs	r0, #60
 1779 000a FFF7FEFF 		bl	CyDelay
 1780              	.LVL296:
 794:navigation.c  ****     distanceSensor(FRONT_LEFT);
 1781              		.loc 1 794 0
 1782 000e 0020     		movs	r0, #0
 1783 0010 FFF7FEFF 		bl	distanceSensor
 1784              	.LVL297:
 795:navigation.c  ****     CyDelay(60);
 1785              		.loc 1 795 0
 1786 0014 3C20     		movs	r0, #60
 1787 0016 FFF7FEFF 		bl	CyDelay
 1788              	.LVL298:
 796:navigation.c  ****     distanceSensor(BACK_RIGHT);
 1789              		.loc 1 796 0
 1790 001a 0520     		movs	r0, #5
 1791 001c FFF7FEFF 		bl	distanceSensor
 1792              	.LVL299:
 797:navigation.c  ****     CyDelay(60);
 1793              		.loc 1 797 0
 1794 0020 3C20     		movs	r0, #60
 1795 0022 FFF7FEFF 		bl	CyDelay
 1796              	.LVL300:
 798:navigation.c  ****     
 799:navigation.c  ****     while (sensor_distances[FRONT_LEFT] + sensor_distances[BACK_RIGHT] + tolerance < ARENA_WIDTH 
 1797              		.loc 1 799 0
 1798 0026 11E0     		b	.L119
 1799              	.L120:
 800:navigation.c  ****             
 801:navigation.c  ****     
 802:navigation.c  ****     
 803:navigation.c  ****     
 804:navigation.c  ****     || sensor_distances[FRONT_LEFT] + sensor_distances[BACK_RIGHT] + tolerance < ARENA_WIDTH) { 
ARM GAS  C:\Users\Blayke\AppData\Local\Temp\cc62WBhQ.s 			page 49


 805:navigation.c  ****             // this checks if the ultrasonic distances being recorded are accurate
 806:navigation.c  ****             // if it is not within this threshold, there must be something up.  
 807:navigation.c  ****                 
 808:navigation.c  ****     distanceSensor(FRONT_LEFT);
 1800              		.loc 1 808 0
 1801 0028 0020     		movs	r0, #0
 1802 002a FFF7FEFF 		bl	distanceSensor
 1803              	.LVL301:
 809:navigation.c  ****     CyDelay(60);
 1804              		.loc 1 809 0
 1805 002e 3C20     		movs	r0, #60
 1806 0030 FFF7FEFF 		bl	CyDelay
 1807              	.LVL302:
 810:navigation.c  ****     distanceSensor(FRONT_LEFT);
 1808              		.loc 1 810 0
 1809 0034 0020     		movs	r0, #0
 1810 0036 FFF7FEFF 		bl	distanceSensor
 1811              	.LVL303:
 811:navigation.c  ****     CyDelay(60);
 1812              		.loc 1 811 0
 1813 003a 3C20     		movs	r0, #60
 1814 003c FFF7FEFF 		bl	CyDelay
 1815              	.LVL304:
 812:navigation.c  ****     distanceSensor(BACK_RIGHT);
 1816              		.loc 1 812 0
 1817 0040 0520     		movs	r0, #5
 1818 0042 FFF7FEFF 		bl	distanceSensor
 1819              	.LVL305:
 813:navigation.c  ****     CyDelay(60);
 1820              		.loc 1 813 0
 1821 0046 3C20     		movs	r0, #60
 1822 0048 FFF7FEFF 		bl	CyDelay
 1823              	.LVL306:
 1824              	.L119:
 799:navigation.c  ****             
 1825              		.loc 1 799 0
 1826 004c 044A     		ldr	r2, .L122
 1827 004e 1168     		ldr	r1, [r2]
 1828 0050 5369     		ldr	r3, [r2, #20]
 1829 0052 0B44     		add	r3, r3, r1
 1830 0054 6433     		adds	r3, r3, #100
 1831 0056 B3F5966F 		cmp	r3, #1200
 1832 005a E5DB     		blt	.L120
 814:navigation.c  ****         
 815:navigation.c  ****     }
 816:navigation.c  ****     
 817:navigation.c  **** }
 1833              		.loc 1 817 0
 1834 005c 08BD     		pop	{r3, pc}
 1835              	.L123:
 1836 005e 00BF     		.align	2
 1837              	.L122:
 1838 0060 00000000 		.word	sensor_distances
 1839              		.cfi_endproc
 1840              	.LFE74:
 1841              		.size	toleranceCheck, .-toleranceCheck
 1842              		.section	.text.locatePucks,"ax",%progbits
ARM GAS  C:\Users\Blayke\AppData\Local\Temp\cc62WBhQ.s 			page 50


 1843              		.align	2
 1844              		.global	locatePucks
 1845              		.thumb
 1846              		.thumb_func
 1847              		.type	locatePucks, %function
 1848              	locatePucks:
 1849              	.LFB75:
 818:navigation.c  **** 
 819:navigation.c  **** void locatePucks(void)
 820:navigation.c  **** {
 1850              		.loc 1 820 0
 1851              		.cfi_startproc
 1852              		@ args = 0, pretend = 0, frame = 0
 1853              		@ frame_needed = 0, uses_anonymous_args = 0
 1854              		@ link register save eliminated.
 1855 0000 7047     		bx	lr
 1856              		.cfi_endproc
 1857              	.LFE75:
 1858              		.size	locatePucks, .-locatePucks
 1859 0002 00BF     		.section	.text.blockAndPuckZoneFinding,"ax",%progbits
 1860              		.align	2
 1861              		.global	blockAndPuckZoneFinding
 1862              		.thumb
 1863              		.thumb_func
 1864              		.type	blockAndPuckZoneFinding, %function
 1865              	blockAndPuckZoneFinding:
 1866              	.LFB76:
 821:navigation.c  ****     
 822:navigation.c  ****     
 823:navigation.c  ****     
 824:navigation.c  ****     
 825:navigation.c  **** }
 826:navigation.c  **** 
 827:navigation.c  **** 
 828:navigation.c  **** void blockAndPuckZoneFinding(void) {
 1867              		.loc 1 828 0
 1868              		.cfi_startproc
 1869              		@ args = 0, pretend = 0, frame = 0
 1870              		@ frame_needed = 0, uses_anonymous_args = 0
 1871              		@ link register save eliminated.
 1872              	.LVL307:
 1873 0000 7047     		bx	lr
 1874              		.cfi_endproc
 1875              	.LFE76:
 1876              		.size	blockAndPuckZoneFinding, .-blockAndPuckZoneFinding
 1877 0002 00BF     		.section	.text.straightAdjustSensor,"ax",%progbits
 1878              		.align	2
 1879              		.global	straightAdjustSensor
 1880              		.thumb
 1881              		.thumb_func
 1882              		.type	straightAdjustSensor, %function
 1883              	straightAdjustSensor:
 1884              	.LFB77:
 829:navigation.c  ****     // this function will scan while moving across, and depending on different thresholds, whill tr
 830:navigation.c  ****     // either for a block or a  puck
 831:navigation.c  ****     
 832:navigation.c  ****     int block_threshold; // the block toloerance will be anything less than 700mm - width of robot 
ARM GAS  C:\Users\Blayke\AppData\Local\Temp\cc62WBhQ.s 			page 51


 833:navigation.c  ****     
 834:navigation.c  ****     int puck_threshold;     // the puck zone will be between 1200 - width of robot - opposite senso
 835:navigation.c  ****                                                         //  & 1200 - grid_width - width of robot - 
 836:navigation.c  ****     
 837:navigation.c  ****     int distance_sensor;    // the value the ultrasonic sensors will give us
 838:navigation.c  ****     
 839:navigation.c  ****     // first check the south facing sensor's value, ensure that it is correct
 840:navigation.c  ****     
 841:navigation.c  ****     
 842:navigation.c  ****     // need to scan the front or back sensors
 843:navigation.c  ****     // This function can be generalised, but I'm going to first write it just assuming we are movin
 844:navigation.c  ****     // from the west wall towards the east wall
 845:navigation.c  ****     
 846:navigation.c  ****     // The following while loop will run while the sensor is above the puck threshold and inbetween
 847:navigation.c  ****     // the puck threshold and the block threshold 
 848:navigation.c  ****     // as soon as it moves outside of this threshold, it will trigger, and then we will determine w
 849:navigation.c  ****     // the puck or the block that triggere it
 850:navigation.c  ****     
 851:navigation.c  ****     // Then it will keep moving, looking to trigger only for the other object
 852:navigation.c  ****     
 853:navigation.c  ****     
 854:navigation.c  ****     
 855:navigation.c  ****     // Calculate the block threshold:
 856:navigation.c  ****     block_threshold = 0;
 857:navigation.c  ****     
 858:navigation.c  ****     // Calulcate the puck threshold: 
 859:navigation.c  ****     puck_threshold = 0;
 860:navigation.c  ****     
 861:navigation.c  ****     
 862:navigation.c  ****     // Hardcoded values for both, assuming location of robot: (if dynamic versions don't work) 
 863:navigation.c  ****     
 864:navigation.c  ****     distance_sensor = (puck_threshold + block_threshold)/2;     // Used to initialise the while loo
 865:navigation.c  ****     
 866:navigation.c  ****     while (distance_sensor > puck_threshold) {
 867:navigation.c  ****     
 868:navigation.c  ****         
 869:navigation.c  ****     
 870:navigation.c  ****     } 
 871:navigation.c  ****     if (distance_sensor < puck_threshold && distance_sensor > block_threshold) {
 872:navigation.c  ****         // The puck sensor tripped the sensor
 873:navigation.c  ****         
 874:navigation.c  ****         
 875:navigation.c  ****         
 876:navigation.c  ****         // Enter while loop to find block: 
 877:navigation.c  ****         while (distance_sensor > block_threshold) {
 878:navigation.c  ****             
 879:navigation.c  ****             
 880:navigation.c  ****             
 881:navigation.c  ****         }
 882:navigation.c  **** 
 883:navigation.c  ****     }
 884:navigation.c  ****     else if (distance_sensor < block_threshold) {
 885:navigation.c  ****         // The block tripped the sensor 
 886:navigation.c  ****         
 887:navigation.c  ****         
 888:navigation.c  ****         
 889:navigation.c  ****         // Enter while loop to find puck:         
ARM GAS  C:\Users\Blayke\AppData\Local\Temp\cc62WBhQ.s 			page 52


 890:navigation.c  ****         while (distance_sensor > puck_threshold && distance_sensor < block_threshold) {
 891:navigation.c  ****             
 892:navigation.c  ****             
 893:navigation.c  ****         }
 894:navigation.c  ****         
 895:navigation.c  ****     }
 896:navigation.c  ****     
 897:navigation.c  **** 
 898:navigation.c  **** }
 899:navigation.c  **** 
 900:navigation.c  **** void straightAdjustSensor(int sensor){
 1885              		.loc 1 900 0
 1886              		.cfi_startproc
 1887              		@ args = 0, pretend = 0, frame = 0
 1888              		@ frame_needed = 0, uses_anonymous_args = 0
 1889              	.LVL308:
 1890              		.loc 1 900 0
 1891 0000 70B5     		push	{r4, r5, r6, lr}
 1892              		.cfi_def_cfa_offset 16
 1893              		.cfi_offset 4, -16
 1894              		.cfi_offset 5, -12
 1895              		.cfi_offset 6, -8
 1896              		.cfi_offset 14, -4
 1897 0002 0546     		mov	r5, r0
 901:navigation.c  ****     //Start by rotating a definite direction away from the rough center point we have aligned in be
 902:navigation.c  ****     moveSwivel(OVER_ROTATION_ANGLE, SPEED_LOW, FALSE);
 1898              		.loc 1 902 0
 1899 0004 0022     		movs	r2, #0
 1900 0006 4621     		movs	r1, #70
 1901 0008 1420     		movs	r0, #20
 1902              	.LVL309:
 1903 000a FFF7FEFF 		bl	moveSwivel
 1904              	.LVL310:
 903:navigation.c  ****     distanceSensor(sensor);
 1905              		.loc 1 903 0
 1906 000e 2846     		mov	r0, r5
 1907 0010 FFF7FEFF 		bl	distanceSensor
 1908              	.LVL311:
 904:navigation.c  ****     int minimum = sensor_distances[sensor];
 1909              		.loc 1 904 0
 1910 0014 104B     		ldr	r3, .L132
 1911 0016 53F82560 		ldr	r6, [r3, r5, lsl #2]
 1912              	.LVL312:
 905:navigation.c  ****     int above_minimum_count = 0;
 1913              		.loc 1 905 0
 1914 001a 0024     		movs	r4, #0
 1915              	.LVL313:
 1916              	.L129:
 906:navigation.c  ****     while(1){
 907:navigation.c  ****         distanceSensor(sensor);
 1917              		.loc 1 907 0
 1918 001c 2846     		mov	r0, r5
 1919 001e FFF7FEFF 		bl	distanceSensor
 1920              	.LVL314:
 908:navigation.c  ****         CyDelay(100);
 1921              		.loc 1 908 0
 1922 0022 6420     		movs	r0, #100
ARM GAS  C:\Users\Blayke\AppData\Local\Temp\cc62WBhQ.s 			page 53


 1923 0024 FFF7FEFF 		bl	CyDelay
 1924              	.LVL315:
 909:navigation.c  ****         
 910:navigation.c  ****         if (sensor_distances[sensor] < minimum) { // Update minimum if smaller value is found
 1925              		.loc 1 910 0
 1926 0028 0B4B     		ldr	r3, .L132
 1927 002a 53F82530 		ldr	r3, [r3, r5, lsl #2]
 1928 002e 9E42     		cmp	r6, r3
 1929 0030 01DC     		bgt	.L130
 911:navigation.c  ****             minimum = sensor_distances[sensor];
 912:navigation.c  ****             above_minimum_count = 0;
 913:navigation.c  ****         } 
 914:navigation.c  ****         else {
 915:navigation.c  ****             above_minimum_count++;   
 1930              		.loc 1 915 0
 1931 0032 0134     		adds	r4, r4, #1
 1932              	.LVL316:
 1933 0034 01E0     		b	.L127
 1934              	.L130:
 911:navigation.c  ****             minimum = sensor_distances[sensor];
 1935              		.loc 1 911 0
 1936 0036 1E46     		mov	r6, r3
 1937              	.LVL317:
 912:navigation.c  ****         } 
 1938              		.loc 1 912 0
 1939 0038 0024     		movs	r4, #0
 1940              	.LVL318:
 1941              	.L127:
 916:navigation.c  ****         }
 917:navigation.c  ****         
 918:navigation.c  ****         if (above_minimum_count == ABOVE_MINIMUM_COUNT_THRESHOLD){
 1942              		.loc 1 918 0
 1943 003a 032C     		cmp	r4, #3
 1944 003c 04D1     		bne	.L128
 919:navigation.c  ****             moveSwivel(ABOVE_MINIMUM_COUNT_THRESHOLD, SPEED_LOW_ROTATE, FALSE);   
 1945              		.loc 1 919 0
 1946 003e 0022     		movs	r2, #0
 1947 0040 1921     		movs	r1, #25
 1948 0042 0320     		movs	r0, #3
 1949 0044 FFF7FEFF 		bl	moveSwivel
 1950              	.LVL319:
 1951              	.L128:
 920:navigation.c  ****         }
 921:navigation.c  **** 
 922:navigation.c  ****         moveSwivel(-1, SPEED_LOW_ROTATE, FALSE);
 1952              		.loc 1 922 0
 1953 0048 0022     		movs	r2, #0
 1954 004a 1921     		movs	r1, #25
 1955 004c 4FF0FF30 		mov	r0, #-1
 1956 0050 FFF7FEFF 		bl	moveSwivel
 1957              	.LVL320:
 923:navigation.c  ****     }
 1958              		.loc 1 923 0
 1959 0054 E2E7     		b	.L129
 1960              	.L133:
 1961 0056 00BF     		.align	2
 1962              	.L132:
ARM GAS  C:\Users\Blayke\AppData\Local\Temp\cc62WBhQ.s 			page 54


 1963 0058 00000000 		.word	sensor_distances
 1964              		.cfi_endproc
 1965              	.LFE77:
 1966              		.size	straightAdjustSensor, .-straightAdjustSensor
 1967              		.comm	ultrasonic_flag,4,4
 1968              		.comm	initialisation,4,4
 1969              		.comm	output,32,4
 1970              		.comm	block_edge_location,16,4
 1971              		.comm	puck_rack_west_offsets,20,4
 1972              		.comm	puck_rack_scans,20,4
 1973              		.comm	internal_orientation,4,4
 1974              		.section	.rodata.str1.4,"aMS",%progbits,1
 1975              		.align	2
 1976              	.LC0:
 1977 0000 25692009 		.ascii	"%i \011\000"
 1977      00
 1978 0005 000000   		.space	3
 1979              	.LC1:
 1980 0008 25642009 		.ascii	"%d \011\000"
 1980      00
 1981 000d 000000   		.space	3
 1982              	.LC2:
 1983 0010 656E7465 		.ascii	"entering greater than\012\000"
 1983      72696E67 
 1983      20677265 
 1983      61746572 
 1983      20746861 
 1984 0027 00       		.space	1
 1985              	.LC3:
 1986 0028 656E7465 		.ascii	"entering less than\012\000"
 1986      72696E67 
 1986      206C6573 
 1986      73207468 
 1986      616E0A00 
 1987              	.LC4:
 1988 003c 65786974 		.ascii	"exited loop\000"
 1988      6564206C 
 1988      6F6F7000 
 1989              	.LC5:
 1990 0048 53414645 		.ascii	"SAFETY MARGIN ACTIVATED @ %d\012\000"
 1990      5459204D 
 1990      41524749 
 1990      4E204143 
 1990      54495641 
 1991 0066 0000     		.space	2
 1992              	.LC6:
 1993 0068 0A206669 		.ascii	"\012 fin: %d \012\000"
 1993      6E3A2025 
 1993      64200A00 
 1994              	.LC7:
 1995 0074 64696666 		.ascii	"difference = %d, \012\000"
 1995      6572656E 
 1995      6365203D 
 1995      2025642C 
 1995      200A00
 1996 0087 00       		.space	1
 1997              	.LC8:
ARM GAS  C:\Users\Blayke\AppData\Local\Temp\cc62WBhQ.s 			page 55


 1998 0088 20256420 		.ascii	" %d , %d \011 dif: %d, \012\000"
 1998      2C202564 
 1998      20092064 
 1998      69663A20 
 1998      25642C20 
 1999 009e 0000     		.space	2
 2000              	.LC9:
 2001 00a0 25642C20 		.ascii	"%d, %d, \000"
 2001      25642C20 
 2001      00
 2002 00a9 000000   		.space	3
 2003              	.LC10:
 2004 00ac 6469663A 		.ascii	"dif: %d, \012\000"
 2004      2025642C 
 2004      200A00
 2005 00b7 00       		.space	1
 2006              	.LC11:
 2007 00b8 74696D65 		.ascii	"timer count: %d\000"
 2007      7220636F 
 2007      756E743A 
 2007      20256400 
 2008              		.text
 2009              	.Letext0:
 2010              		.file 2 "d:\\program files (x86)\\cyprus\\psoc creator\\4.2\\psoc creator\\import\\gnu\\arm\\5.4.1
 2011              		.file 3 "d:\\program files (x86)\\cyprus\\psoc creator\\4.2\\psoc creator\\import\\gnu\\arm\\5.4.1
 2012              		.file 4 "Generated_Source\\PSoC5/core_cm3.h"
 2013              		.file 5 "navigation.h"
 2014              		.file 6 "ultrasonic.h"
 2015              		.file 7 "main.h"
 2016              		.file 8 "servo.h"
 2017              		.file 9 "colour.h"
 2018              		.file 10 "Generated_Source\\PSoC5/Motor_Left_Control.h"
 2019              		.file 11 "Generated_Source\\PSoC5/Motor_Right_Control.h"
 2020              		.file 12 "Generated_Source\\PSoC5/Motor_Left_Driver.h"
 2021              		.file 13 "Generated_Source\\PSoC5/Motor_Right_Driver.h"
 2022              		.file 14 "Generated_Source\\PSoC5/control_photodiode.h"
 2023              		.file 15 "Generated_Source\\PSoC5/Motor_Right_Decoder.h"
 2024              		.file 16 "Generated_Source\\PSoC5/Motor_Left_Decoder.h"
 2025              		.file 17 "Generated_Source\\PSoC5/CyLib.h"
 2026              		.file 18 "d:\\program files (x86)\\cyprus\\psoc creator\\4.2\\psoc creator\\import\\gnu\\arm\\5.4.
 2027              		.file 19 "Generated_Source\\PSoC5/UART_1.h"
 2028              		.file 20 "motor.h"
 2029              		.file 21 "Generated_Source\\PSoC5/Timer_straight_adjust.h"
 2030              		.file 22 "Generated_Source\\PSoC5/Control_Reset_Straight.h"
 2031              		.section	.debug_info,"",%progbits
 2032              	.Ldebug_info0:
 2033 0000 FB160000 		.4byte	0x16fb
 2034 0004 0400     		.2byte	0x4
 2035 0006 00000000 		.4byte	.Ldebug_abbrev0
 2036 000a 04       		.byte	0x4
 2037 000b 01       		.uleb128 0x1
 2038 000c 17070000 		.4byte	.LASF113
 2039 0010 0C       		.byte	0xc
 2040 0011 C4000000 		.4byte	.LASF114
 2041 0015 ED040000 		.4byte	.LASF115
 2042 0019 00000000 		.4byte	.Ldebug_ranges0+0
 2043 001d 00000000 		.4byte	0
ARM GAS  C:\Users\Blayke\AppData\Local\Temp\cc62WBhQ.s 			page 56


 2044 0021 00000000 		.4byte	.Ldebug_line0
 2045 0025 02       		.uleb128 0x2
 2046 0026 01       		.byte	0x1
 2047 0027 06       		.byte	0x6
 2048 0028 0A040000 		.4byte	.LASF0
 2049 002c 02       		.uleb128 0x2
 2050 002d 01       		.byte	0x1
 2051 002e 08       		.byte	0x8
 2052 002f BE030000 		.4byte	.LASF1
 2053 0033 02       		.uleb128 0x2
 2054 0034 02       		.byte	0x2
 2055 0035 05       		.byte	0x5
 2056 0036 81010000 		.4byte	.LASF2
 2057 003a 02       		.uleb128 0x2
 2058 003b 02       		.byte	0x2
 2059 003c 07       		.byte	0x7
 2060 003d A3040000 		.4byte	.LASF3
 2061 0041 03       		.uleb128 0x3
 2062 0042 9B060000 		.4byte	.LASF9
 2063 0046 02       		.byte	0x2
 2064 0047 3F       		.byte	0x3f
 2065 0048 4C000000 		.4byte	0x4c
 2066 004c 02       		.uleb128 0x2
 2067 004d 04       		.byte	0x4
 2068 004e 05       		.byte	0x5
 2069 004f A8020000 		.4byte	.LASF4
 2070 0053 02       		.uleb128 0x2
 2071 0054 04       		.byte	0x4
 2072 0055 07       		.byte	0x7
 2073 0056 F9050000 		.4byte	.LASF5
 2074 005a 02       		.uleb128 0x2
 2075 005b 08       		.byte	0x8
 2076 005c 05       		.byte	0x5
 2077 005d 6A020000 		.4byte	.LASF6
 2078 0061 02       		.uleb128 0x2
 2079 0062 08       		.byte	0x8
 2080 0063 07       		.byte	0x7
 2081 0064 2A040000 		.4byte	.LASF7
 2082 0068 04       		.uleb128 0x4
 2083 0069 04       		.byte	0x4
 2084 006a 05       		.byte	0x5
 2085 006b 696E7400 		.ascii	"int\000"
 2086 006f 02       		.uleb128 0x2
 2087 0070 04       		.byte	0x4
 2088 0071 07       		.byte	0x7
 2089 0072 41040000 		.4byte	.LASF8
 2090 0076 03       		.uleb128 0x3
 2091 0077 D1020000 		.4byte	.LASF10
 2092 007b 03       		.byte	0x3
 2093 007c 2C       		.byte	0x2c
 2094 007d 41000000 		.4byte	0x41
 2095 0081 02       		.uleb128 0x2
 2096 0082 04       		.byte	0x4
 2097 0083 04       		.byte	0x4
 2098 0084 45020000 		.4byte	.LASF11
 2099 0088 02       		.uleb128 0x2
 2100 0089 08       		.byte	0x8
ARM GAS  C:\Users\Blayke\AppData\Local\Temp\cc62WBhQ.s 			page 57


 2101 008a 04       		.byte	0x4
 2102 008b 17060000 		.4byte	.LASF12
 2103 008f 02       		.uleb128 0x2
 2104 0090 01       		.byte	0x1
 2105 0091 08       		.byte	0x8
 2106 0092 E8040000 		.4byte	.LASF13
 2107 0096 02       		.uleb128 0x2
 2108 0097 08       		.byte	0x8
 2109 0098 04       		.byte	0x4
 2110 0099 1A010000 		.4byte	.LASF14
 2111 009d 02       		.uleb128 0x2
 2112 009e 04       		.byte	0x4
 2113 009f 07       		.byte	0x7
 2114 00a0 BF060000 		.4byte	.LASF15
 2115 00a4 05       		.uleb128 0x5
 2116 00a5 00040000 		.4byte	.LASF18
 2117 00a9 01       		.byte	0x1
 2118 00aa 20       		.byte	0x20
 2119 00ab 00000000 		.4byte	.LFB64
 2120 00af 48000000 		.4byte	.LFE64-.LFB64
 2121 00b3 01       		.uleb128 0x1
 2122 00b4 9C       		.byte	0x9c
 2123 00b5 25010000 		.4byte	0x125
 2124 00b9 06       		.uleb128 0x6
 2125 00ba 28020000 		.4byte	.LASF16
 2126 00be 01       		.byte	0x1
 2127 00bf 22       		.byte	0x22
 2128 00c0 68000000 		.4byte	0x68
 2129 00c4 00000000 		.4byte	.LLST0
 2130 00c8 06       		.uleb128 0x6
 2131 00c9 91060000 		.4byte	.LASF17
 2132 00cd 01       		.byte	0x1
 2133 00ce 23       		.byte	0x23
 2134 00cf 68000000 		.4byte	0x68
 2135 00d3 1F000000 		.4byte	.LLST1
 2136 00d7 07       		.uleb128 0x7
 2137 00d8 10000000 		.4byte	.LVL1
 2138 00dc D5150000 		.4byte	0x15d5
 2139 00e0 EF000000 		.4byte	0xef
 2140 00e4 08       		.uleb128 0x8
 2141 00e5 01       		.uleb128 0x1
 2142 00e6 50       		.byte	0x50
 2143 00e7 01       		.uleb128 0x1
 2144 00e8 33       		.byte	0x33
 2145 00e9 08       		.uleb128 0x8
 2146 00ea 01       		.uleb128 0x1
 2147 00eb 51       		.byte	0x51
 2148 00ec 01       		.uleb128 0x1
 2149 00ed 32       		.byte	0x32
 2150 00ee 00       		.byte	0
 2151 00ef 07       		.uleb128 0x7
 2152 00f0 1C000000 		.4byte	.LVL3
 2153 00f4 D5150000 		.4byte	0x15d5
 2154 00f8 07010000 		.4byte	0x107
 2155 00fc 08       		.uleb128 0x8
 2156 00fd 01       		.uleb128 0x1
 2157 00fe 50       		.byte	0x50
ARM GAS  C:\Users\Blayke\AppData\Local\Temp\cc62WBhQ.s 			page 58


 2158 00ff 01       		.uleb128 0x1
 2159 0100 31       		.byte	0x31
 2160 0101 08       		.uleb128 0x8
 2161 0102 01       		.uleb128 0x1
 2162 0103 51       		.byte	0x51
 2163 0104 01       		.uleb128 0x1
 2164 0105 32       		.byte	0x32
 2165 0106 00       		.byte	0
 2166 0107 09       		.uleb128 0x9
 2167 0108 20000000 		.4byte	.LVL4
 2168 010c E0150000 		.4byte	0x15e0
 2169 0110 0A       		.uleb128 0xa
 2170 0111 2A000000 		.4byte	.LVL7
 2171 0115 D5150000 		.4byte	0x15d5
 2172 0119 08       		.uleb128 0x8
 2173 011a 01       		.uleb128 0x1
 2174 011b 50       		.byte	0x50
 2175 011c 01       		.uleb128 0x1
 2176 011d 33       		.byte	0x33
 2177 011e 08       		.uleb128 0x8
 2178 011f 01       		.uleb128 0x1
 2179 0120 51       		.byte	0x51
 2180 0121 01       		.uleb128 0x1
 2181 0122 32       		.byte	0x32
 2182 0123 00       		.byte	0
 2183 0124 00       		.byte	0
 2184 0125 05       		.uleb128 0x5
 2185 0126 B0030000 		.4byte	.LASF19
 2186 012a 01       		.byte	0x1
 2187 012b 54       		.byte	0x54
 2188 012c 00000000 		.4byte	.LFB66
 2189 0130 D0000000 		.4byte	.LFE66-.LFB66
 2190 0134 01       		.uleb128 0x1
 2191 0135 9C       		.byte	0x9c
 2192 0136 FD020000 		.4byte	0x2fd
 2193 013a 0B       		.uleb128 0xb
 2194 013b 72060000 		.4byte	.LASF29
 2195 013f 01       		.byte	0x1
 2196 0140 54       		.byte	0x54
 2197 0141 68000000 		.4byte	0x68
 2198 0145 3D000000 		.4byte	.LLST2
 2199 0149 06       		.uleb128 0x6
 2200 014a A9050000 		.4byte	.LASF20
 2201 014e 01       		.byte	0x1
 2202 014f 56       		.byte	0x56
 2203 0150 68000000 		.4byte	0x68
 2204 0154 69000000 		.4byte	.LLST3
 2205 0158 0C       		.uleb128 0xc
 2206 0159 5B040000 		.4byte	.LASF21
 2207 015d 01       		.byte	0x1
 2208 015e 58       		.byte	0x58
 2209 015f 68000000 		.4byte	0x68
 2210 0163 46       		.byte	0x46
 2211 0164 06       		.uleb128 0x6
 2212 0165 AD070000 		.4byte	.LASF22
 2213 0169 01       		.byte	0x1
 2214 016a 5A       		.byte	0x5a
ARM GAS  C:\Users\Blayke\AppData\Local\Temp\cc62WBhQ.s 			page 59


 2215 016b 68000000 		.4byte	0x68
 2216 016f 9E000000 		.4byte	.LLST4
 2217 0173 06       		.uleb128 0x6
 2218 0174 C6020000 		.4byte	.LASF23
 2219 0178 01       		.byte	0x1
 2220 0179 5B       		.byte	0x5b
 2221 017a 68000000 		.4byte	0x68
 2222 017e BC000000 		.4byte	.LLST5
 2223 0182 06       		.uleb128 0x6
 2224 0183 78000000 		.4byte	.LASF24
 2225 0187 01       		.byte	0x1
 2226 0188 5C       		.byte	0x5c
 2227 0189 68000000 		.4byte	0x68
 2228 018d DA000000 		.4byte	.LLST6
 2229 0191 06       		.uleb128 0x6
 2230 0192 B9070000 		.4byte	.LASF25
 2231 0196 01       		.byte	0x1
 2232 0197 5D       		.byte	0x5d
 2233 0198 68000000 		.4byte	0x68
 2234 019c FA000000 		.4byte	.LLST7
 2235 01a0 07       		.uleb128 0x7
 2236 01a1 0C000000 		.4byte	.LVL13
 2237 01a5 EB150000 		.4byte	0x15eb
 2238 01a9 B3010000 		.4byte	0x1b3
 2239 01ad 08       		.uleb128 0x8
 2240 01ae 01       		.uleb128 0x1
 2241 01af 50       		.byte	0x50
 2242 01b0 01       		.uleb128 0x1
 2243 01b1 30       		.byte	0x30
 2244 01b2 00       		.byte	0
 2245 01b3 07       		.uleb128 0x7
 2246 01b4 12000000 		.4byte	.LVL14
 2247 01b8 F6150000 		.4byte	0x15f6
 2248 01bc C6010000 		.4byte	0x1c6
 2249 01c0 08       		.uleb128 0x8
 2250 01c1 01       		.uleb128 0x1
 2251 01c2 50       		.byte	0x50
 2252 01c3 01       		.uleb128 0x1
 2253 01c4 30       		.byte	0x30
 2254 01c5 00       		.byte	0
 2255 01c6 09       		.uleb128 0x9
 2256 01c7 16000000 		.4byte	.LVL15
 2257 01cb 01160000 		.4byte	0x1601
 2258 01cf 07       		.uleb128 0x7
 2259 01d0 1C000000 		.4byte	.LVL16
 2260 01d4 0C160000 		.4byte	0x160c
 2261 01d8 E3010000 		.4byte	0x1e3
 2262 01dc 08       		.uleb128 0x8
 2263 01dd 01       		.uleb128 0x1
 2264 01de 50       		.byte	0x50
 2265 01df 02       		.uleb128 0x2
 2266 01e0 08       		.byte	0x8
 2267 01e1 46       		.byte	0x46
 2268 01e2 00       		.byte	0
 2269 01e3 09       		.uleb128 0x9
 2270 01e4 20000000 		.4byte	.LVL17
 2271 01e8 17160000 		.4byte	0x1617
ARM GAS  C:\Users\Blayke\AppData\Local\Temp\cc62WBhQ.s 			page 60


 2272 01ec 07       		.uleb128 0x7
 2273 01ed 26000000 		.4byte	.LVL18
 2274 01f1 22160000 		.4byte	0x1622
 2275 01f5 00020000 		.4byte	0x200
 2276 01f9 08       		.uleb128 0x8
 2277 01fa 01       		.uleb128 0x1
 2278 01fb 50       		.byte	0x50
 2279 01fc 02       		.uleb128 0x2
 2280 01fd 08       		.byte	0x8
 2281 01fe 46       		.byte	0x46
 2282 01ff 00       		.byte	0
 2283 0200 09       		.uleb128 0x9
 2284 0201 2A000000 		.4byte	.LVL19
 2285 0205 2D160000 		.4byte	0x162d
 2286 0209 07       		.uleb128 0x7
 2287 020a 30000000 		.4byte	.LVL20
 2288 020e 38160000 		.4byte	0x1638
 2289 0212 1C020000 		.4byte	0x21c
 2290 0216 08       		.uleb128 0x8
 2291 0217 01       		.uleb128 0x1
 2292 0218 50       		.byte	0x50
 2293 0219 01       		.uleb128 0x1
 2294 021a 31       		.byte	0x31
 2295 021b 00       		.byte	0
 2296 021c 09       		.uleb128 0x9
 2297 021d 42000000 		.4byte	.LVL22
 2298 0221 43160000 		.4byte	0x1643
 2299 0225 09       		.uleb128 0x9
 2300 0226 48000000 		.4byte	.LVL24
 2301 022a 4E160000 		.4byte	0x164e
 2302 022e 09       		.uleb128 0x9
 2303 022f 4E000000 		.4byte	.LVL26
 2304 0233 E0150000 		.4byte	0x15e0
 2305 0237 07       		.uleb128 0x7
 2306 0238 56000000 		.4byte	.LVL29
 2307 023c 59160000 		.4byte	0x1659
 2308 0240 4A020000 		.4byte	0x24a
 2309 0244 08       		.uleb128 0x8
 2310 0245 01       		.uleb128 0x1
 2311 0246 50       		.byte	0x50
 2312 0247 01       		.uleb128 0x1
 2313 0248 3A       		.byte	0x3a
 2314 0249 00       		.byte	0
 2315 024a 07       		.uleb128 0x7
 2316 024b 62000000 		.4byte	.LVL30
 2317 024f 64160000 		.4byte	0x1664
 2318 0253 6D020000 		.4byte	0x26d
 2319 0257 08       		.uleb128 0x8
 2320 0258 01       		.uleb128 0x1
 2321 0259 50       		.byte	0x50
 2322 025a 02       		.uleb128 0x2
 2323 025b 77       		.byte	0x77
 2324 025c 00       		.sleb128 0
 2325 025d 08       		.uleb128 0x8
 2326 025e 01       		.uleb128 0x1
 2327 025f 51       		.byte	0x51
 2328 0260 05       		.uleb128 0x5
ARM GAS  C:\Users\Blayke\AppData\Local\Temp\cc62WBhQ.s 			page 61


 2329 0261 03       		.byte	0x3
 2330 0262 00000000 		.4byte	.LC0
 2331 0266 08       		.uleb128 0x8
 2332 0267 01       		.uleb128 0x1
 2333 0268 52       		.byte	0x52
 2334 0269 02       		.uleb128 0x2
 2335 026a 76       		.byte	0x76
 2336 026b 00       		.sleb128 0
 2337 026c 00       		.byte	0
 2338 026d 07       		.uleb128 0x7
 2339 026e 68000000 		.4byte	.LVL31
 2340 0272 6F160000 		.4byte	0x166f
 2341 0276 81020000 		.4byte	0x281
 2342 027a 08       		.uleb128 0x8
 2343 027b 01       		.uleb128 0x1
 2344 027c 50       		.byte	0x50
 2345 027d 02       		.uleb128 0x2
 2346 027e 77       		.byte	0x77
 2347 027f 00       		.sleb128 0
 2348 0280 00       		.byte	0
 2349 0281 07       		.uleb128 0x7
 2350 0282 96000000 		.4byte	.LVL36
 2351 0286 0C160000 		.4byte	0x160c
 2352 028a 95020000 		.4byte	0x295
 2353 028e 08       		.uleb128 0x8
 2354 028f 01       		.uleb128 0x1
 2355 0290 50       		.byte	0x50
 2356 0291 02       		.uleb128 0x2
 2357 0292 79       		.byte	0x79
 2358 0293 00       		.sleb128 0
 2359 0294 00       		.byte	0
 2360 0295 07       		.uleb128 0x7
 2361 0296 9C000000 		.4byte	.LVL37
 2362 029a 22160000 		.4byte	0x1622
 2363 029e A9020000 		.4byte	0x2a9
 2364 02a2 08       		.uleb128 0x8
 2365 02a3 01       		.uleb128 0x1
 2366 02a4 50       		.byte	0x50
 2367 02a5 02       		.uleb128 0x2
 2368 02a6 78       		.byte	0x78
 2369 02a7 00       		.sleb128 0
 2370 02a8 00       		.byte	0
 2371 02a9 07       		.uleb128 0x7
 2372 02aa A6000000 		.4byte	.LVL38
 2373 02ae 7A160000 		.4byte	0x167a
 2374 02b2 BC020000 		.4byte	0x2bc
 2375 02b6 08       		.uleb128 0x8
 2376 02b7 01       		.uleb128 0x1
 2377 02b8 50       		.byte	0x50
 2378 02b9 01       		.uleb128 0x1
 2379 02ba 30       		.byte	0x30
 2380 02bb 00       		.byte	0
 2381 02bc 07       		.uleb128 0x7
 2382 02bd AC000000 		.4byte	.LVL39
 2383 02c1 85160000 		.4byte	0x1685
 2384 02c5 CF020000 		.4byte	0x2cf
 2385 02c9 08       		.uleb128 0x8
ARM GAS  C:\Users\Blayke\AppData\Local\Temp\cc62WBhQ.s 			page 62


 2386 02ca 01       		.uleb128 0x1
 2387 02cb 50       		.byte	0x50
 2388 02cc 01       		.uleb128 0x1
 2389 02cd 30       		.byte	0x30
 2390 02ce 00       		.byte	0
 2391 02cf 09       		.uleb128 0x9
 2392 02d0 B0000000 		.4byte	.LVL40
 2393 02d4 90160000 		.4byte	0x1690
 2394 02d8 09       		.uleb128 0x9
 2395 02d9 B4000000 		.4byte	.LVL41
 2396 02dd 9B160000 		.4byte	0x169b
 2397 02e1 0A       		.uleb128 0xa
 2398 02e2 BE000000 		.4byte	.LVL42
 2399 02e6 A6160000 		.4byte	0x16a6
 2400 02ea 08       		.uleb128 0x8
 2401 02eb 01       		.uleb128 0x1
 2402 02ec 50       		.byte	0x50
 2403 02ed 02       		.uleb128 0x2
 2404 02ee 08       		.byte	0x8
 2405 02ef 25       		.byte	0x25
 2406 02f0 08       		.uleb128 0x8
 2407 02f1 01       		.uleb128 0x1
 2408 02f2 51       		.byte	0x51
 2409 02f3 02       		.uleb128 0x2
 2410 02f4 08       		.byte	0x8
 2411 02f5 64       		.byte	0x64
 2412 02f6 08       		.uleb128 0x8
 2413 02f7 01       		.uleb128 0x1
 2414 02f8 52       		.byte	0x52
 2415 02f9 01       		.uleb128 0x1
 2416 02fa 30       		.byte	0x30
 2417 02fb 00       		.byte	0
 2418 02fc 00       		.byte	0
 2419 02fd 05       		.uleb128 0x5
 2420 02fe 26010000 		.4byte	.LASF26
 2421 0302 01       		.byte	0x1
 2422 0303 40       		.byte	0x40
 2423 0304 00000000 		.4byte	.LFB65
 2424 0308 10000000 		.4byte	.LFE65-.LFB65
 2425 030c 01       		.uleb128 0x1
 2426 030d 9C       		.byte	0x9c
 2427 030e 3A030000 		.4byte	0x33a
 2428 0312 06       		.uleb128 0x6
 2429 0313 4E040000 		.4byte	.LASF27
 2430 0317 01       		.byte	0x1
 2431 0318 44       		.byte	0x44
 2432 0319 68000000 		.4byte	0x68
 2433 031d 30010000 		.4byte	.LLST8
 2434 0321 09       		.uleb128 0x9
 2435 0322 06000000 		.4byte	.LVL44
 2436 0326 E0150000 		.4byte	0x15e0
 2437 032a 0A       		.uleb128 0xa
 2438 032b 0E000000 		.4byte	.LVL46
 2439 032f 25010000 		.4byte	0x125
 2440 0333 08       		.uleb128 0x8
 2441 0334 01       		.uleb128 0x1
 2442 0335 50       		.byte	0x50
ARM GAS  C:\Users\Blayke\AppData\Local\Temp\cc62WBhQ.s 			page 63


 2443 0336 01       		.uleb128 0x1
 2444 0337 35       		.byte	0x35
 2445 0338 00       		.byte	0
 2446 0339 00       		.byte	0
 2447 033a 0D       		.uleb128 0xd
 2448 033b 1A000000 		.4byte	.LASF28
 2449 033f 01       		.byte	0x1
 2450 0340 6301     		.2byte	0x163
 2451 0342 00000000 		.4byte	.LFB68
 2452 0346 3C000000 		.4byte	.LFE68-.LFB68
 2453 034a 01       		.uleb128 0x1
 2454 034b 9C       		.byte	0x9c
 2455 034c A0030000 		.4byte	0x3a0
 2456 0350 0E       		.uleb128 0xe
 2457 0351 D1000000 		.4byte	.LASF30
 2458 0355 01       		.byte	0x1
 2459 0356 6301     		.2byte	0x163
 2460 0358 68000000 		.4byte	0x68
 2461 035c 43010000 		.4byte	.LLST9
 2462 0360 0E       		.uleb128 0xe
 2463 0361 5B040000 		.4byte	.LASF21
 2464 0365 01       		.byte	0x1
 2465 0366 6301     		.2byte	0x163
 2466 0368 68000000 		.4byte	0x68
 2467 036c 70010000 		.4byte	.LLST10
 2468 0370 0F       		.uleb128 0xf
 2469 0371 B6000000 		.4byte	.LASF31
 2470 0375 01       		.byte	0x1
 2471 0376 6801     		.2byte	0x168
 2472 0378 68000000 		.4byte	0x68
 2473 037c 91010000 		.4byte	.LLST11
 2474 0380 0F       		.uleb128 0xf
 2475 0381 7C060000 		.4byte	.LASF32
 2476 0385 01       		.byte	0x1
 2477 0386 6D01     		.2byte	0x16d
 2478 0388 68000000 		.4byte	0x68
 2479 038c C1010000 		.4byte	.LLST12
 2480 0390 0A       		.uleb128 0xa
 2481 0391 2C000000 		.4byte	.LVL53
 2482 0395 B1160000 		.4byte	0x16b1
 2483 0399 08       		.uleb128 0x8
 2484 039a 01       		.uleb128 0x1
 2485 039b 52       		.byte	0x52
 2486 039c 01       		.uleb128 0x1
 2487 039d 31       		.byte	0x31
 2488 039e 00       		.byte	0
 2489 039f 00       		.byte	0
 2490 03a0 0D       		.uleb128 0xd
 2491 03a1 CA040000 		.4byte	.LASF33
 2492 03a5 01       		.byte	0x1
 2493 03a6 7A01     		.2byte	0x17a
 2494 03a8 00000000 		.4byte	.LFB69
 2495 03ac 4C010000 		.4byte	.LFE69-.LFB69
 2496 03b0 01       		.uleb128 0x1
 2497 03b1 9C       		.byte	0x9c
 2498 03b2 99060000 		.4byte	0x699
 2499 03b6 0E       		.uleb128 0xe
ARM GAS  C:\Users\Blayke\AppData\Local\Temp\cc62WBhQ.s 			page 64


 2500 03b7 08030000 		.4byte	.LASF34
 2501 03bb 01       		.byte	0x1
 2502 03bc 7A01     		.2byte	0x17a
 2503 03be 68000000 		.4byte	0x68
 2504 03c2 E8010000 		.4byte	.LLST13
 2505 03c6 0E       		.uleb128 0xe
 2506 03c7 10010000 		.4byte	.LASF35
 2507 03cb 01       		.byte	0x1
 2508 03cc 7A01     		.2byte	0x17a
 2509 03ce 68000000 		.4byte	0x68
 2510 03d2 14020000 		.4byte	.LLST14
 2511 03d6 0E       		.uleb128 0xe
 2512 03d7 61040000 		.4byte	.LASF36
 2513 03db 01       		.byte	0x1
 2514 03dc 7A01     		.2byte	0x17a
 2515 03de 68000000 		.4byte	0x68
 2516 03e2 40020000 		.4byte	.LLST15
 2517 03e6 0E       		.uleb128 0xe
 2518 03e7 08000000 		.4byte	.LASF37
 2519 03eb 01       		.byte	0x1
 2520 03ec 7A01     		.2byte	0x17a
 2521 03ee 68000000 		.4byte	0x68
 2522 03f2 6C020000 		.4byte	.LLST16
 2523 03f6 0E       		.uleb128 0xe
 2524 03f7 5B040000 		.4byte	.LASF21
 2525 03fb 01       		.byte	0x1
 2526 03fc 7A01     		.2byte	0x17a
 2527 03fe 68000000 		.4byte	0x68
 2528 0402 98020000 		.4byte	.LLST17
 2529 0406 10       		.uleb128 0x10
 2530 0407 C6020000 		.4byte	.LASF23
 2531 040b 01       		.byte	0x1
 2532 040c 8101     		.2byte	0x181
 2533 040e 68000000 		.4byte	0x68
 2534 0412 10       		.uleb128 0x10
 2535 0413 AD070000 		.4byte	.LASF22
 2536 0417 01       		.byte	0x1
 2537 0418 8201     		.2byte	0x182
 2538 041a 68000000 		.4byte	0x68
 2539 041e 11       		.uleb128 0x11
 2540 041f 8B040000 		.4byte	.LASF38
 2541 0423 01       		.byte	0x1
 2542 0424 8301     		.2byte	0x183
 2543 0426 68000000 		.4byte	0x68
 2544 042a BF7C     		.sleb128 -449
 2545 042c 0F       		.uleb128 0xf
 2546 042d 78000000 		.4byte	.LASF24
 2547 0431 01       		.byte	0x1
 2548 0432 8501     		.2byte	0x185
 2549 0434 68000000 		.4byte	0x68
 2550 0438 B8020000 		.4byte	.LLST18
 2551 043c 0F       		.uleb128 0xf
 2552 043d B9070000 		.4byte	.LASF25
 2553 0441 01       		.byte	0x1
 2554 0442 8601     		.2byte	0x186
 2555 0444 68000000 		.4byte	0x68
 2556 0448 B8020000 		.4byte	.LLST18
ARM GAS  C:\Users\Blayke\AppData\Local\Temp\cc62WBhQ.s 			page 65


 2557 044c 0F       		.uleb128 0xf
 2558 044d 35020000 		.4byte	.LASF39
 2559 0451 01       		.byte	0x1
 2560 0452 8901     		.2byte	0x189
 2561 0454 68000000 		.4byte	0x68
 2562 0458 D8020000 		.4byte	.LLST20
 2563 045c 07       		.uleb128 0x7
 2564 045d 1E000000 		.4byte	.LVL60
 2565 0461 BC160000 		.4byte	0x16bc
 2566 0465 70040000 		.4byte	0x470
 2567 0469 08       		.uleb128 0x8
 2568 046a 01       		.uleb128 0x1
 2569 046b 50       		.byte	0x50
 2570 046c 02       		.uleb128 0x2
 2571 046d 74       		.byte	0x74
 2572 046e 00       		.sleb128 0
 2573 046f 00       		.byte	0
 2574 0470 07       		.uleb128 0x7
 2575 0471 24000000 		.4byte	.LVL61
 2576 0475 59160000 		.4byte	0x1659
 2577 0479 84040000 		.4byte	0x484
 2578 047d 08       		.uleb128 0x8
 2579 047e 01       		.uleb128 0x1
 2580 047f 50       		.byte	0x50
 2581 0480 02       		.uleb128 0x2
 2582 0481 08       		.byte	0x8
 2583 0482 32       		.byte	0x32
 2584 0483 00       		.byte	0
 2585 0484 07       		.uleb128 0x7
 2586 0485 36000000 		.4byte	.LVL63
 2587 0489 64160000 		.4byte	0x1664
 2588 048d A7040000 		.4byte	0x4a7
 2589 0491 08       		.uleb128 0x8
 2590 0492 01       		.uleb128 0x1
 2591 0493 50       		.byte	0x50
 2592 0494 02       		.uleb128 0x2
 2593 0495 76       		.byte	0x76
 2594 0496 00       		.sleb128 0
 2595 0497 08       		.uleb128 0x8
 2596 0498 01       		.uleb128 0x1
 2597 0499 51       		.byte	0x51
 2598 049a 05       		.uleb128 0x5
 2599 049b 03       		.byte	0x3
 2600 049c 08000000 		.4byte	.LC1
 2601 04a0 08       		.uleb128 0x8
 2602 04a1 01       		.uleb128 0x1
 2603 04a2 52       		.byte	0x52
 2604 04a3 02       		.uleb128 0x2
 2605 04a4 75       		.byte	0x75
 2606 04a5 00       		.sleb128 0
 2607 04a6 00       		.byte	0
 2608 04a7 07       		.uleb128 0x7
 2609 04a8 3C000000 		.4byte	.LVL64
 2610 04ac 6F160000 		.4byte	0x166f
 2611 04b0 BB040000 		.4byte	0x4bb
 2612 04b4 08       		.uleb128 0x8
 2613 04b5 01       		.uleb128 0x1
ARM GAS  C:\Users\Blayke\AppData\Local\Temp\cc62WBhQ.s 			page 66


 2614 04b6 50       		.byte	0x50
 2615 04b7 02       		.uleb128 0x2
 2616 04b8 76       		.byte	0x76
 2617 04b9 00       		.sleb128 0
 2618 04ba 00       		.byte	0
 2619 04bb 07       		.uleb128 0x7
 2620 04bc 56000000 		.4byte	.LVL65
 2621 04c0 6F160000 		.4byte	0x166f
 2622 04c4 D2040000 		.4byte	0x4d2
 2623 04c8 08       		.uleb128 0x8
 2624 04c9 01       		.uleb128 0x1
 2625 04ca 50       		.byte	0x50
 2626 04cb 05       		.uleb128 0x5
 2627 04cc 03       		.byte	0x3
 2628 04cd 10000000 		.4byte	.LC2
 2629 04d1 00       		.byte	0
 2630 04d2 09       		.uleb128 0x9
 2631 04d3 5A000000 		.4byte	.LVL66
 2632 04d7 4E160000 		.4byte	0x164e
 2633 04db 09       		.uleb128 0x9
 2634 04dc 5E000000 		.4byte	.LVL67
 2635 04e0 43160000 		.4byte	0x1643
 2636 04e4 07       		.uleb128 0x7
 2637 04e5 70000000 		.4byte	.LVL68
 2638 04e9 C7160000 		.4byte	0x16c7
 2639 04ed 09050000 		.4byte	0x509
 2640 04f1 08       		.uleb128 0x8
 2641 04f2 01       		.uleb128 0x1
 2642 04f3 50       		.byte	0x50
 2643 04f4 02       		.uleb128 0x2
 2644 04f5 09       		.byte	0x9
 2645 04f6 FB       		.byte	0xfb
 2646 04f7 08       		.uleb128 0x8
 2647 04f8 01       		.uleb128 0x1
 2648 04f9 51       		.byte	0x51
 2649 04fa 01       		.uleb128 0x1
 2650 04fb 37       		.byte	0x37
 2651 04fc 08       		.uleb128 0x8
 2652 04fd 01       		.uleb128 0x1
 2653 04fe 52       		.byte	0x52
 2654 04ff 03       		.uleb128 0x3
 2655 0500 91       		.byte	0x91
 2656 0501 00       		.sleb128 0
 2657 0502 06       		.byte	0x6
 2658 0503 08       		.uleb128 0x8
 2659 0504 01       		.uleb128 0x1
 2660 0505 53       		.byte	0x53
 2661 0506 01       		.uleb128 0x1
 2662 0507 30       		.byte	0x30
 2663 0508 00       		.byte	0
 2664 0509 07       		.uleb128 0x7
 2665 050a 82000000 		.4byte	.LVL69
 2666 050e C7160000 		.4byte	0x16c7
 2667 0512 2E050000 		.4byte	0x52e
 2668 0516 08       		.uleb128 0x8
 2669 0517 01       		.uleb128 0x1
 2670 0518 50       		.byte	0x50
ARM GAS  C:\Users\Blayke\AppData\Local\Temp\cc62WBhQ.s 			page 67


 2671 0519 01       		.uleb128 0x1
 2672 051a 35       		.byte	0x35
 2673 051b 08       		.uleb128 0x8
 2674 051c 01       		.uleb128 0x1
 2675 051d 51       		.byte	0x51
 2676 051e 02       		.uleb128 0x2
 2677 051f 09       		.byte	0x9
 2678 0520 F9       		.byte	0xf9
 2679 0521 08       		.uleb128 0x8
 2680 0522 01       		.uleb128 0x1
 2681 0523 52       		.byte	0x52
 2682 0524 03       		.uleb128 0x3
 2683 0525 91       		.byte	0x91
 2684 0526 00       		.sleb128 0
 2685 0527 06       		.byte	0x6
 2686 0528 08       		.uleb128 0x8
 2687 0529 01       		.uleb128 0x1
 2688 052a 53       		.byte	0x53
 2689 052b 01       		.uleb128 0x1
 2690 052c 30       		.byte	0x30
 2691 052d 00       		.byte	0
 2692 052e 07       		.uleb128 0x7
 2693 052f 88000000 		.4byte	.LVL70
 2694 0533 BC160000 		.4byte	0x16bc
 2695 0537 42050000 		.4byte	0x542
 2696 053b 08       		.uleb128 0x8
 2697 053c 01       		.uleb128 0x1
 2698 053d 50       		.byte	0x50
 2699 053e 02       		.uleb128 0x2
 2700 053f 74       		.byte	0x74
 2701 0540 00       		.sleb128 0
 2702 0541 00       		.byte	0
 2703 0542 07       		.uleb128 0x7
 2704 0543 8E000000 		.4byte	.LVL71
 2705 0547 59160000 		.4byte	0x1659
 2706 054b 56050000 		.4byte	0x556
 2707 054f 08       		.uleb128 0x8
 2708 0550 01       		.uleb128 0x1
 2709 0551 50       		.byte	0x50
 2710 0552 02       		.uleb128 0x2
 2711 0553 08       		.byte	0x8
 2712 0554 32       		.byte	0x32
 2713 0555 00       		.byte	0
 2714 0556 07       		.uleb128 0x7
 2715 0557 A0000000 		.4byte	.LVL73
 2716 055b 64160000 		.4byte	0x1664
 2717 055f 79050000 		.4byte	0x579
 2718 0563 08       		.uleb128 0x8
 2719 0564 01       		.uleb128 0x1
 2720 0565 50       		.byte	0x50
 2721 0566 02       		.uleb128 0x2
 2722 0567 76       		.byte	0x76
 2723 0568 00       		.sleb128 0
 2724 0569 08       		.uleb128 0x8
 2725 056a 01       		.uleb128 0x1
 2726 056b 51       		.byte	0x51
 2727 056c 05       		.uleb128 0x5
ARM GAS  C:\Users\Blayke\AppData\Local\Temp\cc62WBhQ.s 			page 68


 2728 056d 03       		.byte	0x3
 2729 056e 08000000 		.4byte	.LC1
 2730 0572 08       		.uleb128 0x8
 2731 0573 01       		.uleb128 0x1
 2732 0574 52       		.byte	0x52
 2733 0575 02       		.uleb128 0x2
 2734 0576 75       		.byte	0x75
 2735 0577 00       		.sleb128 0
 2736 0578 00       		.byte	0
 2737 0579 07       		.uleb128 0x7
 2738 057a A6000000 		.4byte	.LVL74
 2739 057e 6F160000 		.4byte	0x166f
 2740 0582 8D050000 		.4byte	0x58d
 2741 0586 08       		.uleb128 0x8
 2742 0587 01       		.uleb128 0x1
 2743 0588 50       		.byte	0x50
 2744 0589 02       		.uleb128 0x2
 2745 058a 76       		.byte	0x76
 2746 058b 00       		.sleb128 0
 2747 058c 00       		.byte	0
 2748 058d 09       		.uleb128 0x9
 2749 058e BE000000 		.4byte	.LVL75
 2750 0592 4E160000 		.4byte	0x164e
 2751 0596 09       		.uleb128 0x9
 2752 0597 C2000000 		.4byte	.LVL76
 2753 059b 43160000 		.4byte	0x1643
 2754 059f 07       		.uleb128 0x7
 2755 05a0 C8000000 		.4byte	.LVL77
 2756 05a4 6F160000 		.4byte	0x166f
 2757 05a8 B6050000 		.4byte	0x5b6
 2758 05ac 08       		.uleb128 0x8
 2759 05ad 01       		.uleb128 0x1
 2760 05ae 50       		.byte	0x50
 2761 05af 05       		.uleb128 0x5
 2762 05b0 03       		.byte	0x3
 2763 05b1 28000000 		.4byte	.LC3
 2764 05b5 00       		.byte	0
 2765 05b6 07       		.uleb128 0x7
 2766 05b7 DA000000 		.4byte	.LVL78
 2767 05bb C7160000 		.4byte	0x16c7
 2768 05bf DB050000 		.4byte	0x5db
 2769 05c3 08       		.uleb128 0x8
 2770 05c4 01       		.uleb128 0x1
 2771 05c5 50       		.byte	0x50
 2772 05c6 02       		.uleb128 0x2
 2773 05c7 09       		.byte	0x9
 2774 05c8 FB       		.byte	0xfb
 2775 05c9 08       		.uleb128 0x8
 2776 05ca 01       		.uleb128 0x1
 2777 05cb 51       		.byte	0x51
 2778 05cc 01       		.uleb128 0x1
 2779 05cd 37       		.byte	0x37
 2780 05ce 08       		.uleb128 0x8
 2781 05cf 01       		.uleb128 0x1
 2782 05d0 52       		.byte	0x52
 2783 05d1 03       		.uleb128 0x3
 2784 05d2 91       		.byte	0x91
ARM GAS  C:\Users\Blayke\AppData\Local\Temp\cc62WBhQ.s 			page 69


 2785 05d3 00       		.sleb128 0
 2786 05d4 06       		.byte	0x6
 2787 05d5 08       		.uleb128 0x8
 2788 05d6 01       		.uleb128 0x1
 2789 05d7 53       		.byte	0x53
 2790 05d8 01       		.uleb128 0x1
 2791 05d9 30       		.byte	0x30
 2792 05da 00       		.byte	0
 2793 05db 07       		.uleb128 0x7
 2794 05dc EC000000 		.4byte	.LVL79
 2795 05e0 C7160000 		.4byte	0x16c7
 2796 05e4 00060000 		.4byte	0x600
 2797 05e8 08       		.uleb128 0x8
 2798 05e9 01       		.uleb128 0x1
 2799 05ea 50       		.byte	0x50
 2800 05eb 01       		.uleb128 0x1
 2801 05ec 35       		.byte	0x35
 2802 05ed 08       		.uleb128 0x8
 2803 05ee 01       		.uleb128 0x1
 2804 05ef 51       		.byte	0x51
 2805 05f0 02       		.uleb128 0x2
 2806 05f1 09       		.byte	0x9
 2807 05f2 F9       		.byte	0xf9
 2808 05f3 08       		.uleb128 0x8
 2809 05f4 01       		.uleb128 0x1
 2810 05f5 52       		.byte	0x52
 2811 05f6 03       		.uleb128 0x3
 2812 05f7 91       		.byte	0x91
 2813 05f8 00       		.sleb128 0
 2814 05f9 06       		.byte	0x6
 2815 05fa 08       		.uleb128 0x8
 2816 05fb 01       		.uleb128 0x1
 2817 05fc 53       		.byte	0x53
 2818 05fd 01       		.uleb128 0x1
 2819 05fe 30       		.byte	0x30
 2820 05ff 00       		.byte	0
 2821 0600 07       		.uleb128 0x7
 2822 0601 F2000000 		.4byte	.LVL80
 2823 0605 BC160000 		.4byte	0x16bc
 2824 0609 14060000 		.4byte	0x614
 2825 060d 08       		.uleb128 0x8
 2826 060e 01       		.uleb128 0x1
 2827 060f 50       		.byte	0x50
 2828 0610 02       		.uleb128 0x2
 2829 0611 74       		.byte	0x74
 2830 0612 00       		.sleb128 0
 2831 0613 00       		.byte	0
 2832 0614 07       		.uleb128 0x7
 2833 0615 F8000000 		.4byte	.LVL81
 2834 0619 59160000 		.4byte	0x1659
 2835 061d 28060000 		.4byte	0x628
 2836 0621 08       		.uleb128 0x8
 2837 0622 01       		.uleb128 0x1
 2838 0623 50       		.byte	0x50
 2839 0624 02       		.uleb128 0x2
 2840 0625 08       		.byte	0x8
 2841 0626 32       		.byte	0x32
ARM GAS  C:\Users\Blayke\AppData\Local\Temp\cc62WBhQ.s 			page 70


 2842 0627 00       		.byte	0
 2843 0628 07       		.uleb128 0x7
 2844 0629 0A010000 		.4byte	.LVL83
 2845 062d 64160000 		.4byte	0x1664
 2846 0631 4B060000 		.4byte	0x64b
 2847 0635 08       		.uleb128 0x8
 2848 0636 01       		.uleb128 0x1
 2849 0637 50       		.byte	0x50
 2850 0638 02       		.uleb128 0x2
 2851 0639 76       		.byte	0x76
 2852 063a 00       		.sleb128 0
 2853 063b 08       		.uleb128 0x8
 2854 063c 01       		.uleb128 0x1
 2855 063d 51       		.byte	0x51
 2856 063e 05       		.uleb128 0x5
 2857 063f 03       		.byte	0x3
 2858 0640 08000000 		.4byte	.LC1
 2859 0644 08       		.uleb128 0x8
 2860 0645 01       		.uleb128 0x1
 2861 0646 52       		.byte	0x52
 2862 0647 02       		.uleb128 0x2
 2863 0648 75       		.byte	0x75
 2864 0649 00       		.sleb128 0
 2865 064a 00       		.byte	0
 2866 064b 07       		.uleb128 0x7
 2867 064c 10010000 		.4byte	.LVL84
 2868 0650 6F160000 		.4byte	0x166f
 2869 0654 5F060000 		.4byte	0x65f
 2870 0658 08       		.uleb128 0x8
 2871 0659 01       		.uleb128 0x1
 2872 065a 50       		.byte	0x50
 2873 065b 02       		.uleb128 0x2
 2874 065c 76       		.byte	0x76
 2875 065d 00       		.sleb128 0
 2876 065e 00       		.byte	0
 2877 065f 07       		.uleb128 0x7
 2878 0660 22010000 		.4byte	.LVL85
 2879 0664 6F160000 		.4byte	0x166f
 2880 0668 76060000 		.4byte	0x676
 2881 066c 08       		.uleb128 0x8
 2882 066d 01       		.uleb128 0x1
 2883 066e 50       		.byte	0x50
 2884 066f 05       		.uleb128 0x5
 2885 0670 03       		.byte	0x3
 2886 0671 3C000000 		.4byte	.LC4
 2887 0675 00       		.byte	0
 2888 0676 07       		.uleb128 0x7
 2889 0677 28010000 		.4byte	.LVL86
 2890 067b 7A160000 		.4byte	0x167a
 2891 067f 89060000 		.4byte	0x689
 2892 0683 08       		.uleb128 0x8
 2893 0684 01       		.uleb128 0x1
 2894 0685 50       		.byte	0x50
 2895 0686 01       		.uleb128 0x1
 2896 0687 30       		.byte	0x30
 2897 0688 00       		.byte	0
 2898 0689 0A       		.uleb128 0xa
ARM GAS  C:\Users\Blayke\AppData\Local\Temp\cc62WBhQ.s 			page 71


 2899 068a 2E010000 		.4byte	.LVL87
 2900 068e 85160000 		.4byte	0x1685
 2901 0692 08       		.uleb128 0x8
 2902 0693 01       		.uleb128 0x1
 2903 0694 50       		.byte	0x50
 2904 0695 01       		.uleb128 0x1
 2905 0696 30       		.byte	0x30
 2906 0697 00       		.byte	0
 2907 0698 00       		.byte	0
 2908 0699 12       		.uleb128 0x12
 2909 069a C2050000 		.4byte	.LASF60
 2910 069e 01       		.byte	0x1
 2911 069f E401     		.2byte	0x1e4
 2912 06a1 68000000 		.4byte	0x68
 2913 06a5 00000000 		.4byte	.LFB70
 2914 06a9 84000000 		.4byte	.LFE70-.LFB70
 2915 06ad 01       		.uleb128 0x1
 2916 06ae 9C       		.byte	0x9c
 2917 06af 80070000 		.4byte	0x780
 2918 06b3 0E       		.uleb128 0xe
 2919 06b4 10010000 		.4byte	.LASF35
 2920 06b8 01       		.byte	0x1
 2921 06b9 E401     		.2byte	0x1e4
 2922 06bb 68000000 		.4byte	0x68
 2923 06bf EB020000 		.4byte	.LLST21
 2924 06c3 0F       		.uleb128 0xf
 2925 06c4 37010000 		.4byte	.LASF40
 2926 06c8 01       		.byte	0x1
 2927 06c9 E501     		.2byte	0x1e5
 2928 06cb 68000000 		.4byte	0x68
 2929 06cf 57030000 		.4byte	.LLST22
 2930 06d3 07       		.uleb128 0x7
 2931 06d4 12000000 		.4byte	.LVL91
 2932 06d8 BC160000 		.4byte	0x16bc
 2933 06dc E6060000 		.4byte	0x6e6
 2934 06e0 08       		.uleb128 0x8
 2935 06e1 01       		.uleb128 0x1
 2936 06e2 50       		.byte	0x50
 2937 06e3 01       		.uleb128 0x1
 2938 06e4 35       		.byte	0x35
 2939 06e5 00       		.byte	0
 2940 06e6 07       		.uleb128 0x7
 2941 06e7 18000000 		.4byte	.LVL92
 2942 06eb 59160000 		.4byte	0x1659
 2943 06ef FA060000 		.4byte	0x6fa
 2944 06f3 08       		.uleb128 0x8
 2945 06f4 01       		.uleb128 0x1
 2946 06f5 50       		.byte	0x50
 2947 06f6 02       		.uleb128 0x2
 2948 06f7 08       		.byte	0x8
 2949 06f8 32       		.byte	0x32
 2950 06f9 00       		.byte	0
 2951 06fa 07       		.uleb128 0x7
 2952 06fb 2C000000 		.4byte	.LVL94
 2953 06ff 64160000 		.4byte	0x1664
 2954 0703 17070000 		.4byte	0x717
 2955 0707 08       		.uleb128 0x8
ARM GAS  C:\Users\Blayke\AppData\Local\Temp\cc62WBhQ.s 			page 72


 2956 0708 01       		.uleb128 0x1
 2957 0709 50       		.byte	0x50
 2958 070a 02       		.uleb128 0x2
 2959 070b 74       		.byte	0x74
 2960 070c 00       		.sleb128 0
 2961 070d 08       		.uleb128 0x8
 2962 070e 01       		.uleb128 0x1
 2963 070f 51       		.byte	0x51
 2964 0710 05       		.uleb128 0x5
 2965 0711 03       		.byte	0x3
 2966 0712 48000000 		.4byte	.LC5
 2967 0716 00       		.byte	0
 2968 0717 07       		.uleb128 0x7
 2969 0718 32000000 		.4byte	.LVL95
 2970 071c 6F160000 		.4byte	0x166f
 2971 0720 2B070000 		.4byte	0x72b
 2972 0724 08       		.uleb128 0x8
 2973 0725 01       		.uleb128 0x1
 2974 0726 50       		.byte	0x50
 2975 0727 02       		.uleb128 0x2
 2976 0728 74       		.byte	0x74
 2977 0729 00       		.sleb128 0
 2978 072a 00       		.byte	0
 2979 072b 07       		.uleb128 0x7
 2980 072c 40000000 		.4byte	.LVL98
 2981 0730 BC160000 		.4byte	0x16bc
 2982 0734 3E070000 		.4byte	0x73e
 2983 0738 08       		.uleb128 0x8
 2984 0739 01       		.uleb128 0x1
 2985 073a 50       		.byte	0x50
 2986 073b 01       		.uleb128 0x1
 2987 073c 30       		.byte	0x30
 2988 073d 00       		.byte	0
 2989 073e 07       		.uleb128 0x7
 2990 073f 46000000 		.4byte	.LVL99
 2991 0743 59160000 		.4byte	0x1659
 2992 0747 52070000 		.4byte	0x752
 2993 074b 08       		.uleb128 0x8
 2994 074c 01       		.uleb128 0x1
 2995 074d 50       		.byte	0x50
 2996 074e 02       		.uleb128 0x2
 2997 074f 08       		.byte	0x8
 2998 0750 32       		.byte	0x32
 2999 0751 00       		.byte	0
 3000 0752 07       		.uleb128 0x7
 3001 0753 5A000000 		.4byte	.LVL101
 3002 0757 64160000 		.4byte	0x1664
 3003 075b 6F070000 		.4byte	0x76f
 3004 075f 08       		.uleb128 0x8
 3005 0760 01       		.uleb128 0x1
 3006 0761 50       		.byte	0x50
 3007 0762 02       		.uleb128 0x2
 3008 0763 74       		.byte	0x74
 3009 0764 00       		.sleb128 0
 3010 0765 08       		.uleb128 0x8
 3011 0766 01       		.uleb128 0x1
 3012 0767 51       		.byte	0x51
ARM GAS  C:\Users\Blayke\AppData\Local\Temp\cc62WBhQ.s 			page 73


 3013 0768 05       		.uleb128 0x5
 3014 0769 03       		.byte	0x3
 3015 076a 48000000 		.4byte	.LC5
 3016 076e 00       		.byte	0
 3017 076f 0A       		.uleb128 0xa
 3018 0770 60000000 		.4byte	.LVL102
 3019 0774 6F160000 		.4byte	0x166f
 3020 0778 08       		.uleb128 0x8
 3021 0779 01       		.uleb128 0x1
 3022 077a 50       		.byte	0x50
 3023 077b 02       		.uleb128 0x2
 3024 077c 74       		.byte	0x74
 3025 077d 00       		.sleb128 0
 3026 077e 00       		.byte	0
 3027 077f 00       		.byte	0
 3028 0780 13       		.uleb128 0x13
 3029 0781 B5060000 		.4byte	.LASF41
 3030 0785 01       		.byte	0x1
 3031 0786 8D       		.byte	0x8d
 3032 0787 00000000 		.4byte	.LFB67
 3033 078b CC020000 		.4byte	.LFE67-.LFB67
 3034 078f 01       		.uleb128 0x1
 3035 0790 9C       		.byte	0x9c
 3036 0791 C70B0000 		.4byte	0xbc7
 3037 0795 0B       		.uleb128 0xb
 3038 0796 08030000 		.4byte	.LASF34
 3039 079a 01       		.byte	0x1
 3040 079b 8D       		.byte	0x8d
 3041 079c 68000000 		.4byte	0x68
 3042 07a0 80030000 		.4byte	.LLST23
 3043 07a4 0B       		.uleb128 0xb
 3044 07a5 10010000 		.4byte	.LASF35
 3045 07a9 01       		.byte	0x1
 3046 07aa 8D       		.byte	0x8d
 3047 07ab 68000000 		.4byte	0x68
 3048 07af AC030000 		.4byte	.LLST24
 3049 07b3 0B       		.uleb128 0xb
 3050 07b4 61040000 		.4byte	.LASF36
 3051 07b8 01       		.byte	0x1
 3052 07b9 8D       		.byte	0x8d
 3053 07ba 68000000 		.4byte	0x68
 3054 07be D7030000 		.4byte	.LLST25
 3055 07c2 0B       		.uleb128 0xb
 3056 07c3 08000000 		.4byte	.LASF37
 3057 07c7 01       		.byte	0x1
 3058 07c8 8D       		.byte	0x8d
 3059 07c9 68000000 		.4byte	0x68
 3060 07cd 02040000 		.4byte	.LLST26
 3061 07d1 0B       		.uleb128 0xb
 3062 07d2 5B040000 		.4byte	.LASF21
 3063 07d6 01       		.byte	0x1
 3064 07d7 8D       		.byte	0x8d
 3065 07d8 68000000 		.4byte	0x68
 3066 07dc 2E040000 		.4byte	.LLST27
 3067 07e0 0B       		.uleb128 0xb
 3068 07e1 2C000000 		.4byte	.LASF42
 3069 07e5 01       		.byte	0x1
ARM GAS  C:\Users\Blayke\AppData\Local\Temp\cc62WBhQ.s 			page 74


 3070 07e6 8D       		.byte	0x8d
 3071 07e7 68000000 		.4byte	0x68
 3072 07eb 4E040000 		.4byte	.LLST28
 3073 07ef 06       		.uleb128 0x6
 3074 07f0 C6020000 		.4byte	.LASF23
 3075 07f4 01       		.byte	0x1
 3076 07f5 97       		.byte	0x97
 3077 07f6 68000000 		.4byte	0x68
 3078 07fa 6E040000 		.4byte	.LLST29
 3079 07fe 06       		.uleb128 0x6
 3080 07ff AD070000 		.4byte	.LASF22
 3081 0803 01       		.byte	0x1
 3082 0804 98       		.byte	0x98
 3083 0805 68000000 		.4byte	0x68
 3084 0809 BA040000 		.4byte	.LLST30
 3085 080d 06       		.uleb128 0x6
 3086 080e 78000000 		.4byte	.LASF24
 3087 0812 01       		.byte	0x1
 3088 0813 99       		.byte	0x99
 3089 0814 68000000 		.4byte	0x68
 3090 0818 D8040000 		.4byte	.LLST31
 3091 081c 06       		.uleb128 0x6
 3092 081d B9070000 		.4byte	.LASF25
 3093 0821 01       		.byte	0x1
 3094 0822 9A       		.byte	0x9a
 3095 0823 68000000 		.4byte	0x68
 3096 0827 0C050000 		.4byte	.LLST32
 3097 082b 06       		.uleb128 0x6
 3098 082c 60060000 		.4byte	.LASF43
 3099 0830 01       		.byte	0x1
 3100 0831 9B       		.byte	0x9b
 3101 0832 68000000 		.4byte	0x68
 3102 0836 40050000 		.4byte	.LLST33
 3103 083a 06       		.uleb128 0x6
 3104 083b 35020000 		.4byte	.LASF39
 3105 083f 01       		.byte	0x1
 3106 0840 9D       		.byte	0x9d
 3107 0841 68000000 		.4byte	0x68
 3108 0845 A8050000 		.4byte	.LLST34
 3109 0849 06       		.uleb128 0x6
 3110 084a 8B040000 		.4byte	.LASF38
 3111 084e 01       		.byte	0x1
 3112 084f 9F       		.byte	0x9f
 3113 0850 68000000 		.4byte	0x68
 3114 0854 BB050000 		.4byte	.LLST35
 3115 0858 06       		.uleb128 0x6
 3116 0859 72010000 		.4byte	.LASF44
 3117 085d 01       		.byte	0x1
 3118 085e A1       		.byte	0xa1
 3119 085f 68000000 		.4byte	0x68
 3120 0863 2B060000 		.4byte	.LLST36
 3121 0867 14       		.uleb128 0x14
 3122 0868 98000000 		.4byte	.LBB2
 3123 086c E6000000 		.4byte	.LBE2-.LBB2
 3124 0870 82090000 		.4byte	0x982
 3125 0874 06       		.uleb128 0x6
 3126 0875 B6040000 		.4byte	.LASF45
ARM GAS  C:\Users\Blayke\AppData\Local\Temp\cc62WBhQ.s 			page 75


 3127 0879 01       		.byte	0x1
 3128 087a FD       		.byte	0xfd
 3129 087b 68000000 		.4byte	0x68
 3130 087f 98060000 		.4byte	.LLST37
 3131 0883 09       		.uleb128 0x9
 3132 0884 9C000000 		.4byte	.LVL126
 3133 0888 4E160000 		.4byte	0x164e
 3134 088c 09       		.uleb128 0x9
 3135 088d A4000000 		.4byte	.LVL128
 3136 0891 43160000 		.4byte	0x1643
 3137 0895 07       		.uleb128 0x7
 3138 0896 D0000000 		.4byte	.LVL135
 3139 089a 0C160000 		.4byte	0x160c
 3140 089e A9080000 		.4byte	0x8a9
 3141 08a2 08       		.uleb128 0x8
 3142 08a3 01       		.uleb128 0x1
 3143 08a4 50       		.byte	0x50
 3144 08a5 02       		.uleb128 0x2
 3145 08a6 79       		.byte	0x79
 3146 08a7 00       		.sleb128 0
 3147 08a8 00       		.byte	0
 3148 08a9 07       		.uleb128 0x7
 3149 08aa D8000000 		.4byte	.LVL136
 3150 08ae 22160000 		.4byte	0x1622
 3151 08b2 BD080000 		.4byte	0x8bd
 3152 08b6 08       		.uleb128 0x8
 3153 08b7 01       		.uleb128 0x1
 3154 08b8 50       		.byte	0x50
 3155 08b9 02       		.uleb128 0x2
 3156 08ba 7A       		.byte	0x7a
 3157 08bb 00       		.sleb128 0
 3158 08bc 00       		.byte	0
 3159 08bd 07       		.uleb128 0x7
 3160 08be E6000000 		.4byte	.LVL137
 3161 08c2 BC160000 		.4byte	0x16bc
 3162 08c6 D0080000 		.4byte	0x8d0
 3163 08ca 08       		.uleb128 0x8
 3164 08cb 01       		.uleb128 0x1
 3165 08cc 50       		.byte	0x50
 3166 08cd 01       		.uleb128 0x1
 3167 08ce 30       		.byte	0x30
 3168 08cf 00       		.byte	0
 3169 08d0 07       		.uleb128 0x7
 3170 08d1 EC000000 		.4byte	.LVL138
 3171 08d5 59160000 		.4byte	0x1659
 3172 08d9 E4080000 		.4byte	0x8e4
 3173 08dd 08       		.uleb128 0x8
 3174 08de 01       		.uleb128 0x1
 3175 08df 50       		.byte	0x50
 3176 08e0 02       		.uleb128 0x2
 3177 08e1 08       		.byte	0x8
 3178 08e2 32       		.byte	0x32
 3179 08e3 00       		.byte	0
 3180 08e4 07       		.uleb128 0x7
 3181 08e5 06010000 		.4byte	.LVL141
 3182 08e9 BC160000 		.4byte	0x16bc
 3183 08ed F7080000 		.4byte	0x8f7
ARM GAS  C:\Users\Blayke\AppData\Local\Temp\cc62WBhQ.s 			page 76


 3184 08f1 08       		.uleb128 0x8
 3185 08f2 01       		.uleb128 0x1
 3186 08f3 50       		.byte	0x50
 3187 08f4 01       		.uleb128 0x1
 3188 08f5 31       		.byte	0x31
 3189 08f6 00       		.byte	0
 3190 08f7 07       		.uleb128 0x7
 3191 08f8 0C010000 		.4byte	.LVL142
 3192 08fc 59160000 		.4byte	0x1659
 3193 0900 0B090000 		.4byte	0x90b
 3194 0904 08       		.uleb128 0x8
 3195 0905 01       		.uleb128 0x1
 3196 0906 50       		.byte	0x50
 3197 0907 02       		.uleb128 0x2
 3198 0908 08       		.byte	0x8
 3199 0909 32       		.byte	0x32
 3200 090a 00       		.byte	0
 3201 090b 07       		.uleb128 0x7
 3202 090c 1E010000 		.4byte	.LVL145
 3203 0910 BC160000 		.4byte	0x16bc
 3204 0914 1F090000 		.4byte	0x91f
 3205 0918 08       		.uleb128 0x8
 3206 0919 01       		.uleb128 0x1
 3207 091a 50       		.byte	0x50
 3208 091b 02       		.uleb128 0x2
 3209 091c 74       		.byte	0x74
 3210 091d 00       		.sleb128 0
 3211 091e 00       		.byte	0
 3212 091f 07       		.uleb128 0x7
 3213 0920 24010000 		.4byte	.LVL146
 3214 0924 59160000 		.4byte	0x1659
 3215 0928 33090000 		.4byte	0x933
 3216 092c 08       		.uleb128 0x8
 3217 092d 01       		.uleb128 0x1
 3218 092e 50       		.byte	0x50
 3219 092f 02       		.uleb128 0x2
 3220 0930 08       		.byte	0x8
 3221 0931 32       		.byte	0x32
 3222 0932 00       		.byte	0
 3223 0933 07       		.uleb128 0x7
 3224 0934 34010000 		.4byte	.LVL148
 3225 0938 64160000 		.4byte	0x1664
 3226 093c 59090000 		.4byte	0x959
 3227 0940 08       		.uleb128 0x8
 3228 0941 01       		.uleb128 0x1
 3229 0942 50       		.byte	0x50
 3230 0943 05       		.uleb128 0x5
 3231 0944 03       		.byte	0x3
 3232 0945 00000000 		.4byte	output
 3233 0949 08       		.uleb128 0x8
 3234 094a 01       		.uleb128 0x1
 3235 094b 51       		.byte	0x51
 3236 094c 05       		.uleb128 0x5
 3237 094d 03       		.byte	0x3
 3238 094e 08000000 		.4byte	.LC1
 3239 0952 08       		.uleb128 0x8
 3240 0953 01       		.uleb128 0x1
ARM GAS  C:\Users\Blayke\AppData\Local\Temp\cc62WBhQ.s 			page 77


 3241 0954 52       		.byte	0x52
 3242 0955 02       		.uleb128 0x2
 3243 0956 75       		.byte	0x75
 3244 0957 00       		.sleb128 0
 3245 0958 00       		.byte	0
 3246 0959 07       		.uleb128 0x7
 3247 095a 3A010000 		.4byte	.LVL149
 3248 095e 6F160000 		.4byte	0x166f
 3249 0962 70090000 		.4byte	0x970
 3250 0966 08       		.uleb128 0x8
 3251 0967 01       		.uleb128 0x1
 3252 0968 50       		.byte	0x50
 3253 0969 05       		.uleb128 0x5
 3254 096a 03       		.byte	0x3
 3255 096b 00000000 		.4byte	output
 3256 096f 00       		.byte	0
 3257 0970 0A       		.uleb128 0xa
 3258 0971 76010000 		.4byte	.LVL155
 3259 0975 99060000 		.4byte	0x699
 3260 0979 08       		.uleb128 0x8
 3261 097a 01       		.uleb128 0x1
 3262 097b 50       		.byte	0x50
 3263 097c 03       		.uleb128 0x3
 3264 097d 91       		.byte	0x91
 3265 097e 54       		.sleb128 -44
 3266 097f 06       		.byte	0x6
 3267 0980 00       		.byte	0
 3268 0981 00       		.byte	0
 3269 0982 14       		.uleb128 0x14
 3270 0983 B2010000 		.4byte	.LBB3
 3271 0987 A4000000 		.4byte	.LBE3-.LBB3
 3272 098b 500A0000 		.4byte	0xa50
 3273 098f 0F       		.uleb128 0xf
 3274 0990 B6040000 		.4byte	.LASF45
 3275 0994 01       		.byte	0x1
 3276 0995 3501     		.2byte	0x135
 3277 0997 68000000 		.4byte	0x68
 3278 099b AC060000 		.4byte	.LLST38
 3279 099f 09       		.uleb128 0x9
 3280 09a0 B6010000 		.4byte	.LVL161
 3281 09a4 4E160000 		.4byte	0x164e
 3282 09a8 09       		.uleb128 0x9
 3283 09a9 BE010000 		.4byte	.LVL163
 3284 09ad 43160000 		.4byte	0x1643
 3285 09b1 07       		.uleb128 0x7
 3286 09b2 EA010000 		.4byte	.LVL170
 3287 09b6 0C160000 		.4byte	0x160c
 3288 09ba C5090000 		.4byte	0x9c5
 3289 09be 08       		.uleb128 0x8
 3290 09bf 01       		.uleb128 0x1
 3291 09c0 50       		.byte	0x50
 3292 09c1 02       		.uleb128 0x2
 3293 09c2 79       		.byte	0x79
 3294 09c3 00       		.sleb128 0
 3295 09c4 00       		.byte	0
 3296 09c5 07       		.uleb128 0x7
 3297 09c6 F2010000 		.4byte	.LVL171
ARM GAS  C:\Users\Blayke\AppData\Local\Temp\cc62WBhQ.s 			page 78


 3298 09ca 22160000 		.4byte	0x1622
 3299 09ce D9090000 		.4byte	0x9d9
 3300 09d2 08       		.uleb128 0x8
 3301 09d3 01       		.uleb128 0x1
 3302 09d4 50       		.byte	0x50
 3303 09d5 02       		.uleb128 0x2
 3304 09d6 7A       		.byte	0x7a
 3305 09d7 00       		.sleb128 0
 3306 09d8 00       		.byte	0
 3307 09d9 07       		.uleb128 0x7
 3308 09da F8010000 		.4byte	.LVL172
 3309 09de BC160000 		.4byte	0x16bc
 3310 09e2 ED090000 		.4byte	0x9ed
 3311 09e6 08       		.uleb128 0x8
 3312 09e7 01       		.uleb128 0x1
 3313 09e8 50       		.byte	0x50
 3314 09e9 02       		.uleb128 0x2
 3315 09ea 74       		.byte	0x74
 3316 09eb 00       		.sleb128 0
 3317 09ec 00       		.byte	0
 3318 09ed 07       		.uleb128 0x7
 3319 09ee FE010000 		.4byte	.LVL173
 3320 09f2 59160000 		.4byte	0x1659
 3321 09f6 010A0000 		.4byte	0xa01
 3322 09fa 08       		.uleb128 0x8
 3323 09fb 01       		.uleb128 0x1
 3324 09fc 50       		.byte	0x50
 3325 09fd 02       		.uleb128 0x2
 3326 09fe 08       		.byte	0x8
 3327 09ff 32       		.byte	0x32
 3328 0a00 00       		.byte	0
 3329 0a01 07       		.uleb128 0x7
 3330 0a02 0E020000 		.4byte	.LVL175
 3331 0a06 64160000 		.4byte	0x1664
 3332 0a0a 270A0000 		.4byte	0xa27
 3333 0a0e 08       		.uleb128 0x8
 3334 0a0f 01       		.uleb128 0x1
 3335 0a10 50       		.byte	0x50
 3336 0a11 05       		.uleb128 0x5
 3337 0a12 03       		.byte	0x3
 3338 0a13 00000000 		.4byte	output
 3339 0a17 08       		.uleb128 0x8
 3340 0a18 01       		.uleb128 0x1
 3341 0a19 51       		.byte	0x51
 3342 0a1a 05       		.uleb128 0x5
 3343 0a1b 03       		.byte	0x3
 3344 0a1c 08000000 		.4byte	.LC1
 3345 0a20 08       		.uleb128 0x8
 3346 0a21 01       		.uleb128 0x1
 3347 0a22 52       		.byte	0x52
 3348 0a23 02       		.uleb128 0x2
 3349 0a24 75       		.byte	0x75
 3350 0a25 00       		.sleb128 0
 3351 0a26 00       		.byte	0
 3352 0a27 07       		.uleb128 0x7
 3353 0a28 14020000 		.4byte	.LVL176
 3354 0a2c 6F160000 		.4byte	0x166f
ARM GAS  C:\Users\Blayke\AppData\Local\Temp\cc62WBhQ.s 			page 79


 3355 0a30 3E0A0000 		.4byte	0xa3e
 3356 0a34 08       		.uleb128 0x8
 3357 0a35 01       		.uleb128 0x1
 3358 0a36 50       		.byte	0x50
 3359 0a37 05       		.uleb128 0x5
 3360 0a38 03       		.byte	0x3
 3361 0a39 00000000 		.4byte	output
 3362 0a3d 00       		.byte	0
 3363 0a3e 0A       		.uleb128 0xa
 3364 0a3f 50020000 		.4byte	.LVL182
 3365 0a43 99060000 		.4byte	0x699
 3366 0a47 08       		.uleb128 0x8
 3367 0a48 01       		.uleb128 0x1
 3368 0a49 50       		.byte	0x50
 3369 0a4a 03       		.uleb128 0x3
 3370 0a4b 91       		.byte	0x91
 3371 0a4c 54       		.sleb128 -44
 3372 0a4d 06       		.byte	0x6
 3373 0a4e 00       		.byte	0
 3374 0a4f 00       		.byte	0
 3375 0a50 07       		.uleb128 0x7
 3376 0a51 1A000000 		.4byte	.LVL111
 3377 0a55 EB150000 		.4byte	0x15eb
 3378 0a59 630A0000 		.4byte	0xa63
 3379 0a5d 08       		.uleb128 0x8
 3380 0a5e 01       		.uleb128 0x1
 3381 0a5f 50       		.byte	0x50
 3382 0a60 01       		.uleb128 0x1
 3383 0a61 30       		.byte	0x30
 3384 0a62 00       		.byte	0
 3385 0a63 07       		.uleb128 0x7
 3386 0a64 20000000 		.4byte	.LVL112
 3387 0a68 F6150000 		.4byte	0x15f6
 3388 0a6c 760A0000 		.4byte	0xa76
 3389 0a70 08       		.uleb128 0x8
 3390 0a71 01       		.uleb128 0x1
 3391 0a72 50       		.byte	0x50
 3392 0a73 01       		.uleb128 0x1
 3393 0a74 30       		.byte	0x30
 3394 0a75 00       		.byte	0
 3395 0a76 07       		.uleb128 0x7
 3396 0a77 2A000000 		.4byte	.LVL113
 3397 0a7b EB150000 		.4byte	0x15eb
 3398 0a7f 890A0000 		.4byte	0xa89
 3399 0a83 08       		.uleb128 0x8
 3400 0a84 01       		.uleb128 0x1
 3401 0a85 50       		.byte	0x50
 3402 0a86 01       		.uleb128 0x1
 3403 0a87 31       		.byte	0x31
 3404 0a88 00       		.byte	0
 3405 0a89 07       		.uleb128 0x7
 3406 0a8a 30000000 		.4byte	.LVL114
 3407 0a8e F6150000 		.4byte	0x15f6
 3408 0a92 9C0A0000 		.4byte	0xa9c
 3409 0a96 08       		.uleb128 0x8
 3410 0a97 01       		.uleb128 0x1
 3411 0a98 50       		.byte	0x50
ARM GAS  C:\Users\Blayke\AppData\Local\Temp\cc62WBhQ.s 			page 80


 3412 0a99 01       		.uleb128 0x1
 3413 0a9a 31       		.byte	0x31
 3414 0a9b 00       		.byte	0
 3415 0a9c 07       		.uleb128 0x7
 3416 0a9d 42000000 		.4byte	.LVL116
 3417 0aa1 BC160000 		.4byte	0x16bc
 3418 0aa5 B00A0000 		.4byte	0xab0
 3419 0aa9 08       		.uleb128 0x8
 3420 0aaa 01       		.uleb128 0x1
 3421 0aab 50       		.byte	0x50
 3422 0aac 02       		.uleb128 0x2
 3423 0aad 74       		.byte	0x74
 3424 0aae 00       		.sleb128 0
 3425 0aaf 00       		.byte	0
 3426 0ab0 07       		.uleb128 0x7
 3427 0ab1 48000000 		.4byte	.LVL117
 3428 0ab5 59160000 		.4byte	0x1659
 3429 0ab9 C40A0000 		.4byte	0xac4
 3430 0abd 08       		.uleb128 0x8
 3431 0abe 01       		.uleb128 0x1
 3432 0abf 50       		.byte	0x50
 3433 0ac0 02       		.uleb128 0x2
 3434 0ac1 08       		.byte	0x8
 3435 0ac2 32       		.byte	0x32
 3436 0ac3 00       		.byte	0
 3437 0ac4 07       		.uleb128 0x7
 3438 0ac5 5A000000 		.4byte	.LVL119
 3439 0ac9 64160000 		.4byte	0x1664
 3440 0acd E70A0000 		.4byte	0xae7
 3441 0ad1 08       		.uleb128 0x8
 3442 0ad2 01       		.uleb128 0x1
 3443 0ad3 50       		.byte	0x50
 3444 0ad4 02       		.uleb128 0x2
 3445 0ad5 77       		.byte	0x77
 3446 0ad6 00       		.sleb128 0
 3447 0ad7 08       		.uleb128 0x8
 3448 0ad8 01       		.uleb128 0x1
 3449 0ad9 51       		.byte	0x51
 3450 0ada 05       		.uleb128 0x5
 3451 0adb 03       		.byte	0x3
 3452 0adc 08000000 		.4byte	.LC1
 3453 0ae0 08       		.uleb128 0x8
 3454 0ae1 01       		.uleb128 0x1
 3455 0ae2 52       		.byte	0x52
 3456 0ae3 02       		.uleb128 0x2
 3457 0ae4 75       		.byte	0x75
 3458 0ae5 00       		.sleb128 0
 3459 0ae6 00       		.byte	0
 3460 0ae7 07       		.uleb128 0x7
 3461 0ae8 60000000 		.4byte	.LVL120
 3462 0aec 6F160000 		.4byte	0x166f
 3463 0af0 FB0A0000 		.4byte	0xafb
 3464 0af4 08       		.uleb128 0x8
 3465 0af5 01       		.uleb128 0x1
 3466 0af6 50       		.byte	0x50
 3467 0af7 02       		.uleb128 0x2
 3468 0af8 77       		.byte	0x77
ARM GAS  C:\Users\Blayke\AppData\Local\Temp\cc62WBhQ.s 			page 81


 3469 0af9 00       		.sleb128 0
 3470 0afa 00       		.byte	0
 3471 0afb 09       		.uleb128 0x9
 3472 0afc 70000000 		.4byte	.LVL121
 3473 0b00 01160000 		.4byte	0x1601
 3474 0b04 07       		.uleb128 0x7
 3475 0b05 7A000000 		.4byte	.LVL122
 3476 0b09 0C160000 		.4byte	0x160c
 3477 0b0d 180B0000 		.4byte	0xb18
 3478 0b11 08       		.uleb128 0x8
 3479 0b12 01       		.uleb128 0x1
 3480 0b13 50       		.byte	0x50
 3481 0b14 02       		.uleb128 0x2
 3482 0b15 78       		.byte	0x78
 3483 0b16 00       		.sleb128 0
 3484 0b17 00       		.byte	0
 3485 0b18 09       		.uleb128 0x9
 3486 0b19 7E000000 		.4byte	.LVL123
 3487 0b1d 17160000 		.4byte	0x1617
 3488 0b21 07       		.uleb128 0x7
 3489 0b22 84000000 		.4byte	.LVL124
 3490 0b26 22160000 		.4byte	0x1622
 3491 0b2a 350B0000 		.4byte	0xb35
 3492 0b2e 08       		.uleb128 0x8
 3493 0b2f 01       		.uleb128 0x1
 3494 0b30 50       		.byte	0x50
 3495 0b31 02       		.uleb128 0x2
 3496 0b32 78       		.byte	0x78
 3497 0b33 00       		.sleb128 0
 3498 0b34 00       		.byte	0
 3499 0b35 07       		.uleb128 0x7
 3500 0b36 6E020000 		.4byte	.LVL186
 3501 0b3a BC160000 		.4byte	0x16bc
 3502 0b3e 490B0000 		.4byte	0xb49
 3503 0b42 08       		.uleb128 0x8
 3504 0b43 01       		.uleb128 0x1
 3505 0b44 50       		.byte	0x50
 3506 0b45 02       		.uleb128 0x2
 3507 0b46 74       		.byte	0x74
 3508 0b47 00       		.sleb128 0
 3509 0b48 00       		.byte	0
 3510 0b49 07       		.uleb128 0x7
 3511 0b4a 74020000 		.4byte	.LVL187
 3512 0b4e 59160000 		.4byte	0x1659
 3513 0b52 5D0B0000 		.4byte	0xb5d
 3514 0b56 08       		.uleb128 0x8
 3515 0b57 01       		.uleb128 0x1
 3516 0b58 50       		.byte	0x50
 3517 0b59 02       		.uleb128 0x2
 3518 0b5a 08       		.byte	0x8
 3519 0b5b 32       		.byte	0x32
 3520 0b5c 00       		.byte	0
 3521 0b5d 07       		.uleb128 0x7
 3522 0b5e 84020000 		.4byte	.LVL188
 3523 0b62 64160000 		.4byte	0x1664
 3524 0b66 7A0B0000 		.4byte	0xb7a
 3525 0b6a 08       		.uleb128 0x8
ARM GAS  C:\Users\Blayke\AppData\Local\Temp\cc62WBhQ.s 			page 82


 3526 0b6b 01       		.uleb128 0x1
 3527 0b6c 50       		.byte	0x50
 3528 0b6d 02       		.uleb128 0x2
 3529 0b6e 75       		.byte	0x75
 3530 0b6f 00       		.sleb128 0
 3531 0b70 08       		.uleb128 0x8
 3532 0b71 01       		.uleb128 0x1
 3533 0b72 51       		.byte	0x51
 3534 0b73 05       		.uleb128 0x5
 3535 0b74 03       		.byte	0x3
 3536 0b75 68000000 		.4byte	.LC6
 3537 0b79 00       		.byte	0
 3538 0b7a 07       		.uleb128 0x7
 3539 0b7b 8A020000 		.4byte	.LVL189
 3540 0b7f 6F160000 		.4byte	0x166f
 3541 0b83 8E0B0000 		.4byte	0xb8e
 3542 0b87 08       		.uleb128 0x8
 3543 0b88 01       		.uleb128 0x1
 3544 0b89 50       		.byte	0x50
 3545 0b8a 02       		.uleb128 0x2
 3546 0b8b 75       		.byte	0x75
 3547 0b8c 00       		.sleb128 0
 3548 0b8d 00       		.byte	0
 3549 0b8e 07       		.uleb128 0x7
 3550 0b8f 90020000 		.4byte	.LVL190
 3551 0b93 7A160000 		.4byte	0x167a
 3552 0b97 A10B0000 		.4byte	0xba1
 3553 0b9b 08       		.uleb128 0x8
 3554 0b9c 01       		.uleb128 0x1
 3555 0b9d 50       		.byte	0x50
 3556 0b9e 01       		.uleb128 0x1
 3557 0b9f 30       		.byte	0x30
 3558 0ba0 00       		.byte	0
 3559 0ba1 07       		.uleb128 0x7
 3560 0ba2 96020000 		.4byte	.LVL191
 3561 0ba6 85160000 		.4byte	0x1685
 3562 0baa B40B0000 		.4byte	0xbb4
 3563 0bae 08       		.uleb128 0x8
 3564 0baf 01       		.uleb128 0x1
 3565 0bb0 50       		.byte	0x50
 3566 0bb1 01       		.uleb128 0x1
 3567 0bb2 30       		.byte	0x30
 3568 0bb3 00       		.byte	0
 3569 0bb4 09       		.uleb128 0x9
 3570 0bb5 9A020000 		.4byte	.LVL192
 3571 0bb9 90160000 		.4byte	0x1690
 3572 0bbd 09       		.uleb128 0x9
 3573 0bbe 9E020000 		.4byte	.LVL193
 3574 0bc2 9B160000 		.4byte	0x169b
 3575 0bc6 00       		.byte	0
 3576 0bc7 0D       		.uleb128 0xd
 3577 0bc8 52050000 		.4byte	.LASF46
 3578 0bcc 01       		.byte	0x1
 3579 0bcd 2C02     		.2byte	0x22c
 3580 0bcf 00000000 		.4byte	.LFB72
 3581 0bd3 5C020000 		.4byte	.LFE72-.LFB72
 3582 0bd7 01       		.uleb128 0x1
ARM GAS  C:\Users\Blayke\AppData\Local\Temp\cc62WBhQ.s 			page 83


 3583 0bd8 9C       		.byte	0x9c
 3584 0bd9 E8100000 		.4byte	0x10e8
 3585 0bdd 0E       		.uleb128 0xe
 3586 0bde 46010000 		.4byte	.LASF47
 3587 0be2 01       		.byte	0x1
 3588 0be3 2C02     		.2byte	0x22c
 3589 0be5 68000000 		.4byte	0x68
 3590 0be9 C0060000 		.4byte	.LLST39
 3591 0bed 0F       		.uleb128 0xf
 3592 0bee 5E020000 		.4byte	.LASF48
 3593 0bf2 01       		.byte	0x1
 3594 0bf3 2E02     		.2byte	0x22e
 3595 0bf5 68000000 		.4byte	0x68
 3596 0bf9 EC060000 		.4byte	.LLST40
 3597 0bfd 0F       		.uleb128 0xf
 3598 0bfe E4000000 		.4byte	.LASF49
 3599 0c02 01       		.byte	0x1
 3600 0c03 2F02     		.2byte	0x22f
 3601 0c05 68000000 		.4byte	0x68
 3602 0c09 FF060000 		.4byte	.LLST41
 3603 0c0d 0F       		.uleb128 0xf
 3604 0c0e F1000000 		.4byte	.LASF50
 3605 0c12 01       		.byte	0x1
 3606 0c13 3002     		.2byte	0x230
 3607 0c15 68000000 		.4byte	0x68
 3608 0c19 12070000 		.4byte	.LLST42
 3609 0c1d 15       		.uleb128 0x15
 3610 0c1e 5C000000 		.4byte	.LASF51
 3611 0c22 01       		.byte	0x1
 3612 0c23 3102     		.2byte	0x231
 3613 0c25 68000000 		.4byte	0x68
 3614 0c29 01       		.byte	0x1
 3615 0c2a 16       		.uleb128 0x16
 3616 0c2b 15030000 		.4byte	.LASF52
 3617 0c2f 01       		.byte	0x1
 3618 0c30 3202     		.2byte	0x232
 3619 0c32 68000000 		.4byte	0x68
 3620 0c36 2003     		.2byte	0x320
 3621 0c38 15       		.uleb128 0x15
 3622 0c39 75050000 		.4byte	.LASF53
 3623 0c3d 01       		.byte	0x1
 3624 0c3e 3302     		.2byte	0x233
 3625 0c40 68000000 		.4byte	0x68
 3626 0c44 32       		.byte	0x32
 3627 0c45 15       		.uleb128 0x15
 3628 0c46 5B040000 		.4byte	.LASF21
 3629 0c4a 01       		.byte	0x1
 3630 0c4b 3402     		.2byte	0x234
 3631 0c4d 68000000 		.4byte	0x68
 3632 0c51 19       		.byte	0x19
 3633 0c52 0F       		.uleb128 0xf
 3634 0c53 CB010000 		.4byte	.LASF54
 3635 0c57 01       		.byte	0x1
 3636 0c58 3502     		.2byte	0x235
 3637 0c5a 68000000 		.4byte	0x68
 3638 0c5e 54070000 		.4byte	.LLST43
 3639 0c62 15       		.uleb128 0x15
ARM GAS  C:\Users\Blayke\AppData\Local\Temp\cc62WBhQ.s 			page 84


 3640 0c63 78000000 		.4byte	.LASF24
 3641 0c67 01       		.byte	0x1
 3642 0c68 5702     		.2byte	0x257
 3643 0c6a 68000000 		.4byte	0x68
 3644 0c6e 19       		.byte	0x19
 3645 0c6f 15       		.uleb128 0x15
 3646 0c70 B9070000 		.4byte	.LASF25
 3647 0c74 01       		.byte	0x1
 3648 0c75 5802     		.2byte	0x258
 3649 0c77 68000000 		.4byte	0x68
 3650 0c7b 19       		.byte	0x19
 3651 0c7c 09       		.uleb128 0x9
 3652 0c7d 0C000000 		.4byte	.LVL197
 3653 0c81 D2160000 		.4byte	0x16d2
 3654 0c85 07       		.uleb128 0x7
 3655 0c86 26000000 		.4byte	.LVL200
 3656 0c8a BC160000 		.4byte	0x16bc
 3657 0c8e 990C0000 		.4byte	0xc99
 3658 0c92 08       		.uleb128 0x8
 3659 0c93 01       		.uleb128 0x1
 3660 0c94 50       		.byte	0x50
 3661 0c95 02       		.uleb128 0x2
 3662 0c96 75       		.byte	0x75
 3663 0c97 00       		.sleb128 0
 3664 0c98 00       		.byte	0
 3665 0c99 07       		.uleb128 0x7
 3666 0c9a 2C000000 		.4byte	.LVL201
 3667 0c9e 59160000 		.4byte	0x1659
 3668 0ca2 AD0C0000 		.4byte	0xcad
 3669 0ca6 08       		.uleb128 0x8
 3670 0ca7 01       		.uleb128 0x1
 3671 0ca8 50       		.byte	0x50
 3672 0ca9 02       		.uleb128 0x2
 3673 0caa 08       		.byte	0x8
 3674 0cab 32       		.byte	0x32
 3675 0cac 00       		.byte	0
 3676 0cad 07       		.uleb128 0x7
 3677 0cae 40000000 		.4byte	.LVL203
 3678 0cb2 64160000 		.4byte	0x1664
 3679 0cb6 C70C0000 		.4byte	0xcc7
 3680 0cba 08       		.uleb128 0x8
 3681 0cbb 01       		.uleb128 0x1
 3682 0cbc 50       		.byte	0x50
 3683 0cbd 02       		.uleb128 0x2
 3684 0cbe 77       		.byte	0x77
 3685 0cbf 00       		.sleb128 0
 3686 0cc0 08       		.uleb128 0x8
 3687 0cc1 01       		.uleb128 0x1
 3688 0cc2 51       		.byte	0x51
 3689 0cc3 02       		.uleb128 0x2
 3690 0cc4 78       		.byte	0x78
 3691 0cc5 00       		.sleb128 0
 3692 0cc6 00       		.byte	0
 3693 0cc7 07       		.uleb128 0x7
 3694 0cc8 46000000 		.4byte	.LVL204
 3695 0ccc 6F160000 		.4byte	0x166f
 3696 0cd0 DB0C0000 		.4byte	0xcdb
ARM GAS  C:\Users\Blayke\AppData\Local\Temp\cc62WBhQ.s 			page 85


 3697 0cd4 08       		.uleb128 0x8
 3698 0cd5 01       		.uleb128 0x1
 3699 0cd6 50       		.byte	0x50
 3700 0cd7 02       		.uleb128 0x2
 3701 0cd8 77       		.byte	0x77
 3702 0cd9 00       		.sleb128 0
 3703 0cda 00       		.byte	0
 3704 0cdb 07       		.uleb128 0x7
 3705 0cdc 4C000000 		.4byte	.LVL205
 3706 0ce0 BC160000 		.4byte	0x16bc
 3707 0ce4 EF0C0000 		.4byte	0xcef
 3708 0ce8 08       		.uleb128 0x8
 3709 0ce9 01       		.uleb128 0x1
 3710 0cea 50       		.byte	0x50
 3711 0ceb 02       		.uleb128 0x2
 3712 0cec 76       		.byte	0x76
 3713 0ced 00       		.sleb128 0
 3714 0cee 00       		.byte	0
 3715 0cef 07       		.uleb128 0x7
 3716 0cf0 52000000 		.4byte	.LVL206
 3717 0cf4 59160000 		.4byte	0x1659
 3718 0cf8 030D0000 		.4byte	0xd03
 3719 0cfc 08       		.uleb128 0x8
 3720 0cfd 01       		.uleb128 0x1
 3721 0cfe 50       		.byte	0x50
 3722 0cff 02       		.uleb128 0x2
 3723 0d00 08       		.byte	0x8
 3724 0d01 32       		.byte	0x32
 3725 0d02 00       		.byte	0
 3726 0d03 07       		.uleb128 0x7
 3727 0d04 5E000000 		.4byte	.LVL207
 3728 0d08 64160000 		.4byte	0x1664
 3729 0d0c 1D0D0000 		.4byte	0xd1d
 3730 0d10 08       		.uleb128 0x8
 3731 0d11 01       		.uleb128 0x1
 3732 0d12 50       		.byte	0x50
 3733 0d13 02       		.uleb128 0x2
 3734 0d14 77       		.byte	0x77
 3735 0d15 00       		.sleb128 0
 3736 0d16 08       		.uleb128 0x8
 3737 0d17 01       		.uleb128 0x1
 3738 0d18 51       		.byte	0x51
 3739 0d19 02       		.uleb128 0x2
 3740 0d1a 78       		.byte	0x78
 3741 0d1b 00       		.sleb128 0
 3742 0d1c 00       		.byte	0
 3743 0d1d 07       		.uleb128 0x7
 3744 0d1e 64000000 		.4byte	.LVL208
 3745 0d22 6F160000 		.4byte	0x166f
 3746 0d26 310D0000 		.4byte	0xd31
 3747 0d2a 08       		.uleb128 0x8
 3748 0d2b 01       		.uleb128 0x1
 3749 0d2c 50       		.byte	0x50
 3750 0d2d 02       		.uleb128 0x2
 3751 0d2e 77       		.byte	0x77
 3752 0d2f 00       		.sleb128 0
 3753 0d30 00       		.byte	0
ARM GAS  C:\Users\Blayke\AppData\Local\Temp\cc62WBhQ.s 			page 86


 3754 0d31 07       		.uleb128 0x7
 3755 0d32 78000000 		.4byte	.LVL210
 3756 0d36 64160000 		.4byte	0x1664
 3757 0d3a 540D0000 		.4byte	0xd54
 3758 0d3e 08       		.uleb128 0x8
 3759 0d3f 01       		.uleb128 0x1
 3760 0d40 50       		.byte	0x50
 3761 0d41 02       		.uleb128 0x2
 3762 0d42 77       		.byte	0x77
 3763 0d43 00       		.sleb128 0
 3764 0d44 08       		.uleb128 0x8
 3765 0d45 01       		.uleb128 0x1
 3766 0d46 51       		.byte	0x51
 3767 0d47 05       		.uleb128 0x5
 3768 0d48 03       		.byte	0x3
 3769 0d49 74000000 		.4byte	.LC7
 3770 0d4d 08       		.uleb128 0x8
 3771 0d4e 01       		.uleb128 0x1
 3772 0d4f 52       		.byte	0x52
 3773 0d50 02       		.uleb128 0x2
 3774 0d51 74       		.byte	0x74
 3775 0d52 00       		.sleb128 0
 3776 0d53 00       		.byte	0
 3777 0d54 07       		.uleb128 0x7
 3778 0d55 7E000000 		.4byte	.LVL211
 3779 0d59 6F160000 		.4byte	0x166f
 3780 0d5d 680D0000 		.4byte	0xd68
 3781 0d61 08       		.uleb128 0x8
 3782 0d62 01       		.uleb128 0x1
 3783 0d63 50       		.byte	0x50
 3784 0d64 02       		.uleb128 0x2
 3785 0d65 77       		.byte	0x77
 3786 0d66 00       		.sleb128 0
 3787 0d67 00       		.byte	0
 3788 0d68 09       		.uleb128 0x9
 3789 0d69 90000000 		.4byte	.LVL213
 3790 0d6d 01160000 		.4byte	0x1601
 3791 0d71 07       		.uleb128 0x7
 3792 0d72 96000000 		.4byte	.LVL214
 3793 0d76 0C160000 		.4byte	0x160c
 3794 0d7a 840D0000 		.4byte	0xd84
 3795 0d7e 08       		.uleb128 0x8
 3796 0d7f 01       		.uleb128 0x1
 3797 0d80 50       		.byte	0x50
 3798 0d81 01       		.uleb128 0x1
 3799 0d82 49       		.byte	0x49
 3800 0d83 00       		.byte	0
 3801 0d84 09       		.uleb128 0x9
 3802 0d85 9A000000 		.4byte	.LVL215
 3803 0d89 17160000 		.4byte	0x1617
 3804 0d8d 07       		.uleb128 0x7
 3805 0d8e A0000000 		.4byte	.LVL216
 3806 0d92 22160000 		.4byte	0x1622
 3807 0d96 A00D0000 		.4byte	0xda0
 3808 0d9a 08       		.uleb128 0x8
 3809 0d9b 01       		.uleb128 0x1
 3810 0d9c 50       		.byte	0x50
ARM GAS  C:\Users\Blayke\AppData\Local\Temp\cc62WBhQ.s 			page 87


 3811 0d9d 01       		.uleb128 0x1
 3812 0d9e 49       		.byte	0x49
 3813 0d9f 00       		.byte	0
 3814 0da0 07       		.uleb128 0x7
 3815 0da1 AC000000 		.4byte	.LVL217
 3816 0da5 EB150000 		.4byte	0x15eb
 3817 0da9 B30D0000 		.4byte	0xdb3
 3818 0dad 08       		.uleb128 0x8
 3819 0dae 01       		.uleb128 0x1
 3820 0daf 50       		.byte	0x50
 3821 0db0 01       		.uleb128 0x1
 3822 0db1 30       		.byte	0x30
 3823 0db2 00       		.byte	0
 3824 0db3 07       		.uleb128 0x7
 3825 0db4 B2000000 		.4byte	.LVL218
 3826 0db8 F6150000 		.4byte	0x15f6
 3827 0dbc C60D0000 		.4byte	0xdc6
 3828 0dc0 08       		.uleb128 0x8
 3829 0dc1 01       		.uleb128 0x1
 3830 0dc2 50       		.byte	0x50
 3831 0dc3 01       		.uleb128 0x1
 3832 0dc4 31       		.byte	0x31
 3833 0dc5 00       		.byte	0
 3834 0dc6 07       		.uleb128 0x7
 3835 0dc7 BA000000 		.4byte	.LVL219
 3836 0dcb BC160000 		.4byte	0x16bc
 3837 0dcf DA0D0000 		.4byte	0xdda
 3838 0dd3 08       		.uleb128 0x8
 3839 0dd4 01       		.uleb128 0x1
 3840 0dd5 50       		.byte	0x50
 3841 0dd6 02       		.uleb128 0x2
 3842 0dd7 75       		.byte	0x75
 3843 0dd8 00       		.sleb128 0
 3844 0dd9 00       		.byte	0
 3845 0dda 07       		.uleb128 0x7
 3846 0ddb C0000000 		.4byte	.LVL220
 3847 0ddf 59160000 		.4byte	0x1659
 3848 0de3 EE0D0000 		.4byte	0xdee
 3849 0de7 08       		.uleb128 0x8
 3850 0de8 01       		.uleb128 0x1
 3851 0de9 50       		.byte	0x50
 3852 0dea 02       		.uleb128 0x2
 3853 0deb 08       		.byte	0x8
 3854 0dec 32       		.byte	0x32
 3855 0ded 00       		.byte	0
 3856 0dee 07       		.uleb128 0x7
 3857 0def C6000000 		.4byte	.LVL221
 3858 0df3 BC160000 		.4byte	0x16bc
 3859 0df7 020E0000 		.4byte	0xe02
 3860 0dfb 08       		.uleb128 0x8
 3861 0dfc 01       		.uleb128 0x1
 3862 0dfd 50       		.byte	0x50
 3863 0dfe 02       		.uleb128 0x2
 3864 0dff 76       		.byte	0x76
 3865 0e00 00       		.sleb128 0
 3866 0e01 00       		.byte	0
 3867 0e02 07       		.uleb128 0x7
ARM GAS  C:\Users\Blayke\AppData\Local\Temp\cc62WBhQ.s 			page 88


 3868 0e03 CC000000 		.4byte	.LVL222
 3869 0e07 59160000 		.4byte	0x1659
 3870 0e0b 160E0000 		.4byte	0xe16
 3871 0e0f 08       		.uleb128 0x8
 3872 0e10 01       		.uleb128 0x1
 3873 0e11 50       		.byte	0x50
 3874 0e12 02       		.uleb128 0x2
 3875 0e13 08       		.byte	0x8
 3876 0e14 32       		.byte	0x32
 3877 0e15 00       		.byte	0
 3878 0e16 07       		.uleb128 0x7
 3879 0e17 FA000000 		.4byte	.LVL225
 3880 0e1b EB150000 		.4byte	0x15eb
 3881 0e1f 290E0000 		.4byte	0xe29
 3882 0e23 08       		.uleb128 0x8
 3883 0e24 01       		.uleb128 0x1
 3884 0e25 50       		.byte	0x50
 3885 0e26 01       		.uleb128 0x1
 3886 0e27 31       		.byte	0x31
 3887 0e28 00       		.byte	0
 3888 0e29 07       		.uleb128 0x7
 3889 0e2a 00010000 		.4byte	.LVL226
 3890 0e2e F6150000 		.4byte	0x15f6
 3891 0e32 3C0E0000 		.4byte	0xe3c
 3892 0e36 08       		.uleb128 0x8
 3893 0e37 01       		.uleb128 0x1
 3894 0e38 50       		.byte	0x50
 3895 0e39 01       		.uleb128 0x1
 3896 0e3a 30       		.byte	0x30
 3897 0e3b 00       		.byte	0
 3898 0e3c 07       		.uleb128 0x7
 3899 0e3d 06010000 		.4byte	.LVL227
 3900 0e41 BC160000 		.4byte	0x16bc
 3901 0e45 500E0000 		.4byte	0xe50
 3902 0e49 08       		.uleb128 0x8
 3903 0e4a 01       		.uleb128 0x1
 3904 0e4b 50       		.byte	0x50
 3905 0e4c 02       		.uleb128 0x2
 3906 0e4d 75       		.byte	0x75
 3907 0e4e 00       		.sleb128 0
 3908 0e4f 00       		.byte	0
 3909 0e50 07       		.uleb128 0x7
 3910 0e51 0C010000 		.4byte	.LVL228
 3911 0e55 59160000 		.4byte	0x1659
 3912 0e59 640E0000 		.4byte	0xe64
 3913 0e5d 08       		.uleb128 0x8
 3914 0e5e 01       		.uleb128 0x1
 3915 0e5f 50       		.byte	0x50
 3916 0e60 02       		.uleb128 0x2
 3917 0e61 08       		.byte	0x8
 3918 0e62 32       		.byte	0x32
 3919 0e63 00       		.byte	0
 3920 0e64 07       		.uleb128 0x7
 3921 0e65 12010000 		.4byte	.LVL229
 3922 0e69 BC160000 		.4byte	0x16bc
 3923 0e6d 780E0000 		.4byte	0xe78
 3924 0e71 08       		.uleb128 0x8
ARM GAS  C:\Users\Blayke\AppData\Local\Temp\cc62WBhQ.s 			page 89


 3925 0e72 01       		.uleb128 0x1
 3926 0e73 50       		.byte	0x50
 3927 0e74 02       		.uleb128 0x2
 3928 0e75 76       		.byte	0x76
 3929 0e76 00       		.sleb128 0
 3930 0e77 00       		.byte	0
 3931 0e78 07       		.uleb128 0x7
 3932 0e79 18010000 		.4byte	.LVL230
 3933 0e7d 59160000 		.4byte	0x1659
 3934 0e81 8C0E0000 		.4byte	0xe8c
 3935 0e85 08       		.uleb128 0x8
 3936 0e86 01       		.uleb128 0x1
 3937 0e87 50       		.byte	0x50
 3938 0e88 02       		.uleb128 0x2
 3939 0e89 08       		.byte	0x8
 3940 0e8a 32       		.byte	0x32
 3941 0e8b 00       		.byte	0
 3942 0e8c 07       		.uleb128 0x7
 3943 0e8d 2C010000 		.4byte	.LVL233
 3944 0e91 BC160000 		.4byte	0x16bc
 3945 0e95 A00E0000 		.4byte	0xea0
 3946 0e99 08       		.uleb128 0x8
 3947 0e9a 01       		.uleb128 0x1
 3948 0e9b 50       		.byte	0x50
 3949 0e9c 02       		.uleb128 0x2
 3950 0e9d 75       		.byte	0x75
 3951 0e9e 00       		.sleb128 0
 3952 0e9f 00       		.byte	0
 3953 0ea0 07       		.uleb128 0x7
 3954 0ea1 32010000 		.4byte	.LVL234
 3955 0ea5 59160000 		.4byte	0x1659
 3956 0ea9 B40E0000 		.4byte	0xeb4
 3957 0ead 08       		.uleb128 0x8
 3958 0eae 01       		.uleb128 0x1
 3959 0eaf 50       		.byte	0x50
 3960 0eb0 02       		.uleb128 0x2
 3961 0eb1 08       		.byte	0x8
 3962 0eb2 32       		.byte	0x32
 3963 0eb3 00       		.byte	0
 3964 0eb4 07       		.uleb128 0x7
 3965 0eb5 38010000 		.4byte	.LVL235
 3966 0eb9 BC160000 		.4byte	0x16bc
 3967 0ebd C80E0000 		.4byte	0xec8
 3968 0ec1 08       		.uleb128 0x8
 3969 0ec2 01       		.uleb128 0x1
 3970 0ec3 50       		.byte	0x50
 3971 0ec4 02       		.uleb128 0x2
 3972 0ec5 76       		.byte	0x76
 3973 0ec6 00       		.sleb128 0
 3974 0ec7 00       		.byte	0
 3975 0ec8 07       		.uleb128 0x7
 3976 0ec9 3E010000 		.4byte	.LVL236
 3977 0ecd 59160000 		.4byte	0x1659
 3978 0ed1 DC0E0000 		.4byte	0xedc
 3979 0ed5 08       		.uleb128 0x8
 3980 0ed6 01       		.uleb128 0x1
 3981 0ed7 50       		.byte	0x50
ARM GAS  C:\Users\Blayke\AppData\Local\Temp\cc62WBhQ.s 			page 90


 3982 0ed8 02       		.uleb128 0x2
 3983 0ed9 08       		.byte	0x8
 3984 0eda 32       		.byte	0x32
 3985 0edb 00       		.byte	0
 3986 0edc 07       		.uleb128 0x7
 3987 0edd 56010000 		.4byte	.LVL238
 3988 0ee1 64160000 		.4byte	0x1664
 3989 0ee5 000F0000 		.4byte	0xf00
 3990 0ee9 08       		.uleb128 0x8
 3991 0eea 01       		.uleb128 0x1
 3992 0eeb 50       		.byte	0x50
 3993 0eec 02       		.uleb128 0x2
 3994 0eed 77       		.byte	0x77
 3995 0eee 00       		.sleb128 0
 3996 0eef 08       		.uleb128 0x8
 3997 0ef0 01       		.uleb128 0x1
 3998 0ef1 51       		.byte	0x51
 3999 0ef2 05       		.uleb128 0x5
 4000 0ef3 03       		.byte	0x3
 4001 0ef4 88000000 		.4byte	.LC8
 4002 0ef8 08       		.uleb128 0x8
 4003 0ef9 02       		.uleb128 0x2
 4004 0efa 7D       		.byte	0x7d
 4005 0efb 00       		.sleb128 0
 4006 0efc 02       		.uleb128 0x2
 4007 0efd 74       		.byte	0x74
 4008 0efe 00       		.sleb128 0
 4009 0eff 00       		.byte	0
 4010 0f00 07       		.uleb128 0x7
 4011 0f01 5C010000 		.4byte	.LVL239
 4012 0f05 6F160000 		.4byte	0x166f
 4013 0f09 140F0000 		.4byte	0xf14
 4014 0f0d 08       		.uleb128 0x8
 4015 0f0e 01       		.uleb128 0x1
 4016 0f0f 50       		.byte	0x50
 4017 0f10 02       		.uleb128 0x2
 4018 0f11 77       		.byte	0x77
 4019 0f12 00       		.sleb128 0
 4020 0f13 00       		.byte	0
 4021 0f14 07       		.uleb128 0x7
 4022 0f15 78010000 		.4byte	.LVL240
 4023 0f19 BC160000 		.4byte	0x16bc
 4024 0f1d 280F0000 		.4byte	0xf28
 4025 0f21 08       		.uleb128 0x8
 4026 0f22 01       		.uleb128 0x1
 4027 0f23 50       		.byte	0x50
 4028 0f24 02       		.uleb128 0x2
 4029 0f25 75       		.byte	0x75
 4030 0f26 00       		.sleb128 0
 4031 0f27 00       		.byte	0
 4032 0f28 07       		.uleb128 0x7
 4033 0f29 7E010000 		.4byte	.LVL241
 4034 0f2d 59160000 		.4byte	0x1659
 4035 0f31 3C0F0000 		.4byte	0xf3c
 4036 0f35 08       		.uleb128 0x8
 4037 0f36 01       		.uleb128 0x1
 4038 0f37 50       		.byte	0x50
ARM GAS  C:\Users\Blayke\AppData\Local\Temp\cc62WBhQ.s 			page 91


 4039 0f38 02       		.uleb128 0x2
 4040 0f39 08       		.byte	0x8
 4041 0f3a 32       		.byte	0x32
 4042 0f3b 00       		.byte	0
 4043 0f3c 07       		.uleb128 0x7
 4044 0f3d 84010000 		.4byte	.LVL242
 4045 0f41 BC160000 		.4byte	0x16bc
 4046 0f45 500F0000 		.4byte	0xf50
 4047 0f49 08       		.uleb128 0x8
 4048 0f4a 01       		.uleb128 0x1
 4049 0f4b 50       		.byte	0x50
 4050 0f4c 02       		.uleb128 0x2
 4051 0f4d 76       		.byte	0x76
 4052 0f4e 00       		.sleb128 0
 4053 0f4f 00       		.byte	0
 4054 0f50 07       		.uleb128 0x7
 4055 0f51 8A010000 		.4byte	.LVL243
 4056 0f55 59160000 		.4byte	0x1659
 4057 0f59 640F0000 		.4byte	0xf64
 4058 0f5d 08       		.uleb128 0x8
 4059 0f5e 01       		.uleb128 0x1
 4060 0f5f 50       		.byte	0x50
 4061 0f60 02       		.uleb128 0x2
 4062 0f61 08       		.byte	0x8
 4063 0f62 32       		.byte	0x32
 4064 0f63 00       		.byte	0
 4065 0f64 07       		.uleb128 0x7
 4066 0f65 A0010000 		.4byte	.LVL245
 4067 0f69 64160000 		.4byte	0x1664
 4068 0f6d 810F0000 		.4byte	0xf81
 4069 0f71 08       		.uleb128 0x8
 4070 0f72 01       		.uleb128 0x1
 4071 0f73 50       		.byte	0x50
 4072 0f74 02       		.uleb128 0x2
 4073 0f75 77       		.byte	0x77
 4074 0f76 00       		.sleb128 0
 4075 0f77 08       		.uleb128 0x8
 4076 0f78 01       		.uleb128 0x1
 4077 0f79 51       		.byte	0x51
 4078 0f7a 05       		.uleb128 0x5
 4079 0f7b 03       		.byte	0x3
 4080 0f7c A0000000 		.4byte	.LC9
 4081 0f80 00       		.byte	0
 4082 0f81 07       		.uleb128 0x7
 4083 0f82 A6010000 		.4byte	.LVL246
 4084 0f86 6F160000 		.4byte	0x166f
 4085 0f8a 950F0000 		.4byte	0xf95
 4086 0f8e 08       		.uleb128 0x8
 4087 0f8f 01       		.uleb128 0x1
 4088 0f90 50       		.byte	0x50
 4089 0f91 02       		.uleb128 0x2
 4090 0f92 77       		.byte	0x77
 4091 0f93 00       		.sleb128 0
 4092 0f94 00       		.byte	0
 4093 0f95 07       		.uleb128 0x7
 4094 0f96 B0010000 		.4byte	.LVL247
 4095 0f9a 64160000 		.4byte	0x1664
ARM GAS  C:\Users\Blayke\AppData\Local\Temp\cc62WBhQ.s 			page 92


 4096 0f9e B80F0000 		.4byte	0xfb8
 4097 0fa2 08       		.uleb128 0x8
 4098 0fa3 01       		.uleb128 0x1
 4099 0fa4 50       		.byte	0x50
 4100 0fa5 02       		.uleb128 0x2
 4101 0fa6 77       		.byte	0x77
 4102 0fa7 00       		.sleb128 0
 4103 0fa8 08       		.uleb128 0x8
 4104 0fa9 01       		.uleb128 0x1
 4105 0faa 51       		.byte	0x51
 4106 0fab 05       		.uleb128 0x5
 4107 0fac 03       		.byte	0x3
 4108 0fad AC000000 		.4byte	.LC10
 4109 0fb1 08       		.uleb128 0x8
 4110 0fb2 01       		.uleb128 0x1
 4111 0fb3 52       		.byte	0x52
 4112 0fb4 02       		.uleb128 0x2
 4113 0fb5 74       		.byte	0x74
 4114 0fb6 00       		.sleb128 0
 4115 0fb7 00       		.byte	0
 4116 0fb8 07       		.uleb128 0x7
 4117 0fb9 B6010000 		.4byte	.LVL248
 4118 0fbd 6F160000 		.4byte	0x166f
 4119 0fc1 CC0F0000 		.4byte	0xfcc
 4120 0fc5 08       		.uleb128 0x8
 4121 0fc6 01       		.uleb128 0x1
 4122 0fc7 50       		.byte	0x50
 4123 0fc8 02       		.uleb128 0x2
 4124 0fc9 77       		.byte	0x77
 4125 0fca 00       		.sleb128 0
 4126 0fcb 00       		.byte	0
 4127 0fcc 09       		.uleb128 0x9
 4128 0fcd BA010000 		.4byte	.LVL249
 4129 0fd1 DD160000 		.4byte	0x16dd
 4130 0fd5 09       		.uleb128 0x9
 4131 0fd6 C8010000 		.4byte	.LVL251
 4132 0fda 90160000 		.4byte	0x1690
 4133 0fde 09       		.uleb128 0x9
 4134 0fdf CC010000 		.4byte	.LVL252
 4135 0fe3 9B160000 		.4byte	0x169b
 4136 0fe7 07       		.uleb128 0x7
 4137 0fe8 D8010000 		.4byte	.LVL253
 4138 0fec A6160000 		.4byte	0x16a6
 4139 0ff0 06100000 		.4byte	0x1006
 4140 0ff4 08       		.uleb128 0x8
 4141 0ff5 01       		.uleb128 0x1
 4142 0ff6 50       		.byte	0x50
 4143 0ff7 02       		.uleb128 0x2
 4144 0ff8 09       		.byte	0x9
 4145 0ff9 E2       		.byte	0xe2
 4146 0ffa 08       		.uleb128 0x8
 4147 0ffb 01       		.uleb128 0x1
 4148 0ffc 51       		.byte	0x51
 4149 0ffd 02       		.uleb128 0x2
 4150 0ffe 08       		.byte	0x8
 4151 0fff C8       		.byte	0xc8
 4152 1000 08       		.uleb128 0x8
ARM GAS  C:\Users\Blayke\AppData\Local\Temp\cc62WBhQ.s 			page 93


 4153 1001 01       		.uleb128 0x1
 4154 1002 52       		.byte	0x52
 4155 1003 01       		.uleb128 0x1
 4156 1004 31       		.byte	0x31
 4157 1005 00       		.byte	0
 4158 1006 07       		.uleb128 0x7
 4159 1007 E2010000 		.4byte	.LVL254
 4160 100b A6160000 		.4byte	0x16a6
 4161 100f 24100000 		.4byte	0x1024
 4162 1013 08       		.uleb128 0x8
 4163 1014 01       		.uleb128 0x1
 4164 1015 50       		.byte	0x50
 4165 1016 01       		.uleb128 0x1
 4166 1017 4E       		.byte	0x4e
 4167 1018 08       		.uleb128 0x8
 4168 1019 01       		.uleb128 0x1
 4169 101a 51       		.byte	0x51
 4170 101b 02       		.uleb128 0x2
 4171 101c 08       		.byte	0x8
 4172 101d C8       		.byte	0xc8
 4173 101e 08       		.uleb128 0x8
 4174 101f 01       		.uleb128 0x1
 4175 1020 52       		.byte	0x52
 4176 1021 01       		.uleb128 0x1
 4177 1022 31       		.byte	0x31
 4178 1023 00       		.byte	0
 4179 1024 09       		.uleb128 0x9
 4180 1025 E6010000 		.4byte	.LVL255
 4181 1029 01160000 		.4byte	0x1601
 4182 102d 07       		.uleb128 0x7
 4183 102e EC010000 		.4byte	.LVL256
 4184 1032 0C160000 		.4byte	0x160c
 4185 1036 40100000 		.4byte	0x1040
 4186 103a 08       		.uleb128 0x8
 4187 103b 01       		.uleb128 0x1
 4188 103c 50       		.byte	0x50
 4189 103d 01       		.uleb128 0x1
 4190 103e 49       		.byte	0x49
 4191 103f 00       		.byte	0
 4192 1040 09       		.uleb128 0x9
 4193 1041 F0010000 		.4byte	.LVL257
 4194 1045 17160000 		.4byte	0x1617
 4195 1049 07       		.uleb128 0x7
 4196 104a F6010000 		.4byte	.LVL258
 4197 104e 22160000 		.4byte	0x1622
 4198 1052 5C100000 		.4byte	0x105c
 4199 1056 08       		.uleb128 0x8
 4200 1057 01       		.uleb128 0x1
 4201 1058 50       		.byte	0x50
 4202 1059 01       		.uleb128 0x1
 4203 105a 49       		.byte	0x49
 4204 105b 00       		.byte	0
 4205 105c 07       		.uleb128 0x7
 4206 105d FC010000 		.4byte	.LVL259
 4207 1061 E8160000 		.4byte	0x16e8
 4208 1065 6F100000 		.4byte	0x106f
 4209 1069 08       		.uleb128 0x8
ARM GAS  C:\Users\Blayke\AppData\Local\Temp\cc62WBhQ.s 			page 94


 4210 106a 01       		.uleb128 0x1
 4211 106b 50       		.byte	0x50
 4212 106c 01       		.uleb128 0x1
 4213 106d 31       		.byte	0x31
 4214 106e 00       		.byte	0
 4215 106f 07       		.uleb128 0x7
 4216 1070 02020000 		.4byte	.LVL260
 4217 1074 59160000 		.4byte	0x1659
 4218 1078 82100000 		.4byte	0x1082
 4219 107c 08       		.uleb128 0x8
 4220 107d 01       		.uleb128 0x1
 4221 107e 50       		.byte	0x50
 4222 107f 01       		.uleb128 0x1
 4223 1080 3A       		.byte	0x3a
 4224 1081 00       		.byte	0
 4225 1082 07       		.uleb128 0x7
 4226 1083 08020000 		.4byte	.LVL261
 4227 1087 E8160000 		.4byte	0x16e8
 4228 108b 95100000 		.4byte	0x1095
 4229 108f 08       		.uleb128 0x8
 4230 1090 01       		.uleb128 0x1
 4231 1091 50       		.byte	0x50
 4232 1092 01       		.uleb128 0x1
 4233 1093 30       		.byte	0x30
 4234 1094 00       		.byte	0
 4235 1095 07       		.uleb128 0x7
 4236 1096 16020000 		.4byte	.LVL262
 4237 109a 64160000 		.4byte	0x1664
 4238 109e B8100000 		.4byte	0x10b8
 4239 10a2 08       		.uleb128 0x8
 4240 10a3 01       		.uleb128 0x1
 4241 10a4 50       		.byte	0x50
 4242 10a5 02       		.uleb128 0x2
 4243 10a6 78       		.byte	0x78
 4244 10a7 00       		.sleb128 0
 4245 10a8 08       		.uleb128 0x8
 4246 10a9 01       		.uleb128 0x1
 4247 10aa 51       		.byte	0x51
 4248 10ab 05       		.uleb128 0x5
 4249 10ac 03       		.byte	0x3
 4250 10ad B8000000 		.4byte	.LC11
 4251 10b1 08       		.uleb128 0x8
 4252 10b2 01       		.uleb128 0x1
 4253 10b3 52       		.byte	0x52
 4254 10b4 02       		.uleb128 0x2
 4255 10b5 77       		.byte	0x77
 4256 10b6 00       		.sleb128 0
 4257 10b7 00       		.byte	0
 4258 10b8 07       		.uleb128 0x7
 4259 10b9 1C020000 		.4byte	.LVL263
 4260 10bd 6F160000 		.4byte	0x166f
 4261 10c1 CC100000 		.4byte	0x10cc
 4262 10c5 08       		.uleb128 0x8
 4263 10c6 01       		.uleb128 0x1
 4264 10c7 50       		.byte	0x50
 4265 10c8 02       		.uleb128 0x2
 4266 10c9 78       		.byte	0x78
ARM GAS  C:\Users\Blayke\AppData\Local\Temp\cc62WBhQ.s 			page 95


 4267 10ca 00       		.sleb128 0
 4268 10cb 00       		.byte	0
 4269 10cc 09       		.uleb128 0x9
 4270 10cd 2E020000 		.4byte	.LVL264
 4271 10d1 90160000 		.4byte	0x1690
 4272 10d5 09       		.uleb128 0x9
 4273 10d6 32020000 		.4byte	.LVL265
 4274 10da 9B160000 		.4byte	0x169b
 4275 10de 09       		.uleb128 0x9
 4276 10df 36020000 		.4byte	.LVL266
 4277 10e3 F3160000 		.4byte	0x16f3
 4278 10e7 00       		.byte	0
 4279 10e8 0D       		.uleb128 0xd
 4280 10e9 61050000 		.4byte	.LASF55
 4281 10ed 01       		.byte	0x1
 4282 10ee 1102     		.2byte	0x211
 4283 10f0 00000000 		.4byte	.LFB71
 4284 10f4 3C000000 		.4byte	.LFE71-.LFB71
 4285 10f8 01       		.uleb128 0x1
 4286 10f9 9C       		.byte	0x9c
 4287 10fa 6F110000 		.4byte	0x116f
 4288 10fe 0E       		.uleb128 0xe
 4289 10ff B5050000 		.4byte	.LASF56
 4290 1103 01       		.byte	0x1
 4291 1104 1102     		.2byte	0x211
 4292 1106 68000000 		.4byte	0x68
 4293 110a 72070000 		.4byte	.LLST44
 4294 110e 0E       		.uleb128 0xe
 4295 110f 83060000 		.4byte	.LASF57
 4296 1113 01       		.byte	0x1
 4297 1114 1102     		.2byte	0x211
 4298 1116 68000000 		.4byte	0x68
 4299 111a 9E070000 		.4byte	.LLST45
 4300 111e 15       		.uleb128 0x15
 4301 111f A5060000 		.4byte	.LASF58
 4302 1123 01       		.byte	0x1
 4303 1124 1302     		.2byte	0x213
 4304 1126 68000000 		.4byte	0x68
 4305 112a 0A       		.byte	0xa
 4306 112b 10       		.uleb128 0x10
 4307 112c D1010000 		.4byte	.LASF59
 4308 1130 01       		.byte	0x1
 4309 1131 1402     		.2byte	0x214
 4310 1133 68000000 		.4byte	0x68
 4311 1137 07       		.uleb128 0x7
 4312 1138 12000000 		.4byte	.LVL270
 4313 113c BC160000 		.4byte	0x16bc
 4314 1140 4B110000 		.4byte	0x114b
 4315 1144 08       		.uleb128 0x8
 4316 1145 01       		.uleb128 0x1
 4317 1146 50       		.byte	0x50
 4318 1147 02       		.uleb128 0x2
 4319 1148 75       		.byte	0x75
 4320 1149 00       		.sleb128 0
 4321 114a 00       		.byte	0
 4322 114b 07       		.uleb128 0x7
 4323 114c 18000000 		.4byte	.LVL271
ARM GAS  C:\Users\Blayke\AppData\Local\Temp\cc62WBhQ.s 			page 96


 4324 1150 59160000 		.4byte	0x1659
 4325 1154 5F110000 		.4byte	0x115f
 4326 1158 08       		.uleb128 0x8
 4327 1159 01       		.uleb128 0x1
 4328 115a 50       		.byte	0x50
 4329 115b 02       		.uleb128 0x2
 4330 115c 08       		.byte	0x8
 4331 115d 32       		.byte	0x32
 4332 115e 00       		.byte	0
 4333 115f 0A       		.uleb128 0xa
 4334 1160 32000000 		.4byte	.LVL274
 4335 1164 C70B0000 		.4byte	0xbc7
 4336 1168 08       		.uleb128 0x8
 4337 1169 01       		.uleb128 0x1
 4338 116a 50       		.byte	0x50
 4339 116b 01       		.uleb128 0x1
 4340 116c 37       		.byte	0x37
 4341 116d 00       		.byte	0
 4342 116e 00       		.byte	0
 4343 116f 17       		.uleb128 0x17
 4344 1170 3D030000 		.4byte	.LASF61
 4345 1174 01       		.byte	0x1
 4346 1175 E302     		.2byte	0x2e3
 4347 1177 00000000 		.4byte	.LFB73
 4348 117b 70000000 		.4byte	.LFE73-.LFB73
 4349 117f 01       		.uleb128 0x1
 4350 1180 9C       		.byte	0x9c
 4351 1181 94120000 		.4byte	0x1294
 4352 1185 0F       		.uleb128 0xf
 4353 1186 9A050000 		.4byte	.LASF62
 4354 118a 01       		.byte	0x1
 4355 118b E802     		.2byte	0x2e8
 4356 118d 68000000 		.4byte	0x68
 4357 1191 E4070000 		.4byte	.LLST46
 4358 1195 0F       		.uleb128 0xf
 4359 1196 66000000 		.4byte	.LASF63
 4360 119a 01       		.byte	0x1
 4361 119b E902     		.2byte	0x2e9
 4362 119d 68000000 		.4byte	0x68
 4363 11a1 02080000 		.4byte	.LLST47
 4364 11a5 0F       		.uleb128 0xf
 4365 11a6 10010000 		.4byte	.LASF35
 4366 11aa 01       		.byte	0x1
 4367 11ab EA02     		.2byte	0x2ea
 4368 11ad 68000000 		.4byte	0x68
 4369 11b1 37080000 		.4byte	.LLST48
 4370 11b5 0F       		.uleb128 0xf
 4371 11b6 FF010000 		.4byte	.LASF64
 4372 11ba 01       		.byte	0x1
 4373 11bb EB02     		.2byte	0x2eb
 4374 11bd 68000000 		.4byte	0x68
 4375 11c1 56080000 		.4byte	.LLST49
 4376 11c5 07       		.uleb128 0x7
 4377 11c6 08000000 		.4byte	.LVL276
 4378 11ca BC160000 		.4byte	0x16bc
 4379 11ce D8110000 		.4byte	0x11d8
 4380 11d2 08       		.uleb128 0x8
ARM GAS  C:\Users\Blayke\AppData\Local\Temp\cc62WBhQ.s 			page 97


 4381 11d3 01       		.uleb128 0x1
 4382 11d4 50       		.byte	0x50
 4383 11d5 01       		.uleb128 0x1
 4384 11d6 35       		.byte	0x35
 4385 11d7 00       		.byte	0
 4386 11d8 07       		.uleb128 0x7
 4387 11d9 0E000000 		.4byte	.LVL277
 4388 11dd 59160000 		.4byte	0x1659
 4389 11e1 EC110000 		.4byte	0x11ec
 4390 11e5 08       		.uleb128 0x8
 4391 11e6 01       		.uleb128 0x1
 4392 11e7 50       		.byte	0x50
 4393 11e8 02       		.uleb128 0x2
 4394 11e9 08       		.byte	0x8
 4395 11ea 3C       		.byte	0x3c
 4396 11eb 00       		.byte	0
 4397 11ec 09       		.uleb128 0x9
 4398 11ed 12000000 		.4byte	.LVL278
 4399 11f1 01160000 		.4byte	0x1601
 4400 11f5 09       		.uleb128 0x9
 4401 11f6 16000000 		.4byte	.LVL279
 4402 11fa 17160000 		.4byte	0x1617
 4403 11fe 07       		.uleb128 0x7
 4404 11ff 1C000000 		.4byte	.LVL280
 4405 1203 0C160000 		.4byte	0x160c
 4406 1207 11120000 		.4byte	0x1211
 4407 120b 08       		.uleb128 0x8
 4408 120c 01       		.uleb128 0x1
 4409 120d 50       		.byte	0x50
 4410 120e 01       		.uleb128 0x1
 4411 120f 49       		.byte	0x49
 4412 1210 00       		.byte	0
 4413 1211 07       		.uleb128 0x7
 4414 1212 22000000 		.4byte	.LVL281
 4415 1216 22160000 		.4byte	0x1622
 4416 121a 24120000 		.4byte	0x1224
 4417 121e 08       		.uleb128 0x8
 4418 121f 01       		.uleb128 0x1
 4419 1220 50       		.byte	0x50
 4420 1221 01       		.uleb128 0x1
 4421 1222 49       		.byte	0x49
 4422 1223 00       		.byte	0
 4423 1224 07       		.uleb128 0x7
 4424 1225 38000000 		.4byte	.LVL285
 4425 1229 EB150000 		.4byte	0x15eb
 4426 122d 37120000 		.4byte	0x1237
 4427 1231 08       		.uleb128 0x8
 4428 1232 01       		.uleb128 0x1
 4429 1233 50       		.byte	0x50
 4430 1234 01       		.uleb128 0x1
 4431 1235 30       		.byte	0x30
 4432 1236 00       		.byte	0
 4433 1237 07       		.uleb128 0x7
 4434 1238 3E000000 		.4byte	.LVL286
 4435 123c F6150000 		.4byte	0x15f6
 4436 1240 4A120000 		.4byte	0x124a
 4437 1244 08       		.uleb128 0x8
ARM GAS  C:\Users\Blayke\AppData\Local\Temp\cc62WBhQ.s 			page 98


 4438 1245 01       		.uleb128 0x1
 4439 1246 50       		.byte	0x50
 4440 1247 01       		.uleb128 0x1
 4441 1248 31       		.byte	0x31
 4442 1249 00       		.byte	0
 4443 124a 07       		.uleb128 0x7
 4444 124b 46000000 		.4byte	.LVL287
 4445 124f EB150000 		.4byte	0x15eb
 4446 1253 5D120000 		.4byte	0x125d
 4447 1257 08       		.uleb128 0x8
 4448 1258 01       		.uleb128 0x1
 4449 1259 50       		.byte	0x50
 4450 125a 01       		.uleb128 0x1
 4451 125b 31       		.byte	0x31
 4452 125c 00       		.byte	0
 4453 125d 07       		.uleb128 0x7
 4454 125e 4C000000 		.4byte	.LVL288
 4455 1262 F6150000 		.4byte	0x15f6
 4456 1266 70120000 		.4byte	0x1270
 4457 126a 08       		.uleb128 0x8
 4458 126b 01       		.uleb128 0x1
 4459 126c 50       		.byte	0x50
 4460 126d 01       		.uleb128 0x1
 4461 126e 30       		.byte	0x30
 4462 126f 00       		.byte	0
 4463 1270 07       		.uleb128 0x7
 4464 1271 54000000 		.4byte	.LVL290
 4465 1275 BC160000 		.4byte	0x16bc
 4466 1279 83120000 		.4byte	0x1283
 4467 127d 08       		.uleb128 0x8
 4468 127e 01       		.uleb128 0x1
 4469 127f 50       		.byte	0x50
 4470 1280 01       		.uleb128 0x1
 4471 1281 35       		.byte	0x35
 4472 1282 00       		.byte	0
 4473 1283 0A       		.uleb128 0xa
 4474 1284 5A000000 		.4byte	.LVL291
 4475 1288 59160000 		.4byte	0x1659
 4476 128c 08       		.uleb128 0x8
 4477 128d 01       		.uleb128 0x1
 4478 128e 50       		.byte	0x50
 4479 128f 02       		.uleb128 0x2
 4480 1290 08       		.byte	0x8
 4481 1291 3C       		.byte	0x3c
 4482 1292 00       		.byte	0
 4483 1293 00       		.byte	0
 4484 1294 0D       		.uleb128 0xd
 4485 1295 79030000 		.4byte	.LASF65
 4486 1299 01       		.byte	0x1
 4487 129a 1203     		.2byte	0x312
 4488 129c 00000000 		.4byte	.LFB74
 4489 12a0 64000000 		.4byte	.LFE74-.LFB74
 4490 12a4 01       		.uleb128 0x1
 4491 12a5 9C       		.byte	0x9c
 4492 12a6 9E130000 		.4byte	0x139e
 4493 12aa 15       		.uleb128 0x15
 4494 12ab 5C000000 		.4byte	.LASF51
ARM GAS  C:\Users\Blayke\AppData\Local\Temp\cc62WBhQ.s 			page 99


 4495 12af 01       		.byte	0x1
 4496 12b0 1603     		.2byte	0x316
 4497 12b2 68000000 		.4byte	0x68
 4498 12b6 64       		.byte	0x64
 4499 12b7 07       		.uleb128 0x7
 4500 12b8 08000000 		.4byte	.LVL295
 4501 12bc BC160000 		.4byte	0x16bc
 4502 12c0 CA120000 		.4byte	0x12ca
 4503 12c4 08       		.uleb128 0x8
 4504 12c5 01       		.uleb128 0x1
 4505 12c6 50       		.byte	0x50
 4506 12c7 01       		.uleb128 0x1
 4507 12c8 30       		.byte	0x30
 4508 12c9 00       		.byte	0
 4509 12ca 07       		.uleb128 0x7
 4510 12cb 0E000000 		.4byte	.LVL296
 4511 12cf 59160000 		.4byte	0x1659
 4512 12d3 DE120000 		.4byte	0x12de
 4513 12d7 08       		.uleb128 0x8
 4514 12d8 01       		.uleb128 0x1
 4515 12d9 50       		.byte	0x50
 4516 12da 02       		.uleb128 0x2
 4517 12db 08       		.byte	0x8
 4518 12dc 3C       		.byte	0x3c
 4519 12dd 00       		.byte	0
 4520 12de 07       		.uleb128 0x7
 4521 12df 14000000 		.4byte	.LVL297
 4522 12e3 BC160000 		.4byte	0x16bc
 4523 12e7 F1120000 		.4byte	0x12f1
 4524 12eb 08       		.uleb128 0x8
 4525 12ec 01       		.uleb128 0x1
 4526 12ed 50       		.byte	0x50
 4527 12ee 01       		.uleb128 0x1
 4528 12ef 30       		.byte	0x30
 4529 12f0 00       		.byte	0
 4530 12f1 07       		.uleb128 0x7
 4531 12f2 1A000000 		.4byte	.LVL298
 4532 12f6 59160000 		.4byte	0x1659
 4533 12fa 05130000 		.4byte	0x1305
 4534 12fe 08       		.uleb128 0x8
 4535 12ff 01       		.uleb128 0x1
 4536 1300 50       		.byte	0x50
 4537 1301 02       		.uleb128 0x2
 4538 1302 08       		.byte	0x8
 4539 1303 3C       		.byte	0x3c
 4540 1304 00       		.byte	0
 4541 1305 07       		.uleb128 0x7
 4542 1306 20000000 		.4byte	.LVL299
 4543 130a BC160000 		.4byte	0x16bc
 4544 130e 18130000 		.4byte	0x1318
 4545 1312 08       		.uleb128 0x8
 4546 1313 01       		.uleb128 0x1
 4547 1314 50       		.byte	0x50
 4548 1315 01       		.uleb128 0x1
 4549 1316 35       		.byte	0x35
 4550 1317 00       		.byte	0
 4551 1318 07       		.uleb128 0x7
ARM GAS  C:\Users\Blayke\AppData\Local\Temp\cc62WBhQ.s 			page 100


 4552 1319 26000000 		.4byte	.LVL300
 4553 131d 59160000 		.4byte	0x1659
 4554 1321 2C130000 		.4byte	0x132c
 4555 1325 08       		.uleb128 0x8
 4556 1326 01       		.uleb128 0x1
 4557 1327 50       		.byte	0x50
 4558 1328 02       		.uleb128 0x2
 4559 1329 08       		.byte	0x8
 4560 132a 3C       		.byte	0x3c
 4561 132b 00       		.byte	0
 4562 132c 07       		.uleb128 0x7
 4563 132d 2E000000 		.4byte	.LVL301
 4564 1331 BC160000 		.4byte	0x16bc
 4565 1335 3F130000 		.4byte	0x133f
 4566 1339 08       		.uleb128 0x8
 4567 133a 01       		.uleb128 0x1
 4568 133b 50       		.byte	0x50
 4569 133c 01       		.uleb128 0x1
 4570 133d 30       		.byte	0x30
 4571 133e 00       		.byte	0
 4572 133f 07       		.uleb128 0x7
 4573 1340 34000000 		.4byte	.LVL302
 4574 1344 59160000 		.4byte	0x1659
 4575 1348 53130000 		.4byte	0x1353
 4576 134c 08       		.uleb128 0x8
 4577 134d 01       		.uleb128 0x1
 4578 134e 50       		.byte	0x50
 4579 134f 02       		.uleb128 0x2
 4580 1350 08       		.byte	0x8
 4581 1351 3C       		.byte	0x3c
 4582 1352 00       		.byte	0
 4583 1353 07       		.uleb128 0x7
 4584 1354 3A000000 		.4byte	.LVL303
 4585 1358 BC160000 		.4byte	0x16bc
 4586 135c 66130000 		.4byte	0x1366
 4587 1360 08       		.uleb128 0x8
 4588 1361 01       		.uleb128 0x1
 4589 1362 50       		.byte	0x50
 4590 1363 01       		.uleb128 0x1
 4591 1364 30       		.byte	0x30
 4592 1365 00       		.byte	0
 4593 1366 07       		.uleb128 0x7
 4594 1367 40000000 		.4byte	.LVL304
 4595 136b 59160000 		.4byte	0x1659
 4596 136f 7A130000 		.4byte	0x137a
 4597 1373 08       		.uleb128 0x8
 4598 1374 01       		.uleb128 0x1
 4599 1375 50       		.byte	0x50
 4600 1376 02       		.uleb128 0x2
 4601 1377 08       		.byte	0x8
 4602 1378 3C       		.byte	0x3c
 4603 1379 00       		.byte	0
 4604 137a 07       		.uleb128 0x7
 4605 137b 46000000 		.4byte	.LVL305
 4606 137f BC160000 		.4byte	0x16bc
 4607 1383 8D130000 		.4byte	0x138d
 4608 1387 08       		.uleb128 0x8
ARM GAS  C:\Users\Blayke\AppData\Local\Temp\cc62WBhQ.s 			page 101


 4609 1388 01       		.uleb128 0x1
 4610 1389 50       		.byte	0x50
 4611 138a 01       		.uleb128 0x1
 4612 138b 35       		.byte	0x35
 4613 138c 00       		.byte	0
 4614 138d 0A       		.uleb128 0xa
 4615 138e 4C000000 		.4byte	.LVL306
 4616 1392 59160000 		.4byte	0x1659
 4617 1396 08       		.uleb128 0x8
 4618 1397 01       		.uleb128 0x1
 4619 1398 50       		.byte	0x50
 4620 1399 02       		.uleb128 0x2
 4621 139a 08       		.byte	0x8
 4622 139b 3C       		.byte	0x3c
 4623 139c 00       		.byte	0
 4624 139d 00       		.byte	0
 4625 139e 18       		.uleb128 0x18
 4626 139f 0B060000 		.4byte	.LASF116
 4627 13a3 01       		.byte	0x1
 4628 13a4 3303     		.2byte	0x333
 4629 13a6 00000000 		.4byte	.LFB75
 4630 13aa 02000000 		.4byte	.LFE75-.LFB75
 4631 13ae 01       		.uleb128 0x1
 4632 13af 9C       		.byte	0x9c
 4633 13b0 0D       		.uleb128 0xd
 4634 13b1 10020000 		.4byte	.LASF66
 4635 13b5 01       		.byte	0x1
 4636 13b6 3C03     		.2byte	0x33c
 4637 13b8 00000000 		.4byte	.LFB76
 4638 13bc 02000000 		.4byte	.LFE76-.LFB76
 4639 13c0 01       		.uleb128 0x1
 4640 13c1 9C       		.byte	0x9c
 4641 13c2 EE130000 		.4byte	0x13ee
 4642 13c6 15       		.uleb128 0x15
 4643 13c7 37060000 		.4byte	.LASF67
 4644 13cb 01       		.byte	0x1
 4645 13cc 4003     		.2byte	0x340
 4646 13ce 68000000 		.4byte	0x68
 4647 13d2 00       		.byte	0
 4648 13d3 15       		.uleb128 0x15
 4649 13d4 50030000 		.4byte	.LASF68
 4650 13d8 01       		.byte	0x1
 4651 13d9 4203     		.2byte	0x342
 4652 13db 68000000 		.4byte	0x68
 4653 13df 00       		.byte	0
 4654 13e0 15       		.uleb128 0x15
 4655 13e1 35020000 		.4byte	.LASF39
 4656 13e5 01       		.byte	0x1
 4657 13e6 4503     		.2byte	0x345
 4658 13e8 68000000 		.4byte	0x68
 4659 13ec 00       		.byte	0
 4660 13ed 00       		.byte	0
 4661 13ee 17       		.uleb128 0x17
 4662 13ef 17080000 		.4byte	.LASF69
 4663 13f3 01       		.byte	0x1
 4664 13f4 8403     		.2byte	0x384
 4665 13f6 00000000 		.4byte	.LFB77
ARM GAS  C:\Users\Blayke\AppData\Local\Temp\cc62WBhQ.s 			page 102


 4666 13fa 5C000000 		.4byte	.LFE77-.LFB77
 4667 13fe 01       		.uleb128 0x1
 4668 13ff 9C       		.byte	0x9c
 4669 1400 C6140000 		.4byte	0x14c6
 4670 1404 0E       		.uleb128 0xe
 4671 1405 A9010000 		.4byte	.LASF70
 4672 1409 01       		.byte	0x1
 4673 140a 8403     		.2byte	0x384
 4674 140c 68000000 		.4byte	0x68
 4675 1410 69080000 		.4byte	.LLST50
 4676 1414 0F       		.uleb128 0xf
 4677 1415 2F060000 		.4byte	.LASF71
 4678 1419 01       		.byte	0x1
 4679 141a 8803     		.2byte	0x388
 4680 141c 68000000 		.4byte	0x68
 4681 1420 87080000 		.4byte	.LLST51
 4682 1424 0F       		.uleb128 0xf
 4683 1425 FC000000 		.4byte	.LASF72
 4684 1429 01       		.byte	0x1
 4685 142a 8903     		.2byte	0x389
 4686 142c 68000000 		.4byte	0x68
 4687 1430 A5080000 		.4byte	.LLST52
 4688 1434 07       		.uleb128 0x7
 4689 1435 0E000000 		.4byte	.LVL310
 4690 1439 B1160000 		.4byte	0x16b1
 4691 143d 52140000 		.4byte	0x1452
 4692 1441 08       		.uleb128 0x8
 4693 1442 01       		.uleb128 0x1
 4694 1443 50       		.byte	0x50
 4695 1444 01       		.uleb128 0x1
 4696 1445 44       		.byte	0x44
 4697 1446 08       		.uleb128 0x8
 4698 1447 01       		.uleb128 0x1
 4699 1448 51       		.byte	0x51
 4700 1449 02       		.uleb128 0x2
 4701 144a 08       		.byte	0x8
 4702 144b 46       		.byte	0x46
 4703 144c 08       		.uleb128 0x8
 4704 144d 01       		.uleb128 0x1
 4705 144e 52       		.byte	0x52
 4706 144f 01       		.uleb128 0x1
 4707 1450 30       		.byte	0x30
 4708 1451 00       		.byte	0
 4709 1452 07       		.uleb128 0x7
 4710 1453 14000000 		.4byte	.LVL311
 4711 1457 BC160000 		.4byte	0x16bc
 4712 145b 66140000 		.4byte	0x1466
 4713 145f 08       		.uleb128 0x8
 4714 1460 01       		.uleb128 0x1
 4715 1461 50       		.byte	0x50
 4716 1462 02       		.uleb128 0x2
 4717 1463 75       		.byte	0x75
 4718 1464 00       		.sleb128 0
 4719 1465 00       		.byte	0
 4720 1466 07       		.uleb128 0x7
 4721 1467 22000000 		.4byte	.LVL314
 4722 146b BC160000 		.4byte	0x16bc
ARM GAS  C:\Users\Blayke\AppData\Local\Temp\cc62WBhQ.s 			page 103


 4723 146f 7A140000 		.4byte	0x147a
 4724 1473 08       		.uleb128 0x8
 4725 1474 01       		.uleb128 0x1
 4726 1475 50       		.byte	0x50
 4727 1476 02       		.uleb128 0x2
 4728 1477 75       		.byte	0x75
 4729 1478 00       		.sleb128 0
 4730 1479 00       		.byte	0
 4731 147a 07       		.uleb128 0x7
 4732 147b 28000000 		.4byte	.LVL315
 4733 147f 59160000 		.4byte	0x1659
 4734 1483 8E140000 		.4byte	0x148e
 4735 1487 08       		.uleb128 0x8
 4736 1488 01       		.uleb128 0x1
 4737 1489 50       		.byte	0x50
 4738 148a 02       		.uleb128 0x2
 4739 148b 08       		.byte	0x8
 4740 148c 64       		.byte	0x64
 4741 148d 00       		.byte	0
 4742 148e 07       		.uleb128 0x7
 4743 148f 48000000 		.4byte	.LVL319
 4744 1493 B1160000 		.4byte	0x16b1
 4745 1497 AB140000 		.4byte	0x14ab
 4746 149b 08       		.uleb128 0x8
 4747 149c 01       		.uleb128 0x1
 4748 149d 50       		.byte	0x50
 4749 149e 01       		.uleb128 0x1
 4750 149f 33       		.byte	0x33
 4751 14a0 08       		.uleb128 0x8
 4752 14a1 01       		.uleb128 0x1
 4753 14a2 51       		.byte	0x51
 4754 14a3 01       		.uleb128 0x1
 4755 14a4 49       		.byte	0x49
 4756 14a5 08       		.uleb128 0x8
 4757 14a6 01       		.uleb128 0x1
 4758 14a7 52       		.byte	0x52
 4759 14a8 01       		.uleb128 0x1
 4760 14a9 30       		.byte	0x30
 4761 14aa 00       		.byte	0
 4762 14ab 0A       		.uleb128 0xa
 4763 14ac 54000000 		.4byte	.LVL320
 4764 14b0 B1160000 		.4byte	0x16b1
 4765 14b4 08       		.uleb128 0x8
 4766 14b5 01       		.uleb128 0x1
 4767 14b6 50       		.byte	0x50
 4768 14b7 02       		.uleb128 0x2
 4769 14b8 09       		.byte	0x9
 4770 14b9 FF       		.byte	0xff
 4771 14ba 08       		.uleb128 0x8
 4772 14bb 01       		.uleb128 0x1
 4773 14bc 51       		.byte	0x51
 4774 14bd 01       		.uleb128 0x1
 4775 14be 49       		.byte	0x49
 4776 14bf 08       		.uleb128 0x8
 4777 14c0 01       		.uleb128 0x1
 4778 14c1 52       		.byte	0x52
 4779 14c2 01       		.uleb128 0x1
ARM GAS  C:\Users\Blayke\AppData\Local\Temp\cc62WBhQ.s 			page 104


 4780 14c3 30       		.byte	0x30
 4781 14c4 00       		.byte	0
 4782 14c5 00       		.byte	0
 4783 14c6 19       		.uleb128 0x19
 4784 14c7 0A070000 		.4byte	.LASF73
 4785 14cb 04       		.byte	0x4
 4786 14cc 1207     		.2byte	0x712
 4787 14ce D2140000 		.4byte	0x14d2
 4788 14d2 1A       		.uleb128 0x1a
 4789 14d3 76000000 		.4byte	0x76
 4790 14d7 1B       		.uleb128 0x1b
 4791 14d8 B1020000 		.4byte	.LASF74
 4792 14dc 05       		.byte	0x5
 4793 14dd 22       		.byte	0x22
 4794 14de 68000000 		.4byte	0x68
 4795 14e2 05       		.uleb128 0x5
 4796 14e3 03       		.byte	0x3
 4797 14e4 00000000 		.4byte	internal_orientation
 4798 14e8 1C       		.uleb128 0x1c
 4799 14e9 68000000 		.4byte	0x68
 4800 14ed F8140000 		.4byte	0x14f8
 4801 14f1 1D       		.uleb128 0x1d
 4802 14f2 9D000000 		.4byte	0x9d
 4803 14f6 04       		.byte	0x4
 4804 14f7 00       		.byte	0
 4805 14f8 1B       		.uleb128 0x1b
 4806 14f9 A0030000 		.4byte	.LASF75
 4807 14fd 06       		.byte	0x6
 4808 14fe 1C       		.byte	0x1c
 4809 14ff E8140000 		.4byte	0x14e8
 4810 1503 05       		.uleb128 0x5
 4811 1504 03       		.byte	0x3
 4812 1505 00000000 		.4byte	puck_rack_scans
 4813 1509 1B       		.uleb128 0x1b
 4814 150a 78020000 		.4byte	.LASF76
 4815 150e 06       		.byte	0x6
 4816 150f 1D       		.byte	0x1d
 4817 1510 E8140000 		.4byte	0x14e8
 4818 1514 05       		.uleb128 0x5
 4819 1515 03       		.byte	0x3
 4820 1516 00000000 		.4byte	puck_rack_west_offsets
 4821 151a 1C       		.uleb128 0x1c
 4822 151b 81000000 		.4byte	0x81
 4823 151f 2A150000 		.4byte	0x152a
 4824 1523 1D       		.uleb128 0x1d
 4825 1524 9D000000 		.4byte	0x9d
 4826 1528 03       		.byte	0x3
 4827 1529 00       		.byte	0
 4828 152a 1B       		.uleb128 0x1b
 4829 152b 16040000 		.4byte	.LASF77
 4830 152f 06       		.byte	0x6
 4831 1530 1F       		.byte	0x1f
 4832 1531 1A150000 		.4byte	0x151a
 4833 1535 05       		.uleb128 0x5
 4834 1536 03       		.byte	0x3
 4835 1537 00000000 		.4byte	block_edge_location
 4836 153b 1B       		.uleb128 0x1b
ARM GAS  C:\Users\Blayke\AppData\Local\Temp\cc62WBhQ.s 			page 105


 4837 153c D0070000 		.4byte	.LASF78
 4838 1540 06       		.byte	0x6
 4839 1541 23       		.byte	0x23
 4840 1542 68000000 		.4byte	0x68
 4841 1546 05       		.uleb128 0x5
 4842 1547 03       		.byte	0x3
 4843 1548 00000000 		.4byte	initialisation
 4844 154c 1C       		.uleb128 0x1c
 4845 154d 8F000000 		.4byte	0x8f
 4846 1551 5C150000 		.4byte	0x155c
 4847 1555 1D       		.uleb128 0x1d
 4848 1556 9D000000 		.4byte	0x9d
 4849 155a 1F       		.byte	0x1f
 4850 155b 00       		.byte	0
 4851 155c 1B       		.uleb128 0x1b
 4852 155d C8060000 		.4byte	.LASF79
 4853 1561 06       		.byte	0x6
 4854 1562 21       		.byte	0x21
 4855 1563 4C150000 		.4byte	0x154c
 4856 1567 05       		.uleb128 0x5
 4857 1568 03       		.byte	0x3
 4858 1569 00000000 		.4byte	output
 4859 156d 1C       		.uleb128 0x1c
 4860 156e 68000000 		.4byte	0x68
 4861 1572 7D150000 		.4byte	0x157d
 4862 1576 1D       		.uleb128 0x1d
 4863 1577 9D000000 		.4byte	0x9d
 4864 157b 06       		.byte	0x6
 4865 157c 00       		.byte	0
 4866 157d 1E       		.uleb128 0x1e
 4867 157e 51010000 		.4byte	.LASF80
 4868 1582 07       		.byte	0x7
 4869 1583 C6       		.byte	0xc6
 4870 1584 6D150000 		.4byte	0x156d
 4871 1588 1B       		.uleb128 0x1b
 4872 1589 62010000 		.4byte	.LASF81
 4873 158d 06       		.byte	0x6
 4874 158e 25       		.byte	0x25
 4875 158f 68000000 		.4byte	0x68
 4876 1593 05       		.uleb128 0x5
 4877 1594 03       		.byte	0x3
 4878 1595 00000000 		.4byte	ultrasonic_flag
 4879 1599 1C       		.uleb128 0x1c
 4880 159a 68000000 		.4byte	0x68
 4881 159e A9150000 		.4byte	0x15a9
 4882 15a2 1D       		.uleb128 0x1d
 4883 15a3 9D000000 		.4byte	0x9d
 4884 15a7 02       		.byte	0x2
 4885 15a8 00       		.byte	0
 4886 15a9 1E       		.uleb128 0x1e
 4887 15aa E9030000 		.4byte	.LASF82
 4888 15ae 05       		.byte	0x5
 4889 15af 1F       		.byte	0x1f
 4890 15b0 99150000 		.4byte	0x1599
 4891 15b4 1E       		.uleb128 0x1e
 4892 15b5 95040000 		.4byte	.LASF83
 4893 15b9 05       		.byte	0x5
ARM GAS  C:\Users\Blayke\AppData\Local\Temp\cc62WBhQ.s 			page 106


 4894 15ba 20       		.byte	0x20
 4895 15bb 68000000 		.4byte	0x68
 4896 15bf 1E       		.uleb128 0x1e
 4897 15c0 81050000 		.4byte	.LASF84
 4898 15c4 05       		.byte	0x5
 4899 15c5 21       		.byte	0x21
 4900 15c6 68000000 		.4byte	0x68
 4901 15ca 1E       		.uleb128 0x1e
 4902 15cb D9020000 		.4byte	.LASF85
 4903 15cf 05       		.byte	0x5
 4904 15d0 23       		.byte	0x23
 4905 15d1 68000000 		.4byte	0x68
 4906 15d5 1F       		.uleb128 0x1f
 4907 15d6 4B020000 		.4byte	.LASF86
 4908 15da 4B020000 		.4byte	.LASF86
 4909 15de 08       		.byte	0x8
 4910 15df 0F       		.byte	0xf
 4911 15e0 1F       		.uleb128 0x1f
 4912 15e1 83000000 		.4byte	.LASF87
 4913 15e5 83000000 		.4byte	.LASF87
 4914 15e9 09       		.byte	0x9
 4915 15ea 1D       		.byte	0x1d
 4916 15eb 1F       		.uleb128 0x1f
 4917 15ec 47060000 		.4byte	.LASF88
 4918 15f0 47060000 		.4byte	.LASF88
 4919 15f4 0A       		.byte	0xa
 4920 15f5 2F       		.byte	0x2f
 4921 15f6 1F       		.uleb128 0x1f
 4922 15f7 E5010000 		.4byte	.LASF89
 4923 15fb E5010000 		.4byte	.LASF89
 4924 15ff 0B       		.byte	0xb
 4925 1600 2F       		.byte	0x2f
 4926 1601 1F       		.uleb128 0x1f
 4927 1602 FE070000 		.4byte	.LASF90
 4928 1606 FE070000 		.4byte	.LASF90
 4929 160a 0C       		.byte	0xc
 4930 160b DD       		.byte	0xdd
 4931 160c 1F       		.uleb128 0x1f
 4932 160d DF070000 		.4byte	.LASF91
 4933 1611 DF070000 		.4byte	.LASF91
 4934 1615 0C       		.byte	0xc
 4935 1616 C3       		.byte	0xc3
 4936 1617 1F       		.uleb128 0x1f
 4937 1618 5F030000 		.4byte	.LASF92
 4938 161c 5F030000 		.4byte	.LASF92
 4939 1620 0D       		.byte	0xd
 4940 1621 DD       		.byte	0xdd
 4941 1622 1F       		.uleb128 0x1f
 4942 1623 3C000000 		.4byte	.LASF93
 4943 1627 3C000000 		.4byte	.LASF93
 4944 162b 0D       		.byte	0xd
 4945 162c C3       		.byte	0xc3
 4946 162d 1F       		.uleb128 0x1f
 4947 162e 00000000 		.4byte	.LASF94
 4948 1632 00000000 		.4byte	.LASF94
 4949 1636 08       		.byte	0x8
 4950 1637 10       		.byte	0x10
ARM GAS  C:\Users\Blayke\AppData\Local\Temp\cc62WBhQ.s 			page 107


 4951 1638 1F       		.uleb128 0x1f
 4952 1639 24030000 		.4byte	.LASF95
 4953 163d 24030000 		.4byte	.LASF95
 4954 1641 0E       		.byte	0xe
 4955 1642 2F       		.byte	0x2f
 4956 1643 1F       		.uleb128 0x1f
 4957 1644 97000000 		.4byte	.LASF96
 4958 1648 97000000 		.4byte	.LASF96
 4959 164c 0F       		.byte	0xf
 4960 164d 4E       		.byte	0x4e
 4961 164e 1F       		.uleb128 0x1f
 4962 164f CF060000 		.4byte	.LASF97
 4963 1653 CF060000 		.4byte	.LASF97
 4964 1657 10       		.byte	0x10
 4965 1658 4E       		.byte	0x4e
 4966 1659 1F       		.uleb128 0x1f
 4967 165a A5070000 		.4byte	.LASF98
 4968 165e A5070000 		.4byte	.LASF98
 4969 1662 11       		.byte	0x11
 4970 1663 76       		.byte	0x76
 4971 1664 1F       		.uleb128 0x1f
 4972 1665 E1030000 		.4byte	.LASF99
 4973 1669 E1030000 		.4byte	.LASF99
 4974 166d 12       		.byte	0x12
 4975 166e E7       		.byte	0xe7
 4976 166f 1F       		.uleb128 0x1f
 4977 1670 1E060000 		.4byte	.LASF100
 4978 1674 1E060000 		.4byte	.LASF100
 4979 1678 13       		.byte	0x13
 4980 1679 8B       		.byte	0x8b
 4981 167a 1F       		.uleb128 0x1f
 4982 167b 8B010000 		.4byte	.LASF101
 4983 167f 8B010000 		.4byte	.LASF101
 4984 1683 10       		.byte	0x10
 4985 1684 4F       		.byte	0x4f
 4986 1685 1F       		.uleb128 0x1f
 4987 1686 E9020000 		.4byte	.LASF102
 4988 168a E9020000 		.4byte	.LASF102
 4989 168e 0F       		.byte	0xf
 4990 168f 4F       		.byte	0x4f
 4991 1690 1F       		.uleb128 0x1f
 4992 1691 88030000 		.4byte	.LASF103
 4993 1695 88030000 		.4byte	.LASF103
 4994 1699 0C       		.byte	0xc
 4995 169a DC       		.byte	0xdc
 4996 169b 1F       		.uleb128 0x1f
 4997 169c 8F020000 		.4byte	.LASF104
 4998 16a0 8F020000 		.4byte	.LASF104
 4999 16a4 0D       		.byte	0xd
 5000 16a5 DC       		.byte	0xdc
 5001 16a6 1F       		.uleb128 0x1f
 5002 16a7 CB050000 		.4byte	.LASF105
 5003 16ab CB050000 		.4byte	.LASF105
 5004 16af 14       		.byte	0x14
 5005 16b0 0E       		.byte	0xe
 5006 16b1 1F       		.uleb128 0x1f
 5007 16b2 C5070000 		.4byte	.LASF106
ARM GAS  C:\Users\Blayke\AppData\Local\Temp\cc62WBhQ.s 			page 108


 5008 16b6 C5070000 		.4byte	.LASF106
 5009 16ba 14       		.byte	0x14
 5010 16bb 10       		.byte	0x10
 5011 16bc 1F       		.uleb128 0x1f
 5012 16bd D9040000 		.4byte	.LASF107
 5013 16c1 D9040000 		.4byte	.LASF107
 5014 16c5 06       		.byte	0x6
 5015 16c6 16       		.byte	0x16
 5016 16c7 1F       		.uleb128 0x1f
 5017 16c8 CC030000 		.4byte	.LASF108
 5018 16cc CC030000 		.4byte	.LASF108
 5019 16d0 14       		.byte	0x14
 5020 16d1 0F       		.byte	0xf
 5021 16d2 1F       		.uleb128 0x1f
 5022 16d3 6F040000 		.4byte	.LASF109
 5023 16d7 6F040000 		.4byte	.LASF109
 5024 16db 15       		.byte	0x15
 5025 16dc 5A       		.byte	0x5a
 5026 16dd 1F       		.uleb128 0x1f
 5027 16de D7050000 		.4byte	.LASF110
 5028 16e2 D7050000 		.4byte	.LASF110
 5029 16e6 15       		.byte	0x15
 5030 16e7 69       		.byte	0x69
 5031 16e8 1F       		.uleb128 0x1f
 5032 16e9 ED060000 		.4byte	.LASF111
 5033 16ed ED060000 		.4byte	.LASF111
 5034 16f1 16       		.byte	0x16
 5035 16f2 2F       		.byte	0x2f
 5036 16f3 1F       		.uleb128 0x1f
 5037 16f4 B0010000 		.4byte	.LASF112
 5038 16f8 B0010000 		.4byte	.LASF112
 5039 16fc 15       		.byte	0x15
 5040 16fd 5B       		.byte	0x5b
 5041 16fe 00       		.byte	0
 5042              		.section	.debug_abbrev,"",%progbits
 5043              	.Ldebug_abbrev0:
 5044 0000 01       		.uleb128 0x1
 5045 0001 11       		.uleb128 0x11
 5046 0002 01       		.byte	0x1
 5047 0003 25       		.uleb128 0x25
 5048 0004 0E       		.uleb128 0xe
 5049 0005 13       		.uleb128 0x13
 5050 0006 0B       		.uleb128 0xb
 5051 0007 03       		.uleb128 0x3
 5052 0008 0E       		.uleb128 0xe
 5053 0009 1B       		.uleb128 0x1b
 5054 000a 0E       		.uleb128 0xe
 5055 000b 55       		.uleb128 0x55
 5056 000c 17       		.uleb128 0x17
 5057 000d 11       		.uleb128 0x11
 5058 000e 01       		.uleb128 0x1
 5059 000f 10       		.uleb128 0x10
 5060 0010 17       		.uleb128 0x17
 5061 0011 00       		.byte	0
 5062 0012 00       		.byte	0
 5063 0013 02       		.uleb128 0x2
 5064 0014 24       		.uleb128 0x24
ARM GAS  C:\Users\Blayke\AppData\Local\Temp\cc62WBhQ.s 			page 109


 5065 0015 00       		.byte	0
 5066 0016 0B       		.uleb128 0xb
 5067 0017 0B       		.uleb128 0xb
 5068 0018 3E       		.uleb128 0x3e
 5069 0019 0B       		.uleb128 0xb
 5070 001a 03       		.uleb128 0x3
 5071 001b 0E       		.uleb128 0xe
 5072 001c 00       		.byte	0
 5073 001d 00       		.byte	0
 5074 001e 03       		.uleb128 0x3
 5075 001f 16       		.uleb128 0x16
 5076 0020 00       		.byte	0
 5077 0021 03       		.uleb128 0x3
 5078 0022 0E       		.uleb128 0xe
 5079 0023 3A       		.uleb128 0x3a
 5080 0024 0B       		.uleb128 0xb
 5081 0025 3B       		.uleb128 0x3b
 5082 0026 0B       		.uleb128 0xb
 5083 0027 49       		.uleb128 0x49
 5084 0028 13       		.uleb128 0x13
 5085 0029 00       		.byte	0
 5086 002a 00       		.byte	0
 5087 002b 04       		.uleb128 0x4
 5088 002c 24       		.uleb128 0x24
 5089 002d 00       		.byte	0
 5090 002e 0B       		.uleb128 0xb
 5091 002f 0B       		.uleb128 0xb
 5092 0030 3E       		.uleb128 0x3e
 5093 0031 0B       		.uleb128 0xb
 5094 0032 03       		.uleb128 0x3
 5095 0033 08       		.uleb128 0x8
 5096 0034 00       		.byte	0
 5097 0035 00       		.byte	0
 5098 0036 05       		.uleb128 0x5
 5099 0037 2E       		.uleb128 0x2e
 5100 0038 01       		.byte	0x1
 5101 0039 3F       		.uleb128 0x3f
 5102 003a 19       		.uleb128 0x19
 5103 003b 03       		.uleb128 0x3
 5104 003c 0E       		.uleb128 0xe
 5105 003d 3A       		.uleb128 0x3a
 5106 003e 0B       		.uleb128 0xb
 5107 003f 3B       		.uleb128 0x3b
 5108 0040 0B       		.uleb128 0xb
 5109 0041 27       		.uleb128 0x27
 5110 0042 19       		.uleb128 0x19
 5111 0043 11       		.uleb128 0x11
 5112 0044 01       		.uleb128 0x1
 5113 0045 12       		.uleb128 0x12
 5114 0046 06       		.uleb128 0x6
 5115 0047 40       		.uleb128 0x40
 5116 0048 18       		.uleb128 0x18
 5117 0049 9742     		.uleb128 0x2117
 5118 004b 19       		.uleb128 0x19
 5119 004c 01       		.uleb128 0x1
 5120 004d 13       		.uleb128 0x13
 5121 004e 00       		.byte	0
ARM GAS  C:\Users\Blayke\AppData\Local\Temp\cc62WBhQ.s 			page 110


 5122 004f 00       		.byte	0
 5123 0050 06       		.uleb128 0x6
 5124 0051 34       		.uleb128 0x34
 5125 0052 00       		.byte	0
 5126 0053 03       		.uleb128 0x3
 5127 0054 0E       		.uleb128 0xe
 5128 0055 3A       		.uleb128 0x3a
 5129 0056 0B       		.uleb128 0xb
 5130 0057 3B       		.uleb128 0x3b
 5131 0058 0B       		.uleb128 0xb
 5132 0059 49       		.uleb128 0x49
 5133 005a 13       		.uleb128 0x13
 5134 005b 02       		.uleb128 0x2
 5135 005c 17       		.uleb128 0x17
 5136 005d 00       		.byte	0
 5137 005e 00       		.byte	0
 5138 005f 07       		.uleb128 0x7
 5139 0060 898201   		.uleb128 0x4109
 5140 0063 01       		.byte	0x1
 5141 0064 11       		.uleb128 0x11
 5142 0065 01       		.uleb128 0x1
 5143 0066 31       		.uleb128 0x31
 5144 0067 13       		.uleb128 0x13
 5145 0068 01       		.uleb128 0x1
 5146 0069 13       		.uleb128 0x13
 5147 006a 00       		.byte	0
 5148 006b 00       		.byte	0
 5149 006c 08       		.uleb128 0x8
 5150 006d 8A8201   		.uleb128 0x410a
 5151 0070 00       		.byte	0
 5152 0071 02       		.uleb128 0x2
 5153 0072 18       		.uleb128 0x18
 5154 0073 9142     		.uleb128 0x2111
 5155 0075 18       		.uleb128 0x18
 5156 0076 00       		.byte	0
 5157 0077 00       		.byte	0
 5158 0078 09       		.uleb128 0x9
 5159 0079 898201   		.uleb128 0x4109
 5160 007c 00       		.byte	0
 5161 007d 11       		.uleb128 0x11
 5162 007e 01       		.uleb128 0x1
 5163 007f 31       		.uleb128 0x31
 5164 0080 13       		.uleb128 0x13
 5165 0081 00       		.byte	0
 5166 0082 00       		.byte	0
 5167 0083 0A       		.uleb128 0xa
 5168 0084 898201   		.uleb128 0x4109
 5169 0087 01       		.byte	0x1
 5170 0088 11       		.uleb128 0x11
 5171 0089 01       		.uleb128 0x1
 5172 008a 31       		.uleb128 0x31
 5173 008b 13       		.uleb128 0x13
 5174 008c 00       		.byte	0
 5175 008d 00       		.byte	0
 5176 008e 0B       		.uleb128 0xb
 5177 008f 05       		.uleb128 0x5
 5178 0090 00       		.byte	0
ARM GAS  C:\Users\Blayke\AppData\Local\Temp\cc62WBhQ.s 			page 111


 5179 0091 03       		.uleb128 0x3
 5180 0092 0E       		.uleb128 0xe
 5181 0093 3A       		.uleb128 0x3a
 5182 0094 0B       		.uleb128 0xb
 5183 0095 3B       		.uleb128 0x3b
 5184 0096 0B       		.uleb128 0xb
 5185 0097 49       		.uleb128 0x49
 5186 0098 13       		.uleb128 0x13
 5187 0099 02       		.uleb128 0x2
 5188 009a 17       		.uleb128 0x17
 5189 009b 00       		.byte	0
 5190 009c 00       		.byte	0
 5191 009d 0C       		.uleb128 0xc
 5192 009e 34       		.uleb128 0x34
 5193 009f 00       		.byte	0
 5194 00a0 03       		.uleb128 0x3
 5195 00a1 0E       		.uleb128 0xe
 5196 00a2 3A       		.uleb128 0x3a
 5197 00a3 0B       		.uleb128 0xb
 5198 00a4 3B       		.uleb128 0x3b
 5199 00a5 0B       		.uleb128 0xb
 5200 00a6 49       		.uleb128 0x49
 5201 00a7 13       		.uleb128 0x13
 5202 00a8 1C       		.uleb128 0x1c
 5203 00a9 0B       		.uleb128 0xb
 5204 00aa 00       		.byte	0
 5205 00ab 00       		.byte	0
 5206 00ac 0D       		.uleb128 0xd
 5207 00ad 2E       		.uleb128 0x2e
 5208 00ae 01       		.byte	0x1
 5209 00af 3F       		.uleb128 0x3f
 5210 00b0 19       		.uleb128 0x19
 5211 00b1 03       		.uleb128 0x3
 5212 00b2 0E       		.uleb128 0xe
 5213 00b3 3A       		.uleb128 0x3a
 5214 00b4 0B       		.uleb128 0xb
 5215 00b5 3B       		.uleb128 0x3b
 5216 00b6 05       		.uleb128 0x5
 5217 00b7 27       		.uleb128 0x27
 5218 00b8 19       		.uleb128 0x19
 5219 00b9 11       		.uleb128 0x11
 5220 00ba 01       		.uleb128 0x1
 5221 00bb 12       		.uleb128 0x12
 5222 00bc 06       		.uleb128 0x6
 5223 00bd 40       		.uleb128 0x40
 5224 00be 18       		.uleb128 0x18
 5225 00bf 9742     		.uleb128 0x2117
 5226 00c1 19       		.uleb128 0x19
 5227 00c2 01       		.uleb128 0x1
 5228 00c3 13       		.uleb128 0x13
 5229 00c4 00       		.byte	0
 5230 00c5 00       		.byte	0
 5231 00c6 0E       		.uleb128 0xe
 5232 00c7 05       		.uleb128 0x5
 5233 00c8 00       		.byte	0
 5234 00c9 03       		.uleb128 0x3
 5235 00ca 0E       		.uleb128 0xe
ARM GAS  C:\Users\Blayke\AppData\Local\Temp\cc62WBhQ.s 			page 112


 5236 00cb 3A       		.uleb128 0x3a
 5237 00cc 0B       		.uleb128 0xb
 5238 00cd 3B       		.uleb128 0x3b
 5239 00ce 05       		.uleb128 0x5
 5240 00cf 49       		.uleb128 0x49
 5241 00d0 13       		.uleb128 0x13
 5242 00d1 02       		.uleb128 0x2
 5243 00d2 17       		.uleb128 0x17
 5244 00d3 00       		.byte	0
 5245 00d4 00       		.byte	0
 5246 00d5 0F       		.uleb128 0xf
 5247 00d6 34       		.uleb128 0x34
 5248 00d7 00       		.byte	0
 5249 00d8 03       		.uleb128 0x3
 5250 00d9 0E       		.uleb128 0xe
 5251 00da 3A       		.uleb128 0x3a
 5252 00db 0B       		.uleb128 0xb
 5253 00dc 3B       		.uleb128 0x3b
 5254 00dd 05       		.uleb128 0x5
 5255 00de 49       		.uleb128 0x49
 5256 00df 13       		.uleb128 0x13
 5257 00e0 02       		.uleb128 0x2
 5258 00e1 17       		.uleb128 0x17
 5259 00e2 00       		.byte	0
 5260 00e3 00       		.byte	0
 5261 00e4 10       		.uleb128 0x10
 5262 00e5 34       		.uleb128 0x34
 5263 00e6 00       		.byte	0
 5264 00e7 03       		.uleb128 0x3
 5265 00e8 0E       		.uleb128 0xe
 5266 00e9 3A       		.uleb128 0x3a
 5267 00ea 0B       		.uleb128 0xb
 5268 00eb 3B       		.uleb128 0x3b
 5269 00ec 05       		.uleb128 0x5
 5270 00ed 49       		.uleb128 0x49
 5271 00ee 13       		.uleb128 0x13
 5272 00ef 00       		.byte	0
 5273 00f0 00       		.byte	0
 5274 00f1 11       		.uleb128 0x11
 5275 00f2 34       		.uleb128 0x34
 5276 00f3 00       		.byte	0
 5277 00f4 03       		.uleb128 0x3
 5278 00f5 0E       		.uleb128 0xe
 5279 00f6 3A       		.uleb128 0x3a
 5280 00f7 0B       		.uleb128 0xb
 5281 00f8 3B       		.uleb128 0x3b
 5282 00f9 05       		.uleb128 0x5
 5283 00fa 49       		.uleb128 0x49
 5284 00fb 13       		.uleb128 0x13
 5285 00fc 1C       		.uleb128 0x1c
 5286 00fd 0D       		.uleb128 0xd
 5287 00fe 00       		.byte	0
 5288 00ff 00       		.byte	0
 5289 0100 12       		.uleb128 0x12
 5290 0101 2E       		.uleb128 0x2e
 5291 0102 01       		.byte	0x1
 5292 0103 3F       		.uleb128 0x3f
ARM GAS  C:\Users\Blayke\AppData\Local\Temp\cc62WBhQ.s 			page 113


 5293 0104 19       		.uleb128 0x19
 5294 0105 03       		.uleb128 0x3
 5295 0106 0E       		.uleb128 0xe
 5296 0107 3A       		.uleb128 0x3a
 5297 0108 0B       		.uleb128 0xb
 5298 0109 3B       		.uleb128 0x3b
 5299 010a 05       		.uleb128 0x5
 5300 010b 27       		.uleb128 0x27
 5301 010c 19       		.uleb128 0x19
 5302 010d 49       		.uleb128 0x49
 5303 010e 13       		.uleb128 0x13
 5304 010f 11       		.uleb128 0x11
 5305 0110 01       		.uleb128 0x1
 5306 0111 12       		.uleb128 0x12
 5307 0112 06       		.uleb128 0x6
 5308 0113 40       		.uleb128 0x40
 5309 0114 18       		.uleb128 0x18
 5310 0115 9742     		.uleb128 0x2117
 5311 0117 19       		.uleb128 0x19
 5312 0118 01       		.uleb128 0x1
 5313 0119 13       		.uleb128 0x13
 5314 011a 00       		.byte	0
 5315 011b 00       		.byte	0
 5316 011c 13       		.uleb128 0x13
 5317 011d 2E       		.uleb128 0x2e
 5318 011e 01       		.byte	0x1
 5319 011f 3F       		.uleb128 0x3f
 5320 0120 19       		.uleb128 0x19
 5321 0121 03       		.uleb128 0x3
 5322 0122 0E       		.uleb128 0xe
 5323 0123 3A       		.uleb128 0x3a
 5324 0124 0B       		.uleb128 0xb
 5325 0125 3B       		.uleb128 0x3b
 5326 0126 0B       		.uleb128 0xb
 5327 0127 27       		.uleb128 0x27
 5328 0128 19       		.uleb128 0x19
 5329 0129 11       		.uleb128 0x11
 5330 012a 01       		.uleb128 0x1
 5331 012b 12       		.uleb128 0x12
 5332 012c 06       		.uleb128 0x6
 5333 012d 40       		.uleb128 0x40
 5334 012e 18       		.uleb128 0x18
 5335 012f 9642     		.uleb128 0x2116
 5336 0131 19       		.uleb128 0x19
 5337 0132 01       		.uleb128 0x1
 5338 0133 13       		.uleb128 0x13
 5339 0134 00       		.byte	0
 5340 0135 00       		.byte	0
 5341 0136 14       		.uleb128 0x14
 5342 0137 0B       		.uleb128 0xb
 5343 0138 01       		.byte	0x1
 5344 0139 11       		.uleb128 0x11
 5345 013a 01       		.uleb128 0x1
 5346 013b 12       		.uleb128 0x12
 5347 013c 06       		.uleb128 0x6
 5348 013d 01       		.uleb128 0x1
 5349 013e 13       		.uleb128 0x13
ARM GAS  C:\Users\Blayke\AppData\Local\Temp\cc62WBhQ.s 			page 114


 5350 013f 00       		.byte	0
 5351 0140 00       		.byte	0
 5352 0141 15       		.uleb128 0x15
 5353 0142 34       		.uleb128 0x34
 5354 0143 00       		.byte	0
 5355 0144 03       		.uleb128 0x3
 5356 0145 0E       		.uleb128 0xe
 5357 0146 3A       		.uleb128 0x3a
 5358 0147 0B       		.uleb128 0xb
 5359 0148 3B       		.uleb128 0x3b
 5360 0149 05       		.uleb128 0x5
 5361 014a 49       		.uleb128 0x49
 5362 014b 13       		.uleb128 0x13
 5363 014c 1C       		.uleb128 0x1c
 5364 014d 0B       		.uleb128 0xb
 5365 014e 00       		.byte	0
 5366 014f 00       		.byte	0
 5367 0150 16       		.uleb128 0x16
 5368 0151 34       		.uleb128 0x34
 5369 0152 00       		.byte	0
 5370 0153 03       		.uleb128 0x3
 5371 0154 0E       		.uleb128 0xe
 5372 0155 3A       		.uleb128 0x3a
 5373 0156 0B       		.uleb128 0xb
 5374 0157 3B       		.uleb128 0x3b
 5375 0158 05       		.uleb128 0x5
 5376 0159 49       		.uleb128 0x49
 5377 015a 13       		.uleb128 0x13
 5378 015b 1C       		.uleb128 0x1c
 5379 015c 05       		.uleb128 0x5
 5380 015d 00       		.byte	0
 5381 015e 00       		.byte	0
 5382 015f 17       		.uleb128 0x17
 5383 0160 2E       		.uleb128 0x2e
 5384 0161 01       		.byte	0x1
 5385 0162 3F       		.uleb128 0x3f
 5386 0163 19       		.uleb128 0x19
 5387 0164 03       		.uleb128 0x3
 5388 0165 0E       		.uleb128 0xe
 5389 0166 3A       		.uleb128 0x3a
 5390 0167 0B       		.uleb128 0xb
 5391 0168 3B       		.uleb128 0x3b
 5392 0169 05       		.uleb128 0x5
 5393 016a 27       		.uleb128 0x27
 5394 016b 19       		.uleb128 0x19
 5395 016c 8701     		.uleb128 0x87
 5396 016e 19       		.uleb128 0x19
 5397 016f 11       		.uleb128 0x11
 5398 0170 01       		.uleb128 0x1
 5399 0171 12       		.uleb128 0x12
 5400 0172 06       		.uleb128 0x6
 5401 0173 40       		.uleb128 0x40
 5402 0174 18       		.uleb128 0x18
 5403 0175 9742     		.uleb128 0x2117
 5404 0177 19       		.uleb128 0x19
 5405 0178 01       		.uleb128 0x1
 5406 0179 13       		.uleb128 0x13
ARM GAS  C:\Users\Blayke\AppData\Local\Temp\cc62WBhQ.s 			page 115


 5407 017a 00       		.byte	0
 5408 017b 00       		.byte	0
 5409 017c 18       		.uleb128 0x18
 5410 017d 2E       		.uleb128 0x2e
 5411 017e 00       		.byte	0
 5412 017f 3F       		.uleb128 0x3f
 5413 0180 19       		.uleb128 0x19
 5414 0181 03       		.uleb128 0x3
 5415 0182 0E       		.uleb128 0xe
 5416 0183 3A       		.uleb128 0x3a
 5417 0184 0B       		.uleb128 0xb
 5418 0185 3B       		.uleb128 0x3b
 5419 0186 05       		.uleb128 0x5
 5420 0187 27       		.uleb128 0x27
 5421 0188 19       		.uleb128 0x19
 5422 0189 11       		.uleb128 0x11
 5423 018a 01       		.uleb128 0x1
 5424 018b 12       		.uleb128 0x12
 5425 018c 06       		.uleb128 0x6
 5426 018d 40       		.uleb128 0x40
 5427 018e 18       		.uleb128 0x18
 5428 018f 9742     		.uleb128 0x2117
 5429 0191 19       		.uleb128 0x19
 5430 0192 00       		.byte	0
 5431 0193 00       		.byte	0
 5432 0194 19       		.uleb128 0x19
 5433 0195 34       		.uleb128 0x34
 5434 0196 00       		.byte	0
 5435 0197 03       		.uleb128 0x3
 5436 0198 0E       		.uleb128 0xe
 5437 0199 3A       		.uleb128 0x3a
 5438 019a 0B       		.uleb128 0xb
 5439 019b 3B       		.uleb128 0x3b
 5440 019c 05       		.uleb128 0x5
 5441 019d 49       		.uleb128 0x49
 5442 019e 13       		.uleb128 0x13
 5443 019f 3F       		.uleb128 0x3f
 5444 01a0 19       		.uleb128 0x19
 5445 01a1 3C       		.uleb128 0x3c
 5446 01a2 19       		.uleb128 0x19
 5447 01a3 00       		.byte	0
 5448 01a4 00       		.byte	0
 5449 01a5 1A       		.uleb128 0x1a
 5450 01a6 35       		.uleb128 0x35
 5451 01a7 00       		.byte	0
 5452 01a8 49       		.uleb128 0x49
 5453 01a9 13       		.uleb128 0x13
 5454 01aa 00       		.byte	0
 5455 01ab 00       		.byte	0
 5456 01ac 1B       		.uleb128 0x1b
 5457 01ad 34       		.uleb128 0x34
 5458 01ae 00       		.byte	0
 5459 01af 03       		.uleb128 0x3
 5460 01b0 0E       		.uleb128 0xe
 5461 01b1 3A       		.uleb128 0x3a
 5462 01b2 0B       		.uleb128 0xb
 5463 01b3 3B       		.uleb128 0x3b
ARM GAS  C:\Users\Blayke\AppData\Local\Temp\cc62WBhQ.s 			page 116


 5464 01b4 0B       		.uleb128 0xb
 5465 01b5 49       		.uleb128 0x49
 5466 01b6 13       		.uleb128 0x13
 5467 01b7 3F       		.uleb128 0x3f
 5468 01b8 19       		.uleb128 0x19
 5469 01b9 02       		.uleb128 0x2
 5470 01ba 18       		.uleb128 0x18
 5471 01bb 00       		.byte	0
 5472 01bc 00       		.byte	0
 5473 01bd 1C       		.uleb128 0x1c
 5474 01be 01       		.uleb128 0x1
 5475 01bf 01       		.byte	0x1
 5476 01c0 49       		.uleb128 0x49
 5477 01c1 13       		.uleb128 0x13
 5478 01c2 01       		.uleb128 0x1
 5479 01c3 13       		.uleb128 0x13
 5480 01c4 00       		.byte	0
 5481 01c5 00       		.byte	0
 5482 01c6 1D       		.uleb128 0x1d
 5483 01c7 21       		.uleb128 0x21
 5484 01c8 00       		.byte	0
 5485 01c9 49       		.uleb128 0x49
 5486 01ca 13       		.uleb128 0x13
 5487 01cb 2F       		.uleb128 0x2f
 5488 01cc 0B       		.uleb128 0xb
 5489 01cd 00       		.byte	0
 5490 01ce 00       		.byte	0
 5491 01cf 1E       		.uleb128 0x1e
 5492 01d0 34       		.uleb128 0x34
 5493 01d1 00       		.byte	0
 5494 01d2 03       		.uleb128 0x3
 5495 01d3 0E       		.uleb128 0xe
 5496 01d4 3A       		.uleb128 0x3a
 5497 01d5 0B       		.uleb128 0xb
 5498 01d6 3B       		.uleb128 0x3b
 5499 01d7 0B       		.uleb128 0xb
 5500 01d8 49       		.uleb128 0x49
 5501 01d9 13       		.uleb128 0x13
 5502 01da 3F       		.uleb128 0x3f
 5503 01db 19       		.uleb128 0x19
 5504 01dc 3C       		.uleb128 0x3c
 5505 01dd 19       		.uleb128 0x19
 5506 01de 00       		.byte	0
 5507 01df 00       		.byte	0
 5508 01e0 1F       		.uleb128 0x1f
 5509 01e1 2E       		.uleb128 0x2e
 5510 01e2 00       		.byte	0
 5511 01e3 3F       		.uleb128 0x3f
 5512 01e4 19       		.uleb128 0x19
 5513 01e5 3C       		.uleb128 0x3c
 5514 01e6 19       		.uleb128 0x19
 5515 01e7 6E       		.uleb128 0x6e
 5516 01e8 0E       		.uleb128 0xe
 5517 01e9 03       		.uleb128 0x3
 5518 01ea 0E       		.uleb128 0xe
 5519 01eb 3A       		.uleb128 0x3a
 5520 01ec 0B       		.uleb128 0xb
ARM GAS  C:\Users\Blayke\AppData\Local\Temp\cc62WBhQ.s 			page 117


 5521 01ed 3B       		.uleb128 0x3b
 5522 01ee 0B       		.uleb128 0xb
 5523 01ef 00       		.byte	0
 5524 01f0 00       		.byte	0
 5525 01f1 00       		.byte	0
 5526              		.section	.debug_loc,"",%progbits
 5527              	.Ldebug_loc0:
 5528              	.LLST0:
 5529 0000 02000000 		.4byte	.LVL0
 5530 0004 14000000 		.4byte	.LVL2
 5531 0008 0200     		.2byte	0x2
 5532 000a 30       		.byte	0x30
 5533 000b 9F       		.byte	0x9f
 5534 000c 14000000 		.4byte	.LVL2
 5535 0010 40000000 		.4byte	.LVL9
 5536 0014 0100     		.2byte	0x1
 5537 0016 55       		.byte	0x55
 5538 0017 00000000 		.4byte	0
 5539 001b 00000000 		.4byte	0
 5540              	.LLST1:
 5541 001f 22000000 		.4byte	.LVL5
 5542 0023 26000000 		.4byte	.LVL6
 5543 0027 0100     		.2byte	0x1
 5544 0029 50       		.byte	0x50
 5545 002a 26000000 		.4byte	.LVL6
 5546 002e 3A000000 		.4byte	.LVL8
 5547 0032 0100     		.2byte	0x1
 5548 0034 54       		.byte	0x54
 5549 0035 00000000 		.4byte	0
 5550 0039 00000000 		.4byte	0
 5551              	.LLST2:
 5552 003d 00000000 		.4byte	.LVL10
 5553 0041 08000000 		.4byte	.LVL12
 5554 0045 0100     		.2byte	0x1
 5555 0047 50       		.byte	0x50
 5556 0048 08000000 		.4byte	.LVL12
 5557 004c 3E000000 		.4byte	.LVL21
 5558 0050 0100     		.2byte	0x1
 5559 0052 54       		.byte	0x54
 5560 0053 3E000000 		.4byte	.LVL21
 5561 0057 D0000000 		.4byte	.LFE66
 5562 005b 0400     		.2byte	0x4
 5563 005d F3       		.byte	0xf3
 5564 005e 01       		.uleb128 0x1
 5565 005f 50       		.byte	0x50
 5566 0060 9F       		.byte	0x9f
 5567 0061 00000000 		.4byte	0
 5568 0065 00000000 		.4byte	0
 5569              	.LLST3:
 5570 0069 06000000 		.4byte	.LVL11
 5571 006d 3E000000 		.4byte	.LVL21
 5572 0071 0200     		.2byte	0x2
 5573 0073 30       		.byte	0x30
 5574 0074 9F       		.byte	0x9f
 5575 0075 3E000000 		.4byte	.LVL21
 5576 0079 50000000 		.4byte	.LVL27
 5577 007d 0100     		.2byte	0x1
ARM GAS  C:\Users\Blayke\AppData\Local\Temp\cc62WBhQ.s 			page 118


 5578 007f 56       		.byte	0x56
 5579 0080 50000000 		.4byte	.LVL27
 5580 0084 52000000 		.4byte	.LVL28
 5581 0088 0100     		.2byte	0x1
 5582 008a 50       		.byte	0x50
 5583 008b 52000000 		.4byte	.LVL28
 5584 008f C2000000 		.4byte	.LVL43
 5585 0093 0100     		.2byte	0x1
 5586 0095 56       		.byte	0x56
 5587 0096 00000000 		.4byte	0
 5588 009a 00000000 		.4byte	0
 5589              	.LLST4:
 5590 009e 44000000 		.4byte	.LVL23
 5591 00a2 47000000 		.4byte	.LVL24-1
 5592 00a6 0100     		.2byte	0x1
 5593 00a8 50       		.byte	0x50
 5594 00a9 47000000 		.4byte	.LVL24-1
 5595 00ad 9C000000 		.4byte	.LVL37
 5596 00b1 0100     		.2byte	0x1
 5597 00b3 54       		.byte	0x54
 5598 00b4 00000000 		.4byte	0
 5599 00b8 00000000 		.4byte	0
 5600              	.LLST5:
 5601 00bc 4A000000 		.4byte	.LVL25
 5602 00c0 4D000000 		.4byte	.LVL26-1
 5603 00c4 0100     		.2byte	0x1
 5604 00c6 50       		.byte	0x50
 5605 00c7 4D000000 		.4byte	.LVL26-1
 5606 00cb 9C000000 		.4byte	.LVL37
 5607 00cf 0100     		.2byte	0x1
 5608 00d1 55       		.byte	0x55
 5609 00d2 00000000 		.4byte	0
 5610 00d6 00000000 		.4byte	0
 5611              	.LLST6:
 5612 00da 06000000 		.4byte	.LVL11
 5613 00de 3E000000 		.4byte	.LVL21
 5614 00e2 0300     		.2byte	0x3
 5615 00e4 08       		.byte	0x8
 5616 00e5 46       		.byte	0x46
 5617 00e6 9F       		.byte	0x9f
 5618 00e7 3E000000 		.4byte	.LVL21
 5619 00eb C2000000 		.4byte	.LVL43
 5620 00ef 0100     		.2byte	0x1
 5621 00f1 59       		.byte	0x59
 5622 00f2 00000000 		.4byte	0
 5623 00f6 00000000 		.4byte	0
 5624              	.LLST7:
 5625 00fa 06000000 		.4byte	.LVL11
 5626 00fe 3E000000 		.4byte	.LVL21
 5627 0102 0300     		.2byte	0x3
 5628 0104 08       		.byte	0x8
 5629 0105 46       		.byte	0x46
 5630 0106 9F       		.byte	0x9f
 5631 0107 3E000000 		.4byte	.LVL21
 5632 010b 80000000 		.4byte	.LVL32
 5633 010f 0100     		.2byte	0x1
 5634 0111 58       		.byte	0x58
ARM GAS  C:\Users\Blayke\AppData\Local\Temp\cc62WBhQ.s 			page 119


 5635 0112 84000000 		.4byte	.LVL33
 5636 0116 8C000000 		.4byte	.LVL34
 5637 011a 0100     		.2byte	0x1
 5638 011c 58       		.byte	0x58
 5639 011d 90000000 		.4byte	.LVL35
 5640 0121 C2000000 		.4byte	.LVL43
 5641 0125 0100     		.2byte	0x1
 5642 0127 58       		.byte	0x58
 5643 0128 00000000 		.4byte	0
 5644 012c 00000000 		.4byte	0
 5645              	.LLST8:
 5646 0130 06000000 		.4byte	.LVL44
 5647 0134 0A000000 		.4byte	.LVL45
 5648 0138 0100     		.2byte	0x1
 5649 013a 50       		.byte	0x50
 5650 013b 00000000 		.4byte	0
 5651 013f 00000000 		.4byte	0
 5652              	.LLST9:
 5653 0143 00000000 		.4byte	.LVL47
 5654 0147 08000000 		.4byte	.LVL48
 5655 014b 0100     		.2byte	0x1
 5656 014d 50       		.byte	0x50
 5657 014e 08000000 		.4byte	.LVL48
 5658 0152 32000000 		.4byte	.LVL54
 5659 0156 0100     		.2byte	0x1
 5660 0158 54       		.byte	0x54
 5661 0159 32000000 		.4byte	.LVL54
 5662 015d 3C000000 		.4byte	.LFE68
 5663 0161 0500     		.2byte	0x5
 5664 0163 03       		.byte	0x3
 5665 0164 00000000 		.4byte	internal_orientation
 5666 0168 00000000 		.4byte	0
 5667 016c 00000000 		.4byte	0
 5668              	.LLST10:
 5669 0170 00000000 		.4byte	.LVL47
 5670 0174 2B000000 		.4byte	.LVL53-1
 5671 0178 0100     		.2byte	0x1
 5672 017a 51       		.byte	0x51
 5673 017b 2B000000 		.4byte	.LVL53-1
 5674 017f 3C000000 		.4byte	.LFE68
 5675 0183 0400     		.2byte	0x4
 5676 0185 F3       		.byte	0xf3
 5677 0186 01       		.uleb128 0x1
 5678 0187 51       		.byte	0x51
 5679 0188 9F       		.byte	0x9f
 5680 0189 00000000 		.4byte	0
 5681 018d 00000000 		.4byte	0
 5682              	.LLST11:
 5683 0191 10000000 		.4byte	.LVL50
 5684 0195 22000000 		.4byte	.LVL51
 5685 0199 0100     		.2byte	0x1
 5686 019b 50       		.byte	0x50
 5687 019c 22000000 		.4byte	.LVL51
 5688 01a0 26000000 		.4byte	.LVL52
 5689 01a4 0800     		.2byte	0x8
 5690 01a6 73       		.byte	0x73
 5691 01a7 00       		.sleb128 0
ARM GAS  C:\Users\Blayke\AppData\Local\Temp\cc62WBhQ.s 			page 120


 5692 01a8 70       		.byte	0x70
 5693 01a9 00       		.sleb128 0
 5694 01aa 4F       		.byte	0x4f
 5695 01ab 26       		.byte	0x26
 5696 01ac 1C       		.byte	0x1c
 5697 01ad 9F       		.byte	0x9f
 5698 01ae 26000000 		.4byte	.LVL52
 5699 01b2 2B000000 		.4byte	.LVL53-1
 5700 01b6 0100     		.2byte	0x1
 5701 01b8 50       		.byte	0x50
 5702 01b9 00000000 		.4byte	0
 5703 01bd 00000000 		.4byte	0
 5704              	.LLST12:
 5705 01c1 0A000000 		.4byte	.LVL49
 5706 01c5 10000000 		.4byte	.LVL50
 5707 01c9 0100     		.2byte	0x1
 5708 01cb 50       		.byte	0x50
 5709 01cc 10000000 		.4byte	.LVL50
 5710 01d0 2B000000 		.4byte	.LVL53-1
 5711 01d4 0A00     		.2byte	0xa
 5712 01d6 74       		.byte	0x74
 5713 01d7 00       		.sleb128 0
 5714 01d8 03       		.byte	0x3
 5715 01d9 00000000 		.4byte	internal_orientation
 5716 01dd 06       		.byte	0x6
 5717 01de 1C       		.byte	0x1c
 5718 01df 9F       		.byte	0x9f
 5719 01e0 00000000 		.4byte	0
 5720 01e4 00000000 		.4byte	0
 5721              	.LLST13:
 5722 01e8 00000000 		.4byte	.LVL55
 5723 01ec 18000000 		.4byte	.LVL59
 5724 01f0 0100     		.2byte	0x1
 5725 01f2 50       		.byte	0x50
 5726 01f3 18000000 		.4byte	.LVL59
 5727 01f7 32010000 		.4byte	.LVL88
 5728 01fb 0100     		.2byte	0x1
 5729 01fd 58       		.byte	0x58
 5730 01fe 32010000 		.4byte	.LVL88
 5731 0202 4C010000 		.4byte	.LFE69
 5732 0206 0400     		.2byte	0x4
 5733 0208 F3       		.byte	0xf3
 5734 0209 01       		.uleb128 0x1
 5735 020a 50       		.byte	0x50
 5736 020b 9F       		.byte	0x9f
 5737 020c 00000000 		.4byte	0
 5738 0210 00000000 		.4byte	0
 5739              	.LLST14:
 5740 0214 00000000 		.4byte	.LVL55
 5741 0218 18000000 		.4byte	.LVL59
 5742 021c 0100     		.2byte	0x1
 5743 021e 51       		.byte	0x51
 5744 021f 18000000 		.4byte	.LVL59
 5745 0223 32010000 		.4byte	.LVL88
 5746 0227 0100     		.2byte	0x1
 5747 0229 57       		.byte	0x57
 5748 022a 32010000 		.4byte	.LVL88
ARM GAS  C:\Users\Blayke\AppData\Local\Temp\cc62WBhQ.s 			page 121


 5749 022e 4C010000 		.4byte	.LFE69
 5750 0232 0400     		.2byte	0x4
 5751 0234 F3       		.byte	0xf3
 5752 0235 01       		.uleb128 0x1
 5753 0236 51       		.byte	0x51
 5754 0237 9F       		.byte	0x9f
 5755 0238 00000000 		.4byte	0
 5756 023c 00000000 		.4byte	0
 5757              	.LLST15:
 5758 0240 00000000 		.4byte	.LVL55
 5759 0244 10000000 		.4byte	.LVL57
 5760 0248 0100     		.2byte	0x1
 5761 024a 52       		.byte	0x52
 5762 024b 10000000 		.4byte	.LVL57
 5763 024f 32010000 		.4byte	.LVL88
 5764 0253 0100     		.2byte	0x1
 5765 0255 59       		.byte	0x59
 5766 0256 32010000 		.4byte	.LVL88
 5767 025a 4C010000 		.4byte	.LFE69
 5768 025e 0400     		.2byte	0x4
 5769 0260 F3       		.byte	0xf3
 5770 0261 01       		.uleb128 0x1
 5771 0262 52       		.byte	0x52
 5772 0263 9F       		.byte	0x9f
 5773 0264 00000000 		.4byte	0
 5774 0268 00000000 		.4byte	0
 5775              	.LLST16:
 5776 026c 00000000 		.4byte	.LVL55
 5777 0270 12000000 		.4byte	.LVL58
 5778 0274 0100     		.2byte	0x1
 5779 0276 53       		.byte	0x53
 5780 0277 12000000 		.4byte	.LVL58
 5781 027b 32010000 		.4byte	.LVL88
 5782 027f 0100     		.2byte	0x1
 5783 0281 54       		.byte	0x54
 5784 0282 32010000 		.4byte	.LVL88
 5785 0286 4C010000 		.4byte	.LFE69
 5786 028a 0400     		.2byte	0x4
 5787 028c F3       		.byte	0xf3
 5788 028d 01       		.uleb128 0x1
 5789 028e 53       		.byte	0x53
 5790 028f 9F       		.byte	0x9f
 5791 0290 00000000 		.4byte	0
 5792 0294 00000000 		.4byte	0
 5793              	.LLST17:
 5794 0298 00000000 		.4byte	.LVL55
 5795 029c 32010000 		.4byte	.LVL88
 5796 02a0 0200     		.2byte	0x2
 5797 02a2 91       		.byte	0x91
 5798 02a3 00       		.sleb128 0
 5799 02a4 32010000 		.4byte	.LVL88
 5800 02a8 4C010000 		.4byte	.LFE69
 5801 02ac 0200     		.2byte	0x2
 5802 02ae 7D       		.byte	0x7d
 5803 02af 00       		.sleb128 0
 5804 02b0 00000000 		.4byte	0
 5805 02b4 00000000 		.4byte	0
ARM GAS  C:\Users\Blayke\AppData\Local\Temp\cc62WBhQ.s 			page 122


 5806              	.LLST18:
 5807 02b8 0C000000 		.4byte	.LVL56
 5808 02bc 32010000 		.4byte	.LVL88
 5809 02c0 0200     		.2byte	0x2
 5810 02c2 91       		.byte	0x91
 5811 02c3 00       		.sleb128 0
 5812 02c4 32010000 		.4byte	.LVL88
 5813 02c8 4C010000 		.4byte	.LFE69
 5814 02cc 0200     		.2byte	0x2
 5815 02ce 7D       		.byte	0x7d
 5816 02cf 00       		.sleb128 0
 5817 02d0 00000000 		.4byte	0
 5818 02d4 00000000 		.4byte	0
 5819              	.LLST20:
 5820 02d8 18000000 		.4byte	.LVL59
 5821 02dc 32010000 		.4byte	.LVL88
 5822 02e0 0100     		.2byte	0x1
 5823 02e2 55       		.byte	0x55
 5824 02e3 00000000 		.4byte	0
 5825 02e7 00000000 		.4byte	0
 5826              	.LLST21:
 5827 02eb 00000000 		.4byte	.LVL89
 5828 02ef 0E000000 		.4byte	.LVL90
 5829 02f3 0100     		.2byte	0x1
 5830 02f5 50       		.byte	0x50
 5831 02f6 0E000000 		.4byte	.LVL90
 5832 02fa 36000000 		.4byte	.LVL96
 5833 02fe 0400     		.2byte	0x4
 5834 0300 F3       		.byte	0xf3
 5835 0301 01       		.uleb128 0x1
 5836 0302 50       		.byte	0x50
 5837 0303 9F       		.byte	0x9f
 5838 0304 36000000 		.4byte	.LVL96
 5839 0308 3C000000 		.4byte	.LVL97
 5840 030c 0100     		.2byte	0x1
 5841 030e 50       		.byte	0x50
 5842 030f 3C000000 		.4byte	.LVL97
 5843 0313 64000000 		.4byte	.LVL103
 5844 0317 0400     		.2byte	0x4
 5845 0319 F3       		.byte	0xf3
 5846 031a 01       		.uleb128 0x1
 5847 031b 50       		.byte	0x50
 5848 031c 9F       		.byte	0x9f
 5849 031d 64000000 		.4byte	.LVL103
 5850 0321 64000000 		.4byte	.LVL104
 5851 0325 0100     		.2byte	0x1
 5852 0327 50       		.byte	0x50
 5853 0328 64000000 		.4byte	.LVL104
 5854 032c 66000000 		.4byte	.LVL105
 5855 0330 0400     		.2byte	0x4
 5856 0332 F3       		.byte	0xf3
 5857 0333 01       		.uleb128 0x1
 5858 0334 50       		.byte	0x50
 5859 0335 9F       		.byte	0x9f
 5860 0336 66000000 		.4byte	.LVL105
 5861 033a 68000000 		.4byte	.LVL106
 5862 033e 0100     		.2byte	0x1
ARM GAS  C:\Users\Blayke\AppData\Local\Temp\cc62WBhQ.s 			page 123


 5863 0340 50       		.byte	0x50
 5864 0341 68000000 		.4byte	.LVL106
 5865 0345 84000000 		.4byte	.LFE70
 5866 0349 0400     		.2byte	0x4
 5867 034b F3       		.byte	0xf3
 5868 034c 01       		.uleb128 0x1
 5869 034d 50       		.byte	0x50
 5870 034e 9F       		.byte	0x9f
 5871 034f 00000000 		.4byte	0
 5872 0353 00000000 		.4byte	0
 5873              	.LLST22:
 5874 0357 1C000000 		.4byte	.LVL93
 5875 035b 2B000000 		.4byte	.LVL94-1
 5876 035f 0100     		.2byte	0x1
 5877 0361 52       		.byte	0x52
 5878 0362 4A000000 		.4byte	.LVL100
 5879 0366 59000000 		.4byte	.LVL101-1
 5880 036a 0100     		.2byte	0x1
 5881 036c 52       		.byte	0x52
 5882 036d 6A000000 		.4byte	.LVL107
 5883 0371 84000000 		.4byte	.LFE70
 5884 0375 0100     		.2byte	0x1
 5885 0377 52       		.byte	0x52
 5886 0378 00000000 		.4byte	0
 5887 037c 00000000 		.4byte	0
 5888              	.LLST23:
 5889 0380 00000000 		.4byte	.LVL108
 5890 0384 16000000 		.4byte	.LVL110
 5891 0388 0100     		.2byte	0x1
 5892 038a 50       		.byte	0x50
 5893 038b 16000000 		.4byte	.LVL110
 5894 038f A4020000 		.4byte	.LVL194
 5895 0393 0100     		.2byte	0x1
 5896 0395 5B       		.byte	0x5b
 5897 0396 A4020000 		.4byte	.LVL194
 5898 039a CC020000 		.4byte	.LFE67
 5899 039e 0400     		.2byte	0x4
 5900 03a0 F3       		.byte	0xf3
 5901 03a1 01       		.uleb128 0x1
 5902 03a2 50       		.byte	0x50
 5903 03a3 9F       		.byte	0x9f
 5904 03a4 00000000 		.4byte	0
 5905 03a8 00000000 		.4byte	0
 5906              	.LLST24:
 5907 03ac 00000000 		.4byte	.LVL108
 5908 03b0 19000000 		.4byte	.LVL111-1
 5909 03b4 0100     		.2byte	0x1
 5910 03b6 51       		.byte	0x51
 5911 03b7 19000000 		.4byte	.LVL111-1
 5912 03bb A4020000 		.4byte	.LVL194
 5913 03bf 0200     		.2byte	0x2
 5914 03c1 91       		.byte	0x91
 5915 03c2 54       		.sleb128 -44
 5916 03c3 A4020000 		.4byte	.LVL194
 5917 03c7 CC020000 		.4byte	.LFE67
 5918 03cb 0200     		.2byte	0x2
 5919 03cd 7D       		.byte	0x7d
ARM GAS  C:\Users\Blayke\AppData\Local\Temp\cc62WBhQ.s 			page 124


 5920 03ce 54       		.sleb128 -44
 5921 03cf 00000000 		.4byte	0
 5922 03d3 00000000 		.4byte	0
 5923              	.LLST25:
 5924 03d7 00000000 		.4byte	.LVL108
 5925 03db 19000000 		.4byte	.LVL111-1
 5926 03df 0100     		.2byte	0x1
 5927 03e1 52       		.byte	0x52
 5928 03e2 19000000 		.4byte	.LVL111-1
 5929 03e6 A4020000 		.4byte	.LVL194
 5930 03ea 0200     		.2byte	0x2
 5931 03ec 91       		.byte	0x91
 5932 03ed 4C       		.sleb128 -52
 5933 03ee A4020000 		.4byte	.LVL194
 5934 03f2 CC020000 		.4byte	.LFE67
 5935 03f6 0200     		.2byte	0x2
 5936 03f8 7D       		.byte	0x7d
 5937 03f9 4C       		.sleb128 -52
 5938 03fa 00000000 		.4byte	0
 5939 03fe 00000000 		.4byte	0
 5940              	.LLST26:
 5941 0402 00000000 		.4byte	.LVL108
 5942 0406 19000000 		.4byte	.LVL111-1
 5943 040a 0100     		.2byte	0x1
 5944 040c 53       		.byte	0x53
 5945 040d 19000000 		.4byte	.LVL111-1
 5946 0411 A4020000 		.4byte	.LVL194
 5947 0415 0100     		.2byte	0x1
 5948 0417 54       		.byte	0x54
 5949 0418 A4020000 		.4byte	.LVL194
 5950 041c CC020000 		.4byte	.LFE67
 5951 0420 0400     		.2byte	0x4
 5952 0422 F3       		.byte	0xf3
 5953 0423 01       		.uleb128 0x1
 5954 0424 53       		.byte	0x53
 5955 0425 9F       		.byte	0x9f
 5956 0426 00000000 		.4byte	0
 5957 042a 00000000 		.4byte	0
 5958              	.LLST27:
 5959 042e 00000000 		.4byte	.LVL108
 5960 0432 A4020000 		.4byte	.LVL194
 5961 0436 0200     		.2byte	0x2
 5962 0438 91       		.byte	0x91
 5963 0439 00       		.sleb128 0
 5964 043a A4020000 		.4byte	.LVL194
 5965 043e CC020000 		.4byte	.LFE67
 5966 0442 0200     		.2byte	0x2
 5967 0444 7D       		.byte	0x7d
 5968 0445 00       		.sleb128 0
 5969 0446 00000000 		.4byte	0
 5970 044a 00000000 		.4byte	0
 5971              	.LLST28:
 5972 044e 00000000 		.4byte	.LVL108
 5973 0452 A4020000 		.4byte	.LVL194
 5974 0456 0200     		.2byte	0x2
 5975 0458 91       		.byte	0x91
 5976 0459 04       		.sleb128 4
ARM GAS  C:\Users\Blayke\AppData\Local\Temp\cc62WBhQ.s 			page 125


 5977 045a A4020000 		.4byte	.LVL194
 5978 045e CC020000 		.4byte	.LFE67
 5979 0462 0200     		.2byte	0x2
 5980 0464 7D       		.byte	0x7d
 5981 0465 04       		.sleb128 4
 5982 0466 00000000 		.4byte	0
 5983 046a 00000000 		.4byte	0
 5984              	.LLST29:
 5985 046e A0000000 		.4byte	.LVL127
 5986 0472 A3000000 		.4byte	.LVL128-1
 5987 0476 0100     		.2byte	0x1
 5988 0478 50       		.byte	0x50
 5989 0479 A3000000 		.4byte	.LVL128-1
 5990 047d AA000000 		.4byte	.LVL129
 5991 0481 0100     		.2byte	0x1
 5992 0483 57       		.byte	0x57
 5993 0484 AA000000 		.4byte	.LVL129
 5994 0488 7E010000 		.4byte	.LVL157
 5995 048c 0200     		.2byte	0x2
 5996 048e 91       		.byte	0x91
 5997 048f 48       		.sleb128 -56
 5998 0490 BA010000 		.4byte	.LVL162
 5999 0494 BD010000 		.4byte	.LVL163-1
 6000 0498 0100     		.2byte	0x1
 6001 049a 50       		.byte	0x50
 6002 049b BD010000 		.4byte	.LVL163-1
 6003 049f C4010000 		.4byte	.LVL164
 6004 04a3 0100     		.2byte	0x1
 6005 04a5 57       		.byte	0x57
 6006 04a6 C4010000 		.4byte	.LVL164
 6007 04aa 56020000 		.4byte	.LVL184
 6008 04ae 0200     		.2byte	0x2
 6009 04b0 91       		.byte	0x91
 6010 04b1 48       		.sleb128 -56
 6011 04b2 00000000 		.4byte	0
 6012 04b6 00000000 		.4byte	0
 6013              	.LLST30:
 6014 04ba A4000000 		.4byte	.LVL128
 6015 04be B0000000 		.4byte	.LVL130
 6016 04c2 0100     		.2byte	0x1
 6017 04c4 50       		.byte	0x50
 6018 04c5 BE010000 		.4byte	.LVL163
 6019 04c9 CA010000 		.4byte	.LVL165
 6020 04cd 0100     		.2byte	0x1
 6021 04cf 50       		.byte	0x50
 6022 04d0 00000000 		.4byte	0
 6023 04d4 00000000 		.4byte	0
 6024              	.LLST31:
 6025 04d8 10000000 		.4byte	.LVL109
 6026 04dc 98000000 		.4byte	.LVL125
 6027 04e0 0100     		.2byte	0x1
 6028 04e2 56       		.byte	0x56
 6029 04e3 98000000 		.4byte	.LVL125
 6030 04e7 7E010000 		.4byte	.LVL157
 6031 04eb 0100     		.2byte	0x1
 6032 04ed 59       		.byte	0x59
 6033 04ee 7E010000 		.4byte	.LVL157
ARM GAS  C:\Users\Blayke\AppData\Local\Temp\cc62WBhQ.s 			page 126


 6034 04f2 8E010000 		.4byte	.LVL158
 6035 04f6 0100     		.2byte	0x1
 6036 04f8 56       		.byte	0x56
 6037 04f9 8E010000 		.4byte	.LVL158
 6038 04fd A4020000 		.4byte	.LVL194
 6039 0501 0100     		.2byte	0x1
 6040 0503 59       		.byte	0x59
 6041 0504 00000000 		.4byte	0
 6042 0508 00000000 		.4byte	0
 6043              	.LLST32:
 6044 050c 10000000 		.4byte	.LVL109
 6045 0510 98000000 		.4byte	.LVL125
 6046 0514 0100     		.2byte	0x1
 6047 0516 56       		.byte	0x56
 6048 0517 98000000 		.4byte	.LVL125
 6049 051b 7E010000 		.4byte	.LVL157
 6050 051f 0100     		.2byte	0x1
 6051 0521 5A       		.byte	0x5a
 6052 0522 7E010000 		.4byte	.LVL157
 6053 0526 8E010000 		.4byte	.LVL158
 6054 052a 0100     		.2byte	0x1
 6055 052c 56       		.byte	0x56
 6056 052d 8E010000 		.4byte	.LVL158
 6057 0531 A4020000 		.4byte	.LVL194
 6058 0535 0100     		.2byte	0x1
 6059 0537 5A       		.byte	0x5a
 6060 0538 00000000 		.4byte	0
 6061 053c 00000000 		.4byte	0
 6062              	.LLST33:
 6063 0540 10000000 		.4byte	.LVL109
 6064 0544 98000000 		.4byte	.LVL125
 6065 0548 0200     		.2byte	0x2
 6066 054a 30       		.byte	0x30
 6067 054b 9F       		.byte	0x9f
 6068 054c 98000000 		.4byte	.LVL125
 6069 0550 F2000000 		.4byte	.LVL139
 6070 0554 0200     		.2byte	0x2
 6071 0556 91       		.byte	0x91
 6072 0557 50       		.sleb128 -48
 6073 0558 F2000000 		.4byte	.LVL139
 6074 055c F8000000 		.4byte	.LVL140
 6075 0560 0200     		.2byte	0x2
 6076 0562 30       		.byte	0x30
 6077 0563 9F       		.byte	0x9f
 6078 0564 F8000000 		.4byte	.LVL140
 6079 0568 12010000 		.4byte	.LVL143
 6080 056c 0200     		.2byte	0x2
 6081 056e 91       		.byte	0x91
 6082 056f 50       		.sleb128 -48
 6083 0570 12010000 		.4byte	.LVL143
 6084 0574 18010000 		.4byte	.LVL144
 6085 0578 0200     		.2byte	0x2
 6086 057a 31       		.byte	0x31
 6087 057b 9F       		.byte	0x9f
 6088 057c 18010000 		.4byte	.LVL144
 6089 0580 7E010000 		.4byte	.LVL157
 6090 0584 0200     		.2byte	0x2
ARM GAS  C:\Users\Blayke\AppData\Local\Temp\cc62WBhQ.s 			page 127


 6091 0586 91       		.byte	0x91
 6092 0587 50       		.sleb128 -48
 6093 0588 7E010000 		.4byte	.LVL157
 6094 058c 8E010000 		.4byte	.LVL158
 6095 0590 0200     		.2byte	0x2
 6096 0592 30       		.byte	0x30
 6097 0593 9F       		.byte	0x9f
 6098 0594 8E010000 		.4byte	.LVL158
 6099 0598 A8010000 		.4byte	.LVL159
 6100 059c 0200     		.2byte	0x2
 6101 059e 91       		.byte	0x91
 6102 059f 50       		.sleb128 -48
 6103 05a0 00000000 		.4byte	0
 6104 05a4 00000000 		.4byte	0
 6105              	.LLST34:
 6106 05a8 3C000000 		.4byte	.LVL115
 6107 05ac 74020000 		.4byte	.LVL187
 6108 05b0 0100     		.2byte	0x1
 6109 05b2 55       		.byte	0x55
 6110 05b3 00000000 		.4byte	0
 6111 05b7 00000000 		.4byte	0
 6112              	.LLST35:
 6113 05bb 10000000 		.4byte	.LVL109
 6114 05bf 98000000 		.4byte	.LVL125
 6115 05c3 0400     		.2byte	0x4
 6116 05c5 0B       		.byte	0xb
 6117 05c6 C7FA     		.2byte	0xfac7
 6118 05c8 9F       		.byte	0x9f
 6119 05c9 98000000 		.4byte	.LVL125
 6120 05cd 78010000 		.4byte	.LVL156
 6121 05d1 0300     		.2byte	0x3
 6122 05d3 91       		.byte	0x91
 6123 05d4 BC7F     		.sleb128 -68
 6124 05d6 78010000 		.4byte	.LVL156
 6125 05da 7E010000 		.4byte	.LVL157
 6126 05de 0200     		.2byte	0x2
 6127 05e0 91       		.byte	0x91
 6128 05e1 48       		.sleb128 -56
 6129 05e2 7E010000 		.4byte	.LVL157
 6130 05e6 8E010000 		.4byte	.LVL158
 6131 05ea 0400     		.2byte	0x4
 6132 05ec 0B       		.byte	0xb
 6133 05ed C7FA     		.2byte	0xfac7
 6134 05ef 9F       		.byte	0x9f
 6135 05f0 8E010000 		.4byte	.LVL158
 6136 05f4 52020000 		.4byte	.LVL183
 6137 05f8 0300     		.2byte	0x3
 6138 05fa 91       		.byte	0x91
 6139 05fb BC7F     		.sleb128 -68
 6140 05fd 52020000 		.4byte	.LVL183
 6141 0601 56020000 		.4byte	.LVL184
 6142 0605 0200     		.2byte	0x2
 6143 0607 91       		.byte	0x91
 6144 0608 48       		.sleb128 -56
 6145 0609 56020000 		.4byte	.LVL184
 6146 060d A4020000 		.4byte	.LVL194
 6147 0611 0300     		.2byte	0x3
ARM GAS  C:\Users\Blayke\AppData\Local\Temp\cc62WBhQ.s 			page 128


 6148 0613 91       		.byte	0x91
 6149 0614 BC7F     		.sleb128 -68
 6150 0616 A4020000 		.4byte	.LVL194
 6151 061a CC020000 		.4byte	.LFE67
 6152 061e 0300     		.2byte	0x3
 6153 0620 7D       		.byte	0x7d
 6154 0621 BC7F     		.sleb128 -68
 6155 0623 00000000 		.4byte	0
 6156 0627 00000000 		.4byte	0
 6157              	.LLST36:
 6158 062b 10000000 		.4byte	.LVL109
 6159 062f 98000000 		.4byte	.LVL125
 6160 0633 0200     		.2byte	0x2
 6161 0635 30       		.byte	0x30
 6162 0636 9F       		.byte	0x9f
 6163 0637 98000000 		.4byte	.LVL125
 6164 063b 78010000 		.4byte	.LVL156
 6165 063f 0100     		.2byte	0x1
 6166 0641 58       		.byte	0x58
 6167 0642 78010000 		.4byte	.LVL156
 6168 0646 7E010000 		.4byte	.LVL157
 6169 064a 0100     		.2byte	0x1
 6170 064c 50       		.byte	0x50
 6171 064d 7E010000 		.4byte	.LVL157
 6172 0651 8E010000 		.4byte	.LVL158
 6173 0655 0200     		.2byte	0x2
 6174 0657 30       		.byte	0x30
 6175 0658 9F       		.byte	0x9f
 6176 0659 8E010000 		.4byte	.LVL158
 6177 065d A8010000 		.4byte	.LVL159
 6178 0661 0100     		.2byte	0x1
 6179 0663 58       		.byte	0x58
 6180 0664 A8010000 		.4byte	.LVL159
 6181 0668 B2010000 		.4byte	.LVL160
 6182 066c 0100     		.2byte	0x1
 6183 066e 57       		.byte	0x57
 6184 066f B2010000 		.4byte	.LVL160
 6185 0673 52020000 		.4byte	.LVL183
 6186 0677 0100     		.2byte	0x1
 6187 0679 58       		.byte	0x58
 6188 067a 52020000 		.4byte	.LVL183
 6189 067e 56020000 		.4byte	.LVL184
 6190 0682 0100     		.2byte	0x1
 6191 0684 50       		.byte	0x50
 6192 0685 56020000 		.4byte	.LVL184
 6193 0689 68020000 		.4byte	.LVL185
 6194 068d 0100     		.2byte	0x1
 6195 068f 58       		.byte	0x58
 6196 0690 00000000 		.4byte	0
 6197 0694 00000000 		.4byte	0
 6198              	.LLST37:
 6199 0698 3A010000 		.4byte	.LVL149
 6200 069c 7E010000 		.4byte	.LVL157
 6201 06a0 0200     		.2byte	0x2
 6202 06a2 31       		.byte	0x31
 6203 06a3 9F       		.byte	0x9f
 6204 06a4 00000000 		.4byte	0
ARM GAS  C:\Users\Blayke\AppData\Local\Temp\cc62WBhQ.s 			page 129


 6205 06a8 00000000 		.4byte	0
 6206              	.LLST38:
 6207 06ac 14020000 		.4byte	.LVL176
 6208 06b0 56020000 		.4byte	.LVL184
 6209 06b4 0200     		.2byte	0x2
 6210 06b6 31       		.byte	0x31
 6211 06b7 9F       		.byte	0x9f
 6212 06b8 00000000 		.4byte	0
 6213 06bc 00000000 		.4byte	0
 6214              	.LLST39:
 6215 06c0 00000000 		.4byte	.LVL195
 6216 06c4 0B000000 		.4byte	.LVL197-1
 6217 06c8 0100     		.2byte	0x1
 6218 06ca 50       		.byte	0x50
 6219 06cb 0B000000 		.4byte	.LVL197-1
 6220 06cf 1E000000 		.4byte	.LVL198
 6221 06d3 0100     		.2byte	0x1
 6222 06d5 54       		.byte	0x54
 6223 06d6 1E000000 		.4byte	.LVL198
 6224 06da 5C020000 		.4byte	.LFE72
 6225 06de 0400     		.2byte	0x4
 6226 06e0 F3       		.byte	0xf3
 6227 06e1 01       		.uleb128 0x1
 6228 06e2 50       		.byte	0x50
 6229 06e3 9F       		.byte	0x9f
 6230 06e4 00000000 		.4byte	0
 6231 06e8 00000000 		.4byte	0
 6232              	.LLST40:
 6233 06ec 20000000 		.4byte	.LVL199
 6234 06f0 3C020000 		.4byte	.LVL267
 6235 06f4 0100     		.2byte	0x1
 6236 06f6 55       		.byte	0x55
 6237 06f7 00000000 		.4byte	0
 6238 06fb 00000000 		.4byte	0
 6239              	.LLST41:
 6240 06ff 20000000 		.4byte	.LVL199
 6241 0703 3C020000 		.4byte	.LVL267
 6242 0707 0100     		.2byte	0x1
 6243 0709 56       		.byte	0x56
 6244 070a 00000000 		.4byte	0
 6245 070e 00000000 		.4byte	0
 6246              	.LLST42:
 6247 0712 08000000 		.4byte	.LVL196
 6248 0716 20000000 		.4byte	.LVL199
 6249 071a 0400     		.2byte	0x4
 6250 071c 0A       		.byte	0xa
 6251 071d 2C01     		.2byte	0x12c
 6252 071f 9F       		.byte	0x9f
 6253 0720 20000000 		.4byte	.LVL199
 6254 0724 2E000000 		.4byte	.LVL202
 6255 0728 0100     		.2byte	0x1
 6256 072a 54       		.byte	0x54
 6257 072b 6E000000 		.4byte	.LVL209
 6258 072f D2000000 		.4byte	.LVL223
 6259 0733 0100     		.2byte	0x1
 6260 0735 54       		.byte	0x54
 6261 0736 D8000000 		.4byte	.LVL224
ARM GAS  C:\Users\Blayke\AppData\Local\Temp\cc62WBhQ.s 			page 130


 6262 073a 22010000 		.4byte	.LVL231
 6263 073e 0100     		.2byte	0x1
 6264 0740 54       		.byte	0x54
 6265 0741 24010000 		.4byte	.LVL232
 6266 0745 3C020000 		.4byte	.LVL267
 6267 0749 0100     		.2byte	0x1
 6268 074b 54       		.byte	0x54
 6269 074c 00000000 		.4byte	0
 6270 0750 00000000 		.4byte	0
 6271              	.LLST43:
 6272 0754 BC010000 		.4byte	.LVL250
 6273 0758 C7010000 		.4byte	.LVL251-1
 6274 075c 0100     		.2byte	0x1
 6275 075e 50       		.byte	0x50
 6276 075f C7010000 		.4byte	.LVL251-1
 6277 0763 1C020000 		.4byte	.LVL263
 6278 0767 0100     		.2byte	0x1
 6279 0769 57       		.byte	0x57
 6280 076a 00000000 		.4byte	0
 6281 076e 00000000 		.4byte	0
 6282              	.LLST44:
 6283 0772 00000000 		.4byte	.LVL268
 6284 0776 11000000 		.4byte	.LVL270-1
 6285 077a 0100     		.2byte	0x1
 6286 077c 50       		.byte	0x50
 6287 077d 11000000 		.4byte	.LVL270-1
 6288 0781 32000000 		.4byte	.LVL274
 6289 0785 0100     		.2byte	0x1
 6290 0787 55       		.byte	0x55
 6291 0788 32000000 		.4byte	.LVL274
 6292 078c 3C000000 		.4byte	.LFE71
 6293 0790 0400     		.2byte	0x4
 6294 0792 F3       		.byte	0xf3
 6295 0793 01       		.uleb128 0x1
 6296 0794 50       		.byte	0x50
 6297 0795 9F       		.byte	0x9f
 6298 0796 00000000 		.4byte	0
 6299 079a 00000000 		.4byte	0
 6300              	.LLST45:
 6301 079e 00000000 		.4byte	.LVL268
 6302 07a2 11000000 		.4byte	.LVL270-1
 6303 07a6 0100     		.2byte	0x1
 6304 07a8 51       		.byte	0x51
 6305 07a9 11000000 		.4byte	.LVL270-1
 6306 07ad 28000000 		.4byte	.LVL272
 6307 07b1 0100     		.2byte	0x1
 6308 07b3 54       		.byte	0x54
 6309 07b4 28000000 		.4byte	.LVL272
 6310 07b8 2C000000 		.4byte	.LVL273
 6311 07bc 0300     		.2byte	0x3
 6312 07be 74       		.byte	0x74
 6313 07bf 0A       		.sleb128 10
 6314 07c0 9F       		.byte	0x9f
 6315 07c1 2C000000 		.4byte	.LVL273
 6316 07c5 31000000 		.4byte	.LVL274-1
 6317 07c9 0300     		.2byte	0x3
 6318 07cb 72       		.byte	0x72
ARM GAS  C:\Users\Blayke\AppData\Local\Temp\cc62WBhQ.s 			page 131


 6319 07cc 76       		.sleb128 -10
 6320 07cd 9F       		.byte	0x9f
 6321 07ce 31000000 		.4byte	.LVL274-1
 6322 07d2 3C000000 		.4byte	.LFE71
 6323 07d6 0400     		.2byte	0x4
 6324 07d8 F3       		.byte	0xf3
 6325 07d9 01       		.uleb128 0x1
 6326 07da 51       		.byte	0x51
 6327 07db 9F       		.byte	0x9f
 6328 07dc 00000000 		.4byte	0
 6329 07e0 00000000 		.4byte	0
 6330              	.LLST46:
 6331 07e4 26000000 		.4byte	.LVL282
 6332 07e8 5A000000 		.4byte	.LVL291
 6333 07ec 0100     		.2byte	0x1
 6334 07ee 54       		.byte	0x54
 6335 07ef 60000000 		.4byte	.LVL292
 6336 07f3 70000000 		.4byte	.LFE73
 6337 07f7 0100     		.2byte	0x1
 6338 07f9 54       		.byte	0x54
 6339 07fa 00000000 		.4byte	0
 6340 07fe 00000000 		.4byte	0
 6341              	.LLST47:
 6342 0802 02000000 		.4byte	.LVL275
 6343 0806 2C000000 		.4byte	.LVL283
 6344 080a 0200     		.2byte	0x2
 6345 080c 30       		.byte	0x30
 6346 080d 9F       		.byte	0x9f
 6347 080e 2C000000 		.4byte	.LVL283
 6348 0812 4E000000 		.4byte	.LVL289
 6349 0816 0100     		.2byte	0x1
 6350 0818 55       		.byte	0x55
 6351 0819 4E000000 		.4byte	.LVL289
 6352 081d 60000000 		.4byte	.LVL292
 6353 0821 0100     		.2byte	0x1
 6354 0823 54       		.byte	0x54
 6355 0824 60000000 		.4byte	.LVL292
 6356 0828 70000000 		.4byte	.LFE73
 6357 082c 0100     		.2byte	0x1
 6358 082e 55       		.byte	0x55
 6359 082f 00000000 		.4byte	0
 6360 0833 00000000 		.4byte	0
 6361              	.LLST48:
 6362 0837 02000000 		.4byte	.LVL275
 6363 083b 2C000000 		.4byte	.LVL283
 6364 083f 0200     		.2byte	0x2
 6365 0841 32       		.byte	0x32
 6366 0842 9F       		.byte	0x9f
 6367 0843 2C000000 		.4byte	.LVL283
 6368 0847 6A000000 		.4byte	.LVL293
 6369 084b 0100     		.2byte	0x1
 6370 084d 56       		.byte	0x56
 6371 084e 00000000 		.4byte	0
 6372 0852 00000000 		.4byte	0
 6373              	.LLST49:
 6374 0856 26000000 		.4byte	.LVL282
 6375 085a 2C000000 		.4byte	.LVL283
ARM GAS  C:\Users\Blayke\AppData\Local\Temp\cc62WBhQ.s 			page 132


 6376 085e 0100     		.2byte	0x1
 6377 0860 54       		.byte	0x54
 6378 0861 00000000 		.4byte	0
 6379 0865 00000000 		.4byte	0
 6380              	.LLST50:
 6381 0869 00000000 		.4byte	.LVL308
 6382 086d 0A000000 		.4byte	.LVL309
 6383 0871 0100     		.2byte	0x1
 6384 0873 50       		.byte	0x50
 6385 0874 0A000000 		.4byte	.LVL309
 6386 0878 5C000000 		.4byte	.LFE77
 6387 087c 0100     		.2byte	0x1
 6388 087e 55       		.byte	0x55
 6389 087f 00000000 		.4byte	0
 6390 0883 00000000 		.4byte	0
 6391              	.LLST51:
 6392 0887 1A000000 		.4byte	.LVL312
 6393 088b 38000000 		.4byte	.LVL317
 6394 088f 0100     		.2byte	0x1
 6395 0891 56       		.byte	0x56
 6396 0892 3A000000 		.4byte	.LVL318
 6397 0896 5C000000 		.4byte	.LFE77
 6398 089a 0100     		.2byte	0x1
 6399 089c 56       		.byte	0x56
 6400 089d 00000000 		.4byte	0
 6401 08a1 00000000 		.4byte	0
 6402              	.LLST52:
 6403 08a5 1A000000 		.4byte	.LVL312
 6404 08a9 1C000000 		.4byte	.LVL313
 6405 08ad 0200     		.2byte	0x2
 6406 08af 30       		.byte	0x30
 6407 08b0 9F       		.byte	0x9f
 6408 08b1 1C000000 		.4byte	.LVL313
 6409 08b5 5C000000 		.4byte	.LFE77
 6410 08b9 0100     		.2byte	0x1
 6411 08bb 54       		.byte	0x54
 6412 08bc 00000000 		.4byte	0
 6413 08c0 00000000 		.4byte	0
 6414              		.section	.debug_aranges,"",%progbits
 6415 0000 84000000 		.4byte	0x84
 6416 0004 0200     		.2byte	0x2
 6417 0006 00000000 		.4byte	.Ldebug_info0
 6418 000a 04       		.byte	0x4
 6419 000b 00       		.byte	0
 6420 000c 0000     		.2byte	0
 6421 000e 0000     		.2byte	0
 6422 0010 00000000 		.4byte	.LFB64
 6423 0014 48000000 		.4byte	.LFE64-.LFB64
 6424 0018 00000000 		.4byte	.LFB66
 6425 001c D0000000 		.4byte	.LFE66-.LFB66
 6426 0020 00000000 		.4byte	.LFB65
 6427 0024 10000000 		.4byte	.LFE65-.LFB65
 6428 0028 00000000 		.4byte	.LFB68
 6429 002c 3C000000 		.4byte	.LFE68-.LFB68
 6430 0030 00000000 		.4byte	.LFB69
 6431 0034 4C010000 		.4byte	.LFE69-.LFB69
 6432 0038 00000000 		.4byte	.LFB70
ARM GAS  C:\Users\Blayke\AppData\Local\Temp\cc62WBhQ.s 			page 133


 6433 003c 84000000 		.4byte	.LFE70-.LFB70
 6434 0040 00000000 		.4byte	.LFB67
 6435 0044 CC020000 		.4byte	.LFE67-.LFB67
 6436 0048 00000000 		.4byte	.LFB72
 6437 004c 5C020000 		.4byte	.LFE72-.LFB72
 6438 0050 00000000 		.4byte	.LFB71
 6439 0054 3C000000 		.4byte	.LFE71-.LFB71
 6440 0058 00000000 		.4byte	.LFB73
 6441 005c 70000000 		.4byte	.LFE73-.LFB73
 6442 0060 00000000 		.4byte	.LFB74
 6443 0064 64000000 		.4byte	.LFE74-.LFB74
 6444 0068 00000000 		.4byte	.LFB75
 6445 006c 02000000 		.4byte	.LFE75-.LFB75
 6446 0070 00000000 		.4byte	.LFB76
 6447 0074 02000000 		.4byte	.LFE76-.LFB76
 6448 0078 00000000 		.4byte	.LFB77
 6449 007c 5C000000 		.4byte	.LFE77-.LFB77
 6450 0080 00000000 		.4byte	0
 6451 0084 00000000 		.4byte	0
 6452              		.section	.debug_ranges,"",%progbits
 6453              	.Ldebug_ranges0:
 6454 0000 00000000 		.4byte	.LFB64
 6455 0004 48000000 		.4byte	.LFE64
 6456 0008 00000000 		.4byte	.LFB66
 6457 000c D0000000 		.4byte	.LFE66
 6458 0010 00000000 		.4byte	.LFB65
 6459 0014 10000000 		.4byte	.LFE65
 6460 0018 00000000 		.4byte	.LFB68
 6461 001c 3C000000 		.4byte	.LFE68
 6462 0020 00000000 		.4byte	.LFB69
 6463 0024 4C010000 		.4byte	.LFE69
 6464 0028 00000000 		.4byte	.LFB70
 6465 002c 84000000 		.4byte	.LFE70
 6466 0030 00000000 		.4byte	.LFB67
 6467 0034 CC020000 		.4byte	.LFE67
 6468 0038 00000000 		.4byte	.LFB72
 6469 003c 5C020000 		.4byte	.LFE72
 6470 0040 00000000 		.4byte	.LFB71
 6471 0044 3C000000 		.4byte	.LFE71
 6472 0048 00000000 		.4byte	.LFB73
 6473 004c 70000000 		.4byte	.LFE73
 6474 0050 00000000 		.4byte	.LFB74
 6475 0054 64000000 		.4byte	.LFE74
 6476 0058 00000000 		.4byte	.LFB75
 6477 005c 02000000 		.4byte	.LFE75
 6478 0060 00000000 		.4byte	.LFB76
 6479 0064 02000000 		.4byte	.LFE76
 6480 0068 00000000 		.4byte	.LFB77
 6481 006c 5C000000 		.4byte	.LFE77
 6482 0070 00000000 		.4byte	0
 6483 0074 00000000 		.4byte	0
 6484              		.section	.debug_line,"",%progbits
 6485              	.Ldebug_line0:
 6486 0000 BF050000 		.section	.debug_str,"MS",%progbits,1
 6486      0200F802 
 6486      00000201 
 6486      FB0E0D00 
ARM GAS  C:\Users\Blayke\AppData\Local\Temp\cc62WBhQ.s 			page 134


 6486      01010101 
 6487              	.LASF94:
 6488 0000 61726D4F 		.ascii	"armOpen\000"
 6488      70656E00 
 6489              	.LASF37:
 6490 0008 756C7472 		.ascii	"ultrasonic_sensor\000"
 6490      61736F6E 
 6490      69635F73 
 6490      656E736F 
 6490      7200
 6491              	.LASF28:
 6492 001a 6368616E 		.ascii	"changeOrientation\000"
 6492      67654F72 
 6492      69656E74 
 6492      6174696F 
 6492      6E00
 6493              	.LASF42:
 6494 002c 61637469 		.ascii	"activate_safety\000"
 6494      76617465 
 6494      5F736166 
 6494      65747900 
 6495              	.LASF93:
 6496 003c 4D6F746F 		.ascii	"Motor_Right_Driver_WriteCompare\000"
 6496      725F5269 
 6496      6768745F 
 6496      44726976 
 6496      65725F57 
 6497              	.LASF51:
 6498 005c 746F6C65 		.ascii	"tolerance\000"
 6498      72616E63 
 6498      6500
 6499              	.LASF63:
 6500 0066 64697374 		.ascii	"distance_previous\000"
 6500      616E6365 
 6500      5F707265 
 6500      76696F75 
 6500      7300
 6501              	.LASF24:
 6502 0078 73706565 		.ascii	"speed_left\000"
 6502      645F6C65 
 6502      667400
 6503              	.LASF87:
 6504 0083 636F6C6F 		.ascii	"colourSensingOutput\000"
 6504      75725365 
 6504      6E73696E 
 6504      674F7574 
 6504      70757400 
 6505              	.LASF96:
 6506 0097 4D6F746F 		.ascii	"Motor_Right_Decoder_GetCounter\000"
 6506      725F5269 
 6506      6768745F 
 6506      4465636F 
 6506      6465725F 
 6507              	.LASF31:
 6508 00b6 64656772 		.ascii	"degree_change\000"
 6508      65655F63 
 6508      68616E67 
ARM GAS  C:\Users\Blayke\AppData\Local\Temp\cc62WBhQ.s 			page 135


 6508      6500
 6509              	.LASF114:
 6510 00c4 6E617669 		.ascii	"navigation.c\000"
 6510      67617469 
 6510      6F6E2E63 
 6510      00
 6511              	.LASF30:
 6512 00d1 6F726965 		.ascii	"orientation_change\000"
 6512      6E746174 
 6512      696F6E5F 
 6512      6368616E 
 6512      676500
 6513              	.LASF49:
 6514 00e4 73656E73 		.ascii	"sensor_right\000"
 6514      6F725F72 
 6514      69676874 
 6514      00
 6515              	.LASF50:
 6516 00f1 64696666 		.ascii	"difference\000"
 6516      6572656E 
 6516      636500
 6517              	.LASF72:
 6518 00fc 61626F76 		.ascii	"above_minimum_count\000"
 6518      655F6D69 
 6518      6E696D75 
 6518      6D5F636F 
 6518      756E7400 
 6519              	.LASF35:
 6520 0110 64697265 		.ascii	"direction\000"
 6520      6374696F 
 6520      6E00
 6521              	.LASF14:
 6522 011a 6C6F6E67 		.ascii	"long double\000"
 6522      20646F75 
 6522      626C6500 
 6523              	.LASF26:
 6524 0126 63686563 		.ascii	"checkHoldingPuck\000"
 6524      6B486F6C 
 6524      64696E67 
 6524      5075636B 
 6524      00
 6525              	.LASF40:
 6526 0137 63686563 		.ascii	"check_distance\000"
 6526      6B5F6469 
 6526      7374616E 
 6526      636500
 6527              	.LASF47:
 6528 0146 66726F6E 		.ascii	"front_back\000"
 6528      745F6261 
 6528      636B00
 6529              	.LASF80:
 6530 0151 73656E73 		.ascii	"sensor_distances\000"
 6530      6F725F64 
 6530      69737461 
 6530      6E636573 
 6530      00
 6531              	.LASF81:
ARM GAS  C:\Users\Blayke\AppData\Local\Temp\cc62WBhQ.s 			page 136


 6532 0162 756C7472 		.ascii	"ultrasonic_flag\000"
 6532      61736F6E 
 6532      69635F66 
 6532      6C616700 
 6533              	.LASF44:
 6534 0172 656D6572 		.ascii	"emergency_exit\000"
 6534      67656E63 
 6534      795F6578 
 6534      697400
 6535              	.LASF2:
 6536 0181 73686F72 		.ascii	"short int\000"
 6536      7420696E 
 6536      7400
 6537              	.LASF101:
 6538 018b 4D6F746F 		.ascii	"Motor_Left_Decoder_SetCounter\000"
 6538      725F4C65 
 6538      66745F44 
 6538      65636F64 
 6538      65725F53 
 6539              	.LASF70:
 6540 01a9 73656E73 		.ascii	"sensor\000"
 6540      6F7200
 6541              	.LASF112:
 6542 01b0 54696D65 		.ascii	"Timer_straight_adjust_Stop\000"
 6542      725F7374 
 6542      72616967 
 6542      68745F61 
 6542      646A7573 
 6543              	.LASF54:
 6544 01cb 74696D65 		.ascii	"timer\000"
 6544      7200
 6545              	.LASF59:
 6546 01d1 7472616E 		.ascii	"translate_direction\000"
 6546      736C6174 
 6546      655F6469 
 6546      72656374 
 6546      696F6E00 
 6547              	.LASF89:
 6548 01e5 4D6F746F 		.ascii	"Motor_Right_Control_Write\000"
 6548      725F5269 
 6548      6768745F 
 6548      436F6E74 
 6548      726F6C5F 
 6549              	.LASF64:
 6550 01ff 6D696E69 		.ascii	"minimum_distance\000"
 6550      6D756D5F 
 6550      64697374 
 6550      616E6365 
 6550      00
 6551              	.LASF66:
 6552 0210 626C6F63 		.ascii	"blockAndPuckZoneFinding\000"
 6552      6B416E64 
 6552      5075636B 
 6552      5A6F6E65 
 6552      46696E64 
 6553              	.LASF16:
 6554 0228 7075636B 		.ascii	"puck_correct\000"
ARM GAS  C:\Users\Blayke\AppData\Local\Temp\cc62WBhQ.s 			page 137


 6554      5F636F72 
 6554      72656374 
 6554      00
 6555              	.LASF39:
 6556 0235 64697374 		.ascii	"distance_sensor\000"
 6556      616E6365 
 6556      5F73656E 
 6556      736F7200 
 6557              	.LASF11:
 6558 0245 666C6F61 		.ascii	"float\000"
 6558      7400
 6559              	.LASF86:
 6560 024b 6368616E 		.ascii	"changeHeightToPuck\000"
 6560      67654865 
 6560      69676874 
 6560      546F5075 
 6560      636B00
 6561              	.LASF48:
 6562 025e 73656E73 		.ascii	"sensor_left\000"
 6562      6F725F6C 
 6562      65667400 
 6563              	.LASF6:
 6564 026a 6C6F6E67 		.ascii	"long long int\000"
 6564      206C6F6E 
 6564      6720696E 
 6564      7400
 6565              	.LASF76:
 6566 0278 7075636B 		.ascii	"puck_rack_west_offsets\000"
 6566      5F726163 
 6566      6B5F7765 
 6566      73745F6F 
 6566      66667365 
 6567              	.LASF104:
 6568 028f 4D6F746F 		.ascii	"Motor_Right_Driver_Sleep\000"
 6568      725F5269 
 6568      6768745F 
 6568      44726976 
 6568      65725F53 
 6569              	.LASF4:
 6570 02a8 6C6F6E67 		.ascii	"long int\000"
 6570      20696E74 
 6570      00
 6571              	.LASF74:
 6572 02b1 696E7465 		.ascii	"internal_orientation\000"
 6572      726E616C 
 6572      5F6F7269 
 6572      656E7461 
 6572      74696F6E 
 6573              	.LASF23:
 6574 02c6 636F756E 		.ascii	"count_left\000"
 6574      745F6C65 
 6574      667400
 6575              	.LASF10:
 6576 02d1 696E7433 		.ascii	"int32_t\000"
 6576      325F7400 
 6577              	.LASF85:
 6578 02d9 73616665 		.ascii	"safety_override\000"
ARM GAS  C:\Users\Blayke\AppData\Local\Temp\cc62WBhQ.s 			page 138


 6578      74795F6F 
 6578      76657272 
 6578      69646500 
 6579              	.LASF102:
 6580 02e9 4D6F746F 		.ascii	"Motor_Right_Decoder_SetCounter\000"
 6580      725F5269 
 6580      6768745F 
 6580      4465636F 
 6580      6465725F 
 6581              	.LASF34:
 6582 0308 64697374 		.ascii	"distance_set\000"
 6582      616E6365 
 6582      5F736574 
 6582      00
 6583              	.LASF52:
 6584 0315 6D61785F 		.ascii	"max_difference\000"
 6584      64696666 
 6584      6572656E 
 6584      636500
 6585              	.LASF95:
 6586 0324 636F6E74 		.ascii	"control_photodiode_Write\000"
 6586      726F6C5F 
 6586      70686F74 
 6586      6F64696F 
 6586      64655F57 
 6587              	.LASF61:
 6588 033d 73747261 		.ascii	"straightAdjustBack\000"
 6588      69676874 
 6588      41646A75 
 6588      73744261 
 6588      636B00
 6589              	.LASF68:
 6590 0350 7075636B 		.ascii	"puck_threshold\000"
 6590      5F746872 
 6590      6573686F 
 6590      6C6400
 6591              	.LASF92:
 6592 035f 4D6F746F 		.ascii	"Motor_Right_Driver_Wakeup\000"
 6592      725F5269 
 6592      6768745F 
 6592      44726976 
 6592      65725F57 
 6593              	.LASF65:
 6594 0379 746F6C65 		.ascii	"toleranceCheck\000"
 6594      72616E63 
 6594      65436865 
 6594      636B00
 6595              	.LASF103:
 6596 0388 4D6F746F 		.ascii	"Motor_Left_Driver_Sleep\000"
 6596      725F4C65 
 6596      66745F44 
 6596      72697665 
 6596      725F536C 
 6597              	.LASF75:
 6598 03a0 7075636B 		.ascii	"puck_rack_scans\000"
 6598      5F726163 
 6598      6B5F7363 
ARM GAS  C:\Users\Blayke\AppData\Local\Temp\cc62WBhQ.s 			page 139


 6598      616E7300 
 6599              	.LASF19:
 6600 03b0 6D6F7665 		.ascii	"moveUntilPuck\000"
 6600      556E7469 
 6600      6C507563 
 6600      6B00
 6601              	.LASF1:
 6602 03be 756E7369 		.ascii	"unsigned char\000"
 6602      676E6564 
 6602      20636861 
 6602      7200
 6603              	.LASF108:
 6604 03cc 7472616E 		.ascii	"translateMoveDynamic\000"
 6604      736C6174 
 6604      654D6F76 
 6604      6544796E 
 6604      616D6963 
 6605              	.LASF99:
 6606 03e1 73707269 		.ascii	"sprintf\000"
 6606      6E746600 
 6607              	.LASF82:
 6608 03e9 7075636B 		.ascii	"puck_construction_plan\000"
 6608      5F636F6E 
 6608      73747275 
 6608      6374696F 
 6608      6E5F706C 
 6609              	.LASF18:
 6610 0400 61726D4D 		.ascii	"armMoving\000"
 6610      6F76696E 
 6610      6700
 6611              	.LASF0:
 6612 040a 7369676E 		.ascii	"signed char\000"
 6612      65642063 
 6612      68617200 
 6613              	.LASF77:
 6614 0416 626C6F63 		.ascii	"block_edge_location\000"
 6614      6B5F6564 
 6614      67655F6C 
 6614      6F636174 
 6614      696F6E00 
 6615              	.LASF7:
 6616 042a 6C6F6E67 		.ascii	"long long unsigned int\000"
 6616      206C6F6E 
 6616      6720756E 
 6616      7369676E 
 6616      65642069 
 6617              	.LASF8:
 6618 0441 756E7369 		.ascii	"unsigned int\000"
 6618      676E6564 
 6618      20696E74 
 6618      00
 6619              	.LASF27:
 6620 044e 636F6C6F 		.ascii	"colour_check\000"
 6620      75725F63 
 6620      6865636B 
 6620      00
 6621              	.LASF21:
ARM GAS  C:\Users\Blayke\AppData\Local\Temp\cc62WBhQ.s 			page 140


 6622 045b 73706565 		.ascii	"speed\000"
 6622      6400
 6623              	.LASF36:
 6624 0461 6C657373 		.ascii	"less_or_great\000"
 6624      5F6F725F 
 6624      67726561 
 6624      7400
 6625              	.LASF109:
 6626 046f 54696D65 		.ascii	"Timer_straight_adjust_Start\000"
 6626      725F7374 
 6626      72616967 
 6626      68745F61 
 6626      646A7573 
 6627              	.LASF38:
 6628 048b 6F6C645F 		.ascii	"old_count\000"
 6628      636F756E 
 6628      7400
 6629              	.LASF83:
 6630 0495 63757272 		.ascii	"current_stage\000"
 6630      656E745F 
 6630      73746167 
 6630      6500
 6631              	.LASF3:
 6632 04a3 73686F72 		.ascii	"short unsigned int\000"
 6632      7420756E 
 6632      7369676E 
 6632      65642069 
 6632      6E7400
 6633              	.LASF45:
 6634 04b6 6661696C 		.ascii	"failsafe_alternator\000"
 6634      73616665 
 6634      5F616C74 
 6634      65726E61 
 6634      746F7200 
 6635              	.LASF33:
 6636 04ca 7472616E 		.ascii	"translateUntil\000"
 6636      736C6174 
 6636      65556E74 
 6636      696C00
 6637              	.LASF107:
 6638 04d9 64697374 		.ascii	"distanceSensor\000"
 6638      616E6365 
 6638      53656E73 
 6638      6F7200
 6639              	.LASF13:
 6640 04e8 63686172 		.ascii	"char\000"
 6640      00
 6641              	.LASF115:
 6642 04ed 453A5C44 		.ascii	"E:\\Documents\\Uni S12019 Notes\\ECE3091\\Temp Clon"
 6642      6F63756D 
 6642      656E7473 
 6642      5C556E69 
 6642      20533132 
 6643 051c 655C4543 		.ascii	"e\\ECE3091_Group17\\Group17RobotReal\\Group17Robot."
 6643      45333039 
 6643      315F4772 
 6643      6F757031 
ARM GAS  C:\Users\Blayke\AppData\Local\Temp\cc62WBhQ.s 			page 141


 6643      375C4772 
 6644 054c 63796473 		.ascii	"cydsn\000"
 6644      6E00
 6645              	.LASF46:
 6646 0552 73747261 		.ascii	"straightAdjust\000"
 6646      69676874 
 6646      41646A75 
 6646      737400
 6647              	.LASF55:
 6648 0561 6661696C 		.ascii	"failsafeSideSensors\000"
 6648      73616665 
 6648      53696465 
 6648      53656E73 
 6648      6F727300 
 6649              	.LASF53:
 6650 0575 756C7472 		.ascii	"ultra_delay\000"
 6650      615F6465 
 6650      6C617900 
 6651              	.LASF84:
 6652 0581 636F6C6F 		.ascii	"colour_sensing_algorithm\000"
 6652      75725F73 
 6652      656E7369 
 6652      6E675F61 
 6652      6C676F72 
 6653              	.LASF62:
 6654 059a 64697374 		.ascii	"distance_check\000"
 6654      616E6365 
 6654      5F636865 
 6654      636B00
 6655              	.LASF20:
 6656 05a9 7075636B 		.ascii	"puck_detect\000"
 6656      5F646574 
 6656      65637400 
 6657              	.LASF56:
 6658 05b5 73696465 		.ascii	"side_sensing\000"
 6658      5F73656E 
 6658      73696E67 
 6658      00
 6659              	.LASF60:
 6660 05c2 6661696C 		.ascii	"failsafe\000"
 6660      73616665 
 6660      00
 6661              	.LASF105:
 6662 05cb 6D6F7665 		.ascii	"moveDynamic\000"
 6662      44796E61 
 6662      6D696300 
 6663              	.LASF110:
 6664 05d7 54696D65 		.ascii	"Timer_straight_adjust_ReadCounter\000"
 6664      725F7374 
 6664      72616967 
 6664      68745F61 
 6664      646A7573 
 6665              	.LASF5:
 6666 05f9 6C6F6E67 		.ascii	"long unsigned int\000"
 6666      20756E73 
 6666      69676E65 
 6666      6420696E 
ARM GAS  C:\Users\Blayke\AppData\Local\Temp\cc62WBhQ.s 			page 142


 6666      7400
 6667              	.LASF116:
 6668 060b 6C6F6361 		.ascii	"locatePucks\000"
 6668      74655075 
 6668      636B7300 
 6669              	.LASF12:
 6670 0617 646F7562 		.ascii	"double\000"
 6670      6C6500
 6671              	.LASF100:
 6672 061e 55415254 		.ascii	"UART_1_PutString\000"
 6672      5F315F50 
 6672      75745374 
 6672      72696E67 
 6672      00
 6673              	.LASF71:
 6674 062f 6D696E69 		.ascii	"minimum\000"
 6674      6D756D00 
 6675              	.LASF67:
 6676 0637 626C6F63 		.ascii	"block_threshold\000"
 6676      6B5F7468 
 6676      72657368 
 6676      6F6C6400 
 6677              	.LASF88:
 6678 0647 4D6F746F 		.ascii	"Motor_Left_Control_Write\000"
 6678      725F4C65 
 6678      66745F43 
 6678      6F6E7472 
 6678      6F6C5F57 
 6679              	.LASF43:
 6680 0660 66726F6E 		.ascii	"front_sensor_flag\000"
 6680      745F7365 
 6680      6E736F72 
 6680      5F666C61 
 6680      6700
 6681              	.LASF29:
 6682 0672 616C676F 		.ascii	"algorithm\000"
 6682      72697468 
 6682      6D00
 6683              	.LASF32:
 6684 067c 6368616E 		.ascii	"change\000"
 6684      676500
 6685              	.LASF57:
 6686 0683 696E6974 		.ascii	"initial_value\000"
 6686      69616C5F 
 6686      76616C75 
 6686      6500
 6687              	.LASF17:
 6688 0691 7075636B 		.ascii	"puck_scan\000"
 6688      5F736361 
 6688      6E00
 6689              	.LASF9:
 6690 069b 5F5F696E 		.ascii	"__int32_t\000"
 6690      7433325F 
 6690      7400
 6691              	.LASF58:
 6692 06a5 64726966 		.ascii	"drift_tolerance\000"
 6692      745F746F 
ARM GAS  C:\Users\Blayke\AppData\Local\Temp\cc62WBhQ.s 			page 143


 6692      6C657261 
 6692      6E636500 
 6693              	.LASF41:
 6694 06b5 6D6F7665 		.ascii	"moveUntil\000"
 6694      556E7469 
 6694      6C00
 6695              	.LASF15:
 6696 06bf 73697A65 		.ascii	"sizetype\000"
 6696      74797065 
 6696      00
 6697              	.LASF79:
 6698 06c8 6F757470 		.ascii	"output\000"
 6698      757400
 6699              	.LASF97:
 6700 06cf 4D6F746F 		.ascii	"Motor_Left_Decoder_GetCounter\000"
 6700      725F4C65 
 6700      66745F44 
 6700      65636F64 
 6700      65725F47 
 6701              	.LASF111:
 6702 06ed 436F6E74 		.ascii	"Control_Reset_Straight_Write\000"
 6702      726F6C5F 
 6702      52657365 
 6702      745F5374 
 6702      72616967 
 6703              	.LASF73:
 6704 070a 49544D5F 		.ascii	"ITM_RxBuffer\000"
 6704      52784275 
 6704      66666572 
 6704      00
 6705              	.LASF113:
 6706 0717 474E5520 		.ascii	"GNU C11 5.4.1 20160609 (release) [ARM/embedded-5-br"
 6706      43313120 
 6706      352E342E 
 6706      31203230 
 6706      31363036 
 6707 074a 616E6368 		.ascii	"anch revision 237715] -mcpu=cortex-m3 -mthumb -g -O"
 6707      20726576 
 6707      6973696F 
 6707      6E203233 
 6707      37373135 
 6708 077d 67202D66 		.ascii	"g -ffunction-sections -ffat-lto-objects\000"
 6708      66756E63 
 6708      74696F6E 
 6708      2D736563 
 6708      74696F6E 
 6709              	.LASF98:
 6710 07a5 43794465 		.ascii	"CyDelay\000"
 6710      6C617900 
 6711              	.LASF22:
 6712 07ad 636F756E 		.ascii	"count_right\000"
 6712      745F7269 
 6712      67687400 
 6713              	.LASF25:
 6714 07b9 73706565 		.ascii	"speed_right\000"
 6714      645F7269 
 6714      67687400 
ARM GAS  C:\Users\Blayke\AppData\Local\Temp\cc62WBhQ.s 			page 144


 6715              	.LASF106:
 6716 07c5 6D6F7665 		.ascii	"moveSwivel\000"
 6716      53776976 
 6716      656C00
 6717              	.LASF78:
 6718 07d0 696E6974 		.ascii	"initialisation\000"
 6718      69616C69 
 6718      73617469 
 6718      6F6E00
 6719              	.LASF91:
 6720 07df 4D6F746F 		.ascii	"Motor_Left_Driver_WriteCompare\000"
 6720      725F4C65 
 6720      66745F44 
 6720      72697665 
 6720      725F5772 
 6721              	.LASF90:
 6722 07fe 4D6F746F 		.ascii	"Motor_Left_Driver_Wakeup\000"
 6722      725F4C65 
 6722      66745F44 
 6722      72697665 
 6722      725F5761 
 6723              	.LASF69:
 6724 0817 73747261 		.ascii	"straightAdjustSensor\000"
 6724      69676874 
 6724      41646A75 
 6724      73745365 
 6724      6E736F72 
 6725              		.ident	"GCC: (GNU Tools for ARM Embedded Processors) 5.4.1 20160609 (release) [ARM/embedded-5-bran
