ARM GAS  C:\Users\Misha\AppData\Local\Temp\ccmv7pUT.s 			page 1


   1              		.syntax unified
   2              		.cpu cortex-m3
   3              		.fpu softvfp
   4              		.eabi_attribute 20, 1
   5              		.eabi_attribute 21, 1
   6              		.eabi_attribute 23, 3
   7              		.eabi_attribute 24, 1
   8              		.eabi_attribute 25, 1
   9              		.eabi_attribute 26, 1
  10              		.eabi_attribute 30, 1
  11              		.eabi_attribute 34, 1
  12              		.eabi_attribute 18, 4
  13              		.thumb
  14              		.syntax unified
  15              		.file	"navigation.c"
  16              		.text
  17              	.Ltext0:
  18              		.cfi_sections	.debug_frame
  19              		.section	.text.armMoving,"ax",%progbits
  20              		.align	2
  21              		.global	armMoving
  22              		.thumb
  23              		.thumb_func
  24              		.type	armMoving, %function
  25              	armMoving:
  26              	.LFB64:
  27              		.file 1 "navigation.c"
   1:navigation.c  **** 
   2:navigation.c  **** /* ========================================
   3:navigation.c  ****  *
   4:navigation.c  ****  * Copyright Group 17, 2019
   5:navigation.c  ****  * All Rights Reserved
   6:navigation.c  ****  * UNPUBLISHED, LICENSED SOFTWARE.
   7:navigation.c  ****  *
   8:navigation.c  ****  * CONFIDENTIAL AND PROPRIETARY INFORMATION
   9:navigation.c  ****  * WHICH IS THE PROPERTY OF Blayke, Misha, Nidhin.
  10:navigation.c  ****  *
  11:navigation.c  ****  * ========================================
  12:navigation.c  **** */
  13:navigation.c  **** 
  14:navigation.c  **** // * PSOC LIBRARY * //
  15:navigation.c  **** #include "project.h"
  16:navigation.c  **** 
  17:navigation.c  **** // * C LIBRARIES * // 
  18:navigation.c  **** #include <stdlib.h>
  19:navigation.c  **** #include <stdio.h>
  20:navigation.c  **** #include <math.h>
  21:navigation.c  **** 
  22:navigation.c  **** // * OUR LIBRARIES * //
  23:navigation.c  **** #include "main.h"
  24:navigation.c  **** #include "colour.h"
  25:navigation.c  **** #include "ultrasonic.h" 
  26:navigation.c  **** #include "servo.h"
  27:navigation.c  **** #include "motor.h"
  28:navigation.c  **** #include "customMath.h"
  29:navigation.c  **** #include "navigation.h"
  30:navigation.c  **** #include "debugging.h"
ARM GAS  C:\Users\Misha\AppData\Local\Temp\ccmv7pUT.s 			page 2


  31:navigation.c  **** 
  32:navigation.c  **** void armMoving(void){
  28              		.loc 1 32 0
  29              		.cfi_startproc
  30              		@ args = 0, pretend = 0, frame = 0
  31              		@ frame_needed = 0, uses_anonymous_args = 0
  32 0000 38B5     		push	{r3, r4, r5, lr}
  33              		.cfi_def_cfa_offset 16
  34              		.cfi_offset 3, -16
  35              		.cfi_offset 4, -12
  36              		.cfi_offset 5, -8
  37              		.cfi_offset 14, -4
  38              	.LVL0:
  33:navigation.c  ****     
  34:navigation.c  ****     int puck_correct = FALSE;   // A flag to determine if the correct puck has been picked up
  35:navigation.c  ****     int puck_scan;
  36:navigation.c  ****     
  37:navigation.c  ****     puckConstructionPlan[1] = RED;  // this was a test
  39              		.loc 1 37 0
  40 0002 0122     		movs	r2, #1
  41 0004 0E4B     		ldr	r3, .L7
  42 0006 5A60     		str	r2, [r3, #4]
  38:navigation.c  ****     
  39:navigation.c  ****     // States
  40:navigation.c  ****     // moving
  41:navigation.c  ****     changeHeightToPuck(3, NEITHER);  // Arm has to be lifted to highest position
  43              		.loc 1 41 0
  44 0008 0221     		movs	r1, #2
  45 000a 0320     		movs	r0, #3
  46 000c FFF7FEFF 		bl	changeHeightToPuck
  47              	.LVL1:
  34:navigation.c  ****     int puck_scan;
  48              		.loc 1 34 0
  49 0010 0025     		movs	r5, #0
  42:navigation.c  ****         // THIS WILL be ensured by always returning the claw to the highest position after completi
  43:navigation.c  ****         
  44:navigation.c  ****     // Scanning puck:
  45:navigation.c  ****     while (puck_correct == FALSE) 
  50              		.loc 1 45 0
  51 0012 12E0     		b	.L2
  52              	.LVL2:
  53              	.L4:
  46:navigation.c  ****     {
  47:navigation.c  ****                                 // robot moves forward towards puck
  48:navigation.c  ****         changeHeightToPuck(1, NEITHER);  // arm lowers onto robot
  54              		.loc 1 48 0
  55 0014 0221     		movs	r1, #2
  56 0016 0120     		movs	r0, #1
  57 0018 FFF7FEFF 		bl	changeHeightToPuck
  58              	.LVL3:
  49:navigation.c  ****         puck_scan = colourSensingOutput();  // colour sensor takes a scan
  59              		.loc 1 49 0
  60 001c FFF7FEFF 		bl	colourSensingOutput
  61              	.LVL4:
  62 0020 0446     		mov	r4, r0
  63              	.LVL5:
  50:navigation.c  ****         changeHeightToPuck(3, NEITHER);  // arm returns to high position
ARM GAS  C:\Users\Misha\AppData\Local\Temp\ccmv7pUT.s 			page 3


  64              		.loc 1 50 0
  65 0022 0221     		movs	r1, #2
  66 0024 0320     		movs	r0, #3
  67              	.LVL6:
  68 0026 FFF7FEFF 		bl	changeHeightToPuck
  69              	.LVL7:
  51:navigation.c  ****                                 // robot moves backwards
  52:navigation.c  ****         if (puck_scan == puckConstructionPlan[current_stage]) {puck_correct = TRUE;}
  70              		.loc 1 52 0
  71 002a 064B     		ldr	r3, .L7+4
  72 002c 1A68     		ldr	r2, [r3]
  73 002e 044B     		ldr	r3, .L7
  74 0030 53F82230 		ldr	r3, [r3, r2, lsl #2]
  75 0034 9C42     		cmp	r4, r3
  76 0036 00D1     		bne	.L2
  77 0038 0125     		movs	r5, #1
  78              	.LVL8:
  79              	.L2:
  45:navigation.c  ****     {
  80              		.loc 1 45 0
  81 003a 002D     		cmp	r5, #0
  82 003c EAD0     		beq	.L4
  53:navigation.c  ****                                 // if colour == true:
  54:navigation.c  ****                                     // enter picking up puck from 
  55:navigation.c  ****         else 
  56:navigation.c  ****         {
  57:navigation.c  ****                                 // if colour == false
  58:navigation.c  ****                                     // robot translates to side to see next puck, and performs scan
  59:navigation.c  ****         }
  60:navigation.c  ****     }
  61:navigation.c  ****     
  62:navigation.c  ****     /*
  63:navigation.c  ****     
  64:navigation.c  ****     // Picking Up puck from pile:
  65:navigation.c  ****     changeHeightToPuck(0);      // arm lowers to ground
  66:navigation.c  ****                                 // robot moves forward
  67:navigation.c  ****     armClose();                 // claw closes on puck
  68:navigation.c  ****     changeHeightToPuck(3);      // arm lifts up to highest position
  69:navigation.c  ****                                 // robot moves back away from puck area   
  70:navigation.c  ****       
  71:navigation.c  ****     
  72:navigation.c  ****     // Deposition puck in construction zone:
  73:navigation.c  ****                                 // arm will be in highest position from moving
  74:navigation.c  ****         changeHeightToPuck(current_stage-1);    // arm moves to position of stacking pucks         
  75:navigation.c  ****                                                 // stage 1st = ground/0
  76:navigation.c  ****                                                 // stage 2nd = 1
  77:navigation.c  ****                                                 // stage 3rd = 2
  78:navigation.c  ****         armOpen();              // gripper releases puck
  79:navigation.c  ****         changeHeightToPuck(3);  // arm moves back to highest position availabe
  80:navigation.c  ****                                 // robot moves away 
  81:navigation.c  ****     */
  82:navigation.c  ****     
  83:navigation.c  **** }
  83              		.loc 1 83 0
  84 003e 38BD     		pop	{r3, r4, r5, pc}
  85              	.LVL9:
  86              	.L8:
ARM GAS  C:\Users\Misha\AppData\Local\Temp\ccmv7pUT.s 			page 4


  87              		.align	2
  88              	.L7:
  89 0040 00000000 		.word	puckConstructionPlan
  90 0044 00000000 		.word	current_stage
  91              		.cfi_endproc
  92              	.LFE64:
  93              		.size	armMoving, .-armMoving
  94              		.section	.text.moveUntilPuck,"ax",%progbits
  95              		.align	2
  96              		.global	moveUntilPuck
  97              		.thumb
  98              		.thumb_func
  99              		.type	moveUntilPuck, %function
 100              	moveUntilPuck:
 101              	.LFB65:
  84:navigation.c  **** 
  85:navigation.c  **** void moveUntilPuck(int algorithm) {
 102              		.loc 1 85 0
 103              		.cfi_startproc
 104              		@ args = 0, pretend = 0, frame = 0
 105              		@ frame_needed = 0, uses_anonymous_args = 0
 106              	.LVL10:
 107 0000 2DE9F843 		push	{r3, r4, r5, r6, r7, r8, r9, lr}
 108              		.cfi_def_cfa_offset 32
 109              		.cfi_offset 3, -32
 110              		.cfi_offset 4, -28
 111              		.cfi_offset 5, -24
 112              		.cfi_offset 6, -20
 113              		.cfi_offset 7, -16
 114              		.cfi_offset 8, -12
 115              		.cfi_offset 9, -8
 116              		.cfi_offset 14, -4
 117 0004 0446     		mov	r4, r0
 118              	.LVL11:
  86:navigation.c  ****       
  87:navigation.c  ****     int puck_detect = 0;
  88:navigation.c  ****     
  89:navigation.c  ****     int speed = 70;
  90:navigation.c  ****     
  91:navigation.c  ****     int count_right;
  92:navigation.c  ****     int count_left;
  93:navigation.c  ****     int speed_left = speed;
  94:navigation.c  ****     int speed_right = speed;
  95:navigation.c  ****     
  96:navigation.c  ****     Motor_Left_Control_Write(0);        // move FORWARD
 119              		.loc 1 96 0
 120 0006 0020     		movs	r0, #0
 121              	.LVL12:
 122 0008 FFF7FEFF 		bl	Motor_Left_Control_Write
 123              	.LVL13:
  97:navigation.c  ****     Motor_Right_Control_Write(0);
 124              		.loc 1 97 0
 125 000c 0020     		movs	r0, #0
 126 000e FFF7FEFF 		bl	Motor_Right_Control_Write
 127              	.LVL14:
  98:navigation.c  ****     
  99:navigation.c  ****     Motor_Left_Driver_Wakeup();
ARM GAS  C:\Users\Misha\AppData\Local\Temp\ccmv7pUT.s 			page 5


 128              		.loc 1 99 0
 129 0012 FFF7FEFF 		bl	Motor_Left_Driver_Wakeup
 130              	.LVL15:
 100:navigation.c  ****     Motor_Left_Driver_WriteCompare(speed_left);
 131              		.loc 1 100 0
 132 0016 4620     		movs	r0, #70
 133 0018 FFF7FEFF 		bl	Motor_Left_Driver_WriteCompare
 134              	.LVL16:
 101:navigation.c  ****     Motor_Right_Driver_Wakeup();
 135              		.loc 1 101 0
 136 001c FFF7FEFF 		bl	Motor_Right_Driver_Wakeup
 137              	.LVL17:
 102:navigation.c  ****     Motor_Right_Driver_WriteCompare(speed_right);
 138              		.loc 1 102 0
 139 0020 4620     		movs	r0, #70
 140 0022 FFF7FEFF 		bl	Motor_Right_Driver_WriteCompare
 141              	.LVL18:
 103:navigation.c  ****     
 104:navigation.c  ****     armOpen();                                  // ensures the arm is open
 142              		.loc 1 104 0
 143 0026 FFF7FEFF 		bl	armOpen
 144              	.LVL19:
 105:navigation.c  ****     control_photodiode_Write(CLAW_SENSING);     //ENSURES that it is the claw that is sensing
 145              		.loc 1 105 0
 146 002a 0120     		movs	r0, #1
 147 002c FFF7FEFF 		bl	control_photodiode_Write
 148              	.LVL20:
 106:navigation.c  ****     colour_sensing_algorithm = algorithm;       
 149              		.loc 1 106 0
 150 0030 244B     		ldr	r3, .L17
 151 0032 1C60     		str	r4, [r3]
  94:navigation.c  ****     
 152              		.loc 1 94 0
 153 0034 4FF04608 		mov	r8, #70
  93:navigation.c  ****     int speed_right = speed;
 154              		.loc 1 93 0
 155 0038 C146     		mov	r9, r8
  87:navigation.c  ****     
 156              		.loc 1 87 0
 157 003a 0026     		movs	r6, #0
 107:navigation.c  ****     
 108:navigation.c  ****     while (puck_detect == 0) 
 158              		.loc 1 108 0
 159 003c 2EE0     		b	.L10
 160              	.LVL21:
 161              	.L13:
 109:navigation.c  ****     {
 110:navigation.c  ****         count_right = Motor_Right_Decoder_GetCounter();        
 162              		.loc 1 110 0
 163 003e FFF7FEFF 		bl	Motor_Right_Decoder_GetCounter
 164              	.LVL22:
 165 0042 0446     		mov	r4, r0
 166              	.LVL23:
 111:navigation.c  ****         count_left = Motor_Left_Decoder_GetCounter();
 167              		.loc 1 111 0
 168 0044 FFF7FEFF 		bl	Motor_Left_Decoder_GetCounter
 169              	.LVL24:
ARM GAS  C:\Users\Misha\AppData\Local\Temp\ccmv7pUT.s 			page 6


 170 0048 0546     		mov	r5, r0
 171              	.LVL25:
 112:navigation.c  ****         puck_detect = colourSensingOutput();
 172              		.loc 1 112 0
 173 004a FFF7FEFF 		bl	colourSensingOutput
 174              	.LVL26:
 175 004e 0646     		mov	r6, r0
 176              	.LVL27:
 113:navigation.c  ****         CyDelay(10);
 177              		.loc 1 113 0
 178 0050 0A20     		movs	r0, #10
 179              	.LVL28:
 180 0052 FFF7FEFF 		bl	CyDelay
 181              	.LVL29:
 114:navigation.c  ****         sprintf(output, "%i \t", puck_detect);       
 182              		.loc 1 114 0
 183 0056 1C4F     		ldr	r7, .L17+4
 184 0058 3246     		mov	r2, r6
 185 005a 1C49     		ldr	r1, .L17+8
 186 005c 3846     		mov	r0, r7
 187 005e FFF7FEFF 		bl	sprintf
 188              	.LVL30:
 115:navigation.c  ****         UART_1_PutString(output);
 189              		.loc 1 115 0
 190 0062 3846     		mov	r0, r7
 191 0064 FFF7FEFF 		bl	UART_1_PutString
 192              	.LVL31:
 116:navigation.c  ****         
 117:navigation.c  ****         // DRIFT CORRECTION: 
 118:navigation.c  ****         
 119:navigation.c  ****         if (abs(count_left) > abs(count_right)) {
 193              		.loc 1 119 0
 194 0068 85EAE570 		eor	r0, r5, r5, asr #31
 195 006c A0EBE570 		sub	r0, r0, r5, asr #31
 196 0070 84EAE473 		eor	r3, r4, r4, asr #31
 197 0074 A3EBE473 		sub	r3, r3, r4, asr #31
 198 0078 9842     		cmp	r0, r3
 199 007a 03DD     		ble	.L11
 120:navigation.c  ****             speed_left = speed - ADJUST;
 121:navigation.c  ****             speed_right = speed + ADJUST;
 200              		.loc 1 121 0
 201 007c 4FF04A08 		mov	r8, #74
 202              	.LVL32:
 120:navigation.c  ****             speed_left = speed - ADJUST;
 203              		.loc 1 120 0
 204 0080 4FF04209 		mov	r9, #66
 205              	.LVL33:
 206              	.L11:
 122:navigation.c  ****         }
 123:navigation.c  ****         if (abs(count_right) > abs(count_left)) {
 207              		.loc 1 123 0
 208 0084 9842     		cmp	r0, r3
 209 0086 03DA     		bge	.L12
 124:navigation.c  ****             speed_right = speed - ADJUST;             
 210              		.loc 1 124 0
 211 0088 4FF04208 		mov	r8, #66
 212              	.LVL34:
ARM GAS  C:\Users\Misha\AppData\Local\Temp\ccmv7pUT.s 			page 7


 125:navigation.c  ****             speed_left = speed + ADJUST;
 213              		.loc 1 125 0
 214 008c 4FF04A09 		mov	r9, #74
 215              	.LVL35:
 216              	.L12:
 126:navigation.c  ****         } 
 127:navigation.c  ****         Motor_Left_Driver_WriteCompare(speed_left);
 217              		.loc 1 127 0
 218 0090 4846     		mov	r0, r9
 219 0092 FFF7FEFF 		bl	Motor_Left_Driver_WriteCompare
 220              	.LVL36:
 128:navigation.c  ****         Motor_Right_Driver_WriteCompare(speed_right);        
 221              		.loc 1 128 0
 222 0096 4046     		mov	r0, r8
 223 0098 FFF7FEFF 		bl	Motor_Right_Driver_WriteCompare
 224              	.LVL37:
 225              	.L10:
 108:navigation.c  ****     {
 226              		.loc 1 108 0
 227 009c 002E     		cmp	r6, #0
 228 009e CED0     		beq	.L13
 129:navigation.c  ****     }
 130:navigation.c  ****     
 131:navigation.c  ****     Motor_Left_Decoder_SetCounter(0);
 229              		.loc 1 131 0
 230 00a0 0020     		movs	r0, #0
 231 00a2 FFF7FEFF 		bl	Motor_Left_Decoder_SetCounter
 232              	.LVL38:
 132:navigation.c  ****     Motor_Right_Decoder_SetCounter(0);
 233              		.loc 1 132 0
 234 00a6 0020     		movs	r0, #0
 235 00a8 FFF7FEFF 		bl	Motor_Right_Decoder_SetCounter
 236              	.LVL39:
 133:navigation.c  ****     
 134:navigation.c  ****     Motor_Left_Driver_Sleep();
 237              		.loc 1 134 0
 238 00ac FFF7FEFF 		bl	Motor_Left_Driver_Sleep
 239              	.LVL40:
 135:navigation.c  ****     Motor_Right_Driver_Sleep();
 240              		.loc 1 135 0
 241 00b0 FFF7FEFF 		bl	Motor_Right_Driver_Sleep
 242              	.LVL41:
 136:navigation.c  ****     
 137:navigation.c  ****     moveDynamic(37, 100, FALSE);
 243              		.loc 1 137 0
 244 00b4 0022     		movs	r2, #0
 245 00b6 6421     		movs	r1, #100
 246 00b8 2520     		movs	r0, #37
 247 00ba FFF7FEFF 		bl	moveDynamic
 248              	.LVL42:
 249 00be BDE8F883 		pop	{r3, r4, r5, r6, r7, r8, r9, pc}
 250              	.LVL43:
 251              	.L18:
 252 00c2 00BF     		.align	2
 253              	.L17:
 254 00c4 00000000 		.word	colour_sensing_algorithm
 255 00c8 00000000 		.word	output
ARM GAS  C:\Users\Misha\AppData\Local\Temp\ccmv7pUT.s 			page 8


 256 00cc 00000000 		.word	.LC0
 257              		.cfi_endproc
 258              	.LFE65:
 259              		.size	moveUntilPuck, .-moveUntilPuck
 260              		.section	.text.changeOrientation,"ax",%progbits
 261              		.align	2
 262              		.global	changeOrientation
 263              		.thumb
 264              		.thumb_func
 265              		.type	changeOrientation, %function
 266              	changeOrientation:
 267              	.LFB67:
 138:navigation.c  **** }
 139:navigation.c  **** 
 140:navigation.c  **** 
 141:navigation.c  **** 
 142:navigation.c  **** void moveUntil(int distance_set, int direction, int less_or_great, int ultrasonic_sensor, int speed
 143:navigation.c  ****     // This function will move until given a set distance (in mm)
 144:navigation.c  ****     // Can indicate the direction (FORWARD or BACKWARD)
 145:navigation.c  ****     // whether you want it to move until it is greater or less than the set distance
 146:navigation.c  ****     // which ultrasonic_sensor you want to use
 147:navigation.c  ****     // the speed you want to move
 148:navigation.c  ****     // can activate_safety (TRUE or FALSE) so that it will always stop before it hits a wall (movin
 149:navigation.c  ****     
 150:navigation.c  ****     // safetyDistanceCheck();        // CALL this if you want to recalibrate
 151:navigation.c  ****     
 152:navigation.c  ****     int count_left;                 // counts the encoder values
 153:navigation.c  ****     int count_right;
 154:navigation.c  ****     int speed_left = speed;         // the set speed of the motors
 155:navigation.c  ****     int speed_right = speed;
 156:navigation.c  ****     int front_sensor_flag = FALSE;
 157:navigation.c  ****                                   // the ultrasonic sensor we will be using 
 158:navigation.c  ****     int distance_sensor;            // the measured distance of the sensor
 159:navigation.c  ****     
 160:navigation.c  ****     int old_count = -SAFETY_MARGIN*ENCODER_MULTIPLIER;  // used in the old failsafe to check how mu
 161:navigation.c  ****                                                         // will enter the failsafe check straight a
 162:navigation.c  ****     int emergency_exit = FALSE;
 163:navigation.c  ****     
 164:navigation.c  ****     // Check if we are closer to or further away from the side wall: 
 165:navigation.c  ****         int side_prox_sensor;
 166:navigation.c  ****         int initial_side_distance;
 167:navigation.c  ****         distanceSensor(SIDE_LEFT);
 168:navigation.c  ****         CyDelay(50);
 169:navigation.c  ****         distanceSensor(SIDE_RIGHT);
 170:navigation.c  ****         CyDelay(50);
 171:navigation.c  ****         if (ultrasonic_distances_mm[SIDE_LEFT] > ultrasonic_distances_mm[SIDE_RIGHT]) {
 172:navigation.c  ****             side_prox_sensor = SIDE_RIGHT; 
 173:navigation.c  ****             initial_side_distance = ultrasonic_distances_mm[SIDE_RIGHT];
 174:navigation.c  ****         }
 175:navigation.c  ****         else { side_prox_sensor = SIDE_LEFT; initial_side_distance = ultrasonic_distances_mm[SIDE_L
 176:navigation.c  ****     
 177:navigation.c  ****     // Setting the direction 
 178:navigation.c  ****     if (direction == FORWARD) { 
 179:navigation.c  ****         Motor_Left_Control_Write(0); 
 180:navigation.c  ****         Motor_Right_Control_Write(0); 
 181:navigation.c  ****     }
 182:navigation.c  ****     if (direction == BACKWARD) {
ARM GAS  C:\Users\Misha\AppData\Local\Temp\ccmv7pUT.s 			page 9


 183:navigation.c  ****         Motor_Left_Control_Write(1); 
 184:navigation.c  ****         Motor_Right_Control_Write(1);
 185:navigation.c  ****     }
 186:navigation.c  ****     
 187:navigation.c  ****     
 188:navigation.c  ****     if (ultrasonic_sensor == FRONT_SENSORS) {ultrasonic_sensor = FRONT_LEFT; front_sensor_flag = TR
 189:navigation.c  ****     
 190:navigation.c  ****     // This ensures that the initial sensing value is good 
 191:navigation.c  ****     ultrasonic_distances_mm[ultrasonic_sensor] = ARENA_WIDTH + 100;             // Enters the while
 192:navigation.c  ****     while (ultrasonic_distances_mm[ultrasonic_sensor] > ARENA_WIDTH) {          // protects against
 193:navigation.c  ****         distanceSensor(ultrasonic_sensor);
 194:navigation.c  ****         CyDelay(50);
 195:navigation.c  ****         distance_sensor = ultrasonic_distances_mm[ultrasonic_sensor];   // checks the distance meas
 196:navigation.c  ****         sprintf(output, "%d \t", distance_sensor);       
 197:navigation.c  ****         UART_1_PutString(output);
 198:navigation.c  ****     }
 199:navigation.c  ****     
 200:navigation.c  ****     if (front_sensor_flag == TRUE) {ultrasonic_sensor = FRONT_SENSORS; front_sensor_flag = FALSE; }
 201:navigation.c  ****     
 202:navigation.c  ****     Motor_Left_Driver_Wakeup();
 203:navigation.c  ****     Motor_Left_Driver_WriteCompare(speed_left);
 204:navigation.c  ****     Motor_Right_Driver_Wakeup();
 205:navigation.c  ****     Motor_Right_Driver_WriteCompare(speed_right);
 206:navigation.c  ****     
 207:navigation.c  ****     if (less_or_great == GREATER_THAN) {                                         // if distance_set
 208:navigation.c  ****         //UART_1_PutString("\n GREATER THAN LOOP: \n");
 209:navigation.c  ****         while (distance_sensor < abs(distance_set) && emergency_exit == FALSE) {               // T
 210:navigation.c  ****             
 211:navigation.c  ****             count_left = Motor_Left_Decoder_GetCounter();
 212:navigation.c  ****             count_right = Motor_Right_Decoder_GetCounter();
 213:navigation.c  ****             
 214:navigation.c  ****             // DRIFT CORRECTION:
 215:navigation.c  ****             if (abs(count_left) > abs(count_right)) {
 216:navigation.c  ****                 speed_left = speed - ADJUST;
 217:navigation.c  ****                 speed_right = speed + ADJUST;
 218:navigation.c  ****             }        
 219:navigation.c  ****             if (abs(count_right) > abs(count_left)) {
 220:navigation.c  ****                 speed_right = speed - ADJUST;              
 221:navigation.c  ****                 speed_left = speed + ADJUST;
 222:navigation.c  ****             }
 223:navigation.c  ****             // end of drift correction 
 224:navigation.c  ****             
 225:navigation.c  ****             Motor_Left_Driver_WriteCompare(speed_left);         // updates the driver speed
 226:navigation.c  ****             Motor_Right_Driver_WriteCompare(speed_right);
 227:navigation.c  ****             
 228:navigation.c  ****             // When you want to do both front sensors: 
 229:navigation.c  ****             if (ultrasonic_sensor == FRONT_SENSORS && front_sensor_flag == TRUE) {
 230:navigation.c  ****                 distanceSensor(FRONT_LEFT);
 231:navigation.c  ****                 CyDelay(50);
 232:navigation.c  ****                 distance_sensor = ultrasonic_distances_mm[ultrasonic_sensor];   // checks the dista
 233:navigation.c  ****                 front_sensor_flag = FALSE;
 234:navigation.c  ****             }
 235:navigation.c  ****             else if (ultrasonic_sensor == FRONT_SENSORS && front_sensor_flag == FALSE) {
 236:navigation.c  ****                 distanceSensor(FRONT_RIGHT);
 237:navigation.c  ****                 CyDelay(50);
 238:navigation.c  ****                 distance_sensor = ultrasonic_distances_mm[ultrasonic_sensor];   // checks the dista
 239:navigation.c  ****                 front_sensor_flag = TRUE;
ARM GAS  C:\Users\Misha\AppData\Local\Temp\ccmv7pUT.s 			page 10


 240:navigation.c  ****             }
 241:navigation.c  ****             else {
 242:navigation.c  ****                 distanceSensor(ultrasonic_sensor);
 243:navigation.c  ****                 CyDelay(50);
 244:navigation.c  ****                 distance_sensor = ultrasonic_distances_mm[ultrasonic_sensor];   // checks the dista
 245:navigation.c  ****                 sprintf(output, "%d \t", distance_sensor);       
 246:navigation.c  ****                 UART_1_PutString(output);
 247:navigation.c  ****             }
 248:navigation.c  ****             
 249:navigation.c  ****             // FAILSAFES:
 250:navigation.c  ****                 // the failsafes will alternate between each other if failsafe is activated
 251:navigation.c  ****                 // they should both run within one safety margin
 252:navigation.c  ****                 // if you want to get rid of one of the failsafes, you will need to double the safe
 253:navigation.c  ****             int failsafe_alternator = TRUE;
 254:navigation.c  ****             
 255:navigation.c  ****             // FAILSAFE forward & backward
 256:navigation.c  ****             if (abs(count_left) > (old_count + (SAFETY_MARGIN/2)*ENCODER_MULTIPLIER - 100) 
 257:navigation.c  ****                                         && failsafe_alternator == TRUE 
 258:navigation.c  ****                                         && activate_safety == TRUE){
 259:navigation.c  ****                 emergency_exit = failsafe(direction);
 260:navigation.c  ****                 old_count = count_left;
 261:navigation.c  ****                 failsafe_alternator = FALSE;
 262:navigation.c  ****             }
 263:navigation.c  ****                         
 264:navigation.c  ****             //  side sensors sensors
 265:navigation.c  ****             if (abs(count_left) > (old_count + (SAFETY_MARGIN/2)*ENCODER_MULTIPLIER - 100)
 266:navigation.c  ****                                         && failsafe_alternator == FALSE 
 267:navigation.c  ****                                         && activate_safety == TRUE){
 268:navigation.c  ****                 failsafeSideSensors(side_prox_sensor, initial_side_distance);
 269:navigation.c  ****                 old_count = count_left;
 270:navigation.c  ****                 failsafe_alternator = TRUE;
 271:navigation.c  ****             }
 272:navigation.c  ****         } 
 273:navigation.c  ****     }
 274:navigation.c  ****     
 275:navigation.c  ****     if (less_or_great == LESS_THAN) {                                         // if distance_set is
 276:navigation.c  ****         //UART_1_PutString("\n LESS THAN LOOP: \n");
 277:navigation.c  ****         while (distance_sensor > abs(distance_set) && emergency_exit == FALSE){                    
 278:navigation.c  ****             
 279:navigation.c  ****             count_left = Motor_Left_Decoder_GetCounter();
 280:navigation.c  ****             count_right = Motor_Right_Decoder_GetCounter();
 281:navigation.c  ****             
 282:navigation.c  ****             // DRIFT CORRECTION:
 283:navigation.c  ****             if (abs(count_left) > abs(count_right)) {
 284:navigation.c  ****                 speed_left = speed - ADJUST;
 285:navigation.c  ****                 speed_right = speed + ADJUST;
 286:navigation.c  ****             }        
 287:navigation.c  ****             if (abs(count_right) > abs(count_left)) {
 288:navigation.c  ****                     speed_right = speed - ADJUST;              // If the speeds are equal, we decre
 289:navigation.c  ****                                                         // adjust tolerance 
 290:navigation.c  ****                     speed_left = speed + ADJUST;
 291:navigation.c  ****             }
 292:navigation.c  ****             // end of drift correction 
 293:navigation.c  ****             
 294:navigation.c  ****             Motor_Left_Driver_WriteCompare(speed_left);         // updates the driver speed
 295:navigation.c  ****             Motor_Right_Driver_WriteCompare(speed_right);
 296:navigation.c  ****             
ARM GAS  C:\Users\Misha\AppData\Local\Temp\ccmv7pUT.s 			page 11


 297:navigation.c  ****             distanceSensor(ultrasonic_sensor);
 298:navigation.c  ****             CyDelay(50);
 299:navigation.c  ****             distance_sensor = ultrasonic_distances_mm[ultrasonic_sensor];   // checks the distance 
 300:navigation.c  ****             sprintf(output, "%d \t", distance_sensor);       
 301:navigation.c  ****             UART_1_PutString(output);
 302:navigation.c  ****             
 303:navigation.c  ****             // FAILSAFES:
 304:navigation.c  ****                 // the failsafes will alternate between each other if failsafe is activated
 305:navigation.c  ****                 // they should both run within one safety margin
 306:navigation.c  ****                 // if you want to get rid of one of the failsafes, you will need to double the safe
 307:navigation.c  ****             int failsafe_alternator = TRUE;
 308:navigation.c  ****             
 309:navigation.c  ****             // FAILSAFE forward & backward
 310:navigation.c  ****             if (abs(count_left) > (old_count + (SAFETY_MARGIN/2)*ENCODER_MULTIPLIER - 100) 
 311:navigation.c  ****                                         && failsafe_alternator == TRUE 
 312:navigation.c  ****                                         && activate_safety == TRUE){
 313:navigation.c  ****                 emergency_exit = failsafe(direction);
 314:navigation.c  ****                 old_count = count_left;
 315:navigation.c  ****                 failsafe_alternator = FALSE;
 316:navigation.c  ****             }
 317:navigation.c  ****                         
 318:navigation.c  ****             //  side sensors sensors
 319:navigation.c  ****             if (abs(count_left) > (old_count + (SAFETY_MARGIN/2)*ENCODER_MULTIPLIER - 100)
 320:navigation.c  ****                                         && failsafe_alternator == FALSE 
 321:navigation.c  ****                                         && activate_safety == TRUE){
 322:navigation.c  ****                 failsafeSideSensors(side_prox_sensor, initial_side_distance);
 323:navigation.c  ****                 old_count = count_left;
 324:navigation.c  ****                 failsafe_alternator = TRUE;
 325:navigation.c  ****             }
 326:navigation.c  ****         } 
 327:navigation.c  ****     }
 328:navigation.c  ****     
 329:navigation.c  ****     
 330:navigation.c  ****     
 331:navigation.c  ****     //sprintf(output, "left motor: %d \n", count_left);       
 332:navigation.c  ****     //UART_1_PutString(output);
 333:navigation.c  ****     //sprintf(output, "right motor: %d \n", count_right);      
 334:navigation.c  ****     //UART_1_PutString(output);
 335:navigation.c  ****         
 336:navigation.c  ****     // final check of sensor:
 337:navigation.c  ****     distanceSensor(ultrasonic_sensor);
 338:navigation.c  ****     CyDelay(50);
 339:navigation.c  ****     distance_sensor = ultrasonic_distances_mm[ultrasonic_sensor];   // checks the distance measured
 340:navigation.c  ****     sprintf(output, "\n fin: %d \n", distance_sensor);    
 341:navigation.c  ****     UART_1_PutString(output);
 342:navigation.c  ****     
 343:navigation.c  ****     Motor_Left_Decoder_SetCounter(0);                       // RESET the decoders to 0
 344:navigation.c  ****     Motor_Right_Decoder_SetCounter(0);   
 345:navigation.c  ****     
 346:navigation.c  ****     Motor_Left_Driver_Sleep();              // Puts motors to sleep 
 347:navigation.c  ****     Motor_Right_Driver_Sleep();
 348:navigation.c  ****     
 349:navigation.c  **** }
 350:navigation.c  **** 
 351:navigation.c  **** void changeOrientation(int orientation_change, int speed) {
 268              		.loc 1 351 0
 269              		.cfi_startproc
ARM GAS  C:\Users\Misha\AppData\Local\Temp\ccmv7pUT.s 			page 12


 270              		@ args = 0, pretend = 0, frame = 0
 271              		@ frame_needed = 0, uses_anonymous_args = 0
 272              	.LVL44:
 273 0000 10B5     		push	{r4, lr}
 274              		.cfi_def_cfa_offset 8
 275              		.cfi_offset 4, -8
 276              		.cfi_offset 14, -4
 277 0002 0446     		mov	r4, r0
 352:navigation.c  ****     //define NORTH 0
 353:navigation.c  ****     //define EAST 1
 354:navigation.c  ****     //define SOUTH 2
 355:navigation.c  ****     //define WEST 3
 356:navigation.c  ****     int degree_change;
 357:navigation.c  ****     
 358:navigation.c  ****     // Incorporate some failsafes so that it turns in a direction that won't hit anything:
 359:navigation.c  ****         // failsafes:
 360:navigation.c  ****     
 361:navigation.c  ****     int change = orientation_change - internal_orientation;
 278              		.loc 1 361 0
 279 0004 0B4B     		ldr	r3, .L23
 280 0006 1868     		ldr	r0, [r3]
 281              	.LVL45:
 282 0008 201A     		subs	r0, r4, r0
 283              	.LVL46:
 362:navigation.c  ****     degree_change = 90*change;                                  // converts the amount of degrees w
 284              		.loc 1 362 0
 285 000a 5A23     		movs	r3, #90
 286 000c 03FB00F0 		mul	r0, r3, r0
 287              	.LVL47:
 363:navigation.c  ****     
 364:navigation.c  ****     if (degree_change == 270 || degree_change == -270)
 288              		.loc 1 364 0
 289 0010 B0F5877F 		cmp	r0, #270
 290 0014 02D0     		beq	.L20
 291              		.loc 1 364 0 is_stmt 0 discriminator 1
 292 0016 10F5877F 		cmn	r0, #270
 293 001a 04D1     		bne	.L21
 294              	.L20:
 365:navigation.c  ****     {
 366:navigation.c  ****         degree_change = degree_change/3;        
 295              		.loc 1 366 0 is_stmt 1
 296 001c 064B     		ldr	r3, .L23+4
 297 001e 83FB0023 		smull	r2, r3, r3, r0
 298              	.LVL48:
 367:navigation.c  ****         degree_change = -1*degree_change;       
 299              		.loc 1 367 0
 300 0022 C3EBE070 		rsb	r0, r3, r0, asr #31
 301              	.LVL49:
 302              	.L21:
 368:navigation.c  ****     }
 369:navigation.c  ****     
 370:navigation.c  ****     moveSwivel(degree_change, speed, TRUE);
 303              		.loc 1 370 0
 304 0026 0122     		movs	r2, #1
 305 0028 FFF7FEFF 		bl	moveSwivel
 306              	.LVL50:
 371:navigation.c  ****     internal_orientation = orientation_change;  
ARM GAS  C:\Users\Misha\AppData\Local\Temp\ccmv7pUT.s 			page 13


 307              		.loc 1 371 0
 308 002c 014B     		ldr	r3, .L23
 309 002e 1C60     		str	r4, [r3]
 310 0030 10BD     		pop	{r4, pc}
 311              	.LVL51:
 312              	.L24:
 313 0032 00BF     		.align	2
 314              	.L23:
 315 0034 00000000 		.word	internal_orientation
 316 0038 56555555 		.word	1431655766
 317              		.cfi_endproc
 318              	.LFE67:
 319              		.size	changeOrientation, .-changeOrientation
 320              		.section	.text.translateUntil,"ax",%progbits
 321              		.align	2
 322              		.global	translateUntil
 323              		.thumb
 324              		.thumb_func
 325              		.type	translateUntil, %function
 326              	translateUntil:
 327              	.LFB68:
 372:navigation.c  **** }
 373:navigation.c  **** 
 374:navigation.c  **** void translateUntil(int distance_set, int direction, int less_or_great, int ultrasonic_sensor, int 
 328              		.loc 1 374 0
 329              		.cfi_startproc
 330              		@ args = 4, pretend = 0, frame = 0
 331              		@ frame_needed = 0, uses_anonymous_args = 0
 332              	.LVL52:
 333 0000 2DE9F843 		push	{r3, r4, r5, r6, r7, r8, r9, lr}
 334              		.cfi_def_cfa_offset 32
 335              		.cfi_offset 3, -32
 336              		.cfi_offset 4, -28
 337              		.cfi_offset 5, -24
 338              		.cfi_offset 6, -20
 339              		.cfi_offset 7, -16
 340              		.cfi_offset 8, -12
 341              		.cfi_offset 9, -8
 342              		.cfi_offset 14, -4
 343 0004 8046     		mov	r8, r0
 344 0006 0F46     		mov	r7, r1
 345 0008 9146     		mov	r9, r2
 346 000a 1C46     		mov	r4, r3
 347              	.LVL53:
 375:navigation.c  ****     // distance_set is in millimeteres
 376:navigation.c  ****     // will check the front two ultrasonics 
 377:navigation.c  ****     // will move until distance specified in function 
 378:navigation.c  ****     
 379:navigation.c  ****     // direction can be left or right
 380:navigation.c  ****     
 381:navigation.c  ****     int count_left;                 // counts the encoder values
 382:navigation.c  ****     int count_right;
 383:navigation.c  ****     int old_count = -SAFETY_MARGIN*ENCODER_MULTIPLIER;   // used in the old failsafe to check how m
 384:navigation.c  ****                                                         // will enter the failsafe straight away du
 385:navigation.c  ****     int speed_left = speed;         // the set speed of the motors
 386:navigation.c  ****     int speed_right = speed;
 387:navigation.c  ****     //int emergency_exit = FALSE;     // BREAKS out of the code in an emergency 
ARM GAS  C:\Users\Misha\AppData\Local\Temp\ccmv7pUT.s 			page 14


 388:navigation.c  ****                                   // the ultrasonic sensor we will be using 
 389:navigation.c  ****     int distance_sensor;            // the measured distance of the sensor
 390:navigation.c  **** 
 391:navigation.c  ****     
 392:navigation.c  ****     ultrasonic_distances_mm[ultrasonic_sensor] = ARENA_WIDTH + 100;             // So it will enter
 348              		.loc 1 392 0
 349 000c 40F21452 		movw	r2, #1300
 350              	.LVL54:
 351 0010 484B     		ldr	r3, .L39
 352              	.LVL55:
 353 0012 43F82420 		str	r2, [r3, r4, lsl #2]
 393:navigation.c  ****     while (ultrasonic_distances_mm[ultrasonic_sensor] > ARENA_WIDTH) {          // protects against
 354              		.loc 1 393 0
 355 0016 11E0     		b	.L26
 356              	.LVL56:
 357              	.L27:
 394:navigation.c  ****         distanceSensor(ultrasonic_sensor);
 358              		.loc 1 394 0
 359 0018 2046     		mov	r0, r4
 360 001a FFF7FEFF 		bl	distanceSensor
 361              	.LVL57:
 395:navigation.c  ****         CyDelay(50);
 362              		.loc 1 395 0
 363 001e 3220     		movs	r0, #50
 364 0020 FFF7FEFF 		bl	CyDelay
 365              	.LVL58:
 396:navigation.c  ****         distance_sensor = ultrasonic_distances_mm[ultrasonic_sensor];   // checks the distance meas
 366              		.loc 1 396 0
 367 0024 434B     		ldr	r3, .L39
 368 0026 53F82450 		ldr	r5, [r3, r4, lsl #2]
 369              	.LVL59:
 397:navigation.c  ****         sprintf(output, "%d \t", distance_sensor);       
 370              		.loc 1 397 0
 371 002a 434E     		ldr	r6, .L39+4
 372 002c 2A46     		mov	r2, r5
 373 002e 4349     		ldr	r1, .L39+8
 374 0030 3046     		mov	r0, r6
 375 0032 FFF7FEFF 		bl	sprintf
 376              	.LVL60:
 398:navigation.c  ****         UART_1_PutString(output);
 377              		.loc 1 398 0
 378 0036 3046     		mov	r0, r6
 379 0038 FFF7FEFF 		bl	UART_1_PutString
 380              	.LVL61:
 381              	.L26:
 393:navigation.c  ****         distanceSensor(ultrasonic_sensor);
 382              		.loc 1 393 0
 383 003c 3D4B     		ldr	r3, .L39
 384 003e 53F82430 		ldr	r3, [r3, r4, lsl #2]
 385 0042 B3F5966F 		cmp	r3, #1200
 386 0046 E7DC     		bgt	.L27
 399:navigation.c  ****     }
 400:navigation.c  ****     
 401:navigation.c  ****     //Motor_Left_Driver_Wakeup();
 402:navigation.c  ****     //Motor_Left_Driver_WriteCompare(speed_left);
 403:navigation.c  ****     //Motor_Right_Driver_Wakeup();
 404:navigation.c  ****     //Motor_Right_Driver_WriteCompare(speed_right);
ARM GAS  C:\Users\Misha\AppData\Local\Temp\ccmv7pUT.s 			page 15


 405:navigation.c  ****         
 406:navigation.c  ****     if (less_or_great == LESS_THAN) {                                         // if distance_set is
 387              		.loc 1 406 0
 388 0048 B9F1040F 		cmp	r9, #4
 389 004c 31D1     		bne	.L29
 390 004e 2AE0     		b	.L28
 391              	.L32:
 407:navigation.c  ****         while (distance_sensor > abs(distance_set)) {                // This adjusts for drift 
 408:navigation.c  ****             
 409:navigation.c  ****             UART_1_PutString("entering greater than\n");
 392              		.loc 1 409 0
 393 0050 3B48     		ldr	r0, .L39+12
 394 0052 FFF7FEFF 		bl	UART_1_PutString
 395              	.LVL62:
 410:navigation.c  ****             
 411:navigation.c  ****             count_left = Motor_Left_Decoder_GetCounter();
 396              		.loc 1 411 0
 397 0056 FFF7FEFF 		bl	Motor_Left_Decoder_GetCounter
 398              	.LVL63:
 412:navigation.c  ****             count_right = Motor_Right_Decoder_GetCounter();
 399              		.loc 1 412 0
 400 005a FFF7FEFF 		bl	Motor_Right_Decoder_GetCounter
 401              	.LVL64:
 413:navigation.c  ****             
 414:navigation.c  ****             if (direction == LEFT) {
 402              		.loc 1 414 0
 403 005e 022F     		cmp	r7, #2
 404 0060 06D1     		bne	.L30
 415:navigation.c  ****                 translateMoveDynamic(-5, 7, speed, FALSE);      // This will translate to the left 
 405              		.loc 1 415 0
 406 0062 0023     		movs	r3, #0
 407 0064 089A     		ldr	r2, [sp, #32]
 408 0066 0721     		movs	r1, #7
 409 0068 6FF00400 		mvn	r0, #4
 410 006c FFF7FEFF 		bl	translateMoveDynamic
 411              	.LVL65:
 412              	.L30:
 416:navigation.c  ****             }
 417:navigation.c  ****             
 418:navigation.c  ****             if (direction == RIGHT) {
 413              		.loc 1 418 0
 414 0070 032F     		cmp	r7, #3
 415 0072 06D1     		bne	.L31
 419:navigation.c  ****                 translateMoveDynamic(5, -7, speed, FALSE);      // This will translate to the right
 416              		.loc 1 419 0
 417 0074 0023     		movs	r3, #0
 418 0076 089A     		ldr	r2, [sp, #32]
 419 0078 6FF00601 		mvn	r1, #6
 420 007c 0520     		movs	r0, #5
 421 007e FFF7FEFF 		bl	translateMoveDynamic
 422              	.LVL66:
 423              	.L31:
 420:navigation.c  ****             }
 421:navigation.c  ****                         
 422:navigation.c  ****             //Motor_Left_Driver_WriteCompare(speed_left);     // update the drivers
 423:navigation.c  ****             //Motor_Right_Driver_WriteCompare(speed_right);
 424:navigation.c  ****             
ARM GAS  C:\Users\Misha\AppData\Local\Temp\ccmv7pUT.s 			page 16


 425:navigation.c  ****             distanceSensor(ultrasonic_sensor);
 424              		.loc 1 425 0
 425 0082 2046     		mov	r0, r4
 426 0084 FFF7FEFF 		bl	distanceSensor
 427              	.LVL67:
 426:navigation.c  ****             CyDelay(50);
 428              		.loc 1 426 0
 429 0088 3220     		movs	r0, #50
 430 008a FFF7FEFF 		bl	CyDelay
 431              	.LVL68:
 427:navigation.c  ****             //distanceCheckOne(ultrasonic_sensor);                            // checks the distanc
 428:navigation.c  ****             distance_sensor = ultrasonic_distances_mm[ultrasonic_sensor];   // checks the distance 
 432              		.loc 1 428 0
 433 008e 294B     		ldr	r3, .L39
 434 0090 53F82450 		ldr	r5, [r3, r4, lsl #2]
 435              	.LVL69:
 429:navigation.c  ****             sprintf(output, "%d \t", distance_sensor);       
 436              		.loc 1 429 0
 437 0094 284E     		ldr	r6, .L39+4
 438 0096 2A46     		mov	r2, r5
 439 0098 2849     		ldr	r1, .L39+8
 440 009a 3046     		mov	r0, r6
 441 009c FFF7FEFF 		bl	sprintf
 442              	.LVL70:
 430:navigation.c  ****             UART_1_PutString(output);
 443              		.loc 1 430 0
 444 00a0 3046     		mov	r0, r6
 445 00a2 FFF7FEFF 		bl	UART_1_PutString
 446              	.LVL71:
 447              	.L28:
 407:navigation.c  ****             
 448              		.loc 1 407 0
 449 00a6 88EAE873 		eor	r3, r8, r8, asr #31
 450 00aa A3EBE873 		sub	r3, r3, r8, asr #31
 451 00ae 9D42     		cmp	r5, r3
 452 00b0 CEDC     		bgt	.L32
 453              	.L29:
 431:navigation.c  ****             
 432:navigation.c  ****            
 433:navigation.c  ****             
 434:navigation.c  ****         }
 435:navigation.c  ****     }
 436:navigation.c  ****     
 437:navigation.c  ****     if (less_or_great == GREATER_THAN){                                         // if distance_set 
 454              		.loc 1 437 0
 455 00b2 B9F1050F 		cmp	r9, #5
 456 00b6 31D1     		bne	.L34
 457 00b8 2AE0     		b	.L33
 458              	.L37:
 438:navigation.c  ****         while (distance_sensor < abs(distance_set)) {                // This adjusts for drift 
 439:navigation.c  ****             count_left = Motor_Left_Decoder_GetCounter();
 459              		.loc 1 439 0
 460 00ba FFF7FEFF 		bl	Motor_Left_Decoder_GetCounter
 461              	.LVL72:
 440:navigation.c  ****             count_right = Motor_Right_Decoder_GetCounter();
 462              		.loc 1 440 0
 463 00be FFF7FEFF 		bl	Motor_Right_Decoder_GetCounter
ARM GAS  C:\Users\Misha\AppData\Local\Temp\ccmv7pUT.s 			page 17


 464              	.LVL73:
 441:navigation.c  ****             
 442:navigation.c  ****             UART_1_PutString("entering less than\n");
 465              		.loc 1 442 0
 466 00c2 2048     		ldr	r0, .L39+16
 467 00c4 FFF7FEFF 		bl	UART_1_PutString
 468              	.LVL74:
 443:navigation.c  **** 
 444:navigation.c  ****             if (direction == LEFT) {
 469              		.loc 1 444 0
 470 00c8 022F     		cmp	r7, #2
 471 00ca 06D1     		bne	.L35
 445:navigation.c  ****                 translateMoveDynamic(-5, 7, speed, FALSE);      // This will translate to the left 
 472              		.loc 1 445 0
 473 00cc 0023     		movs	r3, #0
 474 00ce 089A     		ldr	r2, [sp, #32]
 475 00d0 0721     		movs	r1, #7
 476 00d2 6FF00400 		mvn	r0, #4
 477 00d6 FFF7FEFF 		bl	translateMoveDynamic
 478              	.LVL75:
 479              	.L35:
 446:navigation.c  ****             }
 447:navigation.c  ****             
 448:navigation.c  ****             if (direction == RIGHT) {
 480              		.loc 1 448 0
 481 00da 032F     		cmp	r7, #3
 482 00dc 06D1     		bne	.L36
 449:navigation.c  ****                 translateMoveDynamic(5, -7, speed, FALSE);      // This will translate to the right
 483              		.loc 1 449 0
 484 00de 0023     		movs	r3, #0
 485 00e0 089A     		ldr	r2, [sp, #32]
 486 00e2 6FF00601 		mvn	r1, #6
 487 00e6 0520     		movs	r0, #5
 488 00e8 FFF7FEFF 		bl	translateMoveDynamic
 489              	.LVL76:
 490              	.L36:
 450:navigation.c  ****             }
 451:navigation.c  ****             
 452:navigation.c  ****             //Motor_Left_Driver_WriteCompare(speed_left);         // update the drivers
 453:navigation.c  ****             //Motor_Right_Driver_WriteCompare(speed_right);
 454:navigation.c  ****             
 455:navigation.c  ****             distanceSensor(ultrasonic_sensor);
 491              		.loc 1 455 0
 492 00ec 2046     		mov	r0, r4
 493 00ee FFF7FEFF 		bl	distanceSensor
 494              	.LVL77:
 456:navigation.c  ****             CyDelay(50);
 495              		.loc 1 456 0
 496 00f2 3220     		movs	r0, #50
 497 00f4 FFF7FEFF 		bl	CyDelay
 498              	.LVL78:
 457:navigation.c  ****             
 458:navigation.c  ****             distance_sensor = ultrasonic_distances_mm[ultrasonic_sensor];   // checks the distance 
 499              		.loc 1 458 0
 500 00f8 0E4B     		ldr	r3, .L39
 501 00fa 53F82450 		ldr	r5, [r3, r4, lsl #2]
 502              	.LVL79:
ARM GAS  C:\Users\Misha\AppData\Local\Temp\ccmv7pUT.s 			page 18


 459:navigation.c  ****             sprintf(output, "%d \t", distance_sensor);       
 503              		.loc 1 459 0
 504 00fe 0E4E     		ldr	r6, .L39+4
 505 0100 2A46     		mov	r2, r5
 506 0102 0E49     		ldr	r1, .L39+8
 507 0104 3046     		mov	r0, r6
 508 0106 FFF7FEFF 		bl	sprintf
 509              	.LVL80:
 460:navigation.c  ****             UART_1_PutString(output);
 510              		.loc 1 460 0
 511 010a 3046     		mov	r0, r6
 512 010c FFF7FEFF 		bl	UART_1_PutString
 513              	.LVL81:
 514              	.L33:
 438:navigation.c  ****             count_left = Motor_Left_Decoder_GetCounter();
 515              		.loc 1 438 0
 516 0110 88EAE873 		eor	r3, r8, r8, asr #31
 517 0114 A3EBE873 		sub	r3, r3, r8, asr #31
 518 0118 9D42     		cmp	r5, r3
 519 011a CEDB     		blt	.L37
 520              	.L34:
 461:navigation.c  ****             
 462:navigation.c  ****         }
 463:navigation.c  ****     }
 464:navigation.c  ****     
 465:navigation.c  ****     //sprintf(output, "left motor: %d \n", count_left);       
 466:navigation.c  ****     //UART_1_PutString(output);
 467:navigation.c  ****     //sprintf(output, "right motor: %d \n", count_right);      
 468:navigation.c  ****     //UART_1_PutString(output);
 469:navigation.c  ****         
 470:navigation.c  ****     UART_1_PutString("exited loop");
 521              		.loc 1 470 0
 522 011c 0A48     		ldr	r0, .L39+20
 523 011e FFF7FEFF 		bl	UART_1_PutString
 524              	.LVL82:
 471:navigation.c  ****     
 472:navigation.c  ****     Motor_Left_Decoder_SetCounter(0);                       // RESET the decoders to 0
 525              		.loc 1 472 0
 526 0122 0020     		movs	r0, #0
 527 0124 FFF7FEFF 		bl	Motor_Left_Decoder_SetCounter
 528              	.LVL83:
 473:navigation.c  ****     Motor_Right_Decoder_SetCounter(0);   
 529              		.loc 1 473 0
 530 0128 0020     		movs	r0, #0
 531 012a FFF7FEFF 		bl	Motor_Right_Decoder_SetCounter
 532              	.LVL84:
 533 012e BDE8F883 		pop	{r3, r4, r5, r6, r7, r8, r9, pc}
 534              	.LVL85:
 535              	.L40:
 536 0132 00BF     		.align	2
 537              	.L39:
 538 0134 00000000 		.word	ultrasonic_distances_mm
 539 0138 00000000 		.word	output
 540 013c 08000000 		.word	.LC1
 541 0140 10000000 		.word	.LC2
 542 0144 28000000 		.word	.LC3
 543 0148 3C000000 		.word	.LC4
ARM GAS  C:\Users\Misha\AppData\Local\Temp\ccmv7pUT.s 			page 19


 544              		.cfi_endproc
 545              	.LFE68:
 546              		.size	translateUntil, .-translateUntil
 547              		.section	.text.failsafe,"ax",%progbits
 548              		.align	2
 549              		.global	failsafe
 550              		.thumb
 551              		.thumb_func
 552              		.type	failsafe, %function
 553              	failsafe:
 554              	.LFB69:
 474:navigation.c  ****     
 475:navigation.c  ****     //Motor_Left_Driver_Sleep();              // Puts motors to sleep 
 476:navigation.c  ****     //Motor_Right_Driver_Sleep();
 477:navigation.c  ****     
 478:navigation.c  **** }
 479:navigation.c  **** 
 480:navigation.c  **** int failsafe(int direction) {
 555              		.loc 1 480 0
 556              		.cfi_startproc
 557              		@ args = 0, pretend = 0, frame = 0
 558              		@ frame_needed = 0, uses_anonymous_args = 0
 559              	.LVL86:
 560 0000 10B5     		push	{r4, lr}
 561              		.cfi_def_cfa_offset 8
 562              		.cfi_offset 4, -8
 563              		.cfi_offset 14, -4
 481:navigation.c  ****     int check_distance;
 482:navigation.c  ****     
 483:navigation.c  ****     // SAFETY OVERRIDE:
 484:navigation.c  ****     if(safety_override == TRUE){
 564              		.loc 1 484 0
 565 0002 1C4B     		ldr	r3, .L49
 566 0004 1B68     		ldr	r3, [r3]
 567 0006 012B     		cmp	r3, #1
 568 0008 2DD0     		beq	.L45
 485:navigation.c  ****         return FALSE;
 486:navigation.c  ****     }
 487:navigation.c  ****     
 488:navigation.c  ****     // detecting direction:    
 489:navigation.c  ****     if (direction == BACKWARD) {
 569              		.loc 1 489 0
 570 000a A0B9     		cbnz	r0, .L43
 490:navigation.c  ****         distanceSensor(BACK);
 571              		.loc 1 490 0
 572 000c 0420     		movs	r0, #4
 573              	.LVL87:
 574 000e FFF7FEFF 		bl	distanceSensor
 575              	.LVL88:
 491:navigation.c  ****         CyDelay(50);
 576              		.loc 1 491 0
 577 0012 3220     		movs	r0, #50
 578 0014 FFF7FEFF 		bl	CyDelay
 579              	.LVL89:
 492:navigation.c  ****         
 493:navigation.c  ****         check_distance = ultrasonic_distances_mm[BACK];   // checks the distance measured by the ul
 580              		.loc 1 493 0
ARM GAS  C:\Users\Misha\AppData\Local\Temp\ccmv7pUT.s 			page 20


 581 0018 174B     		ldr	r3, .L49+4
 582 001a 1A69     		ldr	r2, [r3, #16]
 583              	.LVL90:
 494:navigation.c  ****         if (check_distance < SAFETY_MARGIN && check_distance > 0) { 
 584              		.loc 1 494 0
 585 001c 531E     		subs	r3, r2, #1
 586 001e 532B     		cmp	r3, #83
 587 0020 23D8     		bhi	.L46
 495:navigation.c  ****             sprintf(output, "SAFETY MARGIN ACTIVATED @ %d\n", check_distance);      
 588              		.loc 1 495 0
 589 0022 164C     		ldr	r4, .L49+8
 590 0024 1649     		ldr	r1, .L49+12
 591 0026 2046     		mov	r0, r4
 592 0028 FFF7FEFF 		bl	sprintf
 593              	.LVL91:
 496:navigation.c  ****             UART_1_PutString(output); 
 594              		.loc 1 496 0
 595 002c 2046     		mov	r0, r4
 596 002e FFF7FEFF 		bl	UART_1_PutString
 597              	.LVL92:
 497:navigation.c  ****             return TRUE; 
 598              		.loc 1 497 0
 599 0032 0120     		movs	r0, #1
 600 0034 10BD     		pop	{r4, pc}
 601              	.LVL93:
 602              	.L43:
 498:navigation.c  ****         }
 499:navigation.c  ****         else { return FALSE; }
 500:navigation.c  ****     }
 501:navigation.c  ****     else if (direction == FORWARD) {
 603              		.loc 1 501 0
 604 0036 0128     		cmp	r0, #1
 605 0038 14D1     		bne	.L44
 502:navigation.c  ****         distanceSensor(FRONT_LEFT);
 606              		.loc 1 502 0
 607 003a 0020     		movs	r0, #0
 608              	.LVL94:
 609 003c FFF7FEFF 		bl	distanceSensor
 610              	.LVL95:
 503:navigation.c  ****         CyDelay(50);
 611              		.loc 1 503 0
 612 0040 3220     		movs	r0, #50
 613 0042 FFF7FEFF 		bl	CyDelay
 614              	.LVL96:
 504:navigation.c  ****         //distanceSensor(FRONT_RIGHT);      // May need to add this in of front left sensor isnt en
 505:navigation.c  ****         //CyDelay(50);
 506:navigation.c  ****         
 507:navigation.c  ****         check_distance = ultrasonic_distances_mm[FRONT_LEFT];   // checks the distance measured by 
 615              		.loc 1 507 0
 616 0046 0C4B     		ldr	r3, .L49+4
 617 0048 1A68     		ldr	r2, [r3]
 618              	.LVL97:
 508:navigation.c  ****         if (check_distance < SAFETY_MARGIN && check_distance > 0) { 
 619              		.loc 1 508 0
 620 004a 531E     		subs	r3, r2, #1
 621 004c 532B     		cmp	r3, #83
 622 004e 0ED8     		bhi	.L47
ARM GAS  C:\Users\Misha\AppData\Local\Temp\ccmv7pUT.s 			page 21


 509:navigation.c  ****             sprintf(output, "SAFETY MARGIN ACTIVATED @ %d\n", check_distance);      
 623              		.loc 1 509 0
 624 0050 0A4C     		ldr	r4, .L49+8
 625 0052 0B49     		ldr	r1, .L49+12
 626 0054 2046     		mov	r0, r4
 627 0056 FFF7FEFF 		bl	sprintf
 628              	.LVL98:
 510:navigation.c  ****             UART_1_PutString(output); 
 629              		.loc 1 510 0
 630 005a 2046     		mov	r0, r4
 631 005c FFF7FEFF 		bl	UART_1_PutString
 632              	.LVL99:
 511:navigation.c  ****             return TRUE; 
 633              		.loc 1 511 0
 634 0060 0120     		movs	r0, #1
 635 0062 10BD     		pop	{r4, pc}
 636              	.LVL100:
 637              	.L44:
 638              	.LVL101:
 512:navigation.c  ****         }
 513:navigation.c  ****         else { return FALSE; }
 514:navigation.c  ****     }
 515:navigation.c  ****     
 516:navigation.c  ****     // detecting side sensor usage: 
 517:navigation.c  ****     
 518:navigation.c  ****     
 519:navigation.c  ****     
 520:navigation.c  ****     // Considerations:
 521:navigation.c  ****         // we may not want this failsafe enabled in some cases
 522:navigation.c  ****     
 523:navigation.c  **** }
 639              		.loc 1 523 0
 640 0064 10BD     		pop	{r4, pc}
 641              	.LVL102:
 642              	.L45:
 485:navigation.c  ****     }
 643              		.loc 1 485 0
 644 0066 0020     		movs	r0, #0
 645              	.LVL103:
 646 0068 10BD     		pop	{r4, pc}
 647              	.LVL104:
 648              	.L46:
 499:navigation.c  ****     }
 649              		.loc 1 499 0
 650 006a 0020     		movs	r0, #0
 651 006c 10BD     		pop	{r4, pc}
 652              	.L47:
 513:navigation.c  ****     }
 653              		.loc 1 513 0
 654 006e 0020     		movs	r0, #0
 655              		.loc 1 523 0
 656 0070 10BD     		pop	{r4, pc}
 657              	.L50:
 658 0072 00BF     		.align	2
 659              	.L49:
 660 0074 00000000 		.word	safety_override
 661 0078 00000000 		.word	ultrasonic_distances_mm
ARM GAS  C:\Users\Misha\AppData\Local\Temp\ccmv7pUT.s 			page 22


 662 007c 00000000 		.word	output
 663 0080 48000000 		.word	.LC5
 664              		.cfi_endproc
 665              	.LFE69:
 666              		.size	failsafe, .-failsafe
 667              		.section	.text.straightAdjust,"ax",%progbits
 668              		.align	2
 669              		.global	straightAdjust
 670              		.thumb
 671              		.thumb_func
 672              		.type	straightAdjust, %function
 673              	straightAdjust:
 674              	.LFB71:
 524:navigation.c  **** 
 525:navigation.c  **** void failsafeSideSensors(int side_sensing, int initial_value) {
 526:navigation.c  ****     
 527:navigation.c  ****     int drift_tolerance = 10;     // 10mm
 528:navigation.c  ****     int translate_direction;
 529:navigation.c  ****     
 530:navigation.c  ****     if (side_sensing == SIDE_LEFT) {translate_direction = RIGHT;} else { translate_direction = LEFT
 531:navigation.c  ****     
 532:navigation.c  ****         // SAFETY OVERRIDE:
 533:navigation.c  ****     if(safety_override == TRUE){
 534:navigation.c  ****         return;
 535:navigation.c  ****     }
 536:navigation.c  ****     
 537:navigation.c  ****     distanceSensor(side_sensing);
 538:navigation.c  ****     CyDelay(50);
 539:navigation.c  ****     
 540:navigation.c  ****     if (ultrasonic_distances_mm[side_sensing] > initial_value + drift_tolerance 
 541:navigation.c  ****                 || ultrasonic_distances_mm[side_sensing] < initial_value - drift_tolerance ){
 542:navigation.c  ****         // If it has drifted more than 10mm either side from the initial value, we perform a straig
 543:navigation.c  ****         //translateUntil(initial_value, translate_direction, GREATER_THAN,side_sensing,SPEED);   //
 544:navigation.c  ****                                                                                 // if this got trip
 545:navigation.c  ****         //translateMoveDynamic(translate_direction, 30, SPEED, FALSE);          // these are not th
 546:navigation.c  ****         straightAdjust();                                                       // straight adjust 
 547:navigation.c  ****         
 548:navigation.c  ****     }
 549:navigation.c  **** }
 550:navigation.c  **** 
 551:navigation.c  **** 
 552:navigation.c  **** void straightAdjust(void) {
 675              		.loc 1 552 0
 676              		.cfi_startproc
 677              		@ args = 0, pretend = 0, frame = 0
 678              		@ frame_needed = 0, uses_anonymous_args = 0
 679 0000 70B5     		push	{r4, r5, r6, lr}
 680              		.cfi_def_cfa_offset 16
 681              		.cfi_offset 4, -16
 682              		.cfi_offset 5, -12
 683              		.cfi_offset 6, -8
 684              		.cfi_offset 14, -4
 685 0002 82B0     		sub	sp, sp, #8
 686              		.cfi_def_cfa_offset 24
 687              	.LVL105:
 553:navigation.c  ****        
 554:navigation.c  ****     int front_left;
ARM GAS  C:\Users\Misha\AppData\Local\Temp\ccmv7pUT.s 			page 23


 555:navigation.c  ****     int front_right;
 556:navigation.c  ****     int difference = 300;
 688              		.loc 1 556 0
 689 0004 4FF49674 		mov	r4, #300
 557:navigation.c  ****     int tolerance = 1;
 558:navigation.c  ****     int max_difference = 800;
 559:navigation.c  ****     int ultra_delay = 50;
 560:navigation.c  ****     int speed = 25;
 561:navigation.c  ****        
 562:navigation.c  ****     // Ensure the initial readings are accurate: 
 563:navigation.c  ****     while (abs(difference) > max_difference) {              
 690              		.loc 1 563 0
 691 0008 29E0     		b	.L52
 692              	.LVL106:
 693              	.L53:
 564:navigation.c  ****         distanceSensor(FRONT_LEFT);
 694              		.loc 1 564 0
 695 000a 0020     		movs	r0, #0
 696 000c FFF7FEFF 		bl	distanceSensor
 697              	.LVL107:
 565:navigation.c  ****         CyDelay(50);                        // 50ms might not be enough ???
 698              		.loc 1 565 0
 699 0010 3220     		movs	r0, #50
 700 0012 FFF7FEFF 		bl	CyDelay
 701              	.LVL108:
 566:navigation.c  ****         sprintf(output, "%d \t", ultrasonic_distances_mm[FRONT_LEFT]);
 702              		.loc 1 566 0
 703 0016 7A4E     		ldr	r6, .L66
 704 0018 7A4C     		ldr	r4, .L66+4
 705              	.LVL109:
 706 001a 7B4D     		ldr	r5, .L66+8
 707 001c 3268     		ldr	r2, [r6]
 708 001e 2146     		mov	r1, r4
 709 0020 2846     		mov	r0, r5
 710 0022 FFF7FEFF 		bl	sprintf
 711              	.LVL110:
 567:navigation.c  ****         UART_1_PutString(output);
 712              		.loc 1 567 0
 713 0026 2846     		mov	r0, r5
 714 0028 FFF7FEFF 		bl	UART_1_PutString
 715              	.LVL111:
 568:navigation.c  ****         
 569:navigation.c  ****         distanceSensor(FRONT_RIGHT);
 716              		.loc 1 569 0
 717 002c 0120     		movs	r0, #1
 718 002e FFF7FEFF 		bl	distanceSensor
 719              	.LVL112:
 570:navigation.c  ****         CyDelay(50);
 720              		.loc 1 570 0
 721 0032 3220     		movs	r0, #50
 722 0034 FFF7FEFF 		bl	CyDelay
 723              	.LVL113:
 571:navigation.c  ****         sprintf(output, "%d \t", ultrasonic_distances_mm[FRONT_RIGHT]);
 724              		.loc 1 571 0
 725 0038 7268     		ldr	r2, [r6, #4]
 726 003a 2146     		mov	r1, r4
 727 003c 2846     		mov	r0, r5
ARM GAS  C:\Users\Misha\AppData\Local\Temp\ccmv7pUT.s 			page 24


 728 003e FFF7FEFF 		bl	sprintf
 729              	.LVL114:
 572:navigation.c  ****         UART_1_PutString(output);
 730              		.loc 1 572 0
 731 0042 2846     		mov	r0, r5
 732 0044 FFF7FEFF 		bl	UART_1_PutString
 733              	.LVL115:
 573:navigation.c  ****         
 574:navigation.c  ****         difference = ultrasonic_distances_mm[FRONT_LEFT] - ultrasonic_distances_mm[FRONT_RIGHT];
 734              		.loc 1 574 0
 735 0048 3468     		ldr	r4, [r6]
 736 004a 7368     		ldr	r3, [r6, #4]
 737 004c E41A     		subs	r4, r4, r3
 738              	.LVL116:
 575:navigation.c  ****         sprintf(output, "difference = %d, \n", difference);       
 739              		.loc 1 575 0
 740 004e 2246     		mov	r2, r4
 741 0050 6E49     		ldr	r1, .L66+12
 742 0052 2846     		mov	r0, r5
 743 0054 FFF7FEFF 		bl	sprintf
 744              	.LVL117:
 576:navigation.c  ****         UART_1_PutString(output);
 745              		.loc 1 576 0
 746 0058 2846     		mov	r0, r5
 747 005a FFF7FEFF 		bl	UART_1_PutString
 748              	.LVL118:
 749              	.L52:
 563:navigation.c  ****         distanceSensor(FRONT_LEFT);
 750              		.loc 1 563 0
 751 005e 84EAE473 		eor	r3, r4, r4, asr #31
 752 0062 A3EBE473 		sub	r3, r3, r4, asr #31
 753 0066 B3F5487F 		cmp	r3, #800
 754 006a CEDC     		bgt	.L53
 755 006c BAE0     		b	.L54
 756              	.L64:
 577:navigation.c  ****     }
 578:navigation.c  ****         
 579:navigation.c  ****     
 580:navigation.c  ****     // Adjust against the wall: 
 581:navigation.c  ****     int speed_left = speed;        // slow speed
 582:navigation.c  ****     int speed_right = speed;
 583:navigation.c  ****         
 584:navigation.c  ****     while(abs(difference) > tolerance ) {
 585:navigation.c  ****         
 586:navigation.c  ****         if (difference > 0)             // This means we need to move it right
 757              		.loc 1 586 0
 758 006e 002C     		cmp	r4, #0
 759 0070 51DD     		ble	.L55
 587:navigation.c  ****         {
 588:navigation.c  ****             Motor_Left_Control_Write(0); Motor_Right_Control_Write(1); 
 760              		.loc 1 588 0
 761 0072 0020     		movs	r0, #0
 762 0074 FFF7FEFF 		bl	Motor_Left_Control_Write
 763              	.LVL119:
 764 0078 0120     		movs	r0, #1
 765 007a FFF7FEFF 		bl	Motor_Right_Control_Write
 766              	.LVL120:
ARM GAS  C:\Users\Misha\AppData\Local\Temp\ccmv7pUT.s 			page 25


 589:navigation.c  ****             while (abs(difference) > tolerance 
 767              		.loc 1 589 0
 768 007e 0FE0     		b	.L56
 769              	.L58:
 590:navigation.c  ****                 && difference > 0
 591:navigation.c  ****                 && abs(difference) < max_difference)     // ensures working correctly
 592:navigation.c  ****             {
 593:navigation.c  **** 
 594:navigation.c  ****             distanceSensor(FRONT_LEFT);
 770              		.loc 1 594 0
 771 0080 0020     		movs	r0, #0
 772 0082 FFF7FEFF 		bl	distanceSensor
 773              	.LVL121:
 595:navigation.c  ****             CyDelay(ultra_delay);
 774              		.loc 1 595 0
 775 0086 3220     		movs	r0, #50
 776 0088 FFF7FEFF 		bl	CyDelay
 777              	.LVL122:
 596:navigation.c  ****             distanceSensor(FRONT_RIGHT);
 778              		.loc 1 596 0
 779 008c 0120     		movs	r0, #1
 780 008e FFF7FEFF 		bl	distanceSensor
 781              	.LVL123:
 597:navigation.c  ****             CyDelay(ultra_delay);
 782              		.loc 1 597 0
 783 0092 3220     		movs	r0, #50
 784 0094 FFF7FEFF 		bl	CyDelay
 785              	.LVL124:
 598:navigation.c  ****                       
 599:navigation.c  ****             difference = ultrasonic_distances_mm[FRONT_LEFT] - ultrasonic_distances_mm[FRONT_RIGHT]
 786              		.loc 1 599 0
 787 0098 594B     		ldr	r3, .L66
 788 009a 1C68     		ldr	r4, [r3]
 789              	.LVL125:
 790 009c 5B68     		ldr	r3, [r3, #4]
 791 009e E41A     		subs	r4, r4, r3
 792              	.LVL126:
 793              	.L56:
 589:navigation.c  ****                 && difference > 0
 794              		.loc 1 589 0
 795 00a0 84EAE473 		eor	r3, r4, r4, asr #31
 796 00a4 A3EBE473 		sub	r3, r3, r4, asr #31
 797 00a8 012B     		cmp	r3, #1
 798 00aa 04DD     		ble	.L57
 590:navigation.c  ****                 && abs(difference) < max_difference)     // ensures working correctly
 799              		.loc 1 590 0
 800 00ac 002C     		cmp	r4, #0
 801 00ae 02DD     		ble	.L57
 591:navigation.c  ****             {
 802              		.loc 1 591 0
 803 00b0 B3F5487F 		cmp	r3, #800
 804 00b4 E4DB     		blt	.L58
 805              	.L57:
 600:navigation.c  ****             
 601:navigation.c  ****             //sprintf(output, " %d , %d \t dif: %d, \n", ultrasonic_distances_mm[FRONT_LEFT], 
 602:navigation.c  ****             //                                            ultrasonic_distances_mm[FRONT_RIGHT],
 603:navigation.c  ****             //                                                                        difference); 
ARM GAS  C:\Users\Misha\AppData\Local\Temp\ccmv7pUT.s 			page 26


 604:navigation.c  ****             //UART_1_PutString(output);
 605:navigation.c  ****             
 606:navigation.c  ****             
 607:navigation.c  ****             }
 608:navigation.c  ****             
 609:navigation.c  ****             Motor_Left_Driver_Wakeup();
 806              		.loc 1 609 0
 807 00b6 FFF7FEFF 		bl	Motor_Left_Driver_Wakeup
 808              	.LVL127:
 610:navigation.c  ****             Motor_Left_Driver_WriteCompare(speed_left);
 809              		.loc 1 610 0
 810 00ba 1920     		movs	r0, #25
 811 00bc FFF7FEFF 		bl	Motor_Left_Driver_WriteCompare
 812              	.LVL128:
 611:navigation.c  ****             Motor_Right_Driver_Wakeup();
 813              		.loc 1 611 0
 814 00c0 FFF7FEFF 		bl	Motor_Right_Driver_Wakeup
 815              	.LVL129:
 612:navigation.c  ****             Motor_Right_Driver_WriteCompare(speed_right);
 816              		.loc 1 612 0
 817 00c4 1920     		movs	r0, #25
 818 00c6 FFF7FEFF 		bl	Motor_Right_Driver_WriteCompare
 819              	.LVL130:
 613:navigation.c  ****  
 614:navigation.c  ****             while (abs(difference) > tolerance 
 820              		.loc 1 614 0
 821 00ca 18E0     		b	.L59
 822              	.L61:
 615:navigation.c  ****                         && difference > 0
 616:navigation.c  ****                         && abs(difference) < max_difference) {    // ensures working correctly
 617:navigation.c  ****                 distanceSensor(FRONT_LEFT);
 823              		.loc 1 617 0
 824 00cc 0020     		movs	r0, #0
 825 00ce FFF7FEFF 		bl	distanceSensor
 826              	.LVL131:
 618:navigation.c  ****                 CyDelay(ultra_delay);
 827              		.loc 1 618 0
 828 00d2 3220     		movs	r0, #50
 829 00d4 FFF7FEFF 		bl	CyDelay
 830              	.LVL132:
 619:navigation.c  ****                 distanceSensor(FRONT_RIGHT);
 831              		.loc 1 619 0
 832 00d8 0120     		movs	r0, #1
 833 00da FFF7FEFF 		bl	distanceSensor
 834              	.LVL133:
 620:navigation.c  ****                 CyDelay(ultra_delay);
 835              		.loc 1 620 0
 836 00de 3220     		movs	r0, #50
 837 00e0 FFF7FEFF 		bl	CyDelay
 838              	.LVL134:
 621:navigation.c  ****                           
 622:navigation.c  ****                 difference = ultrasonic_distances_mm[FRONT_LEFT] - ultrasonic_distances_mm[FRONT_RI
 839              		.loc 1 622 0
 840 00e4 464B     		ldr	r3, .L66
 841 00e6 1A68     		ldr	r2, [r3]
 842 00e8 5B68     		ldr	r3, [r3, #4]
 843 00ea D41A     		subs	r4, r2, r3
ARM GAS  C:\Users\Misha\AppData\Local\Temp\ccmv7pUT.s 			page 27


 844              	.LVL135:
 623:navigation.c  ****                 
 624:navigation.c  ****                 sprintf(output, " %d , %d \t dif: %d, \n", ultrasonic_distances_mm[FRONT_LEFT], 
 845              		.loc 1 624 0
 846 00ec 464D     		ldr	r5, .L66+8
 847 00ee 0094     		str	r4, [sp]
 848 00f0 4749     		ldr	r1, .L66+16
 849 00f2 2846     		mov	r0, r5
 850 00f4 FFF7FEFF 		bl	sprintf
 851              	.LVL136:
 625:navigation.c  ****                                                             ultrasonic_distances_mm[FRONT_RIGHT],
 626:navigation.c  ****                                                                                         difference)
 627:navigation.c  ****                 UART_1_PutString(output);
 852              		.loc 1 627 0
 853 00f8 2846     		mov	r0, r5
 854 00fa FFF7FEFF 		bl	UART_1_PutString
 855              	.LVL137:
 856              	.L59:
 614:navigation.c  ****                         && difference > 0
 857              		.loc 1 614 0
 858 00fe 84EAE473 		eor	r3, r4, r4, asr #31
 859 0102 A3EBE473 		sub	r3, r3, r4, asr #31
 860 0106 012B     		cmp	r3, #1
 861 0108 4CDD     		ble	.L60
 615:navigation.c  ****                         && abs(difference) < max_difference) {    // ensures working correctly
 862              		.loc 1 615 0
 863 010a 002C     		cmp	r4, #0
 864 010c 4ADD     		ble	.L60
 616:navigation.c  ****                 distanceSensor(FRONT_LEFT);
 865              		.loc 1 616 0
 866 010e B3F5487F 		cmp	r3, #800
 867 0112 DBDB     		blt	.L61
 868 0114 46E0     		b	.L60
 869              	.L55:
 628:navigation.c  ****             } 
 629:navigation.c  ****         }
 630:navigation.c  ****         else if (difference < 0 ){      // HERE we are turning left
 870              		.loc 1 630 0
 871 0116 002C     		cmp	r4, #0
 872 0118 44DA     		bge	.L60
 631:navigation.c  ****             Motor_Left_Control_Write(1); Motor_Right_Control_Write(0);
 873              		.loc 1 631 0
 874 011a 0120     		movs	r0, #1
 875 011c FFF7FEFF 		bl	Motor_Left_Control_Write
 876              	.LVL138:
 877 0120 0020     		movs	r0, #0
 878 0122 FFF7FEFF 		bl	Motor_Right_Control_Write
 879              	.LVL139:
 632:navigation.c  ****             
 633:navigation.c  **** 
 634:navigation.c  ****             distanceSensor(FRONT_LEFT);
 880              		.loc 1 634 0
 881 0126 0020     		movs	r0, #0
 882 0128 FFF7FEFF 		bl	distanceSensor
 883              	.LVL140:
 635:navigation.c  ****             CyDelay(ultra_delay);
 884              		.loc 1 635 0
ARM GAS  C:\Users\Misha\AppData\Local\Temp\ccmv7pUT.s 			page 28


 885 012c 3220     		movs	r0, #50
 886 012e FFF7FEFF 		bl	CyDelay
 887              	.LVL141:
 636:navigation.c  ****             distanceSensor(FRONT_RIGHT);
 888              		.loc 1 636 0
 889 0132 0120     		movs	r0, #1
 890 0134 FFF7FEFF 		bl	distanceSensor
 891              	.LVL142:
 637:navigation.c  ****             CyDelay(ultra_delay);
 892              		.loc 1 637 0
 893 0138 3220     		movs	r0, #50
 894 013a FFF7FEFF 		bl	CyDelay
 895              	.LVL143:
 638:navigation.c  ****                       
 639:navigation.c  ****             difference = ultrasonic_distances_mm[FRONT_LEFT] - ultrasonic_distances_mm[FRONT_RIGHT]
 896              		.loc 1 639 0
 897 013e 304A     		ldr	r2, .L66
 898 0140 1368     		ldr	r3, [r2]
 899 0142 5468     		ldr	r4, [r2, #4]
 900              	.LVL144:
 901 0144 1C1B     		subs	r4, r3, r4
 902              	.LVL145:
 640:navigation.c  ****                        
 641:navigation.c  ****             //sprintf(output, " %d , %d \t dif: %d, \n", ultrasonic_distances_mm[FRONT_LEFT], 
 642:navigation.c  ****             //                                            ultrasonic_distances_mm[FRONT_RIGHT],
 643:navigation.c  ****             //                                                                        difference); 
 644:navigation.c  ****             //UART_1_PutString(output);
 645:navigation.c  ****             Motor_Left_Driver_Wakeup();
 903              		.loc 1 645 0
 904 0146 FFF7FEFF 		bl	Motor_Left_Driver_Wakeup
 905              	.LVL146:
 646:navigation.c  ****             Motor_Left_Driver_WriteCompare(speed_left);
 906              		.loc 1 646 0
 907 014a 1920     		movs	r0, #25
 908 014c FFF7FEFF 		bl	Motor_Left_Driver_WriteCompare
 909              	.LVL147:
 647:navigation.c  ****             Motor_Right_Driver_Wakeup();
 910              		.loc 1 647 0
 911 0150 FFF7FEFF 		bl	Motor_Right_Driver_Wakeup
 912              	.LVL148:
 648:navigation.c  ****             Motor_Right_Driver_WriteCompare(speed_right);
 913              		.loc 1 648 0
 914 0154 1920     		movs	r0, #25
 915 0156 FFF7FEFF 		bl	Motor_Right_Driver_WriteCompare
 916              	.LVL149:
 649:navigation.c  ****             
 650:navigation.c  ****             while (abs(difference) > tolerance 
 917              		.loc 1 650 0
 918 015a 18E0     		b	.L62
 919              	.L63:
 651:navigation.c  ****                         && difference < 0
 652:navigation.c  ****                         && abs(difference) < max_difference) {
 653:navigation.c  ****                 distanceSensor(FRONT_LEFT);
 920              		.loc 1 653 0
 921 015c 0020     		movs	r0, #0
 922 015e FFF7FEFF 		bl	distanceSensor
 923              	.LVL150:
ARM GAS  C:\Users\Misha\AppData\Local\Temp\ccmv7pUT.s 			page 29


 654:navigation.c  ****                 CyDelay(ultra_delay);
 924              		.loc 1 654 0
 925 0162 3220     		movs	r0, #50
 926 0164 FFF7FEFF 		bl	CyDelay
 927              	.LVL151:
 655:navigation.c  ****                 distanceSensor(FRONT_RIGHT);
 928              		.loc 1 655 0
 929 0168 0120     		movs	r0, #1
 930 016a FFF7FEFF 		bl	distanceSensor
 931              	.LVL152:
 656:navigation.c  ****                 CyDelay(ultra_delay);
 932              		.loc 1 656 0
 933 016e 3220     		movs	r0, #50
 934 0170 FFF7FEFF 		bl	CyDelay
 935              	.LVL153:
 657:navigation.c  ****                           
 658:navigation.c  ****                 difference = ultrasonic_distances_mm[FRONT_LEFT] - ultrasonic_distances_mm[FRONT_RI
 936              		.loc 1 658 0
 937 0174 224B     		ldr	r3, .L66
 938 0176 1A68     		ldr	r2, [r3]
 939 0178 5B68     		ldr	r3, [r3, #4]
 940 017a D41A     		subs	r4, r2, r3
 941              	.LVL154:
 659:navigation.c  ****                            
 660:navigation.c  ****                 sprintf(output, " %d , %d \t dif: %d, \n", ultrasonic_distances_mm[FRONT_LEFT], 
 942              		.loc 1 660 0
 943 017c 224D     		ldr	r5, .L66+8
 944 017e 0094     		str	r4, [sp]
 945 0180 2349     		ldr	r1, .L66+16
 946 0182 2846     		mov	r0, r5
 947 0184 FFF7FEFF 		bl	sprintf
 948              	.LVL155:
 661:navigation.c  ****                                                             ultrasonic_distances_mm[FRONT_RIGHT],
 662:navigation.c  ****                                                                                         difference)
 663:navigation.c  ****                 UART_1_PutString(output);
 949              		.loc 1 663 0
 950 0188 2846     		mov	r0, r5
 951 018a FFF7FEFF 		bl	UART_1_PutString
 952              	.LVL156:
 953              	.L62:
 650:navigation.c  ****                         && difference < 0
 954              		.loc 1 650 0
 955 018e 84EAE473 		eor	r3, r4, r4, asr #31
 956 0192 A3EBE473 		sub	r3, r3, r4, asr #31
 957 0196 012B     		cmp	r3, #1
 958 0198 04DD     		ble	.L60
 651:navigation.c  ****                         && abs(difference) < max_difference) {
 959              		.loc 1 651 0
 960 019a 002C     		cmp	r4, #0
 961 019c 02DA     		bge	.L60
 652:navigation.c  ****                 distanceSensor(FRONT_LEFT);
 962              		.loc 1 652 0
 963 019e B3F5487F 		cmp	r3, #800
 964 01a2 DBDB     		blt	.L63
 965              	.L60:
 664:navigation.c  ****             
 665:navigation.c  ****             }
ARM GAS  C:\Users\Misha\AppData\Local\Temp\ccmv7pUT.s 			page 30


 666:navigation.c  ****             
 667:navigation.c  ****         }
 668:navigation.c  ****         
 669:navigation.c  ****         // Comes out of the while loop if the max_difference is exceeded, but then the values might
 670:navigation.c  ****         // if max_difference is exceeded, it should probably be forced to swivel the other way to 
 671:navigation.c  ****         // that it was swivelling        
 672:navigation.c  ****         
 673:navigation.c  ****         
 674:navigation.c  ****         // CHECKS one more time to ensure the difference is accurate: 
 675:navigation.c  ****             // consider putting in a for loop to get new readings
 676:navigation.c  ****         distanceSensor(FRONT_LEFT);
 966              		.loc 1 676 0
 967 01a4 0020     		movs	r0, #0
 968 01a6 FFF7FEFF 		bl	distanceSensor
 969              	.LVL157:
 677:navigation.c  ****         CyDelay(ultra_delay);
 970              		.loc 1 677 0
 971 01aa 3220     		movs	r0, #50
 972 01ac FFF7FEFF 		bl	CyDelay
 973              	.LVL158:
 678:navigation.c  ****         distanceSensor(FRONT_RIGHT);
 974              		.loc 1 678 0
 975 01b0 0120     		movs	r0, #1
 976 01b2 FFF7FEFF 		bl	distanceSensor
 977              	.LVL159:
 679:navigation.c  ****         CyDelay(ultra_delay);
 978              		.loc 1 679 0
 979 01b6 3220     		movs	r0, #50
 980 01b8 FFF7FEFF 		bl	CyDelay
 981              	.LVL160:
 680:navigation.c  ****                       
 681:navigation.c  ****         difference = ultrasonic_distances_mm[FRONT_LEFT] - ultrasonic_distances_mm[FRONT_RIGHT];
 982              		.loc 1 681 0
 983 01bc 104B     		ldr	r3, .L66
 984 01be 1A68     		ldr	r2, [r3]
 985 01c0 5B68     		ldr	r3, [r3, #4]
 986 01c2 D41A     		subs	r4, r2, r3
 987              	.LVL161:
 682:navigation.c  ****         sprintf(output, "%d, %d, ", ultrasonic_distances_mm[FRONT_LEFT], ultrasonic_distances_mm[FR
 988              		.loc 1 682 0
 989 01c4 104D     		ldr	r5, .L66+8
 990 01c6 1349     		ldr	r1, .L66+20
 991 01c8 2846     		mov	r0, r5
 992 01ca FFF7FEFF 		bl	sprintf
 993              	.LVL162:
 683:navigation.c  ****         UART_1_PutString(output);
 994              		.loc 1 683 0
 995 01ce 2846     		mov	r0, r5
 996 01d0 FFF7FEFF 		bl	UART_1_PutString
 997              	.LVL163:
 684:navigation.c  ****         sprintf(output, "dif: %d, \n", difference);       
 998              		.loc 1 684 0
 999 01d4 2246     		mov	r2, r4
 1000 01d6 1049     		ldr	r1, .L66+24
 1001 01d8 2846     		mov	r0, r5
 1002 01da FFF7FEFF 		bl	sprintf
 1003              	.LVL164:
ARM GAS  C:\Users\Misha\AppData\Local\Temp\ccmv7pUT.s 			page 31


 685:navigation.c  ****         UART_1_PutString(output);
 1004              		.loc 1 685 0
 1005 01de 2846     		mov	r0, r5
 1006 01e0 FFF7FEFF 		bl	UART_1_PutString
 1007              	.LVL165:
 1008              	.L54:
 584:navigation.c  ****         
 1009              		.loc 1 584 0
 1010 01e4 84EAE473 		eor	r3, r4, r4, asr #31
 1011 01e8 A3EBE473 		sub	r3, r3, r4, asr #31
 1012 01ec 012B     		cmp	r3, #1
 1013 01ee 3FF73EAF 		bgt	.L64
 686:navigation.c  ****         
 687:navigation.c  ****     }         // This ensures that the turning worked correctly
 688:navigation.c  ****                                             // changed it from 10 to 2, this might change the way i
 689:navigation.c  ****     
 690:navigation.c  ****     
 691:navigation.c  ****     Motor_Left_Driver_Sleep();
 1014              		.loc 1 691 0
 1015 01f2 FFF7FEFF 		bl	Motor_Left_Driver_Sleep
 1016              	.LVL166:
 692:navigation.c  ****     Motor_Right_Driver_Sleep();
 1017              		.loc 1 692 0
 1018 01f6 FFF7FEFF 		bl	Motor_Right_Driver_Sleep
 1019              	.LVL167:
 693:navigation.c  ****        
 694:navigation.c  **** }
 1020              		.loc 1 694 0
 1021 01fa 02B0     		add	sp, sp, #8
 1022              		.cfi_def_cfa_offset 16
 1023              		@ sp needed
 1024 01fc 70BD     		pop	{r4, r5, r6, pc}
 1025              	.LVL168:
 1026              	.L67:
 1027 01fe 00BF     		.align	2
 1028              	.L66:
 1029 0200 00000000 		.word	ultrasonic_distances_mm
 1030 0204 08000000 		.word	.LC1
 1031 0208 00000000 		.word	output
 1032 020c 68000000 		.word	.LC6
 1033 0210 7C000000 		.word	.LC7
 1034 0214 94000000 		.word	.LC8
 1035 0218 A0000000 		.word	.LC9
 1036              		.cfi_endproc
 1037              	.LFE71:
 1038              		.size	straightAdjust, .-straightAdjust
 1039              		.section	.text.failsafeSideSensors,"ax",%progbits
 1040              		.align	2
 1041              		.global	failsafeSideSensors
 1042              		.thumb
 1043              		.thumb_func
 1044              		.type	failsafeSideSensors, %function
 1045              	failsafeSideSensors:
 1046              	.LFB70:
 525:navigation.c  ****     
 1047              		.loc 1 525 0
 1048              		.cfi_startproc
ARM GAS  C:\Users\Misha\AppData\Local\Temp\ccmv7pUT.s 			page 32


 1049              		@ args = 0, pretend = 0, frame = 0
 1050              		@ frame_needed = 0, uses_anonymous_args = 0
 1051              	.LVL169:
 1052 0000 38B5     		push	{r3, r4, r5, lr}
 1053              		.cfi_def_cfa_offset 16
 1054              		.cfi_offset 3, -16
 1055              		.cfi_offset 4, -12
 1056              		.cfi_offset 5, -8
 1057              		.cfi_offset 14, -4
 1058              	.LVL170:
 533:navigation.c  ****         return;
 1059              		.loc 1 533 0
 1060 0002 0C4B     		ldr	r3, .L72
 1061 0004 1B68     		ldr	r3, [r3]
 1062 0006 012B     		cmp	r3, #1
 1063 0008 12D0     		beq	.L68
 1064 000a 0C46     		mov	r4, r1
 1065 000c 0546     		mov	r5, r0
 537:navigation.c  ****     CyDelay(50);
 1066              		.loc 1 537 0
 1067 000e FFF7FEFF 		bl	distanceSensor
 1068              	.LVL171:
 538:navigation.c  ****     
 1069              		.loc 1 538 0
 1070 0012 3220     		movs	r0, #50
 1071 0014 FFF7FEFF 		bl	CyDelay
 1072              	.LVL172:
 540:navigation.c  ****                 || ultrasonic_distances_mm[side_sensing] < initial_value - drift_tolerance ){
 1073              		.loc 1 540 0
 1074 0018 074B     		ldr	r3, .L72+4
 1075 001a 53F82530 		ldr	r3, [r3, r5, lsl #2]
 1076 001e 04F10A02 		add	r2, r4, #10
 1077 0022 9342     		cmp	r3, r2
 1078 0024 02DC     		bgt	.L70
 541:navigation.c  ****         // If it has drifted more than 10mm either side from the initial value, we perform a straig
 1079              		.loc 1 541 0
 1080 0026 0A3C     		subs	r4, r4, #10
 1081              	.LVL173:
 1082 0028 A342     		cmp	r3, r4
 1083 002a 01DA     		bge	.L68
 1084              	.LVL174:
 1085              	.L70:
 546:navigation.c  ****         
 1086              		.loc 1 546 0
 1087 002c FFF7FEFF 		bl	straightAdjust
 1088              	.LVL175:
 1089              	.L68:
 1090 0030 38BD     		pop	{r3, r4, r5, pc}
 1091              	.L73:
 1092 0032 00BF     		.align	2
 1093              	.L72:
 1094 0034 00000000 		.word	safety_override
 1095 0038 00000000 		.word	ultrasonic_distances_mm
 1096              		.cfi_endproc
 1097              	.LFE70:
 1098              		.size	failsafeSideSensors, .-failsafeSideSensors
 1099              		.global	__aeabi_i2d
ARM GAS  C:\Users\Misha\AppData\Local\Temp\ccmv7pUT.s 			page 33


 1100              		.global	__aeabi_dadd
 1101              		.global	__aeabi_dsub
 1102              		.global	__aeabi_dcmpgt
 1103              		.section	.text.moveUntil,"ax",%progbits
 1104              		.align	2
 1105              		.global	moveUntil
 1106              		.thumb
 1107              		.thumb_func
 1108              		.type	moveUntil, %function
 1109              	moveUntil:
 1110              	.LFB66:
 142:navigation.c  ****     // This function will move until given a set distance (in mm)
 1111              		.loc 1 142 0
 1112              		.cfi_startproc
 1113              		@ args = 8, pretend = 0, frame = 40
 1114              		@ frame_needed = 0, uses_anonymous_args = 0
 1115              	.LVL176:
 1116 0000 2DE9F04F 		push	{r4, r5, r6, r7, r8, r9, r10, fp, lr}
 1117              		.cfi_def_cfa_offset 36
 1118              		.cfi_offset 4, -36
 1119              		.cfi_offset 5, -32
 1120              		.cfi_offset 6, -28
 1121              		.cfi_offset 7, -24
 1122              		.cfi_offset 8, -20
 1123              		.cfi_offset 9, -16
 1124              		.cfi_offset 10, -12
 1125              		.cfi_offset 11, -8
 1126              		.cfi_offset 14, -4
 1127 0004 8BB0     		sub	sp, sp, #44
 1128              		.cfi_def_cfa_offset 80
 1129 0006 8246     		mov	r10, r0
 1130 0008 0591     		str	r1, [sp, #20]
 1131 000a 0792     		str	r2, [sp, #28]
 1132 000c 1C46     		mov	r4, r3
 1133 000e 149E     		ldr	r6, [sp, #80]
 1134              	.LVL177:
 167:navigation.c  ****         CyDelay(50);
 1135              		.loc 1 167 0
 1136 0010 0220     		movs	r0, #2
 1137              	.LVL178:
 1138 0012 FFF7FEFF 		bl	distanceSensor
 1139              	.LVL179:
 168:navigation.c  ****         distanceSensor(SIDE_RIGHT);
 1140              		.loc 1 168 0
 1141 0016 3220     		movs	r0, #50
 1142 0018 FFF7FEFF 		bl	CyDelay
 1143              	.LVL180:
 169:navigation.c  ****         CyDelay(50);
 1144              		.loc 1 169 0
 1145 001c 0320     		movs	r0, #3
 1146 001e FFF7FEFF 		bl	distanceSensor
 1147              	.LVL181:
 170:navigation.c  ****         if (ultrasonic_distances_mm[SIDE_LEFT] > ultrasonic_distances_mm[SIDE_RIGHT]) {
 1148              		.loc 1 170 0
 1149 0022 3220     		movs	r0, #50
 1150 0024 FFF7FEFF 		bl	CyDelay
 1151              	.LVL182:
ARM GAS  C:\Users\Misha\AppData\Local\Temp\ccmv7pUT.s 			page 34


 171:navigation.c  ****             side_prox_sensor = SIDE_RIGHT; 
 1152              		.loc 1 171 0
 1153 0028 B74B     		ldr	r3, .L120+8
 1154 002a 9A68     		ldr	r2, [r3, #8]
 1155 002c 0892     		str	r2, [sp, #32]
 1156 002e DB68     		ldr	r3, [r3, #12]
 1157 0030 9A42     		cmp	r2, r3
 1158 0032 03DD     		ble	.L103
 173:navigation.c  ****         }
 1159              		.loc 1 173 0
 1160 0034 0893     		str	r3, [sp, #32]
 172:navigation.c  ****             initial_side_distance = ultrasonic_distances_mm[SIDE_RIGHT];
 1161              		.loc 1 172 0
 1162 0036 0323     		movs	r3, #3
 1163 0038 0993     		str	r3, [sp, #36]
 1164 003a 01E0     		b	.L75
 1165              	.L103:
 175:navigation.c  ****     
 1166              		.loc 1 175 0
 1167 003c 0223     		movs	r3, #2
 1168 003e 0993     		str	r3, [sp, #36]
 1169              	.L75:
 1170              	.LVL183:
 178:navigation.c  ****         Motor_Left_Control_Write(0); 
 1171              		.loc 1 178 0
 1172 0040 059B     		ldr	r3, [sp, #20]
 1173 0042 012B     		cmp	r3, #1
 1174 0044 05D1     		bne	.L76
 179:navigation.c  ****         Motor_Right_Control_Write(0); 
 1175              		.loc 1 179 0
 1176 0046 0020     		movs	r0, #0
 1177 0048 FFF7FEFF 		bl	Motor_Left_Control_Write
 1178              	.LVL184:
 180:navigation.c  ****     }
 1179              		.loc 1 180 0
 1180 004c 0020     		movs	r0, #0
 1181 004e FFF7FEFF 		bl	Motor_Right_Control_Write
 1182              	.LVL185:
 1183              	.L76:
 182:navigation.c  ****         Motor_Left_Control_Write(1); 
 1184              		.loc 1 182 0
 1185 0052 059B     		ldr	r3, [sp, #20]
 1186 0054 2BB9     		cbnz	r3, .L77
 183:navigation.c  ****         Motor_Right_Control_Write(1);
 1187              		.loc 1 183 0
 1188 0056 0120     		movs	r0, #1
 1189 0058 FFF7FEFF 		bl	Motor_Left_Control_Write
 1190              	.LVL186:
 184:navigation.c  ****     }
 1191              		.loc 1 184 0
 1192 005c 0120     		movs	r0, #1
 1193 005e FFF7FEFF 		bl	Motor_Right_Control_Write
 1194              	.LVL187:
 1195              	.L77:
 188:navigation.c  ****     
 1196              		.loc 1 188 0
 1197 0062 072C     		cmp	r4, #7
ARM GAS  C:\Users\Misha\AppData\Local\Temp\ccmv7pUT.s 			page 35


 1198 0064 02D0     		beq	.L104
 156:navigation.c  ****                                   // the ultrasonic sensor we will be using 
 1199              		.loc 1 156 0
 1200 0066 0023     		movs	r3, #0
 1201 0068 0493     		str	r3, [sp, #16]
 1202 006a 02E0     		b	.L78
 1203              	.L104:
 188:navigation.c  ****     
 1204              		.loc 1 188 0
 1205 006c 0123     		movs	r3, #1
 1206 006e 0493     		str	r3, [sp, #16]
 1207 0070 0024     		movs	r4, #0
 1208              	.LVL188:
 1209              	.L78:
 191:navigation.c  ****     while (ultrasonic_distances_mm[ultrasonic_sensor] > ARENA_WIDTH) {          // protects against
 1210              		.loc 1 191 0
 1211 0072 40F21452 		movw	r2, #1300
 1212 0076 A44B     		ldr	r3, .L120+8
 1213 0078 43F82420 		str	r2, [r3, r4, lsl #2]
 192:navigation.c  ****         distanceSensor(ultrasonic_sensor);
 1214              		.loc 1 192 0
 1215 007c 11E0     		b	.L79
 1216              	.LVL189:
 1217              	.L80:
 193:navigation.c  ****         CyDelay(50);
 1218              		.loc 1 193 0
 1219 007e 2046     		mov	r0, r4
 1220 0080 FFF7FEFF 		bl	distanceSensor
 1221              	.LVL190:
 194:navigation.c  ****         distance_sensor = ultrasonic_distances_mm[ultrasonic_sensor];   // checks the distance meas
 1222              		.loc 1 194 0
 1223 0084 3220     		movs	r0, #50
 1224 0086 FFF7FEFF 		bl	CyDelay
 1225              	.LVL191:
 195:navigation.c  ****         sprintf(output, "%d \t", distance_sensor);       
 1226              		.loc 1 195 0
 1227 008a 9F4B     		ldr	r3, .L120+8
 1228 008c 53F82450 		ldr	r5, [r3, r4, lsl #2]
 1229              	.LVL192:
 196:navigation.c  ****         UART_1_PutString(output);
 1230              		.loc 1 196 0
 1231 0090 9E4F     		ldr	r7, .L120+12
 1232 0092 2A46     		mov	r2, r5
 1233 0094 9E49     		ldr	r1, .L120+16
 1234 0096 3846     		mov	r0, r7
 1235 0098 FFF7FEFF 		bl	sprintf
 1236              	.LVL193:
 197:navigation.c  ****     }
 1237              		.loc 1 197 0
 1238 009c 3846     		mov	r0, r7
 1239 009e FFF7FEFF 		bl	UART_1_PutString
 1240              	.LVL194:
 1241              	.L79:
 192:navigation.c  ****         distanceSensor(ultrasonic_sensor);
 1242              		.loc 1 192 0
 1243 00a2 994B     		ldr	r3, .L120+8
 1244 00a4 53F82430 		ldr	r3, [r3, r4, lsl #2]
ARM GAS  C:\Users\Misha\AppData\Local\Temp\ccmv7pUT.s 			page 36


 1245 00a8 B3F5966F 		cmp	r3, #1200
 1246 00ac E7DC     		bgt	.L80
 200:navigation.c  ****     
 1247              		.loc 1 200 0
 1248 00ae 049B     		ldr	r3, [sp, #16]
 1249 00b0 13B1     		cbz	r3, .L81
 1250 00b2 0023     		movs	r3, #0
 1251 00b4 0493     		str	r3, [sp, #16]
 1252              	.LVL195:
 1253 00b6 0724     		movs	r4, #7
 1254              	.LVL196:
 1255              	.L81:
 202:navigation.c  ****     Motor_Left_Driver_WriteCompare(speed_left);
 1256              		.loc 1 202 0
 1257 00b8 FFF7FEFF 		bl	Motor_Left_Driver_Wakeup
 1258              	.LVL197:
 203:navigation.c  ****     Motor_Right_Driver_Wakeup();
 1259              		.loc 1 203 0
 1260 00bc 5FFA86F8 		uxtb	r8, r6
 1261 00c0 4046     		mov	r0, r8
 1262 00c2 FFF7FEFF 		bl	Motor_Left_Driver_WriteCompare
 1263              	.LVL198:
 204:navigation.c  ****     Motor_Right_Driver_WriteCompare(speed_right);
 1264              		.loc 1 204 0
 1265 00c6 FFF7FEFF 		bl	Motor_Right_Driver_Wakeup
 1266              	.LVL199:
 205:navigation.c  ****     
 1267              		.loc 1 205 0
 1268 00ca 4046     		mov	r0, r8
 1269 00cc FFF7FEFF 		bl	Motor_Right_Driver_WriteCompare
 1270              	.LVL200:
 207:navigation.c  ****         //UART_1_PutString("\n GREATER THAN LOOP: \n");
 1271              		.loc 1 207 0
 1272 00d0 079B     		ldr	r3, [sp, #28]
 1273 00d2 052B     		cmp	r3, #5
 1274 00d4 00F0A380 		beq	.L106
 155:navigation.c  ****     int front_sensor_flag = FALSE;
 1275              		.loc 1 155 0
 1276 00d8 B346     		mov	fp, r6
 154:navigation.c  ****     int speed_right = speed;
 1277              		.loc 1 154 0
 1278 00da B146     		mov	r9, r6
 162:navigation.c  ****     
 1279              		.loc 1 162 0
 1280 00dc 0027     		movs	r7, #0
 160:navigation.c  ****                                                         // will enter the failsafe check straight a
 1281              		.loc 1 160 0
 1282 00de 6FF4E073 		mvn	r3, #448
 1283 00e2 0193     		str	r3, [sp, #4]
 1284 00e4 AAE0     		b	.L83
 1285              	.LVL201:
 1286              	.L93:
 1287              	.LBB2:
 211:navigation.c  ****             count_right = Motor_Right_Decoder_GetCounter();
 1288              		.loc 1 211 0
 1289 00e6 FFF7FEFF 		bl	Motor_Left_Decoder_GetCounter
 1290              	.LVL202:
ARM GAS  C:\Users\Misha\AppData\Local\Temp\ccmv7pUT.s 			page 37


 1291 00ea 0546     		mov	r5, r0
 1292              	.LVL203:
 1293 00ec 0690     		str	r0, [sp, #24]
 1294              	.LVL204:
 212:navigation.c  ****             
 1295              		.loc 1 212 0
 1296 00ee FFF7FEFF 		bl	Motor_Right_Decoder_GetCounter
 1297              	.LVL205:
 215:navigation.c  ****                 speed_left = speed - ADJUST;
 1298              		.loc 1 215 0
 1299 00f2 2B46     		mov	r3, r5
 1300 00f4 002D     		cmp	r5, #0
 1301 00f6 B8BF     		it	lt
 1302 00f8 6B42     		rsblt	r3, r5, #0
 1303 00fa 9846     		mov	r8, r3
 1304 00fc 0028     		cmp	r0, #0
 1305 00fe B8BF     		it	lt
 1306 0100 4042     		rsblt	r0, r0, #0
 1307              	.LVL206:
 1308 0102 8342     		cmp	r3, r0
 1309 0104 03DD     		ble	.L84
 216:navigation.c  ****                 speed_right = speed + ADJUST;
 1310              		.loc 1 216 0
 1311 0106 A6F10409 		sub	r9, r6, #4
 1312              	.LVL207:
 217:navigation.c  ****             }        
 1313              		.loc 1 217 0
 1314 010a 06F1040B 		add	fp, r6, #4
 1315              	.LVL208:
 1316              	.L84:
 219:navigation.c  ****                 speed_right = speed - ADJUST;              
 1317              		.loc 1 219 0
 1318 010e 8045     		cmp	r8, r0
 1319 0110 03DA     		bge	.L85
 220:navigation.c  ****                 speed_left = speed + ADJUST;
 1320              		.loc 1 220 0
 1321 0112 A6F1040B 		sub	fp, r6, #4
 1322              	.LVL209:
 221:navigation.c  ****             }
 1323              		.loc 1 221 0
 1324 0116 06F10409 		add	r9, r6, #4
 1325              	.LVL210:
 1326              	.L85:
 225:navigation.c  ****             Motor_Right_Driver_WriteCompare(speed_right);
 1327              		.loc 1 225 0
 1328 011a 5FFA89F0 		uxtb	r0, r9
 1329 011e FFF7FEFF 		bl	Motor_Left_Driver_WriteCompare
 1330              	.LVL211:
 226:navigation.c  ****             
 1331              		.loc 1 226 0
 1332 0122 5FFA8BF0 		uxtb	r0, fp
 1333 0126 FFF7FEFF 		bl	Motor_Right_Driver_WriteCompare
 1334              	.LVL212:
 229:navigation.c  ****                 distanceSensor(FRONT_LEFT);
 1335              		.loc 1 229 0
 1336 012a 072C     		cmp	r4, #7
 1337 012c 0DD1     		bne	.L86
ARM GAS  C:\Users\Misha\AppData\Local\Temp\ccmv7pUT.s 			page 38


 229:navigation.c  ****                 distanceSensor(FRONT_LEFT);
 1338              		.loc 1 229 0 is_stmt 0 discriminator 1
 1339 012e 049B     		ldr	r3, [sp, #16]
 1340 0130 5BB1     		cbz	r3, .L86
 230:navigation.c  ****                 CyDelay(50);
 1341              		.loc 1 230 0 is_stmt 1
 1342 0132 0020     		movs	r0, #0
 1343 0134 FFF7FEFF 		bl	distanceSensor
 1344              	.LVL213:
 231:navigation.c  ****                 distance_sensor = ultrasonic_distances_mm[ultrasonic_sensor];   // checks the dista
 1345              		.loc 1 231 0
 1346 0138 3220     		movs	r0, #50
 1347 013a FFF7FEFF 		bl	CyDelay
 1348              	.LVL214:
 232:navigation.c  ****                 front_sensor_flag = FALSE;
 1349              		.loc 1 232 0
 1350 013e 724B     		ldr	r3, .L120+8
 1351 0140 53F82450 		ldr	r5, [r3, r4, lsl #2]
 1352              	.LVL215:
 233:navigation.c  ****             }
 1353              		.loc 1 233 0
 1354 0144 0023     		movs	r3, #0
 1355 0146 0493     		str	r3, [sp, #16]
 1356 0148 20E0     		b	.L87
 1357              	.LVL216:
 1358              	.L86:
 235:navigation.c  ****                 distanceSensor(FRONT_RIGHT);
 1359              		.loc 1 235 0
 1360 014a 072C     		cmp	r4, #7
 1361 014c 0DD1     		bne	.L88
 235:navigation.c  ****                 distanceSensor(FRONT_RIGHT);
 1362              		.loc 1 235 0 is_stmt 0 discriminator 1
 1363 014e 049B     		ldr	r3, [sp, #16]
 1364 0150 5BB9     		cbnz	r3, .L88
 236:navigation.c  ****                 CyDelay(50);
 1365              		.loc 1 236 0 is_stmt 1
 1366 0152 0120     		movs	r0, #1
 1367 0154 FFF7FEFF 		bl	distanceSensor
 1368              	.LVL217:
 237:navigation.c  ****                 distance_sensor = ultrasonic_distances_mm[ultrasonic_sensor];   // checks the dista
 1369              		.loc 1 237 0
 1370 0158 3220     		movs	r0, #50
 1371 015a FFF7FEFF 		bl	CyDelay
 1372              	.LVL218:
 238:navigation.c  ****                 front_sensor_flag = TRUE;
 1373              		.loc 1 238 0
 1374 015e 6A4B     		ldr	r3, .L120+8
 1375 0160 53F82450 		ldr	r5, [r3, r4, lsl #2]
 1376              	.LVL219:
 239:navigation.c  ****             }
 1377              		.loc 1 239 0
 1378 0164 0123     		movs	r3, #1
 1379 0166 0493     		str	r3, [sp, #16]
 1380 0168 10E0     		b	.L87
 1381              	.LVL220:
 1382              	.L88:
 242:navigation.c  ****                 CyDelay(50);
ARM GAS  C:\Users\Misha\AppData\Local\Temp\ccmv7pUT.s 			page 39


 1383              		.loc 1 242 0
 1384 016a 2046     		mov	r0, r4
 1385 016c FFF7FEFF 		bl	distanceSensor
 1386              	.LVL221:
 243:navigation.c  ****                 distance_sensor = ultrasonic_distances_mm[ultrasonic_sensor];   // checks the dista
 1387              		.loc 1 243 0
 1388 0170 3220     		movs	r0, #50
 1389 0172 FFF7FEFF 		bl	CyDelay
 1390              	.LVL222:
 244:navigation.c  ****                 sprintf(output, "%d \t", distance_sensor);       
 1391              		.loc 1 244 0
 1392 0176 644B     		ldr	r3, .L120+8
 1393 0178 53F82450 		ldr	r5, [r3, r4, lsl #2]
 1394              	.LVL223:
 245:navigation.c  ****                 UART_1_PutString(output);
 1395              		.loc 1 245 0
 1396 017c 2A46     		mov	r2, r5
 1397 017e 6449     		ldr	r1, .L120+16
 1398 0180 6248     		ldr	r0, .L120+12
 1399 0182 FFF7FEFF 		bl	sprintf
 1400              	.LVL224:
 246:navigation.c  ****             }
 1401              		.loc 1 246 0
 1402 0186 6148     		ldr	r0, .L120+12
 1403 0188 FFF7FEFF 		bl	UART_1_PutString
 1404              	.LVL225:
 1405              	.L87:
 256:navigation.c  ****                                         && failsafe_alternator == TRUE 
 1406              		.loc 1 256 0
 1407 018c 4046     		mov	r0, r8
 1408 018e FFF7FEFF 		bl	__aeabi_i2d
 1409              	.LVL226:
 1410 0192 CDE90201 		strd	r0, [sp, #8]
 1411 0196 0198     		ldr	r0, [sp, #4]
 1412 0198 FFF7FEFF 		bl	__aeabi_i2d
 1413              	.LVL227:
 1414 019c 58A3     		adr	r3, .L120
 1415 019e D3E90023 		ldrd	r2, [r3]
 1416 01a2 FFF7FEFF 		bl	__aeabi_dadd
 1417              	.LVL228:
 1418 01a6 0022     		movs	r2, #0
 1419 01a8 5A4B     		ldr	r3, .L120+20
 1420 01aa FFF7FEFF 		bl	__aeabi_dsub
 1421              	.LVL229:
 1422 01ae 0246     		mov	r2, r0
 1423 01b0 0B46     		mov	r3, r1
 1424 01b2 DDE90201 		ldrd	r0, [sp, #8]
 1425 01b6 FFF7FEFF 		bl	__aeabi_dcmpgt
 1426              	.LVL230:
 1427 01ba 58B1     		cbz	r0, .L115
 258:navigation.c  ****                 emergency_exit = failsafe(direction);
 1428              		.loc 1 258 0
 1429 01bc 159B     		ldr	r3, [sp, #84]
 1430 01be 012B     		cmp	r3, #1
 1431 01c0 0BD1     		bne	.L108
 259:navigation.c  ****                 old_count = count_left;
 1432              		.loc 1 259 0
ARM GAS  C:\Users\Misha\AppData\Local\Temp\ccmv7pUT.s 			page 40


 1433 01c2 0598     		ldr	r0, [sp, #20]
 1434 01c4 FFF7FEFF 		bl	failsafe
 1435              	.LVL231:
 1436 01c8 0746     		mov	r7, r0
 1437              	.LVL232:
 260:navigation.c  ****                 failsafe_alternator = FALSE;
 1438              		.loc 1 260 0
 1439 01ca 069B     		ldr	r3, [sp, #24]
 1440 01cc 0193     		str	r3, [sp, #4]
 261:navigation.c  ****             }
 1441              		.loc 1 261 0
 1442 01ce 4FF00008 		mov	r8, #0
 1443 01d2 04E0     		b	.L89
 1444              	.LVL233:
 1445              	.L115:
 253:navigation.c  ****             
 1446              		.loc 1 253 0
 1447 01d4 4FF00108 		mov	r8, #1
 1448 01d8 01E0     		b	.L89
 1449              	.L108:
 1450 01da 4FF00108 		mov	r8, #1
 1451              	.LVL234:
 1452              	.L89:
 265:navigation.c  ****                                         && failsafe_alternator == FALSE 
 1453              		.loc 1 265 0
 1454 01de 0198     		ldr	r0, [sp, #4]
 1455 01e0 FFF7FEFF 		bl	__aeabi_i2d
 1456              	.LVL235:
 1457 01e4 46A3     		adr	r3, .L120
 1458 01e6 D3E90023 		ldrd	r2, [r3]
 1459 01ea FFF7FEFF 		bl	__aeabi_dadd
 1460              	.LVL236:
 1461 01ee 0022     		movs	r2, #0
 1462 01f0 484B     		ldr	r3, .L120+20
 1463 01f2 FFF7FEFF 		bl	__aeabi_dsub
 1464              	.LVL237:
 1465 01f6 0246     		mov	r2, r0
 1466 01f8 0B46     		mov	r3, r1
 1467 01fa DDE90201 		ldrd	r0, [sp, #8]
 1468 01fe FFF7FEFF 		bl	__aeabi_dcmpgt
 1469              	.LVL238:
 1470 0202 90B1     		cbz	r0, .L82
 266:navigation.c  ****                                         && activate_safety == TRUE){
 1471              		.loc 1 266 0
 1472 0204 B8F1000F 		cmp	r8, #0
 1473 0208 0FD1     		bne	.L82
 267:navigation.c  ****                 failsafeSideSensors(side_prox_sensor, initial_side_distance);
 1474              		.loc 1 267 0
 1475 020a 159B     		ldr	r3, [sp, #84]
 1476 020c 012B     		cmp	r3, #1
 1477 020e 0CD1     		bne	.L82
 268:navigation.c  ****                 old_count = count_left;
 1478              		.loc 1 268 0
 1479 0210 0899     		ldr	r1, [sp, #32]
 1480 0212 0998     		ldr	r0, [sp, #36]
 1481 0214 FFF7FEFF 		bl	failsafeSideSensors
 1482              	.LVL239:
ARM GAS  C:\Users\Misha\AppData\Local\Temp\ccmv7pUT.s 			page 41


 269:navigation.c  ****                 failsafe_alternator = TRUE;
 1483              		.loc 1 269 0
 1484 0218 069B     		ldr	r3, [sp, #24]
 1485 021a 0193     		str	r3, [sp, #4]
 1486 021c 05E0     		b	.L82
 1487              	.LVL240:
 1488              	.L106:
 1489              	.LBE2:
 1490 021e B346     		mov	fp, r6
 1491 0220 B146     		mov	r9, r6
 1492 0222 0027     		movs	r7, #0
 1493 0224 6FF4E073 		mvn	r3, #448
 1494 0228 0193     		str	r3, [sp, #4]
 1495              	.LVL241:
 1496              	.L82:
 209:navigation.c  ****             
 1497              		.loc 1 209 0
 1498 022a 8AEAEA73 		eor	r3, r10, r10, asr #31
 1499 022e A3EBEA73 		sub	r3, r3, r10, asr #31
 1500 0232 9D42     		cmp	r5, r3
 1501 0234 02DA     		bge	.L83
 209:navigation.c  ****             
 1502              		.loc 1 209 0 is_stmt 0 discriminator 1
 1503 0236 002F     		cmp	r7, #0
 1504 0238 3FF455AF 		beq	.L93
 1505              	.LVL242:
 1506              	.L83:
 275:navigation.c  ****         //UART_1_PutString("\n LESS THAN LOOP: \n");
 1507              		.loc 1 275 0 is_stmt 1
 1508 023c 079B     		ldr	r3, [sp, #28]
 1509 023e 042B     		cmp	r3, #4
 1510 0240 40F09480 		bne	.L95
 1511 0244 89E0     		b	.L94
 1512              	.L102:
 1513              	.LBB3:
 279:navigation.c  ****             count_right = Motor_Right_Decoder_GetCounter();
 1514              		.loc 1 279 0
 1515 0246 FFF7FEFF 		bl	Motor_Left_Decoder_GetCounter
 1516              	.LVL243:
 1517 024a 0546     		mov	r5, r0
 1518              	.LVL244:
 1519 024c 0490     		str	r0, [sp, #16]
 1520              	.LVL245:
 280:navigation.c  ****             
 1521              		.loc 1 280 0
 1522 024e FFF7FEFF 		bl	Motor_Right_Decoder_GetCounter
 1523              	.LVL246:
 283:navigation.c  ****                 speed_left = speed - ADJUST;
 1524              		.loc 1 283 0
 1525 0252 2B46     		mov	r3, r5
 1526 0254 002D     		cmp	r5, #0
 1527 0256 B8BF     		it	lt
 1528 0258 6B42     		rsblt	r3, r5, #0
 1529 025a 9846     		mov	r8, r3
 1530 025c 0028     		cmp	r0, #0
 1531 025e B8BF     		it	lt
 1532 0260 4042     		rsblt	r0, r0, #0
ARM GAS  C:\Users\Misha\AppData\Local\Temp\ccmv7pUT.s 			page 42


 1533              	.LVL247:
 1534 0262 8342     		cmp	r3, r0
 1535 0264 03DD     		ble	.L96
 284:navigation.c  ****                 speed_right = speed + ADJUST;
 1536              		.loc 1 284 0
 1537 0266 A6F10409 		sub	r9, r6, #4
 1538              	.LVL248:
 285:navigation.c  ****             }        
 1539              		.loc 1 285 0
 1540 026a 06F1040B 		add	fp, r6, #4
 1541              	.LVL249:
 1542              	.L96:
 287:navigation.c  ****                     speed_right = speed - ADJUST;              // If the speeds are equal, we decre
 1543              		.loc 1 287 0
 1544 026e 8045     		cmp	r8, r0
 1545 0270 03DA     		bge	.L97
 288:navigation.c  ****                                                         // adjust tolerance 
 1546              		.loc 1 288 0
 1547 0272 A6F1040B 		sub	fp, r6, #4
 1548              	.LVL250:
 290:navigation.c  ****             }
 1549              		.loc 1 290 0
 1550 0276 06F10409 		add	r9, r6, #4
 1551              	.LVL251:
 1552              	.L97:
 294:navigation.c  ****             Motor_Right_Driver_WriteCompare(speed_right);
 1553              		.loc 1 294 0
 1554 027a 5FFA89F0 		uxtb	r0, r9
 1555 027e FFF7FEFF 		bl	Motor_Left_Driver_WriteCompare
 1556              	.LVL252:
 295:navigation.c  ****             
 1557              		.loc 1 295 0
 1558 0282 5FFA8BF0 		uxtb	r0, fp
 1559 0286 FFF7FEFF 		bl	Motor_Right_Driver_WriteCompare
 1560              	.LVL253:
 297:navigation.c  ****             CyDelay(50);
 1561              		.loc 1 297 0
 1562 028a 2046     		mov	r0, r4
 1563 028c FFF7FEFF 		bl	distanceSensor
 1564              	.LVL254:
 298:navigation.c  ****             distance_sensor = ultrasonic_distances_mm[ultrasonic_sensor];   // checks the distance 
 1565              		.loc 1 298 0
 1566 0290 3220     		movs	r0, #50
 1567 0292 FFF7FEFF 		bl	CyDelay
 1568              	.LVL255:
 299:navigation.c  ****             sprintf(output, "%d \t", distance_sensor);       
 1569              		.loc 1 299 0
 1570 0296 1C4B     		ldr	r3, .L120+8
 1571 0298 53F82450 		ldr	r5, [r3, r4, lsl #2]
 1572              	.LVL256:
 300:navigation.c  ****             UART_1_PutString(output);
 1573              		.loc 1 300 0
 1574 029c 2A46     		mov	r2, r5
 1575 029e 1C49     		ldr	r1, .L120+16
 1576 02a0 1A48     		ldr	r0, .L120+12
 1577 02a2 FFF7FEFF 		bl	sprintf
 1578              	.LVL257:
ARM GAS  C:\Users\Misha\AppData\Local\Temp\ccmv7pUT.s 			page 43


 301:navigation.c  ****             
 1579              		.loc 1 301 0
 1580 02a6 1948     		ldr	r0, .L120+12
 1581 02a8 FFF7FEFF 		bl	UART_1_PutString
 1582              	.LVL258:
 310:navigation.c  ****                                         && failsafe_alternator == TRUE 
 1583              		.loc 1 310 0
 1584 02ac 4046     		mov	r0, r8
 1585 02ae FFF7FEFF 		bl	__aeabi_i2d
 1586              	.LVL259:
 1587 02b2 CDE90201 		strd	r0, [sp, #8]
 1588 02b6 0198     		ldr	r0, [sp, #4]
 1589 02b8 FFF7FEFF 		bl	__aeabi_i2d
 1590              	.LVL260:
 1591 02bc 10A3     		adr	r3, .L120
 1592 02be D3E90023 		ldrd	r2, [r3]
 1593 02c2 FFF7FEFF 		bl	__aeabi_dadd
 1594              	.LVL261:
 1595 02c6 0022     		movs	r2, #0
 1596 02c8 124B     		ldr	r3, .L120+20
 1597 02ca FFF7FEFF 		bl	__aeabi_dsub
 1598              	.LVL262:
 1599 02ce 0246     		mov	r2, r0
 1600 02d0 0B46     		mov	r3, r1
 1601 02d2 DDE90201 		ldrd	r0, [sp, #8]
 1602 02d6 FFF7FEFF 		bl	__aeabi_dcmpgt
 1603              	.LVL263:
 1604 02da 58B1     		cbz	r0, .L116
 312:navigation.c  ****                 emergency_exit = failsafe(direction);
 1605              		.loc 1 312 0
 1606 02dc 159B     		ldr	r3, [sp, #84]
 1607 02de 012B     		cmp	r3, #1
 1608 02e0 1AD1     		bne	.L110
 313:navigation.c  ****                 old_count = count_left;
 1609              		.loc 1 313 0
 1610 02e2 0598     		ldr	r0, [sp, #20]
 1611 02e4 FFF7FEFF 		bl	failsafe
 1612              	.LVL264:
 1613 02e8 0746     		mov	r7, r0
 1614              	.LVL265:
 314:navigation.c  ****                 failsafe_alternator = FALSE;
 1615              		.loc 1 314 0
 1616 02ea 049B     		ldr	r3, [sp, #16]
 1617 02ec 0193     		str	r3, [sp, #4]
 315:navigation.c  ****             }
 1618              		.loc 1 315 0
 1619 02ee 4FF00008 		mov	r8, #0
 1620 02f2 13E0     		b	.L98
 1621              	.LVL266:
 1622              	.L116:
 307:navigation.c  ****             
 1623              		.loc 1 307 0
 1624 02f4 4FF00108 		mov	r8, #1
 1625 02f8 10E0     		b	.L98
 1626              	.L121:
 1627 02fa 00BFAFF3 		.align	3
 1627      0080
ARM GAS  C:\Users\Misha\AppData\Local\Temp\ccmv7pUT.s 			page 44


 1628              	.L120:
 1629 0300 F6285C8F 		.word	-1889785610
 1630 0304 C2C56B40 		.word	1080804802
 1631 0308 00000000 		.word	ultrasonic_distances_mm
 1632 030c 00000000 		.word	output
 1633 0310 08000000 		.word	.LC1
 1634 0314 00005940 		.word	1079574528
 1635              	.L110:
 1636 0318 4FF00108 		mov	r8, #1
 1637              	.LVL267:
 1638              	.L98:
 319:navigation.c  ****                                         && failsafe_alternator == FALSE 
 1639              		.loc 1 319 0
 1640 031c 0198     		ldr	r0, [sp, #4]
 1641 031e FFF7FEFF 		bl	__aeabi_i2d
 1642              	.LVL268:
 1643 0322 21A3     		adr	r3, .L122
 1644 0324 D3E90023 		ldrd	r2, [r3]
 1645 0328 FFF7FEFF 		bl	__aeabi_dadd
 1646              	.LVL269:
 1647 032c 0022     		movs	r2, #0
 1648 032e 204B     		ldr	r3, .L122+8
 1649 0330 FFF7FEFF 		bl	__aeabi_dsub
 1650              	.LVL270:
 1651 0334 0246     		mov	r2, r0
 1652 0336 0B46     		mov	r3, r1
 1653 0338 DDE90201 		ldrd	r0, [sp, #8]
 1654 033c FFF7FEFF 		bl	__aeabi_dcmpgt
 1655              	.LVL271:
 1656 0340 58B1     		cbz	r0, .L94
 320:navigation.c  ****                                         && activate_safety == TRUE){
 1657              		.loc 1 320 0
 1658 0342 B8F1000F 		cmp	r8, #0
 1659 0346 08D1     		bne	.L94
 321:navigation.c  ****                 failsafeSideSensors(side_prox_sensor, initial_side_distance);
 1660              		.loc 1 321 0
 1661 0348 159B     		ldr	r3, [sp, #84]
 1662 034a 012B     		cmp	r3, #1
 1663 034c 05D1     		bne	.L94
 322:navigation.c  ****                 old_count = count_left;
 1664              		.loc 1 322 0
 1665 034e 0899     		ldr	r1, [sp, #32]
 1666 0350 0998     		ldr	r0, [sp, #36]
 1667 0352 FFF7FEFF 		bl	failsafeSideSensors
 1668              	.LVL272:
 323:navigation.c  ****                 failsafe_alternator = TRUE;
 1669              		.loc 1 323 0
 1670 0356 049B     		ldr	r3, [sp, #16]
 1671 0358 0193     		str	r3, [sp, #4]
 1672              	.LVL273:
 1673              	.L94:
 1674              	.LBE3:
 277:navigation.c  ****             
 1675              		.loc 1 277 0
 1676 035a 8AEAEA73 		eor	r3, r10, r10, asr #31
 1677 035e A3EBEA73 		sub	r3, r3, r10, asr #31
 1678 0362 9D42     		cmp	r5, r3
ARM GAS  C:\Users\Misha\AppData\Local\Temp\ccmv7pUT.s 			page 45


 1679 0364 02DD     		ble	.L95
 277:navigation.c  ****             
 1680              		.loc 1 277 0 is_stmt 0 discriminator 1
 1681 0366 002F     		cmp	r7, #0
 1682 0368 3FF46DAF 		beq	.L102
 1683              	.L95:
 337:navigation.c  ****     CyDelay(50);
 1684              		.loc 1 337 0 is_stmt 1
 1685 036c 2046     		mov	r0, r4
 1686 036e FFF7FEFF 		bl	distanceSensor
 1687              	.LVL274:
 338:navigation.c  ****     distance_sensor = ultrasonic_distances_mm[ultrasonic_sensor];   // checks the distance measured
 1688              		.loc 1 338 0
 1689 0372 3220     		movs	r0, #50
 1690 0374 FFF7FEFF 		bl	CyDelay
 1691              	.LVL275:
 340:navigation.c  ****     UART_1_PutString(output);
 1692              		.loc 1 340 0
 1693 0378 0E4D     		ldr	r5, .L122+12
 1694 037a 0F4B     		ldr	r3, .L122+16
 1695 037c 53F82420 		ldr	r2, [r3, r4, lsl #2]
 1696 0380 0E49     		ldr	r1, .L122+20
 1697 0382 2846     		mov	r0, r5
 1698 0384 FFF7FEFF 		bl	sprintf
 1699              	.LVL276:
 341:navigation.c  ****     
 1700              		.loc 1 341 0
 1701 0388 2846     		mov	r0, r5
 1702 038a FFF7FEFF 		bl	UART_1_PutString
 1703              	.LVL277:
 343:navigation.c  ****     Motor_Right_Decoder_SetCounter(0);   
 1704              		.loc 1 343 0
 1705 038e 0020     		movs	r0, #0
 1706 0390 FFF7FEFF 		bl	Motor_Left_Decoder_SetCounter
 1707              	.LVL278:
 344:navigation.c  ****     
 1708              		.loc 1 344 0
 1709 0394 0020     		movs	r0, #0
 1710 0396 FFF7FEFF 		bl	Motor_Right_Decoder_SetCounter
 1711              	.LVL279:
 346:navigation.c  ****     Motor_Right_Driver_Sleep();
 1712              		.loc 1 346 0
 1713 039a FFF7FEFF 		bl	Motor_Left_Driver_Sleep
 1714              	.LVL280:
 347:navigation.c  ****     
 1715              		.loc 1 347 0
 1716 039e FFF7FEFF 		bl	Motor_Right_Driver_Sleep
 1717              	.LVL281:
 349:navigation.c  **** 
 1718              		.loc 1 349 0
 1719 03a2 0BB0     		add	sp, sp, #44
 1720              		.cfi_def_cfa_offset 36
 1721              		@ sp needed
 1722 03a4 BDE8F08F 		pop	{r4, r5, r6, r7, r8, r9, r10, fp, pc}
 1723              	.LVL282:
 1724              	.L123:
 1725              		.align	3
ARM GAS  C:\Users\Misha\AppData\Local\Temp\ccmv7pUT.s 			page 46


 1726              	.L122:
 1727 03a8 F6285C8F 		.word	-1889785610
 1728 03ac C2C56B40 		.word	1080804802
 1729 03b0 00005940 		.word	1079574528
 1730 03b4 00000000 		.word	output
 1731 03b8 00000000 		.word	ultrasonic_distances_mm
 1732 03bc AC000000 		.word	.LC10
 1733              		.cfi_endproc
 1734              	.LFE66:
 1735              		.size	moveUntil, .-moveUntil
 1736              		.section	.text.straightAdjustBack,"ax",%progbits
 1737              		.align	2
 1738              		.global	straightAdjustBack
 1739              		.thumb
 1740              		.thumb_func
 1741              		.type	straightAdjustBack, %function
 1742              	straightAdjustBack:
 1743              	.LFB72:
 695:navigation.c  **** 
 696:navigation.c  **** 
 697:navigation.c  **** void straightAdjustBack(void) {
 1744              		.loc 1 697 0
 1745              		.cfi_startproc
 1746              		@ args = 0, pretend = 0, frame = 0
 1747              		@ frame_needed = 0, uses_anonymous_args = 0
 1748 0000 70B5     		push	{r4, r5, r6, lr}
 1749              		.cfi_def_cfa_offset 16
 1750              		.cfi_offset 4, -16
 1751              		.cfi_offset 5, -12
 1752              		.cfi_offset 6, -8
 1753              		.cfi_offset 14, -4
 1754              	.LVL283:
 698:navigation.c  ****     // Move left, if number gets bigger, then move right
 699:navigation.c  ****     // keep moving left & right until a minimum distance is found 
 700:navigation.c  ****         // should we add another sensor to the back of the robot??? 
 701:navigation.c  ****         //  will adding another sensor affect anything? 
 702:navigation.c  ****     int distance_check;
 703:navigation.c  ****     int distance_previous = 0;  // ensures we will enter the while loop
 704:navigation.c  ****     int direction = LEFT;       // start off turning left first 
 705:navigation.c  ****     int minimum_distance;                           
 706:navigation.c  ****         
 707:navigation.c  ****     distanceSensor(BACK);
 1755              		.loc 1 707 0
 1756 0002 0420     		movs	r0, #4
 1757 0004 FFF7FEFF 		bl	distanceSensor
 1758              	.LVL284:
 708:navigation.c  ****     CyDelay(DELAY);
 1759              		.loc 1 708 0
 1760 0008 3C20     		movs	r0, #60
 1761 000a FFF7FEFF 		bl	CyDelay
 1762              	.LVL285:
 709:navigation.c  ****     
 710:navigation.c  ****     Motor_Left_Driver_Wakeup();
 1763              		.loc 1 710 0
 1764 000e FFF7FEFF 		bl	Motor_Left_Driver_Wakeup
 1765              	.LVL286:
 711:navigation.c  ****     Motor_Right_Driver_Wakeup();
ARM GAS  C:\Users\Misha\AppData\Local\Temp\ccmv7pUT.s 			page 47


 1766              		.loc 1 711 0
 1767 0012 FFF7FEFF 		bl	Motor_Right_Driver_Wakeup
 1768              	.LVL287:
 712:navigation.c  ****     Motor_Left_Driver_WriteCompare(25);
 1769              		.loc 1 712 0
 1770 0016 1920     		movs	r0, #25
 1771 0018 FFF7FEFF 		bl	Motor_Left_Driver_WriteCompare
 1772              	.LVL288:
 713:navigation.c  ****     Motor_Right_Driver_WriteCompare(25);
 1773              		.loc 1 713 0
 1774 001c 1920     		movs	r0, #25
 1775 001e FFF7FEFF 		bl	Motor_Right_Driver_WriteCompare
 1776              	.LVL289:
 714:navigation.c  ****     
 715:navigation.c  ****     distance_check = ultrasonic_distances_mm[BACK];
 1777              		.loc 1 715 0
 1778 0022 124B     		ldr	r3, .L133
 1779 0024 1C69     		ldr	r4, [r3, #16]
 1780              	.LVL290:
 704:navigation.c  ****     int minimum_distance;                           
 1781              		.loc 1 704 0
 1782 0026 0226     		movs	r6, #2
 703:navigation.c  ****     int direction = LEFT;       // start off turning left first 
 1783              		.loc 1 703 0
 1784 0028 0025     		movs	r5, #0
 1785 002a 00E0     		b	.L125
 1786              	.LVL291:
 1787              	.L130:
 716:navigation.c  ****     minimum_distance = distance_check;
 717:navigation.c  ****     
 718:navigation.c  ****     while(1) {
 719:navigation.c  ****         if (direction == LEFT) { Motor_Left_Control_Write(0); Motor_Right_Control_Write(1); }
 720:navigation.c  ****         else {Motor_Left_Control_Write(1); Motor_Right_Control_Write(0); }
 721:navigation.c  ****         
 722:navigation.c  ****         while (distance_previous > distance_check) {
 723:navigation.c  ****             // this will run while:
 724:navigation.c  ****                 // new distance values are getting smaller           
 725:navigation.c  ****             
 726:navigation.c  ****             // Updating the distance values: 
 727:navigation.c  ****             distance_previous = distance_check;
 728:navigation.c  ****             distanceSensor(BACK);
 729:navigation.c  ****             CyDelay(DELAY);
 730:navigation.c  ****             distance_check = ultrasonic_distances_mm[BACK];
 731:navigation.c  ****         }
 732:navigation.c  ****         if (direction == LEFT) {direction = RIGHT; }        // This changes the directions
 1788              		.loc 1 732 0
 1789 002c 0326     		movs	r6, #3
 1790              	.LVL292:
 1791              	.L125:
 719:navigation.c  ****         else {Motor_Left_Control_Write(1); Motor_Right_Control_Write(0); }
 1792              		.loc 1 719 0
 1793 002e 022E     		cmp	r6, #2
 1794 0030 06D1     		bne	.L126
 719:navigation.c  ****         else {Motor_Left_Control_Write(1); Motor_Right_Control_Write(0); }
 1795              		.loc 1 719 0 is_stmt 0 discriminator 1
 1796 0032 0020     		movs	r0, #0
 1797 0034 FFF7FEFF 		bl	Motor_Left_Control_Write
ARM GAS  C:\Users\Misha\AppData\Local\Temp\ccmv7pUT.s 			page 48


 1798              	.LVL293:
 1799 0038 0120     		movs	r0, #1
 1800 003a FFF7FEFF 		bl	Motor_Right_Control_Write
 1801              	.LVL294:
 1802 003e 0FE0     		b	.L127
 1803              	.L126:
 720:navigation.c  ****         
 1804              		.loc 1 720 0 is_stmt 1
 1805 0040 0120     		movs	r0, #1
 1806 0042 FFF7FEFF 		bl	Motor_Left_Control_Write
 1807              	.LVL295:
 1808 0046 0020     		movs	r0, #0
 1809 0048 FFF7FEFF 		bl	Motor_Right_Control_Write
 1810              	.LVL296:
 1811 004c 08E0     		b	.L127
 1812              	.L129:
 1813              	.LVL297:
 728:navigation.c  ****             CyDelay(DELAY);
 1814              		.loc 1 728 0
 1815 004e 0420     		movs	r0, #4
 1816 0050 FFF7FEFF 		bl	distanceSensor
 1817              	.LVL298:
 729:navigation.c  ****             distance_check = ultrasonic_distances_mm[BACK];
 1818              		.loc 1 729 0
 1819 0054 3C20     		movs	r0, #60
 1820 0056 FFF7FEFF 		bl	CyDelay
 1821              	.LVL299:
 727:navigation.c  ****             distanceSensor(BACK);
 1822              		.loc 1 727 0
 1823 005a 2546     		mov	r5, r4
 730:navigation.c  ****         }
 1824              		.loc 1 730 0
 1825 005c 034B     		ldr	r3, .L133
 1826 005e 1C69     		ldr	r4, [r3, #16]
 1827              	.LVL300:
 1828              	.L127:
 722:navigation.c  ****             // this will run while:
 1829              		.loc 1 722 0
 1830 0060 AC42     		cmp	r4, r5
 1831 0062 F4DB     		blt	.L129
 1832              		.loc 1 732 0
 1833 0064 022E     		cmp	r6, #2
 1834 0066 E1D0     		beq	.L130
 733:navigation.c  ****         else {direction = LEFT; }
 1835              		.loc 1 733 0
 1836 0068 0226     		movs	r6, #2
 1837              	.LVL301:
 1838 006a E0E7     		b	.L125
 1839              	.L134:
 1840              		.align	2
 1841              	.L133:
 1842 006c 00000000 		.word	ultrasonic_distances_mm
 1843              		.cfi_endproc
 1844              	.LFE72:
 1845              		.size	straightAdjustBack, .-straightAdjustBack
 1846              		.section	.text.toleranceCheck,"ax",%progbits
 1847              		.align	2
ARM GAS  C:\Users\Misha\AppData\Local\Temp\ccmv7pUT.s 			page 49


 1848              		.global	toleranceCheck
 1849              		.thumb
 1850              		.thumb_func
 1851              		.type	toleranceCheck, %function
 1852              	toleranceCheck:
 1853              	.LFB73:
 734:navigation.c  ****         
 735:navigation.c  ****         // This may enter an infinite loop where it can't decide if it is correct 
 736:navigation.c  ****     }
 737:navigation.c  ****     
 738:navigation.c  ****     Motor_Left_Driver_Sleep();
 739:navigation.c  ****     Motor_Right_Driver_Sleep();   
 740:navigation.c  ****     
 741:navigation.c  **** }
 742:navigation.c  **** 
 743:navigation.c  **** 
 744:navigation.c  **** void toleranceCheck(void) {
 1854              		.loc 1 744 0
 1855              		.cfi_startproc
 1856              		@ args = 0, pretend = 0, frame = 0
 1857              		@ frame_needed = 0, uses_anonymous_args = 0
 1858 0000 08B5     		push	{r3, lr}
 1859              		.cfi_def_cfa_offset 8
 1860              		.cfi_offset 3, -8
 1861              		.cfi_offset 14, -4
 1862              	.LVL302:
 745:navigation.c  ****     
 746:navigation.c  ****     // This function needs work
 747:navigation.c  **** 
 748:navigation.c  ****     int tolerance = 100;
 749:navigation.c  ****     
 750:navigation.c  ****     distanceSensor(FRONT_LEFT);
 1863              		.loc 1 750 0
 1864 0002 0020     		movs	r0, #0
 1865 0004 FFF7FEFF 		bl	distanceSensor
 1866              	.LVL303:
 751:navigation.c  ****     CyDelay(60);
 1867              		.loc 1 751 0
 1868 0008 3C20     		movs	r0, #60
 1869 000a FFF7FEFF 		bl	CyDelay
 1870              	.LVL304:
 752:navigation.c  ****     distanceSensor(FRONT_LEFT);
 1871              		.loc 1 752 0
 1872 000e 0020     		movs	r0, #0
 1873 0010 FFF7FEFF 		bl	distanceSensor
 1874              	.LVL305:
 753:navigation.c  ****     CyDelay(60);
 1875              		.loc 1 753 0
 1876 0014 3C20     		movs	r0, #60
 1877 0016 FFF7FEFF 		bl	CyDelay
 1878              	.LVL306:
 754:navigation.c  ****     distanceSensor(BACK);
 1879              		.loc 1 754 0
 1880 001a 0420     		movs	r0, #4
 1881 001c FFF7FEFF 		bl	distanceSensor
 1882              	.LVL307:
 755:navigation.c  ****     CyDelay(60);
ARM GAS  C:\Users\Misha\AppData\Local\Temp\ccmv7pUT.s 			page 50


 1883              		.loc 1 755 0
 1884 0020 3C20     		movs	r0, #60
 1885 0022 FFF7FEFF 		bl	CyDelay
 1886              	.LVL308:
 756:navigation.c  ****     
 757:navigation.c  ****     while (ultrasonic_distances_mm[FRONT_LEFT] + ultrasonic_distances_mm[BACK] + tolerance < ARENA_
 1887              		.loc 1 757 0
 1888 0026 11E0     		b	.L136
 1889              	.L137:
 758:navigation.c  ****             
 759:navigation.c  ****     
 760:navigation.c  ****     
 761:navigation.c  ****     
 762:navigation.c  ****     || ultrasonic_distances_mm[FRONT_LEFT] + ultrasonic_distances_mm[BACK] + tolerance < ARENA_WIDT
 763:navigation.c  ****             // this checks if the ultrasonic distances being recorded are accurate
 764:navigation.c  ****             // if it is not within this threshold, there must be something up.  
 765:navigation.c  ****                 
 766:navigation.c  ****     distanceSensor(FRONT_LEFT);
 1890              		.loc 1 766 0
 1891 0028 0020     		movs	r0, #0
 1892 002a FFF7FEFF 		bl	distanceSensor
 1893              	.LVL309:
 767:navigation.c  ****     CyDelay(60);
 1894              		.loc 1 767 0
 1895 002e 3C20     		movs	r0, #60
 1896 0030 FFF7FEFF 		bl	CyDelay
 1897              	.LVL310:
 768:navigation.c  ****     distanceSensor(FRONT_LEFT);
 1898              		.loc 1 768 0
 1899 0034 0020     		movs	r0, #0
 1900 0036 FFF7FEFF 		bl	distanceSensor
 1901              	.LVL311:
 769:navigation.c  ****     CyDelay(60);
 1902              		.loc 1 769 0
 1903 003a 3C20     		movs	r0, #60
 1904 003c FFF7FEFF 		bl	CyDelay
 1905              	.LVL312:
 770:navigation.c  ****     distanceSensor(BACK);
 1906              		.loc 1 770 0
 1907 0040 0420     		movs	r0, #4
 1908 0042 FFF7FEFF 		bl	distanceSensor
 1909              	.LVL313:
 771:navigation.c  ****     CyDelay(60);
 1910              		.loc 1 771 0
 1911 0046 3C20     		movs	r0, #60
 1912 0048 FFF7FEFF 		bl	CyDelay
 1913              	.LVL314:
 1914              	.L136:
 757:navigation.c  ****             
 1915              		.loc 1 757 0
 1916 004c 044A     		ldr	r2, .L139
 1917 004e 1168     		ldr	r1, [r2]
 1918 0050 1369     		ldr	r3, [r2, #16]
 1919 0052 0B44     		add	r3, r3, r1
 1920 0054 6433     		adds	r3, r3, #100
 1921 0056 B3F5966F 		cmp	r3, #1200
 1922 005a E5DB     		blt	.L137
ARM GAS  C:\Users\Misha\AppData\Local\Temp\ccmv7pUT.s 			page 51


 772:navigation.c  ****         
 773:navigation.c  ****     }
 774:navigation.c  ****     
 775:navigation.c  **** }
 1923              		.loc 1 775 0
 1924 005c 08BD     		pop	{r3, pc}
 1925              	.L140:
 1926 005e 00BF     		.align	2
 1927              	.L139:
 1928 0060 00000000 		.word	ultrasonic_distances_mm
 1929              		.cfi_endproc
 1930              	.LFE73:
 1931              		.size	toleranceCheck, .-toleranceCheck
 1932              		.section	.text.locatePucks,"ax",%progbits
 1933              		.align	2
 1934              		.global	locatePucks
 1935              		.thumb
 1936              		.thumb_func
 1937              		.type	locatePucks, %function
 1938              	locatePucks:
 1939              	.LFB74:
 776:navigation.c  **** 
 777:navigation.c  **** void locatePucks(void)
 778:navigation.c  **** {
 1940              		.loc 1 778 0
 1941              		.cfi_startproc
 1942              		@ args = 0, pretend = 0, frame = 0
 1943              		@ frame_needed = 0, uses_anonymous_args = 0
 1944              		@ link register save eliminated.
 1945 0000 7047     		bx	lr
 1946              		.cfi_endproc
 1947              	.LFE74:
 1948              		.size	locatePucks, .-locatePucks
 1949 0002 00BF     		.section	.text.blockAndPuckZoneFinding,"ax",%progbits
 1950              		.align	2
 1951              		.global	blockAndPuckZoneFinding
 1952              		.thumb
 1953              		.thumb_func
 1954              		.type	blockAndPuckZoneFinding, %function
 1955              	blockAndPuckZoneFinding:
 1956              	.LFB75:
 779:navigation.c  ****     
 780:navigation.c  ****     
 781:navigation.c  ****     
 782:navigation.c  ****     
 783:navigation.c  **** }
 784:navigation.c  **** 
 785:navigation.c  **** 
 786:navigation.c  **** void blockAndPuckZoneFinding(void) {
 1957              		.loc 1 786 0
 1958              		.cfi_startproc
 1959              		@ args = 0, pretend = 0, frame = 0
 1960              		@ frame_needed = 0, uses_anonymous_args = 0
 1961              		@ link register save eliminated.
 1962              	.LVL315:
 1963 0000 7047     		bx	lr
 1964              		.cfi_endproc
ARM GAS  C:\Users\Misha\AppData\Local\Temp\ccmv7pUT.s 			page 52


 1965              	.LFE75:
 1966              		.size	blockAndPuckZoneFinding, .-blockAndPuckZoneFinding
 1967 0002 00BF     		.section	.text.straightAdjustSensor,"ax",%progbits
 1968              		.align	2
 1969              		.global	straightAdjustSensor
 1970              		.thumb
 1971              		.thumb_func
 1972              		.type	straightAdjustSensor, %function
 1973              	straightAdjustSensor:
 1974              	.LFB76:
 787:navigation.c  ****     // this function will scan while moving across, and depending on different thresholds, whill tr
 788:navigation.c  ****     // either for a block or a  puck
 789:navigation.c  ****     
 790:navigation.c  ****     int block_threshold; // the block toloerance will be anything less than 700mm - width of robot 
 791:navigation.c  ****     
 792:navigation.c  ****     int puck_threshold;     // the puck zone will be between 1200 - width of robot - opposite senso
 793:navigation.c  ****                                                         //  & 1200 - grid_width - width of robot - 
 794:navigation.c  ****     
 795:navigation.c  ****     int distance_sensor;    // the value the ultrasonic sensors will give us
 796:navigation.c  ****     
 797:navigation.c  ****     // first check the south facing sensor's value, ensure that it is correct
 798:navigation.c  ****     
 799:navigation.c  ****     
 800:navigation.c  ****     // need to scan the front or back sensors
 801:navigation.c  ****     // This function can be generalised, but I'm going to first write it just assuming we are movin
 802:navigation.c  ****     // from the west wall towards the east wall
 803:navigation.c  ****     
 804:navigation.c  ****     // The following while loop will run while the sensor is above the puck threshold and inbetween
 805:navigation.c  ****     // the puck threshold and the block threshold 
 806:navigation.c  ****     // as soon as it moves outside of this threshold, it will trigger, and then we will determine w
 807:navigation.c  ****     // the puck or the block that triggere it
 808:navigation.c  ****     
 809:navigation.c  ****     // Then it will keep moving, looking to trigger only for the other object
 810:navigation.c  ****     
 811:navigation.c  ****     
 812:navigation.c  ****     
 813:navigation.c  ****     // Calculate the block threshold:
 814:navigation.c  ****     block_threshold = 0;
 815:navigation.c  ****     
 816:navigation.c  ****     // Calulcate the puck threshold: 
 817:navigation.c  ****     puck_threshold = 0;
 818:navigation.c  ****     
 819:navigation.c  ****     
 820:navigation.c  ****     // Hardcoded values for both, assuming location of robot: (if dynamic versions don't work) 
 821:navigation.c  ****     
 822:navigation.c  ****     distance_sensor = (puck_threshold + block_threshold)/2;     // Used to initialise the while loo
 823:navigation.c  ****     
 824:navigation.c  ****     while (distance_sensor > puck_threshold) {
 825:navigation.c  ****     
 826:navigation.c  ****         
 827:navigation.c  ****     
 828:navigation.c  ****     } 
 829:navigation.c  ****     if (distance_sensor < puck_threshold && distance_sensor > block_threshold) {
 830:navigation.c  ****         // The puck sensor tripped the sensor
 831:navigation.c  ****         
 832:navigation.c  ****         
 833:navigation.c  ****         
ARM GAS  C:\Users\Misha\AppData\Local\Temp\ccmv7pUT.s 			page 53


 834:navigation.c  ****         // Enter while loop to find block: 
 835:navigation.c  ****         while (distance_sensor > block_threshold) {
 836:navigation.c  ****             
 837:navigation.c  ****             
 838:navigation.c  ****             
 839:navigation.c  ****         }
 840:navigation.c  **** 
 841:navigation.c  ****     }
 842:navigation.c  ****     else if (distance_sensor < block_threshold) {
 843:navigation.c  ****         // The block tripped the sensor 
 844:navigation.c  ****         
 845:navigation.c  ****         
 846:navigation.c  ****         
 847:navigation.c  ****         // Enter while loop to find puck:         
 848:navigation.c  ****         while (distance_sensor > puck_threshold && distance_sensor < block_threshold) {
 849:navigation.c  ****             
 850:navigation.c  ****             
 851:navigation.c  ****         }
 852:navigation.c  ****         
 853:navigation.c  ****     }
 854:navigation.c  ****     
 855:navigation.c  **** 
 856:navigation.c  **** }
 857:navigation.c  **** 
 858:navigation.c  **** void straightAdjustSensor(int sensor){
 1975              		.loc 1 858 0
 1976              		.cfi_startproc
 1977              		@ args = 0, pretend = 0, frame = 0
 1978              		@ frame_needed = 0, uses_anonymous_args = 0
 1979              	.LVL316:
 1980              		.loc 1 858 0
 1981 0000 70B5     		push	{r4, r5, r6, lr}
 1982              		.cfi_def_cfa_offset 16
 1983              		.cfi_offset 4, -16
 1984              		.cfi_offset 5, -12
 1985              		.cfi_offset 6, -8
 1986              		.cfi_offset 14, -4
 1987 0002 0546     		mov	r5, r0
 859:navigation.c  ****     //Start by rotating a definite direction away from the rough center point we have aligned in be
 860:navigation.c  ****     moveSwivel(OVER_ROTATION_ANGLE, SPEED_LOW, FALSE);
 1988              		.loc 1 860 0
 1989 0004 0022     		movs	r2, #0
 1990 0006 4621     		movs	r1, #70
 1991 0008 1420     		movs	r0, #20
 1992              	.LVL317:
 1993 000a FFF7FEFF 		bl	moveSwivel
 1994              	.LVL318:
 861:navigation.c  ****     distanceSensor(sensor);
 1995              		.loc 1 861 0
 1996 000e 2846     		mov	r0, r5
 1997 0010 FFF7FEFF 		bl	distanceSensor
 1998              	.LVL319:
 862:navigation.c  ****     int minimum = ultrasonic_distances_mm[sensor];
 1999              		.loc 1 862 0
 2000 0014 104B     		ldr	r3, .L149
 2001 0016 53F82560 		ldr	r6, [r3, r5, lsl #2]
 2002              	.LVL320:
ARM GAS  C:\Users\Misha\AppData\Local\Temp\ccmv7pUT.s 			page 54


 863:navigation.c  ****     int above_minimum_count = 0;
 2003              		.loc 1 863 0
 2004 001a 0024     		movs	r4, #0
 2005              	.LVL321:
 2006              	.L146:
 864:navigation.c  ****     while(1){
 865:navigation.c  ****         distanceSensor(sensor);
 2007              		.loc 1 865 0
 2008 001c 2846     		mov	r0, r5
 2009 001e FFF7FEFF 		bl	distanceSensor
 2010              	.LVL322:
 866:navigation.c  ****         CyDelay(100);
 2011              		.loc 1 866 0
 2012 0022 6420     		movs	r0, #100
 2013 0024 FFF7FEFF 		bl	CyDelay
 2014              	.LVL323:
 867:navigation.c  ****         
 868:navigation.c  ****         if (ultrasonic_distances_mm[sensor] < minimum) { // Update minimum if smaller value is foun
 2015              		.loc 1 868 0
 2016 0028 0B4B     		ldr	r3, .L149
 2017 002a 53F82530 		ldr	r3, [r3, r5, lsl #2]
 2018 002e 9E42     		cmp	r6, r3
 2019 0030 01DC     		bgt	.L147
 869:navigation.c  ****             minimum = ultrasonic_distances_mm[sensor];
 870:navigation.c  ****             above_minimum_count = 0;
 871:navigation.c  ****         } 
 872:navigation.c  ****         else {
 873:navigation.c  ****             above_minimum_count++;   
 2020              		.loc 1 873 0
 2021 0032 0134     		adds	r4, r4, #1
 2022              	.LVL324:
 2023 0034 01E0     		b	.L144
 2024              	.L147:
 869:navigation.c  ****             minimum = ultrasonic_distances_mm[sensor];
 2025              		.loc 1 869 0
 2026 0036 1E46     		mov	r6, r3
 2027              	.LVL325:
 870:navigation.c  ****         } 
 2028              		.loc 1 870 0
 2029 0038 0024     		movs	r4, #0
 2030              	.LVL326:
 2031              	.L144:
 874:navigation.c  ****         }
 875:navigation.c  ****         
 876:navigation.c  ****         if (above_minimum_count == ABOVE_MINIMUM_COUNT_THRESHOLD){
 2032              		.loc 1 876 0
 2033 003a 032C     		cmp	r4, #3
 2034 003c 04D1     		bne	.L145
 877:navigation.c  ****             moveSwivel(ABOVE_MINIMUM_COUNT_THRESHOLD, SPEED_LOW_ROTATE, FALSE);   
 2035              		.loc 1 877 0
 2036 003e 0022     		movs	r2, #0
 2037 0040 1921     		movs	r1, #25
 2038 0042 0320     		movs	r0, #3
 2039 0044 FFF7FEFF 		bl	moveSwivel
 2040              	.LVL327:
 2041              	.L145:
 878:navigation.c  ****         }
ARM GAS  C:\Users\Misha\AppData\Local\Temp\ccmv7pUT.s 			page 55


 879:navigation.c  **** 
 880:navigation.c  ****         moveSwivel(-1, SPEED_LOW_ROTATE, FALSE);
 2042              		.loc 1 880 0
 2043 0048 0022     		movs	r2, #0
 2044 004a 1921     		movs	r1, #25
 2045 004c 4FF0FF30 		mov	r0, #-1
 2046 0050 FFF7FEFF 		bl	moveSwivel
 2047              	.LVL328:
 881:navigation.c  ****     }
 2048              		.loc 1 881 0
 2049 0054 E2E7     		b	.L146
 2050              	.L150:
 2051 0056 00BF     		.align	2
 2052              	.L149:
 2053 0058 00000000 		.word	ultrasonic_distances_mm
 2054              		.cfi_endproc
 2055              	.LFE76:
 2056              		.size	straightAdjustSensor, .-straightAdjustSensor
 2057              		.comm	ultrasonic_flag,4,4
 2058              		.comm	initialisation,4,4
 2059              		.comm	output,32,4
 2060              		.comm	turningRightFlag,2,2
 2061              		.comm	turningLeftFlag,2,2
 2062              		.comm	drivingBackwardFlag,2,2
 2063              		.comm	drivingForwardFlag,2,2
 2064              		.comm	puckPileLocation,4,4
 2065              		.comm	block_edge_location,16,4
 2066              		.comm	sweeping,4,4
 2067              		.comm	puckRackOffsetsFromWest,20,4
 2068              		.comm	puckRackColours,20,4
 2069              		.comm	currentPuckRackScanningIndex,4,4
 2070              		.comm	driveStraightEnable,4,4
 2071              		.comm	internal_orientation,4,4
 2072              		.section	.rodata.str1.4,"aMS",%progbits,1
 2073              		.align	2
 2074              	.LC0:
 2075 0000 25692009 		.ascii	"%i \011\000"
 2075      00
 2076 0005 000000   		.space	3
 2077              	.LC1:
 2078 0008 25642009 		.ascii	"%d \011\000"
 2078      00
 2079 000d 000000   		.space	3
 2080              	.LC2:
 2081 0010 656E7465 		.ascii	"entering greater than\012\000"
 2081      72696E67 
 2081      20677265 
 2081      61746572 
 2081      20746861 
 2082 0027 00       		.space	1
 2083              	.LC3:
 2084 0028 656E7465 		.ascii	"entering less than\012\000"
 2084      72696E67 
 2084      206C6573 
 2084      73207468 
 2084      616E0A00 
 2085              	.LC4:
ARM GAS  C:\Users\Misha\AppData\Local\Temp\ccmv7pUT.s 			page 56


 2086 003c 65786974 		.ascii	"exited loop\000"
 2086      6564206C 
 2086      6F6F7000 
 2087              	.LC5:
 2088 0048 53414645 		.ascii	"SAFETY MARGIN ACTIVATED @ %d\012\000"
 2088      5459204D 
 2088      41524749 
 2088      4E204143 
 2088      54495641 
 2089 0066 0000     		.space	2
 2090              	.LC6:
 2091 0068 64696666 		.ascii	"difference = %d, \012\000"
 2091      6572656E 
 2091      6365203D 
 2091      2025642C 
 2091      200A00
 2092 007b 00       		.space	1
 2093              	.LC7:
 2094 007c 20256420 		.ascii	" %d , %d \011 dif: %d, \012\000"
 2094      2C202564 
 2094      20092064 
 2094      69663A20 
 2094      25642C20 
 2095 0092 0000     		.space	2
 2096              	.LC8:
 2097 0094 25642C20 		.ascii	"%d, %d, \000"
 2097      25642C20 
 2097      00
 2098 009d 000000   		.space	3
 2099              	.LC9:
 2100 00a0 6469663A 		.ascii	"dif: %d, \012\000"
 2100      2025642C 
 2100      200A00
 2101 00ab 00       		.space	1
 2102              	.LC10:
 2103 00ac 0A206669 		.ascii	"\012 fin: %d \012\000"
 2103      6E3A2025 
 2103      64200A00 
 2104              		.text
 2105              	.Letext0:
 2106              		.file 2 "c:\\program files (x86)\\cypress\\psoc creator\\4.2\\psoc creator\\import\\gnu\\arm\\5.4.
 2107              		.file 3 "c:\\program files (x86)\\cypress\\psoc creator\\4.2\\psoc creator\\import\\gnu\\arm\\5.4.
 2108              		.file 4 "Generated_Source\\PSoC5/core_cm3.h"
 2109              		.file 5 "navigation.h"
 2110              		.file 6 "ultrasonic.h"
 2111              		.file 7 "main.h"
 2112              		.file 8 "servo.h"
 2113              		.file 9 "colour.h"
 2114              		.file 10 "Generated_Source\\PSoC5/Motor_Left_Control.h"
 2115              		.file 11 "Generated_Source\\PSoC5/Motor_Right_Control.h"
 2116              		.file 12 "Generated_Source\\PSoC5/Motor_Left_Driver.h"
 2117              		.file 13 "Generated_Source\\PSoC5/Motor_Right_Driver.h"
 2118              		.file 14 "Generated_Source\\PSoC5/control_photodiode.h"
 2119              		.file 15 "Generated_Source\\PSoC5/Motor_Right_Decoder.h"
 2120              		.file 16 "Generated_Source\\PSoC5/Motor_Left_Decoder.h"
 2121              		.file 17 "Generated_Source\\PSoC5/CyLib.h"
 2122              		.file 18 "c:\\program files (x86)\\cypress\\psoc creator\\4.2\\psoc creator\\import\\gnu\\arm\\5.4
ARM GAS  C:\Users\Misha\AppData\Local\Temp\ccmv7pUT.s 			page 57


 2123              		.file 19 "Generated_Source\\PSoC5/UART_1.h"
 2124              		.file 20 "motor.h"
 2125              		.section	.debug_info,"",%progbits
 2126              	.Ldebug_info0:
 2127 0000 30170000 		.4byte	0x1730
 2128 0004 0400     		.2byte	0x4
 2129 0006 00000000 		.4byte	.Ldebug_abbrev0
 2130 000a 04       		.byte	0x4
 2131 000b 01       		.uleb128 0x1
 2132 000c 25070000 		.4byte	.LASF115
 2133 0010 0C       		.byte	0xc
 2134 0011 19010000 		.4byte	.LASF116
 2135 0015 59060000 		.4byte	.LASF117
 2136 0019 00000000 		.4byte	.Ldebug_ranges0+0
 2137 001d 00000000 		.4byte	0
 2138 0021 00000000 		.4byte	.Ldebug_line0
 2139 0025 02       		.uleb128 0x2
 2140 0026 01       		.byte	0x1
 2141 0027 06       		.byte	0x6
 2142 0028 3A040000 		.4byte	.LASF0
 2143 002c 02       		.uleb128 0x2
 2144 002d 01       		.byte	0x1
 2145 002e 08       		.byte	0x8
 2146 002f 05040000 		.4byte	.LASF1
 2147 0033 02       		.uleb128 0x2
 2148 0034 02       		.byte	0x2
 2149 0035 05       		.byte	0x5
 2150 0036 D8010000 		.4byte	.LASF2
 2151 003a 02       		.uleb128 0x2
 2152 003b 02       		.byte	0x2
 2153 003c 07       		.byte	0x7
 2154 003d BA040000 		.4byte	.LASF3
 2155 0041 03       		.uleb128 0x3
 2156 0042 3F060000 		.4byte	.LASF9
 2157 0046 02       		.byte	0x2
 2158 0047 3F       		.byte	0x3f
 2159 0048 4C000000 		.4byte	0x4c
 2160 004c 02       		.uleb128 0x2
 2161 004d 04       		.byte	0x4
 2162 004e 05       		.byte	0x5
 2163 004f DD020000 		.4byte	.LASF4
 2164 0053 02       		.uleb128 0x2
 2165 0054 04       		.byte	0x4
 2166 0055 07       		.byte	0x7
 2167 0056 97050000 		.4byte	.LASF5
 2168 005a 02       		.uleb128 0x2
 2169 005b 08       		.byte	0x8
 2170 005c 05       		.byte	0x5
 2171 005d B6020000 		.4byte	.LASF6
 2172 0061 02       		.uleb128 0x2
 2173 0062 08       		.byte	0x8
 2174 0063 07       		.byte	0x7
 2175 0064 5A040000 		.4byte	.LASF7
 2176 0068 04       		.uleb128 0x4
 2177 0069 04       		.byte	0x4
 2178 006a 05       		.byte	0x5
 2179 006b 696E7400 		.ascii	"int\000"
ARM GAS  C:\Users\Misha\AppData\Local\Temp\ccmv7pUT.s 			page 58


 2180 006f 02       		.uleb128 0x2
 2181 0070 04       		.byte	0x4
 2182 0071 07       		.byte	0x7
 2183 0072 71040000 		.4byte	.LASF8
 2184 0076 03       		.uleb128 0x3
 2185 0077 06030000 		.4byte	.LASF10
 2186 007b 03       		.byte	0x3
 2187 007c 2C       		.byte	0x2c
 2188 007d 41000000 		.4byte	0x41
 2189 0081 02       		.uleb128 0x2
 2190 0082 04       		.byte	0x4
 2191 0083 04       		.byte	0x4
 2192 0084 A3020000 		.4byte	.LASF11
 2193 0088 02       		.uleb128 0x2
 2194 0089 08       		.byte	0x8
 2195 008a 04       		.byte	0x4
 2196 008b B5050000 		.4byte	.LASF12
 2197 008f 02       		.uleb128 0x2
 2198 0090 01       		.byte	0x1
 2199 0091 08       		.byte	0x8
 2200 0092 F9040000 		.4byte	.LASF13
 2201 0096 02       		.uleb128 0x2
 2202 0097 08       		.byte	0x8
 2203 0098 04       		.byte	0x4
 2204 0099 76010000 		.4byte	.LASF14
 2205 009d 02       		.uleb128 0x2
 2206 009e 04       		.byte	0x4
 2207 009f 07       		.byte	0x7
 2208 00a0 39010000 		.4byte	.LASF15
 2209 00a4 05       		.uleb128 0x5
 2210 00a5 30040000 		.4byte	.LASF18
 2211 00a9 01       		.byte	0x1
 2212 00aa 20       		.byte	0x20
 2213 00ab 00000000 		.4byte	.LFB64
 2214 00af 48000000 		.4byte	.LFE64-.LFB64
 2215 00b3 01       		.uleb128 0x1
 2216 00b4 9C       		.byte	0x9c
 2217 00b5 25010000 		.4byte	0x125
 2218 00b9 06       		.uleb128 0x6
 2219 00ba 85020000 		.4byte	.LASF16
 2220 00be 01       		.byte	0x1
 2221 00bf 22       		.byte	0x22
 2222 00c0 68000000 		.4byte	0x68
 2223 00c4 00000000 		.4byte	.LLST0
 2224 00c8 06       		.uleb128 0x6
 2225 00c9 35060000 		.4byte	.LASF17
 2226 00cd 01       		.byte	0x1
 2227 00ce 23       		.byte	0x23
 2228 00cf 68000000 		.4byte	0x68
 2229 00d3 1F000000 		.4byte	.LLST1
 2230 00d7 07       		.uleb128 0x7
 2231 00d8 10000000 		.4byte	.LVL1
 2232 00dc 36160000 		.4byte	0x1636
 2233 00e0 EF000000 		.4byte	0xef
 2234 00e4 08       		.uleb128 0x8
 2235 00e5 01       		.uleb128 0x1
 2236 00e6 50       		.byte	0x50
ARM GAS  C:\Users\Misha\AppData\Local\Temp\ccmv7pUT.s 			page 59


 2237 00e7 01       		.uleb128 0x1
 2238 00e8 33       		.byte	0x33
 2239 00e9 08       		.uleb128 0x8
 2240 00ea 01       		.uleb128 0x1
 2241 00eb 51       		.byte	0x51
 2242 00ec 01       		.uleb128 0x1
 2243 00ed 32       		.byte	0x32
 2244 00ee 00       		.byte	0
 2245 00ef 07       		.uleb128 0x7
 2246 00f0 1C000000 		.4byte	.LVL3
 2247 00f4 36160000 		.4byte	0x1636
 2248 00f8 07010000 		.4byte	0x107
 2249 00fc 08       		.uleb128 0x8
 2250 00fd 01       		.uleb128 0x1
 2251 00fe 50       		.byte	0x50
 2252 00ff 01       		.uleb128 0x1
 2253 0100 31       		.byte	0x31
 2254 0101 08       		.uleb128 0x8
 2255 0102 01       		.uleb128 0x1
 2256 0103 51       		.byte	0x51
 2257 0104 01       		.uleb128 0x1
 2258 0105 32       		.byte	0x32
 2259 0106 00       		.byte	0
 2260 0107 09       		.uleb128 0x9
 2261 0108 20000000 		.4byte	.LVL4
 2262 010c 41160000 		.4byte	0x1641
 2263 0110 0A       		.uleb128 0xa
 2264 0111 2A000000 		.4byte	.LVL7
 2265 0115 36160000 		.4byte	0x1636
 2266 0119 08       		.uleb128 0x8
 2267 011a 01       		.uleb128 0x1
 2268 011b 50       		.byte	0x50
 2269 011c 01       		.uleb128 0x1
 2270 011d 33       		.byte	0x33
 2271 011e 08       		.uleb128 0x8
 2272 011f 01       		.uleb128 0x1
 2273 0120 51       		.byte	0x51
 2274 0121 01       		.uleb128 0x1
 2275 0122 32       		.byte	0x32
 2276 0123 00       		.byte	0
 2277 0124 00       		.byte	0
 2278 0125 05       		.uleb128 0x5
 2279 0126 F7030000 		.4byte	.LASF19
 2280 012a 01       		.byte	0x1
 2281 012b 55       		.byte	0x55
 2282 012c 00000000 		.4byte	.LFB65
 2283 0130 D0000000 		.4byte	.LFE65-.LFB65
 2284 0134 01       		.uleb128 0x1
 2285 0135 9C       		.byte	0x9c
 2286 0136 FD020000 		.4byte	0x2fd
 2287 013a 0B       		.uleb128 0xb
 2288 013b 16060000 		.4byte	.LASF27
 2289 013f 01       		.byte	0x1
 2290 0140 55       		.byte	0x55
 2291 0141 68000000 		.4byte	0x68
 2292 0145 3D000000 		.4byte	.LLST2
 2293 0149 06       		.uleb128 0x6
ARM GAS  C:\Users\Misha\AppData\Local\Temp\ccmv7pUT.s 			page 60


 2294 014a 55050000 		.4byte	.LASF20
 2295 014e 01       		.byte	0x1
 2296 014f 57       		.byte	0x57
 2297 0150 68000000 		.4byte	0x68
 2298 0154 69000000 		.4byte	.LLST3
 2299 0158 0C       		.uleb128 0xc
 2300 0159 7E040000 		.4byte	.LASF21
 2301 015d 01       		.byte	0x1
 2302 015e 59       		.byte	0x59
 2303 015f 68000000 		.4byte	0x68
 2304 0163 46       		.byte	0x46
 2305 0164 06       		.uleb128 0x6
 2306 0165 BB070000 		.4byte	.LASF22
 2307 0169 01       		.byte	0x1
 2308 016a 5B       		.byte	0x5b
 2309 016b 68000000 		.4byte	0x68
 2310 016f 9E000000 		.4byte	.LLST4
 2311 0173 06       		.uleb128 0x6
 2312 0174 FB020000 		.4byte	.LASF23
 2313 0178 01       		.byte	0x1
 2314 0179 5C       		.byte	0x5c
 2315 017a 68000000 		.4byte	0x68
 2316 017e BC000000 		.4byte	.LLST5
 2317 0182 06       		.uleb128 0x6
 2318 0183 A8000000 		.4byte	.LASF24
 2319 0187 01       		.byte	0x1
 2320 0188 5D       		.byte	0x5d
 2321 0189 68000000 		.4byte	0x68
 2322 018d DA000000 		.4byte	.LLST6
 2323 0191 06       		.uleb128 0x6
 2324 0192 C7070000 		.4byte	.LASF25
 2325 0196 01       		.byte	0x1
 2326 0197 5E       		.byte	0x5e
 2327 0198 68000000 		.4byte	0x68
 2328 019c FA000000 		.4byte	.LLST7
 2329 01a0 07       		.uleb128 0x7
 2330 01a1 0C000000 		.4byte	.LVL13
 2331 01a5 4C160000 		.4byte	0x164c
 2332 01a9 B3010000 		.4byte	0x1b3
 2333 01ad 08       		.uleb128 0x8
 2334 01ae 01       		.uleb128 0x1
 2335 01af 50       		.byte	0x50
 2336 01b0 01       		.uleb128 0x1
 2337 01b1 30       		.byte	0x30
 2338 01b2 00       		.byte	0
 2339 01b3 07       		.uleb128 0x7
 2340 01b4 12000000 		.4byte	.LVL14
 2341 01b8 57160000 		.4byte	0x1657
 2342 01bc C6010000 		.4byte	0x1c6
 2343 01c0 08       		.uleb128 0x8
 2344 01c1 01       		.uleb128 0x1
 2345 01c2 50       		.byte	0x50
 2346 01c3 01       		.uleb128 0x1
 2347 01c4 30       		.byte	0x30
 2348 01c5 00       		.byte	0
 2349 01c6 09       		.uleb128 0x9
 2350 01c7 16000000 		.4byte	.LVL15
ARM GAS  C:\Users\Misha\AppData\Local\Temp\ccmv7pUT.s 			page 61


 2351 01cb 62160000 		.4byte	0x1662
 2352 01cf 07       		.uleb128 0x7
 2353 01d0 1C000000 		.4byte	.LVL16
 2354 01d4 6D160000 		.4byte	0x166d
 2355 01d8 E3010000 		.4byte	0x1e3
 2356 01dc 08       		.uleb128 0x8
 2357 01dd 01       		.uleb128 0x1
 2358 01de 50       		.byte	0x50
 2359 01df 02       		.uleb128 0x2
 2360 01e0 08       		.byte	0x8
 2361 01e1 46       		.byte	0x46
 2362 01e2 00       		.byte	0
 2363 01e3 09       		.uleb128 0x9
 2364 01e4 20000000 		.4byte	.LVL17
 2365 01e8 78160000 		.4byte	0x1678
 2366 01ec 07       		.uleb128 0x7
 2367 01ed 26000000 		.4byte	.LVL18
 2368 01f1 83160000 		.4byte	0x1683
 2369 01f5 00020000 		.4byte	0x200
 2370 01f9 08       		.uleb128 0x8
 2371 01fa 01       		.uleb128 0x1
 2372 01fb 50       		.byte	0x50
 2373 01fc 02       		.uleb128 0x2
 2374 01fd 08       		.byte	0x8
 2375 01fe 46       		.byte	0x46
 2376 01ff 00       		.byte	0
 2377 0200 09       		.uleb128 0x9
 2378 0201 2A000000 		.4byte	.LVL19
 2379 0205 8E160000 		.4byte	0x168e
 2380 0209 07       		.uleb128 0x7
 2381 020a 30000000 		.4byte	.LVL20
 2382 020e 99160000 		.4byte	0x1699
 2383 0212 1C020000 		.4byte	0x21c
 2384 0216 08       		.uleb128 0x8
 2385 0217 01       		.uleb128 0x1
 2386 0218 50       		.byte	0x50
 2387 0219 01       		.uleb128 0x1
 2388 021a 31       		.byte	0x31
 2389 021b 00       		.byte	0
 2390 021c 09       		.uleb128 0x9
 2391 021d 42000000 		.4byte	.LVL22
 2392 0221 A4160000 		.4byte	0x16a4
 2393 0225 09       		.uleb128 0x9
 2394 0226 48000000 		.4byte	.LVL24
 2395 022a AF160000 		.4byte	0x16af
 2396 022e 09       		.uleb128 0x9
 2397 022f 4E000000 		.4byte	.LVL26
 2398 0233 41160000 		.4byte	0x1641
 2399 0237 07       		.uleb128 0x7
 2400 0238 56000000 		.4byte	.LVL29
 2401 023c BA160000 		.4byte	0x16ba
 2402 0240 4A020000 		.4byte	0x24a
 2403 0244 08       		.uleb128 0x8
 2404 0245 01       		.uleb128 0x1
 2405 0246 50       		.byte	0x50
 2406 0247 01       		.uleb128 0x1
 2407 0248 3A       		.byte	0x3a
ARM GAS  C:\Users\Misha\AppData\Local\Temp\ccmv7pUT.s 			page 62


 2408 0249 00       		.byte	0
 2409 024a 07       		.uleb128 0x7
 2410 024b 62000000 		.4byte	.LVL30
 2411 024f C5160000 		.4byte	0x16c5
 2412 0253 6D020000 		.4byte	0x26d
 2413 0257 08       		.uleb128 0x8
 2414 0258 01       		.uleb128 0x1
 2415 0259 50       		.byte	0x50
 2416 025a 02       		.uleb128 0x2
 2417 025b 77       		.byte	0x77
 2418 025c 00       		.sleb128 0
 2419 025d 08       		.uleb128 0x8
 2420 025e 01       		.uleb128 0x1
 2421 025f 51       		.byte	0x51
 2422 0260 05       		.uleb128 0x5
 2423 0261 03       		.byte	0x3
 2424 0262 00000000 		.4byte	.LC0
 2425 0266 08       		.uleb128 0x8
 2426 0267 01       		.uleb128 0x1
 2427 0268 52       		.byte	0x52
 2428 0269 02       		.uleb128 0x2
 2429 026a 76       		.byte	0x76
 2430 026b 00       		.sleb128 0
 2431 026c 00       		.byte	0
 2432 026d 07       		.uleb128 0x7
 2433 026e 68000000 		.4byte	.LVL31
 2434 0272 D0160000 		.4byte	0x16d0
 2435 0276 81020000 		.4byte	0x281
 2436 027a 08       		.uleb128 0x8
 2437 027b 01       		.uleb128 0x1
 2438 027c 50       		.byte	0x50
 2439 027d 02       		.uleb128 0x2
 2440 027e 77       		.byte	0x77
 2441 027f 00       		.sleb128 0
 2442 0280 00       		.byte	0
 2443 0281 07       		.uleb128 0x7
 2444 0282 96000000 		.4byte	.LVL36
 2445 0286 6D160000 		.4byte	0x166d
 2446 028a 95020000 		.4byte	0x295
 2447 028e 08       		.uleb128 0x8
 2448 028f 01       		.uleb128 0x1
 2449 0290 50       		.byte	0x50
 2450 0291 02       		.uleb128 0x2
 2451 0292 79       		.byte	0x79
 2452 0293 00       		.sleb128 0
 2453 0294 00       		.byte	0
 2454 0295 07       		.uleb128 0x7
 2455 0296 9C000000 		.4byte	.LVL37
 2456 029a 83160000 		.4byte	0x1683
 2457 029e A9020000 		.4byte	0x2a9
 2458 02a2 08       		.uleb128 0x8
 2459 02a3 01       		.uleb128 0x1
 2460 02a4 50       		.byte	0x50
 2461 02a5 02       		.uleb128 0x2
 2462 02a6 78       		.byte	0x78
 2463 02a7 00       		.sleb128 0
 2464 02a8 00       		.byte	0
ARM GAS  C:\Users\Misha\AppData\Local\Temp\ccmv7pUT.s 			page 63


 2465 02a9 07       		.uleb128 0x7
 2466 02aa A6000000 		.4byte	.LVL38
 2467 02ae DB160000 		.4byte	0x16db
 2468 02b2 BC020000 		.4byte	0x2bc
 2469 02b6 08       		.uleb128 0x8
 2470 02b7 01       		.uleb128 0x1
 2471 02b8 50       		.byte	0x50
 2472 02b9 01       		.uleb128 0x1
 2473 02ba 30       		.byte	0x30
 2474 02bb 00       		.byte	0
 2475 02bc 07       		.uleb128 0x7
 2476 02bd AC000000 		.4byte	.LVL39
 2477 02c1 E6160000 		.4byte	0x16e6
 2478 02c5 CF020000 		.4byte	0x2cf
 2479 02c9 08       		.uleb128 0x8
 2480 02ca 01       		.uleb128 0x1
 2481 02cb 50       		.byte	0x50
 2482 02cc 01       		.uleb128 0x1
 2483 02cd 30       		.byte	0x30
 2484 02ce 00       		.byte	0
 2485 02cf 09       		.uleb128 0x9
 2486 02d0 B0000000 		.4byte	.LVL40
 2487 02d4 F1160000 		.4byte	0x16f1
 2488 02d8 09       		.uleb128 0x9
 2489 02d9 B4000000 		.4byte	.LVL41
 2490 02dd FC160000 		.4byte	0x16fc
 2491 02e1 0A       		.uleb128 0xa
 2492 02e2 BE000000 		.4byte	.LVL42
 2493 02e6 07170000 		.4byte	0x1707
 2494 02ea 08       		.uleb128 0x8
 2495 02eb 01       		.uleb128 0x1
 2496 02ec 50       		.byte	0x50
 2497 02ed 02       		.uleb128 0x2
 2498 02ee 08       		.byte	0x8
 2499 02ef 25       		.byte	0x25
 2500 02f0 08       		.uleb128 0x8
 2501 02f1 01       		.uleb128 0x1
 2502 02f2 51       		.byte	0x51
 2503 02f3 02       		.uleb128 0x2
 2504 02f4 08       		.byte	0x8
 2505 02f5 64       		.byte	0x64
 2506 02f6 08       		.uleb128 0x8
 2507 02f7 01       		.uleb128 0x1
 2508 02f8 52       		.byte	0x52
 2509 02f9 01       		.uleb128 0x1
 2510 02fa 30       		.byte	0x30
 2511 02fb 00       		.byte	0
 2512 02fc 00       		.byte	0
 2513 02fd 0D       		.uleb128 0xd
 2514 02fe 2D000000 		.4byte	.LASF26
 2515 0302 01       		.byte	0x1
 2516 0303 5F01     		.2byte	0x15f
 2517 0305 00000000 		.4byte	.LFB67
 2518 0309 3C000000 		.4byte	.LFE67-.LFB67
 2519 030d 01       		.uleb128 0x1
 2520 030e 9C       		.byte	0x9c
 2521 030f 63030000 		.4byte	0x363
ARM GAS  C:\Users\Misha\AppData\Local\Temp\ccmv7pUT.s 			page 64


 2522 0313 0E       		.uleb128 0xe
 2523 0314 1A000000 		.4byte	.LASF28
 2524 0318 01       		.byte	0x1
 2525 0319 5F01     		.2byte	0x15f
 2526 031b 68000000 		.4byte	0x68
 2527 031f 30010000 		.4byte	.LLST8
 2528 0323 0E       		.uleb128 0xe
 2529 0324 7E040000 		.4byte	.LASF21
 2530 0328 01       		.byte	0x1
 2531 0329 5F01     		.2byte	0x15f
 2532 032b 68000000 		.4byte	0x68
 2533 032f 5D010000 		.4byte	.LLST9
 2534 0333 0F       		.uleb128 0xf
 2535 0334 0B010000 		.4byte	.LASF29
 2536 0338 01       		.byte	0x1
 2537 0339 6401     		.2byte	0x164
 2538 033b 68000000 		.4byte	0x68
 2539 033f 7E010000 		.4byte	.LLST10
 2540 0343 0F       		.uleb128 0xf
 2541 0344 20060000 		.4byte	.LASF30
 2542 0348 01       		.byte	0x1
 2543 0349 6901     		.2byte	0x169
 2544 034b 68000000 		.4byte	0x68
 2545 034f AE010000 		.4byte	.LLST11
 2546 0353 0A       		.uleb128 0xa
 2547 0354 2C000000 		.4byte	.LVL50
 2548 0358 12170000 		.4byte	0x1712
 2549 035c 08       		.uleb128 0x8
 2550 035d 01       		.uleb128 0x1
 2551 035e 52       		.byte	0x52
 2552 035f 01       		.uleb128 0x1
 2553 0360 31       		.byte	0x31
 2554 0361 00       		.byte	0
 2555 0362 00       		.byte	0
 2556 0363 0D       		.uleb128 0xd
 2557 0364 E1040000 		.4byte	.LASF31
 2558 0368 01       		.byte	0x1
 2559 0369 7601     		.2byte	0x176
 2560 036b 00000000 		.4byte	.LFB68
 2561 036f 4C010000 		.4byte	.LFE68-.LFB68
 2562 0373 01       		.uleb128 0x1
 2563 0374 9C       		.byte	0x9c
 2564 0375 5C060000 		.4byte	0x65c
 2565 0379 0E       		.uleb128 0xe
 2566 037a A9020000 		.4byte	.LASF32
 2567 037e 01       		.byte	0x1
 2568 037f 7601     		.2byte	0x176
 2569 0381 68000000 		.4byte	0x68
 2570 0385 D5010000 		.4byte	.LLST12
 2571 0389 0E       		.uleb128 0xe
 2572 038a 6C010000 		.4byte	.LASF33
 2573 038e 01       		.byte	0x1
 2574 038f 7601     		.2byte	0x176
 2575 0391 68000000 		.4byte	0x68
 2576 0395 01020000 		.4byte	.LLST13
 2577 0399 0E       		.uleb128 0xe
 2578 039a 84040000 		.4byte	.LASF34
ARM GAS  C:\Users\Misha\AppData\Local\Temp\ccmv7pUT.s 			page 65


 2579 039e 01       		.byte	0x1
 2580 039f 7601     		.2byte	0x176
 2581 03a1 68000000 		.4byte	0x68
 2582 03a5 2D020000 		.4byte	.LLST14
 2583 03a9 0E       		.uleb128 0xe
 2584 03aa 08000000 		.4byte	.LASF35
 2585 03ae 01       		.byte	0x1
 2586 03af 7601     		.2byte	0x176
 2587 03b1 68000000 		.4byte	0x68
 2588 03b5 59020000 		.4byte	.LLST15
 2589 03b9 0E       		.uleb128 0xe
 2590 03ba 7E040000 		.4byte	.LASF21
 2591 03be 01       		.byte	0x1
 2592 03bf 7601     		.2byte	0x176
 2593 03c1 68000000 		.4byte	0x68
 2594 03c5 85020000 		.4byte	.LLST16
 2595 03c9 10       		.uleb128 0x10
 2596 03ca FB020000 		.4byte	.LASF23
 2597 03ce 01       		.byte	0x1
 2598 03cf 7D01     		.2byte	0x17d
 2599 03d1 68000000 		.4byte	0x68
 2600 03d5 10       		.uleb128 0x10
 2601 03d6 BB070000 		.4byte	.LASF22
 2602 03da 01       		.byte	0x1
 2603 03db 7E01     		.2byte	0x17e
 2604 03dd 68000000 		.4byte	0x68
 2605 03e1 11       		.uleb128 0x11
 2606 03e2 A2040000 		.4byte	.LASF36
 2607 03e6 01       		.byte	0x1
 2608 03e7 7F01     		.2byte	0x17f
 2609 03e9 68000000 		.4byte	0x68
 2610 03ed BF7C     		.sleb128 -449
 2611 03ef 0F       		.uleb128 0xf
 2612 03f0 A8000000 		.4byte	.LASF24
 2613 03f4 01       		.byte	0x1
 2614 03f5 8101     		.2byte	0x181
 2615 03f7 68000000 		.4byte	0x68
 2616 03fb A5020000 		.4byte	.LLST17
 2617 03ff 0F       		.uleb128 0xf
 2618 0400 C7070000 		.4byte	.LASF25
 2619 0404 01       		.byte	0x1
 2620 0405 8201     		.2byte	0x182
 2621 0407 68000000 		.4byte	0x68
 2622 040b A5020000 		.4byte	.LLST17
 2623 040f 0F       		.uleb128 0xf
 2624 0410 82010000 		.4byte	.LASF37
 2625 0414 01       		.byte	0x1
 2626 0415 8501     		.2byte	0x185
 2627 0417 68000000 		.4byte	0x68
 2628 041b C5020000 		.4byte	.LLST19
 2629 041f 07       		.uleb128 0x7
 2630 0420 1E000000 		.4byte	.LVL57
 2631 0424 1D170000 		.4byte	0x171d
 2632 0428 33040000 		.4byte	0x433
 2633 042c 08       		.uleb128 0x8
 2634 042d 01       		.uleb128 0x1
 2635 042e 50       		.byte	0x50
ARM GAS  C:\Users\Misha\AppData\Local\Temp\ccmv7pUT.s 			page 66


 2636 042f 02       		.uleb128 0x2
 2637 0430 74       		.byte	0x74
 2638 0431 00       		.sleb128 0
 2639 0432 00       		.byte	0
 2640 0433 07       		.uleb128 0x7
 2641 0434 24000000 		.4byte	.LVL58
 2642 0438 BA160000 		.4byte	0x16ba
 2643 043c 47040000 		.4byte	0x447
 2644 0440 08       		.uleb128 0x8
 2645 0441 01       		.uleb128 0x1
 2646 0442 50       		.byte	0x50
 2647 0443 02       		.uleb128 0x2
 2648 0444 08       		.byte	0x8
 2649 0445 32       		.byte	0x32
 2650 0446 00       		.byte	0
 2651 0447 07       		.uleb128 0x7
 2652 0448 36000000 		.4byte	.LVL60
 2653 044c C5160000 		.4byte	0x16c5
 2654 0450 6A040000 		.4byte	0x46a
 2655 0454 08       		.uleb128 0x8
 2656 0455 01       		.uleb128 0x1
 2657 0456 50       		.byte	0x50
 2658 0457 02       		.uleb128 0x2
 2659 0458 76       		.byte	0x76
 2660 0459 00       		.sleb128 0
 2661 045a 08       		.uleb128 0x8
 2662 045b 01       		.uleb128 0x1
 2663 045c 51       		.byte	0x51
 2664 045d 05       		.uleb128 0x5
 2665 045e 03       		.byte	0x3
 2666 045f 08000000 		.4byte	.LC1
 2667 0463 08       		.uleb128 0x8
 2668 0464 01       		.uleb128 0x1
 2669 0465 52       		.byte	0x52
 2670 0466 02       		.uleb128 0x2
 2671 0467 75       		.byte	0x75
 2672 0468 00       		.sleb128 0
 2673 0469 00       		.byte	0
 2674 046a 07       		.uleb128 0x7
 2675 046b 3C000000 		.4byte	.LVL61
 2676 046f D0160000 		.4byte	0x16d0
 2677 0473 7E040000 		.4byte	0x47e
 2678 0477 08       		.uleb128 0x8
 2679 0478 01       		.uleb128 0x1
 2680 0479 50       		.byte	0x50
 2681 047a 02       		.uleb128 0x2
 2682 047b 76       		.byte	0x76
 2683 047c 00       		.sleb128 0
 2684 047d 00       		.byte	0
 2685 047e 07       		.uleb128 0x7
 2686 047f 56000000 		.4byte	.LVL62
 2687 0483 D0160000 		.4byte	0x16d0
 2688 0487 95040000 		.4byte	0x495
 2689 048b 08       		.uleb128 0x8
 2690 048c 01       		.uleb128 0x1
 2691 048d 50       		.byte	0x50
 2692 048e 05       		.uleb128 0x5
ARM GAS  C:\Users\Misha\AppData\Local\Temp\ccmv7pUT.s 			page 67


 2693 048f 03       		.byte	0x3
 2694 0490 10000000 		.4byte	.LC2
 2695 0494 00       		.byte	0
 2696 0495 09       		.uleb128 0x9
 2697 0496 5A000000 		.4byte	.LVL63
 2698 049a AF160000 		.4byte	0x16af
 2699 049e 09       		.uleb128 0x9
 2700 049f 5E000000 		.4byte	.LVL64
 2701 04a3 A4160000 		.4byte	0x16a4
 2702 04a7 07       		.uleb128 0x7
 2703 04a8 70000000 		.4byte	.LVL65
 2704 04ac 28170000 		.4byte	0x1728
 2705 04b0 CC040000 		.4byte	0x4cc
 2706 04b4 08       		.uleb128 0x8
 2707 04b5 01       		.uleb128 0x1
 2708 04b6 50       		.byte	0x50
 2709 04b7 02       		.uleb128 0x2
 2710 04b8 09       		.byte	0x9
 2711 04b9 FB       		.byte	0xfb
 2712 04ba 08       		.uleb128 0x8
 2713 04bb 01       		.uleb128 0x1
 2714 04bc 51       		.byte	0x51
 2715 04bd 01       		.uleb128 0x1
 2716 04be 37       		.byte	0x37
 2717 04bf 08       		.uleb128 0x8
 2718 04c0 01       		.uleb128 0x1
 2719 04c1 52       		.byte	0x52
 2720 04c2 03       		.uleb128 0x3
 2721 04c3 91       		.byte	0x91
 2722 04c4 00       		.sleb128 0
 2723 04c5 06       		.byte	0x6
 2724 04c6 08       		.uleb128 0x8
 2725 04c7 01       		.uleb128 0x1
 2726 04c8 53       		.byte	0x53
 2727 04c9 01       		.uleb128 0x1
 2728 04ca 30       		.byte	0x30
 2729 04cb 00       		.byte	0
 2730 04cc 07       		.uleb128 0x7
 2731 04cd 82000000 		.4byte	.LVL66
 2732 04d1 28170000 		.4byte	0x1728
 2733 04d5 F1040000 		.4byte	0x4f1
 2734 04d9 08       		.uleb128 0x8
 2735 04da 01       		.uleb128 0x1
 2736 04db 50       		.byte	0x50
 2737 04dc 01       		.uleb128 0x1
 2738 04dd 35       		.byte	0x35
 2739 04de 08       		.uleb128 0x8
 2740 04df 01       		.uleb128 0x1
 2741 04e0 51       		.byte	0x51
 2742 04e1 02       		.uleb128 0x2
 2743 04e2 09       		.byte	0x9
 2744 04e3 F9       		.byte	0xf9
 2745 04e4 08       		.uleb128 0x8
 2746 04e5 01       		.uleb128 0x1
 2747 04e6 52       		.byte	0x52
 2748 04e7 03       		.uleb128 0x3
 2749 04e8 91       		.byte	0x91
ARM GAS  C:\Users\Misha\AppData\Local\Temp\ccmv7pUT.s 			page 68


 2750 04e9 00       		.sleb128 0
 2751 04ea 06       		.byte	0x6
 2752 04eb 08       		.uleb128 0x8
 2753 04ec 01       		.uleb128 0x1
 2754 04ed 53       		.byte	0x53
 2755 04ee 01       		.uleb128 0x1
 2756 04ef 30       		.byte	0x30
 2757 04f0 00       		.byte	0
 2758 04f1 07       		.uleb128 0x7
 2759 04f2 88000000 		.4byte	.LVL67
 2760 04f6 1D170000 		.4byte	0x171d
 2761 04fa 05050000 		.4byte	0x505
 2762 04fe 08       		.uleb128 0x8
 2763 04ff 01       		.uleb128 0x1
 2764 0500 50       		.byte	0x50
 2765 0501 02       		.uleb128 0x2
 2766 0502 74       		.byte	0x74
 2767 0503 00       		.sleb128 0
 2768 0504 00       		.byte	0
 2769 0505 07       		.uleb128 0x7
 2770 0506 8E000000 		.4byte	.LVL68
 2771 050a BA160000 		.4byte	0x16ba
 2772 050e 19050000 		.4byte	0x519
 2773 0512 08       		.uleb128 0x8
 2774 0513 01       		.uleb128 0x1
 2775 0514 50       		.byte	0x50
 2776 0515 02       		.uleb128 0x2
 2777 0516 08       		.byte	0x8
 2778 0517 32       		.byte	0x32
 2779 0518 00       		.byte	0
 2780 0519 07       		.uleb128 0x7
 2781 051a A0000000 		.4byte	.LVL70
 2782 051e C5160000 		.4byte	0x16c5
 2783 0522 3C050000 		.4byte	0x53c
 2784 0526 08       		.uleb128 0x8
 2785 0527 01       		.uleb128 0x1
 2786 0528 50       		.byte	0x50
 2787 0529 02       		.uleb128 0x2
 2788 052a 76       		.byte	0x76
 2789 052b 00       		.sleb128 0
 2790 052c 08       		.uleb128 0x8
 2791 052d 01       		.uleb128 0x1
 2792 052e 51       		.byte	0x51
 2793 052f 05       		.uleb128 0x5
 2794 0530 03       		.byte	0x3
 2795 0531 08000000 		.4byte	.LC1
 2796 0535 08       		.uleb128 0x8
 2797 0536 01       		.uleb128 0x1
 2798 0537 52       		.byte	0x52
 2799 0538 02       		.uleb128 0x2
 2800 0539 75       		.byte	0x75
 2801 053a 00       		.sleb128 0
 2802 053b 00       		.byte	0
 2803 053c 07       		.uleb128 0x7
 2804 053d A6000000 		.4byte	.LVL71
 2805 0541 D0160000 		.4byte	0x16d0
 2806 0545 50050000 		.4byte	0x550
ARM GAS  C:\Users\Misha\AppData\Local\Temp\ccmv7pUT.s 			page 69


 2807 0549 08       		.uleb128 0x8
 2808 054a 01       		.uleb128 0x1
 2809 054b 50       		.byte	0x50
 2810 054c 02       		.uleb128 0x2
 2811 054d 76       		.byte	0x76
 2812 054e 00       		.sleb128 0
 2813 054f 00       		.byte	0
 2814 0550 09       		.uleb128 0x9
 2815 0551 BE000000 		.4byte	.LVL72
 2816 0555 AF160000 		.4byte	0x16af
 2817 0559 09       		.uleb128 0x9
 2818 055a C2000000 		.4byte	.LVL73
 2819 055e A4160000 		.4byte	0x16a4
 2820 0562 07       		.uleb128 0x7
 2821 0563 C8000000 		.4byte	.LVL74
 2822 0567 D0160000 		.4byte	0x16d0
 2823 056b 79050000 		.4byte	0x579
 2824 056f 08       		.uleb128 0x8
 2825 0570 01       		.uleb128 0x1
 2826 0571 50       		.byte	0x50
 2827 0572 05       		.uleb128 0x5
 2828 0573 03       		.byte	0x3
 2829 0574 28000000 		.4byte	.LC3
 2830 0578 00       		.byte	0
 2831 0579 07       		.uleb128 0x7
 2832 057a DA000000 		.4byte	.LVL75
 2833 057e 28170000 		.4byte	0x1728
 2834 0582 9E050000 		.4byte	0x59e
 2835 0586 08       		.uleb128 0x8
 2836 0587 01       		.uleb128 0x1
 2837 0588 50       		.byte	0x50
 2838 0589 02       		.uleb128 0x2
 2839 058a 09       		.byte	0x9
 2840 058b FB       		.byte	0xfb
 2841 058c 08       		.uleb128 0x8
 2842 058d 01       		.uleb128 0x1
 2843 058e 51       		.byte	0x51
 2844 058f 01       		.uleb128 0x1
 2845 0590 37       		.byte	0x37
 2846 0591 08       		.uleb128 0x8
 2847 0592 01       		.uleb128 0x1
 2848 0593 52       		.byte	0x52
 2849 0594 03       		.uleb128 0x3
 2850 0595 91       		.byte	0x91
 2851 0596 00       		.sleb128 0
 2852 0597 06       		.byte	0x6
 2853 0598 08       		.uleb128 0x8
 2854 0599 01       		.uleb128 0x1
 2855 059a 53       		.byte	0x53
 2856 059b 01       		.uleb128 0x1
 2857 059c 30       		.byte	0x30
 2858 059d 00       		.byte	0
 2859 059e 07       		.uleb128 0x7
 2860 059f EC000000 		.4byte	.LVL76
 2861 05a3 28170000 		.4byte	0x1728
 2862 05a7 C3050000 		.4byte	0x5c3
 2863 05ab 08       		.uleb128 0x8
ARM GAS  C:\Users\Misha\AppData\Local\Temp\ccmv7pUT.s 			page 70


 2864 05ac 01       		.uleb128 0x1
 2865 05ad 50       		.byte	0x50
 2866 05ae 01       		.uleb128 0x1
 2867 05af 35       		.byte	0x35
 2868 05b0 08       		.uleb128 0x8
 2869 05b1 01       		.uleb128 0x1
 2870 05b2 51       		.byte	0x51
 2871 05b3 02       		.uleb128 0x2
 2872 05b4 09       		.byte	0x9
 2873 05b5 F9       		.byte	0xf9
 2874 05b6 08       		.uleb128 0x8
 2875 05b7 01       		.uleb128 0x1
 2876 05b8 52       		.byte	0x52
 2877 05b9 03       		.uleb128 0x3
 2878 05ba 91       		.byte	0x91
 2879 05bb 00       		.sleb128 0
 2880 05bc 06       		.byte	0x6
 2881 05bd 08       		.uleb128 0x8
 2882 05be 01       		.uleb128 0x1
 2883 05bf 53       		.byte	0x53
 2884 05c0 01       		.uleb128 0x1
 2885 05c1 30       		.byte	0x30
 2886 05c2 00       		.byte	0
 2887 05c3 07       		.uleb128 0x7
 2888 05c4 F2000000 		.4byte	.LVL77
 2889 05c8 1D170000 		.4byte	0x171d
 2890 05cc D7050000 		.4byte	0x5d7
 2891 05d0 08       		.uleb128 0x8
 2892 05d1 01       		.uleb128 0x1
 2893 05d2 50       		.byte	0x50
 2894 05d3 02       		.uleb128 0x2
 2895 05d4 74       		.byte	0x74
 2896 05d5 00       		.sleb128 0
 2897 05d6 00       		.byte	0
 2898 05d7 07       		.uleb128 0x7
 2899 05d8 F8000000 		.4byte	.LVL78
 2900 05dc BA160000 		.4byte	0x16ba
 2901 05e0 EB050000 		.4byte	0x5eb
 2902 05e4 08       		.uleb128 0x8
 2903 05e5 01       		.uleb128 0x1
 2904 05e6 50       		.byte	0x50
 2905 05e7 02       		.uleb128 0x2
 2906 05e8 08       		.byte	0x8
 2907 05e9 32       		.byte	0x32
 2908 05ea 00       		.byte	0
 2909 05eb 07       		.uleb128 0x7
 2910 05ec 0A010000 		.4byte	.LVL80
 2911 05f0 C5160000 		.4byte	0x16c5
 2912 05f4 0E060000 		.4byte	0x60e
 2913 05f8 08       		.uleb128 0x8
 2914 05f9 01       		.uleb128 0x1
 2915 05fa 50       		.byte	0x50
 2916 05fb 02       		.uleb128 0x2
 2917 05fc 76       		.byte	0x76
 2918 05fd 00       		.sleb128 0
 2919 05fe 08       		.uleb128 0x8
 2920 05ff 01       		.uleb128 0x1
ARM GAS  C:\Users\Misha\AppData\Local\Temp\ccmv7pUT.s 			page 71


 2921 0600 51       		.byte	0x51
 2922 0601 05       		.uleb128 0x5
 2923 0602 03       		.byte	0x3
 2924 0603 08000000 		.4byte	.LC1
 2925 0607 08       		.uleb128 0x8
 2926 0608 01       		.uleb128 0x1
 2927 0609 52       		.byte	0x52
 2928 060a 02       		.uleb128 0x2
 2929 060b 75       		.byte	0x75
 2930 060c 00       		.sleb128 0
 2931 060d 00       		.byte	0
 2932 060e 07       		.uleb128 0x7
 2933 060f 10010000 		.4byte	.LVL81
 2934 0613 D0160000 		.4byte	0x16d0
 2935 0617 22060000 		.4byte	0x622
 2936 061b 08       		.uleb128 0x8
 2937 061c 01       		.uleb128 0x1
 2938 061d 50       		.byte	0x50
 2939 061e 02       		.uleb128 0x2
 2940 061f 76       		.byte	0x76
 2941 0620 00       		.sleb128 0
 2942 0621 00       		.byte	0
 2943 0622 07       		.uleb128 0x7
 2944 0623 22010000 		.4byte	.LVL82
 2945 0627 D0160000 		.4byte	0x16d0
 2946 062b 39060000 		.4byte	0x639
 2947 062f 08       		.uleb128 0x8
 2948 0630 01       		.uleb128 0x1
 2949 0631 50       		.byte	0x50
 2950 0632 05       		.uleb128 0x5
 2951 0633 03       		.byte	0x3
 2952 0634 3C000000 		.4byte	.LC4
 2953 0638 00       		.byte	0
 2954 0639 07       		.uleb128 0x7
 2955 063a 28010000 		.4byte	.LVL83
 2956 063e DB160000 		.4byte	0x16db
 2957 0642 4C060000 		.4byte	0x64c
 2958 0646 08       		.uleb128 0x8
 2959 0647 01       		.uleb128 0x1
 2960 0648 50       		.byte	0x50
 2961 0649 01       		.uleb128 0x1
 2962 064a 30       		.byte	0x30
 2963 064b 00       		.byte	0
 2964 064c 0A       		.uleb128 0xa
 2965 064d 2E010000 		.4byte	.LVL84
 2966 0651 E6160000 		.4byte	0x16e6
 2967 0655 08       		.uleb128 0x8
 2968 0656 01       		.uleb128 0x1
 2969 0657 50       		.byte	0x50
 2970 0658 01       		.uleb128 0x1
 2971 0659 30       		.byte	0x30
 2972 065a 00       		.byte	0
 2973 065b 00       		.byte	0
 2974 065c 12       		.uleb128 0x12
 2975 065d 82050000 		.4byte	.LASF58
 2976 0661 01       		.byte	0x1
 2977 0662 E001     		.2byte	0x1e0
ARM GAS  C:\Users\Misha\AppData\Local\Temp\ccmv7pUT.s 			page 72


 2978 0664 68000000 		.4byte	0x68
 2979 0668 00000000 		.4byte	.LFB69
 2980 066c 84000000 		.4byte	.LFE69-.LFB69
 2981 0670 01       		.uleb128 0x1
 2982 0671 9C       		.byte	0x9c
 2983 0672 43070000 		.4byte	0x743
 2984 0676 0E       		.uleb128 0xe
 2985 0677 6C010000 		.4byte	.LASF33
 2986 067b 01       		.byte	0x1
 2987 067c E001     		.2byte	0x1e0
 2988 067e 68000000 		.4byte	0x68
 2989 0682 D8020000 		.4byte	.LLST20
 2990 0686 0F       		.uleb128 0xf
 2991 0687 92010000 		.4byte	.LASF38
 2992 068b 01       		.byte	0x1
 2993 068c E101     		.2byte	0x1e1
 2994 068e 68000000 		.4byte	0x68
 2995 0692 44030000 		.4byte	.LLST21
 2996 0696 07       		.uleb128 0x7
 2997 0697 12000000 		.4byte	.LVL88
 2998 069b 1D170000 		.4byte	0x171d
 2999 069f A9060000 		.4byte	0x6a9
 3000 06a3 08       		.uleb128 0x8
 3001 06a4 01       		.uleb128 0x1
 3002 06a5 50       		.byte	0x50
 3003 06a6 01       		.uleb128 0x1
 3004 06a7 34       		.byte	0x34
 3005 06a8 00       		.byte	0
 3006 06a9 07       		.uleb128 0x7
 3007 06aa 18000000 		.4byte	.LVL89
 3008 06ae BA160000 		.4byte	0x16ba
 3009 06b2 BD060000 		.4byte	0x6bd
 3010 06b6 08       		.uleb128 0x8
 3011 06b7 01       		.uleb128 0x1
 3012 06b8 50       		.byte	0x50
 3013 06b9 02       		.uleb128 0x2
 3014 06ba 08       		.byte	0x8
 3015 06bb 32       		.byte	0x32
 3016 06bc 00       		.byte	0
 3017 06bd 07       		.uleb128 0x7
 3018 06be 2C000000 		.4byte	.LVL91
 3019 06c2 C5160000 		.4byte	0x16c5
 3020 06c6 DA060000 		.4byte	0x6da
 3021 06ca 08       		.uleb128 0x8
 3022 06cb 01       		.uleb128 0x1
 3023 06cc 50       		.byte	0x50
 3024 06cd 02       		.uleb128 0x2
 3025 06ce 74       		.byte	0x74
 3026 06cf 00       		.sleb128 0
 3027 06d0 08       		.uleb128 0x8
 3028 06d1 01       		.uleb128 0x1
 3029 06d2 51       		.byte	0x51
 3030 06d3 05       		.uleb128 0x5
 3031 06d4 03       		.byte	0x3
 3032 06d5 48000000 		.4byte	.LC5
 3033 06d9 00       		.byte	0
 3034 06da 07       		.uleb128 0x7
ARM GAS  C:\Users\Misha\AppData\Local\Temp\ccmv7pUT.s 			page 73


 3035 06db 32000000 		.4byte	.LVL92
 3036 06df D0160000 		.4byte	0x16d0
 3037 06e3 EE060000 		.4byte	0x6ee
 3038 06e7 08       		.uleb128 0x8
 3039 06e8 01       		.uleb128 0x1
 3040 06e9 50       		.byte	0x50
 3041 06ea 02       		.uleb128 0x2
 3042 06eb 74       		.byte	0x74
 3043 06ec 00       		.sleb128 0
 3044 06ed 00       		.byte	0
 3045 06ee 07       		.uleb128 0x7
 3046 06ef 40000000 		.4byte	.LVL95
 3047 06f3 1D170000 		.4byte	0x171d
 3048 06f7 01070000 		.4byte	0x701
 3049 06fb 08       		.uleb128 0x8
 3050 06fc 01       		.uleb128 0x1
 3051 06fd 50       		.byte	0x50
 3052 06fe 01       		.uleb128 0x1
 3053 06ff 30       		.byte	0x30
 3054 0700 00       		.byte	0
 3055 0701 07       		.uleb128 0x7
 3056 0702 46000000 		.4byte	.LVL96
 3057 0706 BA160000 		.4byte	0x16ba
 3058 070a 15070000 		.4byte	0x715
 3059 070e 08       		.uleb128 0x8
 3060 070f 01       		.uleb128 0x1
 3061 0710 50       		.byte	0x50
 3062 0711 02       		.uleb128 0x2
 3063 0712 08       		.byte	0x8
 3064 0713 32       		.byte	0x32
 3065 0714 00       		.byte	0
 3066 0715 07       		.uleb128 0x7
 3067 0716 5A000000 		.4byte	.LVL98
 3068 071a C5160000 		.4byte	0x16c5
 3069 071e 32070000 		.4byte	0x732
 3070 0722 08       		.uleb128 0x8
 3071 0723 01       		.uleb128 0x1
 3072 0724 50       		.byte	0x50
 3073 0725 02       		.uleb128 0x2
 3074 0726 74       		.byte	0x74
 3075 0727 00       		.sleb128 0
 3076 0728 08       		.uleb128 0x8
 3077 0729 01       		.uleb128 0x1
 3078 072a 51       		.byte	0x51
 3079 072b 05       		.uleb128 0x5
 3080 072c 03       		.byte	0x3
 3081 072d 48000000 		.4byte	.LC5
 3082 0731 00       		.byte	0
 3083 0732 0A       		.uleb128 0xa
 3084 0733 60000000 		.4byte	.LVL99
 3085 0737 D0160000 		.4byte	0x16d0
 3086 073b 08       		.uleb128 0x8
 3087 073c 01       		.uleb128 0x1
 3088 073d 50       		.byte	0x50
 3089 073e 02       		.uleb128 0x2
 3090 073f 74       		.byte	0x74
 3091 0740 00       		.sleb128 0
ARM GAS  C:\Users\Misha\AppData\Local\Temp\ccmv7pUT.s 			page 74


 3092 0741 00       		.byte	0
 3093 0742 00       		.byte	0
 3094 0743 0D       		.uleb128 0xd
 3095 0744 FE040000 		.4byte	.LASF39
 3096 0748 01       		.byte	0x1
 3097 0749 2802     		.2byte	0x228
 3098 074b 00000000 		.4byte	.LFB71
 3099 074f 1C020000 		.4byte	.LFE71-.LFB71
 3100 0753 01       		.uleb128 0x1
 3101 0754 9C       		.byte	0x9c
 3102 0755 DC0B0000 		.4byte	0xbdc
 3103 0759 10       		.uleb128 0x10
 3104 075a 4D010000 		.4byte	.LASF40
 3105 075e 01       		.byte	0x1
 3106 075f 2A02     		.2byte	0x22a
 3107 0761 68000000 		.4byte	0x68
 3108 0765 10       		.uleb128 0x10
 3109 0766 3F000000 		.4byte	.LASF41
 3110 076a 01       		.byte	0x1
 3111 076b 2B02     		.2byte	0x22b
 3112 076d 68000000 		.4byte	0x68
 3113 0771 0F       		.uleb128 0xf
 3114 0772 42010000 		.4byte	.LASF42
 3115 0776 01       		.byte	0x1
 3116 0777 2C02     		.2byte	0x22c
 3117 0779 68000000 		.4byte	0x68
 3118 077d 6D030000 		.4byte	.LLST22
 3119 0781 13       		.uleb128 0x13
 3120 0782 8C000000 		.4byte	.LASF43
 3121 0786 01       		.byte	0x1
 3122 0787 2D02     		.2byte	0x22d
 3123 0789 68000000 		.4byte	0x68
 3124 078d 01       		.byte	0x1
 3125 078e 14       		.uleb128 0x14
 3126 078f 62030000 		.4byte	.LASF44
 3127 0793 01       		.byte	0x1
 3128 0794 2E02     		.2byte	0x22e
 3129 0796 68000000 		.4byte	0x68
 3130 079a 2003     		.2byte	0x320
 3131 079c 13       		.uleb128 0x13
 3132 079d 21050000 		.4byte	.LASF45
 3133 07a1 01       		.byte	0x1
 3134 07a2 2F02     		.2byte	0x22f
 3135 07a4 68000000 		.4byte	0x68
 3136 07a8 32       		.byte	0x32
 3137 07a9 13       		.uleb128 0x13
 3138 07aa 7E040000 		.4byte	.LASF21
 3139 07ae 01       		.byte	0x1
 3140 07af 3002     		.2byte	0x230
 3141 07b1 68000000 		.4byte	0x68
 3142 07b5 19       		.byte	0x19
 3143 07b6 10       		.uleb128 0x10
 3144 07b7 A8000000 		.4byte	.LASF24
 3145 07bb 01       		.byte	0x1
 3146 07bc 4502     		.2byte	0x245
 3147 07be 68000000 		.4byte	0x68
 3148 07c2 10       		.uleb128 0x10
ARM GAS  C:\Users\Misha\AppData\Local\Temp\ccmv7pUT.s 			page 75


 3149 07c3 C7070000 		.4byte	.LASF25
 3150 07c7 01       		.byte	0x1
 3151 07c8 4602     		.2byte	0x246
 3152 07ca 68000000 		.4byte	0x68
 3153 07ce 07       		.uleb128 0x7
 3154 07cf 10000000 		.4byte	.LVL107
 3155 07d3 1D170000 		.4byte	0x171d
 3156 07d7 E1070000 		.4byte	0x7e1
 3157 07db 08       		.uleb128 0x8
 3158 07dc 01       		.uleb128 0x1
 3159 07dd 50       		.byte	0x50
 3160 07de 01       		.uleb128 0x1
 3161 07df 30       		.byte	0x30
 3162 07e0 00       		.byte	0
 3163 07e1 07       		.uleb128 0x7
 3164 07e2 16000000 		.4byte	.LVL108
 3165 07e6 BA160000 		.4byte	0x16ba
 3166 07ea F5070000 		.4byte	0x7f5
 3167 07ee 08       		.uleb128 0x8
 3168 07ef 01       		.uleb128 0x1
 3169 07f0 50       		.byte	0x50
 3170 07f1 02       		.uleb128 0x2
 3171 07f2 08       		.byte	0x8
 3172 07f3 32       		.byte	0x32
 3173 07f4 00       		.byte	0
 3174 07f5 07       		.uleb128 0x7
 3175 07f6 26000000 		.4byte	.LVL110
 3176 07fa C5160000 		.4byte	0x16c5
 3177 07fe 0F080000 		.4byte	0x80f
 3178 0802 08       		.uleb128 0x8
 3179 0803 01       		.uleb128 0x1
 3180 0804 50       		.byte	0x50
 3181 0805 02       		.uleb128 0x2
 3182 0806 75       		.byte	0x75
 3183 0807 00       		.sleb128 0
 3184 0808 08       		.uleb128 0x8
 3185 0809 01       		.uleb128 0x1
 3186 080a 51       		.byte	0x51
 3187 080b 02       		.uleb128 0x2
 3188 080c 74       		.byte	0x74
 3189 080d 00       		.sleb128 0
 3190 080e 00       		.byte	0
 3191 080f 07       		.uleb128 0x7
 3192 0810 2C000000 		.4byte	.LVL111
 3193 0814 D0160000 		.4byte	0x16d0
 3194 0818 23080000 		.4byte	0x823
 3195 081c 08       		.uleb128 0x8
 3196 081d 01       		.uleb128 0x1
 3197 081e 50       		.byte	0x50
 3198 081f 02       		.uleb128 0x2
 3199 0820 75       		.byte	0x75
 3200 0821 00       		.sleb128 0
 3201 0822 00       		.byte	0
 3202 0823 07       		.uleb128 0x7
 3203 0824 32000000 		.4byte	.LVL112
 3204 0828 1D170000 		.4byte	0x171d
 3205 082c 36080000 		.4byte	0x836
ARM GAS  C:\Users\Misha\AppData\Local\Temp\ccmv7pUT.s 			page 76


 3206 0830 08       		.uleb128 0x8
 3207 0831 01       		.uleb128 0x1
 3208 0832 50       		.byte	0x50
 3209 0833 01       		.uleb128 0x1
 3210 0834 31       		.byte	0x31
 3211 0835 00       		.byte	0
 3212 0836 07       		.uleb128 0x7
 3213 0837 38000000 		.4byte	.LVL113
 3214 083b BA160000 		.4byte	0x16ba
 3215 083f 4A080000 		.4byte	0x84a
 3216 0843 08       		.uleb128 0x8
 3217 0844 01       		.uleb128 0x1
 3218 0845 50       		.byte	0x50
 3219 0846 02       		.uleb128 0x2
 3220 0847 08       		.byte	0x8
 3221 0848 32       		.byte	0x32
 3222 0849 00       		.byte	0
 3223 084a 07       		.uleb128 0x7
 3224 084b 42000000 		.4byte	.LVL114
 3225 084f C5160000 		.4byte	0x16c5
 3226 0853 64080000 		.4byte	0x864
 3227 0857 08       		.uleb128 0x8
 3228 0858 01       		.uleb128 0x1
 3229 0859 50       		.byte	0x50
 3230 085a 02       		.uleb128 0x2
 3231 085b 75       		.byte	0x75
 3232 085c 00       		.sleb128 0
 3233 085d 08       		.uleb128 0x8
 3234 085e 01       		.uleb128 0x1
 3235 085f 51       		.byte	0x51
 3236 0860 02       		.uleb128 0x2
 3237 0861 74       		.byte	0x74
 3238 0862 00       		.sleb128 0
 3239 0863 00       		.byte	0
 3240 0864 07       		.uleb128 0x7
 3241 0865 48000000 		.4byte	.LVL115
 3242 0869 D0160000 		.4byte	0x16d0
 3243 086d 78080000 		.4byte	0x878
 3244 0871 08       		.uleb128 0x8
 3245 0872 01       		.uleb128 0x1
 3246 0873 50       		.byte	0x50
 3247 0874 02       		.uleb128 0x2
 3248 0875 75       		.byte	0x75
 3249 0876 00       		.sleb128 0
 3250 0877 00       		.byte	0
 3251 0878 07       		.uleb128 0x7
 3252 0879 58000000 		.4byte	.LVL117
 3253 087d C5160000 		.4byte	0x16c5
 3254 0881 9B080000 		.4byte	0x89b
 3255 0885 08       		.uleb128 0x8
 3256 0886 01       		.uleb128 0x1
 3257 0887 50       		.byte	0x50
 3258 0888 02       		.uleb128 0x2
 3259 0889 75       		.byte	0x75
 3260 088a 00       		.sleb128 0
 3261 088b 08       		.uleb128 0x8
 3262 088c 01       		.uleb128 0x1
ARM GAS  C:\Users\Misha\AppData\Local\Temp\ccmv7pUT.s 			page 77


 3263 088d 51       		.byte	0x51
 3264 088e 05       		.uleb128 0x5
 3265 088f 03       		.byte	0x3
 3266 0890 68000000 		.4byte	.LC6
 3267 0894 08       		.uleb128 0x8
 3268 0895 01       		.uleb128 0x1
 3269 0896 52       		.byte	0x52
 3270 0897 02       		.uleb128 0x2
 3271 0898 74       		.byte	0x74
 3272 0899 00       		.sleb128 0
 3273 089a 00       		.byte	0
 3274 089b 07       		.uleb128 0x7
 3275 089c 5E000000 		.4byte	.LVL118
 3276 08a0 D0160000 		.4byte	0x16d0
 3277 08a4 AF080000 		.4byte	0x8af
 3278 08a8 08       		.uleb128 0x8
 3279 08a9 01       		.uleb128 0x1
 3280 08aa 50       		.byte	0x50
 3281 08ab 02       		.uleb128 0x2
 3282 08ac 75       		.byte	0x75
 3283 08ad 00       		.sleb128 0
 3284 08ae 00       		.byte	0
 3285 08af 07       		.uleb128 0x7
 3286 08b0 78000000 		.4byte	.LVL119
 3287 08b4 4C160000 		.4byte	0x164c
 3288 08b8 C2080000 		.4byte	0x8c2
 3289 08bc 08       		.uleb128 0x8
 3290 08bd 01       		.uleb128 0x1
 3291 08be 50       		.byte	0x50
 3292 08bf 01       		.uleb128 0x1
 3293 08c0 30       		.byte	0x30
 3294 08c1 00       		.byte	0
 3295 08c2 07       		.uleb128 0x7
 3296 08c3 7E000000 		.4byte	.LVL120
 3297 08c7 57160000 		.4byte	0x1657
 3298 08cb D5080000 		.4byte	0x8d5
 3299 08cf 08       		.uleb128 0x8
 3300 08d0 01       		.uleb128 0x1
 3301 08d1 50       		.byte	0x50
 3302 08d2 01       		.uleb128 0x1
 3303 08d3 31       		.byte	0x31
 3304 08d4 00       		.byte	0
 3305 08d5 07       		.uleb128 0x7
 3306 08d6 86000000 		.4byte	.LVL121
 3307 08da 1D170000 		.4byte	0x171d
 3308 08de E8080000 		.4byte	0x8e8
 3309 08e2 08       		.uleb128 0x8
 3310 08e3 01       		.uleb128 0x1
 3311 08e4 50       		.byte	0x50
 3312 08e5 01       		.uleb128 0x1
 3313 08e6 30       		.byte	0x30
 3314 08e7 00       		.byte	0
 3315 08e8 07       		.uleb128 0x7
 3316 08e9 8C000000 		.4byte	.LVL122
 3317 08ed BA160000 		.4byte	0x16ba
 3318 08f1 FC080000 		.4byte	0x8fc
 3319 08f5 08       		.uleb128 0x8
ARM GAS  C:\Users\Misha\AppData\Local\Temp\ccmv7pUT.s 			page 78


 3320 08f6 01       		.uleb128 0x1
 3321 08f7 50       		.byte	0x50
 3322 08f8 02       		.uleb128 0x2
 3323 08f9 08       		.byte	0x8
 3324 08fa 32       		.byte	0x32
 3325 08fb 00       		.byte	0
 3326 08fc 07       		.uleb128 0x7
 3327 08fd 92000000 		.4byte	.LVL123
 3328 0901 1D170000 		.4byte	0x171d
 3329 0905 0F090000 		.4byte	0x90f
 3330 0909 08       		.uleb128 0x8
 3331 090a 01       		.uleb128 0x1
 3332 090b 50       		.byte	0x50
 3333 090c 01       		.uleb128 0x1
 3334 090d 31       		.byte	0x31
 3335 090e 00       		.byte	0
 3336 090f 07       		.uleb128 0x7
 3337 0910 98000000 		.4byte	.LVL124
 3338 0914 BA160000 		.4byte	0x16ba
 3339 0918 23090000 		.4byte	0x923
 3340 091c 08       		.uleb128 0x8
 3341 091d 01       		.uleb128 0x1
 3342 091e 50       		.byte	0x50
 3343 091f 02       		.uleb128 0x2
 3344 0920 08       		.byte	0x8
 3345 0921 32       		.byte	0x32
 3346 0922 00       		.byte	0
 3347 0923 09       		.uleb128 0x9
 3348 0924 BA000000 		.4byte	.LVL127
 3349 0928 62160000 		.4byte	0x1662
 3350 092c 07       		.uleb128 0x7
 3351 092d C0000000 		.4byte	.LVL128
 3352 0931 6D160000 		.4byte	0x166d
 3353 0935 3F090000 		.4byte	0x93f
 3354 0939 08       		.uleb128 0x8
 3355 093a 01       		.uleb128 0x1
 3356 093b 50       		.byte	0x50
 3357 093c 01       		.uleb128 0x1
 3358 093d 49       		.byte	0x49
 3359 093e 00       		.byte	0
 3360 093f 09       		.uleb128 0x9
 3361 0940 C4000000 		.4byte	.LVL129
 3362 0944 78160000 		.4byte	0x1678
 3363 0948 07       		.uleb128 0x7
 3364 0949 CA000000 		.4byte	.LVL130
 3365 094d 83160000 		.4byte	0x1683
 3366 0951 5B090000 		.4byte	0x95b
 3367 0955 08       		.uleb128 0x8
 3368 0956 01       		.uleb128 0x1
 3369 0957 50       		.byte	0x50
 3370 0958 01       		.uleb128 0x1
 3371 0959 49       		.byte	0x49
 3372 095a 00       		.byte	0
 3373 095b 07       		.uleb128 0x7
 3374 095c D2000000 		.4byte	.LVL131
 3375 0960 1D170000 		.4byte	0x171d
 3376 0964 6E090000 		.4byte	0x96e
ARM GAS  C:\Users\Misha\AppData\Local\Temp\ccmv7pUT.s 			page 79


 3377 0968 08       		.uleb128 0x8
 3378 0969 01       		.uleb128 0x1
 3379 096a 50       		.byte	0x50
 3380 096b 01       		.uleb128 0x1
 3381 096c 30       		.byte	0x30
 3382 096d 00       		.byte	0
 3383 096e 07       		.uleb128 0x7
 3384 096f D8000000 		.4byte	.LVL132
 3385 0973 BA160000 		.4byte	0x16ba
 3386 0977 82090000 		.4byte	0x982
 3387 097b 08       		.uleb128 0x8
 3388 097c 01       		.uleb128 0x1
 3389 097d 50       		.byte	0x50
 3390 097e 02       		.uleb128 0x2
 3391 097f 08       		.byte	0x8
 3392 0980 32       		.byte	0x32
 3393 0981 00       		.byte	0
 3394 0982 07       		.uleb128 0x7
 3395 0983 DE000000 		.4byte	.LVL133
 3396 0987 1D170000 		.4byte	0x171d
 3397 098b 95090000 		.4byte	0x995
 3398 098f 08       		.uleb128 0x8
 3399 0990 01       		.uleb128 0x1
 3400 0991 50       		.byte	0x50
 3401 0992 01       		.uleb128 0x1
 3402 0993 31       		.byte	0x31
 3403 0994 00       		.byte	0
 3404 0995 07       		.uleb128 0x7
 3405 0996 E4000000 		.4byte	.LVL134
 3406 099a BA160000 		.4byte	0x16ba
 3407 099e A9090000 		.4byte	0x9a9
 3408 09a2 08       		.uleb128 0x8
 3409 09a3 01       		.uleb128 0x1
 3410 09a4 50       		.byte	0x50
 3411 09a5 02       		.uleb128 0x2
 3412 09a6 08       		.byte	0x8
 3413 09a7 32       		.byte	0x32
 3414 09a8 00       		.byte	0
 3415 09a9 07       		.uleb128 0x7
 3416 09aa F8000000 		.4byte	.LVL136
 3417 09ae C5160000 		.4byte	0x16c5
 3418 09b2 CD090000 		.4byte	0x9cd
 3419 09b6 08       		.uleb128 0x8
 3420 09b7 01       		.uleb128 0x1
 3421 09b8 50       		.byte	0x50
 3422 09b9 02       		.uleb128 0x2
 3423 09ba 75       		.byte	0x75
 3424 09bb 00       		.sleb128 0
 3425 09bc 08       		.uleb128 0x8
 3426 09bd 01       		.uleb128 0x1
 3427 09be 51       		.byte	0x51
 3428 09bf 05       		.uleb128 0x5
 3429 09c0 03       		.byte	0x3
 3430 09c1 7C000000 		.4byte	.LC7
 3431 09c5 08       		.uleb128 0x8
 3432 09c6 02       		.uleb128 0x2
 3433 09c7 7D       		.byte	0x7d
ARM GAS  C:\Users\Misha\AppData\Local\Temp\ccmv7pUT.s 			page 80


 3434 09c8 00       		.sleb128 0
 3435 09c9 02       		.uleb128 0x2
 3436 09ca 74       		.byte	0x74
 3437 09cb 00       		.sleb128 0
 3438 09cc 00       		.byte	0
 3439 09cd 07       		.uleb128 0x7
 3440 09ce FE000000 		.4byte	.LVL137
 3441 09d2 D0160000 		.4byte	0x16d0
 3442 09d6 E1090000 		.4byte	0x9e1
 3443 09da 08       		.uleb128 0x8
 3444 09db 01       		.uleb128 0x1
 3445 09dc 50       		.byte	0x50
 3446 09dd 02       		.uleb128 0x2
 3447 09de 75       		.byte	0x75
 3448 09df 00       		.sleb128 0
 3449 09e0 00       		.byte	0
 3450 09e1 07       		.uleb128 0x7
 3451 09e2 20010000 		.4byte	.LVL138
 3452 09e6 4C160000 		.4byte	0x164c
 3453 09ea F4090000 		.4byte	0x9f4
 3454 09ee 08       		.uleb128 0x8
 3455 09ef 01       		.uleb128 0x1
 3456 09f0 50       		.byte	0x50
 3457 09f1 01       		.uleb128 0x1
 3458 09f2 31       		.byte	0x31
 3459 09f3 00       		.byte	0
 3460 09f4 07       		.uleb128 0x7
 3461 09f5 26010000 		.4byte	.LVL139
 3462 09f9 57160000 		.4byte	0x1657
 3463 09fd 070A0000 		.4byte	0xa07
 3464 0a01 08       		.uleb128 0x8
 3465 0a02 01       		.uleb128 0x1
 3466 0a03 50       		.byte	0x50
 3467 0a04 01       		.uleb128 0x1
 3468 0a05 30       		.byte	0x30
 3469 0a06 00       		.byte	0
 3470 0a07 07       		.uleb128 0x7
 3471 0a08 2C010000 		.4byte	.LVL140
 3472 0a0c 1D170000 		.4byte	0x171d
 3473 0a10 1A0A0000 		.4byte	0xa1a
 3474 0a14 08       		.uleb128 0x8
 3475 0a15 01       		.uleb128 0x1
 3476 0a16 50       		.byte	0x50
 3477 0a17 01       		.uleb128 0x1
 3478 0a18 30       		.byte	0x30
 3479 0a19 00       		.byte	0
 3480 0a1a 07       		.uleb128 0x7
 3481 0a1b 32010000 		.4byte	.LVL141
 3482 0a1f BA160000 		.4byte	0x16ba
 3483 0a23 2E0A0000 		.4byte	0xa2e
 3484 0a27 08       		.uleb128 0x8
 3485 0a28 01       		.uleb128 0x1
 3486 0a29 50       		.byte	0x50
 3487 0a2a 02       		.uleb128 0x2
 3488 0a2b 08       		.byte	0x8
 3489 0a2c 32       		.byte	0x32
 3490 0a2d 00       		.byte	0
ARM GAS  C:\Users\Misha\AppData\Local\Temp\ccmv7pUT.s 			page 81


 3491 0a2e 07       		.uleb128 0x7
 3492 0a2f 38010000 		.4byte	.LVL142
 3493 0a33 1D170000 		.4byte	0x171d
 3494 0a37 410A0000 		.4byte	0xa41
 3495 0a3b 08       		.uleb128 0x8
 3496 0a3c 01       		.uleb128 0x1
 3497 0a3d 50       		.byte	0x50
 3498 0a3e 01       		.uleb128 0x1
 3499 0a3f 31       		.byte	0x31
 3500 0a40 00       		.byte	0
 3501 0a41 07       		.uleb128 0x7
 3502 0a42 3E010000 		.4byte	.LVL143
 3503 0a46 BA160000 		.4byte	0x16ba
 3504 0a4a 550A0000 		.4byte	0xa55
 3505 0a4e 08       		.uleb128 0x8
 3506 0a4f 01       		.uleb128 0x1
 3507 0a50 50       		.byte	0x50
 3508 0a51 02       		.uleb128 0x2
 3509 0a52 08       		.byte	0x8
 3510 0a53 32       		.byte	0x32
 3511 0a54 00       		.byte	0
 3512 0a55 09       		.uleb128 0x9
 3513 0a56 4A010000 		.4byte	.LVL146
 3514 0a5a 62160000 		.4byte	0x1662
 3515 0a5e 07       		.uleb128 0x7
 3516 0a5f 50010000 		.4byte	.LVL147
 3517 0a63 6D160000 		.4byte	0x166d
 3518 0a67 710A0000 		.4byte	0xa71
 3519 0a6b 08       		.uleb128 0x8
 3520 0a6c 01       		.uleb128 0x1
 3521 0a6d 50       		.byte	0x50
 3522 0a6e 01       		.uleb128 0x1
 3523 0a6f 49       		.byte	0x49
 3524 0a70 00       		.byte	0
 3525 0a71 09       		.uleb128 0x9
 3526 0a72 54010000 		.4byte	.LVL148
 3527 0a76 78160000 		.4byte	0x1678
 3528 0a7a 07       		.uleb128 0x7
 3529 0a7b 5A010000 		.4byte	.LVL149
 3530 0a7f 83160000 		.4byte	0x1683
 3531 0a83 8D0A0000 		.4byte	0xa8d
 3532 0a87 08       		.uleb128 0x8
 3533 0a88 01       		.uleb128 0x1
 3534 0a89 50       		.byte	0x50
 3535 0a8a 01       		.uleb128 0x1
 3536 0a8b 49       		.byte	0x49
 3537 0a8c 00       		.byte	0
 3538 0a8d 07       		.uleb128 0x7
 3539 0a8e 62010000 		.4byte	.LVL150
 3540 0a92 1D170000 		.4byte	0x171d
 3541 0a96 A00A0000 		.4byte	0xaa0
 3542 0a9a 08       		.uleb128 0x8
 3543 0a9b 01       		.uleb128 0x1
 3544 0a9c 50       		.byte	0x50
 3545 0a9d 01       		.uleb128 0x1
 3546 0a9e 30       		.byte	0x30
 3547 0a9f 00       		.byte	0
ARM GAS  C:\Users\Misha\AppData\Local\Temp\ccmv7pUT.s 			page 82


 3548 0aa0 07       		.uleb128 0x7
 3549 0aa1 68010000 		.4byte	.LVL151
 3550 0aa5 BA160000 		.4byte	0x16ba
 3551 0aa9 B40A0000 		.4byte	0xab4
 3552 0aad 08       		.uleb128 0x8
 3553 0aae 01       		.uleb128 0x1
 3554 0aaf 50       		.byte	0x50
 3555 0ab0 02       		.uleb128 0x2
 3556 0ab1 08       		.byte	0x8
 3557 0ab2 32       		.byte	0x32
 3558 0ab3 00       		.byte	0
 3559 0ab4 07       		.uleb128 0x7
 3560 0ab5 6E010000 		.4byte	.LVL152
 3561 0ab9 1D170000 		.4byte	0x171d
 3562 0abd C70A0000 		.4byte	0xac7
 3563 0ac1 08       		.uleb128 0x8
 3564 0ac2 01       		.uleb128 0x1
 3565 0ac3 50       		.byte	0x50
 3566 0ac4 01       		.uleb128 0x1
 3567 0ac5 31       		.byte	0x31
 3568 0ac6 00       		.byte	0
 3569 0ac7 07       		.uleb128 0x7
 3570 0ac8 74010000 		.4byte	.LVL153
 3571 0acc BA160000 		.4byte	0x16ba
 3572 0ad0 DB0A0000 		.4byte	0xadb
 3573 0ad4 08       		.uleb128 0x8
 3574 0ad5 01       		.uleb128 0x1
 3575 0ad6 50       		.byte	0x50
 3576 0ad7 02       		.uleb128 0x2
 3577 0ad8 08       		.byte	0x8
 3578 0ad9 32       		.byte	0x32
 3579 0ada 00       		.byte	0
 3580 0adb 07       		.uleb128 0x7
 3581 0adc 88010000 		.4byte	.LVL155
 3582 0ae0 C5160000 		.4byte	0x16c5
 3583 0ae4 FF0A0000 		.4byte	0xaff
 3584 0ae8 08       		.uleb128 0x8
 3585 0ae9 01       		.uleb128 0x1
 3586 0aea 50       		.byte	0x50
 3587 0aeb 02       		.uleb128 0x2
 3588 0aec 75       		.byte	0x75
 3589 0aed 00       		.sleb128 0
 3590 0aee 08       		.uleb128 0x8
 3591 0aef 01       		.uleb128 0x1
 3592 0af0 51       		.byte	0x51
 3593 0af1 05       		.uleb128 0x5
 3594 0af2 03       		.byte	0x3
 3595 0af3 7C000000 		.4byte	.LC7
 3596 0af7 08       		.uleb128 0x8
 3597 0af8 02       		.uleb128 0x2
 3598 0af9 7D       		.byte	0x7d
 3599 0afa 00       		.sleb128 0
 3600 0afb 02       		.uleb128 0x2
 3601 0afc 74       		.byte	0x74
 3602 0afd 00       		.sleb128 0
 3603 0afe 00       		.byte	0
 3604 0aff 07       		.uleb128 0x7
ARM GAS  C:\Users\Misha\AppData\Local\Temp\ccmv7pUT.s 			page 83


 3605 0b00 8E010000 		.4byte	.LVL156
 3606 0b04 D0160000 		.4byte	0x16d0
 3607 0b08 130B0000 		.4byte	0xb13
 3608 0b0c 08       		.uleb128 0x8
 3609 0b0d 01       		.uleb128 0x1
 3610 0b0e 50       		.byte	0x50
 3611 0b0f 02       		.uleb128 0x2
 3612 0b10 75       		.byte	0x75
 3613 0b11 00       		.sleb128 0
 3614 0b12 00       		.byte	0
 3615 0b13 07       		.uleb128 0x7
 3616 0b14 AA010000 		.4byte	.LVL157
 3617 0b18 1D170000 		.4byte	0x171d
 3618 0b1c 260B0000 		.4byte	0xb26
 3619 0b20 08       		.uleb128 0x8
 3620 0b21 01       		.uleb128 0x1
 3621 0b22 50       		.byte	0x50
 3622 0b23 01       		.uleb128 0x1
 3623 0b24 30       		.byte	0x30
 3624 0b25 00       		.byte	0
 3625 0b26 07       		.uleb128 0x7
 3626 0b27 B0010000 		.4byte	.LVL158
 3627 0b2b BA160000 		.4byte	0x16ba
 3628 0b2f 3A0B0000 		.4byte	0xb3a
 3629 0b33 08       		.uleb128 0x8
 3630 0b34 01       		.uleb128 0x1
 3631 0b35 50       		.byte	0x50
 3632 0b36 02       		.uleb128 0x2
 3633 0b37 08       		.byte	0x8
 3634 0b38 32       		.byte	0x32
 3635 0b39 00       		.byte	0
 3636 0b3a 07       		.uleb128 0x7
 3637 0b3b B6010000 		.4byte	.LVL159
 3638 0b3f 1D170000 		.4byte	0x171d
 3639 0b43 4D0B0000 		.4byte	0xb4d
 3640 0b47 08       		.uleb128 0x8
 3641 0b48 01       		.uleb128 0x1
 3642 0b49 50       		.byte	0x50
 3643 0b4a 01       		.uleb128 0x1
 3644 0b4b 31       		.byte	0x31
 3645 0b4c 00       		.byte	0
 3646 0b4d 07       		.uleb128 0x7
 3647 0b4e BC010000 		.4byte	.LVL160
 3648 0b52 BA160000 		.4byte	0x16ba
 3649 0b56 610B0000 		.4byte	0xb61
 3650 0b5a 08       		.uleb128 0x8
 3651 0b5b 01       		.uleb128 0x1
 3652 0b5c 50       		.byte	0x50
 3653 0b5d 02       		.uleb128 0x2
 3654 0b5e 08       		.byte	0x8
 3655 0b5f 32       		.byte	0x32
 3656 0b60 00       		.byte	0
 3657 0b61 07       		.uleb128 0x7
 3658 0b62 CE010000 		.4byte	.LVL162
 3659 0b66 C5160000 		.4byte	0x16c5
 3660 0b6a 7E0B0000 		.4byte	0xb7e
 3661 0b6e 08       		.uleb128 0x8
ARM GAS  C:\Users\Misha\AppData\Local\Temp\ccmv7pUT.s 			page 84


 3662 0b6f 01       		.uleb128 0x1
 3663 0b70 50       		.byte	0x50
 3664 0b71 02       		.uleb128 0x2
 3665 0b72 75       		.byte	0x75
 3666 0b73 00       		.sleb128 0
 3667 0b74 08       		.uleb128 0x8
 3668 0b75 01       		.uleb128 0x1
 3669 0b76 51       		.byte	0x51
 3670 0b77 05       		.uleb128 0x5
 3671 0b78 03       		.byte	0x3
 3672 0b79 94000000 		.4byte	.LC8
 3673 0b7d 00       		.byte	0
 3674 0b7e 07       		.uleb128 0x7
 3675 0b7f D4010000 		.4byte	.LVL163
 3676 0b83 D0160000 		.4byte	0x16d0
 3677 0b87 920B0000 		.4byte	0xb92
 3678 0b8b 08       		.uleb128 0x8
 3679 0b8c 01       		.uleb128 0x1
 3680 0b8d 50       		.byte	0x50
 3681 0b8e 02       		.uleb128 0x2
 3682 0b8f 75       		.byte	0x75
 3683 0b90 00       		.sleb128 0
 3684 0b91 00       		.byte	0
 3685 0b92 07       		.uleb128 0x7
 3686 0b93 DE010000 		.4byte	.LVL164
 3687 0b97 C5160000 		.4byte	0x16c5
 3688 0b9b B50B0000 		.4byte	0xbb5
 3689 0b9f 08       		.uleb128 0x8
 3690 0ba0 01       		.uleb128 0x1
 3691 0ba1 50       		.byte	0x50
 3692 0ba2 02       		.uleb128 0x2
 3693 0ba3 75       		.byte	0x75
 3694 0ba4 00       		.sleb128 0
 3695 0ba5 08       		.uleb128 0x8
 3696 0ba6 01       		.uleb128 0x1
 3697 0ba7 51       		.byte	0x51
 3698 0ba8 05       		.uleb128 0x5
 3699 0ba9 03       		.byte	0x3
 3700 0baa A0000000 		.4byte	.LC9
 3701 0bae 08       		.uleb128 0x8
 3702 0baf 01       		.uleb128 0x1
 3703 0bb0 52       		.byte	0x52
 3704 0bb1 02       		.uleb128 0x2
 3705 0bb2 74       		.byte	0x74
 3706 0bb3 00       		.sleb128 0
 3707 0bb4 00       		.byte	0
 3708 0bb5 07       		.uleb128 0x7
 3709 0bb6 E4010000 		.4byte	.LVL165
 3710 0bba D0160000 		.4byte	0x16d0
 3711 0bbe C90B0000 		.4byte	0xbc9
 3712 0bc2 08       		.uleb128 0x8
 3713 0bc3 01       		.uleb128 0x1
 3714 0bc4 50       		.byte	0x50
 3715 0bc5 02       		.uleb128 0x2
 3716 0bc6 75       		.byte	0x75
 3717 0bc7 00       		.sleb128 0
 3718 0bc8 00       		.byte	0
ARM GAS  C:\Users\Misha\AppData\Local\Temp\ccmv7pUT.s 			page 85


 3719 0bc9 09       		.uleb128 0x9
 3720 0bca F6010000 		.4byte	.LVL166
 3721 0bce F1160000 		.4byte	0x16f1
 3722 0bd2 09       		.uleb128 0x9
 3723 0bd3 FA010000 		.4byte	.LVL167
 3724 0bd7 FC160000 		.4byte	0x16fc
 3725 0bdb 00       		.byte	0
 3726 0bdc 0D       		.uleb128 0xd
 3727 0bdd 0D050000 		.4byte	.LASF46
 3728 0be1 01       		.byte	0x1
 3729 0be2 0D02     		.2byte	0x20d
 3730 0be4 00000000 		.4byte	.LFB70
 3731 0be8 3C000000 		.4byte	.LFE70-.LFB70
 3732 0bec 01       		.uleb128 0x1
 3733 0bed 9C       		.byte	0x9c
 3734 0bee 5D0C0000 		.4byte	0xc5d
 3735 0bf2 0E       		.uleb128 0xe
 3736 0bf3 75050000 		.4byte	.LASF47
 3737 0bf7 01       		.byte	0x1
 3738 0bf8 0D02     		.2byte	0x20d
 3739 0bfa 68000000 		.4byte	0x68
 3740 0bfe AF030000 		.4byte	.LLST23
 3741 0c02 0E       		.uleb128 0xe
 3742 0c03 27060000 		.4byte	.LASF48
 3743 0c07 01       		.byte	0x1
 3744 0c08 0D02     		.2byte	0x20d
 3745 0c0a 68000000 		.4byte	0x68
 3746 0c0e DB030000 		.4byte	.LLST24
 3747 0c12 13       		.uleb128 0x13
 3748 0c13 B3060000 		.4byte	.LASF49
 3749 0c17 01       		.byte	0x1
 3750 0c18 0F02     		.2byte	0x20f
 3751 0c1a 68000000 		.4byte	0x68
 3752 0c1e 0A       		.byte	0xa
 3753 0c1f 10       		.uleb128 0x10
 3754 0c20 2E020000 		.4byte	.LASF50
 3755 0c24 01       		.byte	0x1
 3756 0c25 1002     		.2byte	0x210
 3757 0c27 68000000 		.4byte	0x68
 3758 0c2b 07       		.uleb128 0x7
 3759 0c2c 12000000 		.4byte	.LVL171
 3760 0c30 1D170000 		.4byte	0x171d
 3761 0c34 3F0C0000 		.4byte	0xc3f
 3762 0c38 08       		.uleb128 0x8
 3763 0c39 01       		.uleb128 0x1
 3764 0c3a 50       		.byte	0x50
 3765 0c3b 02       		.uleb128 0x2
 3766 0c3c 75       		.byte	0x75
 3767 0c3d 00       		.sleb128 0
 3768 0c3e 00       		.byte	0
 3769 0c3f 07       		.uleb128 0x7
 3770 0c40 18000000 		.4byte	.LVL172
 3771 0c44 BA160000 		.4byte	0x16ba
 3772 0c48 530C0000 		.4byte	0xc53
 3773 0c4c 08       		.uleb128 0x8
 3774 0c4d 01       		.uleb128 0x1
 3775 0c4e 50       		.byte	0x50
ARM GAS  C:\Users\Misha\AppData\Local\Temp\ccmv7pUT.s 			page 86


 3776 0c4f 02       		.uleb128 0x2
 3777 0c50 08       		.byte	0x8
 3778 0c51 32       		.byte	0x32
 3779 0c52 00       		.byte	0
 3780 0c53 09       		.uleb128 0x9
 3781 0c54 30000000 		.4byte	.LVL175
 3782 0c58 43070000 		.4byte	0x743
 3783 0c5c 00       		.byte	0
 3784 0c5d 15       		.uleb128 0x15
 3785 0c5e C3060000 		.4byte	.LASF51
 3786 0c62 01       		.byte	0x1
 3787 0c63 8E       		.byte	0x8e
 3788 0c64 00000000 		.4byte	.LFB66
 3789 0c68 C0030000 		.4byte	.LFE66-.LFB66
 3790 0c6c 01       		.uleb128 0x1
 3791 0c6d 9C       		.byte	0x9c
 3792 0c6e 48110000 		.4byte	0x1148
 3793 0c72 0B       		.uleb128 0xb
 3794 0c73 A9020000 		.4byte	.LASF32
 3795 0c77 01       		.byte	0x1
 3796 0c78 8E       		.byte	0x8e
 3797 0c79 68000000 		.4byte	0x68
 3798 0c7d 21040000 		.4byte	.LLST25
 3799 0c81 0B       		.uleb128 0xb
 3800 0c82 6C010000 		.4byte	.LASF33
 3801 0c86 01       		.byte	0x1
 3802 0c87 8E       		.byte	0x8e
 3803 0c88 68000000 		.4byte	0x68
 3804 0c8c 4D040000 		.4byte	.LLST26
 3805 0c90 0B       		.uleb128 0xb
 3806 0c91 84040000 		.4byte	.LASF34
 3807 0c95 01       		.byte	0x1
 3808 0c96 8E       		.byte	0x8e
 3809 0c97 68000000 		.4byte	0x68
 3810 0c9b 78040000 		.4byte	.LLST27
 3811 0c9f 0B       		.uleb128 0xb
 3812 0ca0 08000000 		.4byte	.LASF35
 3813 0ca4 01       		.byte	0x1
 3814 0ca5 8E       		.byte	0x8e
 3815 0ca6 68000000 		.4byte	0x68
 3816 0caa A3040000 		.4byte	.LLST28
 3817 0cae 0B       		.uleb128 0xb
 3818 0caf 7E040000 		.4byte	.LASF21
 3819 0cb3 01       		.byte	0x1
 3820 0cb4 8E       		.byte	0x8e
 3821 0cb5 68000000 		.4byte	0x68
 3822 0cb9 C1040000 		.4byte	.LLST29
 3823 0cbd 0B       		.uleb128 0xb
 3824 0cbe 5C000000 		.4byte	.LASF52
 3825 0cc2 01       		.byte	0x1
 3826 0cc3 8E       		.byte	0x8e
 3827 0cc4 68000000 		.4byte	0x68
 3828 0cc8 E1040000 		.4byte	.LLST30
 3829 0ccc 06       		.uleb128 0x6
 3830 0ccd FB020000 		.4byte	.LASF23
 3831 0cd1 01       		.byte	0x1
 3832 0cd2 98       		.byte	0x98
ARM GAS  C:\Users\Misha\AppData\Local\Temp\ccmv7pUT.s 			page 87


 3833 0cd3 68000000 		.4byte	0x68
 3834 0cd7 01050000 		.4byte	.LLST31
 3835 0cdb 06       		.uleb128 0x6
 3836 0cdc BB070000 		.4byte	.LASF22
 3837 0ce0 01       		.byte	0x1
 3838 0ce1 99       		.byte	0x99
 3839 0ce2 68000000 		.4byte	0x68
 3840 0ce6 7B050000 		.4byte	.LLST32
 3841 0cea 06       		.uleb128 0x6
 3842 0ceb A8000000 		.4byte	.LASF24
 3843 0cef 01       		.byte	0x1
 3844 0cf0 9A       		.byte	0x9a
 3845 0cf1 68000000 		.4byte	0x68
 3846 0cf5 99050000 		.4byte	.LLST33
 3847 0cf9 06       		.uleb128 0x6
 3848 0cfa C7070000 		.4byte	.LASF25
 3849 0cfe 01       		.byte	0x1
 3850 0cff 9B       		.byte	0x9b
 3851 0d00 68000000 		.4byte	0x68
 3852 0d04 CD050000 		.4byte	.LLST34
 3853 0d08 06       		.uleb128 0x6
 3854 0d09 04060000 		.4byte	.LASF53
 3855 0d0d 01       		.byte	0x1
 3856 0d0e 9C       		.byte	0x9c
 3857 0d0f 68000000 		.4byte	0x68
 3858 0d13 01060000 		.4byte	.LLST35
 3859 0d17 06       		.uleb128 0x6
 3860 0d18 82010000 		.4byte	.LASF37
 3861 0d1c 01       		.byte	0x1
 3862 0d1d 9E       		.byte	0x9e
 3863 0d1e 68000000 		.4byte	0x68
 3864 0d22 69060000 		.4byte	.LLST36
 3865 0d26 06       		.uleb128 0x6
 3866 0d27 A2040000 		.4byte	.LASF36
 3867 0d2b 01       		.byte	0x1
 3868 0d2c A0       		.byte	0xa0
 3869 0d2d 68000000 		.4byte	0x68
 3870 0d31 A8060000 		.4byte	.LLST37
 3871 0d35 06       		.uleb128 0x6
 3872 0d36 C9010000 		.4byte	.LASF54
 3873 0d3a 01       		.byte	0x1
 3874 0d3b A2       		.byte	0xa2
 3875 0d3c 68000000 		.4byte	0x68
 3876 0d40 4A070000 		.4byte	.LLST38
 3877 0d44 06       		.uleb128 0x6
 3878 0d45 4B000000 		.4byte	.LASF55
 3879 0d49 01       		.byte	0x1
 3880 0d4a A5       		.byte	0xa5
 3881 0d4b 68000000 		.4byte	0x68
 3882 0d4f AC070000 		.4byte	.LLST39
 3883 0d53 06       		.uleb128 0x6
 3884 0d54 D5050000 		.4byte	.LASF56
 3885 0d58 01       		.byte	0x1
 3886 0d59 A6       		.byte	0xa6
 3887 0d5a 68000000 		.4byte	0x68
 3888 0d5e CC070000 		.4byte	.LLST40
 3889 0d62 16       		.uleb128 0x16
ARM GAS  C:\Users\Misha\AppData\Local\Temp\ccmv7pUT.s 			page 88


 3890 0d63 E6000000 		.4byte	.LBB2
 3891 0d67 38010000 		.4byte	.LBE2-.LBB2
 3892 0d6b 990E0000 		.4byte	0xe99
 3893 0d6f 06       		.uleb128 0x6
 3894 0d70 CD040000 		.4byte	.LASF57
 3895 0d74 01       		.byte	0x1
 3896 0d75 FD       		.byte	0xfd
 3897 0d76 68000000 		.4byte	0x68
 3898 0d7a EC070000 		.4byte	.LLST41
 3899 0d7e 09       		.uleb128 0x9
 3900 0d7f EA000000 		.4byte	.LVL202
 3901 0d83 AF160000 		.4byte	0x16af
 3902 0d87 09       		.uleb128 0x9
 3903 0d88 F2000000 		.4byte	.LVL205
 3904 0d8c A4160000 		.4byte	0x16a4
 3905 0d90 07       		.uleb128 0x7
 3906 0d91 22010000 		.4byte	.LVL211
 3907 0d95 6D160000 		.4byte	0x166d
 3908 0d99 A40D0000 		.4byte	0xda4
 3909 0d9d 08       		.uleb128 0x8
 3910 0d9e 01       		.uleb128 0x1
 3911 0d9f 50       		.byte	0x50
 3912 0da0 02       		.uleb128 0x2
 3913 0da1 79       		.byte	0x79
 3914 0da2 00       		.sleb128 0
 3915 0da3 00       		.byte	0
 3916 0da4 07       		.uleb128 0x7
 3917 0da5 2A010000 		.4byte	.LVL212
 3918 0da9 83160000 		.4byte	0x1683
 3919 0dad B80D0000 		.4byte	0xdb8
 3920 0db1 08       		.uleb128 0x8
 3921 0db2 01       		.uleb128 0x1
 3922 0db3 50       		.byte	0x50
 3923 0db4 02       		.uleb128 0x2
 3924 0db5 7B       		.byte	0x7b
 3925 0db6 00       		.sleb128 0
 3926 0db7 00       		.byte	0
 3927 0db8 07       		.uleb128 0x7
 3928 0db9 38010000 		.4byte	.LVL213
 3929 0dbd 1D170000 		.4byte	0x171d
 3930 0dc1 CB0D0000 		.4byte	0xdcb
 3931 0dc5 08       		.uleb128 0x8
 3932 0dc6 01       		.uleb128 0x1
 3933 0dc7 50       		.byte	0x50
 3934 0dc8 01       		.uleb128 0x1
 3935 0dc9 30       		.byte	0x30
 3936 0dca 00       		.byte	0
 3937 0dcb 07       		.uleb128 0x7
 3938 0dcc 3E010000 		.4byte	.LVL214
 3939 0dd0 BA160000 		.4byte	0x16ba
 3940 0dd4 DF0D0000 		.4byte	0xddf
 3941 0dd8 08       		.uleb128 0x8
 3942 0dd9 01       		.uleb128 0x1
 3943 0dda 50       		.byte	0x50
 3944 0ddb 02       		.uleb128 0x2
 3945 0ddc 08       		.byte	0x8
 3946 0ddd 32       		.byte	0x32
ARM GAS  C:\Users\Misha\AppData\Local\Temp\ccmv7pUT.s 			page 89


 3947 0dde 00       		.byte	0
 3948 0ddf 07       		.uleb128 0x7
 3949 0de0 58010000 		.4byte	.LVL217
 3950 0de4 1D170000 		.4byte	0x171d
 3951 0de8 F20D0000 		.4byte	0xdf2
 3952 0dec 08       		.uleb128 0x8
 3953 0ded 01       		.uleb128 0x1
 3954 0dee 50       		.byte	0x50
 3955 0def 01       		.uleb128 0x1
 3956 0df0 31       		.byte	0x31
 3957 0df1 00       		.byte	0
 3958 0df2 07       		.uleb128 0x7
 3959 0df3 5E010000 		.4byte	.LVL218
 3960 0df7 BA160000 		.4byte	0x16ba
 3961 0dfb 060E0000 		.4byte	0xe06
 3962 0dff 08       		.uleb128 0x8
 3963 0e00 01       		.uleb128 0x1
 3964 0e01 50       		.byte	0x50
 3965 0e02 02       		.uleb128 0x2
 3966 0e03 08       		.byte	0x8
 3967 0e04 32       		.byte	0x32
 3968 0e05 00       		.byte	0
 3969 0e06 07       		.uleb128 0x7
 3970 0e07 70010000 		.4byte	.LVL221
 3971 0e0b 1D170000 		.4byte	0x171d
 3972 0e0f 1A0E0000 		.4byte	0xe1a
 3973 0e13 08       		.uleb128 0x8
 3974 0e14 01       		.uleb128 0x1
 3975 0e15 50       		.byte	0x50
 3976 0e16 02       		.uleb128 0x2
 3977 0e17 74       		.byte	0x74
 3978 0e18 00       		.sleb128 0
 3979 0e19 00       		.byte	0
 3980 0e1a 07       		.uleb128 0x7
 3981 0e1b 76010000 		.4byte	.LVL222
 3982 0e1f BA160000 		.4byte	0x16ba
 3983 0e23 2E0E0000 		.4byte	0xe2e
 3984 0e27 08       		.uleb128 0x8
 3985 0e28 01       		.uleb128 0x1
 3986 0e29 50       		.byte	0x50
 3987 0e2a 02       		.uleb128 0x2
 3988 0e2b 08       		.byte	0x8
 3989 0e2c 32       		.byte	0x32
 3990 0e2d 00       		.byte	0
 3991 0e2e 07       		.uleb128 0x7
 3992 0e2f 86010000 		.4byte	.LVL224
 3993 0e33 C5160000 		.4byte	0x16c5
 3994 0e37 540E0000 		.4byte	0xe54
 3995 0e3b 08       		.uleb128 0x8
 3996 0e3c 01       		.uleb128 0x1
 3997 0e3d 50       		.byte	0x50
 3998 0e3e 05       		.uleb128 0x5
 3999 0e3f 03       		.byte	0x3
 4000 0e40 00000000 		.4byte	output
 4001 0e44 08       		.uleb128 0x8
 4002 0e45 01       		.uleb128 0x1
 4003 0e46 51       		.byte	0x51
ARM GAS  C:\Users\Misha\AppData\Local\Temp\ccmv7pUT.s 			page 90


 4004 0e47 05       		.uleb128 0x5
 4005 0e48 03       		.byte	0x3
 4006 0e49 08000000 		.4byte	.LC1
 4007 0e4d 08       		.uleb128 0x8
 4008 0e4e 01       		.uleb128 0x1
 4009 0e4f 52       		.byte	0x52
 4010 0e50 02       		.uleb128 0x2
 4011 0e51 75       		.byte	0x75
 4012 0e52 00       		.sleb128 0
 4013 0e53 00       		.byte	0
 4014 0e54 07       		.uleb128 0x7
 4015 0e55 8C010000 		.4byte	.LVL225
 4016 0e59 D0160000 		.4byte	0x16d0
 4017 0e5d 6B0E0000 		.4byte	0xe6b
 4018 0e61 08       		.uleb128 0x8
 4019 0e62 01       		.uleb128 0x1
 4020 0e63 50       		.byte	0x50
 4021 0e64 05       		.uleb128 0x5
 4022 0e65 03       		.byte	0x3
 4023 0e66 00000000 		.4byte	output
 4024 0e6a 00       		.byte	0
 4025 0e6b 07       		.uleb128 0x7
 4026 0e6c C8010000 		.4byte	.LVL231
 4027 0e70 5C060000 		.4byte	0x65c
 4028 0e74 800E0000 		.4byte	0xe80
 4029 0e78 08       		.uleb128 0x8
 4030 0e79 01       		.uleb128 0x1
 4031 0e7a 50       		.byte	0x50
 4032 0e7b 03       		.uleb128 0x3
 4033 0e7c 91       		.byte	0x91
 4034 0e7d 44       		.sleb128 -60
 4035 0e7e 06       		.byte	0x6
 4036 0e7f 00       		.byte	0
 4037 0e80 0A       		.uleb128 0xa
 4038 0e81 18020000 		.4byte	.LVL239
 4039 0e85 DC0B0000 		.4byte	0xbdc
 4040 0e89 08       		.uleb128 0x8
 4041 0e8a 01       		.uleb128 0x1
 4042 0e8b 50       		.byte	0x50
 4043 0e8c 03       		.uleb128 0x3
 4044 0e8d 91       		.byte	0x91
 4045 0e8e 54       		.sleb128 -44
 4046 0e8f 06       		.byte	0x6
 4047 0e90 08       		.uleb128 0x8
 4048 0e91 01       		.uleb128 0x1
 4049 0e92 51       		.byte	0x51
 4050 0e93 03       		.uleb128 0x3
 4051 0e94 91       		.byte	0x91
 4052 0e95 50       		.sleb128 -48
 4053 0e96 06       		.byte	0x6
 4054 0e97 00       		.byte	0
 4055 0e98 00       		.byte	0
 4056 0e99 16       		.uleb128 0x16
 4057 0e9a 46020000 		.4byte	.LBB3
 4058 0e9e 14010000 		.4byte	.LBE3-.LBB3
 4059 0ea2 830F0000 		.4byte	0xf83
 4060 0ea6 0F       		.uleb128 0xf
ARM GAS  C:\Users\Misha\AppData\Local\Temp\ccmv7pUT.s 			page 91


 4061 0ea7 CD040000 		.4byte	.LASF57
 4062 0eab 01       		.byte	0x1
 4063 0eac 3301     		.2byte	0x133
 4064 0eae 68000000 		.4byte	0x68
 4065 0eb2 2F080000 		.4byte	.LLST42
 4066 0eb6 09       		.uleb128 0x9
 4067 0eb7 4A020000 		.4byte	.LVL243
 4068 0ebb AF160000 		.4byte	0x16af
 4069 0ebf 09       		.uleb128 0x9
 4070 0ec0 52020000 		.4byte	.LVL246
 4071 0ec4 A4160000 		.4byte	0x16a4
 4072 0ec8 07       		.uleb128 0x7
 4073 0ec9 82020000 		.4byte	.LVL252
 4074 0ecd 6D160000 		.4byte	0x166d
 4075 0ed1 DC0E0000 		.4byte	0xedc
 4076 0ed5 08       		.uleb128 0x8
 4077 0ed6 01       		.uleb128 0x1
 4078 0ed7 50       		.byte	0x50
 4079 0ed8 02       		.uleb128 0x2
 4080 0ed9 79       		.byte	0x79
 4081 0eda 00       		.sleb128 0
 4082 0edb 00       		.byte	0
 4083 0edc 07       		.uleb128 0x7
 4084 0edd 8A020000 		.4byte	.LVL253
 4085 0ee1 83160000 		.4byte	0x1683
 4086 0ee5 F00E0000 		.4byte	0xef0
 4087 0ee9 08       		.uleb128 0x8
 4088 0eea 01       		.uleb128 0x1
 4089 0eeb 50       		.byte	0x50
 4090 0eec 02       		.uleb128 0x2
 4091 0eed 7B       		.byte	0x7b
 4092 0eee 00       		.sleb128 0
 4093 0eef 00       		.byte	0
 4094 0ef0 07       		.uleb128 0x7
 4095 0ef1 90020000 		.4byte	.LVL254
 4096 0ef5 1D170000 		.4byte	0x171d
 4097 0ef9 040F0000 		.4byte	0xf04
 4098 0efd 08       		.uleb128 0x8
 4099 0efe 01       		.uleb128 0x1
 4100 0eff 50       		.byte	0x50
 4101 0f00 02       		.uleb128 0x2
 4102 0f01 74       		.byte	0x74
 4103 0f02 00       		.sleb128 0
 4104 0f03 00       		.byte	0
 4105 0f04 07       		.uleb128 0x7
 4106 0f05 96020000 		.4byte	.LVL255
 4107 0f09 BA160000 		.4byte	0x16ba
 4108 0f0d 180F0000 		.4byte	0xf18
 4109 0f11 08       		.uleb128 0x8
 4110 0f12 01       		.uleb128 0x1
 4111 0f13 50       		.byte	0x50
 4112 0f14 02       		.uleb128 0x2
 4113 0f15 08       		.byte	0x8
 4114 0f16 32       		.byte	0x32
 4115 0f17 00       		.byte	0
 4116 0f18 07       		.uleb128 0x7
 4117 0f19 A6020000 		.4byte	.LVL257
ARM GAS  C:\Users\Misha\AppData\Local\Temp\ccmv7pUT.s 			page 92


 4118 0f1d C5160000 		.4byte	0x16c5
 4119 0f21 3E0F0000 		.4byte	0xf3e
 4120 0f25 08       		.uleb128 0x8
 4121 0f26 01       		.uleb128 0x1
 4122 0f27 50       		.byte	0x50
 4123 0f28 05       		.uleb128 0x5
 4124 0f29 03       		.byte	0x3
 4125 0f2a 00000000 		.4byte	output
 4126 0f2e 08       		.uleb128 0x8
 4127 0f2f 01       		.uleb128 0x1
 4128 0f30 51       		.byte	0x51
 4129 0f31 05       		.uleb128 0x5
 4130 0f32 03       		.byte	0x3
 4131 0f33 08000000 		.4byte	.LC1
 4132 0f37 08       		.uleb128 0x8
 4133 0f38 01       		.uleb128 0x1
 4134 0f39 52       		.byte	0x52
 4135 0f3a 02       		.uleb128 0x2
 4136 0f3b 75       		.byte	0x75
 4137 0f3c 00       		.sleb128 0
 4138 0f3d 00       		.byte	0
 4139 0f3e 07       		.uleb128 0x7
 4140 0f3f AC020000 		.4byte	.LVL258
 4141 0f43 D0160000 		.4byte	0x16d0
 4142 0f47 550F0000 		.4byte	0xf55
 4143 0f4b 08       		.uleb128 0x8
 4144 0f4c 01       		.uleb128 0x1
 4145 0f4d 50       		.byte	0x50
 4146 0f4e 05       		.uleb128 0x5
 4147 0f4f 03       		.byte	0x3
 4148 0f50 00000000 		.4byte	output
 4149 0f54 00       		.byte	0
 4150 0f55 07       		.uleb128 0x7
 4151 0f56 E8020000 		.4byte	.LVL264
 4152 0f5a 5C060000 		.4byte	0x65c
 4153 0f5e 6A0F0000 		.4byte	0xf6a
 4154 0f62 08       		.uleb128 0x8
 4155 0f63 01       		.uleb128 0x1
 4156 0f64 50       		.byte	0x50
 4157 0f65 03       		.uleb128 0x3
 4158 0f66 91       		.byte	0x91
 4159 0f67 44       		.sleb128 -60
 4160 0f68 06       		.byte	0x6
 4161 0f69 00       		.byte	0
 4162 0f6a 0A       		.uleb128 0xa
 4163 0f6b 56030000 		.4byte	.LVL272
 4164 0f6f DC0B0000 		.4byte	0xbdc
 4165 0f73 08       		.uleb128 0x8
 4166 0f74 01       		.uleb128 0x1
 4167 0f75 50       		.byte	0x50
 4168 0f76 03       		.uleb128 0x3
 4169 0f77 91       		.byte	0x91
 4170 0f78 54       		.sleb128 -44
 4171 0f79 06       		.byte	0x6
 4172 0f7a 08       		.uleb128 0x8
 4173 0f7b 01       		.uleb128 0x1
 4174 0f7c 51       		.byte	0x51
ARM GAS  C:\Users\Misha\AppData\Local\Temp\ccmv7pUT.s 			page 93


 4175 0f7d 03       		.uleb128 0x3
 4176 0f7e 91       		.byte	0x91
 4177 0f7f 50       		.sleb128 -48
 4178 0f80 06       		.byte	0x6
 4179 0f81 00       		.byte	0
 4180 0f82 00       		.byte	0
 4181 0f83 07       		.uleb128 0x7
 4182 0f84 16000000 		.4byte	.LVL179
 4183 0f88 1D170000 		.4byte	0x171d
 4184 0f8c 960F0000 		.4byte	0xf96
 4185 0f90 08       		.uleb128 0x8
 4186 0f91 01       		.uleb128 0x1
 4187 0f92 50       		.byte	0x50
 4188 0f93 01       		.uleb128 0x1
 4189 0f94 32       		.byte	0x32
 4190 0f95 00       		.byte	0
 4191 0f96 07       		.uleb128 0x7
 4192 0f97 1C000000 		.4byte	.LVL180
 4193 0f9b BA160000 		.4byte	0x16ba
 4194 0f9f AA0F0000 		.4byte	0xfaa
 4195 0fa3 08       		.uleb128 0x8
 4196 0fa4 01       		.uleb128 0x1
 4197 0fa5 50       		.byte	0x50
 4198 0fa6 02       		.uleb128 0x2
 4199 0fa7 08       		.byte	0x8
 4200 0fa8 32       		.byte	0x32
 4201 0fa9 00       		.byte	0
 4202 0faa 07       		.uleb128 0x7
 4203 0fab 22000000 		.4byte	.LVL181
 4204 0faf 1D170000 		.4byte	0x171d
 4205 0fb3 BD0F0000 		.4byte	0xfbd
 4206 0fb7 08       		.uleb128 0x8
 4207 0fb8 01       		.uleb128 0x1
 4208 0fb9 50       		.byte	0x50
 4209 0fba 01       		.uleb128 0x1
 4210 0fbb 33       		.byte	0x33
 4211 0fbc 00       		.byte	0
 4212 0fbd 07       		.uleb128 0x7
 4213 0fbe 28000000 		.4byte	.LVL182
 4214 0fc2 BA160000 		.4byte	0x16ba
 4215 0fc6 D10F0000 		.4byte	0xfd1
 4216 0fca 08       		.uleb128 0x8
 4217 0fcb 01       		.uleb128 0x1
 4218 0fcc 50       		.byte	0x50
 4219 0fcd 02       		.uleb128 0x2
 4220 0fce 08       		.byte	0x8
 4221 0fcf 32       		.byte	0x32
 4222 0fd0 00       		.byte	0
 4223 0fd1 07       		.uleb128 0x7
 4224 0fd2 4C000000 		.4byte	.LVL184
 4225 0fd6 4C160000 		.4byte	0x164c
 4226 0fda E40F0000 		.4byte	0xfe4
 4227 0fde 08       		.uleb128 0x8
 4228 0fdf 01       		.uleb128 0x1
 4229 0fe0 50       		.byte	0x50
 4230 0fe1 01       		.uleb128 0x1
 4231 0fe2 30       		.byte	0x30
ARM GAS  C:\Users\Misha\AppData\Local\Temp\ccmv7pUT.s 			page 94


 4232 0fe3 00       		.byte	0
 4233 0fe4 07       		.uleb128 0x7
 4234 0fe5 52000000 		.4byte	.LVL185
 4235 0fe9 57160000 		.4byte	0x1657
 4236 0fed F70F0000 		.4byte	0xff7
 4237 0ff1 08       		.uleb128 0x8
 4238 0ff2 01       		.uleb128 0x1
 4239 0ff3 50       		.byte	0x50
 4240 0ff4 01       		.uleb128 0x1
 4241 0ff5 30       		.byte	0x30
 4242 0ff6 00       		.byte	0
 4243 0ff7 07       		.uleb128 0x7
 4244 0ff8 5C000000 		.4byte	.LVL186
 4245 0ffc 4C160000 		.4byte	0x164c
 4246 1000 0A100000 		.4byte	0x100a
 4247 1004 08       		.uleb128 0x8
 4248 1005 01       		.uleb128 0x1
 4249 1006 50       		.byte	0x50
 4250 1007 01       		.uleb128 0x1
 4251 1008 31       		.byte	0x31
 4252 1009 00       		.byte	0
 4253 100a 07       		.uleb128 0x7
 4254 100b 62000000 		.4byte	.LVL187
 4255 100f 57160000 		.4byte	0x1657
 4256 1013 1D100000 		.4byte	0x101d
 4257 1017 08       		.uleb128 0x8
 4258 1018 01       		.uleb128 0x1
 4259 1019 50       		.byte	0x50
 4260 101a 01       		.uleb128 0x1
 4261 101b 31       		.byte	0x31
 4262 101c 00       		.byte	0
 4263 101d 07       		.uleb128 0x7
 4264 101e 84000000 		.4byte	.LVL190
 4265 1022 1D170000 		.4byte	0x171d
 4266 1026 31100000 		.4byte	0x1031
 4267 102a 08       		.uleb128 0x8
 4268 102b 01       		.uleb128 0x1
 4269 102c 50       		.byte	0x50
 4270 102d 02       		.uleb128 0x2
 4271 102e 74       		.byte	0x74
 4272 102f 00       		.sleb128 0
 4273 1030 00       		.byte	0
 4274 1031 07       		.uleb128 0x7
 4275 1032 8A000000 		.4byte	.LVL191
 4276 1036 BA160000 		.4byte	0x16ba
 4277 103a 45100000 		.4byte	0x1045
 4278 103e 08       		.uleb128 0x8
 4279 103f 01       		.uleb128 0x1
 4280 1040 50       		.byte	0x50
 4281 1041 02       		.uleb128 0x2
 4282 1042 08       		.byte	0x8
 4283 1043 32       		.byte	0x32
 4284 1044 00       		.byte	0
 4285 1045 07       		.uleb128 0x7
 4286 1046 9C000000 		.4byte	.LVL193
 4287 104a C5160000 		.4byte	0x16c5
 4288 104e 68100000 		.4byte	0x1068
ARM GAS  C:\Users\Misha\AppData\Local\Temp\ccmv7pUT.s 			page 95


 4289 1052 08       		.uleb128 0x8
 4290 1053 01       		.uleb128 0x1
 4291 1054 50       		.byte	0x50
 4292 1055 02       		.uleb128 0x2
 4293 1056 77       		.byte	0x77
 4294 1057 00       		.sleb128 0
 4295 1058 08       		.uleb128 0x8
 4296 1059 01       		.uleb128 0x1
 4297 105a 51       		.byte	0x51
 4298 105b 05       		.uleb128 0x5
 4299 105c 03       		.byte	0x3
 4300 105d 08000000 		.4byte	.LC1
 4301 1061 08       		.uleb128 0x8
 4302 1062 01       		.uleb128 0x1
 4303 1063 52       		.byte	0x52
 4304 1064 02       		.uleb128 0x2
 4305 1065 75       		.byte	0x75
 4306 1066 00       		.sleb128 0
 4307 1067 00       		.byte	0
 4308 1068 07       		.uleb128 0x7
 4309 1069 A2000000 		.4byte	.LVL194
 4310 106d D0160000 		.4byte	0x16d0
 4311 1071 7C100000 		.4byte	0x107c
 4312 1075 08       		.uleb128 0x8
 4313 1076 01       		.uleb128 0x1
 4314 1077 50       		.byte	0x50
 4315 1078 02       		.uleb128 0x2
 4316 1079 77       		.byte	0x77
 4317 107a 00       		.sleb128 0
 4318 107b 00       		.byte	0
 4319 107c 09       		.uleb128 0x9
 4320 107d BC000000 		.4byte	.LVL197
 4321 1081 62160000 		.4byte	0x1662
 4322 1085 07       		.uleb128 0x7
 4323 1086 C6000000 		.4byte	.LVL198
 4324 108a 6D160000 		.4byte	0x166d
 4325 108e 99100000 		.4byte	0x1099
 4326 1092 08       		.uleb128 0x8
 4327 1093 01       		.uleb128 0x1
 4328 1094 50       		.byte	0x50
 4329 1095 02       		.uleb128 0x2
 4330 1096 78       		.byte	0x78
 4331 1097 00       		.sleb128 0
 4332 1098 00       		.byte	0
 4333 1099 09       		.uleb128 0x9
 4334 109a CA000000 		.4byte	.LVL199
 4335 109e 78160000 		.4byte	0x1678
 4336 10a2 07       		.uleb128 0x7
 4337 10a3 D0000000 		.4byte	.LVL200
 4338 10a7 83160000 		.4byte	0x1683
 4339 10ab B6100000 		.4byte	0x10b6
 4340 10af 08       		.uleb128 0x8
 4341 10b0 01       		.uleb128 0x1
 4342 10b1 50       		.byte	0x50
 4343 10b2 02       		.uleb128 0x2
 4344 10b3 78       		.byte	0x78
 4345 10b4 00       		.sleb128 0
ARM GAS  C:\Users\Misha\AppData\Local\Temp\ccmv7pUT.s 			page 96


 4346 10b5 00       		.byte	0
 4347 10b6 07       		.uleb128 0x7
 4348 10b7 72030000 		.4byte	.LVL274
 4349 10bb 1D170000 		.4byte	0x171d
 4350 10bf CA100000 		.4byte	0x10ca
 4351 10c3 08       		.uleb128 0x8
 4352 10c4 01       		.uleb128 0x1
 4353 10c5 50       		.byte	0x50
 4354 10c6 02       		.uleb128 0x2
 4355 10c7 74       		.byte	0x74
 4356 10c8 00       		.sleb128 0
 4357 10c9 00       		.byte	0
 4358 10ca 07       		.uleb128 0x7
 4359 10cb 78030000 		.4byte	.LVL275
 4360 10cf BA160000 		.4byte	0x16ba
 4361 10d3 DE100000 		.4byte	0x10de
 4362 10d7 08       		.uleb128 0x8
 4363 10d8 01       		.uleb128 0x1
 4364 10d9 50       		.byte	0x50
 4365 10da 02       		.uleb128 0x2
 4366 10db 08       		.byte	0x8
 4367 10dc 32       		.byte	0x32
 4368 10dd 00       		.byte	0
 4369 10de 07       		.uleb128 0x7
 4370 10df 88030000 		.4byte	.LVL276
 4371 10e3 C5160000 		.4byte	0x16c5
 4372 10e7 FB100000 		.4byte	0x10fb
 4373 10eb 08       		.uleb128 0x8
 4374 10ec 01       		.uleb128 0x1
 4375 10ed 50       		.byte	0x50
 4376 10ee 02       		.uleb128 0x2
 4377 10ef 75       		.byte	0x75
 4378 10f0 00       		.sleb128 0
 4379 10f1 08       		.uleb128 0x8
 4380 10f2 01       		.uleb128 0x1
 4381 10f3 51       		.byte	0x51
 4382 10f4 05       		.uleb128 0x5
 4383 10f5 03       		.byte	0x3
 4384 10f6 AC000000 		.4byte	.LC10
 4385 10fa 00       		.byte	0
 4386 10fb 07       		.uleb128 0x7
 4387 10fc 8E030000 		.4byte	.LVL277
 4388 1100 D0160000 		.4byte	0x16d0
 4389 1104 0F110000 		.4byte	0x110f
 4390 1108 08       		.uleb128 0x8
 4391 1109 01       		.uleb128 0x1
 4392 110a 50       		.byte	0x50
 4393 110b 02       		.uleb128 0x2
 4394 110c 75       		.byte	0x75
 4395 110d 00       		.sleb128 0
 4396 110e 00       		.byte	0
 4397 110f 07       		.uleb128 0x7
 4398 1110 94030000 		.4byte	.LVL278
 4399 1114 DB160000 		.4byte	0x16db
 4400 1118 22110000 		.4byte	0x1122
 4401 111c 08       		.uleb128 0x8
 4402 111d 01       		.uleb128 0x1
ARM GAS  C:\Users\Misha\AppData\Local\Temp\ccmv7pUT.s 			page 97


 4403 111e 50       		.byte	0x50
 4404 111f 01       		.uleb128 0x1
 4405 1120 30       		.byte	0x30
 4406 1121 00       		.byte	0
 4407 1122 07       		.uleb128 0x7
 4408 1123 9A030000 		.4byte	.LVL279
 4409 1127 E6160000 		.4byte	0x16e6
 4410 112b 35110000 		.4byte	0x1135
 4411 112f 08       		.uleb128 0x8
 4412 1130 01       		.uleb128 0x1
 4413 1131 50       		.byte	0x50
 4414 1132 01       		.uleb128 0x1
 4415 1133 30       		.byte	0x30
 4416 1134 00       		.byte	0
 4417 1135 09       		.uleb128 0x9
 4418 1136 9E030000 		.4byte	.LVL280
 4419 113a F1160000 		.4byte	0x16f1
 4420 113e 09       		.uleb128 0x9
 4421 113f A2030000 		.4byte	.LVL281
 4422 1143 FC160000 		.4byte	0x16fc
 4423 1147 00       		.byte	0
 4424 1148 17       		.uleb128 0x17
 4425 1149 05070000 		.4byte	.LASF59
 4426 114d 01       		.byte	0x1
 4427 114e B902     		.2byte	0x2b9
 4428 1150 00000000 		.4byte	.LFB72
 4429 1154 70000000 		.4byte	.LFE72-.LFB72
 4430 1158 01       		.uleb128 0x1
 4431 1159 9C       		.byte	0x9c
 4432 115a 6D120000 		.4byte	0x126d
 4433 115e 0F       		.uleb128 0xf
 4434 115f 46050000 		.4byte	.LASF60
 4435 1163 01       		.byte	0x1
 4436 1164 BE02     		.2byte	0x2be
 4437 1166 68000000 		.4byte	0x68
 4438 116a 72080000 		.4byte	.LLST43
 4439 116e 0F       		.uleb128 0xf
 4440 116f 96000000 		.4byte	.LASF61
 4441 1173 01       		.byte	0x1
 4442 1174 BF02     		.2byte	0x2bf
 4443 1176 68000000 		.4byte	0x68
 4444 117a 90080000 		.4byte	.LLST44
 4445 117e 0F       		.uleb128 0xf
 4446 117f 6C010000 		.4byte	.LASF33
 4447 1183 01       		.byte	0x1
 4448 1184 C002     		.2byte	0x2c0
 4449 1186 68000000 		.4byte	0x68
 4450 118a C5080000 		.4byte	.LLST45
 4451 118e 0F       		.uleb128 0xf
 4452 118f 5C020000 		.4byte	.LASF62
 4453 1193 01       		.byte	0x1
 4454 1194 C102     		.2byte	0x2c1
 4455 1196 68000000 		.4byte	0x68
 4456 119a E4080000 		.4byte	.LLST46
 4457 119e 07       		.uleb128 0x7
 4458 119f 08000000 		.4byte	.LVL284
 4459 11a3 1D170000 		.4byte	0x171d
ARM GAS  C:\Users\Misha\AppData\Local\Temp\ccmv7pUT.s 			page 98


 4460 11a7 B1110000 		.4byte	0x11b1
 4461 11ab 08       		.uleb128 0x8
 4462 11ac 01       		.uleb128 0x1
 4463 11ad 50       		.byte	0x50
 4464 11ae 01       		.uleb128 0x1
 4465 11af 34       		.byte	0x34
 4466 11b0 00       		.byte	0
 4467 11b1 07       		.uleb128 0x7
 4468 11b2 0E000000 		.4byte	.LVL285
 4469 11b6 BA160000 		.4byte	0x16ba
 4470 11ba C5110000 		.4byte	0x11c5
 4471 11be 08       		.uleb128 0x8
 4472 11bf 01       		.uleb128 0x1
 4473 11c0 50       		.byte	0x50
 4474 11c1 02       		.uleb128 0x2
 4475 11c2 08       		.byte	0x8
 4476 11c3 3C       		.byte	0x3c
 4477 11c4 00       		.byte	0
 4478 11c5 09       		.uleb128 0x9
 4479 11c6 12000000 		.4byte	.LVL286
 4480 11ca 62160000 		.4byte	0x1662
 4481 11ce 09       		.uleb128 0x9
 4482 11cf 16000000 		.4byte	.LVL287
 4483 11d3 78160000 		.4byte	0x1678
 4484 11d7 07       		.uleb128 0x7
 4485 11d8 1C000000 		.4byte	.LVL288
 4486 11dc 6D160000 		.4byte	0x166d
 4487 11e0 EA110000 		.4byte	0x11ea
 4488 11e4 08       		.uleb128 0x8
 4489 11e5 01       		.uleb128 0x1
 4490 11e6 50       		.byte	0x50
 4491 11e7 01       		.uleb128 0x1
 4492 11e8 49       		.byte	0x49
 4493 11e9 00       		.byte	0
 4494 11ea 07       		.uleb128 0x7
 4495 11eb 22000000 		.4byte	.LVL289
 4496 11ef 83160000 		.4byte	0x1683
 4497 11f3 FD110000 		.4byte	0x11fd
 4498 11f7 08       		.uleb128 0x8
 4499 11f8 01       		.uleb128 0x1
 4500 11f9 50       		.byte	0x50
 4501 11fa 01       		.uleb128 0x1
 4502 11fb 49       		.byte	0x49
 4503 11fc 00       		.byte	0
 4504 11fd 07       		.uleb128 0x7
 4505 11fe 38000000 		.4byte	.LVL293
 4506 1202 4C160000 		.4byte	0x164c
 4507 1206 10120000 		.4byte	0x1210
 4508 120a 08       		.uleb128 0x8
 4509 120b 01       		.uleb128 0x1
 4510 120c 50       		.byte	0x50
 4511 120d 01       		.uleb128 0x1
 4512 120e 30       		.byte	0x30
 4513 120f 00       		.byte	0
 4514 1210 07       		.uleb128 0x7
 4515 1211 3E000000 		.4byte	.LVL294
 4516 1215 57160000 		.4byte	0x1657
ARM GAS  C:\Users\Misha\AppData\Local\Temp\ccmv7pUT.s 			page 99


 4517 1219 23120000 		.4byte	0x1223
 4518 121d 08       		.uleb128 0x8
 4519 121e 01       		.uleb128 0x1
 4520 121f 50       		.byte	0x50
 4521 1220 01       		.uleb128 0x1
 4522 1221 31       		.byte	0x31
 4523 1222 00       		.byte	0
 4524 1223 07       		.uleb128 0x7
 4525 1224 46000000 		.4byte	.LVL295
 4526 1228 4C160000 		.4byte	0x164c
 4527 122c 36120000 		.4byte	0x1236
 4528 1230 08       		.uleb128 0x8
 4529 1231 01       		.uleb128 0x1
 4530 1232 50       		.byte	0x50
 4531 1233 01       		.uleb128 0x1
 4532 1234 31       		.byte	0x31
 4533 1235 00       		.byte	0
 4534 1236 07       		.uleb128 0x7
 4535 1237 4C000000 		.4byte	.LVL296
 4536 123b 57160000 		.4byte	0x1657
 4537 123f 49120000 		.4byte	0x1249
 4538 1243 08       		.uleb128 0x8
 4539 1244 01       		.uleb128 0x1
 4540 1245 50       		.byte	0x50
 4541 1246 01       		.uleb128 0x1
 4542 1247 30       		.byte	0x30
 4543 1248 00       		.byte	0
 4544 1249 07       		.uleb128 0x7
 4545 124a 54000000 		.4byte	.LVL298
 4546 124e 1D170000 		.4byte	0x171d
 4547 1252 5C120000 		.4byte	0x125c
 4548 1256 08       		.uleb128 0x8
 4549 1257 01       		.uleb128 0x1
 4550 1258 50       		.byte	0x50
 4551 1259 01       		.uleb128 0x1
 4552 125a 34       		.byte	0x34
 4553 125b 00       		.byte	0
 4554 125c 0A       		.uleb128 0xa
 4555 125d 5A000000 		.4byte	.LVL299
 4556 1261 BA160000 		.4byte	0x16ba
 4557 1265 08       		.uleb128 0x8
 4558 1266 01       		.uleb128 0x1
 4559 1267 50       		.byte	0x50
 4560 1268 02       		.uleb128 0x2
 4561 1269 08       		.byte	0x8
 4562 126a 3C       		.byte	0x3c
 4563 126b 00       		.byte	0
 4564 126c 00       		.byte	0
 4565 126d 0D       		.uleb128 0xd
 4566 126e D0030000 		.4byte	.LASF63
 4567 1272 01       		.byte	0x1
 4568 1273 E802     		.2byte	0x2e8
 4569 1275 00000000 		.4byte	.LFB73
 4570 1279 64000000 		.4byte	.LFE73-.LFB73
 4571 127d 01       		.uleb128 0x1
 4572 127e 9C       		.byte	0x9c
 4573 127f 77130000 		.4byte	0x1377
ARM GAS  C:\Users\Misha\AppData\Local\Temp\ccmv7pUT.s 			page 100


 4574 1283 13       		.uleb128 0x13
 4575 1284 8C000000 		.4byte	.LASF43
 4576 1288 01       		.byte	0x1
 4577 1289 EC02     		.2byte	0x2ec
 4578 128b 68000000 		.4byte	0x68
 4579 128f 64       		.byte	0x64
 4580 1290 07       		.uleb128 0x7
 4581 1291 08000000 		.4byte	.LVL303
 4582 1295 1D170000 		.4byte	0x171d
 4583 1299 A3120000 		.4byte	0x12a3
 4584 129d 08       		.uleb128 0x8
 4585 129e 01       		.uleb128 0x1
 4586 129f 50       		.byte	0x50
 4587 12a0 01       		.uleb128 0x1
 4588 12a1 30       		.byte	0x30
 4589 12a2 00       		.byte	0
 4590 12a3 07       		.uleb128 0x7
 4591 12a4 0E000000 		.4byte	.LVL304
 4592 12a8 BA160000 		.4byte	0x16ba
 4593 12ac B7120000 		.4byte	0x12b7
 4594 12b0 08       		.uleb128 0x8
 4595 12b1 01       		.uleb128 0x1
 4596 12b2 50       		.byte	0x50
 4597 12b3 02       		.uleb128 0x2
 4598 12b4 08       		.byte	0x8
 4599 12b5 3C       		.byte	0x3c
 4600 12b6 00       		.byte	0
 4601 12b7 07       		.uleb128 0x7
 4602 12b8 14000000 		.4byte	.LVL305
 4603 12bc 1D170000 		.4byte	0x171d
 4604 12c0 CA120000 		.4byte	0x12ca
 4605 12c4 08       		.uleb128 0x8
 4606 12c5 01       		.uleb128 0x1
 4607 12c6 50       		.byte	0x50
 4608 12c7 01       		.uleb128 0x1
 4609 12c8 30       		.byte	0x30
 4610 12c9 00       		.byte	0
 4611 12ca 07       		.uleb128 0x7
 4612 12cb 1A000000 		.4byte	.LVL306
 4613 12cf BA160000 		.4byte	0x16ba
 4614 12d3 DE120000 		.4byte	0x12de
 4615 12d7 08       		.uleb128 0x8
 4616 12d8 01       		.uleb128 0x1
 4617 12d9 50       		.byte	0x50
 4618 12da 02       		.uleb128 0x2
 4619 12db 08       		.byte	0x8
 4620 12dc 3C       		.byte	0x3c
 4621 12dd 00       		.byte	0
 4622 12de 07       		.uleb128 0x7
 4623 12df 20000000 		.4byte	.LVL307
 4624 12e3 1D170000 		.4byte	0x171d
 4625 12e7 F1120000 		.4byte	0x12f1
 4626 12eb 08       		.uleb128 0x8
 4627 12ec 01       		.uleb128 0x1
 4628 12ed 50       		.byte	0x50
 4629 12ee 01       		.uleb128 0x1
 4630 12ef 34       		.byte	0x34
ARM GAS  C:\Users\Misha\AppData\Local\Temp\ccmv7pUT.s 			page 101


 4631 12f0 00       		.byte	0
 4632 12f1 07       		.uleb128 0x7
 4633 12f2 26000000 		.4byte	.LVL308
 4634 12f6 BA160000 		.4byte	0x16ba
 4635 12fa 05130000 		.4byte	0x1305
 4636 12fe 08       		.uleb128 0x8
 4637 12ff 01       		.uleb128 0x1
 4638 1300 50       		.byte	0x50
 4639 1301 02       		.uleb128 0x2
 4640 1302 08       		.byte	0x8
 4641 1303 3C       		.byte	0x3c
 4642 1304 00       		.byte	0
 4643 1305 07       		.uleb128 0x7
 4644 1306 2E000000 		.4byte	.LVL309
 4645 130a 1D170000 		.4byte	0x171d
 4646 130e 18130000 		.4byte	0x1318
 4647 1312 08       		.uleb128 0x8
 4648 1313 01       		.uleb128 0x1
 4649 1314 50       		.byte	0x50
 4650 1315 01       		.uleb128 0x1
 4651 1316 30       		.byte	0x30
 4652 1317 00       		.byte	0
 4653 1318 07       		.uleb128 0x7
 4654 1319 34000000 		.4byte	.LVL310
 4655 131d BA160000 		.4byte	0x16ba
 4656 1321 2C130000 		.4byte	0x132c
 4657 1325 08       		.uleb128 0x8
 4658 1326 01       		.uleb128 0x1
 4659 1327 50       		.byte	0x50
 4660 1328 02       		.uleb128 0x2
 4661 1329 08       		.byte	0x8
 4662 132a 3C       		.byte	0x3c
 4663 132b 00       		.byte	0
 4664 132c 07       		.uleb128 0x7
 4665 132d 3A000000 		.4byte	.LVL311
 4666 1331 1D170000 		.4byte	0x171d
 4667 1335 3F130000 		.4byte	0x133f
 4668 1339 08       		.uleb128 0x8
 4669 133a 01       		.uleb128 0x1
 4670 133b 50       		.byte	0x50
 4671 133c 01       		.uleb128 0x1
 4672 133d 30       		.byte	0x30
 4673 133e 00       		.byte	0
 4674 133f 07       		.uleb128 0x7
 4675 1340 40000000 		.4byte	.LVL312
 4676 1344 BA160000 		.4byte	0x16ba
 4677 1348 53130000 		.4byte	0x1353
 4678 134c 08       		.uleb128 0x8
 4679 134d 01       		.uleb128 0x1
 4680 134e 50       		.byte	0x50
 4681 134f 02       		.uleb128 0x2
 4682 1350 08       		.byte	0x8
 4683 1351 3C       		.byte	0x3c
 4684 1352 00       		.byte	0
 4685 1353 07       		.uleb128 0x7
 4686 1354 46000000 		.4byte	.LVL313
 4687 1358 1D170000 		.4byte	0x171d
ARM GAS  C:\Users\Misha\AppData\Local\Temp\ccmv7pUT.s 			page 102


 4688 135c 66130000 		.4byte	0x1366
 4689 1360 08       		.uleb128 0x8
 4690 1361 01       		.uleb128 0x1
 4691 1362 50       		.byte	0x50
 4692 1363 01       		.uleb128 0x1
 4693 1364 34       		.byte	0x34
 4694 1365 00       		.byte	0
 4695 1366 0A       		.uleb128 0xa
 4696 1367 4C000000 		.4byte	.LVL314
 4697 136b BA160000 		.4byte	0x16ba
 4698 136f 08       		.uleb128 0x8
 4699 1370 01       		.uleb128 0x1
 4700 1371 50       		.byte	0x50
 4701 1372 02       		.uleb128 0x2
 4702 1373 08       		.byte	0x8
 4703 1374 3C       		.byte	0x3c
 4704 1375 00       		.byte	0
 4705 1376 00       		.byte	0
 4706 1377 18       		.uleb128 0x18
 4707 1378 A9050000 		.4byte	.LASF118
 4708 137c 01       		.byte	0x1
 4709 137d 0903     		.2byte	0x309
 4710 137f 00000000 		.4byte	.LFB74
 4711 1383 02000000 		.4byte	.LFE74-.LFB74
 4712 1387 01       		.uleb128 0x1
 4713 1388 9C       		.byte	0x9c
 4714 1389 0D       		.uleb128 0xd
 4715 138a 6D020000 		.4byte	.LASF64
 4716 138e 01       		.byte	0x1
 4717 138f 1203     		.2byte	0x312
 4718 1391 00000000 		.4byte	.LFB75
 4719 1395 02000000 		.4byte	.LFE75-.LFB75
 4720 1399 01       		.uleb128 0x1
 4721 139a 9C       		.byte	0x9c
 4722 139b C7130000 		.4byte	0x13c7
 4723 139f 13       		.uleb128 0x13
 4724 13a0 92040000 		.4byte	.LASF65
 4725 13a4 01       		.byte	0x1
 4726 13a5 1603     		.2byte	0x316
 4727 13a7 68000000 		.4byte	0x68
 4728 13ab 00       		.byte	0
 4729 13ac 13       		.uleb128 0x13
 4730 13ad A7030000 		.4byte	.LASF66
 4731 13b1 01       		.byte	0x1
 4732 13b2 1803     		.2byte	0x318
 4733 13b4 68000000 		.4byte	0x68
 4734 13b8 00       		.byte	0
 4735 13b9 13       		.uleb128 0x13
 4736 13ba 82010000 		.4byte	.LASF37
 4737 13be 01       		.byte	0x1
 4738 13bf 1B03     		.2byte	0x31b
 4739 13c1 68000000 		.4byte	0x68
 4740 13c5 00       		.byte	0
 4741 13c6 00       		.byte	0
 4742 13c7 17       		.uleb128 0x17
 4743 13c8 25080000 		.4byte	.LASF67
 4744 13cc 01       		.byte	0x1
ARM GAS  C:\Users\Misha\AppData\Local\Temp\ccmv7pUT.s 			page 103


 4745 13cd 5A03     		.2byte	0x35a
 4746 13cf 00000000 		.4byte	.LFB76
 4747 13d3 5C000000 		.4byte	.LFE76-.LFB76
 4748 13d7 01       		.uleb128 0x1
 4749 13d8 9C       		.byte	0x9c
 4750 13d9 9F140000 		.4byte	0x149f
 4751 13dd 0E       		.uleb128 0xe
 4752 13de 18020000 		.4byte	.LASF68
 4753 13e2 01       		.byte	0x1
 4754 13e3 5A03     		.2byte	0x35a
 4755 13e5 68000000 		.4byte	0x68
 4756 13e9 F7080000 		.4byte	.LLST47
 4757 13ed 0F       		.uleb128 0xf
 4758 13ee CD050000 		.4byte	.LASF69
 4759 13f2 01       		.byte	0x1
 4760 13f3 5E03     		.2byte	0x35e
 4761 13f5 68000000 		.4byte	0x68
 4762 13f9 15090000 		.4byte	.LLST48
 4763 13fd 0F       		.uleb128 0xf
 4764 13fe 58010000 		.4byte	.LASF70
 4765 1402 01       		.byte	0x1
 4766 1403 5F03     		.2byte	0x35f
 4767 1405 68000000 		.4byte	0x68
 4768 1409 33090000 		.4byte	.LLST49
 4769 140d 07       		.uleb128 0x7
 4770 140e 0E000000 		.4byte	.LVL318
 4771 1412 12170000 		.4byte	0x1712
 4772 1416 2B140000 		.4byte	0x142b
 4773 141a 08       		.uleb128 0x8
 4774 141b 01       		.uleb128 0x1
 4775 141c 50       		.byte	0x50
 4776 141d 01       		.uleb128 0x1
 4777 141e 44       		.byte	0x44
 4778 141f 08       		.uleb128 0x8
 4779 1420 01       		.uleb128 0x1
 4780 1421 51       		.byte	0x51
 4781 1422 02       		.uleb128 0x2
 4782 1423 08       		.byte	0x8
 4783 1424 46       		.byte	0x46
 4784 1425 08       		.uleb128 0x8
 4785 1426 01       		.uleb128 0x1
 4786 1427 52       		.byte	0x52
 4787 1428 01       		.uleb128 0x1
 4788 1429 30       		.byte	0x30
 4789 142a 00       		.byte	0
 4790 142b 07       		.uleb128 0x7
 4791 142c 14000000 		.4byte	.LVL319
 4792 1430 1D170000 		.4byte	0x171d
 4793 1434 3F140000 		.4byte	0x143f
 4794 1438 08       		.uleb128 0x8
 4795 1439 01       		.uleb128 0x1
 4796 143a 50       		.byte	0x50
 4797 143b 02       		.uleb128 0x2
 4798 143c 75       		.byte	0x75
 4799 143d 00       		.sleb128 0
 4800 143e 00       		.byte	0
 4801 143f 07       		.uleb128 0x7
ARM GAS  C:\Users\Misha\AppData\Local\Temp\ccmv7pUT.s 			page 104


 4802 1440 22000000 		.4byte	.LVL322
 4803 1444 1D170000 		.4byte	0x171d
 4804 1448 53140000 		.4byte	0x1453
 4805 144c 08       		.uleb128 0x8
 4806 144d 01       		.uleb128 0x1
 4807 144e 50       		.byte	0x50
 4808 144f 02       		.uleb128 0x2
 4809 1450 75       		.byte	0x75
 4810 1451 00       		.sleb128 0
 4811 1452 00       		.byte	0
 4812 1453 07       		.uleb128 0x7
 4813 1454 28000000 		.4byte	.LVL323
 4814 1458 BA160000 		.4byte	0x16ba
 4815 145c 67140000 		.4byte	0x1467
 4816 1460 08       		.uleb128 0x8
 4817 1461 01       		.uleb128 0x1
 4818 1462 50       		.byte	0x50
 4819 1463 02       		.uleb128 0x2
 4820 1464 08       		.byte	0x8
 4821 1465 64       		.byte	0x64
 4822 1466 00       		.byte	0
 4823 1467 07       		.uleb128 0x7
 4824 1468 48000000 		.4byte	.LVL327
 4825 146c 12170000 		.4byte	0x1712
 4826 1470 84140000 		.4byte	0x1484
 4827 1474 08       		.uleb128 0x8
 4828 1475 01       		.uleb128 0x1
 4829 1476 50       		.byte	0x50
 4830 1477 01       		.uleb128 0x1
 4831 1478 33       		.byte	0x33
 4832 1479 08       		.uleb128 0x8
 4833 147a 01       		.uleb128 0x1
 4834 147b 51       		.byte	0x51
 4835 147c 01       		.uleb128 0x1
 4836 147d 49       		.byte	0x49
 4837 147e 08       		.uleb128 0x8
 4838 147f 01       		.uleb128 0x1
 4839 1480 52       		.byte	0x52
 4840 1481 01       		.uleb128 0x1
 4841 1482 30       		.byte	0x30
 4842 1483 00       		.byte	0
 4843 1484 0A       		.uleb128 0xa
 4844 1485 54000000 		.4byte	.LVL328
 4845 1489 12170000 		.4byte	0x1712
 4846 148d 08       		.uleb128 0x8
 4847 148e 01       		.uleb128 0x1
 4848 148f 50       		.byte	0x50
 4849 1490 02       		.uleb128 0x2
 4850 1491 09       		.byte	0x9
 4851 1492 FF       		.byte	0xff
 4852 1493 08       		.uleb128 0x8
 4853 1494 01       		.uleb128 0x1
 4854 1495 51       		.byte	0x51
 4855 1496 01       		.uleb128 0x1
 4856 1497 49       		.byte	0x49
 4857 1498 08       		.uleb128 0x8
 4858 1499 01       		.uleb128 0x1
ARM GAS  C:\Users\Misha\AppData\Local\Temp\ccmv7pUT.s 			page 105


 4859 149a 52       		.byte	0x52
 4860 149b 01       		.uleb128 0x1
 4861 149c 30       		.byte	0x30
 4862 149d 00       		.byte	0
 4863 149e 00       		.byte	0
 4864 149f 19       		.uleb128 0x19
 4865 14a0 18070000 		.4byte	.LASF71
 4866 14a4 04       		.byte	0x4
 4867 14a5 1207     		.2byte	0x712
 4868 14a7 AB140000 		.4byte	0x14ab
 4869 14ab 1A       		.uleb128 0x1a
 4870 14ac 76000000 		.4byte	0x76
 4871 14b0 1B       		.uleb128 0x1b
 4872 14b1 E6020000 		.4byte	.LASF72
 4873 14b5 05       		.byte	0x5
 4874 14b6 1F       		.byte	0x1f
 4875 14b7 68000000 		.4byte	0x68
 4876 14bb 05       		.uleb128 0x5
 4877 14bc 03       		.byte	0x3
 4878 14bd 00000000 		.4byte	internal_orientation
 4879 14c1 1B       		.uleb128 0x1b
 4880 14c2 61050000 		.4byte	.LASF73
 4881 14c6 06       		.byte	0x6
 4882 14c7 1D       		.byte	0x1d
 4883 14c8 68000000 		.4byte	0x68
 4884 14cc 05       		.uleb128 0x5
 4885 14cd 03       		.byte	0x3
 4886 14ce 00000000 		.4byte	driveStraightEnable
 4887 14d2 1B       		.uleb128 0x1b
 4888 14d3 8A030000 		.4byte	.LASF74
 4889 14d7 06       		.byte	0x6
 4890 14d8 1F       		.byte	0x1f
 4891 14d9 68000000 		.4byte	0x68
 4892 14dd 05       		.uleb128 0x5
 4893 14de 03       		.byte	0x3
 4894 14df 00000000 		.4byte	currentPuckRackScanningIndex
 4895 14e3 1C       		.uleb128 0x1c
 4896 14e4 68000000 		.4byte	0x68
 4897 14e8 F3140000 		.4byte	0x14f3
 4898 14ec 1D       		.uleb128 0x1d
 4899 14ed 9D000000 		.4byte	0x9d
 4900 14f1 04       		.byte	0x4
 4901 14f2 00       		.byte	0
 4902 14f3 1B       		.uleb128 0x1b
 4903 14f4 49060000 		.4byte	.LASF75
 4904 14f8 06       		.byte	0x6
 4905 14f9 20       		.byte	0x20
 4906 14fa E3140000 		.4byte	0x14e3
 4907 14fe 05       		.uleb128 0x5
 4908 14ff 03       		.byte	0x3
 4909 1500 00000000 		.4byte	puckRackColours
 4910 1504 1B       		.uleb128 0x1b
 4911 1505 E2010000 		.4byte	.LASF76
 4912 1509 06       		.byte	0x6
 4913 150a 21       		.byte	0x21
 4914 150b E3140000 		.4byte	0x14e3
 4915 150f 05       		.uleb128 0x5
ARM GAS  C:\Users\Misha\AppData\Local\Temp\ccmv7pUT.s 			page 106


 4916 1510 03       		.byte	0x3
 4917 1511 00000000 		.4byte	puckRackOffsetsFromWest
 4918 1515 1B       		.uleb128 0x1b
 4919 1516 F0040000 		.4byte	.LASF77
 4920 151a 06       		.byte	0x6
 4921 151b 22       		.byte	0x22
 4922 151c 68000000 		.4byte	0x68
 4923 1520 05       		.uleb128 0x5
 4924 1521 03       		.byte	0x3
 4925 1522 00000000 		.4byte	sweeping
 4926 1526 1C       		.uleb128 0x1c
 4927 1527 81000000 		.4byte	0x81
 4928 152b 36150000 		.4byte	0x1536
 4929 152f 1D       		.uleb128 0x1d
 4930 1530 9D000000 		.4byte	0x9d
 4931 1534 03       		.byte	0x3
 4932 1535 00       		.byte	0
 4933 1536 1B       		.uleb128 0x1b
 4934 1537 46040000 		.4byte	.LASF78
 4935 153b 06       		.byte	0x6
 4936 153c 23       		.byte	0x23
 4937 153d 26150000 		.4byte	0x1526
 4938 1541 05       		.uleb128 0x5
 4939 1542 03       		.byte	0x3
 4940 1543 00000000 		.4byte	block_edge_location
 4941 1547 1B       		.uleb128 0x1b
 4942 1548 51030000 		.4byte	.LASF79
 4943 154c 07       		.byte	0x7
 4944 154d BD       		.byte	0xbd
 4945 154e 81000000 		.4byte	0x81
 4946 1552 05       		.uleb128 0x5
 4947 1553 03       		.byte	0x3
 4948 1554 00000000 		.4byte	puckPileLocation
 4949 1558 1B       		.uleb128 0x1b
 4950 1559 26010000 		.4byte	.LASF80
 4951 155d 06       		.byte	0x6
 4952 155e 25       		.byte	0x25
 4953 155f 33000000 		.4byte	0x33
 4954 1563 05       		.uleb128 0x5
 4955 1564 03       		.byte	0x3
 4956 1565 00000000 		.4byte	drivingForwardFlag
 4957 1569 1B       		.uleb128 0x1b
 4958 156a 1E030000 		.4byte	.LASF81
 4959 156e 06       		.byte	0x6
 4960 156f 26       		.byte	0x26
 4961 1570 33000000 		.4byte	0x33
 4962 1574 05       		.uleb128 0x5
 4963 1575 03       		.byte	0x3
 4964 1576 00000000 		.4byte	drivingBackwardFlag
 4965 157a 1B       		.uleb128 0x1b
 4966 157b C7000000 		.4byte	.LASF82
 4967 157f 06       		.byte	0x6
 4968 1580 27       		.byte	0x27
 4969 1581 33000000 		.4byte	0x33
 4970 1585 05       		.uleb128 0x5
 4971 1586 03       		.byte	0x3
 4972 1587 00000000 		.4byte	turningLeftFlag
ARM GAS  C:\Users\Misha\AppData\Local\Temp\ccmv7pUT.s 			page 107


 4973 158b 1B       		.uleb128 0x1b
 4974 158c 92020000 		.4byte	.LASF83
 4975 1590 06       		.byte	0x6
 4976 1591 28       		.byte	0x28
 4977 1592 33000000 		.4byte	0x33
 4978 1596 05       		.uleb128 0x5
 4979 1597 03       		.byte	0x3
 4980 1598 00000000 		.4byte	turningRightFlag
 4981 159c 1B       		.uleb128 0x1b
 4982 159d DE070000 		.4byte	.LASF84
 4983 15a1 06       		.byte	0x6
 4984 15a2 2B       		.byte	0x2b
 4985 15a3 68000000 		.4byte	0x68
 4986 15a7 05       		.uleb128 0x5
 4987 15a8 03       		.byte	0x3
 4988 15a9 00000000 		.4byte	initialisation
 4989 15ad 1C       		.uleb128 0x1c
 4990 15ae 8F000000 		.4byte	0x8f
 4991 15b2 BD150000 		.4byte	0x15bd
 4992 15b6 1D       		.uleb128 0x1d
 4993 15b7 9D000000 		.4byte	0x9d
 4994 15bb 1F       		.byte	0x1f
 4995 15bc 00       		.byte	0
 4996 15bd 1B       		.uleb128 0x1b
 4997 15be CD060000 		.4byte	.LASF85
 4998 15c2 06       		.byte	0x6
 4999 15c3 29       		.byte	0x29
 5000 15c4 AD150000 		.4byte	0x15ad
 5001 15c8 05       		.uleb128 0x5
 5002 15c9 03       		.byte	0x3
 5003 15ca 00000000 		.4byte	output
 5004 15ce 1C       		.uleb128 0x1c
 5005 15cf 68000000 		.4byte	0x68
 5006 15d3 DE150000 		.4byte	0x15de
 5007 15d7 1D       		.uleb128 0x1d
 5008 15d8 9D000000 		.4byte	0x9d
 5009 15dc 05       		.byte	0x5
 5010 15dd 00       		.byte	0
 5011 15de 1E       		.uleb128 0x1e
 5012 15df A1010000 		.4byte	.LASF86
 5013 15e3 07       		.byte	0x7
 5014 15e4 CE       		.byte	0xce
 5015 15e5 CE150000 		.4byte	0x15ce
 5016 15e9 1B       		.uleb128 0x1b
 5017 15ea B9010000 		.4byte	.LASF87
 5018 15ee 06       		.byte	0x6
 5019 15ef 2D       		.byte	0x2d
 5020 15f0 68000000 		.4byte	0x68
 5021 15f4 05       		.uleb128 0x5
 5022 15f5 03       		.byte	0x3
 5023 15f6 00000000 		.4byte	ultrasonic_flag
 5024 15fa 1C       		.uleb128 0x1c
 5025 15fb 68000000 		.4byte	0x68
 5026 15ff 0A160000 		.4byte	0x160a
 5027 1603 1D       		.uleb128 0x1d
 5028 1604 9D000000 		.4byte	0x9d
 5029 1608 02       		.byte	0x2
ARM GAS  C:\Users\Misha\AppData\Local\Temp\ccmv7pUT.s 			page 108


 5030 1609 00       		.byte	0
 5031 160a 1E       		.uleb128 0x1e
 5032 160b D7000000 		.4byte	.LASF88
 5033 160f 05       		.byte	0x5
 5034 1610 1C       		.byte	0x1c
 5035 1611 FA150000 		.4byte	0x15fa
 5036 1615 1E       		.uleb128 0x1e
 5037 1616 AC040000 		.4byte	.LASF89
 5038 161a 05       		.byte	0x5
 5039 161b 1D       		.byte	0x1d
 5040 161c 68000000 		.4byte	0x68
 5041 1620 1E       		.uleb128 0x1e
 5042 1621 2D050000 		.4byte	.LASF90
 5043 1625 05       		.byte	0x5
 5044 1626 1E       		.byte	0x1e
 5045 1627 68000000 		.4byte	0x68
 5046 162b 1E       		.uleb128 0x1e
 5047 162c 0E030000 		.4byte	.LASF91
 5048 1630 05       		.byte	0x5
 5049 1631 20       		.byte	0x20
 5050 1632 68000000 		.4byte	0x68
 5051 1636 1F       		.uleb128 0x1f
 5052 1637 D4060000 		.4byte	.LASF92
 5053 163b D4060000 		.4byte	.LASF92
 5054 163f 08       		.byte	0x8
 5055 1640 0F       		.byte	0xf
 5056 1641 1F       		.uleb128 0x1f
 5057 1642 B3000000 		.4byte	.LASF93
 5058 1646 B3000000 		.4byte	.LASF93
 5059 164a 09       		.byte	0x9
 5060 164b 1D       		.byte	0x1d
 5061 164c 1F       		.uleb128 0x1f
 5062 164d EB050000 		.4byte	.LASF94
 5063 1651 EB050000 		.4byte	.LASF94
 5064 1655 0A       		.byte	0xa
 5065 1656 2F       		.byte	0x2f
 5066 1657 1F       		.uleb128 0x1f
 5067 1658 42020000 		.4byte	.LASF95
 5068 165c 42020000 		.4byte	.LASF95
 5069 1660 0B       		.byte	0xb
 5070 1661 2F       		.byte	0x2f
 5071 1662 1F       		.uleb128 0x1f
 5072 1663 0C080000 		.4byte	.LASF96
 5073 1667 0C080000 		.4byte	.LASF96
 5074 166b 0C       		.byte	0xc
 5075 166c DD       		.byte	0xdd
 5076 166d 1F       		.uleb128 0x1f
 5077 166e ED070000 		.4byte	.LASF97
 5078 1672 ED070000 		.4byte	.LASF97
 5079 1676 0C       		.byte	0xc
 5080 1677 C3       		.byte	0xc3
 5081 1678 1F       		.uleb128 0x1f
 5082 1679 B6030000 		.4byte	.LASF98
 5083 167d B6030000 		.4byte	.LASF98
 5084 1681 0D       		.byte	0xd
 5085 1682 DD       		.byte	0xdd
 5086 1683 1F       		.uleb128 0x1f
ARM GAS  C:\Users\Misha\AppData\Local\Temp\ccmv7pUT.s 			page 109


 5087 1684 6C000000 		.4byte	.LASF99
 5088 1688 6C000000 		.4byte	.LASF99
 5089 168c 0D       		.byte	0xd
 5090 168d C3       		.byte	0xc3
 5091 168e 1F       		.uleb128 0x1f
 5092 168f 00000000 		.4byte	.LASF100
 5093 1693 00000000 		.4byte	.LASF100
 5094 1697 08       		.byte	0x8
 5095 1698 10       		.byte	0x10
 5096 1699 1F       		.uleb128 0x1f
 5097 169a 71030000 		.4byte	.LASF101
 5098 169e 71030000 		.4byte	.LASF101
 5099 16a2 0E       		.byte	0xe
 5100 16a3 2F       		.byte	0x2f
 5101 16a4 1F       		.uleb128 0x1f
 5102 16a5 EC000000 		.4byte	.LASF102
 5103 16a9 EC000000 		.4byte	.LASF102
 5104 16ad 0F       		.byte	0xf
 5105 16ae 4E       		.byte	0x4e
 5106 16af 1F       		.uleb128 0x1f
 5107 16b0 E7060000 		.4byte	.LASF103
 5108 16b4 E7060000 		.4byte	.LASF103
 5109 16b8 10       		.byte	0x10
 5110 16b9 4E       		.byte	0x4e
 5111 16ba 1F       		.uleb128 0x1f
 5112 16bb B3070000 		.4byte	.LASF104
 5113 16bf B3070000 		.4byte	.LASF104
 5114 16c3 11       		.byte	0x11
 5115 16c4 76       		.byte	0x76
 5116 16c5 1F       		.uleb128 0x1f
 5117 16c6 13040000 		.4byte	.LASF105
 5118 16ca 13040000 		.4byte	.LASF105
 5119 16ce 12       		.byte	0x12
 5120 16cf E7       		.byte	0xe7
 5121 16d0 1F       		.uleb128 0x1f
 5122 16d1 BC050000 		.4byte	.LASF106
 5123 16d5 BC050000 		.4byte	.LASF106
 5124 16d9 13       		.byte	0x13
 5125 16da 8B       		.byte	0x8b
 5126 16db 1F       		.uleb128 0x1f
 5127 16dc FA010000 		.4byte	.LASF107
 5128 16e0 FA010000 		.4byte	.LASF107
 5129 16e4 10       		.byte	0x10
 5130 16e5 4F       		.byte	0x4f
 5131 16e6 1F       		.uleb128 0x1f
 5132 16e7 32030000 		.4byte	.LASF108
 5133 16eb 32030000 		.4byte	.LASF108
 5134 16ef 0F       		.byte	0xf
 5135 16f0 4F       		.byte	0x4f
 5136 16f1 1F       		.uleb128 0x1f
 5137 16f2 DF030000 		.4byte	.LASF109
 5138 16f6 DF030000 		.4byte	.LASF109
 5139 16fa 0C       		.byte	0xc
 5140 16fb DC       		.byte	0xdc
 5141 16fc 1F       		.uleb128 0x1f
 5142 16fd C4020000 		.4byte	.LASF110
 5143 1701 C4020000 		.4byte	.LASF110
ARM GAS  C:\Users\Misha\AppData\Local\Temp\ccmv7pUT.s 			page 110


 5144 1705 0D       		.byte	0xd
 5145 1706 DC       		.byte	0xdc
 5146 1707 1F       		.uleb128 0x1f
 5147 1708 8B050000 		.4byte	.LASF111
 5148 170c 8B050000 		.4byte	.LASF111
 5149 1710 14       		.byte	0x14
 5150 1711 0E       		.byte	0xe
 5151 1712 1F       		.uleb128 0x1f
 5152 1713 D3070000 		.4byte	.LASF112
 5153 1717 D3070000 		.4byte	.LASF112
 5154 171b 14       		.byte	0x14
 5155 171c 10       		.byte	0x10
 5156 171d 1F       		.uleb128 0x1f
 5157 171e 1F020000 		.4byte	.LASF113
 5158 1722 1F020000 		.4byte	.LASF113
 5159 1726 06       		.byte	0x6
 5160 1727 16       		.byte	0x16
 5161 1728 1F       		.uleb128 0x1f
 5162 1729 1B040000 		.4byte	.LASF114
 5163 172d 1B040000 		.4byte	.LASF114
 5164 1731 14       		.byte	0x14
 5165 1732 0F       		.byte	0xf
 5166 1733 00       		.byte	0
 5167              		.section	.debug_abbrev,"",%progbits
 5168              	.Ldebug_abbrev0:
 5169 0000 01       		.uleb128 0x1
 5170 0001 11       		.uleb128 0x11
 5171 0002 01       		.byte	0x1
 5172 0003 25       		.uleb128 0x25
 5173 0004 0E       		.uleb128 0xe
 5174 0005 13       		.uleb128 0x13
 5175 0006 0B       		.uleb128 0xb
 5176 0007 03       		.uleb128 0x3
 5177 0008 0E       		.uleb128 0xe
 5178 0009 1B       		.uleb128 0x1b
 5179 000a 0E       		.uleb128 0xe
 5180 000b 55       		.uleb128 0x55
 5181 000c 17       		.uleb128 0x17
 5182 000d 11       		.uleb128 0x11
 5183 000e 01       		.uleb128 0x1
 5184 000f 10       		.uleb128 0x10
 5185 0010 17       		.uleb128 0x17
 5186 0011 00       		.byte	0
 5187 0012 00       		.byte	0
 5188 0013 02       		.uleb128 0x2
 5189 0014 24       		.uleb128 0x24
 5190 0015 00       		.byte	0
 5191 0016 0B       		.uleb128 0xb
 5192 0017 0B       		.uleb128 0xb
 5193 0018 3E       		.uleb128 0x3e
 5194 0019 0B       		.uleb128 0xb
 5195 001a 03       		.uleb128 0x3
 5196 001b 0E       		.uleb128 0xe
 5197 001c 00       		.byte	0
 5198 001d 00       		.byte	0
 5199 001e 03       		.uleb128 0x3
 5200 001f 16       		.uleb128 0x16
ARM GAS  C:\Users\Misha\AppData\Local\Temp\ccmv7pUT.s 			page 111


 5201 0020 00       		.byte	0
 5202 0021 03       		.uleb128 0x3
 5203 0022 0E       		.uleb128 0xe
 5204 0023 3A       		.uleb128 0x3a
 5205 0024 0B       		.uleb128 0xb
 5206 0025 3B       		.uleb128 0x3b
 5207 0026 0B       		.uleb128 0xb
 5208 0027 49       		.uleb128 0x49
 5209 0028 13       		.uleb128 0x13
 5210 0029 00       		.byte	0
 5211 002a 00       		.byte	0
 5212 002b 04       		.uleb128 0x4
 5213 002c 24       		.uleb128 0x24
 5214 002d 00       		.byte	0
 5215 002e 0B       		.uleb128 0xb
 5216 002f 0B       		.uleb128 0xb
 5217 0030 3E       		.uleb128 0x3e
 5218 0031 0B       		.uleb128 0xb
 5219 0032 03       		.uleb128 0x3
 5220 0033 08       		.uleb128 0x8
 5221 0034 00       		.byte	0
 5222 0035 00       		.byte	0
 5223 0036 05       		.uleb128 0x5
 5224 0037 2E       		.uleb128 0x2e
 5225 0038 01       		.byte	0x1
 5226 0039 3F       		.uleb128 0x3f
 5227 003a 19       		.uleb128 0x19
 5228 003b 03       		.uleb128 0x3
 5229 003c 0E       		.uleb128 0xe
 5230 003d 3A       		.uleb128 0x3a
 5231 003e 0B       		.uleb128 0xb
 5232 003f 3B       		.uleb128 0x3b
 5233 0040 0B       		.uleb128 0xb
 5234 0041 27       		.uleb128 0x27
 5235 0042 19       		.uleb128 0x19
 5236 0043 11       		.uleb128 0x11
 5237 0044 01       		.uleb128 0x1
 5238 0045 12       		.uleb128 0x12
 5239 0046 06       		.uleb128 0x6
 5240 0047 40       		.uleb128 0x40
 5241 0048 18       		.uleb128 0x18
 5242 0049 9742     		.uleb128 0x2117
 5243 004b 19       		.uleb128 0x19
 5244 004c 01       		.uleb128 0x1
 5245 004d 13       		.uleb128 0x13
 5246 004e 00       		.byte	0
 5247 004f 00       		.byte	0
 5248 0050 06       		.uleb128 0x6
 5249 0051 34       		.uleb128 0x34
 5250 0052 00       		.byte	0
 5251 0053 03       		.uleb128 0x3
 5252 0054 0E       		.uleb128 0xe
 5253 0055 3A       		.uleb128 0x3a
 5254 0056 0B       		.uleb128 0xb
 5255 0057 3B       		.uleb128 0x3b
 5256 0058 0B       		.uleb128 0xb
 5257 0059 49       		.uleb128 0x49
ARM GAS  C:\Users\Misha\AppData\Local\Temp\ccmv7pUT.s 			page 112


 5258 005a 13       		.uleb128 0x13
 5259 005b 02       		.uleb128 0x2
 5260 005c 17       		.uleb128 0x17
 5261 005d 00       		.byte	0
 5262 005e 00       		.byte	0
 5263 005f 07       		.uleb128 0x7
 5264 0060 898201   		.uleb128 0x4109
 5265 0063 01       		.byte	0x1
 5266 0064 11       		.uleb128 0x11
 5267 0065 01       		.uleb128 0x1
 5268 0066 31       		.uleb128 0x31
 5269 0067 13       		.uleb128 0x13
 5270 0068 01       		.uleb128 0x1
 5271 0069 13       		.uleb128 0x13
 5272 006a 00       		.byte	0
 5273 006b 00       		.byte	0
 5274 006c 08       		.uleb128 0x8
 5275 006d 8A8201   		.uleb128 0x410a
 5276 0070 00       		.byte	0
 5277 0071 02       		.uleb128 0x2
 5278 0072 18       		.uleb128 0x18
 5279 0073 9142     		.uleb128 0x2111
 5280 0075 18       		.uleb128 0x18
 5281 0076 00       		.byte	0
 5282 0077 00       		.byte	0
 5283 0078 09       		.uleb128 0x9
 5284 0079 898201   		.uleb128 0x4109
 5285 007c 00       		.byte	0
 5286 007d 11       		.uleb128 0x11
 5287 007e 01       		.uleb128 0x1
 5288 007f 31       		.uleb128 0x31
 5289 0080 13       		.uleb128 0x13
 5290 0081 00       		.byte	0
 5291 0082 00       		.byte	0
 5292 0083 0A       		.uleb128 0xa
 5293 0084 898201   		.uleb128 0x4109
 5294 0087 01       		.byte	0x1
 5295 0088 11       		.uleb128 0x11
 5296 0089 01       		.uleb128 0x1
 5297 008a 31       		.uleb128 0x31
 5298 008b 13       		.uleb128 0x13
 5299 008c 00       		.byte	0
 5300 008d 00       		.byte	0
 5301 008e 0B       		.uleb128 0xb
 5302 008f 05       		.uleb128 0x5
 5303 0090 00       		.byte	0
 5304 0091 03       		.uleb128 0x3
 5305 0092 0E       		.uleb128 0xe
 5306 0093 3A       		.uleb128 0x3a
 5307 0094 0B       		.uleb128 0xb
 5308 0095 3B       		.uleb128 0x3b
 5309 0096 0B       		.uleb128 0xb
 5310 0097 49       		.uleb128 0x49
 5311 0098 13       		.uleb128 0x13
 5312 0099 02       		.uleb128 0x2
 5313 009a 17       		.uleb128 0x17
 5314 009b 00       		.byte	0
ARM GAS  C:\Users\Misha\AppData\Local\Temp\ccmv7pUT.s 			page 113


 5315 009c 00       		.byte	0
 5316 009d 0C       		.uleb128 0xc
 5317 009e 34       		.uleb128 0x34
 5318 009f 00       		.byte	0
 5319 00a0 03       		.uleb128 0x3
 5320 00a1 0E       		.uleb128 0xe
 5321 00a2 3A       		.uleb128 0x3a
 5322 00a3 0B       		.uleb128 0xb
 5323 00a4 3B       		.uleb128 0x3b
 5324 00a5 0B       		.uleb128 0xb
 5325 00a6 49       		.uleb128 0x49
 5326 00a7 13       		.uleb128 0x13
 5327 00a8 1C       		.uleb128 0x1c
 5328 00a9 0B       		.uleb128 0xb
 5329 00aa 00       		.byte	0
 5330 00ab 00       		.byte	0
 5331 00ac 0D       		.uleb128 0xd
 5332 00ad 2E       		.uleb128 0x2e
 5333 00ae 01       		.byte	0x1
 5334 00af 3F       		.uleb128 0x3f
 5335 00b0 19       		.uleb128 0x19
 5336 00b1 03       		.uleb128 0x3
 5337 00b2 0E       		.uleb128 0xe
 5338 00b3 3A       		.uleb128 0x3a
 5339 00b4 0B       		.uleb128 0xb
 5340 00b5 3B       		.uleb128 0x3b
 5341 00b6 05       		.uleb128 0x5
 5342 00b7 27       		.uleb128 0x27
 5343 00b8 19       		.uleb128 0x19
 5344 00b9 11       		.uleb128 0x11
 5345 00ba 01       		.uleb128 0x1
 5346 00bb 12       		.uleb128 0x12
 5347 00bc 06       		.uleb128 0x6
 5348 00bd 40       		.uleb128 0x40
 5349 00be 18       		.uleb128 0x18
 5350 00bf 9742     		.uleb128 0x2117
 5351 00c1 19       		.uleb128 0x19
 5352 00c2 01       		.uleb128 0x1
 5353 00c3 13       		.uleb128 0x13
 5354 00c4 00       		.byte	0
 5355 00c5 00       		.byte	0
 5356 00c6 0E       		.uleb128 0xe
 5357 00c7 05       		.uleb128 0x5
 5358 00c8 00       		.byte	0
 5359 00c9 03       		.uleb128 0x3
 5360 00ca 0E       		.uleb128 0xe
 5361 00cb 3A       		.uleb128 0x3a
 5362 00cc 0B       		.uleb128 0xb
 5363 00cd 3B       		.uleb128 0x3b
 5364 00ce 05       		.uleb128 0x5
 5365 00cf 49       		.uleb128 0x49
 5366 00d0 13       		.uleb128 0x13
 5367 00d1 02       		.uleb128 0x2
 5368 00d2 17       		.uleb128 0x17
 5369 00d3 00       		.byte	0
 5370 00d4 00       		.byte	0
 5371 00d5 0F       		.uleb128 0xf
ARM GAS  C:\Users\Misha\AppData\Local\Temp\ccmv7pUT.s 			page 114


 5372 00d6 34       		.uleb128 0x34
 5373 00d7 00       		.byte	0
 5374 00d8 03       		.uleb128 0x3
 5375 00d9 0E       		.uleb128 0xe
 5376 00da 3A       		.uleb128 0x3a
 5377 00db 0B       		.uleb128 0xb
 5378 00dc 3B       		.uleb128 0x3b
 5379 00dd 05       		.uleb128 0x5
 5380 00de 49       		.uleb128 0x49
 5381 00df 13       		.uleb128 0x13
 5382 00e0 02       		.uleb128 0x2
 5383 00e1 17       		.uleb128 0x17
 5384 00e2 00       		.byte	0
 5385 00e3 00       		.byte	0
 5386 00e4 10       		.uleb128 0x10
 5387 00e5 34       		.uleb128 0x34
 5388 00e6 00       		.byte	0
 5389 00e7 03       		.uleb128 0x3
 5390 00e8 0E       		.uleb128 0xe
 5391 00e9 3A       		.uleb128 0x3a
 5392 00ea 0B       		.uleb128 0xb
 5393 00eb 3B       		.uleb128 0x3b
 5394 00ec 05       		.uleb128 0x5
 5395 00ed 49       		.uleb128 0x49
 5396 00ee 13       		.uleb128 0x13
 5397 00ef 00       		.byte	0
 5398 00f0 00       		.byte	0
 5399 00f1 11       		.uleb128 0x11
 5400 00f2 34       		.uleb128 0x34
 5401 00f3 00       		.byte	0
 5402 00f4 03       		.uleb128 0x3
 5403 00f5 0E       		.uleb128 0xe
 5404 00f6 3A       		.uleb128 0x3a
 5405 00f7 0B       		.uleb128 0xb
 5406 00f8 3B       		.uleb128 0x3b
 5407 00f9 05       		.uleb128 0x5
 5408 00fa 49       		.uleb128 0x49
 5409 00fb 13       		.uleb128 0x13
 5410 00fc 1C       		.uleb128 0x1c
 5411 00fd 0D       		.uleb128 0xd
 5412 00fe 00       		.byte	0
 5413 00ff 00       		.byte	0
 5414 0100 12       		.uleb128 0x12
 5415 0101 2E       		.uleb128 0x2e
 5416 0102 01       		.byte	0x1
 5417 0103 3F       		.uleb128 0x3f
 5418 0104 19       		.uleb128 0x19
 5419 0105 03       		.uleb128 0x3
 5420 0106 0E       		.uleb128 0xe
 5421 0107 3A       		.uleb128 0x3a
 5422 0108 0B       		.uleb128 0xb
 5423 0109 3B       		.uleb128 0x3b
 5424 010a 05       		.uleb128 0x5
 5425 010b 27       		.uleb128 0x27
 5426 010c 19       		.uleb128 0x19
 5427 010d 49       		.uleb128 0x49
 5428 010e 13       		.uleb128 0x13
ARM GAS  C:\Users\Misha\AppData\Local\Temp\ccmv7pUT.s 			page 115


 5429 010f 11       		.uleb128 0x11
 5430 0110 01       		.uleb128 0x1
 5431 0111 12       		.uleb128 0x12
 5432 0112 06       		.uleb128 0x6
 5433 0113 40       		.uleb128 0x40
 5434 0114 18       		.uleb128 0x18
 5435 0115 9742     		.uleb128 0x2117
 5436 0117 19       		.uleb128 0x19
 5437 0118 01       		.uleb128 0x1
 5438 0119 13       		.uleb128 0x13
 5439 011a 00       		.byte	0
 5440 011b 00       		.byte	0
 5441 011c 13       		.uleb128 0x13
 5442 011d 34       		.uleb128 0x34
 5443 011e 00       		.byte	0
 5444 011f 03       		.uleb128 0x3
 5445 0120 0E       		.uleb128 0xe
 5446 0121 3A       		.uleb128 0x3a
 5447 0122 0B       		.uleb128 0xb
 5448 0123 3B       		.uleb128 0x3b
 5449 0124 05       		.uleb128 0x5
 5450 0125 49       		.uleb128 0x49
 5451 0126 13       		.uleb128 0x13
 5452 0127 1C       		.uleb128 0x1c
 5453 0128 0B       		.uleb128 0xb
 5454 0129 00       		.byte	0
 5455 012a 00       		.byte	0
 5456 012b 14       		.uleb128 0x14
 5457 012c 34       		.uleb128 0x34
 5458 012d 00       		.byte	0
 5459 012e 03       		.uleb128 0x3
 5460 012f 0E       		.uleb128 0xe
 5461 0130 3A       		.uleb128 0x3a
 5462 0131 0B       		.uleb128 0xb
 5463 0132 3B       		.uleb128 0x3b
 5464 0133 05       		.uleb128 0x5
 5465 0134 49       		.uleb128 0x49
 5466 0135 13       		.uleb128 0x13
 5467 0136 1C       		.uleb128 0x1c
 5468 0137 05       		.uleb128 0x5
 5469 0138 00       		.byte	0
 5470 0139 00       		.byte	0
 5471 013a 15       		.uleb128 0x15
 5472 013b 2E       		.uleb128 0x2e
 5473 013c 01       		.byte	0x1
 5474 013d 3F       		.uleb128 0x3f
 5475 013e 19       		.uleb128 0x19
 5476 013f 03       		.uleb128 0x3
 5477 0140 0E       		.uleb128 0xe
 5478 0141 3A       		.uleb128 0x3a
 5479 0142 0B       		.uleb128 0xb
 5480 0143 3B       		.uleb128 0x3b
 5481 0144 0B       		.uleb128 0xb
 5482 0145 27       		.uleb128 0x27
 5483 0146 19       		.uleb128 0x19
 5484 0147 11       		.uleb128 0x11
 5485 0148 01       		.uleb128 0x1
ARM GAS  C:\Users\Misha\AppData\Local\Temp\ccmv7pUT.s 			page 116


 5486 0149 12       		.uleb128 0x12
 5487 014a 06       		.uleb128 0x6
 5488 014b 40       		.uleb128 0x40
 5489 014c 18       		.uleb128 0x18
 5490 014d 9642     		.uleb128 0x2116
 5491 014f 19       		.uleb128 0x19
 5492 0150 01       		.uleb128 0x1
 5493 0151 13       		.uleb128 0x13
 5494 0152 00       		.byte	0
 5495 0153 00       		.byte	0
 5496 0154 16       		.uleb128 0x16
 5497 0155 0B       		.uleb128 0xb
 5498 0156 01       		.byte	0x1
 5499 0157 11       		.uleb128 0x11
 5500 0158 01       		.uleb128 0x1
 5501 0159 12       		.uleb128 0x12
 5502 015a 06       		.uleb128 0x6
 5503 015b 01       		.uleb128 0x1
 5504 015c 13       		.uleb128 0x13
 5505 015d 00       		.byte	0
 5506 015e 00       		.byte	0
 5507 015f 17       		.uleb128 0x17
 5508 0160 2E       		.uleb128 0x2e
 5509 0161 01       		.byte	0x1
 5510 0162 3F       		.uleb128 0x3f
 5511 0163 19       		.uleb128 0x19
 5512 0164 03       		.uleb128 0x3
 5513 0165 0E       		.uleb128 0xe
 5514 0166 3A       		.uleb128 0x3a
 5515 0167 0B       		.uleb128 0xb
 5516 0168 3B       		.uleb128 0x3b
 5517 0169 05       		.uleb128 0x5
 5518 016a 27       		.uleb128 0x27
 5519 016b 19       		.uleb128 0x19
 5520 016c 8701     		.uleb128 0x87
 5521 016e 19       		.uleb128 0x19
 5522 016f 11       		.uleb128 0x11
 5523 0170 01       		.uleb128 0x1
 5524 0171 12       		.uleb128 0x12
 5525 0172 06       		.uleb128 0x6
 5526 0173 40       		.uleb128 0x40
 5527 0174 18       		.uleb128 0x18
 5528 0175 9742     		.uleb128 0x2117
 5529 0177 19       		.uleb128 0x19
 5530 0178 01       		.uleb128 0x1
 5531 0179 13       		.uleb128 0x13
 5532 017a 00       		.byte	0
 5533 017b 00       		.byte	0
 5534 017c 18       		.uleb128 0x18
 5535 017d 2E       		.uleb128 0x2e
 5536 017e 00       		.byte	0
 5537 017f 3F       		.uleb128 0x3f
 5538 0180 19       		.uleb128 0x19
 5539 0181 03       		.uleb128 0x3
 5540 0182 0E       		.uleb128 0xe
 5541 0183 3A       		.uleb128 0x3a
 5542 0184 0B       		.uleb128 0xb
ARM GAS  C:\Users\Misha\AppData\Local\Temp\ccmv7pUT.s 			page 117


 5543 0185 3B       		.uleb128 0x3b
 5544 0186 05       		.uleb128 0x5
 5545 0187 27       		.uleb128 0x27
 5546 0188 19       		.uleb128 0x19
 5547 0189 11       		.uleb128 0x11
 5548 018a 01       		.uleb128 0x1
 5549 018b 12       		.uleb128 0x12
 5550 018c 06       		.uleb128 0x6
 5551 018d 40       		.uleb128 0x40
 5552 018e 18       		.uleb128 0x18
 5553 018f 9742     		.uleb128 0x2117
 5554 0191 19       		.uleb128 0x19
 5555 0192 00       		.byte	0
 5556 0193 00       		.byte	0
 5557 0194 19       		.uleb128 0x19
 5558 0195 34       		.uleb128 0x34
 5559 0196 00       		.byte	0
 5560 0197 03       		.uleb128 0x3
 5561 0198 0E       		.uleb128 0xe
 5562 0199 3A       		.uleb128 0x3a
 5563 019a 0B       		.uleb128 0xb
 5564 019b 3B       		.uleb128 0x3b
 5565 019c 05       		.uleb128 0x5
 5566 019d 49       		.uleb128 0x49
 5567 019e 13       		.uleb128 0x13
 5568 019f 3F       		.uleb128 0x3f
 5569 01a0 19       		.uleb128 0x19
 5570 01a1 3C       		.uleb128 0x3c
 5571 01a2 19       		.uleb128 0x19
 5572 01a3 00       		.byte	0
 5573 01a4 00       		.byte	0
 5574 01a5 1A       		.uleb128 0x1a
 5575 01a6 35       		.uleb128 0x35
 5576 01a7 00       		.byte	0
 5577 01a8 49       		.uleb128 0x49
 5578 01a9 13       		.uleb128 0x13
 5579 01aa 00       		.byte	0
 5580 01ab 00       		.byte	0
 5581 01ac 1B       		.uleb128 0x1b
 5582 01ad 34       		.uleb128 0x34
 5583 01ae 00       		.byte	0
 5584 01af 03       		.uleb128 0x3
 5585 01b0 0E       		.uleb128 0xe
 5586 01b1 3A       		.uleb128 0x3a
 5587 01b2 0B       		.uleb128 0xb
 5588 01b3 3B       		.uleb128 0x3b
 5589 01b4 0B       		.uleb128 0xb
 5590 01b5 49       		.uleb128 0x49
 5591 01b6 13       		.uleb128 0x13
 5592 01b7 3F       		.uleb128 0x3f
 5593 01b8 19       		.uleb128 0x19
 5594 01b9 02       		.uleb128 0x2
 5595 01ba 18       		.uleb128 0x18
 5596 01bb 00       		.byte	0
 5597 01bc 00       		.byte	0
 5598 01bd 1C       		.uleb128 0x1c
 5599 01be 01       		.uleb128 0x1
ARM GAS  C:\Users\Misha\AppData\Local\Temp\ccmv7pUT.s 			page 118


 5600 01bf 01       		.byte	0x1
 5601 01c0 49       		.uleb128 0x49
 5602 01c1 13       		.uleb128 0x13
 5603 01c2 01       		.uleb128 0x1
 5604 01c3 13       		.uleb128 0x13
 5605 01c4 00       		.byte	0
 5606 01c5 00       		.byte	0
 5607 01c6 1D       		.uleb128 0x1d
 5608 01c7 21       		.uleb128 0x21
 5609 01c8 00       		.byte	0
 5610 01c9 49       		.uleb128 0x49
 5611 01ca 13       		.uleb128 0x13
 5612 01cb 2F       		.uleb128 0x2f
 5613 01cc 0B       		.uleb128 0xb
 5614 01cd 00       		.byte	0
 5615 01ce 00       		.byte	0
 5616 01cf 1E       		.uleb128 0x1e
 5617 01d0 34       		.uleb128 0x34
 5618 01d1 00       		.byte	0
 5619 01d2 03       		.uleb128 0x3
 5620 01d3 0E       		.uleb128 0xe
 5621 01d4 3A       		.uleb128 0x3a
 5622 01d5 0B       		.uleb128 0xb
 5623 01d6 3B       		.uleb128 0x3b
 5624 01d7 0B       		.uleb128 0xb
 5625 01d8 49       		.uleb128 0x49
 5626 01d9 13       		.uleb128 0x13
 5627 01da 3F       		.uleb128 0x3f
 5628 01db 19       		.uleb128 0x19
 5629 01dc 3C       		.uleb128 0x3c
 5630 01dd 19       		.uleb128 0x19
 5631 01de 00       		.byte	0
 5632 01df 00       		.byte	0
 5633 01e0 1F       		.uleb128 0x1f
 5634 01e1 2E       		.uleb128 0x2e
 5635 01e2 00       		.byte	0
 5636 01e3 3F       		.uleb128 0x3f
 5637 01e4 19       		.uleb128 0x19
 5638 01e5 3C       		.uleb128 0x3c
 5639 01e6 19       		.uleb128 0x19
 5640 01e7 6E       		.uleb128 0x6e
 5641 01e8 0E       		.uleb128 0xe
 5642 01e9 03       		.uleb128 0x3
 5643 01ea 0E       		.uleb128 0xe
 5644 01eb 3A       		.uleb128 0x3a
 5645 01ec 0B       		.uleb128 0xb
 5646 01ed 3B       		.uleb128 0x3b
 5647 01ee 0B       		.uleb128 0xb
 5648 01ef 00       		.byte	0
 5649 01f0 00       		.byte	0
 5650 01f1 00       		.byte	0
 5651              		.section	.debug_loc,"",%progbits
 5652              	.Ldebug_loc0:
 5653              	.LLST0:
 5654 0000 02000000 		.4byte	.LVL0
 5655 0004 14000000 		.4byte	.LVL2
 5656 0008 0200     		.2byte	0x2
ARM GAS  C:\Users\Misha\AppData\Local\Temp\ccmv7pUT.s 			page 119


 5657 000a 30       		.byte	0x30
 5658 000b 9F       		.byte	0x9f
 5659 000c 14000000 		.4byte	.LVL2
 5660 0010 40000000 		.4byte	.LVL9
 5661 0014 0100     		.2byte	0x1
 5662 0016 55       		.byte	0x55
 5663 0017 00000000 		.4byte	0
 5664 001b 00000000 		.4byte	0
 5665              	.LLST1:
 5666 001f 22000000 		.4byte	.LVL5
 5667 0023 26000000 		.4byte	.LVL6
 5668 0027 0100     		.2byte	0x1
 5669 0029 50       		.byte	0x50
 5670 002a 26000000 		.4byte	.LVL6
 5671 002e 3A000000 		.4byte	.LVL8
 5672 0032 0100     		.2byte	0x1
 5673 0034 54       		.byte	0x54
 5674 0035 00000000 		.4byte	0
 5675 0039 00000000 		.4byte	0
 5676              	.LLST2:
 5677 003d 00000000 		.4byte	.LVL10
 5678 0041 08000000 		.4byte	.LVL12
 5679 0045 0100     		.2byte	0x1
 5680 0047 50       		.byte	0x50
 5681 0048 08000000 		.4byte	.LVL12
 5682 004c 3E000000 		.4byte	.LVL21
 5683 0050 0100     		.2byte	0x1
 5684 0052 54       		.byte	0x54
 5685 0053 3E000000 		.4byte	.LVL21
 5686 0057 D0000000 		.4byte	.LFE65
 5687 005b 0400     		.2byte	0x4
 5688 005d F3       		.byte	0xf3
 5689 005e 01       		.uleb128 0x1
 5690 005f 50       		.byte	0x50
 5691 0060 9F       		.byte	0x9f
 5692 0061 00000000 		.4byte	0
 5693 0065 00000000 		.4byte	0
 5694              	.LLST3:
 5695 0069 06000000 		.4byte	.LVL11
 5696 006d 3E000000 		.4byte	.LVL21
 5697 0071 0200     		.2byte	0x2
 5698 0073 30       		.byte	0x30
 5699 0074 9F       		.byte	0x9f
 5700 0075 3E000000 		.4byte	.LVL21
 5701 0079 50000000 		.4byte	.LVL27
 5702 007d 0100     		.2byte	0x1
 5703 007f 56       		.byte	0x56
 5704 0080 50000000 		.4byte	.LVL27
 5705 0084 52000000 		.4byte	.LVL28
 5706 0088 0100     		.2byte	0x1
 5707 008a 50       		.byte	0x50
 5708 008b 52000000 		.4byte	.LVL28
 5709 008f C2000000 		.4byte	.LVL43
 5710 0093 0100     		.2byte	0x1
 5711 0095 56       		.byte	0x56
 5712 0096 00000000 		.4byte	0
 5713 009a 00000000 		.4byte	0
ARM GAS  C:\Users\Misha\AppData\Local\Temp\ccmv7pUT.s 			page 120


 5714              	.LLST4:
 5715 009e 44000000 		.4byte	.LVL23
 5716 00a2 47000000 		.4byte	.LVL24-1
 5717 00a6 0100     		.2byte	0x1
 5718 00a8 50       		.byte	0x50
 5719 00a9 47000000 		.4byte	.LVL24-1
 5720 00ad 9C000000 		.4byte	.LVL37
 5721 00b1 0100     		.2byte	0x1
 5722 00b3 54       		.byte	0x54
 5723 00b4 00000000 		.4byte	0
 5724 00b8 00000000 		.4byte	0
 5725              	.LLST5:
 5726 00bc 4A000000 		.4byte	.LVL25
 5727 00c0 4D000000 		.4byte	.LVL26-1
 5728 00c4 0100     		.2byte	0x1
 5729 00c6 50       		.byte	0x50
 5730 00c7 4D000000 		.4byte	.LVL26-1
 5731 00cb 9C000000 		.4byte	.LVL37
 5732 00cf 0100     		.2byte	0x1
 5733 00d1 55       		.byte	0x55
 5734 00d2 00000000 		.4byte	0
 5735 00d6 00000000 		.4byte	0
 5736              	.LLST6:
 5737 00da 06000000 		.4byte	.LVL11
 5738 00de 3E000000 		.4byte	.LVL21
 5739 00e2 0300     		.2byte	0x3
 5740 00e4 08       		.byte	0x8
 5741 00e5 46       		.byte	0x46
 5742 00e6 9F       		.byte	0x9f
 5743 00e7 3E000000 		.4byte	.LVL21
 5744 00eb C2000000 		.4byte	.LVL43
 5745 00ef 0100     		.2byte	0x1
 5746 00f1 59       		.byte	0x59
 5747 00f2 00000000 		.4byte	0
 5748 00f6 00000000 		.4byte	0
 5749              	.LLST7:
 5750 00fa 06000000 		.4byte	.LVL11
 5751 00fe 3E000000 		.4byte	.LVL21
 5752 0102 0300     		.2byte	0x3
 5753 0104 08       		.byte	0x8
 5754 0105 46       		.byte	0x46
 5755 0106 9F       		.byte	0x9f
 5756 0107 3E000000 		.4byte	.LVL21
 5757 010b 80000000 		.4byte	.LVL32
 5758 010f 0100     		.2byte	0x1
 5759 0111 58       		.byte	0x58
 5760 0112 84000000 		.4byte	.LVL33
 5761 0116 8C000000 		.4byte	.LVL34
 5762 011a 0100     		.2byte	0x1
 5763 011c 58       		.byte	0x58
 5764 011d 90000000 		.4byte	.LVL35
 5765 0121 C2000000 		.4byte	.LVL43
 5766 0125 0100     		.2byte	0x1
 5767 0127 58       		.byte	0x58
 5768 0128 00000000 		.4byte	0
 5769 012c 00000000 		.4byte	0
 5770              	.LLST8:
ARM GAS  C:\Users\Misha\AppData\Local\Temp\ccmv7pUT.s 			page 121


 5771 0130 00000000 		.4byte	.LVL44
 5772 0134 08000000 		.4byte	.LVL45
 5773 0138 0100     		.2byte	0x1
 5774 013a 50       		.byte	0x50
 5775 013b 08000000 		.4byte	.LVL45
 5776 013f 32000000 		.4byte	.LVL51
 5777 0143 0100     		.2byte	0x1
 5778 0145 54       		.byte	0x54
 5779 0146 32000000 		.4byte	.LVL51
 5780 014a 3C000000 		.4byte	.LFE67
 5781 014e 0500     		.2byte	0x5
 5782 0150 03       		.byte	0x3
 5783 0151 00000000 		.4byte	internal_orientation
 5784 0155 00000000 		.4byte	0
 5785 0159 00000000 		.4byte	0
 5786              	.LLST9:
 5787 015d 00000000 		.4byte	.LVL44
 5788 0161 2B000000 		.4byte	.LVL50-1
 5789 0165 0100     		.2byte	0x1
 5790 0167 51       		.byte	0x51
 5791 0168 2B000000 		.4byte	.LVL50-1
 5792 016c 3C000000 		.4byte	.LFE67
 5793 0170 0400     		.2byte	0x4
 5794 0172 F3       		.byte	0xf3
 5795 0173 01       		.uleb128 0x1
 5796 0174 51       		.byte	0x51
 5797 0175 9F       		.byte	0x9f
 5798 0176 00000000 		.4byte	0
 5799 017a 00000000 		.4byte	0
 5800              	.LLST10:
 5801 017e 10000000 		.4byte	.LVL47
 5802 0182 22000000 		.4byte	.LVL48
 5803 0186 0100     		.2byte	0x1
 5804 0188 50       		.byte	0x50
 5805 0189 22000000 		.4byte	.LVL48
 5806 018d 26000000 		.4byte	.LVL49
 5807 0191 0800     		.2byte	0x8
 5808 0193 73       		.byte	0x73
 5809 0194 00       		.sleb128 0
 5810 0195 70       		.byte	0x70
 5811 0196 00       		.sleb128 0
 5812 0197 4F       		.byte	0x4f
 5813 0198 26       		.byte	0x26
 5814 0199 1C       		.byte	0x1c
 5815 019a 9F       		.byte	0x9f
 5816 019b 26000000 		.4byte	.LVL49
 5817 019f 2B000000 		.4byte	.LVL50-1
 5818 01a3 0100     		.2byte	0x1
 5819 01a5 50       		.byte	0x50
 5820 01a6 00000000 		.4byte	0
 5821 01aa 00000000 		.4byte	0
 5822              	.LLST11:
 5823 01ae 0A000000 		.4byte	.LVL46
 5824 01b2 10000000 		.4byte	.LVL47
 5825 01b6 0100     		.2byte	0x1
 5826 01b8 50       		.byte	0x50
 5827 01b9 10000000 		.4byte	.LVL47
ARM GAS  C:\Users\Misha\AppData\Local\Temp\ccmv7pUT.s 			page 122


 5828 01bd 2B000000 		.4byte	.LVL50-1
 5829 01c1 0A00     		.2byte	0xa
 5830 01c3 74       		.byte	0x74
 5831 01c4 00       		.sleb128 0
 5832 01c5 03       		.byte	0x3
 5833 01c6 00000000 		.4byte	internal_orientation
 5834 01ca 06       		.byte	0x6
 5835 01cb 1C       		.byte	0x1c
 5836 01cc 9F       		.byte	0x9f
 5837 01cd 00000000 		.4byte	0
 5838 01d1 00000000 		.4byte	0
 5839              	.LLST12:
 5840 01d5 00000000 		.4byte	.LVL52
 5841 01d9 18000000 		.4byte	.LVL56
 5842 01dd 0100     		.2byte	0x1
 5843 01df 50       		.byte	0x50
 5844 01e0 18000000 		.4byte	.LVL56
 5845 01e4 32010000 		.4byte	.LVL85
 5846 01e8 0100     		.2byte	0x1
 5847 01ea 58       		.byte	0x58
 5848 01eb 32010000 		.4byte	.LVL85
 5849 01ef 4C010000 		.4byte	.LFE68
 5850 01f3 0400     		.2byte	0x4
 5851 01f5 F3       		.byte	0xf3
 5852 01f6 01       		.uleb128 0x1
 5853 01f7 50       		.byte	0x50
 5854 01f8 9F       		.byte	0x9f
 5855 01f9 00000000 		.4byte	0
 5856 01fd 00000000 		.4byte	0
 5857              	.LLST13:
 5858 0201 00000000 		.4byte	.LVL52
 5859 0205 18000000 		.4byte	.LVL56
 5860 0209 0100     		.2byte	0x1
 5861 020b 51       		.byte	0x51
 5862 020c 18000000 		.4byte	.LVL56
 5863 0210 32010000 		.4byte	.LVL85
 5864 0214 0100     		.2byte	0x1
 5865 0216 57       		.byte	0x57
 5866 0217 32010000 		.4byte	.LVL85
 5867 021b 4C010000 		.4byte	.LFE68
 5868 021f 0400     		.2byte	0x4
 5869 0221 F3       		.byte	0xf3
 5870 0222 01       		.uleb128 0x1
 5871 0223 51       		.byte	0x51
 5872 0224 9F       		.byte	0x9f
 5873 0225 00000000 		.4byte	0
 5874 0229 00000000 		.4byte	0
 5875              	.LLST14:
 5876 022d 00000000 		.4byte	.LVL52
 5877 0231 10000000 		.4byte	.LVL54
 5878 0235 0100     		.2byte	0x1
 5879 0237 52       		.byte	0x52
 5880 0238 10000000 		.4byte	.LVL54
 5881 023c 32010000 		.4byte	.LVL85
 5882 0240 0100     		.2byte	0x1
 5883 0242 59       		.byte	0x59
 5884 0243 32010000 		.4byte	.LVL85
ARM GAS  C:\Users\Misha\AppData\Local\Temp\ccmv7pUT.s 			page 123


 5885 0247 4C010000 		.4byte	.LFE68
 5886 024b 0400     		.2byte	0x4
 5887 024d F3       		.byte	0xf3
 5888 024e 01       		.uleb128 0x1
 5889 024f 52       		.byte	0x52
 5890 0250 9F       		.byte	0x9f
 5891 0251 00000000 		.4byte	0
 5892 0255 00000000 		.4byte	0
 5893              	.LLST15:
 5894 0259 00000000 		.4byte	.LVL52
 5895 025d 12000000 		.4byte	.LVL55
 5896 0261 0100     		.2byte	0x1
 5897 0263 53       		.byte	0x53
 5898 0264 12000000 		.4byte	.LVL55
 5899 0268 32010000 		.4byte	.LVL85
 5900 026c 0100     		.2byte	0x1
 5901 026e 54       		.byte	0x54
 5902 026f 32010000 		.4byte	.LVL85
 5903 0273 4C010000 		.4byte	.LFE68
 5904 0277 0400     		.2byte	0x4
 5905 0279 F3       		.byte	0xf3
 5906 027a 01       		.uleb128 0x1
 5907 027b 53       		.byte	0x53
 5908 027c 9F       		.byte	0x9f
 5909 027d 00000000 		.4byte	0
 5910 0281 00000000 		.4byte	0
 5911              	.LLST16:
 5912 0285 00000000 		.4byte	.LVL52
 5913 0289 32010000 		.4byte	.LVL85
 5914 028d 0200     		.2byte	0x2
 5915 028f 91       		.byte	0x91
 5916 0290 00       		.sleb128 0
 5917 0291 32010000 		.4byte	.LVL85
 5918 0295 4C010000 		.4byte	.LFE68
 5919 0299 0200     		.2byte	0x2
 5920 029b 7D       		.byte	0x7d
 5921 029c 00       		.sleb128 0
 5922 029d 00000000 		.4byte	0
 5923 02a1 00000000 		.4byte	0
 5924              	.LLST17:
 5925 02a5 0C000000 		.4byte	.LVL53
 5926 02a9 32010000 		.4byte	.LVL85
 5927 02ad 0200     		.2byte	0x2
 5928 02af 91       		.byte	0x91
 5929 02b0 00       		.sleb128 0
 5930 02b1 32010000 		.4byte	.LVL85
 5931 02b5 4C010000 		.4byte	.LFE68
 5932 02b9 0200     		.2byte	0x2
 5933 02bb 7D       		.byte	0x7d
 5934 02bc 00       		.sleb128 0
 5935 02bd 00000000 		.4byte	0
 5936 02c1 00000000 		.4byte	0
 5937              	.LLST19:
 5938 02c5 18000000 		.4byte	.LVL56
 5939 02c9 32010000 		.4byte	.LVL85
 5940 02cd 0100     		.2byte	0x1
 5941 02cf 55       		.byte	0x55
ARM GAS  C:\Users\Misha\AppData\Local\Temp\ccmv7pUT.s 			page 124


 5942 02d0 00000000 		.4byte	0
 5943 02d4 00000000 		.4byte	0
 5944              	.LLST20:
 5945 02d8 00000000 		.4byte	.LVL86
 5946 02dc 0E000000 		.4byte	.LVL87
 5947 02e0 0100     		.2byte	0x1
 5948 02e2 50       		.byte	0x50
 5949 02e3 0E000000 		.4byte	.LVL87
 5950 02e7 36000000 		.4byte	.LVL93
 5951 02eb 0400     		.2byte	0x4
 5952 02ed F3       		.byte	0xf3
 5953 02ee 01       		.uleb128 0x1
 5954 02ef 50       		.byte	0x50
 5955 02f0 9F       		.byte	0x9f
 5956 02f1 36000000 		.4byte	.LVL93
 5957 02f5 3C000000 		.4byte	.LVL94
 5958 02f9 0100     		.2byte	0x1
 5959 02fb 50       		.byte	0x50
 5960 02fc 3C000000 		.4byte	.LVL94
 5961 0300 64000000 		.4byte	.LVL100
 5962 0304 0400     		.2byte	0x4
 5963 0306 F3       		.byte	0xf3
 5964 0307 01       		.uleb128 0x1
 5965 0308 50       		.byte	0x50
 5966 0309 9F       		.byte	0x9f
 5967 030a 64000000 		.4byte	.LVL100
 5968 030e 64000000 		.4byte	.LVL101
 5969 0312 0100     		.2byte	0x1
 5970 0314 50       		.byte	0x50
 5971 0315 64000000 		.4byte	.LVL101
 5972 0319 66000000 		.4byte	.LVL102
 5973 031d 0400     		.2byte	0x4
 5974 031f F3       		.byte	0xf3
 5975 0320 01       		.uleb128 0x1
 5976 0321 50       		.byte	0x50
 5977 0322 9F       		.byte	0x9f
 5978 0323 66000000 		.4byte	.LVL102
 5979 0327 68000000 		.4byte	.LVL103
 5980 032b 0100     		.2byte	0x1
 5981 032d 50       		.byte	0x50
 5982 032e 68000000 		.4byte	.LVL103
 5983 0332 84000000 		.4byte	.LFE69
 5984 0336 0400     		.2byte	0x4
 5985 0338 F3       		.byte	0xf3
 5986 0339 01       		.uleb128 0x1
 5987 033a 50       		.byte	0x50
 5988 033b 9F       		.byte	0x9f
 5989 033c 00000000 		.4byte	0
 5990 0340 00000000 		.4byte	0
 5991              	.LLST21:
 5992 0344 1C000000 		.4byte	.LVL90
 5993 0348 2B000000 		.4byte	.LVL91-1
 5994 034c 0100     		.2byte	0x1
 5995 034e 52       		.byte	0x52
 5996 034f 4A000000 		.4byte	.LVL97
 5997 0353 59000000 		.4byte	.LVL98-1
 5998 0357 0100     		.2byte	0x1
ARM GAS  C:\Users\Misha\AppData\Local\Temp\ccmv7pUT.s 			page 125


 5999 0359 52       		.byte	0x52
 6000 035a 6A000000 		.4byte	.LVL104
 6001 035e 84000000 		.4byte	.LFE69
 6002 0362 0100     		.2byte	0x1
 6003 0364 52       		.byte	0x52
 6004 0365 00000000 		.4byte	0
 6005 0369 00000000 		.4byte	0
 6006              	.LLST22:
 6007 036d 04000000 		.4byte	.LVL105
 6008 0371 0A000000 		.4byte	.LVL106
 6009 0375 0400     		.2byte	0x4
 6010 0377 0A       		.byte	0xa
 6011 0378 2C01     		.2byte	0x12c
 6012 037a 9F       		.byte	0x9f
 6013 037b 0A000000 		.4byte	.LVL106
 6014 037f 1A000000 		.4byte	.LVL109
 6015 0383 0100     		.2byte	0x1
 6016 0385 54       		.byte	0x54
 6017 0386 4E000000 		.4byte	.LVL116
 6018 038a 9C000000 		.4byte	.LVL125
 6019 038e 0100     		.2byte	0x1
 6020 0390 54       		.byte	0x54
 6021 0391 A0000000 		.4byte	.LVL126
 6022 0395 44010000 		.4byte	.LVL144
 6023 0399 0100     		.2byte	0x1
 6024 039b 54       		.byte	0x54
 6025 039c 46010000 		.4byte	.LVL145
 6026 03a0 FE010000 		.4byte	.LVL168
 6027 03a4 0100     		.2byte	0x1
 6028 03a6 54       		.byte	0x54
 6029 03a7 00000000 		.4byte	0
 6030 03ab 00000000 		.4byte	0
 6031              	.LLST23:
 6032 03af 00000000 		.4byte	.LVL169
 6033 03b3 11000000 		.4byte	.LVL171-1
 6034 03b7 0100     		.2byte	0x1
 6035 03b9 50       		.byte	0x50
 6036 03ba 11000000 		.4byte	.LVL171-1
 6037 03be 30000000 		.4byte	.LVL175
 6038 03c2 0100     		.2byte	0x1
 6039 03c4 55       		.byte	0x55
 6040 03c5 30000000 		.4byte	.LVL175
 6041 03c9 3C000000 		.4byte	.LFE70
 6042 03cd 0400     		.2byte	0x4
 6043 03cf F3       		.byte	0xf3
 6044 03d0 01       		.uleb128 0x1
 6045 03d1 50       		.byte	0x50
 6046 03d2 9F       		.byte	0x9f
 6047 03d3 00000000 		.4byte	0
 6048 03d7 00000000 		.4byte	0
 6049              	.LLST24:
 6050 03db 00000000 		.4byte	.LVL169
 6051 03df 11000000 		.4byte	.LVL171-1
 6052 03e3 0100     		.2byte	0x1
 6053 03e5 51       		.byte	0x51
 6054 03e6 11000000 		.4byte	.LVL171-1
 6055 03ea 28000000 		.4byte	.LVL173
ARM GAS  C:\Users\Misha\AppData\Local\Temp\ccmv7pUT.s 			page 126


 6056 03ee 0100     		.2byte	0x1
 6057 03f0 54       		.byte	0x54
 6058 03f1 28000000 		.4byte	.LVL173
 6059 03f5 2C000000 		.4byte	.LVL174
 6060 03f9 0300     		.2byte	0x3
 6061 03fb 74       		.byte	0x74
 6062 03fc 0A       		.sleb128 10
 6063 03fd 9F       		.byte	0x9f
 6064 03fe 2C000000 		.4byte	.LVL174
 6065 0402 2F000000 		.4byte	.LVL175-1
 6066 0406 0300     		.2byte	0x3
 6067 0408 72       		.byte	0x72
 6068 0409 76       		.sleb128 -10
 6069 040a 9F       		.byte	0x9f
 6070 040b 2F000000 		.4byte	.LVL175-1
 6071 040f 3C000000 		.4byte	.LFE70
 6072 0413 0400     		.2byte	0x4
 6073 0415 F3       		.byte	0xf3
 6074 0416 01       		.uleb128 0x1
 6075 0417 51       		.byte	0x51
 6076 0418 9F       		.byte	0x9f
 6077 0419 00000000 		.4byte	0
 6078 041d 00000000 		.4byte	0
 6079              	.LLST25:
 6080 0421 00000000 		.4byte	.LVL176
 6081 0425 12000000 		.4byte	.LVL178
 6082 0429 0100     		.2byte	0x1
 6083 042b 50       		.byte	0x50
 6084 042c 12000000 		.4byte	.LVL178
 6085 0430 A8030000 		.4byte	.LVL282
 6086 0434 0100     		.2byte	0x1
 6087 0436 5A       		.byte	0x5a
 6088 0437 A8030000 		.4byte	.LVL282
 6089 043b C0030000 		.4byte	.LFE66
 6090 043f 0400     		.2byte	0x4
 6091 0441 F3       		.byte	0xf3
 6092 0442 01       		.uleb128 0x1
 6093 0443 50       		.byte	0x50
 6094 0444 9F       		.byte	0x9f
 6095 0445 00000000 		.4byte	0
 6096 0449 00000000 		.4byte	0
 6097              	.LLST26:
 6098 044d 00000000 		.4byte	.LVL176
 6099 0451 15000000 		.4byte	.LVL179-1
 6100 0455 0100     		.2byte	0x1
 6101 0457 51       		.byte	0x51
 6102 0458 15000000 		.4byte	.LVL179-1
 6103 045c A8030000 		.4byte	.LVL282
 6104 0460 0200     		.2byte	0x2
 6105 0462 91       		.byte	0x91
 6106 0463 44       		.sleb128 -60
 6107 0464 A8030000 		.4byte	.LVL282
 6108 0468 C0030000 		.4byte	.LFE66
 6109 046c 0200     		.2byte	0x2
 6110 046e 7D       		.byte	0x7d
 6111 046f 44       		.sleb128 -60
 6112 0470 00000000 		.4byte	0
ARM GAS  C:\Users\Misha\AppData\Local\Temp\ccmv7pUT.s 			page 127


 6113 0474 00000000 		.4byte	0
 6114              	.LLST27:
 6115 0478 00000000 		.4byte	.LVL176
 6116 047c 15000000 		.4byte	.LVL179-1
 6117 0480 0100     		.2byte	0x1
 6118 0482 52       		.byte	0x52
 6119 0483 15000000 		.4byte	.LVL179-1
 6120 0487 A8030000 		.4byte	.LVL282
 6121 048b 0200     		.2byte	0x2
 6122 048d 91       		.byte	0x91
 6123 048e 4C       		.sleb128 -52
 6124 048f A8030000 		.4byte	.LVL282
 6125 0493 C0030000 		.4byte	.LFE66
 6126 0497 0200     		.2byte	0x2
 6127 0499 7D       		.byte	0x7d
 6128 049a 4C       		.sleb128 -52
 6129 049b 00000000 		.4byte	0
 6130 049f 00000000 		.4byte	0
 6131              	.LLST28:
 6132 04a3 00000000 		.4byte	.LVL176
 6133 04a7 15000000 		.4byte	.LVL179-1
 6134 04ab 0100     		.2byte	0x1
 6135 04ad 53       		.byte	0x53
 6136 04ae 15000000 		.4byte	.LVL179-1
 6137 04b2 A8030000 		.4byte	.LVL282
 6138 04b6 0100     		.2byte	0x1
 6139 04b8 54       		.byte	0x54
 6140 04b9 00000000 		.4byte	0
 6141 04bd 00000000 		.4byte	0
 6142              	.LLST29:
 6143 04c1 00000000 		.4byte	.LVL176
 6144 04c5 A8030000 		.4byte	.LVL282
 6145 04c9 0200     		.2byte	0x2
 6146 04cb 91       		.byte	0x91
 6147 04cc 00       		.sleb128 0
 6148 04cd A8030000 		.4byte	.LVL282
 6149 04d1 C0030000 		.4byte	.LFE66
 6150 04d5 0200     		.2byte	0x2
 6151 04d7 7D       		.byte	0x7d
 6152 04d8 00       		.sleb128 0
 6153 04d9 00000000 		.4byte	0
 6154 04dd 00000000 		.4byte	0
 6155              	.LLST30:
 6156 04e1 00000000 		.4byte	.LVL176
 6157 04e5 A8030000 		.4byte	.LVL282
 6158 04e9 0200     		.2byte	0x2
 6159 04eb 91       		.byte	0x91
 6160 04ec 04       		.sleb128 4
 6161 04ed A8030000 		.4byte	.LVL282
 6162 04f1 C0030000 		.4byte	.LFE66
 6163 04f5 0200     		.2byte	0x2
 6164 04f7 7D       		.byte	0x7d
 6165 04f8 04       		.sleb128 4
 6166 04f9 00000000 		.4byte	0
 6167 04fd 00000000 		.4byte	0
 6168              	.LLST31:
 6169 0501 EE000000 		.4byte	.LVL204
ARM GAS  C:\Users\Misha\AppData\Local\Temp\ccmv7pUT.s 			page 128


 6170 0505 F1000000 		.4byte	.LVL205-1
 6171 0509 0100     		.2byte	0x1
 6172 050b 50       		.byte	0x50
 6173 050c F1000000 		.4byte	.LVL205-1
 6174 0510 44010000 		.4byte	.LVL215
 6175 0514 0100     		.2byte	0x1
 6176 0516 55       		.byte	0x55
 6177 0517 44010000 		.4byte	.LVL215
 6178 051b 4A010000 		.4byte	.LVL216
 6179 051f 0200     		.2byte	0x2
 6180 0521 91       		.byte	0x91
 6181 0522 48       		.sleb128 -56
 6182 0523 4A010000 		.4byte	.LVL216
 6183 0527 64010000 		.4byte	.LVL219
 6184 052b 0100     		.2byte	0x1
 6185 052d 55       		.byte	0x55
 6186 052e 64010000 		.4byte	.LVL219
 6187 0532 6A010000 		.4byte	.LVL220
 6188 0536 0200     		.2byte	0x2
 6189 0538 91       		.byte	0x91
 6190 0539 48       		.sleb128 -56
 6191 053a 6A010000 		.4byte	.LVL220
 6192 053e 7C010000 		.4byte	.LVL223
 6193 0542 0100     		.2byte	0x1
 6194 0544 55       		.byte	0x55
 6195 0545 7C010000 		.4byte	.LVL223
 6196 0549 1E020000 		.4byte	.LVL240
 6197 054d 0200     		.2byte	0x2
 6198 054f 91       		.byte	0x91
 6199 0550 48       		.sleb128 -56
 6200 0551 4E020000 		.4byte	.LVL245
 6201 0555 51020000 		.4byte	.LVL246-1
 6202 0559 0100     		.2byte	0x1
 6203 055b 50       		.byte	0x50
 6204 055c 51020000 		.4byte	.LVL246-1
 6205 0560 9C020000 		.4byte	.LVL256
 6206 0564 0100     		.2byte	0x1
 6207 0566 55       		.byte	0x55
 6208 0567 9C020000 		.4byte	.LVL256
 6209 056b 5A030000 		.4byte	.LVL273
 6210 056f 0200     		.2byte	0x2
 6211 0571 91       		.byte	0x91
 6212 0572 40       		.sleb128 -64
 6213 0573 00000000 		.4byte	0
 6214 0577 00000000 		.4byte	0
 6215              	.LLST32:
 6216 057b F2000000 		.4byte	.LVL205
 6217 057f 02010000 		.4byte	.LVL206
 6218 0583 0100     		.2byte	0x1
 6219 0585 50       		.byte	0x50
 6220 0586 52020000 		.4byte	.LVL246
 6221 058a 62020000 		.4byte	.LVL247
 6222 058e 0100     		.2byte	0x1
 6223 0590 50       		.byte	0x50
 6224 0591 00000000 		.4byte	0
 6225 0595 00000000 		.4byte	0
 6226              	.LLST33:
ARM GAS  C:\Users\Misha\AppData\Local\Temp\ccmv7pUT.s 			page 129


 6227 0599 10000000 		.4byte	.LVL177
 6228 059d E6000000 		.4byte	.LVL201
 6229 05a1 0100     		.2byte	0x1
 6230 05a3 56       		.byte	0x56
 6231 05a4 E6000000 		.4byte	.LVL201
 6232 05a8 1E020000 		.4byte	.LVL240
 6233 05ac 0100     		.2byte	0x1
 6234 05ae 59       		.byte	0x59
 6235 05af 1E020000 		.4byte	.LVL240
 6236 05b3 2A020000 		.4byte	.LVL241
 6237 05b7 0100     		.2byte	0x1
 6238 05b9 56       		.byte	0x56
 6239 05ba 2A020000 		.4byte	.LVL241
 6240 05be A8030000 		.4byte	.LVL282
 6241 05c2 0100     		.2byte	0x1
 6242 05c4 59       		.byte	0x59
 6243 05c5 00000000 		.4byte	0
 6244 05c9 00000000 		.4byte	0
 6245              	.LLST34:
 6246 05cd 10000000 		.4byte	.LVL177
 6247 05d1 E6000000 		.4byte	.LVL201
 6248 05d5 0100     		.2byte	0x1
 6249 05d7 56       		.byte	0x56
 6250 05d8 E6000000 		.4byte	.LVL201
 6251 05dc 1E020000 		.4byte	.LVL240
 6252 05e0 0100     		.2byte	0x1
 6253 05e2 5B       		.byte	0x5b
 6254 05e3 1E020000 		.4byte	.LVL240
 6255 05e7 2A020000 		.4byte	.LVL241
 6256 05eb 0100     		.2byte	0x1
 6257 05ed 56       		.byte	0x56
 6258 05ee 2A020000 		.4byte	.LVL241
 6259 05f2 A8030000 		.4byte	.LVL282
 6260 05f6 0100     		.2byte	0x1
 6261 05f8 5B       		.byte	0x5b
 6262 05f9 00000000 		.4byte	0
 6263 05fd 00000000 		.4byte	0
 6264              	.LLST35:
 6265 0601 10000000 		.4byte	.LVL177
 6266 0605 72000000 		.4byte	.LVL188
 6267 0609 0200     		.2byte	0x2
 6268 060b 30       		.byte	0x30
 6269 060c 9F       		.byte	0x9f
 6270 060d 72000000 		.4byte	.LVL188
 6271 0611 B6000000 		.4byte	.LVL195
 6272 0615 0200     		.2byte	0x2
 6273 0617 91       		.byte	0x91
 6274 0618 40       		.sleb128 -64
 6275 0619 B8000000 		.4byte	.LVL196
 6276 061d 44010000 		.4byte	.LVL215
 6277 0621 0200     		.2byte	0x2
 6278 0623 91       		.byte	0x91
 6279 0624 40       		.sleb128 -64
 6280 0625 44010000 		.4byte	.LVL215
 6281 0629 4A010000 		.4byte	.LVL216
 6282 062d 0200     		.2byte	0x2
 6283 062f 30       		.byte	0x30
ARM GAS  C:\Users\Misha\AppData\Local\Temp\ccmv7pUT.s 			page 130


 6284 0630 9F       		.byte	0x9f
 6285 0631 4A010000 		.4byte	.LVL216
 6286 0635 64010000 		.4byte	.LVL219
 6287 0639 0200     		.2byte	0x2
 6288 063b 91       		.byte	0x91
 6289 063c 40       		.sleb128 -64
 6290 063d 64010000 		.4byte	.LVL219
 6291 0641 6A010000 		.4byte	.LVL220
 6292 0645 0200     		.2byte	0x2
 6293 0647 31       		.byte	0x31
 6294 0648 9F       		.byte	0x9f
 6295 0649 6A010000 		.4byte	.LVL220
 6296 064d A8030000 		.4byte	.LVL282
 6297 0651 0200     		.2byte	0x2
 6298 0653 91       		.byte	0x91
 6299 0654 40       		.sleb128 -64
 6300 0655 A8030000 		.4byte	.LVL282
 6301 0659 C0030000 		.4byte	.LFE66
 6302 065d 0200     		.2byte	0x2
 6303 065f 7D       		.byte	0x7d
 6304 0660 40       		.sleb128 -64
 6305 0661 00000000 		.4byte	0
 6306 0665 00000000 		.4byte	0
 6307              	.LLST36:
 6308 0669 7E000000 		.4byte	.LVL189
 6309 066d EC000000 		.4byte	.LVL203
 6310 0671 0100     		.2byte	0x1
 6311 0673 55       		.byte	0x55
 6312 0674 44010000 		.4byte	.LVL215
 6313 0678 4A010000 		.4byte	.LVL216
 6314 067c 0100     		.2byte	0x1
 6315 067e 55       		.byte	0x55
 6316 067f 64010000 		.4byte	.LVL219
 6317 0683 6A010000 		.4byte	.LVL220
 6318 0687 0100     		.2byte	0x1
 6319 0689 55       		.byte	0x55
 6320 068a 7C010000 		.4byte	.LVL223
 6321 068e 4C020000 		.4byte	.LVL244
 6322 0692 0100     		.2byte	0x1
 6323 0694 55       		.byte	0x55
 6324 0695 9C020000 		.4byte	.LVL256
 6325 0699 78030000 		.4byte	.LVL275
 6326 069d 0100     		.2byte	0x1
 6327 069f 55       		.byte	0x55
 6328 06a0 00000000 		.4byte	0
 6329 06a4 00000000 		.4byte	0
 6330              	.LLST37:
 6331 06a8 10000000 		.4byte	.LVL177
 6332 06ac E6000000 		.4byte	.LVL201
 6333 06b0 0400     		.2byte	0x4
 6334 06b2 0B       		.byte	0xb
 6335 06b3 3FFE     		.2byte	0xfe3f
 6336 06b5 9F       		.byte	0x9f
 6337 06b6 E6000000 		.4byte	.LVL201
 6338 06ba CA010000 		.4byte	.LVL232
 6339 06be 0300     		.2byte	0x3
 6340 06c0 91       		.byte	0x91
ARM GAS  C:\Users\Misha\AppData\Local\Temp\ccmv7pUT.s 			page 131


 6341 06c1 B47F     		.sleb128 -76
 6342 06c3 CA010000 		.4byte	.LVL232
 6343 06c7 D4010000 		.4byte	.LVL233
 6344 06cb 0200     		.2byte	0x2
 6345 06cd 91       		.byte	0x91
 6346 06ce 48       		.sleb128 -56
 6347 06cf D4010000 		.4byte	.LVL233
 6348 06d3 18020000 		.4byte	.LVL239
 6349 06d7 0300     		.2byte	0x3
 6350 06d9 91       		.byte	0x91
 6351 06da B47F     		.sleb128 -76
 6352 06dc 18020000 		.4byte	.LVL239
 6353 06e0 1E020000 		.4byte	.LVL240
 6354 06e4 0200     		.2byte	0x2
 6355 06e6 91       		.byte	0x91
 6356 06e7 48       		.sleb128 -56
 6357 06e8 1E020000 		.4byte	.LVL240
 6358 06ec 2A020000 		.4byte	.LVL241
 6359 06f0 0400     		.2byte	0x4
 6360 06f2 0B       		.byte	0xb
 6361 06f3 3FFE     		.2byte	0xfe3f
 6362 06f5 9F       		.byte	0x9f
 6363 06f6 2A020000 		.4byte	.LVL241
 6364 06fa EA020000 		.4byte	.LVL265
 6365 06fe 0300     		.2byte	0x3
 6366 0700 91       		.byte	0x91
 6367 0701 B47F     		.sleb128 -76
 6368 0703 EA020000 		.4byte	.LVL265
 6369 0707 F4020000 		.4byte	.LVL266
 6370 070b 0200     		.2byte	0x2
 6371 070d 91       		.byte	0x91
 6372 070e 40       		.sleb128 -64
 6373 070f F4020000 		.4byte	.LVL266
 6374 0713 56030000 		.4byte	.LVL272
 6375 0717 0300     		.2byte	0x3
 6376 0719 91       		.byte	0x91
 6377 071a B47F     		.sleb128 -76
 6378 071c 56030000 		.4byte	.LVL272
 6379 0720 5A030000 		.4byte	.LVL273
 6380 0724 0200     		.2byte	0x2
 6381 0726 91       		.byte	0x91
 6382 0727 40       		.sleb128 -64
 6383 0728 5A030000 		.4byte	.LVL273
 6384 072c A8030000 		.4byte	.LVL282
 6385 0730 0300     		.2byte	0x3
 6386 0732 91       		.byte	0x91
 6387 0733 B47F     		.sleb128 -76
 6388 0735 A8030000 		.4byte	.LVL282
 6389 0739 C0030000 		.4byte	.LFE66
 6390 073d 0300     		.2byte	0x3
 6391 073f 7D       		.byte	0x7d
 6392 0740 B47F     		.sleb128 -76
 6393 0742 00000000 		.4byte	0
 6394 0746 00000000 		.4byte	0
 6395              	.LLST38:
 6396 074a 10000000 		.4byte	.LVL177
 6397 074e E6000000 		.4byte	.LVL201
ARM GAS  C:\Users\Misha\AppData\Local\Temp\ccmv7pUT.s 			page 132


 6398 0752 0200     		.2byte	0x2
 6399 0754 30       		.byte	0x30
 6400 0755 9F       		.byte	0x9f
 6401 0756 E6000000 		.4byte	.LVL201
 6402 075a CA010000 		.4byte	.LVL232
 6403 075e 0100     		.2byte	0x1
 6404 0760 57       		.byte	0x57
 6405 0761 CA010000 		.4byte	.LVL232
 6406 0765 D4010000 		.4byte	.LVL233
 6407 0769 0100     		.2byte	0x1
 6408 076b 50       		.byte	0x50
 6409 076c D4010000 		.4byte	.LVL233
 6410 0770 1E020000 		.4byte	.LVL240
 6411 0774 0100     		.2byte	0x1
 6412 0776 57       		.byte	0x57
 6413 0777 1E020000 		.4byte	.LVL240
 6414 077b 2A020000 		.4byte	.LVL241
 6415 077f 0200     		.2byte	0x2
 6416 0781 30       		.byte	0x30
 6417 0782 9F       		.byte	0x9f
 6418 0783 2A020000 		.4byte	.LVL241
 6419 0787 EA020000 		.4byte	.LVL265
 6420 078b 0100     		.2byte	0x1
 6421 078d 57       		.byte	0x57
 6422 078e EA020000 		.4byte	.LVL265
 6423 0792 F4020000 		.4byte	.LVL266
 6424 0796 0100     		.2byte	0x1
 6425 0798 50       		.byte	0x50
 6426 0799 F4020000 		.4byte	.LVL266
 6427 079d A8030000 		.4byte	.LVL282
 6428 07a1 0100     		.2byte	0x1
 6429 07a3 57       		.byte	0x57
 6430 07a4 00000000 		.4byte	0
 6431 07a8 00000000 		.4byte	0
 6432              	.LLST39:
 6433 07ac 40000000 		.4byte	.LVL183
 6434 07b0 A8030000 		.4byte	.LVL282
 6435 07b4 0200     		.2byte	0x2
 6436 07b6 91       		.byte	0x91
 6437 07b7 54       		.sleb128 -44
 6438 07b8 A8030000 		.4byte	.LVL282
 6439 07bc C0030000 		.4byte	.LFE66
 6440 07c0 0200     		.2byte	0x2
 6441 07c2 7D       		.byte	0x7d
 6442 07c3 54       		.sleb128 -44
 6443 07c4 00000000 		.4byte	0
 6444 07c8 00000000 		.4byte	0
 6445              	.LLST40:
 6446 07cc 40000000 		.4byte	.LVL183
 6447 07d0 A8030000 		.4byte	.LVL282
 6448 07d4 0200     		.2byte	0x2
 6449 07d6 91       		.byte	0x91
 6450 07d7 50       		.sleb128 -48
 6451 07d8 A8030000 		.4byte	.LVL282
 6452 07dc C0030000 		.4byte	.LFE66
 6453 07e0 0200     		.2byte	0x2
 6454 07e2 7D       		.byte	0x7d
ARM GAS  C:\Users\Misha\AppData\Local\Temp\ccmv7pUT.s 			page 133


 6455 07e3 50       		.sleb128 -48
 6456 07e4 00000000 		.4byte	0
 6457 07e8 00000000 		.4byte	0
 6458              	.LLST41:
 6459 07ec 8C010000 		.4byte	.LVL225
 6460 07f0 CA010000 		.4byte	.LVL232
 6461 07f4 0200     		.2byte	0x2
 6462 07f6 31       		.byte	0x31
 6463 07f7 9F       		.byte	0x9f
 6464 07f8 CA010000 		.4byte	.LVL232
 6465 07fc D4010000 		.4byte	.LVL233
 6466 0800 0200     		.2byte	0x2
 6467 0802 30       		.byte	0x30
 6468 0803 9F       		.byte	0x9f
 6469 0804 D4010000 		.4byte	.LVL233
 6470 0808 DE010000 		.4byte	.LVL234
 6471 080c 0200     		.2byte	0x2
 6472 080e 31       		.byte	0x31
 6473 080f 9F       		.byte	0x9f
 6474 0810 DE010000 		.4byte	.LVL234
 6475 0814 18020000 		.4byte	.LVL239
 6476 0818 0100     		.2byte	0x1
 6477 081a 58       		.byte	0x58
 6478 081b 18020000 		.4byte	.LVL239
 6479 081f 1E020000 		.4byte	.LVL240
 6480 0823 0200     		.2byte	0x2
 6481 0825 31       		.byte	0x31
 6482 0826 9F       		.byte	0x9f
 6483 0827 00000000 		.4byte	0
 6484 082b 00000000 		.4byte	0
 6485              	.LLST42:
 6486 082f AC020000 		.4byte	.LVL258
 6487 0833 EA020000 		.4byte	.LVL265
 6488 0837 0200     		.2byte	0x2
 6489 0839 31       		.byte	0x31
 6490 083a 9F       		.byte	0x9f
 6491 083b EA020000 		.4byte	.LVL265
 6492 083f F4020000 		.4byte	.LVL266
 6493 0843 0200     		.2byte	0x2
 6494 0845 30       		.byte	0x30
 6495 0846 9F       		.byte	0x9f
 6496 0847 F4020000 		.4byte	.LVL266
 6497 084b 1C030000 		.4byte	.LVL267
 6498 084f 0200     		.2byte	0x2
 6499 0851 31       		.byte	0x31
 6500 0852 9F       		.byte	0x9f
 6501 0853 1C030000 		.4byte	.LVL267
 6502 0857 56030000 		.4byte	.LVL272
 6503 085b 0100     		.2byte	0x1
 6504 085d 58       		.byte	0x58
 6505 085e 56030000 		.4byte	.LVL272
 6506 0862 5A030000 		.4byte	.LVL273
 6507 0866 0200     		.2byte	0x2
 6508 0868 31       		.byte	0x31
 6509 0869 9F       		.byte	0x9f
 6510 086a 00000000 		.4byte	0
 6511 086e 00000000 		.4byte	0
ARM GAS  C:\Users\Misha\AppData\Local\Temp\ccmv7pUT.s 			page 134


 6512              	.LLST43:
 6513 0872 26000000 		.4byte	.LVL290
 6514 0876 5A000000 		.4byte	.LVL299
 6515 087a 0100     		.2byte	0x1
 6516 087c 54       		.byte	0x54
 6517 087d 60000000 		.4byte	.LVL300
 6518 0881 70000000 		.4byte	.LFE72
 6519 0885 0100     		.2byte	0x1
 6520 0887 54       		.byte	0x54
 6521 0888 00000000 		.4byte	0
 6522 088c 00000000 		.4byte	0
 6523              	.LLST44:
 6524 0890 02000000 		.4byte	.LVL283
 6525 0894 2C000000 		.4byte	.LVL291
 6526 0898 0200     		.2byte	0x2
 6527 089a 30       		.byte	0x30
 6528 089b 9F       		.byte	0x9f
 6529 089c 2C000000 		.4byte	.LVL291
 6530 08a0 4E000000 		.4byte	.LVL297
 6531 08a4 0100     		.2byte	0x1
 6532 08a6 55       		.byte	0x55
 6533 08a7 4E000000 		.4byte	.LVL297
 6534 08ab 60000000 		.4byte	.LVL300
 6535 08af 0100     		.2byte	0x1
 6536 08b1 54       		.byte	0x54
 6537 08b2 60000000 		.4byte	.LVL300
 6538 08b6 70000000 		.4byte	.LFE72
 6539 08ba 0100     		.2byte	0x1
 6540 08bc 55       		.byte	0x55
 6541 08bd 00000000 		.4byte	0
 6542 08c1 00000000 		.4byte	0
 6543              	.LLST45:
 6544 08c5 02000000 		.4byte	.LVL283
 6545 08c9 2C000000 		.4byte	.LVL291
 6546 08cd 0200     		.2byte	0x2
 6547 08cf 32       		.byte	0x32
 6548 08d0 9F       		.byte	0x9f
 6549 08d1 2C000000 		.4byte	.LVL291
 6550 08d5 6A000000 		.4byte	.LVL301
 6551 08d9 0100     		.2byte	0x1
 6552 08db 56       		.byte	0x56
 6553 08dc 00000000 		.4byte	0
 6554 08e0 00000000 		.4byte	0
 6555              	.LLST46:
 6556 08e4 26000000 		.4byte	.LVL290
 6557 08e8 2C000000 		.4byte	.LVL291
 6558 08ec 0100     		.2byte	0x1
 6559 08ee 54       		.byte	0x54
 6560 08ef 00000000 		.4byte	0
 6561 08f3 00000000 		.4byte	0
 6562              	.LLST47:
 6563 08f7 00000000 		.4byte	.LVL316
 6564 08fb 0A000000 		.4byte	.LVL317
 6565 08ff 0100     		.2byte	0x1
 6566 0901 50       		.byte	0x50
 6567 0902 0A000000 		.4byte	.LVL317
 6568 0906 5C000000 		.4byte	.LFE76
ARM GAS  C:\Users\Misha\AppData\Local\Temp\ccmv7pUT.s 			page 135


 6569 090a 0100     		.2byte	0x1
 6570 090c 55       		.byte	0x55
 6571 090d 00000000 		.4byte	0
 6572 0911 00000000 		.4byte	0
 6573              	.LLST48:
 6574 0915 1A000000 		.4byte	.LVL320
 6575 0919 38000000 		.4byte	.LVL325
 6576 091d 0100     		.2byte	0x1
 6577 091f 56       		.byte	0x56
 6578 0920 3A000000 		.4byte	.LVL326
 6579 0924 5C000000 		.4byte	.LFE76
 6580 0928 0100     		.2byte	0x1
 6581 092a 56       		.byte	0x56
 6582 092b 00000000 		.4byte	0
 6583 092f 00000000 		.4byte	0
 6584              	.LLST49:
 6585 0933 1A000000 		.4byte	.LVL320
 6586 0937 1C000000 		.4byte	.LVL321
 6587 093b 0200     		.2byte	0x2
 6588 093d 30       		.byte	0x30
 6589 093e 9F       		.byte	0x9f
 6590 093f 1C000000 		.4byte	.LVL321
 6591 0943 5C000000 		.4byte	.LFE76
 6592 0947 0100     		.2byte	0x1
 6593 0949 54       		.byte	0x54
 6594 094a 00000000 		.4byte	0
 6595 094e 00000000 		.4byte	0
 6596              		.section	.debug_aranges,"",%progbits
 6597 0000 7C000000 		.4byte	0x7c
 6598 0004 0200     		.2byte	0x2
 6599 0006 00000000 		.4byte	.Ldebug_info0
 6600 000a 04       		.byte	0x4
 6601 000b 00       		.byte	0
 6602 000c 0000     		.2byte	0
 6603 000e 0000     		.2byte	0
 6604 0010 00000000 		.4byte	.LFB64
 6605 0014 48000000 		.4byte	.LFE64-.LFB64
 6606 0018 00000000 		.4byte	.LFB65
 6607 001c D0000000 		.4byte	.LFE65-.LFB65
 6608 0020 00000000 		.4byte	.LFB67
 6609 0024 3C000000 		.4byte	.LFE67-.LFB67
 6610 0028 00000000 		.4byte	.LFB68
 6611 002c 4C010000 		.4byte	.LFE68-.LFB68
 6612 0030 00000000 		.4byte	.LFB69
 6613 0034 84000000 		.4byte	.LFE69-.LFB69
 6614 0038 00000000 		.4byte	.LFB71
 6615 003c 1C020000 		.4byte	.LFE71-.LFB71
 6616 0040 00000000 		.4byte	.LFB70
 6617 0044 3C000000 		.4byte	.LFE70-.LFB70
 6618 0048 00000000 		.4byte	.LFB66
 6619 004c C0030000 		.4byte	.LFE66-.LFB66
 6620 0050 00000000 		.4byte	.LFB72
 6621 0054 70000000 		.4byte	.LFE72-.LFB72
 6622 0058 00000000 		.4byte	.LFB73
 6623 005c 64000000 		.4byte	.LFE73-.LFB73
 6624 0060 00000000 		.4byte	.LFB74
 6625 0064 02000000 		.4byte	.LFE74-.LFB74
ARM GAS  C:\Users\Misha\AppData\Local\Temp\ccmv7pUT.s 			page 136


 6626 0068 00000000 		.4byte	.LFB75
 6627 006c 02000000 		.4byte	.LFE75-.LFB75
 6628 0070 00000000 		.4byte	.LFB76
 6629 0074 5C000000 		.4byte	.LFE76-.LFB76
 6630 0078 00000000 		.4byte	0
 6631 007c 00000000 		.4byte	0
 6632              		.section	.debug_ranges,"",%progbits
 6633              	.Ldebug_ranges0:
 6634 0000 00000000 		.4byte	.LFB64
 6635 0004 48000000 		.4byte	.LFE64
 6636 0008 00000000 		.4byte	.LFB65
 6637 000c D0000000 		.4byte	.LFE65
 6638 0010 00000000 		.4byte	.LFB67
 6639 0014 3C000000 		.4byte	.LFE67
 6640 0018 00000000 		.4byte	.LFB68
 6641 001c 4C010000 		.4byte	.LFE68
 6642 0020 00000000 		.4byte	.LFB69
 6643 0024 84000000 		.4byte	.LFE69
 6644 0028 00000000 		.4byte	.LFB71
 6645 002c 1C020000 		.4byte	.LFE71
 6646 0030 00000000 		.4byte	.LFB70
 6647 0034 3C000000 		.4byte	.LFE70
 6648 0038 00000000 		.4byte	.LFB66
 6649 003c C0030000 		.4byte	.LFE66
 6650 0040 00000000 		.4byte	.LFB72
 6651 0044 70000000 		.4byte	.LFE72
 6652 0048 00000000 		.4byte	.LFB73
 6653 004c 64000000 		.4byte	.LFE73
 6654 0050 00000000 		.4byte	.LFB74
 6655 0054 02000000 		.4byte	.LFE74
 6656 0058 00000000 		.4byte	.LFB75
 6657 005c 02000000 		.4byte	.LFE75
 6658 0060 00000000 		.4byte	.LFB76
 6659 0064 5C000000 		.4byte	.LFE76
 6660 0068 00000000 		.4byte	0
 6661 006c 00000000 		.4byte	0
 6662              		.section	.debug_line,"",%progbits
 6663              	.Ldebug_line0:
 6664 0000 98050000 		.section	.debug_str,"MS",%progbits,1
 6664      0200C402 
 6664      00000201 
 6664      FB0E0D00 
 6664      01010101 
 6665              	.LASF100:
 6666 0000 61726D4F 		.ascii	"armOpen\000"
 6666      70656E00 
 6667              	.LASF35:
 6668 0008 756C7472 		.ascii	"ultrasonic_sensor\000"
 6668      61736F6E 
 6668      69635F73 
 6668      656E736F 
 6668      7200
 6669              	.LASF28:
 6670 001a 6F726965 		.ascii	"orientation_change\000"
 6670      6E746174 
 6670      696F6E5F 
 6670      6368616E 
ARM GAS  C:\Users\Misha\AppData\Local\Temp\ccmv7pUT.s 			page 137


 6670      676500
 6671              	.LASF26:
 6672 002d 6368616E 		.ascii	"changeOrientation\000"
 6672      67654F72 
 6672      69656E74 
 6672      6174696F 
 6672      6E00
 6673              	.LASF41:
 6674 003f 66726F6E 		.ascii	"front_right\000"
 6674      745F7269 
 6674      67687400 
 6675              	.LASF55:
 6676 004b 73696465 		.ascii	"side_prox_sensor\000"
 6676      5F70726F 
 6676      785F7365 
 6676      6E736F72 
 6676      00
 6677              	.LASF52:
 6678 005c 61637469 		.ascii	"activate_safety\000"
 6678      76617465 
 6678      5F736166 
 6678      65747900 
 6679              	.LASF99:
 6680 006c 4D6F746F 		.ascii	"Motor_Right_Driver_WriteCompare\000"
 6680      725F5269 
 6680      6768745F 
 6680      44726976 
 6680      65725F57 
 6681              	.LASF43:
 6682 008c 746F6C65 		.ascii	"tolerance\000"
 6682      72616E63 
 6682      6500
 6683              	.LASF61:
 6684 0096 64697374 		.ascii	"distance_previous\000"
 6684      616E6365 
 6684      5F707265 
 6684      76696F75 
 6684      7300
 6685              	.LASF24:
 6686 00a8 73706565 		.ascii	"speed_left\000"
 6686      645F6C65 
 6686      667400
 6687              	.LASF93:
 6688 00b3 636F6C6F 		.ascii	"colourSensingOutput\000"
 6688      75725365 
 6688      6E73696E 
 6688      674F7574 
 6688      70757400 
 6689              	.LASF82:
 6690 00c7 7475726E 		.ascii	"turningLeftFlag\000"
 6690      696E674C 
 6690      65667446 
 6690      6C616700 
 6691              	.LASF88:
 6692 00d7 7075636B 		.ascii	"puckConstructionPlan\000"
 6692      436F6E73 
 6692      74727563 
ARM GAS  C:\Users\Misha\AppData\Local\Temp\ccmv7pUT.s 			page 138


 6692      74696F6E 
 6692      506C616E 
 6693              	.LASF102:
 6694 00ec 4D6F746F 		.ascii	"Motor_Right_Decoder_GetCounter\000"
 6694      725F5269 
 6694      6768745F 
 6694      4465636F 
 6694      6465725F 
 6695              	.LASF29:
 6696 010b 64656772 		.ascii	"degree_change\000"
 6696      65655F63 
 6696      68616E67 
 6696      6500
 6697              	.LASF116:
 6698 0119 6E617669 		.ascii	"navigation.c\000"
 6698      67617469 
 6698      6F6E2E63 
 6698      00
 6699              	.LASF80:
 6700 0126 64726976 		.ascii	"drivingForwardFlag\000"
 6700      696E6746 
 6700      6F727761 
 6700      7264466C 
 6700      616700
 6701              	.LASF15:
 6702 0139 73697A65 		.ascii	"sizetype\000"
 6702      74797065 
 6702      00
 6703              	.LASF42:
 6704 0142 64696666 		.ascii	"difference\000"
 6704      6572656E 
 6704      636500
 6705              	.LASF40:
 6706 014d 66726F6E 		.ascii	"front_left\000"
 6706      745F6C65 
 6706      667400
 6707              	.LASF70:
 6708 0158 61626F76 		.ascii	"above_minimum_count\000"
 6708      655F6D69 
 6708      6E696D75 
 6708      6D5F636F 
 6708      756E7400 
 6709              	.LASF33:
 6710 016c 64697265 		.ascii	"direction\000"
 6710      6374696F 
 6710      6E00
 6711              	.LASF14:
 6712 0176 6C6F6E67 		.ascii	"long double\000"
 6712      20646F75 
 6712      626C6500 
 6713              	.LASF37:
 6714 0182 64697374 		.ascii	"distance_sensor\000"
 6714      616E6365 
 6714      5F73656E 
 6714      736F7200 
 6715              	.LASF38:
 6716 0192 63686563 		.ascii	"check_distance\000"
ARM GAS  C:\Users\Misha\AppData\Local\Temp\ccmv7pUT.s 			page 139


 6716      6B5F6469 
 6716      7374616E 
 6716      636500
 6717              	.LASF86:
 6718 01a1 756C7472 		.ascii	"ultrasonic_distances_mm\000"
 6718      61736F6E 
 6718      69635F64 
 6718      69737461 
 6718      6E636573 
 6719              	.LASF87:
 6720 01b9 756C7472 		.ascii	"ultrasonic_flag\000"
 6720      61736F6E 
 6720      69635F66 
 6720      6C616700 
 6721              	.LASF54:
 6722 01c9 656D6572 		.ascii	"emergency_exit\000"
 6722      67656E63 
 6722      795F6578 
 6722      697400
 6723              	.LASF2:
 6724 01d8 73686F72 		.ascii	"short int\000"
 6724      7420696E 
 6724      7400
 6725              	.LASF76:
 6726 01e2 7075636B 		.ascii	"puckRackOffsetsFromWest\000"
 6726      5261636B 
 6726      4F666673 
 6726      65747346 
 6726      726F6D57 
 6727              	.LASF107:
 6728 01fa 4D6F746F 		.ascii	"Motor_Left_Decoder_SetCounter\000"
 6728      725F4C65 
 6728      66745F44 
 6728      65636F64 
 6728      65725F53 
 6729              	.LASF68:
 6730 0218 73656E73 		.ascii	"sensor\000"
 6730      6F7200
 6731              	.LASF113:
 6732 021f 64697374 		.ascii	"distanceSensor\000"
 6732      616E6365 
 6732      53656E73 
 6732      6F7200
 6733              	.LASF50:
 6734 022e 7472616E 		.ascii	"translate_direction\000"
 6734      736C6174 
 6734      655F6469 
 6734      72656374 
 6734      696F6E00 
 6735              	.LASF95:
 6736 0242 4D6F746F 		.ascii	"Motor_Right_Control_Write\000"
 6736      725F5269 
 6736      6768745F 
 6736      436F6E74 
 6736      726F6C5F 
 6737              	.LASF62:
 6738 025c 6D696E69 		.ascii	"minimum_distance\000"
ARM GAS  C:\Users\Misha\AppData\Local\Temp\ccmv7pUT.s 			page 140


 6738      6D756D5F 
 6738      64697374 
 6738      616E6365 
 6738      00
 6739              	.LASF64:
 6740 026d 626C6F63 		.ascii	"blockAndPuckZoneFinding\000"
 6740      6B416E64 
 6740      5075636B 
 6740      5A6F6E65 
 6740      46696E64 
 6741              	.LASF16:
 6742 0285 7075636B 		.ascii	"puck_correct\000"
 6742      5F636F72 
 6742      72656374 
 6742      00
 6743              	.LASF83:
 6744 0292 7475726E 		.ascii	"turningRightFlag\000"
 6744      696E6752 
 6744      69676874 
 6744      466C6167 
 6744      00
 6745              	.LASF11:
 6746 02a3 666C6F61 		.ascii	"float\000"
 6746      7400
 6747              	.LASF32:
 6748 02a9 64697374 		.ascii	"distance_set\000"
 6748      616E6365 
 6748      5F736574 
 6748      00
 6749              	.LASF6:
 6750 02b6 6C6F6E67 		.ascii	"long long int\000"
 6750      206C6F6E 
 6750      6720696E 
 6750      7400
 6751              	.LASF110:
 6752 02c4 4D6F746F 		.ascii	"Motor_Right_Driver_Sleep\000"
 6752      725F5269 
 6752      6768745F 
 6752      44726976 
 6752      65725F53 
 6753              	.LASF4:
 6754 02dd 6C6F6E67 		.ascii	"long int\000"
 6754      20696E74 
 6754      00
 6755              	.LASF72:
 6756 02e6 696E7465 		.ascii	"internal_orientation\000"
 6756      726E616C 
 6756      5F6F7269 
 6756      656E7461 
 6756      74696F6E 
 6757              	.LASF23:
 6758 02fb 636F756E 		.ascii	"count_left\000"
 6758      745F6C65 
 6758      667400
 6759              	.LASF10:
 6760 0306 696E7433 		.ascii	"int32_t\000"
 6760      325F7400 
ARM GAS  C:\Users\Misha\AppData\Local\Temp\ccmv7pUT.s 			page 141


 6761              	.LASF91:
 6762 030e 73616665 		.ascii	"safety_override\000"
 6762      74795F6F 
 6762      76657272 
 6762      69646500 
 6763              	.LASF81:
 6764 031e 64726976 		.ascii	"drivingBackwardFlag\000"
 6764      696E6742 
 6764      61636B77 
 6764      61726446 
 6764      6C616700 
 6765              	.LASF108:
 6766 0332 4D6F746F 		.ascii	"Motor_Right_Decoder_SetCounter\000"
 6766      725F5269 
 6766      6768745F 
 6766      4465636F 
 6766      6465725F 
 6767              	.LASF79:
 6768 0351 7075636B 		.ascii	"puckPileLocation\000"
 6768      50696C65 
 6768      4C6F6361 
 6768      74696F6E 
 6768      00
 6769              	.LASF44:
 6770 0362 6D61785F 		.ascii	"max_difference\000"
 6770      64696666 
 6770      6572656E 
 6770      636500
 6771              	.LASF101:
 6772 0371 636F6E74 		.ascii	"control_photodiode_Write\000"
 6772      726F6C5F 
 6772      70686F74 
 6772      6F64696F 
 6772      64655F57 
 6773              	.LASF74:
 6774 038a 63757272 		.ascii	"currentPuckRackScanningIndex\000"
 6774      656E7450 
 6774      75636B52 
 6774      61636B53 
 6774      63616E6E 
 6775              	.LASF66:
 6776 03a7 7075636B 		.ascii	"puck_threshold\000"
 6776      5F746872 
 6776      6573686F 
 6776      6C6400
 6777              	.LASF98:
 6778 03b6 4D6F746F 		.ascii	"Motor_Right_Driver_Wakeup\000"
 6778      725F5269 
 6778      6768745F 
 6778      44726976 
 6778      65725F57 
 6779              	.LASF63:
 6780 03d0 746F6C65 		.ascii	"toleranceCheck\000"
 6780      72616E63 
 6780      65436865 
 6780      636B00
 6781              	.LASF109:
ARM GAS  C:\Users\Misha\AppData\Local\Temp\ccmv7pUT.s 			page 142


 6782 03df 4D6F746F 		.ascii	"Motor_Left_Driver_Sleep\000"
 6782      725F4C65 
 6782      66745F44 
 6782      72697665 
 6782      725F536C 
 6783              	.LASF19:
 6784 03f7 6D6F7665 		.ascii	"moveUntilPuck\000"
 6784      556E7469 
 6784      6C507563 
 6784      6B00
 6785              	.LASF1:
 6786 0405 756E7369 		.ascii	"unsigned char\000"
 6786      676E6564 
 6786      20636861 
 6786      7200
 6787              	.LASF105:
 6788 0413 73707269 		.ascii	"sprintf\000"
 6788      6E746600 
 6789              	.LASF114:
 6790 041b 7472616E 		.ascii	"translateMoveDynamic\000"
 6790      736C6174 
 6790      654D6F76 
 6790      6544796E 
 6790      616D6963 
 6791              	.LASF18:
 6792 0430 61726D4D 		.ascii	"armMoving\000"
 6792      6F76696E 
 6792      6700
 6793              	.LASF0:
 6794 043a 7369676E 		.ascii	"signed char\000"
 6794      65642063 
 6794      68617200 
 6795              	.LASF78:
 6796 0446 626C6F63 		.ascii	"block_edge_location\000"
 6796      6B5F6564 
 6796      67655F6C 
 6796      6F636174 
 6796      696F6E00 
 6797              	.LASF7:
 6798 045a 6C6F6E67 		.ascii	"long long unsigned int\000"
 6798      206C6F6E 
 6798      6720756E 
 6798      7369676E 
 6798      65642069 
 6799              	.LASF8:
 6800 0471 756E7369 		.ascii	"unsigned int\000"
 6800      676E6564 
 6800      20696E74 
 6800      00
 6801              	.LASF21:
 6802 047e 73706565 		.ascii	"speed\000"
 6802      6400
 6803              	.LASF34:
 6804 0484 6C657373 		.ascii	"less_or_great\000"
 6804      5F6F725F 
 6804      67726561 
 6804      7400
ARM GAS  C:\Users\Misha\AppData\Local\Temp\ccmv7pUT.s 			page 143


 6805              	.LASF65:
 6806 0492 626C6F63 		.ascii	"block_threshold\000"
 6806      6B5F7468 
 6806      72657368 
 6806      6F6C6400 
 6807              	.LASF36:
 6808 04a2 6F6C645F 		.ascii	"old_count\000"
 6808      636F756E 
 6808      7400
 6809              	.LASF89:
 6810 04ac 63757272 		.ascii	"current_stage\000"
 6810      656E745F 
 6810      73746167 
 6810      6500
 6811              	.LASF3:
 6812 04ba 73686F72 		.ascii	"short unsigned int\000"
 6812      7420756E 
 6812      7369676E 
 6812      65642069 
 6812      6E7400
 6813              	.LASF57:
 6814 04cd 6661696C 		.ascii	"failsafe_alternator\000"
 6814      73616665 
 6814      5F616C74 
 6814      65726E61 
 6814      746F7200 
 6815              	.LASF31:
 6816 04e1 7472616E 		.ascii	"translateUntil\000"
 6816      736C6174 
 6816      65556E74 
 6816      696C00
 6817              	.LASF77:
 6818 04f0 73776565 		.ascii	"sweeping\000"
 6818      70696E67 
 6818      00
 6819              	.LASF13:
 6820 04f9 63686172 		.ascii	"char\000"
 6820      00
 6821              	.LASF39:
 6822 04fe 73747261 		.ascii	"straightAdjust\000"
 6822      69676874 
 6822      41646A75 
 6822      737400
 6823              	.LASF46:
 6824 050d 6661696C 		.ascii	"failsafeSideSensors\000"
 6824      73616665 
 6824      53696465 
 6824      53656E73 
 6824      6F727300 
 6825              	.LASF45:
 6826 0521 756C7472 		.ascii	"ultra_delay\000"
 6826      615F6465 
 6826      6C617900 
 6827              	.LASF90:
 6828 052d 636F6C6F 		.ascii	"colour_sensing_algorithm\000"
 6828      75725F73 
 6828      656E7369 
ARM GAS  C:\Users\Misha\AppData\Local\Temp\ccmv7pUT.s 			page 144


 6828      6E675F61 
 6828      6C676F72 
 6829              	.LASF60:
 6830 0546 64697374 		.ascii	"distance_check\000"
 6830      616E6365 
 6830      5F636865 
 6830      636B00
 6831              	.LASF20:
 6832 0555 7075636B 		.ascii	"puck_detect\000"
 6832      5F646574 
 6832      65637400 
 6833              	.LASF73:
 6834 0561 64726976 		.ascii	"driveStraightEnable\000"
 6834      65537472 
 6834      61696768 
 6834      74456E61 
 6834      626C6500 
 6835              	.LASF47:
 6836 0575 73696465 		.ascii	"side_sensing\000"
 6836      5F73656E 
 6836      73696E67 
 6836      00
 6837              	.LASF58:
 6838 0582 6661696C 		.ascii	"failsafe\000"
 6838      73616665 
 6838      00
 6839              	.LASF111:
 6840 058b 6D6F7665 		.ascii	"moveDynamic\000"
 6840      44796E61 
 6840      6D696300 
 6841              	.LASF5:
 6842 0597 6C6F6E67 		.ascii	"long unsigned int\000"
 6842      20756E73 
 6842      69676E65 
 6842      6420696E 
 6842      7400
 6843              	.LASF118:
 6844 05a9 6C6F6361 		.ascii	"locatePucks\000"
 6844      74655075 
 6844      636B7300 
 6845              	.LASF12:
 6846 05b5 646F7562 		.ascii	"double\000"
 6846      6C6500
 6847              	.LASF106:
 6848 05bc 55415254 		.ascii	"UART_1_PutString\000"
 6848      5F315F50 
 6848      75745374 
 6848      72696E67 
 6848      00
 6849              	.LASF69:
 6850 05cd 6D696E69 		.ascii	"minimum\000"
 6850      6D756D00 
 6851              	.LASF56:
 6852 05d5 696E6974 		.ascii	"initial_side_distance\000"
 6852      69616C5F 
 6852      73696465 
 6852      5F646973 
ARM GAS  C:\Users\Misha\AppData\Local\Temp\ccmv7pUT.s 			page 145


 6852      74616E63 
 6853              	.LASF94:
 6854 05eb 4D6F746F 		.ascii	"Motor_Left_Control_Write\000"
 6854      725F4C65 
 6854      66745F43 
 6854      6F6E7472 
 6854      6F6C5F57 
 6855              	.LASF53:
 6856 0604 66726F6E 		.ascii	"front_sensor_flag\000"
 6856      745F7365 
 6856      6E736F72 
 6856      5F666C61 
 6856      6700
 6857              	.LASF27:
 6858 0616 616C676F 		.ascii	"algorithm\000"
 6858      72697468 
 6858      6D00
 6859              	.LASF30:
 6860 0620 6368616E 		.ascii	"change\000"
 6860      676500
 6861              	.LASF48:
 6862 0627 696E6974 		.ascii	"initial_value\000"
 6862      69616C5F 
 6862      76616C75 
 6862      6500
 6863              	.LASF17:
 6864 0635 7075636B 		.ascii	"puck_scan\000"
 6864      5F736361 
 6864      6E00
 6865              	.LASF9:
 6866 063f 5F5F696E 		.ascii	"__int32_t\000"
 6866      7433325F 
 6866      7400
 6867              	.LASF75:
 6868 0649 7075636B 		.ascii	"puckRackColours\000"
 6868      5261636B 
 6868      436F6C6F 
 6868      75727300 
 6869              	.LASF117:
 6870 0659 433A5C55 		.ascii	"C:\\Users\\Misha\\Documents\\PSoC Creator\\ECE3091_"
 6870      73657273 
 6870      5C4D6973 
 6870      68615C44 
 6870      6F63756D 
 6871 0687 47726F75 		.ascii	"Group17\\Group17RobotReal\\Group17Robot.cydsn\000"
 6871      7031375C 
 6871      47726F75 
 6871      70313752 
 6871      6F626F74 
 6872              	.LASF49:
 6873 06b3 64726966 		.ascii	"drift_tolerance\000"
 6873      745F746F 
 6873      6C657261 
 6873      6E636500 
 6874              	.LASF51:
 6875 06c3 6D6F7665 		.ascii	"moveUntil\000"
 6875      556E7469 
ARM GAS  C:\Users\Misha\AppData\Local\Temp\ccmv7pUT.s 			page 146


 6875      6C00
 6876              	.LASF85:
 6877 06cd 6F757470 		.ascii	"output\000"
 6877      757400
 6878              	.LASF92:
 6879 06d4 6368616E 		.ascii	"changeHeightToPuck\000"
 6879      67654865 
 6879      69676874 
 6879      546F5075 
 6879      636B00
 6880              	.LASF103:
 6881 06e7 4D6F746F 		.ascii	"Motor_Left_Decoder_GetCounter\000"
 6881      725F4C65 
 6881      66745F44 
 6881      65636F64 
 6881      65725F47 
 6882              	.LASF59:
 6883 0705 73747261 		.ascii	"straightAdjustBack\000"
 6883      69676874 
 6883      41646A75 
 6883      73744261 
 6883      636B00
 6884              	.LASF71:
 6885 0718 49544D5F 		.ascii	"ITM_RxBuffer\000"
 6885      52784275 
 6885      66666572 
 6885      00
 6886              	.LASF115:
 6887 0725 474E5520 		.ascii	"GNU C11 5.4.1 20160609 (release) [ARM/embedded-5-br"
 6887      43313120 
 6887      352E342E 
 6887      31203230 
 6887      31363036 
 6888 0758 616E6368 		.ascii	"anch revision 237715] -mcpu=cortex-m3 -mthumb -g -O"
 6888      20726576 
 6888      6973696F 
 6888      6E203233 
 6888      37373135 
 6889 078b 67202D66 		.ascii	"g -ffunction-sections -ffat-lto-objects\000"
 6889      66756E63 
 6889      74696F6E 
 6889      2D736563 
 6889      74696F6E 
 6890              	.LASF104:
 6891 07b3 43794465 		.ascii	"CyDelay\000"
 6891      6C617900 
 6892              	.LASF22:
 6893 07bb 636F756E 		.ascii	"count_right\000"
 6893      745F7269 
 6893      67687400 
 6894              	.LASF25:
 6895 07c7 73706565 		.ascii	"speed_right\000"
 6895      645F7269 
 6895      67687400 
 6896              	.LASF112:
 6897 07d3 6D6F7665 		.ascii	"moveSwivel\000"
 6897      53776976 
ARM GAS  C:\Users\Misha\AppData\Local\Temp\ccmv7pUT.s 			page 147


 6897      656C00
 6898              	.LASF84:
 6899 07de 696E6974 		.ascii	"initialisation\000"
 6899      69616C69 
 6899      73617469 
 6899      6F6E00
 6900              	.LASF97:
 6901 07ed 4D6F746F 		.ascii	"Motor_Left_Driver_WriteCompare\000"
 6901      725F4C65 
 6901      66745F44 
 6901      72697665 
 6901      725F5772 
 6902              	.LASF96:
 6903 080c 4D6F746F 		.ascii	"Motor_Left_Driver_Wakeup\000"
 6903      725F4C65 
 6903      66745F44 
 6903      72697665 
 6903      725F5761 
 6904              	.LASF67:
 6905 0825 73747261 		.ascii	"straightAdjustSensor\000"
 6905      69676874 
 6905      41646A75 
 6905      73745365 
 6905      6E736F72 
 6906              		.ident	"GCC: (GNU Tools for ARM Embedded Processors) 5.4.1 20160609 (release) [ARM/embedded-5-bran
