ARM GAS  C:\Users\Misha\AppData\Local\Temp\ccnXDj66.s 			page 1


   1              		.syntax unified
   2              		.cpu cortex-m3
   3              		.fpu softvfp
   4              		.eabi_attribute 20, 1
   5              		.eabi_attribute 21, 1
   6              		.eabi_attribute 23, 3
   7              		.eabi_attribute 24, 1
   8              		.eabi_attribute 25, 1
   9              		.eabi_attribute 26, 1
  10              		.eabi_attribute 30, 1
  11              		.eabi_attribute 34, 1
  12              		.eabi_attribute 18, 4
  13              		.thumb
  14              		.syntax unified
  15              		.file	"servo.c"
  16              		.text
  17              	.Ltext0:
  18              		.cfi_sections	.debug_frame
  19              		.section	.text.armOpen,"ax",%progbits
  20              		.align	2
  21              		.global	armOpen
  22              		.thumb
  23              		.thumb_func
  24              		.type	armOpen, %function
  25              	armOpen:
  26              	.LFB64:
  27              		.file 1 "servo.c"
   1:servo.c       **** /* ========================================
   2:servo.c       ****  *
   3:servo.c       ****  * Copyright YOUR COMPANY, THE YEAR
   4:servo.c       ****  * All Rights Reserved
   5:servo.c       ****  * UNPUBLISHED, LICENSED SOFTWARE.
   6:servo.c       ****  *
   7:servo.c       ****  * CONFIDENTIAL AND PROPRIETARY INFORMATION
   8:servo.c       ****  * WHICH IS THE PROPERTY OF your company.
   9:servo.c       ****  *
  10:servo.c       ****  * ========================================
  11:servo.c       **** */
  12:servo.c       **** 
  13:servo.c       **** #include "servo.h"
  14:servo.c       **** #include "project.h"
  15:servo.c       **** #include "main.h"
  16:servo.c       **** 
  17:servo.c       **** // * C LIBRARIES * // 
  18:servo.c       **** #include <stdio.h>
  19:servo.c       **** #include <math.h>
  20:servo.c       **** 
  21:servo.c       **** 
  22:servo.c       **** //These are the values that correspond to open, closed, up and down positions of the 
  23:servo.c       **** //arm. These were found by experiment, so if need to recalibrate, you know where to go\
  24:servo.c       **** 
  25:servo.c       **** 
  26:servo.c       **** // Different positions of the arm:
  27:servo.c       ****     // Ground
  28:servo.c       ****     // 1 puck above
  29:servo.c       ****     // 2 pucks above
  30:servo.c       ****     // 3 pucks above
ARM GAS  C:\Users\Misha\AppData\Local\Temp\ccnXDj66.s 			page 2


  31:servo.c       ****     // 4 pucks above
  32:servo.c       **** //  When the puck is dropped off at the construction zone, the claw will lift up to the
  33:servo.c       **** //      next puck level before it moves away 
  34:servo.c       **** 
  35:servo.c       **** // Notes:
  36:servo.c       ****     // values written to the rack are always divisible by 10, in order to comply with the code writ
  37:servo.c       ****     // E.g.: 100,1000,1500,2300, etc.
  38:servo.c       **** 
  39:servo.c       **** #define LOW_POS_ARM_CMP 2400 
  40:servo.c       **** #define HIGH_POS_ARM_CMP 1000
  41:servo.c       **** 
  42:servo.c       **** # define ARM_POS_GROUND 2400    // Arm positioned at the ground
  43:servo.c       **** # define ARM_POS_1              // Arm positioned 1 pucks length above the ground (plus some tolera
  44:servo.c       **** # define ARM_POS_2              // Arm positioned 2...
  45:servo.c       **** # define ARM_POS_3
  46:servo.c       **** 
  47:servo.c       **** 
  48:servo.c       **** 
  49:servo.c       **** #define GRIPPER_OPEN 1120 //1170
  50:servo.c       **** #define GRIPPER_CLOSED 1250
  51:servo.c       **** 
  52:servo.c       **** void armOpen(){
  28              		.loc 1 52 0
  29              		.cfi_startproc
  30              		@ args = 0, pretend = 0, frame = 0
  31              		@ frame_needed = 0, uses_anonymous_args = 0
  32 0000 08B5     		push	{r3, lr}
  33              		.cfi_def_cfa_offset 8
  34              		.cfi_offset 3, -8
  35              		.cfi_offset 14, -4
  53:servo.c       ****     Gripper_Servo_PWM_Wakeup();                    // Brings the servo back from sleep
  36              		.loc 1 53 0
  37 0002 FFF7FEFF 		bl	Gripper_Servo_PWM_Wakeup
  38              	.LVL0:
  54:servo.c       ****     Gripper_Servo_PWM_WriteCompare(GRIPPER_OPEN); //1170 turns out to be vibrationless open val
  39              		.loc 1 54 0
  40 0006 4FF48C60 		mov	r0, #1120
  41 000a FFF7FEFF 		bl	Gripper_Servo_PWM_WriteCompare
  42              	.LVL1:
  55:servo.c       ****     CyDelay(500);
  43              		.loc 1 55 0
  44 000e 4FF4FA70 		mov	r0, #500
  45 0012 FFF7FEFF 		bl	CyDelay
  46              	.LVL2:
  56:servo.c       ****     Gripper_Servo_PWM_Sleep();                    // Puts Servo back to sleep
  47              		.loc 1 56 0
  48 0016 FFF7FEFF 		bl	Gripper_Servo_PWM_Sleep
  49              	.LVL3:
  50 001a 08BD     		pop	{r3, pc}
  51              		.cfi_endproc
  52              	.LFE64:
  53              		.size	armOpen, .-armOpen
  54              		.section	.text.armClose,"ax",%progbits
  55              		.align	2
  56              		.global	armClose
  57              		.thumb
  58              		.thumb_func
ARM GAS  C:\Users\Misha\AppData\Local\Temp\ccnXDj66.s 			page 3


  59              		.type	armClose, %function
  60              	armClose:
  61              	.LFB65:
  57:servo.c       **** }
  58:servo.c       **** 
  59:servo.c       **** void armClose(){
  62              		.loc 1 59 0
  63              		.cfi_startproc
  64              		@ args = 0, pretend = 0, frame = 0
  65              		@ frame_needed = 0, uses_anonymous_args = 0
  66 0000 08B5     		push	{r3, lr}
  67              		.cfi_def_cfa_offset 8
  68              		.cfi_offset 3, -8
  69              		.cfi_offset 14, -4
  60:servo.c       ****     Gripper_Servo_PWM_Wakeup();                    // Brings the servo back from sleep
  70              		.loc 1 60 0
  71 0002 FFF7FEFF 		bl	Gripper_Servo_PWM_Wakeup
  72              	.LVL4:
  61:servo.c       ****     Gripper_Servo_PWM_WriteCompare(GRIPPER_CLOSED); //1250 turns out to be a decent closed val
  73              		.loc 1 61 0
  74 0006 40F2E240 		movw	r0, #1250
  75 000a FFF7FEFF 		bl	Gripper_Servo_PWM_WriteCompare
  76              	.LVL5:
  62:servo.c       ****     CyDelay(500);
  77              		.loc 1 62 0
  78 000e 4FF4FA70 		mov	r0, #500
  79 0012 FFF7FEFF 		bl	CyDelay
  80              	.LVL6:
  63:servo.c       ****     Gripper_Servo_PWM_Sleep();                    // Puts Servo back to sleep
  81              		.loc 1 63 0
  82 0016 FFF7FEFF 		bl	Gripper_Servo_PWM_Sleep
  83              	.LVL7:
  84 001a 08BD     		pop	{r3, pc}
  85              		.cfi_endproc
  86              	.LFE65:
  87              		.size	armClose, .-armClose
  88              		.section	.text.armTranslate,"ax",%progbits
  89              		.align	2
  90              		.global	armTranslate
  91              		.thumb
  92              		.thumb_func
  93              		.type	armTranslate, %function
  94              	armTranslate:
  95              	.LFB66:
  64:servo.c       **** }
  65:servo.c       **** 
  66:servo.c       **** 
  67:servo.c       **** void armTranslate(int new_position){
  96              		.loc 1 67 0
  97              		.cfi_startproc
  98              		@ args = 0, pretend = 0, frame = 0
  99              		@ frame_needed = 0, uses_anonymous_args = 0
 100              	.LVL8:
  68:servo.c       ****     
  69:servo.c       ****     if (new_position > 2400 | new_position < 1000) {return;}    // if a value is inputed that is ba
 101              		.loc 1 69 0
 102 0000 A0F57A73 		sub	r3, r0, #1000
ARM GAS  C:\Users\Misha\AppData\Local\Temp\ccnXDj66.s 			page 4


 103 0004 B3F5AF6F 		cmp	r3, #1400
 104 0008 21D8     		bhi	.L10
  67:servo.c       ****     
 105              		.loc 1 67 0
 106 000a 70B5     		push	{r4, r5, r6, lr}
 107              		.cfi_def_cfa_offset 16
 108              		.cfi_offset 4, -16
 109              		.cfi_offset 5, -12
 110              		.cfi_offset 6, -8
 111              		.cfi_offset 14, -4
 112 000c 0546     		mov	r5, r0
  70:servo.c       ****                                                                 // function won't run
  71:servo.c       ****     
  72:servo.c       ****     Rack_Servo_PWM_Wakeup();                    // Brings the servo back from sleep
 113              		.loc 1 72 0
 114 000e FFF7FEFF 		bl	Rack_Servo_PWM_Wakeup
 115              	.LVL9:
  73:servo.c       ****     
  74:servo.c       ****     int current_position = Rack_Servo_PWM_ReadCompare();       // Reads the current value that the 
 116              		.loc 1 74 0
 117 0012 FFF7FEFF 		bl	Rack_Servo_PWM_ReadCompare
 118              	.LVL10:
 119 0016 0446     		mov	r4, r0
 120              	.LVL11:
  75:servo.c       ****                                                 // Higher servo value means ground (~2400)
  76:servo.c       ****                                                 // lower servo value means higher (max ~1400)
  77:servo.c       ****     
  78:servo.c       ****     int difference = (new_position - current_position)/10;
 121              		.loc 1 78 0
 122 0018 281A     		subs	r0, r5, r0
 123              	.LVL12:
 124 001a 0D4E     		ldr	r6, .L11
 125 001c 86FB0036 		smull	r3, r6, r6, r0
 126 0020 C017     		asrs	r0, r0, #31
 127 0022 C0EBA606 		rsb	r6, r0, r6, asr #2
 128              	.LVL13:
  79:servo.c       ****                                             //Step in 1/10th the amount
  80:servo.c       ****             // if arm_position > current_position then a negative value will be given to current_po
  81:servo.c       ****             // if arm_position < current_position then a positive value will be given to current_po
  82:servo.c       ****     
  83:servo.c       ****     // The below code ensures that the servo moves smoothly, so as not to vibrate and unintentially
  84:servo.c       ****     // drop the puck from the arm 
  85:servo.c       ****     while (current_position != new_position){
 129              		.loc 1 85 0
 130 0026 06E0     		b	.L7
 131              	.L8:
  86:servo.c       ****         current_position += difference;         
 132              		.loc 1 86 0
 133 0028 3444     		add	r4, r4, r6
 134              	.LVL14:
  87:servo.c       ****         Rack_Servo_PWM_WriteCompare(current_position);
 135              		.loc 1 87 0
 136 002a A0B2     		uxth	r0, r4
 137 002c FFF7FEFF 		bl	Rack_Servo_PWM_WriteCompare
 138              	.LVL15:
  88:servo.c       ****         CyDelay(10);
 139              		.loc 1 88 0
ARM GAS  C:\Users\Misha\AppData\Local\Temp\ccnXDj66.s 			page 5


 140 0030 0A20     		movs	r0, #10
 141 0032 FFF7FEFF 		bl	CyDelay
 142              	.LVL16:
 143              	.L7:
  85:servo.c       ****         current_position += difference;         
 144              		.loc 1 85 0
 145 0036 AC42     		cmp	r4, r5
 146 0038 F6D1     		bne	.L8
  89:servo.c       ****     }
  90:servo.c       ****     
  91:servo.c       ****     Rack_Servo_PWM_WriteCompare(new_position); // Reaches value set
 147              		.loc 1 91 0
 148 003a A8B2     		uxth	r0, r5
 149 003c FFF7FEFF 		bl	Rack_Servo_PWM_WriteCompare
 150              	.LVL17:
  92:servo.c       ****     
  93:servo.c       ****     CyDelay(500);                               // Holds for half a second? 
 151              		.loc 1 93 0
 152 0040 4FF4FA70 		mov	r0, #500
 153 0044 FFF7FEFF 		bl	CyDelay
 154              	.LVL18:
  94:servo.c       ****     
  95:servo.c       ****     Rack_Servo_PWM_Sleep();                    // Puts the servo back to sleep
 155              		.loc 1 95 0
 156 0048 FFF7FEFF 		bl	Rack_Servo_PWM_Sleep
 157              	.LVL19:
 158 004c 70BD     		pop	{r4, r5, r6, pc}
 159              	.LVL20:
 160              	.L10:
 161              		.cfi_def_cfa_offset 0
 162              		.cfi_restore 4
 163              		.cfi_restore 5
 164              		.cfi_restore 6
 165              		.cfi_restore 14
 166 004e 7047     		bx	lr
 167              	.L12:
 168              		.align	2
 169              	.L11:
 170 0050 67666666 		.word	1717986919
 171              		.cfi_endproc
 172              	.LFE66:
 173              		.size	armTranslate, .-armTranslate
 174              		.section	.text.changeHeightToPuck,"ax",%progbits
 175              		.align	2
 176              		.global	changeHeightToPuck
 177              		.thumb
 178              		.thumb_func
 179              		.type	changeHeightToPuck, %function
 180              	changeHeightToPuck:
 181              	.LFB67:
  96:servo.c       ****     
  97:servo.c       **** }
  98:servo.c       ****     
  99:servo.c       **** 
 100:servo.c       **** 
 101:servo.c       **** 
 102:servo.c       **** void changeHeightToPuck(int puckHeightIndex){
ARM GAS  C:\Users\Misha\AppData\Local\Temp\ccnXDj66.s 			page 6


 182              		.loc 1 102 0
 183              		.cfi_startproc
 184              		@ args = 0, pretend = 0, frame = 0
 185              		@ frame_needed = 0, uses_anonymous_args = 0
 186              	.LVL21:
 187 0000 08B5     		push	{r3, lr}
 188              		.cfi_def_cfa_offset 8
 189              		.cfi_offset 3, -8
 190              		.cfi_offset 14, -4
 103:servo.c       ****     
 104:servo.c       ****     // open gripper
 105:servo.c       ****     // down
 106:servo.c       ****     // move forward
 107:servo.c       ****     // close gripper 
 108:servo.c       ****    
 109:servo.c       ****     // Different positions of the arm:
 110:servo.c       ****     // Ground                               
 111:servo.c       ****     // 1 puck above
 112:servo.c       ****     // 2 pucks above
 113:servo.c       ****     // 3 pucks above                        
 114:servo.c       **** //  When the puck is dropped off at the construction zone, the claw will lift up to the
 115:servo.c       **** //      next puck level before it moves away 
 116:servo.c       ****     
 117:servo.c       ****     switch(puckHeightIndex){
 191              		.loc 1 117 0
 192 0002 0328     		cmp	r0, #3
 193 0004 17D8     		bhi	.L14
 194 0006 DFE800F0 		tbb	[pc, r0]
 195              	.L16:
 196 000a 02       		.byte	(.L15-.L16)/2
 197 000b 07       		.byte	(.L17-.L16)/2
 198 000c 0C       		.byte	(.L18-.L16)/2
 199 000d 11       		.byte	(.L19-.L16)/2
 200              		.p2align 1
 201              	.L15:
 118:servo.c       ****         case 0:                     // Ground
 119:servo.c       ****         armTranslate(2400);    break;
 202              		.loc 1 119 0
 203 000e 4FF41660 		mov	r0, #2400
 204              	.LVL22:
 205 0012 FFF7FEFF 		bl	armTranslate
 206              	.LVL23:
 207 0016 08BD     		pop	{r3, pc}
 208              	.LVL24:
 209              	.L17:
 120:servo.c       ****         case 1:                     // 1 puck above the ground
 121:servo.c       ****         armTranslate(1700);    break;
 210              		.loc 1 121 0
 211 0018 40F2A460 		movw	r0, #1700
 212              	.LVL25:
 213 001c FFF7FEFF 		bl	armTranslate
 214              	.LVL26:
 215 0020 08BD     		pop	{r3, pc}
 216              	.LVL27:
 217              	.L18:
 122:servo.c       ****         case 2:                     // 2 pucks above the ground
 123:servo.c       ****         armTranslate(1250);    break;
ARM GAS  C:\Users\Misha\AppData\Local\Temp\ccnXDj66.s 			page 7


 218              		.loc 1 123 0
 219 0022 40F2E240 		movw	r0, #1250
 220              	.LVL28:
 221 0026 FFF7FEFF 		bl	armTranslate
 222              	.LVL29:
 223 002a 08BD     		pop	{r3, pc}
 224              	.LVL30:
 225              	.L19:
 124:servo.c       ****         case 3:                     // 3 pucks above the ground
 125:servo.c       ****         armTranslate(1000);    break;
 226              		.loc 1 125 0
 227 002c 4FF47A70 		mov	r0, #1000
 228              	.LVL31:
 229 0030 FFF7FEFF 		bl	armTranslate
 230              	.LVL32:
 231 0034 08BD     		pop	{r3, pc}
 232              	.LVL33:
 233              	.L14:
 126:servo.c       ****                                     // also max height
 127:servo.c       ****                                     // also the position it will be in when driving (so that ultras
 128:servo.c       ****         default:                    // will be set to max height as default
 129:servo.c       ****         armTranslate(2400);    break;
 234              		.loc 1 129 0
 235 0036 4FF41660 		mov	r0, #2400
 236              	.LVL34:
 237 003a FFF7FEFF 		bl	armTranslate
 238              	.LVL35:
 239 003e 08BD     		pop	{r3, pc}
 240              		.cfi_endproc
 241              	.LFE67:
 242              		.size	changeHeightToPuck, .-changeHeightToPuck
 243              		.section	.text.servoDebugging,"ax",%progbits
 244              		.align	2
 245              		.global	servoDebugging
 246              		.thumb
 247              		.thumb_func
 248              		.type	servoDebugging, %function
 249              	servoDebugging:
 250              	.LFB68:
 130:servo.c       ****         break;
 131:servo.c       ****     }
 132:servo.c       ****     
 133:servo.c       ****     
 134:servo.c       ****     
 135:servo.c       ****     
 136:servo.c       **** }
 137:servo.c       **** 
 138:servo.c       **** void servoDebugging(void)
 139:servo.c       **** {
 251              		.loc 1 139 0
 252              		.cfi_startproc
 253              		@ args = 0, pretend = 0, frame = 0
 254              		@ frame_needed = 0, uses_anonymous_args = 0
 255              		@ link register save eliminated.
 256 0000 7047     		bx	lr
 257              		.cfi_endproc
 258              	.LFE68:
ARM GAS  C:\Users\Misha\AppData\Local\Temp\ccnXDj66.s 			page 8


 259              		.size	servoDebugging, .-servoDebugging
 260 0002 00BF     		.section	.text.armUp,"ax",%progbits
 261              		.align	2
 262              		.global	armUp
 263              		.thumb
 264              		.thumb_func
 265              		.type	armUp, %function
 266              	armUp:
 267              	.LFB69:
 140:servo.c       ****     
 141:servo.c       **** }
 142:servo.c       **** 
 143:servo.c       **** 
 144:servo.c       **** // NEW CODE WRITTEN BY MISHA: 
 145:servo.c       **** 
 146:servo.c       **** // POSITIONS needed:
 147:servo.c       ****     // Driving position - gripper is above the ultrasonic
 148:servo.c       ****     // picking up position - down, and then up
 149:servo.c       ****             // different switch cases - stage 1 height, stage 2 height, stage 3 height 
 150:servo.c       **** 
 151:servo.c       **** 
 152:servo.c       **** 
 153:servo.c       **** // OLD CODE:
 154:servo.c       **** 
 155:servo.c       **** //This is just for the prelim comp - final comp will have a more comprehensive function 
 156:servo.c       **** //that opens to 3 or 4 discrete heights for each of the pucks
 157:servo.c       **** void armUp(int arm_position){
 268              		.loc 1 157 0
 269              		.cfi_startproc
 270              		@ args = 0, pretend = 0, frame = 0
 271              		@ frame_needed = 0, uses_anonymous_args = 0
 272              	.LVL36:
 273              		.loc 1 157 0
 274 0000 38B5     		push	{r3, r4, r5, lr}
 275              		.cfi_def_cfa_offset 16
 276              		.cfi_offset 3, -16
 277              		.cfi_offset 4, -12
 278              		.cfi_offset 5, -8
 279              		.cfi_offset 14, -4
 280 0002 0546     		mov	r5, r0
 158:servo.c       ****     Gripper_Servo_Disable_Write(0);
 281              		.loc 1 158 0
 282 0004 0020     		movs	r0, #0
 283              	.LVL37:
 284 0006 FFF7FEFF 		bl	Gripper_Servo_Disable_Write
 285              	.LVL38:
 159:servo.c       ****     int i = Rack_Servo_PWM_ReadCompare();       
 286              		.loc 1 159 0
 287 000a FFF7FEFF 		bl	Rack_Servo_PWM_ReadCompare
 288              	.LVL39:
 289 000e 0446     		mov	r4, r0
 290              	.LVL40:
 160:servo.c       ****     
 161:servo.c       ****     // The following code ensures that the ripper brings it up smoothly 
 162:servo.c       ****     
 163:servo.c       ****     while (i > arm_position){
 291              		.loc 1 163 0
ARM GAS  C:\Users\Misha\AppData\Local\Temp\ccnXDj66.s 			page 9


 292 0010 0EE0     		b	.L24
 293              	.LVL41:
 294              	.L25:
 164:servo.c       ****         Rack_Servo_PWM_WriteCompare(i);
 295              		.loc 1 164 0
 296 0012 A0B2     		uxth	r0, r4
 297 0014 FFF7FEFF 		bl	Rack_Servo_PWM_WriteCompare
 298              	.LVL42:
 165:servo.c       ****         i -= (LOW_POS_ARM_CMP-arm_position)/10; //Step in 1/10th of the amount 
 299              		.loc 1 165 0
 300 0018 C5F51663 		rsb	r3, r5, #2400
 301 001c 0B4A     		ldr	r2, .L27
 302 001e 82FB0312 		smull	r1, r2, r2, r3
 303 0022 DB17     		asrs	r3, r3, #31
 304 0024 C3EBA203 		rsb	r3, r3, r2, asr #2
 305 0028 E41A     		subs	r4, r4, r3
 306              	.LVL43:
 166:servo.c       ****         CyDelay(10);
 307              		.loc 1 166 0
 308 002a 0A20     		movs	r0, #10
 309 002c FFF7FEFF 		bl	CyDelay
 310              	.LVL44:
 311              	.L24:
 163:servo.c       ****         Rack_Servo_PWM_WriteCompare(i);
 312              		.loc 1 163 0
 313 0030 AC42     		cmp	r4, r5
 314 0032 EEDC     		bgt	.L25
 167:servo.c       ****     }
 168:servo.c       ****         
 169:servo.c       ****     Rack_Servo_PWM_WriteCompare(arm_position); //1000 was a nice max height value
 315              		.loc 1 169 0
 316 0034 A8B2     		uxth	r0, r5
 317 0036 FFF7FEFF 		bl	Rack_Servo_PWM_WriteCompare
 318              	.LVL45:
 170:servo.c       ****     CyDelay(500);
 319              		.loc 1 170 0
 320 003a 4FF4FA70 		mov	r0, #500
 321 003e FFF7FEFF 		bl	CyDelay
 322              	.LVL46:
 171:servo.c       ****     Gripper_Servo_Disable_Write(1);
 323              		.loc 1 171 0
 324 0042 0120     		movs	r0, #1
 325 0044 FFF7FEFF 		bl	Gripper_Servo_Disable_Write
 326              	.LVL47:
 327 0048 38BD     		pop	{r3, r4, r5, pc}
 328              	.LVL48:
 329              	.L28:
 330 004a 00BF     		.align	2
 331              	.L27:
 332 004c 67666666 		.word	1717986919
 333              		.cfi_endproc
 334              	.LFE69:
 335              		.size	armUp, .-armUp
 336              		.section	.text.armDown,"ax",%progbits
 337              		.align	2
 338              		.global	armDown
 339              		.thumb
ARM GAS  C:\Users\Misha\AppData\Local\Temp\ccnXDj66.s 			page 10


 340              		.thumb_func
 341              		.type	armDown, %function
 342              	armDown:
 343              	.LFB70:
 172:servo.c       **** }
 173:servo.c       **** 
 174:servo.c       **** void armDown(int arm_position){
 344              		.loc 1 174 0
 345              		.cfi_startproc
 346              		@ args = 0, pretend = 0, frame = 0
 347              		@ frame_needed = 0, uses_anonymous_args = 0
 348              	.LVL49:
 349 0000 38B5     		push	{r3, r4, r5, lr}
 350              		.cfi_def_cfa_offset 16
 351              		.cfi_offset 3, -16
 352              		.cfi_offset 4, -12
 353              		.cfi_offset 5, -8
 354              		.cfi_offset 14, -4
 355 0002 0546     		mov	r5, r0
 175:servo.c       ****     Gripper_Servo_Disable_Write(0);
 356              		.loc 1 175 0
 357 0004 0020     		movs	r0, #0
 358              	.LVL50:
 359 0006 FFF7FEFF 		bl	Gripper_Servo_Disable_Write
 360              	.LVL51:
 176:servo.c       ****     int i = Rack_Servo_PWM_ReadCompare();
 361              		.loc 1 176 0
 362 000a FFF7FEFF 		bl	Rack_Servo_PWM_ReadCompare
 363              	.LVL52:
 364 000e 0446     		mov	r4, r0
 365              	.LVL53:
 177:servo.c       ****     while (i < LOW_POS_ARM_CMP){
 366              		.loc 1 177 0
 367 0010 0EE0     		b	.L30
 368              	.LVL54:
 369              	.L31:
 178:servo.c       ****         Rack_Servo_PWM_WriteCompare(i);
 370              		.loc 1 178 0
 371 0012 A0B2     		uxth	r0, r4
 372 0014 FFF7FEFF 		bl	Rack_Servo_PWM_WriteCompare
 373              	.LVL55:
 179:servo.c       ****         i += (LOW_POS_ARM_CMP-arm_position)/10; //Step in 1/10th the amount
 374              		.loc 1 179 0
 375 0018 C5F51663 		rsb	r3, r5, #2400
 376 001c 0C4A     		ldr	r2, .L33
 377 001e 82FB0312 		smull	r1, r2, r2, r3
 378 0022 DB17     		asrs	r3, r3, #31
 379 0024 C3EBA203 		rsb	r3, r3, r2, asr #2
 380 0028 1C44     		add	r4, r4, r3
 381              	.LVL56:
 180:servo.c       ****         CyDelay(10);
 382              		.loc 1 180 0
 383 002a 0A20     		movs	r0, #10
 384 002c FFF7FEFF 		bl	CyDelay
 385              	.LVL57:
 386              	.L30:
 177:servo.c       ****         Rack_Servo_PWM_WriteCompare(i);
ARM GAS  C:\Users\Misha\AppData\Local\Temp\ccnXDj66.s 			page 11


 387              		.loc 1 177 0
 388 0030 B4F5166F 		cmp	r4, #2400
 389 0034 EDDB     		blt	.L31
 181:servo.c       ****     }
 182:servo.c       ****     Rack_Servo_PWM_WriteCompare(LOW_POS_ARM_CMP); //2300 was a nice low height value
 390              		.loc 1 182 0
 391 0036 4FF41660 		mov	r0, #2400
 392 003a FFF7FEFF 		bl	Rack_Servo_PWM_WriteCompare
 393              	.LVL58:
 183:servo.c       ****     CyDelay(500);
 394              		.loc 1 183 0
 395 003e 4FF4FA70 		mov	r0, #500
 396 0042 FFF7FEFF 		bl	CyDelay
 397              	.LVL59:
 184:servo.c       ****     Gripper_Servo_Disable_Write(1);
 398              		.loc 1 184 0
 399 0046 0120     		movs	r0, #1
 400 0048 FFF7FEFF 		bl	Gripper_Servo_Disable_Write
 401              	.LVL60:
 402 004c 38BD     		pop	{r3, r4, r5, pc}
 403              	.LVL61:
 404              	.L34:
 405 004e 00BF     		.align	2
 406              	.L33:
 407 0050 67666666 		.word	1717986919
 408              		.cfi_endproc
 409              	.LFE70:
 410              		.size	armDown, .-armDown
 411              		.global	__aeabi_i2d
 412              		.global	__aeabi_dmul
 413              		.global	__aeabi_d2iz
 414              		.section	.text.armMoveUpDown,"ax",%progbits
 415              		.align	2
 416              		.global	armMoveUpDown
 417              		.thumb
 418              		.thumb_func
 419              		.type	armMoveUpDown, %function
 420              	armMoveUpDown:
 421              	.LFB71:
 185:servo.c       **** }
 186:servo.c       **** 
 187:servo.c       **** 
 188:servo.c       **** 
 189:servo.c       **** //This takes input in cm
 190:servo.c       **** void armMoveUpDown(int desiredPosition){
 422              		.loc 1 190 0
 423              		.cfi_startproc
 424              		@ args = 0, pretend = 0, frame = 0
 425              		@ frame_needed = 0, uses_anonymous_args = 0
 426              	.LVL62:
 427 0000 08B5     		push	{r3, lr}
 428              		.cfi_def_cfa_offset 8
 429              		.cfi_offset 3, -8
 430              		.cfi_offset 14, -4
 431              	.LVL63:
 191:servo.c       ****     //40 teeth on the gear
 192:servo.c       ****     //as the wheel rotates a certain angle, the arm moves up by r*theta. 
ARM GAS  C:\Users\Misha\AppData\Local\Temp\ccnXDj66.s 			page 12


 193:servo.c       ****     //At angle = 0, we have arm at lowest position
 194:servo.c       ****     //At angle = 180, we have it at the highest
 195:servo.c       ****     //So theta= desiredheight/r . r = 20 mm approx. We'll work on it
 196:servo.c       ****     const int GEAR_RADIUS = 20;
 197:servo.c       ****     int theta = (desiredPosition*10)/GEAR_RADIUS;
 432              		.loc 1 197 0
 433 0002 00EB8000 		add	r0, r0, r0, lsl #2
 434              	.LVL64:
 435 0006 4300     		lsls	r3, r0, #1
 436 0008 0F48     		ldr	r0, .L37+8
 437 000a 80FB0320 		smull	r2, r0, r0, r3
 438 000e DB17     		asrs	r3, r3, #31
 439              	.LVL65:
 198:servo.c       ****     int compare_val = round(theta*5.5555);
 440              		.loc 1 198 0
 441 0010 C3EBE000 		rsb	r0, r3, r0, asr #3
 442              	.LVL66:
 443 0014 FFF7FEFF 		bl	__aeabi_i2d
 444              	.LVL67:
 445 0018 09A3     		adr	r3, .L37
 446 001a D3E90023 		ldrd	r2, [r3]
 447 001e FFF7FEFF 		bl	__aeabi_dmul
 448              	.LVL68:
 449 0022 FFF7FEFF 		bl	round
 450              	.LVL69:
 451 0026 FFF7FEFF 		bl	__aeabi_d2iz
 452              	.LVL70:
 199:servo.c       ****     Rack_Servo_PWM_WriteCompare(1000+compare_val); //This needs to be modified a lot
 453              		.loc 1 199 0
 454 002a 00F57A70 		add	r0, r0, #1000
 455              	.LVL71:
 456 002e 80B2     		uxth	r0, r0
 457              	.LVL72:
 458 0030 FFF7FEFF 		bl	Rack_Servo_PWM_WriteCompare
 459              	.LVL73:
 200:servo.c       ****     CyDelay(500);
 460              		.loc 1 200 0
 461 0034 4FF4FA70 		mov	r0, #500
 462 0038 FFF7FEFF 		bl	CyDelay
 463              	.LVL74:
 464 003c 08BD     		pop	{r3, pc}
 465              	.L38:
 466 003e 00BF     		.align	3
 467              	.L37:
 468 0040 46B6F3FD 		.word	-34359738
 469 0044 D4381640 		.word	1075198164
 470 0048 67666666 		.word	1717986919
 471              		.cfi_endproc
 472              	.LFE71:
 473              		.size	armMoveUpDown, .-armMoveUpDown
 474              		.global	__aeabi_dadd
 475              		.global	__aeabi_d2uiz
 476              		.section	.text.gripperAngle,"ax",%progbits
 477              		.align	2
 478              		.global	gripperAngle
 479              		.thumb
 480              		.thumb_func
ARM GAS  C:\Users\Misha\AppData\Local\Temp\ccnXDj66.s 			page 13


 481              		.type	gripperAngle, %function
 482              	gripperAngle:
 483              	.LFB72:
 201:servo.c       **** }
 202:servo.c       **** 
 203:servo.c       **** void gripperAngle(int amount){
 484              		.loc 1 203 0
 485              		.cfi_startproc
 486              		@ args = 0, pretend = 0, frame = 0
 487              		@ frame_needed = 0, uses_anonymous_args = 0
 488              	.LVL75:
 489 0000 08B5     		push	{r3, lr}
 490              		.cfi_def_cfa_offset 8
 491              		.cfi_offset 3, -8
 492              		.cfi_offset 14, -4
 204:servo.c       ****     if (0 < amount && amount < 180)
 493              		.loc 1 204 0
 494 0002 431E     		subs	r3, r0, #1
 495 0004 B22B     		cmp	r3, #178
 496 0006 0ED8     		bhi	.L40
 205:servo.c       ****     {
 206:servo.c       ****         Gripper_Servo_PWM_WriteCompare(1000+amount*5.5);
 497              		.loc 1 206 0
 498 0008 FFF7FEFF 		bl	__aeabi_i2d
 499              	.LVL76:
 500 000c 0022     		movs	r2, #0
 501 000e 094B     		ldr	r3, .L42
 502 0010 FFF7FEFF 		bl	__aeabi_dmul
 503              	.LVL77:
 504 0014 0022     		movs	r2, #0
 505 0016 084B     		ldr	r3, .L42+4
 506 0018 FFF7FEFF 		bl	__aeabi_dadd
 507              	.LVL78:
 508 001c FFF7FEFF 		bl	__aeabi_d2uiz
 509              	.LVL79:
 510 0020 80B2     		uxth	r0, r0
 511 0022 FFF7FEFF 		bl	Gripper_Servo_PWM_WriteCompare
 512              	.LVL80:
 513              	.L40:
 207:servo.c       ****     }
 208:servo.c       ****     Gripper_Servo_PWM_Start();
 514              		.loc 1 208 0
 515 0026 FFF7FEFF 		bl	Gripper_Servo_PWM_Start
 516              	.LVL81:
 209:servo.c       ****     CyDelay(500);
 517              		.loc 1 209 0
 518 002a 4FF4FA70 		mov	r0, #500
 519 002e FFF7FEFF 		bl	CyDelay
 520              	.LVL82:
 521 0032 08BD     		pop	{r3, pc}
 522              	.L43:
 523              		.align	2
 524              	.L42:
 525 0034 00001640 		.word	1075183616
 526 0038 00408F40 		.word	1083129856
 527              		.cfi_endproc
 528              	.LFE72:
ARM GAS  C:\Users\Misha\AppData\Local\Temp\ccnXDj66.s 			page 14


 529              		.size	gripperAngle, .-gripperAngle
 530              		.section	.text.rackAngle,"ax",%progbits
 531              		.align	2
 532              		.global	rackAngle
 533              		.thumb
 534              		.thumb_func
 535              		.type	rackAngle, %function
 536              	rackAngle:
 537              	.LFB73:
 210:servo.c       **** }
 211:servo.c       ****         
 212:servo.c       **** void rackAngle(int amount)
 213:servo.c       **** {
 538              		.loc 1 213 0
 539              		.cfi_startproc
 540              		@ args = 0, pretend = 0, frame = 0
 541              		@ frame_needed = 0, uses_anonymous_args = 0
 542              	.LVL83:
 543 0000 08B5     		push	{r3, lr}
 544              		.cfi_def_cfa_offset 8
 545              		.cfi_offset 3, -8
 546              		.cfi_offset 14, -4
 214:servo.c       ****     Rack_Servo_PWM_WriteCompare(1000+amount*5.5);
 547              		.loc 1 214 0
 548 0002 FFF7FEFF 		bl	__aeabi_i2d
 549              	.LVL84:
 550 0006 0022     		movs	r2, #0
 551 0008 094B     		ldr	r3, .L46
 552 000a FFF7FEFF 		bl	__aeabi_dmul
 553              	.LVL85:
 554 000e 0022     		movs	r2, #0
 555 0010 084B     		ldr	r3, .L46+4
 556 0012 FFF7FEFF 		bl	__aeabi_dadd
 557              	.LVL86:
 558 0016 FFF7FEFF 		bl	__aeabi_d2uiz
 559              	.LVL87:
 560 001a 80B2     		uxth	r0, r0
 561 001c FFF7FEFF 		bl	Rack_Servo_PWM_WriteCompare
 562              	.LVL88:
 215:servo.c       ****     Rack_Servo_PWM_Start();
 563              		.loc 1 215 0
 564 0020 FFF7FEFF 		bl	Rack_Servo_PWM_Start
 565              	.LVL89:
 216:servo.c       ****     CyDelay(500);
 566              		.loc 1 216 0
 567 0024 4FF4FA70 		mov	r0, #500
 568 0028 FFF7FEFF 		bl	CyDelay
 569              	.LVL90:
 570 002c 08BD     		pop	{r3, pc}
 571              	.L47:
 572 002e 00BF     		.align	2
 573              	.L46:
 574 0030 00001640 		.word	1075183616
 575 0034 00408F40 		.word	1083129856
 576              		.cfi_endproc
 577              	.LFE73:
 578              		.size	rackAngle, .-rackAngle
ARM GAS  C:\Users\Misha\AppData\Local\Temp\ccnXDj66.s 			page 15


 579              		.section	.text.lowerAndOpen,"ax",%progbits
 580              		.align	2
 581              		.global	lowerAndOpen
 582              		.thumb
 583              		.thumb_func
 584              		.type	lowerAndOpen, %function
 585              	lowerAndOpen:
 586              	.LFB74:
 217:servo.c       **** }
 218:servo.c       **** 
 219:servo.c       **** 
 220:servo.c       **** void lowerAndOpen(int puck_stack_position){
 587              		.loc 1 220 0
 588              		.cfi_startproc
 589              		@ args = 0, pretend = 0, frame = 0
 590              		@ frame_needed = 0, uses_anonymous_args = 0
 591              	.LVL91:
 592 0000 08B5     		push	{r3, lr}
 593              		.cfi_def_cfa_offset 8
 594              		.cfi_offset 3, -8
 595              		.cfi_offset 14, -4
 221:servo.c       ****     changeHeightToPuck(puck_stack_position);
 596              		.loc 1 221 0
 597 0002 FFF7FEFF 		bl	changeHeightToPuck
 598              	.LVL92:
 222:servo.c       ****     armOpen();
 599              		.loc 1 222 0
 600 0006 FFF7FEFF 		bl	armOpen
 601              	.LVL93:
 602 000a 08BD     		pop	{r3, pc}
 603              		.cfi_endproc
 604              	.LFE74:
 605              		.size	lowerAndOpen, .-lowerAndOpen
 606              		.section	.text.closeAndRaise,"ax",%progbits
 607              		.align	2
 608              		.global	closeAndRaise
 609              		.thumb
 610              		.thumb_func
 611              		.type	closeAndRaise, %function
 612              	closeAndRaise:
 613              	.LFB75:
 223:servo.c       **** }
 224:servo.c       **** 
 225:servo.c       **** void closeAndRaise(int puck_stack_position){
 614              		.loc 1 225 0
 615              		.cfi_startproc
 616              		@ args = 0, pretend = 0, frame = 0
 617              		@ frame_needed = 0, uses_anonymous_args = 0
 618              	.LVL94:
 619 0000 10B5     		push	{r4, lr}
 620              		.cfi_def_cfa_offset 8
 621              		.cfi_offset 4, -8
 622              		.cfi_offset 14, -4
 623 0002 0446     		mov	r4, r0
 226:servo.c       ****     armClose();
 624              		.loc 1 226 0
 625 0004 FFF7FEFF 		bl	armClose
ARM GAS  C:\Users\Misha\AppData\Local\Temp\ccnXDj66.s 			page 16


 626              	.LVL95:
 227:servo.c       ****     changeHeightToPuck(puck_stack_position);
 627              		.loc 1 227 0
 628 0008 2046     		mov	r0, r4
 629 000a FFF7FEFF 		bl	changeHeightToPuck
 630              	.LVL96:
 631 000e 10BD     		pop	{r4, pc}
 632              		.cfi_endproc
 633              	.LFE75:
 634              		.size	closeAndRaise, .-closeAndRaise
 635              		.comm	output,32,4
 636              		.comm	puckPileLocation,4,4
 637              		.comm	block_edge_location,16,4
 638              		.comm	sweeping,4,4
 639              		.comm	puckRackOffsetsFromWest,20,4
 640              		.comm	puckRackColours,20,4
 641              		.comm	currentPuckRackScanningIndex,4,4
 642              		.comm	driveStraightEnable,4,4
 643              		.text
 644              	.Letext0:
 645              		.file 2 "c:\\program files (x86)\\cypress\\psoc creator\\4.2\\psoc creator\\import\\gnu\\arm\\5.4.
 646              		.file 3 "c:\\program files (x86)\\cypress\\psoc creator\\4.2\\psoc creator\\import\\gnu\\arm\\5.4.
 647              		.file 4 "Generated_Source\\PSoC5/core_cm3.h"
 648              		.file 5 "main.h"
 649              		.file 6 "Generated_Source\\PSoC5/Gripper_Servo_PWM.h"
 650              		.file 7 "Generated_Source\\PSoC5/CyLib.h"
 651              		.file 8 "Generated_Source\\PSoC5/Rack_Servo_PWM.h"
 652              		.file 9 "c:\\program files (x86)\\cypress\\psoc creator\\4.2\\psoc creator\\import\\gnu\\arm\\5.4.