ARM GAS  C:\Users\Misha\AppData\Local\Temp\ccAqS97n.s 			page 1


   1              		.syntax unified
   2              		.cpu cortex-m3
   3              		.fpu softvfp
   4              		.eabi_attribute 20, 1
   5              		.eabi_attribute 21, 1
   6              		.eabi_attribute 23, 3
   7              		.eabi_attribute 24, 1
   8              		.eabi_attribute 25, 1
   9              		.eabi_attribute 26, 1
  10              		.eabi_attribute 30, 1
  11              		.eabi_attribute 34, 1
  12              		.eabi_attribute 18, 4
  13              		.thumb
  14              		.syntax unified
  15              		.file	"ultrasonic.c"
  16              		.text
  17              	.Ltext0:
  18              		.cfi_sections	.debug_frame
  19              		.global	__aeabi_f2d
  20              		.section	.text.printSensorToUART,"ax",%progbits
  21              		.align	2
  22              		.global	printSensorToUART
  23              		.thumb
  24              		.thumb_func
  25              		.type	printSensorToUART, %function
  26              	printSensorToUART:
  27              	.LFB65:
  28              		.file 1 "ultrasonic.c"
   1:ultrasonic.c  **** /* ========================================
   2:ultrasonic.c  ****  *
   3:ultrasonic.c  ****  * Copyright YOUR COMPANY, THE YEAR
   4:ultrasonic.c  ****  * All Rights Reserved
   5:ultrasonic.c  ****  * UNPUBLISHED, LICENSED SOFTWARE.
   6:ultrasonic.c  ****  *
   7:ultrasonic.c  ****  * CONFIDENTIAL AND PROPRIETARY INFORMATION
   8:ultrasonic.c  ****  * WHICH IS THE PROPERTY OF your company.
   9:ultrasonic.c  ****  *
  10:ultrasonic.c  ****  * ========================================
  11:ultrasonic.c  **** */
  12:ultrasonic.c  **** 
  13:ultrasonic.c  **** // * Custom Libraries * //
  14:ultrasonic.c  **** #include "main.h"
  15:ultrasonic.c  **** #include "ultrasonic.h"
  16:ultrasonic.c  **** #include "project.h"
  17:ultrasonic.c  **** #include "dcmotor.h"
  18:ultrasonic.c  **** #include "customMath.h"
  19:ultrasonic.c  **** 
  20:ultrasonic.c  **** // * C LIBRARIES * // 
  21:ultrasonic.c  **** #include "stdlib.h"
  22:ultrasonic.c  **** #include <stdio.h>
  23:ultrasonic.c  **** #include <math.h>
  24:ultrasonic.c  **** 
  25:ultrasonic.c  **** 
  26:ultrasonic.c  **** /* Declare global variables */
  27:ultrasonic.c  **** 
  28:ultrasonic.c  **** int i = 0; //what is i and count used for? We might need to name them more descriptively
  29:ultrasonic.c  **** int count = 0;
ARM GAS  C:\Users\Misha\AppData\Local\Temp\ccAqS97n.s 			page 2


  30:ultrasonic.c  **** int distance_measured = 0; 
  31:ultrasonic.c  **** float ultrasonic_distances[TOTAL_SONIC_SENSORS] = {0,0,0,0,0};
  32:ultrasonic.c  **** uint8 ultrasonic_mux_control = 0;
  33:ultrasonic.c  **** int block_start = 0;
  34:ultrasonic.c  **** int puck_start = 0;
  35:ultrasonic.c  **** int initialisation = 1;
  36:ultrasonic.c  **** 
  37:ultrasonic.c  **** 
  38:ultrasonic.c  **** //The four flags below let the rest of the program know if the robot is trying to drive 
  39:ultrasonic.c  **** //forward or back, turn left or right. At the start of every motion, turn these flags on
  40:ultrasonic.c  **** //at the end turn them off.
  41:ultrasonic.c  **** extern int drivingForwardFlag;
  42:ultrasonic.c  **** extern int drivingBackwardFlag;
  43:ultrasonic.c  **** extern int turningLeftFlag;
  44:ultrasonic.c  **** extern int turningRightFlag;
  45:ultrasonic.c  **** 
  46:ultrasonic.c  **** //int distance;
  47:ultrasonic.c  **** extern char output[32];
  48:ultrasonic.c  **** 
  49:ultrasonic.c  **** void ultrasonicInterruptHandler(){
  50:ultrasonic.c  ****     //UART_1_PutString("Interrupt \n");
  51:ultrasonic.c  ****     Timer_1_ReadStatusRegister();   // CLEARS INTERRUPTS 
  52:ultrasonic.c  ****     count = Timer_1_ReadCounter();
  53:ultrasonic.c  ****     Timer_1_Stop();
  54:ultrasonic.c  ****     
  55:ultrasonic.c  ****     // Calculate distances based off timer counts
  56:ultrasonic.c  ****     //ultrasonic_distances[ultrasonic_mux_control] = distanceFromCount(count);
  57:ultrasonic.c  ****     ultrasonic_distances[ultrasonic_mux_control] = 0.172413*(65536-count) / 10;
  58:ultrasonic.c  ****     
  59:ultrasonic.c  ****     printSensorToUART(ultrasonic_mux_control, ultrasonic_distances[ultrasonic_mux_control]);    // 
  60:ultrasonic.c  ****     
  61:ultrasonic.c  ****     //This bit has been added by Nidhin. It will stop the robot moving if it has gotten too close t
  62:ultrasonic.c  ****     //any obstacle (we may have to modify this to not stop motion when we are trying to pick up a p
  63:ultrasonic.c  ****     if (((ultrasonic_distances[LEFT_FRONT] < COLLISION_THRESHOLD)||(ultrasonic_distances[RIGHT_FRON
  64:ultrasonic.c  ****         stopMotor1AndUpdate();
  65:ultrasonic.c  ****         stopMotor2AndUpdate();
  66:ultrasonic.c  ****     } //We need to add further clauses like this - the above only checks for the front wall being t
  67:ultrasonic.c  ****     //when moving forward.
  68:ultrasonic.c  ****     
  69:ultrasonic.c  ****     // In this state we are scanning each puck on the rack
  70:ultrasonic.c  ****     if (state == STATE_SCAN_PLAN){
  71:ultrasonic.c  ****         
  72:ultrasonic.c  ****         float front_average = averageSensor(ultrasonic_distances[LEFT_FRONT], ultrasonic_distances[
  73:ultrasonic.c  ****         
  74:ultrasonic.c  ****         if (initialisation){
  75:ultrasonic.c  ****             
  76:ultrasonic.c  ****             if ( front_average > puckRackOffsetsFromWest[currentPuckRackScanningIndex] - OFFSET_COL
  77:ultrasonic.c  ****                 stopMotor1AndUpdate();
  78:ultrasonic.c  ****                 stopMotor2AndUpdate();
  79:ultrasonic.c  ****                 moving = 0;
  80:ultrasonic.c  ****             
  81:ultrasonic.c  ****                 // Take colour measurement against black wall for reference initialisation
  82:ultrasonic.c  ****                 
  83:ultrasonic.c  ****                 // Also take colour measurement of the white ground for the front claw colour senso
  84:ultrasonic.c  ****                 
  85:ultrasonic.c  ****                 initialisation = 0; // initialisation done on black wall so now we check the 5 puck
  86:ultrasonic.c  ****             }
ARM GAS  C:\Users\Misha\AppData\Local\Temp\ccAqS97n.s 			page 3


  87:ultrasonic.c  ****         }
  88:ultrasonic.c  ****         
  89:ultrasonic.c  ****         else if ( front_average < puckRackOffsetsFromWest[currentPuckRackScanningIndex] - OFFSET_CO
  90:ultrasonic.c  ****             stopMotor1AndUpdate();
  91:ultrasonic.c  ****             stopMotor2AndUpdate(); 
  92:ultrasonic.c  ****             moving = 0;
  93:ultrasonic.c  ****             
  94:ultrasonic.c  ****             currentPuckRackScanningIndex++;
  95:ultrasonic.c  ****             if (currentPuckRackScanningIndex == 4) {state = STATE_LOCATE_BLOCK_AND_PUCKS;}
  96:ultrasonic.c  **** 
  97:ultrasonic.c  ****         }
  98:ultrasonic.c  **** 
  99:ultrasonic.c  ****     }
 100:ultrasonic.c  **** 
 101:ultrasonic.c  ****     if (state == STATE_LOCATE_BLOCK_AND_PUCKS){
 102:ultrasonic.c  ****         
 103:ultrasonic.c  ****         
 104:ultrasonic.c  ****         // Only care about detecting block when we have turned around and are ready to do a full sw
 105:ultrasonic.c  ****     	if (sweeping){
 106:ultrasonic.c  ****     		if (ultrasonic_distances[LEFT_SIDE] < ARENA_LENGTH - ultrasonic_distances[RIGHT_SIDE] - SIDE_
 107:ultrasonic.c  ****     			if (!block_start) {block_start = 1; block_edge_location[WEST] = ultrasonic_distances[BACK] +
 108:ultrasonic.c  ****     	    }
 109:ultrasonic.c  ****             
 110:ultrasonic.c  ****     		else if (block_start){ // We already know the west edge, drive until we find east edge
 111:ultrasonic.c  ****     			block_start = 0; // We have found the east edge of the block
 112:ultrasonic.c  ****     			block_edge_location[EAST] = ultrasonic_distances[BACK] + SIDE_SENSOR_OFFSET_FROM_BACK;
 113:ultrasonic.c  ****     			sweeping = 0;
 114:ultrasonic.c  ****             }
 115:ultrasonic.c  ****             
 116:ultrasonic.c  ****             if ( (ultrasonic_distances[LEFT_SIDE] < ARENA_LENGTH - ultrasonic_distances[RIGHT_SIDE]
 117:ultrasonic.c  ****     			puckPileLocation = ultrasonic_distances[BACK] + SIDE_SENSOR_OFFSET_FROM_BACK;
 118:ultrasonic.c  ****     	    } 
 119:ultrasonic.c  ****             
 120:ultrasonic.c  ****     	}
 121:ultrasonic.c  ****         
 122:ultrasonic.c  ****         
 123:ultrasonic.c  **** 	}
 124:ultrasonic.c  **** 
 125:ultrasonic.c  ****     
 126:ultrasonic.c  ****      /* THIS IS A SAMPLE OF THE PRELIM CODE, KEEPING IT TO REFERENCE THE MOTOR SLEEP FUNCTIONS
 127:ultrasonic.c  ****     
 128:ultrasonic.c  ****     if (driveStraightEnable && ( ultrasonic_distances[LEFT_FRONT] < 24 || ultrasonic_distances[RIGH
 129:ultrasonic.c  ****     //if (ultrasonic_distances[RIGHT_FRONT] < 30 ) { // Used for when left front sensor playing up
 130:ultrasonic.c  ****         if(state == STATE_GO_WEST){
 131:ultrasonic.c  ****             driveStraightEnable = 0;
 132:ultrasonic.c  ****             westWall = 1;
 133:ultrasonic.c  ****            // state = STATE_GO_NORTH_CAREFUL;
 134:ultrasonic.c  ****             Motor_1_driver_Sleep();
 135:ultrasonic.c  ****             Motor_2_driver_Sleep();
 136:ultrasonic.c  ****             
 137:ultrasonic.c  ****         }
 138:ultrasonic.c  ****     }
 139:ultrasonic.c  ****     
 140:ultrasonic.c  ****     */
 141:ultrasonic.c  ****     
 142:ultrasonic.c  **** }
 143:ultrasonic.c  **** 
ARM GAS  C:\Users\Misha\AppData\Local\Temp\ccAqS97n.s 			page 4


 144:ultrasonic.c  **** 
 145:ultrasonic.c  **** void printSensorToUART(int sensorNumber, float distanceMeasured){
  29              		.loc 1 145 0
  30              		.cfi_startproc
  31              		@ args = 0, pretend = 0, frame = 0
  32              		@ frame_needed = 0, uses_anonymous_args = 0
  33              	.LVL0:
  34 0000 30B5     		push	{r4, r5, lr}
  35              		.cfi_def_cfa_offset 12
  36              		.cfi_offset 4, -12
  37              		.cfi_offset 5, -8
  38              		.cfi_offset 14, -4
  39 0002 83B0     		sub	sp, sp, #12
  40              		.cfi_def_cfa_offset 24
  41 0004 0546     		mov	r5, r0
 146:ultrasonic.c  ****      
 147:ultrasonic.c  ****     // Print distance to UART
 148:ultrasonic.c  ****     //sprintf(output, "Ultrasonic Sensor %d - distance: %dmm\n", sensorNumber, distanceMeasured);
 149:ultrasonic.c  ****     sprintf(output, "%d: %fmm\n", sensorNumber, distanceMeasured);
  42              		.loc 1 149 0
  43 0006 084C     		ldr	r4, .L3
  44 0008 0846     		mov	r0, r1
  45              	.LVL1:
  46 000a FFF7FEFF 		bl	__aeabi_f2d
  47              	.LVL2:
  48 000e CDE90001 		strd	r0, [sp]
  49 0012 2A46     		mov	r2, r5
  50 0014 0549     		ldr	r1, .L3+4
  51 0016 2046     		mov	r0, r4
  52 0018 FFF7FEFF 		bl	sprintf
  53              	.LVL3:
 150:ultrasonic.c  ****     UART_1_PutString(output);
  54              		.loc 1 150 0
  55 001c 2046     		mov	r0, r4
  56 001e FFF7FEFF 		bl	UART_1_PutString
  57              	.LVL4:
 151:ultrasonic.c  **** 
 152:ultrasonic.c  **** }
  58              		.loc 1 152 0
  59 0022 03B0     		add	sp, sp, #12
  60              		.cfi_def_cfa_offset 12
  61              		@ sp needed
  62 0024 30BD     		pop	{r4, r5, pc}
  63              	.LVL5:
  64              	.L4:
  65 0026 00BF     		.align	2
  66              	.L3:
  67 0028 00000000 		.word	output
  68 002c 00000000 		.word	.LC0
  69              		.cfi_endproc
  70              	.LFE65:
  71              		.size	printSensorToUART, .-printSensorToUART
  72              		.global	__aeabi_i2d
  73              		.global	__aeabi_dmul
  74              		.global	__aeabi_ddiv
  75              		.global	__aeabi_d2f
  76              		.global	__aeabi_fcmplt
ARM GAS  C:\Users\Misha\AppData\Local\Temp\ccAqS97n.s 			page 5


  77              		.global	__aeabi_i2f
  78              		.global	__aeabi_fcmpgt
  79              		.global	__aeabi_fsub
  80              		.global	__aeabi_fadd
  81              		.section	.text.ultrasonicInterruptHandler,"ax",%progbits
  82              		.align	2
  83              		.global	ultrasonicInterruptHandler
  84              		.thumb
  85              		.thumb_func
  86              		.type	ultrasonicInterruptHandler, %function
  87              	ultrasonicInterruptHandler:
  88              	.LFB64:
  49:ultrasonic.c  ****     //UART_1_PutString("Interrupt \n");
  89              		.loc 1 49 0
  90              		.cfi_startproc
  91              		@ args = 0, pretend = 0, frame = 0
  92              		@ frame_needed = 0, uses_anonymous_args = 0
  93 0000 70B5     		push	{r4, r5, r6, lr}
  94              		.cfi_def_cfa_offset 16
  95              		.cfi_offset 4, -16
  96              		.cfi_offset 5, -12
  97              		.cfi_offset 6, -8
  98              		.cfi_offset 14, -4
  51:ultrasonic.c  ****     count = Timer_1_ReadCounter();
  99              		.loc 1 51 0
 100 0002 FFF7FEFF 		bl	Timer_1_ReadStatusRegister
 101              	.LVL6:
  52:ultrasonic.c  ****     Timer_1_Stop();
 102              		.loc 1 52 0
 103 0006 FFF7FEFF 		bl	Timer_1_ReadCounter
 104              	.LVL7:
 105 000a 5F4C     		ldr	r4, .L26+8
 106 000c 2060     		str	r0, [r4]
  53:ultrasonic.c  ****     
 107              		.loc 1 53 0
 108 000e FFF7FEFF 		bl	Timer_1_Stop
 109              	.LVL8:
  57:ultrasonic.c  ****     
 110              		.loc 1 57 0
 111 0012 2579     		ldrb	r5, [r4, #4]	@ zero_extendqisi2
 112 0014 2068     		ldr	r0, [r4]
 113 0016 C0F58030 		rsb	r0, r0, #65536
 114 001a FFF7FEFF 		bl	__aeabi_i2d
 115              	.LVL9:
 116 001e 58A3     		adr	r3, .L26
 117 0020 D3E90023 		ldrd	r2, [r3]
 118 0024 FFF7FEFF 		bl	__aeabi_dmul
 119              	.LVL10:
 120 0028 0022     		movs	r2, #0
 121 002a 584B     		ldr	r3, .L26+12
 122 002c FFF7FEFF 		bl	__aeabi_ddiv
 123              	.LVL11:
 124 0030 FFF7FEFF 		bl	__aeabi_d2f
 125              	.LVL12:
 126 0034 0146     		mov	r1, r0
 127 0036 04EB8503 		add	r3, r4, r5, lsl #2
 128 003a 9860     		str	r0, [r3, #8]	@ float
ARM GAS  C:\Users\Misha\AppData\Local\Temp\ccAqS97n.s 			page 6


  59:ultrasonic.c  ****     
 129              		.loc 1 59 0
 130 003c 2846     		mov	r0, r5
 131 003e FFF7FEFF 		bl	printSensorToUART
 132              	.LVL13:
  63:ultrasonic.c  ****         stopMotor1AndUpdate();
 133              		.loc 1 63 0
 134 0042 5349     		ldr	r1, .L26+16
 135 0044 E068     		ldr	r0, [r4, #12]	@ float
 136 0046 FFF7FEFF 		bl	__aeabi_fcmplt
 137              	.LVL14:
 138 004a 20B9     		cbnz	r0, .L6
  63:ultrasonic.c  ****         stopMotor1AndUpdate();
 139              		.loc 1 63 0 is_stmt 0 discriminator 2
 140 004c 5049     		ldr	r1, .L26+16
 141 004e 2069     		ldr	r0, [r4, #16]	@ float
 142 0050 FFF7FEFF 		bl	__aeabi_fcmplt
 143              	.LVL15:
 144 0054 38B1     		cbz	r0, .L7
 145              	.L6:
  63:ultrasonic.c  ****         stopMotor1AndUpdate();
 146              		.loc 1 63 0 discriminator 3
 147 0056 4F4B     		ldr	r3, .L26+20
 148 0058 1B68     		ldr	r3, [r3]
 149 005a 012B     		cmp	r3, #1
 150 005c 03D1     		bne	.L7
  64:ultrasonic.c  ****         stopMotor2AndUpdate();
 151              		.loc 1 64 0 is_stmt 1
 152 005e FFF7FEFF 		bl	stopMotor1AndUpdate
 153              	.LVL16:
  65:ultrasonic.c  ****     } //We need to add further clauses like this - the above only checks for the front wall being t
 154              		.loc 1 65 0
 155 0062 FFF7FEFF 		bl	stopMotor2AndUpdate
 156              	.LVL17:
 157              	.L7:
  70:ultrasonic.c  ****         
 158              		.loc 1 70 0
 159 0066 4C4B     		ldr	r3, .L26+24
 160 0068 1B68     		ldr	r3, [r3]
 161 006a 012B     		cmp	r3, #1
 162 006c 3CD1     		bne	.L9
 163              	.LBB2:
  72:ultrasonic.c  ****         
 164              		.loc 1 72 0
 165 006e 464B     		ldr	r3, .L26+8
 166 0070 1969     		ldr	r1, [r3, #16]	@ float
 167 0072 D868     		ldr	r0, [r3, #12]	@ float
 168 0074 FFF7FEFF 		bl	averageSensor
 169              	.LVL18:
 170 0078 0446     		mov	r4, r0
 171              	.LVL19:
  74:ultrasonic.c  ****             
 172              		.loc 1 74 0
 173 007a 484B     		ldr	r3, .L26+28
 174 007c 1B68     		ldr	r3, [r3]
 175 007e B3B1     		cbz	r3, .L10
  76:ultrasonic.c  ****                 stopMotor1AndUpdate();
ARM GAS  C:\Users\Misha\AppData\Local\Temp\ccAqS97n.s 			page 7


 176              		.loc 1 76 0
 177 0080 474B     		ldr	r3, .L26+32
 178 0082 1A68     		ldr	r2, [r3]
 179 0084 474B     		ldr	r3, .L26+36
 180 0086 53F82200 		ldr	r0, [r3, r2, lsl #2]
 181              	.LVL20:
 182 008a 0538     		subs	r0, r0, #5
 183 008c FFF7FEFF 		bl	__aeabi_i2f
 184              	.LVL21:
 185 0090 0146     		mov	r1, r0
 186 0092 2046     		mov	r0, r4
 187 0094 FFF7FEFF 		bl	__aeabi_fcmpgt
 188              	.LVL22:
 189 0098 30B3     		cbz	r0, .L9
  77:ultrasonic.c  ****                 stopMotor2AndUpdate();
 190              		.loc 1 77 0
 191 009a FFF7FEFF 		bl	stopMotor1AndUpdate
 192              	.LVL23:
  78:ultrasonic.c  ****                 moving = 0;
 193              		.loc 1 78 0
 194 009e FFF7FEFF 		bl	stopMotor2AndUpdate
 195              	.LVL24:
  79:ultrasonic.c  ****             
 196              		.loc 1 79 0
 197 00a2 0023     		movs	r3, #0
 198 00a4 404A     		ldr	r2, .L26+40
 199 00a6 1360     		str	r3, [r2]
  85:ultrasonic.c  ****             }
 200              		.loc 1 85 0
 201 00a8 3C4A     		ldr	r2, .L26+28
 202 00aa 1360     		str	r3, [r2]
 203 00ac 1CE0     		b	.L9
 204              	.LVL25:
 205              	.L10:
  89:ultrasonic.c  ****             stopMotor1AndUpdate();
 206              		.loc 1 89 0
 207 00ae 3C4B     		ldr	r3, .L26+32
 208 00b0 1A68     		ldr	r2, [r3]
 209 00b2 3C4B     		ldr	r3, .L26+36
 210 00b4 53F82200 		ldr	r0, [r3, r2, lsl #2]
 211              	.LVL26:
 212 00b8 1438     		subs	r0, r0, #20
 213 00ba FFF7FEFF 		bl	__aeabi_i2f
 214              	.LVL27:
 215 00be 0146     		mov	r1, r0
 216 00c0 2046     		mov	r0, r4
 217 00c2 FFF7FEFF 		bl	__aeabi_fcmplt
 218              	.LVL28:
 219 00c6 78B1     		cbz	r0, .L9
  90:ultrasonic.c  ****             stopMotor2AndUpdate(); 
 220              		.loc 1 90 0
 221 00c8 FFF7FEFF 		bl	stopMotor1AndUpdate
 222              	.LVL29:
  91:ultrasonic.c  ****             moving = 0;
 223              		.loc 1 91 0
 224 00cc FFF7FEFF 		bl	stopMotor2AndUpdate
 225              	.LVL30:
ARM GAS  C:\Users\Misha\AppData\Local\Temp\ccAqS97n.s 			page 8


  92:ultrasonic.c  ****             
 226              		.loc 1 92 0
 227 00d0 0022     		movs	r2, #0
 228 00d2 354B     		ldr	r3, .L26+40
 229 00d4 1A60     		str	r2, [r3]
  94:ultrasonic.c  ****             if (currentPuckRackScanningIndex == 4) {state = STATE_LOCATE_BLOCK_AND_PUCKS;}
 230              		.loc 1 94 0
 231 00d6 324A     		ldr	r2, .L26+32
 232 00d8 1368     		ldr	r3, [r2]
 233 00da 0133     		adds	r3, r3, #1
 234 00dc 1360     		str	r3, [r2]
  95:ultrasonic.c  **** 
 235              		.loc 1 95 0
 236 00de 042B     		cmp	r3, #4
 237 00e0 02D1     		bne	.L9
  95:ultrasonic.c  **** 
 238              		.loc 1 95 0 is_stmt 0 discriminator 1
 239 00e2 0222     		movs	r2, #2
 240 00e4 2C4B     		ldr	r3, .L26+24
 241 00e6 1A60     		str	r2, [r3]
 242              	.LVL31:
 243              	.L9:
 244              	.LBE2:
 101:ultrasonic.c  ****         
 245              		.loc 1 101 0 is_stmt 1
 246 00e8 2B4B     		ldr	r3, .L26+24
 247 00ea 1B68     		ldr	r3, [r3]
 248 00ec 022B     		cmp	r3, #2
 249 00ee 46D1     		bne	.L5
 105:ultrasonic.c  ****     		if (ultrasonic_distances[LEFT_SIDE] < ARENA_LENGTH - ultrasonic_distances[RIGHT_SIDE] - SIDE_
 250              		.loc 1 105 0
 251 00f0 2E4B     		ldr	r3, .L26+44
 252 00f2 1B68     		ldr	r3, [r3]
 253 00f4 002B     		cmp	r3, #0
 254 00f6 42D0     		beq	.L5
 106:ultrasonic.c  ****     			if (!block_start) {block_start = 1; block_edge_location[WEST] = ultrasonic_distances[BACK] +
 255              		.loc 1 106 0
 256 00f8 234B     		ldr	r3, .L26+8
 257 00fa 9C68     		ldr	r4, [r3, #8]	@ float
 258 00fc 5969     		ldr	r1, [r3, #20]	@ float
 259 00fe 2C48     		ldr	r0, .L26+48
 260 0100 FFF7FEFF 		bl	__aeabi_fsub
 261              	.LVL32:
 262 0104 2B49     		ldr	r1, .L26+52
 263 0106 FFF7FEFF 		bl	__aeabi_fsub
 264              	.LVL33:
 265 010a 0546     		mov	r5, r0
 266 010c 2A49     		ldr	r1, .L26+56
 267 010e FFF7FEFF 		bl	__aeabi_fsub
 268              	.LVL34:
 269 0112 0146     		mov	r1, r0
 270 0114 2046     		mov	r0, r4
 271 0116 FFF7FEFF 		bl	__aeabi_fcmplt
 272              	.LVL35:
 273 011a 60B1     		cbz	r0, .L24
 107:ultrasonic.c  ****     	    }
 274              		.loc 1 107 0
ARM GAS  C:\Users\Misha\AppData\Local\Temp\ccAqS97n.s 			page 9


 275 011c 1A4B     		ldr	r3, .L26+8
 276 011e DB69     		ldr	r3, [r3, #28]
 277 0120 BBB9     		cbnz	r3, .L16
 107:ultrasonic.c  ****     	    }
 278              		.loc 1 107 0 is_stmt 0 discriminator 1
 279 0122 194B     		ldr	r3, .L26+8
 280 0124 0122     		movs	r2, #1
 281 0126 DA61     		str	r2, [r3, #28]
 282 0128 2449     		ldr	r1, .L26+60
 283 012a 9869     		ldr	r0, [r3, #24]	@ float
 284 012c FFF7FEFF 		bl	__aeabi_fadd
 285              	.LVL36:
 286 0130 234B     		ldr	r3, .L26+64
 287 0132 D860     		str	r0, [r3, #12]	@ float
 288 0134 0DE0     		b	.L16
 289              	.L24:
 110:ultrasonic.c  ****     			block_start = 0; // We have found the east edge of the block
 290              		.loc 1 110 0 is_stmt 1
 291 0136 144B     		ldr	r3, .L26+8
 292 0138 DB69     		ldr	r3, [r3, #28]
 293 013a 53B1     		cbz	r3, .L16
 111:ultrasonic.c  ****     			block_edge_location[EAST] = ultrasonic_distances[BACK] + SIDE_SENSOR_OFFSET_FROM_BACK;
 294              		.loc 1 111 0
 295 013c 124B     		ldr	r3, .L26+8
 296 013e 0026     		movs	r6, #0
 297 0140 DE61     		str	r6, [r3, #28]
 112:ultrasonic.c  ****     			sweeping = 0;
 298              		.loc 1 112 0
 299 0142 1E49     		ldr	r1, .L26+60
 300 0144 9869     		ldr	r0, [r3, #24]	@ float
 301 0146 FFF7FEFF 		bl	__aeabi_fadd
 302              	.LVL37:
 303 014a 1D4B     		ldr	r3, .L26+64
 304 014c 5860     		str	r0, [r3, #4]	@ float
 113:ultrasonic.c  ****             }
 305              		.loc 1 113 0
 306 014e 174B     		ldr	r3, .L26+44
 307 0150 1E60     		str	r6, [r3]
 308              	.L16:
 116:ultrasonic.c  ****     			puckPileLocation = ultrasonic_distances[BACK] + SIDE_SENSOR_OFFSET_FROM_BACK;
 309              		.loc 1 116 0
 310 0152 1A49     		ldr	r1, .L26+60
 311 0154 2846     		mov	r0, r5
 312 0156 FFF7FEFF 		bl	__aeabi_fsub
 313              	.LVL38:
 314 015a 0546     		mov	r5, r0
 315 015c 0146     		mov	r1, r0
 316 015e 2046     		mov	r0, r4
 317 0160 FFF7FEFF 		bl	__aeabi_fcmplt
 318              	.LVL39:
 319 0164 58B1     		cbz	r0, .L5
 116:ultrasonic.c  ****     			puckPileLocation = ultrasonic_distances[BACK] + SIDE_SENSOR_OFFSET_FROM_BACK;
 320              		.loc 1 116 0 is_stmt 0 discriminator 1
 321 0166 2946     		mov	r1, r5
 322 0168 2046     		mov	r0, r4
 323 016a FFF7FEFF 		bl	__aeabi_fcmpgt
 324              	.LVL40:
ARM GAS  C:\Users\Misha\AppData\Local\Temp\ccAqS97n.s 			page 10


 325 016e 30B1     		cbz	r0, .L5
 117:ultrasonic.c  ****     	    } 
 326              		.loc 1 117 0 is_stmt 1
 327 0170 1249     		ldr	r1, .L26+60
 328 0172 054B     		ldr	r3, .L26+8
 329 0174 9869     		ldr	r0, [r3, #24]	@ float
 330 0176 FFF7FEFF 		bl	__aeabi_fadd
 331              	.LVL41:
 332 017a 124B     		ldr	r3, .L26+68
 333 017c 1860     		str	r0, [r3]	@ float
 334              	.L5:
 335 017e 70BD     		pop	{r4, r5, r6, pc}
 336              	.L27:
 337              		.align	3
 338              	.L26:
 339 0180 2BDF3312 		.word	305389355
 340 0184 A111C63F 		.word	1069945249
 341 0188 00000000 		.word	.LANCHOR0
 342 018c 00002440 		.word	1076101120
 343 0190 0000A040 		.word	1084227584
 344 0194 00000000 		.word	drivingForwardFlag
 345 0198 00000000 		.word	state
 346 019c 00000000 		.word	.LANCHOR1
 347 01a0 00000000 		.word	currentPuckRackScanningIndex
 348 01a4 00000000 		.word	puckRackOffsetsFromWest
 349 01a8 00000000 		.word	moving
 350 01ac 00000000 		.word	sweeping
 351 01b0 0000F042 		.word	1123024896
 352 01b4 0000C841 		.word	1103626240
 353 01b8 00002041 		.word	1092616192
 354 01bc 00007041 		.word	1097859072
 355 01c0 00000000 		.word	block_edge_location
 356 01c4 00000000 		.word	puckPileLocation
 357              		.cfi_endproc
 358              	.LFE64:
 359              		.size	ultrasonicInterruptHandler, .-ultrasonicInterruptHandler
 360              		.section	.text.distanceSensor,"ax",%progbits
 361              		.align	2
 362              		.global	distanceSensor
 363              		.thumb
 364              		.thumb_func
 365              		.type	distanceSensor, %function
 366              	distanceSensor:
 367              	.LFB66:
 153:ultrasonic.c  **** 
 154:ultrasonic.c  **** /*
 155:ultrasonic.c  **** float distanceFromCount(int timerCount){
 156:ultrasonic.c  **** 
 157:ultrasonic.c  ****     //int result = (int) (0.1777*(65536-timerCount)+13.013); // distance measured to nearest mm
 158:ultrasonic.c  ****     float result = (float) (0.1777*(65536-timerCount)+13.013) / 10 -10;                   // distan
 159:ultrasonic.c  ****     //float result = (
 160:ultrasonic.c  ****     //float result = (65536-timerCount)/58;                    // distance in cm
 161:ultrasonic.c  ****     return result;
 162:ultrasonic.c  **** 
 163:ultrasonic.c  **** }
 164:ultrasonic.c  **** */
 165:ultrasonic.c  **** 
ARM GAS  C:\Users\Misha\AppData\Local\Temp\ccAqS97n.s 			page 11


 166:ultrasonic.c  **** void distanceSensor(int currentSensorIndex) {
 368              		.loc 1 166 0
 369              		.cfi_startproc
 370              		@ args = 0, pretend = 0, frame = 0
 371              		@ frame_needed = 0, uses_anonymous_args = 0
 372              	.LVL42:
 373 0000 10B5     		push	{r4, lr}
 374              		.cfi_def_cfa_offset 8
 375              		.cfi_offset 4, -8
 376              		.cfi_offset 14, -4
 377 0002 0446     		mov	r4, r0
 167:ultrasonic.c  ****     
 168:ultrasonic.c  ****     Ultrasonic_Mux_Control_Write(currentSensorIndex);
 378              		.loc 1 168 0
 379 0004 C0B2     		uxtb	r0, r0
 380              	.LVL43:
 381 0006 FFF7FEFF 		bl	Ultrasonic_Mux_Control_Write
 382              	.LVL44:
 169:ultrasonic.c  ****     Timer_1_Start();
 383              		.loc 1 169 0
 384 000a FFF7FEFF 		bl	Timer_1_Start
 385              	.LVL45:
 170:ultrasonic.c  ****         
 171:ultrasonic.c  ****     switch(currentSensorIndex){
 386              		.loc 1 171 0
 387 000e 042C     		cmp	r4, #4
 388 0010 35D8     		bhi	.L28
 389 0012 DFE804F0 		tbb	[pc, r4]
 390              	.L31:
 391 0016 03       		.byte	(.L30-.L31)/2
 392 0017 0D       		.byte	(.L32-.L31)/2
 393 0018 17       		.byte	(.L33-.L31)/2
 394 0019 21       		.byte	(.L34-.L31)/2
 395 001a 2B       		.byte	(.L35-.L31)/2
 396 001b 00       		.p2align 1
 397              	.L30:
 172:ultrasonic.c  ****         
 173:ultrasonic.c  ****         case 0:
 174:ultrasonic.c  ****         
 175:ultrasonic.c  ****             //while (Echo_1_Read() == 0)
 176:ultrasonic.c  ****             {
 177:ultrasonic.c  ****                 Trigger_1_Write(1);
 398              		.loc 1 177 0
 399 001c 0120     		movs	r0, #1
 400 001e FFF7FEFF 		bl	Trigger_1_Write
 401              	.LVL46:
 178:ultrasonic.c  ****                 CyDelayUs(10);          // 10microsecond pulse
 402              		.loc 1 178 0
 403 0022 0A20     		movs	r0, #10
 404 0024 FFF7FEFF 		bl	CyDelayUs
 405              	.LVL47:
 179:ultrasonic.c  ****                 Trigger_1_Write(0);
 406              		.loc 1 179 0
 407 0028 0020     		movs	r0, #0
 408 002a FFF7FEFF 		bl	Trigger_1_Write
 409              	.LVL48:
 180:ultrasonic.c  ****             }
ARM GAS  C:\Users\Misha\AppData\Local\Temp\ccAqS97n.s 			page 12


 181:ultrasonic.c  ****         
 182:ultrasonic.c  ****         break;
 410              		.loc 1 182 0
 411 002e 10BD     		pop	{r4, pc}
 412              	.LVL49:
 413              	.L32:
 183:ultrasonic.c  ****         
 184:ultrasonic.c  ****         case 1:
 185:ultrasonic.c  ****         
 186:ultrasonic.c  ****            //while (Echo_2_Read() == 0)
 187:ultrasonic.c  ****             {
 188:ultrasonic.c  ****                 Trigger_2_Write(1);
 414              		.loc 1 188 0
 415 0030 0120     		movs	r0, #1
 416 0032 FFF7FEFF 		bl	Trigger_2_Write
 417              	.LVL50:
 189:ultrasonic.c  ****                 CyDelayUs(10);          // 10microsecond pulse
 418              		.loc 1 189 0
 419 0036 0A20     		movs	r0, #10
 420 0038 FFF7FEFF 		bl	CyDelayUs
 421              	.LVL51:
 190:ultrasonic.c  ****                 Trigger_2_Write(0);
 422              		.loc 1 190 0
 423 003c 0020     		movs	r0, #0
 424 003e FFF7FEFF 		bl	Trigger_2_Write
 425              	.LVL52:
 191:ultrasonic.c  ****             }
 192:ultrasonic.c  ****         
 193:ultrasonic.c  ****         break;
 426              		.loc 1 193 0
 427 0042 10BD     		pop	{r4, pc}
 428              	.LVL53:
 429              	.L33:
 194:ultrasonic.c  ****         
 195:ultrasonic.c  ****         case 2:
 196:ultrasonic.c  ****         
 197:ultrasonic.c  ****             //while (Echo_3_Read() == 0)
 198:ultrasonic.c  ****             {
 199:ultrasonic.c  ****                 Trigger_3_Write(1);
 430              		.loc 1 199 0
 431 0044 0120     		movs	r0, #1
 432 0046 FFF7FEFF 		bl	Trigger_3_Write
 433              	.LVL54:
 200:ultrasonic.c  ****                 CyDelayUs(10);          // 10microsecond pulse
 434              		.loc 1 200 0
 435 004a 0A20     		movs	r0, #10
 436 004c FFF7FEFF 		bl	CyDelayUs
 437              	.LVL55:
 201:ultrasonic.c  ****                 Trigger_3_Write(0);
 438              		.loc 1 201 0
 439 0050 0020     		movs	r0, #0
 440 0052 FFF7FEFF 		bl	Trigger_3_Write
 441              	.LVL56:
 202:ultrasonic.c  ****             }
 203:ultrasonic.c  ****         
 204:ultrasonic.c  ****         break;
 442              		.loc 1 204 0
ARM GAS  C:\Users\Misha\AppData\Local\Temp\ccAqS97n.s 			page 13


 443 0056 10BD     		pop	{r4, pc}
 444              	.LVL57:
 445              	.L34:
 205:ultrasonic.c  ****         
 206:ultrasonic.c  ****         case 3:
 207:ultrasonic.c  ****         
 208:ultrasonic.c  ****            //while (Echo_4_Read() == 0)
 209:ultrasonic.c  ****             {
 210:ultrasonic.c  ****                 Trigger_4_Write(1);
 446              		.loc 1 210 0
 447 0058 0120     		movs	r0, #1
 448 005a FFF7FEFF 		bl	Trigger_4_Write
 449              	.LVL58:
 211:ultrasonic.c  ****                 CyDelayUs(10);          // 10microsecond pulse
 450              		.loc 1 211 0
 451 005e 0A20     		movs	r0, #10
 452 0060 FFF7FEFF 		bl	CyDelayUs
 453              	.LVL59:
 212:ultrasonic.c  ****                 Trigger_4_Write(0);
 454              		.loc 1 212 0
 455 0064 0020     		movs	r0, #0
 456 0066 FFF7FEFF 		bl	Trigger_4_Write
 457              	.LVL60:
 213:ultrasonic.c  ****             }
 214:ultrasonic.c  ****         
 215:ultrasonic.c  ****         break;
 458              		.loc 1 215 0
 459 006a 10BD     		pop	{r4, pc}
 460              	.LVL61:
 461              	.L35:
 216:ultrasonic.c  ****         
 217:ultrasonic.c  ****         case 4:
 218:ultrasonic.c  ****         
 219:ultrasonic.c  ****             //while (Echo_5_Read() == 0)
 220:ultrasonic.c  ****             {
 221:ultrasonic.c  ****                 Trigger_5_Write(1);
 462              		.loc 1 221 0
 463 006c 0120     		movs	r0, #1
 464 006e FFF7FEFF 		bl	Trigger_5_Write
 465              	.LVL62:
 222:ultrasonic.c  ****                 CyDelayUs(10);          // 10microsecond pulse
 466              		.loc 1 222 0
 467 0072 0A20     		movs	r0, #10
 468 0074 FFF7FEFF 		bl	CyDelayUs
 469              	.LVL63:
 223:ultrasonic.c  ****                 Trigger_5_Write(0);
 470              		.loc 1 223 0
 471 0078 0020     		movs	r0, #0
 472 007a FFF7FEFF 		bl	Trigger_5_Write
 473              	.LVL64:
 474              	.L28:
 475 007e 10BD     		pop	{r4, pc}
 476              		.cfi_endproc
 477              	.LFE66:
 478              		.size	distanceSensor, .-distanceSensor
 479              		.section	.text.distanceCheck,"ax",%progbits
 480              		.align	2
ARM GAS  C:\Users\Misha\AppData\Local\Temp\ccAqS97n.s 			page 14


 481              		.global	distanceCheck
 482              		.thumb
 483              		.thumb_func
 484              		.type	distanceCheck, %function
 485              	distanceCheck:
 486              	.LFB67:
 224:ultrasonic.c  ****             }
 225:ultrasonic.c  ****         
 226:ultrasonic.c  ****         break;
 227:ultrasonic.c  ****             
 228:ultrasonic.c  ****     }
 229:ultrasonic.c  **** 
 230:ultrasonic.c  **** }
 231:ultrasonic.c  **** 
 232:ultrasonic.c  **** void distanceCheck()
 233:ultrasonic.c  **** {
 487              		.loc 1 233 0
 488              		.cfi_startproc
 489              		@ args = 0, pretend = 0, frame = 0
 490              		@ frame_needed = 0, uses_anonymous_args = 0
 491 0000 08B5     		push	{r3, lr}
 492              		.cfi_def_cfa_offset 8
 493              		.cfi_offset 3, -8
 494              		.cfi_offset 14, -4
 234:ultrasonic.c  ****    
 235:ultrasonic.c  ****   for (ultrasonic_mux_control = 0; ultrasonic_mux_control < TOTAL_SONIC_SENSORS; ultrasonic_mux_con
 495              		.loc 1 235 0
 496 0002 0022     		movs	r2, #0
 497 0004 084B     		ldr	r3, .L41
 498 0006 1A71     		strb	r2, [r3, #4]
 499 0008 08E0     		b	.L38
 500              	.L39:
 236:ultrasonic.c  **** 
 237:ultrasonic.c  ****         distanceSensor(ultrasonic_mux_control);
 501              		.loc 1 237 0 discriminator 3
 502 000a FFF7FEFF 		bl	distanceSensor
 503              	.LVL65:
 238:ultrasonic.c  ****         CyDelay(SENSOR_PULSE_DELAY_MS);                // delay of 100 milliseconds or adequate bet
 504              		.loc 1 238 0 discriminator 3
 505 000e 3220     		movs	r0, #50
 506 0010 FFF7FEFF 		bl	CyDelay
 507              	.LVL66:
 235:ultrasonic.c  **** 
 508              		.loc 1 235 0 discriminator 3
 509 0014 044A     		ldr	r2, .L41
 510 0016 1379     		ldrb	r3, [r2, #4]	@ zero_extendqisi2
 511 0018 0133     		adds	r3, r3, #1
 512 001a 1371     		strb	r3, [r2, #4]
 513              	.L38:
 235:ultrasonic.c  **** 
 514              		.loc 1 235 0 is_stmt 0 discriminator 1
 515 001c 024B     		ldr	r3, .L41
 516 001e 1879     		ldrb	r0, [r3, #4]	@ zero_extendqisi2
 517 0020 0428     		cmp	r0, #4
 518 0022 F2D9     		bls	.L39
 239:ultrasonic.c  ****   
 240:ultrasonic.c  ****     }
ARM GAS  C:\Users\Misha\AppData\Local\Temp\ccAqS97n.s 			page 15


 241:ultrasonic.c  **** }
 519              		.loc 1 241 0 is_stmt 1
 520 0024 08BD     		pop	{r3, pc}
 521              	.L42:
 522 0026 00BF     		.align	2
 523              	.L41:
 524 0028 00000000 		.word	.LANCHOR0
 525              		.cfi_endproc
 526              	.LFE67:
 527              		.size	distanceCheck, .-distanceCheck
 528              		.global	puck_start
 529              		.global	block_start
 530              		.global	ultrasonic_mux_control
 531              		.global	ultrasonic_distances
 532              		.global	distance_measured
 533              		.global	count
 534              		.global	i
 535              		.global	initialisation
 536              		.comm	output,32,4
 537              		.comm	puckPileLocation,4,4
 538              		.comm	block_edge_location,16,4
 539              		.comm	sweeping,4,4
 540              		.comm	puckRackOffsetsFromWest,20,4
 541              		.comm	puckRackColours,20,4
 542              		.comm	currentPuckRackScanningIndex,4,4
 543              		.comm	driveStraightEnable,4,4
 544              		.data
 545              		.align	2
 546              		.set	.LANCHOR1,. + 0
 547              		.type	initialisation, %object
 548              		.size	initialisation, 4
 549              	initialisation:
 550 0000 01000000 		.word	1
 551              		.section	.rodata.str1.4,"aMS",%progbits,1
 552              		.align	2
 553              	.LC0:
 554 0000 25643A20 		.ascii	"%d: %fmm\012\000"
 554      25666D6D 
 554      0A00
 555              		.bss
 556              		.align	2
 557              		.set	.LANCHOR0,. + 0
 558              		.type	count, %object
 559              		.size	count, 4
 560              	count:
 561 0000 00000000 		.space	4
 562              		.type	ultrasonic_mux_control, %object
 563              		.size	ultrasonic_mux_control, 1
 564              	ultrasonic_mux_control:
 565 0004 00       		.space	1
 566 0005 000000   		.space	3
 567              		.type	ultrasonic_distances, %object
 568              		.size	ultrasonic_distances, 20
 569              	ultrasonic_distances:
 570 0008 00000000 		.space	20
 570      00000000 
 570      00000000 
ARM GAS  C:\Users\Misha\AppData\Local\Temp\ccAqS97n.s 			page 16


 570      00000000 
 570      00000000 
 571              		.type	block_start, %object
 572              		.size	block_start, 4
 573              	block_start:
 574 001c 00000000 		.space	4
 575              		.type	puck_start, %object
 576              		.size	puck_start, 4
 577              	puck_start:
 578 0020 00000000 		.space	4
 579              		.type	distance_measured, %object
 580              		.size	distance_measured, 4
 581              	distance_measured:
 582 0024 00000000 		.space	4
 583              		.type	i, %object
 584              		.size	i, 4
 585              	i:
 586 0028 00000000 		.space	4
 587              		.text
 588              	.Letext0:
 589              		.file 2 "c:\\program files (x86)\\cypress\\psoc creator\\4.2\\psoc creator\\import\\gnu\\arm\\5.4.
 590              		.file 3 "c:\\program files (x86)\\cypress\\psoc creator\\4.2\\psoc creator\\import\\gnu\\arm\\5.4.
 591              		.file 4 "Generated_Source\\PSoC5/cytypes.h"
 592              		.file 5 "ultrasonic.h"
 593              		.file 6 "main.h"
 594              		.file 7 "Generated_Source\\PSoC5/core_cm3.h"
 595              		.file 8 "c:\\program files (x86)\\cypress\\psoc creator\\4.2\\psoc creator\\import\\gnu\\arm\\5.4.
 596              		.file 9 "Generated_Source\\PSoC5/UART_1.h"
 597              		.file 10 "customMath.h"
 598              		.file 11 "dcmotor.h"
 599              		.file 12 "Generated_Source\\PSoC5/Timer_1.h"
 600              		.file 13 "Generated_Source\\PSoC5/Ultrasonic_Mux_Control.h"
 601              		.file 14 "Generated_Source\\PSoC5/Trigger_1.h"
 602              		.file 15 "Generated_Source\\PSoC5/CyLib.h"
 603              		.file 16 "Generated_Source\\PSoC5/Trigger_2.h"
 604              		.file 17 "Generated_Source\\PSoC5/Trigger_3.h"
 605              		.file 18 "Generated_Source\\PSoC5/Trigger_4.h"
 606              		.file 19 "Generated_Source\\PSoC5/Trigger_5.h"